                            MasterStackPointer:           
ram:08000c00    f56c6590        addr        DAT_90656cf5                            
                            Reset:                        ;XREF[1,0]:   Entry Point
ram:08000c04    24490000        addr        DAT_00004924                            
                            NMI:                          ;XREF[1,0]:   Entry Point
ram:08000c08    37000000        addr        DAT_00000037                            
                            HardFault:                    ;XREF[1,0]:   Entry Point
ram:08000c0c    5f680100        addr        DAT_0001685f                            
                            MemManage:                    ;XREF[1,0]:   Entry Point
ram:08000c10    c0080020        addr        DAT_200008c0                            
                            BusFault:                     ;XREF[1,0]:   Entry Point
ram:08000c14    e5500008        addr        FUNC_Reset_080050e4+1                   
                            UsageFault:                   ;XREF[1,0]:   Entry Point
ram:08000c18    0b510008        addr        FUNC_NMI_0800510a+1                     
                            Reserved1:                    ;XREF[1,0]:   Entry Point
ram:08000c1c    0d510008        addr        FUNC_HardFault_0800510c+1               
                            Reserved2:                    ;XREF[1,0]:   Entry Point
ram:08000c20    00000000        addr        00000000                                
                            Reserved3:                    ;XREF[1,0]:   Entry Point
ram:08000c24    00000000        addr        00000000                                
                            Reserved5:                    ;XREF[1,0]:   Entry Point
                            Reserved6:                    
                            Reserved4:                    
ram:08000c28    00000000        addr        00000000                                
                            SVCall:                       ;XREF[1,0]:   Entry Point
ram:08000c2c    00000000        addr        00000000                                
ram:08000c30    00000000        addr        00000000                                
ram:08000c34    00000000        addr        00000000                                
                            ;************************************************************************************************
                            ;*                                           FUNCTION                                           *
                            ;************************************************************************************************
                            ;undefined PendSV(undefined4 param_1, int param_2, int param_3)
          ;param_1       undefined4          r0                      
          ;param_2       int                 r1                      
          ;param_3       int                 r2                      
                                                          ;XREF[1,0]:   Entry Point
ram:08000c38    00000000        addr        00000000                                
                            ;************************************************************************************************
                            ;*                                           FUNCTION                                           *
                            ;************************************************************************************************
                            ;undefined SysTick(undefined4 param_1, int param_2, int param_3, uint param_4)
          ;param_1       undefined4          r0                      
          ;param_2       int                 r1                      
          ;param_3       int                 r2                      
          ;param_4       uint                r3                      
                                                          ;XREF[1,0]:   Entry Point
ram:08000c3c    0f510008        addr        FUNC_SVCall_0800510e+1                  
                            IRQ:                          ;XREF[1,0]:   Entry Point
ram:08000c40    00000000        addr        00000000                                
ram:08000c44    00000000        addr        00000000                                
ram:08000c48    11510008        addr        FUNC_PendSV_08005110+1                  
ram:08000c4c    034a0008        addr        FUNC_SysTick_08004a02+1                 
ram:08000c50    15510008        addr        FUNC_IRQ_08005114+1                     
ram:08000c54    00000000        addr        00000000                                
ram:08000c58    15510008        addr        FUNC_IRQ_08005114+1                     
ram:08000c5c    15510008        addr        FUNC_IRQ_08005114+1                     
ram:08000c60    15510008        addr        FUNC_IRQ_08005114+1                     
ram:08000c64    15510008        addr        FUNC_IRQ_08005114+1                     
ram:08000c68    15510008        addr        FUNC_IRQ_08005114+1                     
ram:08000c6c    15510008        addr        FUNC_IRQ_08005114+1                     
ram:08000c70    00000000        addr        00000000                                
ram:08000c74    15510008        addr        FUNC_IRQ_08005114+1                     
ram:08000c78    15510008        addr        FUNC_IRQ_08005114+1                     
ram:08000c7c    15510008        addr        FUNC_IRQ_08005114+1                     
ram:08000c80    15510008        addr        FUNC_IRQ_08005114+1                     
ram:08000c84    15510008        addr        FUNC_IRQ_08005114+1                     
ram:08000c88    15510008        addr        FUNC_IRQ_08005114+1                     
ram:08000c8c    00000000        addr        00000000                                
ram:08000c90    012a0008        addr        FUNC_VT_08002a00+1                      
ram:08000c94    00000000        addr        00000000                                
ram:08000c98    00000000        addr        00000000                                
ram:08000c9c    15510008        addr        FUNC_IRQ_08005114+1                     
ram:08000ca0    15510008        addr        FUNC_IRQ_08005114+1                     
ram:08000ca4    15510008        addr        FUNC_IRQ_08005114+1                     
ram:08000ca8    15510008        addr        FUNC_IRQ_08005114+1                     
ram:08000cac    15510008        addr        FUNC_IRQ_08005114+1                     
ram:08000cb0    15510008        addr        FUNC_IRQ_08005114+1                     
ram:08000cb4    15510008        addr        FUNC_IRQ_08005114+1                     
ram:08000cb8    15510008        addr        FUNC_IRQ_08005114+1                     
ram:08000cbc    55260008        addr        FUNC_VT_08002654+1                      
ram:08000cc0    15510008        addr        FUNC_IRQ_08005114+1                     
                            ;************************************************************************************************
                            ;*                                           FUNCTION                                           *
                            ;************************************************************************************************
                            ;undefined FUN_08000cc4(undefined4 param_1, undefined4 param_2, undefined * param_3, uint param_4)
          ;param_1       undefined4          r0                      
          ;param_2       undefined4          r1                      
          ;param_3       undefined *         r2                      
          ;param_4       uint                r3                      
                                                          ;XREF[1,0]:   08005108
ram:08000cc4    0348            ldr         param_1,[DAT_08000cd4]                  ;= 200008C0h
ram:08000cc6    8546            mov         sp,param_1                              
ram:08000cc8    04f02cfb        bl          FUN_08005324                            ;undefined FUN_08005324(undefined4 pa...
                            ;************************************************************************************************
                            ;*                                           FUNCTION                                           *
                            ;************************************************************************************************
                            ;undefined thunk_FUN_08004a36(void)
                                                          ;XREF[1,0]:   0800533c
ram:08000ccc    0048            ldr         r0,[DAT_08000cd0]                       ;= 08004A37h
ram:08000cce    0047            bx          r0=>FUN_08004a36                        ;undefined FUN_08004a36(void)
                            DAT_08000cd0:                 ;XREF[1,0]:   08000ccc
ram:08000cd0    374a0008        undefined4  08004A37h                               ;?  ->  08004a37
                            DAT_08000cd4:                 ;XREF[1,0]:   08000cc4
ram:08000cd4    c0080020        undefined4  200008C0h                               
                            ;************************************************************************************************
                            ;*                                           FUNCTION                                           *
                            ;************************************************************************************************
                            ;undefined FUN_08000cd8(void)
          ;local_1c      undefined4         -1c                      ;XREF[2,0]:   08000ce0,08000e0c
          ;local_20      undefined4         -20                      ;XREF[3,0]:   08000cea,08000d62,08000d76
                                                          ;XREF[1,0]:   08003468
ram:08000cd8    f0b5            push        {r4,r5,r6,r7,lr}                        
ram:08000cda    fc4c            ldr         r4,[DAT_080010cc]                       ;= 200000C4h
ram:08000cdc    83b0            sub         sp,#0xc                                 
ram:08000cde    e068            ldr         r0,[r4,#0xc]=>DAT_200000d0              
ram:08000ce0    0190            str         r0,[sp,#local_1c+0x20]                  
ram:08000ce2    fb48            ldr         r0,[DAT_080010d0]                       ;= 2000020Ch
ram:08000ce4    fb4b            ldr         r3=>DAT_20000244,[DAT_080010d4]         ;= 20000244h
ram:08000ce6    0068            ldr         r0,[r0,#0x0]=>DAT_2000020c              
ram:08000ce8    e060            str         r0,[r4,#0xc]=>DAT_200000d0              
ram:08000cea    0090            str         r0,[sp,#0x0]=>local_20                  
ram:08000cec    0020            movs        r0,#0x0                                 
ram:08000cee    6060            str         r0,[r4,#0x4]=>DAT_200000c8              
ram:08000cf0    a060            str         r0,[r4,#0x8]=>DAT_200000cc              
ram:08000cf2    f94a            ldr         r2,[DAT_080010d8]                       ;= 2000026Ch
ram:08000cf4    1868            ldr         r0,[r3,#0x0]=>DAT_20000244              
ram:08000cf6    6060            str         r0,[r4,#0x4]=>DAT_200000c8              
ram:08000cf8    1168            ldr         r1,[r2,#0x0]=>DAT_2000026c              
ram:08000cfa    a160            str         r1,[r4,#0x8]=>DAT_200000cc              
ram:08000cfc    5e68            ldr         r6,[r3,#0x4]=>DAT_20000248              
ram:08000cfe    5568            ldr         r5,[r2,#0x4]=>DAT_20000270              
ram:08000d00    0424            movs        r4,#0x4                                 
                            LAB_08000d02:                 ;XREF[1,0]:   08000d20
                                                          ; FWD[2,0]:   2000024c,20000254
ram:08000d02    9f68            ldr         r7,[r3,#0x8]=>DAT_2000024c              
ram:08000d04    3043            orrs        r0,r6                                   
ram:08000d06    be46            mov         lr,r7                                   
                                                          ; FWD[2,0]:   20000274,2000027c
ram:08000d08    9768            ldr         r7,[r2,#0x8]=>DAT_20000274              
ram:08000d0a    2943            orrs        r1,r5                                   
ram:08000d0c    bc46            mov         r12,r7                                  
ram:08000d0e    7746            mov         r7,lr                                   
ram:08000d10    3843            orrs        r0,r7                                   
                                                          ; FWD[2,0]:   20000250,20000258
ram:08000d12    de68            ldr         r6,[r3,#0xc]=>DAT_20000250              
ram:08000d14    6746            mov         r7,r12                                  
                                                          ; FWD[2,0]:   20000278,20000280
ram:08000d16    d568            ldr         r5,[r2,#0xc]=>DAT_20000278              
ram:08000d18    3943            orrs        r1,r7                                   
ram:08000d1a    0832            adds        r2,#0x8                                 
ram:08000d1c    0833            adds        r3,#0x8                                 
ram:08000d1e    641e            subs        r4,r4,#0x1                              
ram:08000d20    efd1            bne         LAB_08000d02                            
ram:08000d22    ec4b            ldr         r3=>DAT_20000244,[DAT_080010d4]         ;= 20000244h
ram:08000d24    e94c            ldr         r4,[DAT_080010cc]                       ;= 200000C4h
ram:08000d26    5a6a            ldr         r2,[r3,#0x24]=>DAT_20000268             
ram:08000d28    0243            orrs        r2,r0                                   
ram:08000d2a    eb48            ldr         r0,[DAT_080010d8]                       ;= 2000026Ch
ram:08000d2c    6260            str         r2,[r4,#0x4]=>DAT_200000c8              
ram:08000d2e    406a            ldr         r0,[r0,#0x24]=>DAT_20000290             
ram:08000d30    0843            orrs        r0,r1                                   
ram:08000d32    a060            str         r0,[r4,#0x8]=>DAT_200000cc              
ram:08000d34    0020            movs        r0,#0x0                                 
ram:08000d36    1860            str         r0,[r3,#0x0]=>DAT_20000244              
ram:08000d38    5860            str         r0,[r3,#0x4]=>DAT_20000248              
ram:08000d3a    9860            str         r0,[r3,#0x8]=>DAT_2000024c              
ram:08000d3c    d860            str         r0,[r3,#0xc]=>DAT_20000250              
ram:08000d3e    1861            str         r0,[r3,#0x10]=>DAT_20000254             
ram:08000d40    5861            str         r0,[r3,#0x14]=>DAT_20000258             
ram:08000d42    9861            str         r0,[r3,#0x18]=>DAT_2000025c             
ram:08000d44    d861            str         r0,[r3,#0x1c]=>DAT_20000260             
ram:08000d46    1862            str         r0,[r3,#0x20]=>DAT_20000264             
ram:08000d48    5862            str         r0,[r3,#0x24]=>DAT_20000268             
ram:08000d4a    9862            str         r0,[r3,#0x28]=>DAT_2000026c             
ram:08000d4c    d862            str         r0,[r3,#0x2c]=>DAT_20000270             
ram:08000d4e    1863            str         r0,[r3,#0x30]=>DAT_20000274             
ram:08000d50    5863            str         r0,[r3,#0x34]=>DAT_20000278             
ram:08000d52    9863            str         r0,[r3,#0x38]=>DAT_2000027c             
ram:08000d54    d863            str         r0,[r3,#0x3c]=>DAT_20000280             
ram:08000d56    1864            str         r0,[r3,#0x40]=>DAT_20000284             
ram:08000d58    5864            str         r0,[r3,#0x44]=>DAT_20000288             
ram:08000d5a    9864            str         r0,[r3,#0x48]=>DAT_2000028c             
ram:08000d5c    d864            str         r0,[r3,#0x4c]=>DAT_20000290             
ram:08000d5e    a061            str         r0,[r4,#0x18]=>DAT_200000dc             
ram:08000d60    e061            str         r0,[r4,#0x1c]=>DAT_200000e0             
ram:08000d62    0098            ldr         r0,[sp,#0x0]=>local_20                  
ram:08000d64    1043            orrs        r0,r2                                   
ram:08000d66    01d0            beq         LAB_08000d6c                            
ram:08000d68    0120            movs        r0,#0x1                                 
ram:08000d6a    2070            strb        r0,[r4,#0x0]=>DAT_200000c4              
                            LAB_08000d6c:                 ;XREF[1,0]:   08000d66
ram:08000d6c    db4d            ldr         r5,[DAT_080010dc]                       ;= 20000394h
ram:08000d6e    0720            movs        r0,#0x7                                 
ram:08000d70    6870            strb        r0,[r5,#0x1]=>DAT_20000395              
ram:08000d72    2720            movs        r0,#0x27                                
ram:08000d74    2870            strb        r0,[r5,#0x0]=>DAT_20000394              
ram:08000d76    0099            ldr         r1,[sp,#0x0]=>local_20                  
ram:08000d78    2846            mov         r0,r5                                   
ram:08000d7a    8170            strb        r1,[r0,#0x2]=>DAT_20000396              
ram:08000d7c    0a0a            lsrs        r2,r1,#0x8                              
ram:08000d7e    c270            strb        r2,[r0,#0x3]=>DAT_20000397              
ram:08000d80    0a0c            lsrs        r2,r1,#0x10                             
ram:08000d82    0271            strb        r2,[r0,#0x4]=>DAT_20000398              
ram:08000d84    090e            lsrs        r1,r1,#0x18                             
ram:08000d86    4171            strb        r1,[r0,#0x5]=>DAT_20000399              
ram:08000d88    d549            ldr         r1,[DAT_080010e0]                       ;= 20000210h
ram:08000d8a    0968            ldr         r1,[r1,#0x0]=>DAT_20000210              
ram:08000d8c    8171            strb        r1,[r0,#0x6]=>DAT_2000039a              
ram:08000d8e    0a0a            lsrs        r2,r1,#0x8                              
ram:08000d90    c271            strb        r2,[r0,#0x7]=>DAT_2000039b              
ram:08000d92    0a0c            lsrs        r2,r1,#0x10                             
ram:08000d94    0272            strb        r2,[r0,#0x8]=>DAT_2000039c              
ram:08000d96    090e            lsrs        r1,r1,#0x18                             
ram:08000d98    4172            strb        r1,[r0,#0x9]=>DAT_2000039d              
ram:08000d9a    208d            ldrh        r0,[r4,#0x28]=>DAT_200000ec             
ram:08000d9c    a872            strb        r0,[r5,#0xa]=>DAT_2000039e              
ram:08000d9e    0020            movs        r0,#0x0                                 
ram:08000da0    02f0baf8        bl          FUN_08002f18                            ;int FUN_08002f18(int param_1)
ram:08000da4    2f46            mov         r7,r5                                   
ram:08000da6    f872            strb        r0,[r7,#0xb]=>DAT_2000039f              
ram:08000da8    000a            lsrs        r0,r0,#0x8                              
ram:08000daa    3873            strb        r0,[r7,#0xc]=>DAT_200003a0              
ram:08000dac    0120            movs        r0,#0x1                                 
ram:08000dae    02f0b3f8        bl          FUN_08002f18                            ;int FUN_08002f18(int param_1)
ram:08000db2    2e46            mov         r6,r5                                   
ram:08000db4    7073            strb        r0,[r6,#0xd]=>DAT_200003a1              
ram:08000db6    000a            lsrs        r0,r0,#0x8                              
ram:08000db8    b073            strb        r0,[r6,#0xe]=>DAT_200003a2              
ram:08000dba    0220            movs        r0,#0x2                                 
ram:08000dbc    02f0acf8        bl          FUN_08002f18                            ;int FUN_08002f18(int param_1)
ram:08000dc0    f873            strb        r0,[r7,#0xf]=>DAT_200003a3              
ram:08000dc2    000a            lsrs        r0,r0,#0x8                              
ram:08000dc4    3874            strb        r0,[r7,#0x10]=>DAT_200003a4             
ram:08000dc6    0320            movs        r0,#0x3                                 
ram:08000dc8    02f0a6f8        bl          FUN_08002f18                            ;int FUN_08002f18(int param_1)
ram:08000dcc    7074            strb        r0,[r6,#0x11]=>DAT_200003a5             
ram:08000dce    000a            lsrs        r0,r0,#0x8                              
ram:08000dd0    b074            strb        r0,[r6,#0x12]=>DAT_200003a6             
ram:08000dd2    c449            ldr         r1,[DAT_080010e4]                       ;= 20000204h
ram:08000dd4    e87c            ldrb        r0,[r5,#0x13]=>DAT_200003a7             
ram:08000dd6    0978            ldrb        r1,[r1,#0x0]=>DAT_20000204              
ram:08000dd8    4008            lsrs        r0,r0,#0x1                              
ram:08000dda    c907            lsls        r1,r1,#0x1f                             
ram:08000ddc    4000            lsls        r0,r0,#0x1                              
ram:08000dde    c90f            lsrs        r1,r1,#0x1f                             
ram:08000de0    0843            orrs        r0,r1                                   
ram:08000de2    e874            strb        r0,[r5,#0x13]=>DAT_200003a7             
ram:08000de4    2178            ldrb        r1,[r4,#0x0]=>DAT_200000c4              
ram:08000de6    0129            cmp         r1,#0x1                                 
ram:08000de8    0dd0            beq         LAB_08000e06                            
ram:08000dea    fd21            movs        r1,#0xfd                                
ram:08000dec    0840            ands        r0,r1                                   
                            LAB_08000dee:                 ;XREF[1,0]:   08000e0a
ram:08000dee    fb21            movs        r1,#0xfb                                
ram:08000df0    0840            ands        r0,r1                                   
ram:08000df2    bd49            ldr         r1,[DAT_080010e8]                       ;= 20000101h
ram:08000df4    0978            ldrb        r1,[r1,#0x0]=>DAT_20000101              
ram:08000df6    c907            lsls        r1,r1,#0x1f                             
ram:08000df8    490f            lsrs        r1,r1,#0x1d                             
ram:08000dfa    0843            orrs        r0,r1                                   
ram:08000dfc    e874            strb        r0,[r5,#0x13]=>DAT_200003a7             
ram:08000dfe    e068            ldr         r0,[r4,#0xc]=>DAT_200000d0              
ram:08000e00    0028            cmp         r0,#0x0                                 
ram:08000e02    06d1            bne         LAB_08000e12                            
ram:08000e04    02e0            b           LAB_08000e0c                            
                            LAB_08000e06:                 ;XREF[1,0]:   08000de8
ram:08000e06    0221            movs        r1,#0x2                                 
ram:08000e08    0843            orrs        r0,r1                                   
ram:08000e0a    f0e7            b           LAB_08000dee                            
                            LAB_08000e0c:                 ;XREF[1,0]:   08000e04
ram:08000e0c    0198            ldr         r0,[sp,#local_1c+0x20]                  
ram:08000e0e    0028            cmp         r0,#0x0                                 
ram:08000e10    0bd1            bne         LAB_08000e2a                            
                            LAB_08000e12:                 ;XREF[1,0]:   08000e02
ram:08000e12    00f006fa        bl          FUN_08001222                            ;int FUN_08001222(void)
ram:08000e16    0028            cmp         r0,#0x0                                 
ram:08000e18    03d1            bne         LAB_08000e22                            
ram:08000e1a    b448            ldr         r0,[DAT_080010ec]                       ;= 20000120h
ram:08000e1c    0068            ldr         r0,[r0,#0x0]=>DAT_20000120              
ram:08000e1e    0028            cmp         r0,#0x0                                 
ram:08000e20    03d0            beq         LAB_08000e2a                            
                            LAB_08000e22:                 ;XREF[1,0]:   08000e18
ram:08000e22    e87c            ldrb        r0,[r5,#0x13]=>DAT_200003a7             
ram:08000e24    0821            movs        r1,#0x8                                 
ram:08000e26    0843            orrs        r0,r1                                   
ram:08000e28    02e0            b           LAB_08000e30                            
                            LAB_08000e2a:                 ;XREF[2,0]:   08000e10,08000e20
ram:08000e2a    e87c            ldrb        r0,[r5,#0x13]=>DAT_200003a7             
ram:08000e2c    f721            movs        r1,#0xf7                                
ram:08000e2e    0840            ands        r0,r1                                   
                            LAB_08000e30:                 ;XREF[1,0]:   08000e28
ram:08000e30    ef21            movs        r1,#0xef                                
ram:08000e32    0840            ands        r0,r1                                   
ram:08000e34    ae49            ldr         r1,[DAT_080010f0]                       ;= 2000010Ch
ram:08000e36    0978            ldrb        r1,[r1,#0x0]=>DAT_2000010c              
ram:08000e38    c907            lsls        r1,r1,#0x1f                             
ram:08000e3a    c90e            lsrs        r1,r1,#0x1b                             
ram:08000e3c    0843            orrs        r0,r1                                   
ram:08000e3e    ad49            ldr         r1,[DAT_080010f4]                       ;= 200001E8h
ram:08000e40    e874            strb        r0,[r5,#0x13]=>DAT_200003a7             
ram:08000e42    0968            ldr         r1,[r1,#0x0]=>DAT_200001e8              
ram:08000e44    0029            cmp         r1,#0x0                                 
ram:08000e46    00d0            beq         LAB_08000e4a                            
ram:08000e48    0121            movs        r1,#0x1                                 
                            LAB_08000e4a:                 ;XREF[1,0]:   08000e46
ram:08000e4a    2163            str         r1,[r4,#0x30]=>DAT_200000f4             
ram:08000e4c    0029            cmp         r1,#0x0                                 
ram:08000e4e    02d0            beq         LAB_08000e56                            
ram:08000e50    2021            movs        r1,#0x20                                
ram:08000e52    0843            orrs        r0,r1                                   
ram:08000e54    01e0            b           LAB_08000e5a                            
                            LAB_08000e56:                 ;XREF[1,0]:   08000e4e
ram:08000e56    df21            movs        r1,#0xdf                                
ram:08000e58    0840            ands        r0,r1                                   
                            LAB_08000e5a:                 ;XREF[1,0]:   08000e54
ram:08000e5a    e874            strb        r0,[r5,#0x13]=>DAT_200003a7             
ram:08000e5c    a648            ldr         r0,[DAT_080010f8]                       ;= 2000011Ch
ram:08000e5e    0088            ldrh        r0,[r0,#0x0]=>DAT_2000011c              
ram:08000e60    2875            strb        r0,[r5,#0x14]=>DAT_200003a8             
ram:08000e62    000a            lsrs        r0,r0,#0x8                              
ram:08000e64    6875            strb        r0,[r5,#0x15]=>DAT_200003a9             
ram:08000e66    a548            ldr         r0,[DAT_080010fc]                       ;= 200003AAh
ram:08000e68    01f06efb        bl          FUN_08002548                            ;undefined FUN_08002548(undefined * p...
ram:08000e6c    a44a            ldr         r2=>DAT_2000017c,[DAT_08001100]         ;= 2000017Ch
ram:08000e6e    a549            ldr         r1,[DAT_08001104]                       ;= 200003B5h
ram:08000e70    1088            ldrh        r0,[r2,#0x0]=>DAT_2000017c              
ram:08000e72    0870            strb        r0,[r1,#0x0]=>DAT_200003b5              
ram:08000e74    000a            lsrs        r0,r0,#0x8                              
ram:08000e76    4870            strb        r0,[r1,#0x1]=>DAT_200003b6              
ram:08000e78    a348            ldr         r0=>DAT_200003b7,[DAT_08001108]         ;= 200003B7h
ram:08000e7a    5388            ldrh        r3,[r2,#0x2]=>DAT_2000017e              
ram:08000e7c    0370            strb        r3,[r0,#0x0]=>DAT_200003b7              
ram:08000e7e    1b0a            lsrs        r3,r3,#0x8                              
ram:08000e80    4370            strb        r3,[r0,#0x1]=>DAT_200003b8              
ram:08000e82    9388            ldrh        r3,[r2,#0x4]=>DAT_20000180              
ram:08000e84    0b71            strb        r3,[r1,#0x4]=>DAT_200003b9              
ram:08000e86    1b0a            lsrs        r3,r3,#0x8                              
ram:08000e88    4b71            strb        r3,[r1,#0x5]=>DAT_200003ba              
ram:08000e8a    d188            ldrh        r1,[r2,#0x6]=>DAT_20000182              
ram:08000e8c    0171            strb        r1,[r0,#0x4]=>DAT_200003bb              
ram:08000e8e    090a            lsrs        r1,r1,#0x8                              
ram:08000e90    4171            strb        r1,[r0,#0x5]=>DAT_200003bc              
ram:08000e92    01f0b0fb        bl          FUN_080025f6                            ;undefined FUN_080025f6(void)
ram:08000e96    04f025fa        bl          FUN_080052e4                            ;uint FUN_080052e4(void)
ram:08000e9a    1921            movs        r1,#0x19                                
ram:08000e9c    04f00efa        bl          FUN_080052bc                            ;int FUN_080052bc(uint param_1, uint ...
ram:08000ea0    0846            mov         r0,r1                                   
ram:08000ea2    6630            adds        r0,#0x66                                
ram:08000ea4    02f065fa        bl          FUN_08003372                            ;undefined FUN_08003372(undefined4 pa...
ram:08000ea8    2069            ldr         r0,[r4,#0x10]=>DAT_200000d4             
ram:08000eaa    0028            cmp         r0,#0x0                                 
ram:08000eac    03d0            beq         LAB_08000eb6                            
ram:08000eae    401e            subs        r0,r0,#0x1                              
ram:08000eb0    2061            str         r0,[r4,#0x10]=>DAT_200000d4             
ram:08000eb2    03b0            add         sp,#0xc                                 
ram:08000eb4    f0bd            pop         {r4,r5,r6,r7,pc}                        
                            LAB_08000eb6:                 ;XREF[1,0]:   08000eac
ram:08000eb6    0020            movs        r0,#0x0                                 
ram:08000eb8    6062            str         r0,[r4,#0x24]=>DAT_200000e8             
ram:08000eba    03b0            add         sp,#0xc                                 
ram:08000ebc    f0bd            pop         {r4,r5,r6,r7,pc}                        
                            ;************************************************************************************************
                            ;*                                           FUNCTION                                           *
                            ;************************************************************************************************
                            ;undefined FUN_08000ebe(void)
                                                          ;XREF[1,0]:   080033ee
ram:08000ebe    f8b5            push        {r3,r4,r5,r6,r7,lr}                     
ram:08000ec0    864a            ldr         r2=>DAT_20000394,[DAT_080010dc]         ;= 20000394h
ram:08000ec2    5078            ldrb        r0,[r2,#0x1]=>DAT_20000395              
ram:08000ec4    0828            cmp         r0,#0x8                                 
ram:08000ec6    03d1            bne         LAB_08000ed0                            
ram:08000ec8    ff21            movs        r1,#0xff                                
ram:08000eca    904b            ldr         r3,[DAT_0800110c]                       ;= 2000013Ch
ram:08000ecc    f531            adds        r1,#0xf5                                
ram:08000ece    1960            str         r1,[r3,#0x0]=>DAT_2000013c              
                            LAB_08000ed0:                 ;XREF[1,0]:   08000ec6
ram:08000ed0    0521            movs        r1,#0x5                                 
ram:08000ed2    0140            ands        r1,r0                                   
ram:08000ed4    8e4f            ldr         r7,[DAT_08001110]                       ;= 20000396h
ram:08000ed6    7d4c            ldr         r4,[DAT_080010cc]                       ;= 200000C4h
ram:08000ed8    0129            cmp         r1,#0x1                                 
ram:08000eda    25d1            bne         LAB_08000f28                            
ram:08000edc    3d78            ldrb        r5,[r7,#0x0]=>DAT_20000396              
ram:08000ede    fb78            ldrb        r3,[r7,#0x3]=>DAT_20000399              
ram:08000ee0    2946            mov         r1,r5                                   
ram:08000ee2    7d78            ldrb        r5,[r7,#0x1]=>DAT_20000397              
ram:08000ee4    1b06            lsls        r3,r3,#0x18                             
ram:08000ee6    2d02            lsls        r5,r5,#0x8                              
ram:08000ee8    2943            orrs        r1,r5                                   
ram:08000eea    bd78            ldrb        r5,[r7,#0x2]=>DAT_20000398              
ram:08000eec    2d04            lsls        r5,r5,#0x10                             
ram:08000eee    2943            orrs        r1,r5                                   
ram:08000ef0    1943            orrs        r1,r3                                   
ram:08000ef2    9379            ldrb        r3,[r2,#0x6]=>DAT_2000039a              
ram:08000ef4    874d            ldr         r5,[DAT_08001114]                       ;= 48000800h
ram:08000ef6    db07            lsls        r3,r3,#0x1f                             
ram:08000ef8    ad8a            ldrh        r5,[r5,#offset DAT_48000814 &0xff]      
ram:08000efa    db17            asrs        r3,r3,#0x1f                             
ram:08000efc    ad04            lsls        r5,r5,#0x12                             
ram:08000efe    ed0f            lsrs        r5,r5,#0x1f                             
ram:08000f00    5b1c            adds        r3,r3,#0x1                              
ram:08000f02    ab42            cmp         r3,r5                                   
ram:08000f04    08d0            beq         LAB_08000f18                            
ram:08000f06    a369            ldr         r3,[r4,#0x18]=>DAT_200000dc             
ram:08000f08    0a2b            cmp         r3,#0xa                                 
ram:08000f0a    0dd2            bcs         LAB_08000f28                            
ram:08000f0c    9e00            lsls        r6,r3,#0x2                              
ram:08000f0e    714d            ldr         r5,[DAT_080010d4]                       ;= 20000244h
ram:08000f10    5b1c            adds        r3,r3,#0x1                              
ram:08000f12    a951            str         r1,[r5,r6]                              
ram:08000f14    a361            str         r3,[r4,#0x18]=>DAT_200000dc             
ram:08000f16    07e0            b           LAB_08000f28                            
                            LAB_08000f18:                 ;XREF[1,0]:   08000f04
ram:08000f18    e369            ldr         r3,[r4,#0x1c]=>DAT_200000e0             
ram:08000f1a    0a2b            cmp         r3,#0xa                                 
ram:08000f1c    04d2            bcs         LAB_08000f28                            
ram:08000f1e    9e00            lsls        r6,r3,#0x2                              
ram:08000f20    6d4d            ldr         r5,[DAT_080010d8]                       ;= 2000026Ch
ram:08000f22    5b1c            adds        r3,r3,#0x1                              
ram:08000f24    a951            str         r1,[r5,r6]                              
ram:08000f26    e361            str         r3,[r4,#0x1c]=>DAT_200000e0             
                            LAB_08000f28:                 ;XREF[4,0]:   08000eda,08000f0a,08000f16,08000f1c
ram:08000f28    0025            movs        r5,#0x0                                 
ram:08000f2a    7b4e            ldr         r6,[DAT_08001118]                       ;= 20000397h
ram:08000f2c    0728            cmp         r0,#0x7                                 
ram:08000f2e    6ed1            bne         LAB_0800100e                            
ram:08000f30    02f0f5f9        bl          FUN_0800331e                            ;undefined FUN_0800331e(void)
ram:08000f34    4d20            movs        r0,#0x4d                                
ram:08000f36    02f01cfa        bl          FUN_08003372                            ;undefined FUN_08003372(undefined4 pa...
ram:08000f3a    3a78            ldrb        r2,[r7,#0x0]=>DAT_20000396              
ram:08000f3c    f978            ldrb        r1,[r7,#0x3]=>DAT_20000399              
ram:08000f3e    1046            mov         r0,r2                                   
ram:08000f40    7a78            ldrb        r2,[r7,#0x1]=>DAT_20000397              
ram:08000f42    0906            lsls        r1,r1,#0x18                             
ram:08000f44    1202            lsls        r2,r2,#0x8                              
ram:08000f46    1043            orrs        r0,r2                                   
ram:08000f48    ba78            ldrb        r2,[r7,#0x2]=>DAT_20000398              
ram:08000f4a    1204            lsls        r2,r2,#0x10                             
ram:08000f4c    1043            orrs        r0,r2                                   
ram:08000f4e    0843            orrs        r0,r1                                   
ram:08000f50    6062            str         r0,[r4,#0x24]=>DAT_200000e8             
ram:08000f52    707a            ldrb        r0,[r6,#0x9]=>DAT_200003a0              
ram:08000f54    327a            ldrb        r2,[r6,#0x8]=>DAT_2000039f              
ram:08000f56    0006            lsls        r0,r0,#0x18                             
ram:08000f58    0114            asrs        r1,r0,#0x10                             
ram:08000f5a    7048            ldr         r0,[DAT_0800111c]                       ;= 200000F8h
ram:08000f5c    1143            orrs        r1,r2                                   
ram:08000f5e    0180            strh        r1,[r0,#0x0]=>DAT_200000f8              
ram:08000f60    f11e            subs        r1=>DAT_20000394,r6,#0x3                
ram:08000f62    8a7b            ldrb        r2,[r1,#0xe]=>DAT_200003a2              
ram:08000f64    4b7b            ldrb        r3,[r1,#0xd]=>DAT_200003a1              
ram:08000f66    1206            lsls        r2,r2,#0x18                             
ram:08000f68    1214            asrs        r2,r2,#0x10                             
ram:08000f6a    1a43            orrs        r2,r3                                   
ram:08000f6c    4280            strh        r2,[r0,#0x2]=>DAT_200000fa              
ram:08000f6e    727b            ldrb        r2,[r6,#0xd]=>DAT_200003a4              
ram:08000f70    337b            ldrb        r3,[r6,#0xc]=>DAT_200003a3              
ram:08000f72    1206            lsls        r2,r2,#0x18                             
ram:08000f74    1214            asrs        r2,r2,#0x10                             
ram:08000f76    1a43            orrs        r2,r3                                   
ram:08000f78    8280            strh        r2,[r0,#0x4]=>DAT_200000fc              
ram:08000f7a    8a7c            ldrb        r2,[r1,#0x12]=>DAT_200003a6             
ram:08000f7c    497c            ldrb        r1,[r1,#0x11]=>DAT_200003a5             
ram:08000f7e    1206            lsls        r2,r2,#0x18                             
ram:08000f80    1214            asrs        r2,r2,#0x10                             
ram:08000f82    0a43            orrs        r2,r1                                   
ram:08000f84    c280            strh        r2,[r0,#0x6]=>DAT_200000fe              
ram:08000f86    a069            ldr         r0,[r4,#0x18]=>DAT_200000dc             
ram:08000f88    0a22            movs        r2,#0xa                                 
ram:08000f8a    0a28            cmp         r0,#0xa                                 
ram:08000f8c    11d2            bcs         LAB_08000fb2                            
ram:08000f8e    111a            subs        r1,r2,r0                                
ram:08000f90    0029            cmp         r1,#0x0                                 
ram:08000f92    0edd            ble         LAB_08000fb2                            
ram:08000f94    8300            lsls        r3,r0,#0x2                              
ram:08000f96    4f48            ldr         r0,[DAT_080010d4]                       ;= 20000244h
ram:08000f98    1818            adds        r0,r3,r0                                
ram:08000f9a    001f            subs        r0,r0,#0x4                              
ram:08000f9c    cb07            lsls        r3,r1,#0x1f                             
ram:08000f9e    01d0            beq         LAB_08000fa4                            
ram:08000fa0    4560            str         r5,[r0,#0x4]                            
ram:08000fa2    001d            adds        r0,r0,#0x4                              
                            LAB_08000fa4:                 ;XREF[1,0]:   08000f9e
ram:08000fa4    4910            asrs        r1,r1,#0x1                              
ram:08000fa6    04d0            beq         LAB_08000fb2                            
                            LAB_08000fa8:                 ;XREF[1,0]:   08000fb0
ram:08000fa8    4560            str         r5,[r0,#0x4]                            
ram:08000faa    8560            str         r5,[r0,#0x8]                            
ram:08000fac    0830            adds        r0,#0x8                                 
ram:08000fae    491e            subs        r1,r1,#0x1                              
ram:08000fb0    fad1            bne         LAB_08000fa8                            
                            LAB_08000fb2:                 ;XREF[3,0]:   08000f8c,08000f92,08000fa6
ram:08000fb2    a561            str         r5,[r4,#0x18]=>DAT_200000dc             
ram:08000fb4    e169            ldr         r1,[r4,#0x1c]=>DAT_200000e0             
ram:08000fb6    0846            mov         r0,r1                                   
ram:08000fb8    0a29            cmp         r1,#0xa                                 
ram:08000fba    11d2            bcs         LAB_08000fe0                            
ram:08000fbc    511a            subs        r1,r2,r1                                
ram:08000fbe    0029            cmp         r1,#0x0                                 
ram:08000fc0    0edd            ble         LAB_08000fe0                            
ram:08000fc2    8200            lsls        r2,r0,#0x2                              
ram:08000fc4    4448            ldr         r0,[DAT_080010d8]                       ;= 2000026Ch
ram:08000fc6    1018            adds        r0,r2,r0                                
ram:08000fc8    001f            subs        r0,r0,#0x4                              
ram:08000fca    ca07            lsls        r2,r1,#0x1f                             
ram:08000fcc    01d0            beq         LAB_08000fd2                            
ram:08000fce    4560            str         r5,[r0,#0x4]                            
ram:08000fd0    001d            adds        r0,r0,#0x4                              
                            LAB_08000fd2:                 ;XREF[1,0]:   08000fcc
ram:08000fd2    4910            asrs        r1,r1,#0x1                              
ram:08000fd4    04d0            beq         LAB_08000fe0                            
                            LAB_08000fd6:                 ;XREF[1,0]:   08000fde
ram:08000fd6    4560            str         r5,[r0,#0x4]                            
ram:08000fd8    8560            str         r5,[r0,#0x8]                            
ram:08000fda    0830            adds        r0,#0x8                                 
ram:08000fdc    491e            subs        r1,r1,#0x1                              
ram:08000fde    fad1            bne         LAB_08000fd6                            
                            LAB_08000fe0:                 ;XREF[3,0]:   08000fba,08000fc0,08000fd4
ram:08000fe0    3e4f            ldr         r7,[DAT_080010dc]                       ;= 20000394h
ram:08000fe2    e561            str         r5,[r4,#0x1c]=>DAT_200000e0             
ram:08000fe4    f87c            ldrb        r0,[r7,#0x13]=>DAT_200003a7             
ram:08000fe6    8107            lsls        r1,r0,#0x1e                             
ram:08000fe8    12d5            bpl         LAB_08001010                            
ram:08000fea    c006            lsls        r0,r0,#0x1b                             
ram:08000fec    4049            ldr         r1=>DAT_2000010c,[DAT_080010f0]         ;= 2000010Ch
ram:08000fee    2570            strb        r5,[r4,#0x0]=>DAT_200000c4              
ram:08000ff0    c00f            lsrs        r0,r0,#0x1f                             
ram:08000ff2    0860            str         r0,[r1,#0x0]=>DAT_2000010c              
ram:08000ff4    16d0            beq         LAB_08001024                            
ram:08000ff6    787d            ldrb        r0,[r7,#0x15]=>DAT_200003a9             
ram:08000ff8    397d            ldrb        r1,[r7,#0x14]=>DAT_200003a8             
ram:08000ffa    0002            lsls        r0,r0,#0x8                              
ram:08000ffc    0843            orrs        r0,r1                                   
ram:08000ffe    3e49            ldr         r1,[DAT_080010f8]                       ;= 2000011Ch
ram:08001000    0860            str         r0,[r1,#0x0]=>DAT_2000011c              
ram:08001002    3849            ldr         r1=>DAT_20000204,[DAT_080010e4]         ;= 20000204h
ram:08001004    0868            ldr         r0,[r1,#0x0]=>DAT_20000204              
ram:08001006    06d0            beq         LAB_08001016                            
ram:08001008    0028            cmp         r0,#0x0                                 
ram:0800100a    08d0            beq         LAB_0800101e                            
ram:0800100c    0ae0            b           LAB_08001024                            
                            LAB_0800100e:                 ;XREF[1,0]:   08000f2e
ram:0800100e    1ce0            b           LAB_0800104a                            
                            LAB_08001010:                 ;XREF[1,0]:   08000fe8
ram:08001010    0120            movs        r0,#0x1                                 
ram:08001012    2070            strb        r0,[r4,#0x0]=>DAT_200000c4              
ram:08001014    09e0            b           LAB_0800102a                            
                            LAB_08001016:                 ;XREF[1,0]:   08001006
ram:08001016    0028            cmp         r0,#0x0                                 
ram:08001018    04d0            beq         LAB_08001024                            
ram:0800101a    0d60            str         r5,[r1,#0x0]=>DAT_20000204              
ram:0800101c    02e0            b           LAB_08001024                            
                            LAB_0800101e:                 ;XREF[1,0]:   0800100a
ram:0800101e    0020            movs        r0,#0x0                                 
ram:08001020    c043            mvns        r0,r0                                   
ram:08001022    0860            str         r0,[r1,#0x0]=>DAT_20000204              
                            LAB_08001024:                 ;XREF[4,0]:   08000ff4,0800100c,08001018,0800101c
ram:08001024    3548            ldr         r0,[DAT_080010fc]                       ;= 200003AAh
ram:08001026    01f0a8fa        bl          FUN_0800257a                            ;undefined FUN_0800257a(undefined4 * ...
                            LAB_0800102a:                 ;XREF[1,0]:   08001014
ram:0800102a    f87c            ldrb        r0,[r7,#0x13]=>DAT_200003a7             
ram:0800102c    4107            lsls        r1,r0,#0x1d                             
ram:0800102e    03d5            bpl         LAB_08001038                            
ram:08001030    0021            movs        r1,#0x0                                 
ram:08001032    2d4a            ldr         r2,[DAT_080010e8]                       ;= 20000101h
ram:08001034    c943            mvns        r1,r1                                   
ram:08001036    1170            strb        r1,[r2,#0x0]=>DAT_20000101              
                            LAB_08001038:                 ;XREF[1,0]:   0800102e
ram:08001038    0107            lsls        r1,r0,#0x1c                             
ram:0800103a    c90f            lsrs        r1,r1,#0x1f                             
ram:0800103c    384a            ldr         r2=>DAT_20000128,[DAT_08001120]         ;= 20000128h
ram:0800103e    8006            lsls        r0,r0,#0x1a                             
ram:08001040    c00f            lsrs        r0,r0,#0x1f                             
ram:08001042    1160            str         r1,[r2,#0x0]=>DAT_20000128              
ram:08001044    e062            str         r0,[r4,#0x2c]=>DAT_200000f0             
ram:08001046    1920            movs        r0,#0x19                                
ram:08001048    2061            str         r0,[r4,#0x10]=>DAT_200000d4             
                            LAB_0800104a:                 ;XREF[1,0]:   0800100e
ram:0800104a    244f            ldr         r7,[DAT_080010dc]                       ;= 20000394h
ram:0800104c    7878            ldrb        r0,[r7,#0x1]=>DAT_20000395              
ram:0800104e    8028            cmp         r0,#0x80                                
ram:08001050    13d1            bne         LAB_0800107a                            
ram:08001052    1920            movs        r0,#0x19                                
ram:08001054    2561            str         r5,[r4,#0x10]=>DAT_200000d4             
ram:08001056    6061            str         r0,[r4,#0x14]=>DAT_200000d8             
ram:08001058    6620            movs        r0,#0x66                                
ram:0800105a    02f08af9        bl          FUN_08003372                            ;undefined FUN_08003372(undefined4 pa...
ram:0800105e    3a78            ldrb        r2,[r7,#0x0]=>DAT_20000394              
ram:08001060    3946            mov         r1,r7                                   
ram:08001062    002a            cmp         r2,#0x0                                 
ram:08001064    09d0            beq         LAB_0800107a                            
ram:08001066    8878            ldrb        r0,[r1,#0x2]=>DAT_20000396              
ram:08001068    0228            cmp         r0,#0x2                                 
ram:0800106a    07d0            beq         LAB_0800107c                            
ram:0800106c    0328            cmp         r0,#0x3                                 
ram:0800106e    10d0            beq         LAB_08001092                            
ram:08001070    0428            cmp         r0,#0x4                                 
ram:08001072    1cd0            beq         LAB_080010ae                            
ram:08001074    0628            cmp         r0,#0x6                                 
ram:08001076    59d0            beq         LAB_0800112c                            
ram:08001078    3d70            strb        r5,[r7,#0x0]=>DAT_20000394              
                            LAB_0800107a:                 ;XREF[3,0]:   08001050,08001064,0800107e
ram:0800107a    f8bd            pop         {r3,r4,r5,r6,r7,pc}                     
                            LAB_0800107c:                 ;XREF[1,0]:   0800106a
ram:0800107c    012a            cmp         r2,#0x1                                 
ram:0800107e    fcd1            bne         LAB_0800107a                            
ram:08001080    bff34f8f        dsb         0xf                                     
ram:08001084    2849            ldr         r1,[DAT_08001128]                       ;= E000ED00h
ram:08001086    2748            ldr         r0,[DAT_08001124]                       ;= 05FA0004h
ram:08001088    c860            str         r0,[r1,#offset DAT_e000ed0c &0xff]      
ram:0800108a    bff34f8f        dsb         0xf                                     
                            LAB_0800108e:                 ;XREF[1,0]:   08001090
ram:0800108e    00bf            nop                                                  
ram:08001090    fde7            b           LAB_0800108e                            
                            LAB_08001092:                 ;XREF[1,0]:   0800106e
ram:08001092    032a            cmp         r2,#0x3                                 
ram:08001094    05d3            bcc         LAB_080010a2                            
ram:08001096    7078            ldrb        r0,[r6,#0x1]=>DAT_20000398              
ram:08001098    3278            ldrb        r2,[r6,#0x0]=>DAT_20000397              
ram:0800109a    0002            lsls        r0,r0,#0x8                              
ram:0800109c    1043            orrs        r0,r2                                   
ram:0800109e    2062            str         r0,[r4,#0x20]=>DAT_200000e4             
ram:080010a0    00e0            b           LAB_080010a4                            
                            LAB_080010a2:                 ;XREF[1,0]:   08001094
ram:080010a2    2562            str         r5,[r4,#0x20]=>DAT_200000e4             
                            LAB_080010a4:                 ;XREF[1,0]:   080010a0
ram:080010a4    0120            movs        r0,#0x1                                 
ram:080010a6    3870            strb        r0,[r7,#0x0]=>DAT_20000394              
                            LAB_080010a8:                 ;XREF[1,0]:   080010c8
ram:080010a8    01f0a5fa        bl          FUN_080025f6                            ;undefined FUN_080025f6(void)
ram:080010ac    f8bd            pop         {r3,r4,r5,r6,r7,pc}                     
                            LAB_080010ae:                 ;XREF[1,0]:   08001072
ram:080010ae    3d46            mov         r5,r7                                   
ram:080010b0    f91c            adds        r1=>DAT_20000397,r7,#0x3                
ram:080010b2    521e            subs        r2,r2,#0x1                              
ram:080010b4    206a            ldr         r0,[r4,#0x20]=>DAT_200000e4             
ram:080010b6    02f076f8        bl          FUN_080031a6                            ;undefined FUN_080031a6(uint param_1,...
ram:080010ba    206a            ldr         r0,[r4,#0x20]=>DAT_200000e4             
ram:080010bc    2978            ldrb        r1,[r5,#0x0]=>DAT_20000394              
ram:080010be    401e            subs        r0,r0,#0x1                              
ram:080010c0    0818            adds        r0,r1,r0                                
ram:080010c2    2062            str         r0,[r4,#0x20]=>DAT_200000e4             
ram:080010c4    0120            movs        r0,#0x1                                 
ram:080010c6    2870            strb        r0,[r5,#0x0]=>DAT_20000394              
ram:080010c8    eee7            b           LAB_080010a8                            
ram:080010ca    0000            movs        r0,r0                                   
                            DAT_080010cc:                 ;XREF[3,0]:   08000cda,08000d24,08000ed6
ram:080010cc    c4000020        undefined4  200000C4h                               
                            DAT_080010d0:                 ;XREF[1,0]:   08000ce2
ram:080010d0    0c020020        undefined4  2000020Ch                               
                            DAT_080010d4:                 ;XREF[4,0]:   08000ce4,08000d22,08000f0e,08000f96
ram:080010d4    44020020        undefined4  20000244h                               
                            DAT_080010d8:                 ;XREF[4,0]:   08000cf2,08000d2a,08000f20,08000fc4
ram:080010d8    6c020020        undefined4  2000026Ch                               
                            DAT_080010dc:                 ;XREF[4,0]:   08000d6c,08000ec0,08000fe0,0800104a
ram:080010dc    94030020        undefined4  20000394h                               
                            DAT_080010e0:                 ;XREF[1,0]:   08000d88
ram:080010e0    10020020        undefined4  20000210h                               
                            DAT_080010e4:                 ;XREF[2,0]:   08000dd2,08001002
ram:080010e4    04020020        undefined4  20000204h                               
                            DAT_080010e8:                 ;XREF[2,0]:   08000df2,08001032
ram:080010e8    01010020        undefined4  20000101h                               
                            DAT_080010ec:                 ;XREF[1,0]:   08000e1a
ram:080010ec    20010020        undefined4  20000120h                               
                            DAT_080010f0:                 ;XREF[2,0]:   08000e34,08000fec
ram:080010f0    0c010020        undefined4  2000010Ch                               
                            DAT_080010f4:                 ;XREF[1,0]:   08000e3e
ram:080010f4    e8010020        undefined4  200001E8h                               
                            DAT_080010f8:                 ;XREF[2,0]:   08000e5c,08000ffe
ram:080010f8    1c010020        undefined4  2000011Ch                               
                            DAT_080010fc:                 ;XREF[2,0]:   08000e66,08001024
ram:080010fc    aa030020        undefined4  200003AAh                               
                            DAT_08001100:                 ;XREF[1,0]:   08000e6c
ram:08001100    7c010020        undefined4  2000017Ch                               
                            DAT_08001104:                 ;XREF[1,0]:   08000e6e
ram:08001104    b5030020        undefined4  200003B5h                               
                            DAT_08001108:                 ;XREF[1,0]:   08000e78
ram:08001108    b7030020        undefined4  200003B7h                               
                            DAT_0800110c:                 ;XREF[1,0]:   08000eca
ram:0800110c    3c010020        undefined4  2000013Ch                               
                            DAT_08001110:                 ;XREF[1,0]:   08000ed4
ram:08001110    96030020        undefined4  20000396h                               
                            DAT_08001114:                 ;XREF[1,0]:   08000ef4
ram:08001114    00080048        undefined4  48000800h                               
                            DAT_08001118:                 ;XREF[1,0]:   08000f2a
ram:08001118    97030020        undefined4  20000397h                               
                            DAT_0800111c:                 ;XREF[1,0]:   08000f5a
ram:0800111c    f8000020        undefined4  200000F8h                               
                            DAT_08001120:                 ;XREF[1,0]:   0800103c
ram:08001120    28010020        undefined4  20000128h                               
                            DAT_08001124:                 ;XREF[1,0]:   08001086
ram:08001124    0400fa05        undefined4  05FA0004h                               
                            DAT_08001128:                 ;XREF[1,0]:   08001084
ram:08001128    00ed00e0        undefined4  E000ED00h                               
                            LAB_0800112c:                 ;XREF[1,0]:   08001076
ram:0800112c    7078            ldrb        r0,[r6,#0x1]=>DAT_20000398              
ram:0800112e    3278            ldrb        r2,[r6,#0x0]=>DAT_20000397              
ram:08001130    0002            lsls        r0,r0,#0x8                              
ram:08001132    1043            orrs        r0,r2                                   
ram:08001134    ff22            movs        r2,#0xff                                
ram:08001136    0a70            strb        r2,[r1,#0x0]=>DAT_20000394              
ram:08001138    fe22            movs        r2,#0xfe                                
ram:0800113a    f91c            adds        r1=>DAT_20000397,r7,#0x3                
ram:0800113c    02f007f8        bl          FUN_0800314e                            ;int FUN_0800314e(uint param_1, int p...
ram:08001140    01f059fa        bl          FUN_080025f6                            ;undefined FUN_080025f6(void)
ram:08001144    f8bd            pop         {r3,r4,r5,r6,r7,pc}                     
                            ;************************************************************************************************
                            ;*                                           FUNCTION                                           *
                            ;************************************************************************************************
                            ;uint FUN_08001146(void)
                                                          ;XREF[1,0]:   08004cdc
ram:08001146    f0b4            push        {r4,r5,r6,r7}                           
ram:08001148    184a            ldr         r2,[DAT_080011ac]                       ;= 20000244h
ram:0800114a    1949            ldr         r1,[DAT_080011b0]                       ;= 2000026Ch
ram:0800114c    1368            ldr         r3,[r2,#0x0]=>DAT_20000244              
ram:0800114e    0868            ldr         r0,[r1,#0x0]=>DAT_2000026c              
ram:08001150    5568            ldr         r5,[r2,#0x4]=>DAT_20000248              
ram:08001152    1843            orrs        r0,r3                                   
ram:08001154    4c68            ldr         r4,[r1,#0x4]=>DAT_20000270              
ram:08001156    0423            movs        r3,#0x4                                 
                            LAB_08001158:                 ;XREF[1,0]:   0800116e
ram:08001158    2843            orrs        r0,r5                                   
ram:0800115a    2043            orrs        r0,r4                                   
                                                          ; FWD[2,0]:   2000024c,20000254
ram:0800115c    9768            ldr         r7,[r2,#0x8]=>DAT_2000024c              
                                                          ; FWD[2,0]:   20000274,2000027c
ram:0800115e    8e68            ldr         r6,[r1,#0x8]=>DAT_20000274              
                                                          ; FWD[2,0]:   20000250,20000258
ram:08001160    d568            ldr         r5,[r2,#0xc]=>DAT_20000250              
ram:08001162    3843            orrs        r0,r7                                   
                                                          ; FWD[2,0]:   20000278,20000280
ram:08001164    cc68            ldr         r4,[r1,#0xc]=>DAT_20000278              
ram:08001166    3043            orrs        r0,r6                                   
ram:08001168    0831            adds        r1,#0x8                                 
ram:0800116a    0832            adds        r2,#0x8                                 
ram:0800116c    5b1e            subs        r3,r3,#0x1                              
ram:0800116e    f3d1            bne         LAB_08001158                            
ram:08001170    0e49            ldr         r1,[DAT_080011ac]                       ;= 20000244h
ram:08001172    496a            ldr         r1,[r1,#0x24]=>DAT_20000268             
ram:08001174    0143            orrs        r1,r0                                   
ram:08001176    0e48            ldr         r0,[DAT_080011b0]                       ;= 2000026Ch
ram:08001178    406a            ldr         r0,[r0,#0x24]=>DAT_20000290             
ram:0800117a    0843            orrs        r0,r1                                   
ram:0800117c    0d49            ldr         r1,[DAT_080011b4]                       ;= 200000C4h
ram:0800117e    4a68            ldr         r2,[r1,#0x4]=>DAT_200000c8              
ram:08001180    1043            orrs        r0,r2                                   
ram:08001182    8a68            ldr         r2,[r1,#0x8]=>DAT_200000cc              
ram:08001184    496a            ldr         r1,[r1,#0x24]=>DAT_200000e8             
ram:08001186    f0bc            pop         {r4,r5,r6,r7}                           
ram:08001188    1043            orrs        r0,r2                                   
ram:0800118a    0843            orrs        r0,r1                                   
ram:0800118c    7047            bx          lr                                      
                            ;************************************************************************************************
                            ;*                                           FUNCTION                                           *
                            ;************************************************************************************************
                            ;undefined4 FUN_0800118e(void)
                                                          ;XREF[1,0]:   08004d24
ram:0800118e    0948            ldr         r0,[DAT_080011b4]                       ;= 200000C4h
ram:08001190    016b            ldr         r1,[r0,#0x30]=>DAT_200000f4             
ram:08001192    0029            cmp         r1,#0x0                                 
ram:08001194    05d1            bne         LAB_080011a2                            
ram:08001196    c16a            ldr         r1,[r0,#0x2c]=>DAT_200000f0             
ram:08001198    0029            cmp         r1,#0x0                                 
ram:0800119a    04d0            beq         LAB_080011a6                            
ram:0800119c    0069            ldr         r0,[r0,#0x10]=>DAT_200000d4             
ram:0800119e    0028            cmp         r0,#0x0                                 
ram:080011a0    01d0            beq         LAB_080011a6                            
                            LAB_080011a2:                 ;XREF[1,0]:   08001194
ram:080011a2    0120            movs        r0,#0x1                                 
ram:080011a4    7047            bx          lr                                      
                            LAB_080011a6:                 ;XREF[2,0]:   0800119a,080011a0
ram:080011a6    0020            movs        r0,#0x0                                 
ram:080011a8    7047            bx          lr                                      
ram:080011aa    0000            movs        r0,r0                                   
                            DAT_080011ac:                 ;XREF[2,0]:   08001148,08001170
ram:080011ac    44020020        undefined4  20000244h                               
                            DAT_080011b0:                 ;XREF[2,0]:   0800114a,08001176
ram:080011b0    6c020020        undefined4  2000026Ch                               
                            DAT_080011b4:                 ;XREF[2,0]:   0800117c,0800118e
ram:080011b4    c4000020        undefined4  200000C4h                               
                            ;************************************************************************************************
                            ;*                                           FUNCTION                                           *
                            ;************************************************************************************************
                            ;int FUN_08001222(void)
                                                          ;XREF[1,0]:   08000e12
ram:08001222    e24a            ldr         r2,[DAT_080015ac]                       ;= 20000148h
ram:08001224    e049            ldr         r1,[DAT_080015a8]                       ;= FFFF8000h
ram:08001226    0320            movs        r0,#0x3                                 
                            LAB_08001228:                 ;XREF[1,0]:   08001232
ram:08001228    4300            lsls        r3,r0,#0x1                              
                                                          ; FWD[2,0]:   2000014c,2000014e
ram:0800122a    d35e            ldrsh       r3,[r2,r3]=>DAT_2000014e                
ram:0800122c    8b42            cmp         r3,r1                                   
ram:0800122e    01d1            bne         LAB_08001234                            
ram:08001230    401e            subs        r0,r0,#0x1                              
ram:08001232    f9d2            bcs         LAB_08001228                            
                            LAB_08001234:                 ;XREF[1,0]:   0800122e
ram:08001234    401c            adds        r0,r0,#0x1                              
ram:08001236    7047            bx          lr                                      
ram:08001238    dd49            ldr         r1,[DAT_080015b0]                       ;= 00000002h
ram:0800123a    c000            lsls        r0,r0,#0x3                              
ram:0800123c    10b5            push        {r4,lr}                                 
ram:0800123e    4018            adds        r0,r0,r1                                
ram:08001240    0822            movs        r2,#0x8                                 
ram:08001242    da49            ldr         r1=>DAT_20000148,[DAT_080015ac]         ;= 20000148h
ram:08001244    01f083ff        bl          FUN_0800314e                            ;int FUN_0800314e(uint param_1, int p...
ram:08001248    10bd            pop         {r4,pc}                                 
                            ;************************************************************************************************
                            ;*                                           FUNCTION                                           *
                            ;************************************************************************************************
                            ;int FUN_0800124a(uint param_1)
          ;param_1       uint                r0                      
                                                          ;XREF[4,0]:   08001296,080012b0,080012c2,080012d4
ram:0800124a    70b5            push        {r4,r5,r6,lr}                           
ram:0800124c    d949            ldr         r1,[DAT_080015b4]                       ;= 200000D4h
ram:0800124e    0968            ldr         r1,[r1,#0x0]=>DAT_200000d4              
ram:08001250    0029            cmp         r1,#0x0                                 
ram:08001252    12d0            beq         LAB_0800127a                            
ram:08001254    d849            ldr         r1,[DAT_080015b8]                       ;= 20000100h
ram:08001256    c968            ldr         r1,[r1,#offset DAT_2000010c &0xff]      
ram:08001258    0029            cmp         r1,#0x0                                 
ram:0800125a    0ed0            beq         LAB_0800127a                            
ram:0800125c    d749            ldr         r1,[DAT_080015bc]                       ;= 200000D0h
ram:0800125e    4400            lsls        r4,param_1,#0x1                         
ram:08001260    0a68            ldr         r2,[r1,#0x0]=>DAT_200000d0              
ram:08001262    d749            ldr         r1,[DAT_080015c0]                       ;= 200000E8h
ram:08001264    d74d            ldr         r5,[DAT_080015c4]                       ;= 200000F8h
ram:08001266    0968            ldr         r1,[r1,#0x0]=>DAT_200000e8              
ram:08001268    002a            cmp         r2,#0x0                                 
ram:0800126a    02d0            beq         LAB_08001272                            
ram:0800126c    0029            cmp         r1,#0x0                                 
ram:0800126e    04d0            beq         LAB_0800127a                            
ram:08001270    07e0            b           LAB_08001282                            
                            LAB_08001272:                 ;XREF[1,0]:   0800126a
ram:08001272    0029            cmp         r1,#0x0                                 
ram:08001274    05d0            beq         LAB_08001282                            
ram:08001276    285f            ldrsh       param_1,[r5,r4]=>DAT_200000f8           
ram:08001278    70bd            pop         {r4,r5,r6,pc}                           
                            LAB_0800127a:                 ;XREF[3,0]:   08001252,0800125a,0800126e
ram:0800127a    c0b2            uxtb        param_1,param_1                         
ram:0800127c    01f04cfe        bl          FUN_08002f18                            ;int FUN_08002f18(int param_1)
ram:08001280    70bd            pop         {r4,r5,r6,pc}                           
                            LAB_08001282:                 ;XREF[2,0]:   08001270,08001274
ram:08001282    c0b2            uxtb        param_1,param_1                         
ram:08001284    01f048fe        bl          FUN_08002f18                            ;int FUN_08002f18(int param_1)
ram:08001288    295f            ldrsh       r1,[r5,r4]=>DAT_200000f8                
ram:0800128a    0818            adds        param_1,r1,param_1                      
ram:0800128c    4010            asrs        param_1,param_1,#0x1                    
ram:0800128e    70bd            pop         {r4,r5,r6,pc}                           
                            ;************************************************************************************************
                            ;*                                           FUNCTION                                           *
                            ;************************************************************************************************
                            ;undefined FUN_08001290(int param_1)
          ;param_1       int                 r0                      
                                                          ;XREF[5,0]:   080016b0,080016ce,080016f0,08001712
                                                          ;             08001734
ram:08001290    70b5            push        {r4,r5,r6,lr}                           
ram:08001292    0446            mov         r4,param_1                              
ram:08001294    0020            movs        param_1,#0x0                            
ram:08001296    fff7d8ff        bl          FUN_0800124a                            ;int FUN_0800124a(uint param_1)
ram:0800129a    cb4d            ldr         r5,[DAT_080015c8]                       ;= 200001B8h
ram:0800129c    e100            lsls        r1,r4,#0x3                              
ram:0800129e    2880            strh        param_1,[r5,#0x0]=>DAT_200001b8         
ram:080012a0    c348            ldr         param_1,[DAT_080015b0]                  ;= 00000002h
ram:080012a2    0222            movs        r2,#0x2                                 
ram:080012a4    0c18            adds        r4,r1,param_1                           
ram:080012a6    2946            mov         r1=>DAT_200001b8,r5                     
ram:080012a8    2046            mov         param_1,r4                              
ram:080012aa    01f07cff        bl          FUN_080031a6                            ;undefined FUN_080031a6(uint param_1,...
ram:080012ae    0120            movs        param_1,#0x1                            
ram:080012b0    fff7cbff        bl          FUN_0800124a                            ;int FUN_0800124a(uint param_1)
ram:080012b4    2880            strh        param_1,[r5,#0x0]=>DAT_200001b8         
ram:080012b6    a01c            adds        param_1,r4,#0x2                         
ram:080012b8    0222            movs        r2,#0x2                                 
ram:080012ba    2946            mov         r1=>DAT_200001b8,r5                     
ram:080012bc    01f073ff        bl          FUN_080031a6                            ;undefined FUN_080031a6(uint param_1,...
ram:080012c0    0220            movs        param_1,#0x2                            
ram:080012c2    fff7c2ff        bl          FUN_0800124a                            ;int FUN_0800124a(uint param_1)
ram:080012c6    2880            strh        param_1,[r5,#0x0]=>DAT_200001b8         
ram:080012c8    201d            adds        param_1,r4,#0x4                         
ram:080012ca    0222            movs        r2,#0x2                                 
ram:080012cc    2946            mov         r1=>DAT_200001b8,r5                     
ram:080012ce    01f06aff        bl          FUN_080031a6                            ;undefined FUN_080031a6(uint param_1,...
ram:080012d2    0320            movs        param_1,#0x3                            
ram:080012d4    fff7b9ff        bl          FUN_0800124a                            ;int FUN_0800124a(uint param_1)
ram:080012d8    2880            strh        param_1,[r5,#0x0]=>DAT_200001b8         
ram:080012da    a01d            adds        param_1,r4,#0x6                         
ram:080012dc    0222            movs        r2,#0x2                                 
ram:080012de    2946            mov         r1=>DAT_200001b8,r5                     
ram:080012e0    01f061ff        bl          FUN_080031a6                            ;undefined FUN_080031a6(uint param_1,...
ram:080012e4    70bd            pop         {r4,r5,r6,pc}                           
                            ;************************************************************************************************
                            ;*                                           FUNCTION                                           *
                            ;************************************************************************************************
                            ;undefined FUN_080012e6(void)
                                                          ;XREF[1,0]:   08004ca6
ram:080012e6    10b5            push        {r4,lr}                                 
ram:080012e8    0122            movs        r2,#0x1                                 
ram:080012ea    b849            ldr         r1=>DAT_20000102,[DAT_080015cc]         ;= 20000102h
ram:080012ec    b848            ldr         r0,[DAT_080015d0]                       
ram:080012ee    01f02eff        bl          FUN_0800314e                            ;int FUN_0800314e(uint param_1, int p...
ram:080012f2    0021            movs        r1,#0x0                                 
ram:080012f4    4156            ldrsb       r1,[r0,r1]                              
ram:080012f6    0122            movs        r2,#0x1                                 
ram:080012f8    b649            ldr         r1=>DAT_20000103,[DAT_080015d4]         ;= 20000103h
ram:080012fa    b748            ldr         r0,[DAT_080015d8]                       ;= 00000001h
ram:080012fc    01f027ff        bl          FUN_0800314e                            ;int FUN_0800314e(uint param_1, int p...
ram:08001300    0021            movs        r1,#0x0                                 
ram:08001302    4156            ldrsb       r1,[r0,r1]                              
ram:08001304    10bd            pop         {r4,pc}                                 
                            ;************************************************************************************************
                            ;*                                           FUNCTION                                           *
                            ;************************************************************************************************
                            ;undefined FUN_08001306(undefined4 param_1, uint param_2)
          ;param_1       undefined4          r0                      
          ;param_2       uint                r1                      
          ;local_18      undefined4         -18                      ;XREF[2,0]:   08001a7c,08001d92
          ;local_1a      undefined2         -1a                      ;XREF[1,0]:   080013e8
          ;local_1c      undefined2         -1c                      ;XREF[1,0]:   080013e4
          ;local_1e      undefined2         -1e                      ;XREF[1,0]:   080013e0
          ;local_20      undefined2         -20                      ;XREF[1,0]:   080013dc
          ;local_24      undefined4         -24                      ;XREF[5,0]:   080018ea,0800196a,08001a7e,08001bda,08001c76
          ;local_28      undefined4         -28                      ;XREF[7,0]:   0800135a,0800140e,08001662,08001d98,08001e2a
                                                                     ;             08001e44,08001e5e
                                                          ;XREF[1,0]:   08004cb0
ram:08001306    f0b5            push        {r4,r5,r6,r7,lr}                        
ram:08001308    b448            ldr         param_1,[DAT_080015dc]                  ;= 20000240h
ram:0800130a    85b0            sub         sp,#0x14                                
ram:0800130c    0268            ldr         r2,[param_1,#0x0]=>DAT_20000240         
ram:0800130e    aa4e            ldr         r6,[DAT_080015b8]                       ;= 20000100h
ram:08001310    521c            adds        r2,r2,#0x1                              
ram:08001312    0260            str         r2,[param_1,#0x0]=>DAT_20000240         
ram:08001314    a748            ldr         param_1,[DAT_080015b4]                  ;= 200000D4h
ram:08001316    b34a            ldr         r2,[DAT_080015e4]                       ;= 200000CCh
ram:08001318    0368            ldr         r3,[param_1,#0x0]=>DAT_200000d4         
ram:0800131a    b148            ldr         param_1,[DAT_080015e0]                  ;= 2000020Ch
ram:0800131c    1268            ldr         r2,[r2,#0x0]=>DAT_200000cc              
ram:0800131e    0468            ldr         r4,[param_1,#0x0]=>DAT_2000020c         
ram:08001320    002b            cmp         r3,#0x0                                 
ram:08001322    0fd0            beq         LAB_08001344                            
ram:08001324    f068            ldr         param_1,[r6,#offset DAT_2000010c &0xff] 
ram:08001326    0028            cmp         param_1,#0x0                            
ram:08001328    11d0            beq         LAB_0800134e                            
ram:0800132a    a448            ldr         param_1,[DAT_080015bc]                  ;= 200000D0h
ram:0800132c    a44b            ldr         r3,[DAT_080015c0]                       ;= 200000E8h
ram:0800132e    0468            ldr         r4,[param_1,#0x0]=>DAT_200000d0         
ram:08001330    1b68            ldr         r3,[r3,#0x0]=>DAT_200000e8              
ram:08001332    2046            mov         param_1,r4                              
ram:08001334    1843            orrs        param_1,r3                              
ram:08001336    ac4d            ldr         r5,[DAT_080015e8]                       ;= 1A05F2FFh
ram:08001338    1043            orrs        param_1,r2                              
ram:0800133a    2b40            ands        r3,r5                                   
ram:0800133c    1c43            orrs        r4,r3                                   
ram:0800133e    2a40            ands        r2,r5                                   
ram:08001340    1443            orrs        r4,r2                                   
ram:08001342    07e0            b           LAB_08001354                            
                            LAB_08001344:                 ;XREF[1,0]:   08001322
ram:08001344    0020            movs        param_1,#0x0                            
ram:08001346    1443            orrs        r4,r2                                   
ram:08001348    b062            str         param_1,[r6,#offset DAT_20000128 &0xff] 
ram:0800134a    2046            mov         param_1,r4                              
ram:0800134c    02e0            b           LAB_08001354                            
                            LAB_0800134e:                 ;XREF[1,0]:   08001328
ram:0800134e    0022            movs        r2,#0x0                                 
ram:08001350    2046            mov         param_1,r4                              
ram:08001352    b262            str         r2,[r6,#offset DAT_20000128 &0xff]      
                            LAB_08001354:                 ;XREF[2,0]:   08001342,0800134c
ram:08001354    a54a            ldr         r2,[DAT_080015ec]                       ;= 200000C8h
ram:08001356    1268            ldr         r2,[r2,#0x0]=>DAT_200000c8              
ram:08001358    1043            orrs        param_1,r2                              
ram:0800135a    0090            str         param_1,[sp,#0x0]=>local_28             
ram:0800135c    ff20            movs        param_1,#0xff                           
ram:0800135e    0130            adds        param_1,#0x1                            
ram:08001360    1443            orrs        r4,r2                                   
ram:08001362    8143            bics        param_2,param_1                         
ram:08001364    e0b2            uxtb        param_1,r4                              
ram:08001366    c207            lsls        r2,param_1,#0x1f                        
ram:08001368    d20d            lsrs        r2,r2,#0x17                             
ram:0800136a    1143            orrs        param_2,r2                              
ram:0800136c    0122            movs        r2,#0x1                                 
ram:0800136e    5202            lsls        r2,r2,#0x9                              
ram:08001370    9143            bics        param_2,r2                              
ram:08001372    8207            lsls        r2,param_1,#0x1e                        
ram:08001374    d20f            lsrs        r2,r2,#0x1f                             
ram:08001376    5202            lsls        r2,r2,#0x9                              
ram:08001378    1143            orrs        param_2,r2                              
ram:0800137a    0122            movs        r2,#0x1                                 
ram:0800137c    9202            lsls        r2,r2,#0xa                              
ram:0800137e    9143            bics        param_2,r2                              
ram:08001380    4207            lsls        r2,param_1,#0x1d                        
ram:08001382    d20f            lsrs        r2,r2,#0x1f                             
ram:08001384    9202            lsls        r2,r2,#0xa                              
ram:08001386    1143            orrs        param_2,r2                              
ram:08001388    0122            movs        r2,#0x1                                 
ram:0800138a    d202            lsls        r2,r2,#0xb                              
ram:0800138c    9143            bics        param_2,r2                              
ram:0800138e    0207            lsls        r2,param_1,#0x1c                        
ram:08001390    d20f            lsrs        r2,r2,#0x1f                             
ram:08001392    d202            lsls        r2,r2,#0xb                              
ram:08001394    1143            orrs        param_2,r2                              
ram:08001396    0122            movs        r2,#0x1                                 
ram:08001398    1203            lsls        r2,r2,#0xc                              
ram:0800139a    9143            bics        param_2,r2                              
ram:0800139c    c206            lsls        r2,param_1,#0x1b                        
ram:0800139e    d20f            lsrs        r2,r2,#0x1f                             
ram:080013a0    1203            lsls        r2,r2,#0xc                              
ram:080013a2    1143            orrs        param_2,r2                              
ram:080013a4    0122            movs        r2,#0x1                                 
ram:080013a6    5203            lsls        r2,r2,#0xd                              
ram:080013a8    9143            bics        param_2,r2                              
ram:080013aa    8206            lsls        r2,param_1,#0x1a                        
ram:080013ac    d20f            lsrs        r2,r2,#0x1f                             
ram:080013ae    5203            lsls        r2,r2,#0xd                              
ram:080013b0    1143            orrs        param_2,r2                              
ram:080013b2    0122            movs        r2,#0x1                                 
ram:080013b4    9203            lsls        r2,r2,#0xe                              
ram:080013b6    9143            bics        param_2,r2                              
ram:080013b8    4206            lsls        r2,param_1,#0x19                        
ram:080013ba    d20f            lsrs        r2,r2,#0x1f                             
ram:080013bc    9203            lsls        r2,r2,#0xe                              
ram:080013be    1143            orrs        param_2,r2                              
ram:080013c0    4d04            lsls        r5,param_2,#0x11                        
ram:080013c2    c009            lsrs        param_1,param_1,#0x7                    
ram:080013c4    6d0c            lsrs        r5,r5,#0x11                             
ram:080013c6    c003            lsls        param_1,param_1,#0xf                    
ram:080013c8    0543            orrs        r5,param_1                              
ram:080013ca    8948            ldr         param_1,[DAT_080015f0]                  ;= 20000170h
ram:080013cc    0068            ldr         param_1,[param_1,#0x0]=>DAT_20000170    
ram:080013ce    0028            cmp         param_1,#0x0                            
ram:080013d0    27d0            beq         LAB_08001422                            
ram:080013d2    0020            movs        param_1,#0x0                            
ram:080013d4    b063            str         param_1,[r6,#offset DAT_20000138 &0xff] 
                            LAB_080013d6:                 ;XREF[14,0]:  08001426,0800142e,08001436,08001440
                                                          ;             08001448,0800144e,08001458,08001460
                                                          ;             08001466,08001470,08001478,0800147e
                                                          ;             08001488,08001498
ram:080013d6    8748            ldr         param_1,[DAT_080015f4]                  ;= 20000140h
ram:080013d8    6946            mov         param_2,sp                              
ram:080013da    0289            ldrh        r2,[param_1,#0x8]=>DAT_20000148         
ram:080013dc    0a81            strh        r2,[r1,#local_20+0x28]                  
ram:080013de    4289            ldrh        r2,[param_1,#0xa]=>DAT_2000014a         
ram:080013e0    4a81            strh        r2,[r1,#local_1e+0x28]                  
ram:080013e2    8289            ldrh        r2,[param_1,#0xc]=>DAT_2000014c         
ram:080013e4    8a81            strh        r2,[r1,#local_1c+0x28]                  
ram:080013e6    c289            ldrh        r2,[param_1,#0xe]=>DAT_2000014e         
ram:080013e8    ca81            strh        r2,[r1,#local_1a+0x28]                  
ram:080013ea    0720            movs        param_1,#0x7                            
ram:080013ec    3056            ldrsb       param_1,[r6,param_1]=>DAT_20000107      
ram:080013ee    0128            cmp         param_1,#0x1                            
ram:080013f0    09d0            beq         LAB_08001406                            
ram:080013f2    401c            adds        param_1,param_1,#0x1                    
ram:080013f4    07d0            beq         LAB_08001406                            
ram:080013f6    0020            movs        param_1,#0x0                            
ram:080013f8    c043            mvns        param_1,param_1                         
ram:080013fa    b070            strb        param_1,[r6,#offset DAT_20000102 &0xff] 
ram:080013fc    0122            movs        r2,#0x1                                 
ram:080013fe    7349            ldr         param_2=>DAT_20000102,[DAT_080015cc]    ;= 20000102h
ram:08001400    7348            ldr         param_1,[DAT_080015d0]                  
ram:08001402    01f0d0fe        bl          FUN_080031a6                            ;undefined FUN_080031a6(uint param_1,...
                            LAB_08001406:                 ;XREF[2,0]:   080013f0,080013f4
ram:08001406    0020            movs        param_1,#0x0                            
ram:08001408    c043            mvns        param_1,param_1                         
ram:0800140a    f071            strb        param_1,[r6,#offset DAT_20000107 &0xff] 
ram:0800140c    0322            movs        r2,#0x3                                 
ram:0800140e    0098            ldr         param_1,[sp,#0x0]=>local_28             
ram:08001410    d205            lsls        r2,r2,#0x17                             
ram:08001412    1021            movs        param_2,#0x10                           
ram:08001414    9042            cmp         param_1,r2                              
ram:08001416    5bd1            bne         LAB_080014d0                            
ram:08001418    7748            ldr         param_1,[DAT_080015f8]                  ;= 20000134h
ram:0800141a    0368            ldr         r3,[param_1,#0x0]=>DAT_20000134         
ram:0800141c    9343            bics        r3,r2                                   
ram:0800141e    3cd0            beq         LAB_0800149a                            
ram:08001420    56e0            b           LAB_080014d0                            
                            LAB_08001422:                 ;XREF[1,0]:   080013d0
ram:08001422    b06b            ldr         param_1,[r6,#offset DAT_20000138 &0xff] 
ram:08001424    0028            cmp         param_1,#0x0                            
ram:08001426    d6d1            bne         LAB_080013d6                            
ram:08001428    7448            ldr         param_1,[DAT_080015fc]                  ;= 200001AEh
ram:0800142a    0078            ldrb        param_1,[param_1,#0x0]=>DAT_200001ae    
ram:0800142c    0028            cmp         param_1,#0x0                            
ram:0800142e    d2d1            bne         LAB_080013d6                            
ram:08001430    734f            ldr         r7,[DAT_08001600]                       ;= 20000184h
ram:08001432    3878            ldrb        param_1,[r7,#0x0]=>DAT_20000184         
ram:08001434    c006            lsls        param_1,param_1,#0x1b                   
ram:08001436    ced5            bpl         LAB_080013d6                            
ram:08001438    0020            movs        param_1,#0x0                            
ram:0800143a    01f06dfd        bl          FUN_08002f18                            ;int FUN_08002f18(int param_1)
ram:0800143e    0028            cmp         param_1,#0x0                            
ram:08001440    c9d1            bne         LAB_080013d6                            
ram:08001442    6e48            ldr         param_1,[DAT_080015fc]                  ;= 200001AEh
ram:08001444    4078            ldrb        param_1,[param_1,#0x1]=>DAT_200001af    
ram:08001446    0028            cmp         param_1,#0x0                            
ram:08001448    c5d1            bne         LAB_080013d6                            
ram:0800144a    3878            ldrb        param_1,[r7,#0x0]=>DAT_20000184         
ram:0800144c    8006            lsls        param_1,param_1,#0x1a                   
ram:0800144e    c2d5            bpl         LAB_080013d6                            
ram:08001450    0120            movs        param_1,#0x1                            
ram:08001452    01f061fd        bl          FUN_08002f18                            ;int FUN_08002f18(int param_1)
ram:08001456    0028            cmp         param_1,#0x0                            
ram:08001458    bdd1            bne         LAB_080013d6                            
ram:0800145a    6848            ldr         param_1,[DAT_080015fc]                  ;= 200001AEh
ram:0800145c    8078            ldrb        param_1,[param_1,#0x2]=>DAT_200001b0    
ram:0800145e    0028            cmp         param_1,#0x0                            
ram:08001460    b9d1            bne         LAB_080013d6                            
ram:08001462    3878            ldrb        param_1,[r7,#0x0]=>DAT_20000184         
ram:08001464    4006            lsls        param_1,param_1,#0x19                   
ram:08001466    b6d5            bpl         LAB_080013d6                            
ram:08001468    0220            movs        param_1,#0x2                            
ram:0800146a    01f055fd        bl          FUN_08002f18                            ;int FUN_08002f18(int param_1)
ram:0800146e    0028            cmp         param_1,#0x0                            
ram:08001470    b1d1            bne         LAB_080013d6                            
ram:08001472    6248            ldr         param_1,[DAT_080015fc]                  ;= 200001AEh
ram:08001474    c078            ldrb        param_1,[param_1,#0x3]=>DAT_200001b1    
ram:08001476    0028            cmp         param_1,#0x0                            
ram:08001478    add1            bne         LAB_080013d6                            
ram:0800147a    3878            ldrb        param_1,[r7,#0x0]=>DAT_20000184         
ram:0800147c    c009            lsrs        param_1,param_1,#0x7                    
ram:0800147e    aad0            beq         LAB_080013d6                            
ram:08001480    0320            movs        param_1,#0x3                            
ram:08001482    01f049fd        bl          FUN_08002f18                            ;int FUN_08002f18(int param_1)
ram:08001486    0028            cmp         param_1,#0x0                            
ram:08001488    a5d1            bne         LAB_080013d6                            
ram:0800148a    401e            subs        param_1,param_1,#0x1                    
ram:0800148c    b063            str         param_1,[r6,#offset DAT_20000138 &0xff] 
ram:0800148e    0820            movs        param_1,#0x8                            
ram:08001490    3070            strb        param_1,[r6,#0x0]=>DAT_20000100         
ram:08001492    0120            movs        param_1,#0x1                            
ram:08001494    03f060fd        bl          FUN_08004f58                            ;undefined FUN_08004f58(undefined4 pa...
ram:08001498    9de7            b           LAB_080013d6                            
                            LAB_0800149a:                 ;XREF[1,0]:   0800141e
ram:0800149a    8278            ldrb        r2,[param_1,#0x2]=>DAT_20000136         
ram:0800149c    d209            lsrs        r2,r2,#0x7                              
ram:0800149e    02d0            beq         LAB_080014a6                            
ram:080014a0    c078            ldrb        param_1,[param_1,#0x3]=>DAT_20000137    
ram:080014a2    c007            lsls        param_1,param_1,#0x1f                   
ram:080014a4    04d1            bne         LAB_080014b0                            
                            LAB_080014a6:                 ;XREF[1,0]:   0800149e
ram:080014a6    b078            ldrb        param_1,[r6,#offset DAT_20000102 &0xff] 
ram:080014a8    0028            cmp         param_1,#0x0                            
ram:080014aa    01d0            beq         LAB_080014b0                            
ram:080014ac    3220            movs        param_1,#0x32                           
ram:080014ae    7072            strb        param_1,[r6,#offset DAT_20000109 &0xff] 
                            LAB_080014b0:                 ;XREF[2,0]:   080014a4,080014aa
ram:080014b0    707a            ldrb        param_1,[r6,#offset DAT_20000109 &0xff] 
ram:080014b2    0128            cmp         param_1,#0x1                            
ram:080014b4    0cd1            bne         LAB_080014d0                            
ram:080014b6    3170            strb        param_2,[r6,#0x0]=>DAT_20000100         
ram:080014b8    03f04efd        bl          FUN_08004f58                            ;undefined FUN_08004f58(undefined4 pa...
ram:080014bc    00f031fe        bl          FUN_08002122                            ;undefined FUN_08002122(void)
ram:080014c0    0020            movs        param_1,#0x0                            
ram:080014c2    7072            strb        param_1,[r6,#offset DAT_20000109 &0xff] 
ram:080014c4    b070            strb        param_1,[r6,#offset DAT_20000102 &0xff] 
ram:080014c6    0122            movs        r2,#0x1                                 
ram:080014c8    4049            ldr         param_2=>DAT_20000102,[DAT_080015cc]    ;= 20000102h
ram:080014ca    4148            ldr         param_1,[DAT_080015d0]                  
ram:080014cc    01f06bfe        bl          FUN_080031a6                            ;undefined FUN_080031a6(uint param_1,...
                            LAB_080014d0:                 ;XREF[3,0]:   08001416,08001420,080014b4
ram:080014d0    b078            ldrb        param_1,[r6,#offset DAT_20000102 &0xff] 
ram:080014d2    0028            cmp         param_1,#0x0                            
ram:080014d4    06d0            beq         LAB_080014e4                            
ram:080014d6    0020            movs        param_1,#0x0                            
ram:080014d8    b070            strb        param_1,[r6,#offset DAT_20000102 &0xff] 
ram:080014da    0122            movs        r2,#0x1                                 
ram:080014dc    3b49            ldr         param_2=>DAT_20000102,[DAT_080015cc]    ;= 20000102h
ram:080014de    3c48            ldr         param_1,[DAT_080015d0]                  
ram:080014e0    01f061fe        bl          FUN_080031a6                            ;undefined FUN_080031a6(uint param_1,...
                            LAB_080014e4:                 ;XREF[1,0]:   080014d4
ram:080014e4    4748            ldr         param_1,[DAT_08001604]                  ;= 10010000h
ram:080014e6    8442            cmp         r4,param_1                              
ram:080014e8    1ad1            bne         LAB_08001520                            
ram:080014ea    4748            ldr         param_1,[DAT_08001608]                  ;= 20000130h
ram:080014ec    e243            mvns        r2,r4                                   
ram:080014ee    0168            ldr         param_2,[param_1,#0x0]=>DAT_20000130    
ram:080014f0    1142            tst         param_2,r2                              
ram:080014f2    15d1            bne         LAB_08001520                            
ram:080014f4    8178            ldrb        param_2,[param_1,#0x2]=>DAT_20000132    
ram:080014f6    c907            lsls        param_2,param_2,#0x1f                   
ram:080014f8    02d0            beq         LAB_08001500                            
ram:080014fa    c078            ldrb        param_1,[param_1,#0x3]=>DAT_20000133    
ram:080014fc    c006            lsls        param_1,param_1,#0x1b                   
ram:080014fe    01d4            bmi         LAB_08001504                            
                            LAB_08001500:                 ;XREF[1,0]:   080014f8
ram:08001500    3220            movs        param_1,#0x32                           
ram:08001502    7072            strb        param_1,[r6,#offset DAT_20000109 &0xff] 
                            LAB_08001504:                 ;XREF[1,0]:   080014fe
ram:08001504    2748            ldr         param_1,[DAT_080015a4]                  ;= 20000146h
ram:08001506    2849            ldr         param_2,[DAT_080015a8]                  ;= FFFF8000h
ram:08001508    0222            movs        r2,#0x2                                 
                            LAB_0800150a:                 ;XREF[1,0]:   08001512
                                                          ; FWD[2,0]:   20000148,2000014c
ram:0800150a    4180            strh        param_2,[param_1,#0x2]=>DAT_20000148    
                                                          ; FWD[2,0]:   2000014a,2000014e
ram:0800150c    8180            strh        param_2,[param_1,#0x4]=>DAT_2000014a    
ram:0800150e    001d            adds        param_1,param_1,#0x4                    
ram:08001510    521e            subs        r2,r2,#0x1                              
ram:08001512    fad1            bne         LAB_0800150a                            
ram:08001514    0027            movs        r7,#0x0                                 
ram:08001516    3762            str         r7,[r6,#offset DAT_20000120 &0xff]      
ram:08001518    707a            ldrb        param_1,[r6,#offset DAT_20000109 &0xff] 
ram:0800151a    0128            cmp         param_1,#0x1                            
ram:0800151c    0dd0            beq         LAB_0800153a                            
ram:0800151e    26e0            b           LAB_0800156e                            
                            LAB_08001520:                 ;XREF[2,0]:   080014e8,080014f2
ram:08001520    2002            lsls        param_1,r4,#0x8                         
ram:08001522    000e            lsrs        param_1,param_1,#0x18                   
ram:08001524    c007            lsls        param_1,param_1,#0x1f                   
ram:08001526    22d0            beq         LAB_0800156e                            
ram:08001528    0120            movs        param_1,#0x1                            
ram:0800152a    0004            lsls        param_1,param_1,#0x10                   
ram:0800152c    8442            cmp         r4,param_1                              
ram:0800152e    2bd1            bne         LAB_08001588                            
ram:08001530    3548            ldr         param_1,[DAT_08001608]                  ;= 20000130h
ram:08001532    0068            ldr         param_1,[param_1,#0x0]=>DAT_20000130    
ram:08001534    0028            cmp         param_1,#0x0                            
ram:08001536    0cd0            beq         LAB_08001552                            
ram:08001538    0de0            b           LAB_08001556                            
                            LAB_0800153a:                 ;XREF[1,0]:   0800151c
ram:0800153a    0820            movs        param_1,#0x8                            
ram:0800153c    3070            strb        param_1,[r6,#0x0]=>DAT_20000100         
ram:0800153e    0120            movs        param_1,#0x1                            
ram:08001540    03f00afd        bl          FUN_08004f58                            ;undefined FUN_08004f58(undefined4 pa...
ram:08001544    7772            strb        r7,[r6,#offset DAT_20000109 &0xff]      
ram:08001546    2822            movs        r2,#0x28                                
ram:08001548    3049            ldr         param_2=>LAB_080053bc,[PTR_LAB_0800160c];= 080053bc
ram:0800154a    1948            ldr         param_1,[DAT_080015b0]                  ;= 00000002h
ram:0800154c    01f02bfe        bl          FUN_080031a6                            ;undefined FUN_080031a6(uint param_1,...
ram:08001550    0de0            b           LAB_0800156e                            
                            LAB_08001552:                 ;XREF[1,0]:   08001536
ram:08001552    1e20            movs        param_1,#0x1e                           
ram:08001554    7072            strb        param_1,[r6,#offset DAT_20000109 &0xff] 
                            LAB_08001556:                 ;XREF[1,0]:   08001538
ram:08001556    707a            ldrb        param_1,[r6,#offset DAT_20000109 &0xff] 
ram:08001558    0128            cmp         param_1,#0x1                            
ram:0800155a    08d1            bne         LAB_0800156e                            
ram:0800155c    0420            movs        param_1,#0x4                            
ram:0800155e    3070            strb        param_1,[r6,#0x0]=>DAT_20000100         
ram:08001560    2b49            ldr         param_2,[DAT_08001610]                  ;= 20000224h
ram:08001562    0220            movs        param_1,#0x2                            
ram:08001564    0860            str         param_1,[param_2,#0x0]=>DAT_20000224    
ram:08001566    0120            movs        param_1,#0x1                            
ram:08001568    7071            strb        param_1,[r6,#offset DAT_20000105 &0xff] 
ram:0800156a    0020            movs        param_1,#0x0                            
                            LAB_0800156c:                 ;XREF[1,0]:   0800158c
ram:0800156c    7072            strb        param_1,[r6,#offset DAT_20000109 &0xff] 
                            LAB_0800156e:                 ;XREF[4,0]:   0800151e,08001526,08001550,0800155a
ram:0800156e    0127            movs        r7,#0x1                                 
ram:08001570    3f04            lsls        r7,r7,#0x10                             
ram:08001572    bc42            cmp         r4,r7                                   
ram:08001574    4ed1            bne         LAB_08001614                            
ram:08001576    7169            ldr         param_2,[r6,#offset DAT_20000114 &0xff] 
ram:08001578    1e29            cmp         param_2,#0x1e                           
ram:0800157a    02d2            bcs         LAB_08001582                            
ram:0800157c    0020            movs        param_1,#0x0                            
ram:0800157e    7071            strb        param_1,[r6,#offset DAT_20000105 &0xff] 
ram:08001580    7072            strb        param_1,[r6,#offset DAT_20000109 &0xff] 
                            LAB_08001582:                 ;XREF[1,0]:   0800157a
ram:08001582    0029            cmp         param_2,#0x0                            
ram:08001584    03d0            beq         LAB_0800158e                            
ram:08001586    47e0            b           LAB_08001618                            
                            LAB_08001588:                 ;XREF[1,0]:   0800152e
ram:08001588    0020            movs        param_1,#0x0                            
ram:0800158a    7071            strb        param_1,[r6,#offset DAT_20000105 &0xff] 
ram:0800158c    eee7            b           LAB_0800156c                            
                            LAB_0800158e:                 ;XREF[1,0]:   08001584
ram:0800158e    b069            ldr         param_1,[r6,#offset DAT_20000118 &0xff] 
ram:08001590    0028            cmp         param_1,#0x0                            
ram:08001592    02d1            bne         LAB_0800159a                            
ram:08001594    1e49            ldr         param_2,[DAT_08001610]                  ;= 20000224h
ram:08001596    0120            movs        param_1,#0x1                            
ram:08001598    0860            str         param_1,[param_2,#0x0]=>DAT_20000224    
                            LAB_0800159a:                 ;XREF[1,0]:   08001592
ram:0800159a    0a20            movs        param_1,#0xa                            
ram:0800159c    b061            str         param_1,[r6,#offset DAT_20000118 &0xff] 
ram:0800159e    3ee0            b           LAB_0800161e                            
ram:080015a0    b402            lsls        r4,r6,#0xa                              
ram:080015a2    0020            movs        r0,#0x0                                 
                            DAT_080015a4:                 ;XREF[1,0]:   08001504
ram:080015a4    46010020        undefined4  20000146h                               
                            DAT_080015a8:                 ;XREF[2,0]:   08001224,08001506
ram:080015a8    0080ffff        undefined4  FFFF8000h                               
                            DAT_080015ac:                 ;XREF[2,0]:   08001222,08001242
ram:080015ac    48010020        undefined4  20000148h                               
                            DAT_080015b0:                 ;XREF[3,0]:   08001238,080012a0,0800154a
ram:080015b0    02000000        undefined4  00000002h                               
                            DAT_080015b4:                 ;XREF[2,0]:   0800124c,08001314
ram:080015b4    d4000020        undefined4  200000D4h                               
                            DAT_080015b8:                 ;XREF[2,0]:   08001254,0800130e
ram:080015b8    00010020        undefined4  20000100h                               
                            DAT_080015bc:                 ;XREF[2,0]:   0800125c,0800132a
ram:080015bc    d0000020        undefined4  200000D0h                               
                            DAT_080015c0:                 ;XREF[2,0]:   08001262,0800132c
ram:080015c0    e8000020        undefined4  200000E8h                               
                            DAT_080015c4:                 ;XREF[1,0]:   08001264
ram:080015c4    f8000020        undefined4  200000F8h                               
                            DAT_080015c8:                 ;XREF[1,0]:   0800129a
ram:080015c8    b8010020        undefined4  200001B8h                               
                            DAT_080015cc:                 ;XREF[4,0]:   080012ea,080013fe,080014c8,080014dc
ram:080015cc    02010020        undefined4  20000102h                               
                            DAT_080015d0:                 ;XREF[4,0]:   080012ec,08001400,080014ca,080014de
ram:080015d0    00000000        undefined4  00000000h                               
                            DAT_080015d4:                 ;XREF[1,0]:   080012f8
ram:080015d4    03010020        undefined4  20000103h                               
                            DAT_080015d8:                 ;XREF[1,0]:   080012fa
ram:080015d8    01000000        undefined4  00000001h                               
                            DAT_080015dc:                 ;XREF[1,0]:   08001308
ram:080015dc    40020020        undefined4  20000240h                               
                            DAT_080015e0:                 ;XREF[1,0]:   0800131a
ram:080015e0    0c020020        undefined4  2000020Ch                               
                            DAT_080015e4:                 ;XREF[1,0]:   08001316
ram:080015e4    cc000020        undefined4  200000CCh                               
                            DAT_080015e8:                 ;XREF[1,0]:   08001336
ram:080015e8    fff2051a        undefined4  1A05F2FFh                               
                            DAT_080015ec:                 ;XREF[1,0]:   08001354
ram:080015ec    c8000020        undefined4  200000C8h                               
                            DAT_080015f0:                 ;XREF[1,0]:   080013ca
ram:080015f0    70010020        undefined4  20000170h                               
                            DAT_080015f4:                 ;XREF[1,0]:   080013d6
ram:080015f4    40010020        undefined4  20000140h                               
                            DAT_080015f8:                 ;XREF[1,0]:   08001418
ram:080015f8    34010020        undefined4  20000134h                               
                            DAT_080015fc:                 ;XREF[4,0]:   08001428,08001442,0800145a,08001472
ram:080015fc    ae010020        undefined4  200001AEh                               
                            DAT_08001600:                 ;XREF[1,0]:   08001430
ram:08001600    84010020        undefined4  20000184h                               
                            DAT_08001604:                 ;XREF[1,0]:   080014e4
ram:08001604    00000110        undefined4  10010000h                               
                            DAT_08001608:                 ;XREF[2,0]:   080014ea,08001530
ram:08001608    30010020        undefined4  20000130h                               
                            PTR_LAB_0800160c:             ;XREF[1,0]:   08001548
ram:0800160c    bc530008        addr        LAB_080053bc                            
                            DAT_08001610:                 ;XREF[2,0]:   08001560,08001594
ram:08001610    24020020        undefined4  20000224h                               
                            LAB_08001614:                 ;XREF[1,0]:   08001574
ram:08001614    5a20            movs        param_1,#0x5a                           
ram:08001616    7061            str         param_1,[r6,#offset DAT_20000114 &0xff] 
                            LAB_08001618:                 ;XREF[1,0]:   08001586
ram:08001618    b069            ldr         param_1,[r6,#offset DAT_20000118 &0xff] 
ram:0800161a    0028            cmp         param_1,#0x0                            
ram:0800161c    21d0            beq         LAB_08001662                            
                            LAB_0800161e:                 ;XREF[1,0]:   0800159e
ram:0800161e    2002            lsls        param_1,r4,#0x8                         
ram:08001620    000e            lsrs        param_1,param_1,#0x18                   
ram:08001622    8007            lsls        param_1,param_1,#0x1e                   
ram:08001624    1dd5            bpl         LAB_08001662                            
ram:08001626    0020            movs        param_1,#0x0                            
ram:08001628    b061            str         param_1,[r6,#offset DAT_20000118 &0xff] 
ram:0800162a    f748            ldr         param_1,[DAT_08001a08]                  ;= 20000130h
ram:0800162c    0222            movs        r2,#0x2                                 
ram:0800162e    8178            ldrb        param_2,[param_1,#0x2]=>DAT_20000132    
ram:08001630    1143            orrs        param_2,r2                              
ram:08001632    8170            strb        param_2,[param_1,#0x2]=>DAT_20000132    
ram:08001634    0820            movs        param_1,#0x8                            
ram:08001636    3070            strb        param_1,[r6,#0x0]=>DAT_20000100         
ram:08001638    0120            movs        param_1,#0x1                            
ram:0800163a    03f08dfc        bl          FUN_08004f58                            ;undefined FUN_08004f58(undefined4 pa...
ram:0800163e    f348            ldr         param_1,[DAT_08001a0c]                  ;= 20000224h
ram:08001640    0221            movs        param_2,#0x2                            
ram:08001642    0160            str         param_2,[param_1,#0x0]=>DAT_20000224    
ram:08001644    0020            movs        param_1,#0x0                            
ram:08001646    7072            strb        param_1,[r6,#offset DAT_20000109 &0xff] 
ram:08001648    2822            movs        r2,#0x28                                
ram:0800164a    f149            ldr         param_2=>LAB_080053bc,[PTR_LAB_08001a10];= 080053bc
ram:0800164c    f148            ldr         param_1,[DAT_08001a14]                  ;= 00000002h
ram:0800164e    01f0aafd        bl          FUN_080031a6                            ;undefined FUN_080031a6(uint param_1,...
ram:08001652    0020            movs        param_1,#0x0                            
ram:08001654    c043            mvns        param_1,param_1                         
ram:08001656    b070            strb        param_1,[r6,#offset DAT_20000102 &0xff] 
ram:08001658    0122            movs        r2,#0x1                                 
ram:0800165a    ef49            ldr         param_2=>DAT_20000102,[DAT_08001a18]    ;= 20000102h
ram:0800165c    ef48            ldr         param_1,[DAT_08001a1c]                  
ram:0800165e    01f0a2fd        bl          FUN_080031a6                            ;undefined FUN_080031a6(uint param_1,...
                            LAB_08001662:                 ;XREF[2,0]:   0800161c,08001624
ram:08001662    0098            ldr         param_1,[sp,#0x0]=>local_28             
ram:08001664    0028            cmp         param_1,#0x0                            
ram:08001666    02d1            bne         LAB_0800166e                            
ram:08001668    7079            ldrb        param_1,[r6,#offset DAT_20000105 &0xff] 
ram:0800166a    0028            cmp         param_1,#0x0                            
ram:0800166c    75d0            beq         LAB_0800175a                            
                            LAB_0800166e:                 ;XREF[1,0]:   08001666
ram:0800166e    7079            ldrb        param_1,[r6,#offset DAT_20000105 &0xff] 
ram:08001670    0128            cmp         param_1,#0x1                            
ram:08001672    73d1            bne         LAB_0800175c                            
ram:08001674    2002            lsls        param_1,r4,#0x8                         
ram:08001676    000e            lsrs        param_1,param_1,#0x18                   
ram:08001678    c007            lsls        param_1,param_1,#0x1f                   
ram:0800167a    6fd1            bne         LAB_0800175c                            
ram:0800167c    0f20            movs        param_1,#0xf                            
ram:0800167e    2146            mov         param_2,r4                              
ram:08001680    0003            lsls        param_1,param_1,#0xc                    
ram:08001682    8143            bics        param_2,param_1                         
ram:08001684    05d1            bne         LAB_08001692                            
ram:08001686    e048            ldr         param_1,[DAT_08001a08]                  ;= 20000130h
ram:08001688    0068            ldr         param_1,[param_1,#0x0]=>DAT_20000130    
ram:0800168a    b842            cmp         param_1,r7                              
ram:0800168c    01d1            bne         LAB_08001692                            
ram:0800168e    6420            movs        param_1,#0x64                           
ram:08001690    7072            strb        param_1,[r6,#offset DAT_20000109 &0xff] 
                            LAB_08001692:                 ;XREF[2,0]:   08001684,0800168c
ram:08001692    707a            ldrb        param_1,[r6,#offset DAT_20000109 &0xff] 
ram:08001694    0128            cmp         param_1,#0x1                            
ram:08001696    02d8            bhi         LAB_0800169e                            
ram:08001698    0020            movs        param_1,#0x0                            
ram:0800169a    7071            strb        param_1,[r6,#offset DAT_20000105 &0xff] 
ram:0800169c    7072            strb        param_1,[r6,#offset DAT_20000109 &0xff] 
                            LAB_0800169e:                 ;XREF[1,0]:   08001696
ram:0800169e    a004            lsls        param_1,r4,#0x12                        
ram:080016a0    800f            lsrs        param_1,param_1,#0x1e                   
ram:080016a2    0328            cmp         param_1,#0x3                            
ram:080016a4    12d0            beq         LAB_080016cc                            
ram:080016a6    2004            lsls        param_1,r4,#0x10                        
ram:080016a8    000e            lsrs        param_1,param_1,#0x18                   
ram:080016aa    c106            lsls        param_2,param_1,#0x1b                   
ram:080016ac    1dd5            bpl         LAB_080016ea                            
ram:080016ae    0020            movs        param_1,#0x0                            
ram:080016b0    fff7eefd        bl          FUN_08001290                            ;undefined FUN_08001290(int param_1)
ram:080016b4    0820            movs        param_1,#0x8                            
ram:080016b6    3070            strb        param_1,[r6,#0x0]=>DAT_20000100         
ram:080016b8    0120            movs        param_1,#0x1                            
ram:080016ba    03f04dfc        bl          FUN_08004f58                            ;undefined FUN_08004f58(undefined4 pa...
ram:080016be    d349            ldr         param_2,[DAT_08001a0c]                  ;= 20000224h
ram:080016c0    0220            movs        param_1,#0x2                            
ram:080016c2    0860            str         param_1,[param_2,#0x0]=>DAT_20000224    
ram:080016c4    0020            movs        param_1,#0x0                            
ram:080016c6    7071            strb        param_1,[r6,#offset DAT_20000105 &0xff] 
ram:080016c8    7072            strb        param_1,[r6,#offset DAT_20000109 &0xff] 
ram:080016ca    47e0            b           LAB_0800175c                            
                            LAB_080016cc:                 ;XREF[1,0]:   080016a4
ram:080016cc    0420            movs        param_1,#0x4                            
ram:080016ce    fff7dffd        bl          FUN_08001290                            ;undefined FUN_08001290(int param_1)
ram:080016d2    0820            movs        param_1,#0x8                            
ram:080016d4    3070            strb        param_1,[r6,#0x0]=>DAT_20000100         
ram:080016d6    0120            movs        param_1,#0x1                            
ram:080016d8    03f03efc        bl          FUN_08004f58                            ;undefined FUN_08004f58(undefined4 pa...
ram:080016dc    cb49            ldr         param_2,[DAT_08001a0c]                  ;= 20000224h
ram:080016de    0220            movs        param_1,#0x2                            
ram:080016e0    0860            str         param_1,[param_2,#0x0]=>DAT_20000224    
ram:080016e2    0020            movs        param_1,#0x0                            
ram:080016e4    7071            strb        param_1,[r6,#offset DAT_20000105 &0xff] 
ram:080016e6    7072            strb        param_1,[r6,#offset DAT_20000109 &0xff] 
ram:080016e8    38e0            b           LAB_0800175c                            
                            LAB_080016ea:                 ;XREF[1,0]:   080016ac
ram:080016ea    8106            lsls        param_2,param_1,#0x1a                   
ram:080016ec    0ed5            bpl         LAB_0800170c                            
ram:080016ee    0120            movs        param_1,#0x1                            
ram:080016f0    fff7cefd        bl          FUN_08001290                            ;undefined FUN_08001290(int param_1)
ram:080016f4    0820            movs        param_1,#0x8                            
ram:080016f6    3070            strb        param_1,[r6,#0x0]=>DAT_20000100         
ram:080016f8    0120            movs        param_1,#0x1                            
ram:080016fa    03f02dfc        bl          FUN_08004f58                            ;undefined FUN_08004f58(undefined4 pa...
ram:080016fe    c349            ldr         param_2,[DAT_08001a0c]                  ;= 20000224h
ram:08001700    0220            movs        param_1,#0x2                            
ram:08001702    0860            str         param_1,[param_2,#0x0]=>DAT_20000224    
ram:08001704    0020            movs        param_1,#0x0                            
ram:08001706    7071            strb        param_1,[r6,#offset DAT_20000105 &0xff] 
ram:08001708    7072            strb        param_1,[r6,#offset DAT_20000109 &0xff] 
ram:0800170a    27e0            b           LAB_0800175c                            
                            LAB_0800170c:                 ;XREF[1,0]:   080016ec
ram:0800170c    4106            lsls        param_2,param_1,#0x19                   
ram:0800170e    0ed5            bpl         LAB_0800172e                            
ram:08001710    0220            movs        param_1,#0x2                            
ram:08001712    fff7bdfd        bl          FUN_08001290                            ;undefined FUN_08001290(int param_1)
ram:08001716    0820            movs        param_1,#0x8                            
ram:08001718    3070            strb        param_1,[r6,#0x0]=>DAT_20000100         
ram:0800171a    0120            movs        param_1,#0x1                            
ram:0800171c    03f01cfc        bl          FUN_08004f58                            ;undefined FUN_08004f58(undefined4 pa...
ram:08001720    ba49            ldr         param_2,[DAT_08001a0c]                  ;= 20000224h
ram:08001722    0220            movs        param_1,#0x2                            
ram:08001724    0860            str         param_1,[param_2,#0x0]=>DAT_20000224    
ram:08001726    0020            movs        param_1,#0x0                            
ram:08001728    7071            strb        param_1,[r6,#offset DAT_20000105 &0xff] 
ram:0800172a    7072            strb        param_1,[r6,#offset DAT_20000109 &0xff] 
ram:0800172c    16e0            b           LAB_0800175c                            
                            LAB_0800172e:                 ;XREF[1,0]:   0800170e
ram:0800172e    c009            lsrs        param_1,param_1,#0x7                    
ram:08001730    0fd0            beq         LAB_08001752                            
ram:08001732    0320            movs        param_1,#0x3                            
ram:08001734    fff7acfd        bl          FUN_08001290                            ;undefined FUN_08001290(int param_1)
ram:08001738    0820            movs        param_1,#0x8                            
ram:0800173a    3070            strb        param_1,[r6,#0x0]=>DAT_20000100         
ram:0800173c    0120            movs        param_1,#0x1                            
ram:0800173e    03f00bfc        bl          FUN_08004f58                            ;undefined FUN_08004f58(undefined4 pa...
ram:08001742    b249            ldr         param_2,[DAT_08001a0c]                  ;= 20000224h
ram:08001744    0220            movs        param_1,#0x2                            
ram:08001746    0860            str         param_1,[param_2,#0x0]=>DAT_20000224    
ram:08001748    0020            movs        param_1,#0x0                            
ram:0800174a    7071            strb        param_1,[r6,#offset DAT_20000105 &0xff] 
ram:0800174c    7072            strb        param_1,[r6,#offset DAT_20000109 &0xff] 
ram:0800174e    05e0            b           LAB_0800175c                            
ram:08001750    03e0            b           LAB_0800175a                            
                            LAB_08001752:                 ;XREF[1,0]:   08001730
ram:08001752    002c            cmp         r4,#0x0                                 
ram:08001754    02d0            beq         LAB_0800175c                            
ram:08001756    0020            movs        param_1,#0x0                            
ram:08001758    7071            strb        param_1,[r6,#offset DAT_20000105 &0xff] 
                            LAB_0800175a:                 ;XREF[2,0]:   0800166c,08001750
ram:0800175a    7072            strb        param_1,[r6,#offset DAT_20000109 &0xff] 
                            LAB_0800175c:                 ;XREF[8,0]:   08001672,0800167a,080016ca,080016e8
                                                          ;             0800170a,0800172c,0800174e,08001754
ram:0800175c    7079            ldrb        param_1,[r6,#offset DAT_20000105 &0xff] 
ram:0800175e    0128            cmp         param_1,#0x1                            
ram:08001760    0ad0            beq         LAB_08001778                            
ram:08001762    0321            movs        param_2,#0x3                            
                            LAB_08001764:                 ;XREF[1,0]:   0800177a
ram:08001764    ae48            ldr         param_1,[DAT_08001a20]                  ;= 8201F000h
ram:08001766    03f017f9        bl          FUN_08004998                            ;undefined FUN_08004998(uint param_1,...
ram:0800176a    a748            ldr         param_1,[DAT_08001a08]                  ;= 20000130h
ram:0800176c    0121            movs        param_2,#0x1                            
ram:0800176e    0068            ldr         param_1,[param_1,#0x0]=>DAT_20000130    
ram:08001770    7156            ldrsb       param_2,[r6,param_2]=>DAT_20000101      
ram:08001772    0843            orrs        param_1,param_2                         
ram:08001774    02d0            beq         LAB_0800177c                            
ram:08001776    67e0            b           LAB_08001848                            
                            LAB_08001778:                 ;XREF[1,0]:   08001760
ram:08001778    0121            movs        param_2,#0x1                            
ram:0800177a    f3e7            b           LAB_08001764                            
                            LAB_0800177c:                 ;XREF[1,0]:   08001774
ram:0800177c    002c            cmp         r4,#0x0                                 
ram:0800177e    1ed0            beq         LAB_080017be                            
ram:08001780    a849            ldr         param_2=>DAT_20000148,[DAT_08001a24]    ;= 20000148h
ram:08001782    a94a            ldr         r2,[DAT_08001a28]                       ;= FFFF8000h
ram:08001784    0320            movs        param_1,#0x3                            
                            LAB_08001786:                 ;XREF[1,0]:   08001790
ram:08001786    4300            lsls        r3,param_1,#0x1                         
                                                          ; FWD[2,0]:   2000014c,2000014e
ram:08001788    cb5e            ldrsh       r3,[param_2,r3]=>DAT_2000014e           
ram:0800178a    9342            cmp         r3,r2                                   
ram:0800178c    01d1            bne         LAB_08001792                            
ram:0800178e    401e            subs        param_1,param_1,#0x1                    
ram:08001790    f9d2            bcs         LAB_08001786                            
                            LAB_08001792:                 ;XREF[1,0]:   0800178c
ram:08001792    401c            adds        param_1,param_1,#0x1                    
ram:08001794    05d1            bne         LAB_080017a2                            
ram:08001796    306a            ldr         param_1,[r6,#offset DAT_20000120 &0xff] 
ram:08001798    0028            cmp         param_1,#0x0                            
ram:0800179a    02d1            bne         LAB_080017a2                            
ram:0800179c    b06a            ldr         param_1,[r6,#offset DAT_20000128 &0xff] 
ram:0800179e    0028            cmp         param_1,#0x0                            
ram:080017a0    0dd0            beq         LAB_080017be                            
                            LAB_080017a2:                 ;XREF[2,0]:   08001794,0800179a
ram:080017a2    0220            movs        param_1,#0x2                            
ram:080017a4    891e            subs        param_2,param_2,#0x2                    
                            LAB_080017a6:                 ;XREF[1,0]:   080017b0
                                                          ; FWD[2,0]:   20000148,2000014c
ram:080017a6    4a80            strh        r2,[param_2,#0x2]=>DAT_20000148         
                                                          ; FWD[2,0]:   2000014a,2000014e
ram:080017a8    8a80            strh        r2,[param_2,#0x4]=>DAT_2000014a         
ram:080017aa    401e            subs        param_1,param_1,#0x1                    
ram:080017ac    091d            adds        param_2,param_2,#0x4                    
ram:080017ae    0028            cmp         param_1,#0x0                            
ram:080017b0    f9d1            bne         LAB_080017a6                            
ram:080017b2    3062            str         param_1,[r6,#offset DAT_20000120 &0xff] 
ram:080017b4    9d49            ldr         param_2,[DAT_08001a2c]                  ;= 20000100h
ram:080017b6    0864            str         param_1,[param_2,#offset DAT_20000140...
ram:080017b8    401e            subs        param_1,param_1,#0x1                    
ram:080017ba    7070            strb        param_1,[r6,#offset DAT_20000101 &0xff] 
ram:080017bc    44e0            b           LAB_08001848                            
                            LAB_080017be:                 ;XREF[2,0]:   0800177e,080017a0
ram:080017be    a004            lsls        param_1,r4,#0x12                        
ram:080017c0    800f            lsrs        param_1,param_1,#0x1e                   
ram:080017c2    0328            cmp         param_1,#0x3                            
ram:080017c4    07d0            beq         LAB_080017d6                            
ram:080017c6    2004            lsls        param_1,r4,#0x10                        
ram:080017c8    000e            lsrs        param_1,param_1,#0x18                   
ram:080017ca    c106            lsls        param_2,param_1,#0x1b                   
ram:080017cc    0dd5            bpl         LAB_080017ea                            
ram:080017ce    9148            ldr         param_1,[DAT_08001a14]                  ;= 00000002h
ram:080017d0    0822            movs        r2,#0x8                                 
ram:080017d2    9449            ldr         param_2,[DAT_08001a24]                  ;= 20000148h
ram:080017d4    26e0            b           LAB_08001824                            
                            LAB_080017d6:                 ;XREF[1,0]:   080017c4
ram:080017d6    9648            ldr         param_1,[DAT_08001a30]                  ;= 00000022h
ram:080017d8    0822            movs        r2,#0x8                                 
ram:080017da    9249            ldr         param_2=>DAT_20000148,[DAT_08001a24]    ;= 20000148h
ram:080017dc    01f0b7fc        bl          FUN_0800314e                            ;int FUN_0800314e(uint param_1, int p...
ram:080017e0    9048            ldr         param_1,[DAT_08001a24]                  ;= 20000148h
ram:080017e2    9149            ldr         param_2,[DAT_08001a28]                  ;= FFFF8000h
ram:080017e4    8180            strh        param_2,[param_1,#0x4]=>DAT_2000014c    
ram:080017e6    c180            strh        param_2,[param_1,#0x6]=>DAT_2000014e    
ram:080017e8    2ee0            b           LAB_08001848                            
                            LAB_080017ea:                 ;XREF[1,0]:   080017cc
ram:080017ea    c109            lsrs        param_2,param_1,#0x7                    
ram:080017ec    09d0            beq         LAB_08001802                            
ram:080017ee    9148            ldr         param_1,[DAT_08001a34]                  ;= 0000001Ah
ram:080017f0    0822            movs        r2,#0x8                                 
ram:080017f2    8c49            ldr         param_2=>DAT_20000148,[DAT_08001a24]    ;= 20000148h
ram:080017f4    01f0abfc        bl          FUN_0800314e                            ;int FUN_0800314e(uint param_1, int p...
ram:080017f8    8a48            ldr         param_1,[DAT_08001a24]                  ;= 20000148h
ram:080017fa    8b49            ldr         param_2,[DAT_08001a28]                  ;= FFFF8000h
ram:080017fc    8180            strh        param_2,[param_1,#0x4]=>DAT_2000014c    
ram:080017fe    c180            strh        param_2,[param_1,#0x6]=>DAT_2000014e    
ram:08001800    22e0            b           LAB_08001848                            
                            LAB_08001802:                 ;XREF[1,0]:   080017ec
ram:08001802    4106            lsls        param_2,param_1,#0x19                   
ram:08001804    09d5            bpl         LAB_0800181a                            
ram:08001806    8c48            ldr         param_1,[DAT_08001a38]                  ;= 00000012h
ram:08001808    0822            movs        r2,#0x8                                 
ram:0800180a    8649            ldr         param_2=>DAT_20000148,[DAT_08001a24]    ;= 20000148h
ram:0800180c    01f09ffc        bl          FUN_0800314e                            ;int FUN_0800314e(uint param_1, int p...
ram:08001810    8449            ldr         param_2,[DAT_08001a24]                  ;= 20000148h
ram:08001812    8548            ldr         param_1,[DAT_08001a28]                  ;= FFFF8000h
ram:08001814    8880            strh        param_1,[param_2,#0x4]=>DAT_2000014c    
ram:08001816    c880            strh        param_1,[param_2,#0x6]=>DAT_2000014e    
ram:08001818    16e0            b           LAB_08001848                            
                            LAB_0800181a:                 ;XREF[1,0]:   08001804
ram:0800181a    8006            lsls        param_1,param_1,#0x1a                   
ram:0800181c    05d5            bpl         LAB_0800182a                            
ram:0800181e    8748            ldr         param_1,[DAT_08001a3c]                  ;= 0000000Ah
ram:08001820    0822            movs        r2,#0x8                                 
ram:08001822    8049            ldr         param_2=>DAT_20000148,[DAT_08001a24]    ;= 20000148h
                            LAB_08001824:                 ;XREF[1,0]:   080017d4
ram:08001824    01f093fc        bl          FUN_0800314e                            ;int FUN_0800314e(uint param_1, int p...
ram:08001828    0ee0            b           LAB_08001848                            
                            LAB_0800182a:                 ;XREF[1,0]:   0800181c
ram:0800182a    200e            lsrs        param_1,r4,#0x18                        
ram:0800182c    c006            lsls        param_1,param_1,#0x1b                   
ram:0800182e    0bd4            bmi         LAB_08001848                            
ram:08001830    002c            cmp         r4,#0x0                                 
ram:08001832    09d0            beq         LAB_08001848                            
ram:08001834    8248            ldr         param_1,[DAT_08001a40]                  ;= 20000146h
ram:08001836    7c49            ldr         param_2,[DAT_08001a28]                  ;= FFFF8000h
ram:08001838    0222            movs        r2,#0x2                                 
                            LAB_0800183a:                 ;XREF[1,0]:   08001842
                                                          ; FWD[2,0]:   20000148,2000014c
ram:0800183a    4180            strh        param_2,[param_1,#0x2]=>DAT_20000148    
                                                          ; FWD[2,0]:   2000014a,2000014e
ram:0800183c    8180            strh        param_2,[param_1,#0x4]=>DAT_2000014a    
ram:0800183e    001d            adds        param_1,param_1,#0x4                    
ram:08001840    521e            subs        r2,r2,#0x1                              
ram:08001842    fad1            bne         LAB_0800183a                            
ram:08001844    0020            movs        param_1,#0x0                            
ram:08001846    3062            str         param_1,[r6,#offset DAT_20000120 &0xff] 
                            LAB_08001848:                 ;XREF[8,0]:   08001776,080017bc,080017e8,08001800
                                                          ;             08001818,08001828,0800182e,08001832
ram:08001848    270e            lsrs        r7,r4,#0x18                             
ram:0800184a    f806            lsls        param_1,r7,#0x1b                        
ram:0800184c    c10f            lsrs        param_2,param_1,#0x1f                   
ram:0800184e    0122            movs        r2,#0x1                                 
ram:08001850    2046            mov         param_1,r4                              
ram:08001852    1207            lsls        r2,r2,#0x1c                             
ram:08001854    9043            bics        param_1,r2                              
ram:08001856    0029            cmp         param_2,#0x0                            
ram:08001858    02d1            bne         LAB_08001860                            
ram:0800185a    7a49            ldr         param_2=>DAT_200002b4,[DAT_08001a44]    ;= 200002B4h
ram:0800185c    0f22            movs        r2,#0xf                                 
ram:0800185e    8a60            str         r2,[param_2,#0x8]=>DAT_200002bc         
                            LAB_08001860:                 ;XREF[1,0]:   08001858
ram:08001860    0028            cmp         param_1,#0x0                            
ram:08001862    04d0            beq         LAB_0800186e                            
ram:08001864    0020            movs        param_1,#0x0                            
ram:08001866    7749            ldr         param_2,[DAT_08001a44]                  ;= 200002B4h
ram:08001868    c043            mvns        param_1,param_1                         
ram:0800186a    8860            str         param_1,[param_2,#0x8]=>DAT_200002bc    
ram:0800186c    0ce0            b           LAB_08001888                            
                            LAB_0800186e:                 ;XREF[1,0]:   08001862
ram:0800186e    7548            ldr         param_1,[DAT_08001a44]                  ;= 200002B4h
ram:08001870    8168            ldr         param_2,[param_1,#0x8]=>DAT_200002bc    
ram:08001872    0029            cmp         param_2,#0x0                            
ram:08001874    08d1            bne         LAB_08001888                            
ram:08001876    491e            subs        param_2,param_2,#0x1                    
ram:08001878    8160            str         param_2,[param_1,#0x8]=>DAT_200002bc    
ram:0800187a    ff20            movs        param_1,#0xff                           
ram:0800187c    3062            str         param_1,[r6,#offset DAT_20000120 &0xff] 
ram:0800187e    7d20            movs        param_1,#0x7d                           
ram:08001880    4001            lsls        param_1,param_1,#0x5                    
ram:08001882    7062            str         param_1,[r6,#offset DAT_20000124 &0xff] 
ram:08001884    00f04dfc        bl          FUN_08002122                            ;undefined FUN_08002122(void)
                            LAB_08001888:                 ;XREF[2,0]:   0800186c,08001874
ram:08001888    6848            ldr         param_1,[DAT_08001a2c]                  ;= 20000100h
ram:0800188a    8078            ldrb        param_1,[param_1,#offset DAT_20000102...
ram:0800188c    0028            cmp         param_1,#0x0                            
ram:0800188e    0fd0            beq         LAB_080018b0                            
ram:08001890    2004            lsls        param_1,r4,#0x10                        
ram:08001892    000f            lsrs        param_1,param_1,#0x1c                   
ram:08001894    07d1            bne         LAB_080018a6                            
ram:08001896    6a48            ldr         param_1,[DAT_08001a40]                  ;= 20000146h
ram:08001898    634a            ldr         r2,[DAT_08001a28]                       ;= FFFF8000h
ram:0800189a    0221            movs        param_2,#0x2                            
                            LAB_0800189c:                 ;XREF[1,0]:   080018a4
                                                          ; FWD[2,0]:   20000148,2000014c
ram:0800189c    4280            strh        r2,[param_1,#0x2]=>DAT_20000148         
                                                          ; FWD[2,0]:   2000014a,2000014e
ram:0800189e    8280            strh        r2,[param_1,#0x4]=>DAT_2000014a         
ram:080018a0    001d            adds        param_1,param_1,#0x4                    
ram:080018a2    491e            subs        param_2,param_2,#0x1                    
ram:080018a4    fad1            bne         LAB_0800189c                            
                            LAB_080018a6:                 ;XREF[1,0]:   08001894
ram:080018a6    f806            lsls        param_1,r7,#0x1b                        
ram:080018a8    02d4            bmi         LAB_080018b0                            
ram:080018aa    6049            ldr         param_2,[DAT_08001a2c]                  ;= 20000100h
ram:080018ac    0020            movs        param_1,#0x0                            
ram:080018ae    0862            str         param_1,[param_2,#offset DAT_20000120...
                            LAB_080018b0:                 ;XREF[2,0]:   0800188e,080018a8
ram:080018b0    0822            movs        r2,#0x8                                 
ram:080018b2    5c49            ldr         param_2=>DAT_20000148,[DAT_08001a24]    ;= 20000148h
ram:080018b4    02a8            add         param_1,sp,#0x8                         
ram:080018b6    03f027fd        bl          FUN_08005308                            ;undefined FUN_08005308(int param_1, ...
ram:080018ba    6349            ldr         param_2,[DAT_08001a48]                  ;= 2000010Ah
ram:080018bc    0028            cmp         param_1,#0x0                            
ram:080018be    01d0            beq         LAB_080018c4                            
ram:080018c0    0020            movs        param_1,#0x0                            
ram:080018c2    0880            strh        param_1,[param_2,#0x0]=>DAT_2000010a    
                            LAB_080018c4:                 ;XREF[1,0]:   080018be
ram:080018c4    0026            movs        r6,#0x0                                 
                            LAB_080018c6:                 ;XREF[1,0]:   080019ca
ram:080018c6    5748            ldr         param_1,[DAT_08001a24]                  ;= 20000148h
ram:080018c8    7700            lsls        r7,r6,#0x1                              
                                                          ; FWD[2,0]:   20000148,2000014a
ram:080018ca    c05f            ldrsh       param_1,[param_1,r7]=>DAT_20000148      
ram:080018cc    0121            movs        param_2,#0x1                            
ram:080018ce    c903            lsls        param_2,param_2,#0xf                    
ram:080018d0    c842            cmn         param_1,param_2                         
ram:080018d2    06d1            bne         LAB_080018e2                            
ram:080018d4    5c48            ldr         param_1,[DAT_08001a48]                  ;= 2000010Ah
ram:080018d6    0322            movs        r2,#0x3                                 
ram:080018d8    0188            ldrh        param_2,[param_1,#0x0]=>DAT_2000010a    
ram:080018da    1202            lsls        r2,r2,#0x8                              
ram:080018dc    9143            bics        param_2,r2                              
ram:080018de    0180            strh        param_2,[param_1,#0x0]=>DAT_2000010a    
ram:080018e0    63e0            b           LAB_080019aa                            
                            LAB_080018e2:                 ;XREF[1,0]:   080018d2
ram:080018e2    0320            movs        param_1,#0x3                            
ram:080018e4    0002            lsls        param_1,param_1,#0x8                    
ram:080018e6    8543            bics        r5,param_1                              
ram:080018e8    5748            ldr         param_1,[DAT_08001a48]                  ;= 2000010Ah
ram:080018ea    0195            str         r5,[sp,#local_24+0x28]                  
ram:080018ec    0088            ldrh        param_1,[param_1,#0x0]=>DAT_2000010a    
ram:080018ee    8005            lsls        param_1,param_1,#0x16                   
ram:080018f0    810f            lsrs        param_2,param_1,#0x1e                   
ram:080018f2    31d0            beq         LAB_08001958                            
ram:080018f4    0321            movs        param_2,#0x3                            
ram:080018f6    0902            lsls        param_2,param_2,#0x8                    
ram:080018f8    800f            lsrs        param_1,param_1,#0x1e                   
ram:080018fa    8d43            bics        r5,param_2                              
ram:080018fc    0002            lsls        param_1,param_1,#0x8                    
ram:080018fe    0543            orrs        r5,param_1                              
ram:08001900    f0b2            uxtb        param_1,r6                              
ram:08001902    01f009fb        bl          FUN_08002f18                            ;int FUN_08002f18(int param_1)
ram:08001906    4749            ldr         param_2,[DAT_08001a24]                  ;= 20000148h
ram:08001908    c95f            ldrsh       param_2,[param_2,r7]=>DAT_20000148      
ram:0800190a    8842            cmp         param_1,param_2                         
ram:0800190c    02dc            bgt         LAB_08001914                            
ram:0800190e    0120            movs        param_1,#0x1                            
ram:08001910    4002            lsls        param_1,param_1,#0x9                    
ram:08001912    8543            bics        r5,param_1                              
                            LAB_08001914:                 ;XREF[1,0]:   0800190c
ram:08001914    f0b2            uxtb        param_1,r6                              
ram:08001916    01f0fffa        bl          FUN_08002f18                            ;int FUN_08002f18(int param_1)
ram:0800191a    4249            ldr         param_2,[DAT_08001a24]                  ;= 20000148h
ram:0800191c    c95f            ldrsh       param_2,[param_2,r7]=>DAT_20000148      
ram:0800191e    8842            cmp         param_1,param_2                         
ram:08001920    02db            blt         LAB_08001928                            
ram:08001922    ff20            movs        param_1,#0xff                           
ram:08001924    0130            adds        param_1,#0x1                            
ram:08001926    8543            bics        r5,param_1                              
                            LAB_08001928:                 ;XREF[1,0]:   08001920
ram:08001928    4848            ldr         param_1,[DAT_08001a4c]                  ;= 2000019Ah
ram:0800192a    c15b            ldrh        param_2,[param_1,r7]=>DAT_2000019a      
ram:0800192c    4848            ldr         param_1,[DAT_08001a50]                  ;= 00007FFFh
ram:0800192e    8142            cmp         param_2,param_1                         
ram:08001930    0ad3            bcc         LAB_08001948                            
ram:08001932    4848            ldr         param_1,[DAT_08001a54]                  ;= 200001A2h
ram:08001934    805d            ldrb        param_1,[param_1,r6]=>DAT_200001a2      
ram:08001936    0128            cmp         param_1,#0x1                            
ram:08001938    06d0            beq         LAB_08001948                            
ram:0800193a    0428            cmp         param_1,#0x4                            
ram:0800193c    04d0            beq         LAB_08001948                            
ram:0800193e    4648            ldr         param_1,[DAT_08001a58]                  ;= 20000294h
ram:08001940    b100            lsls        param_2,r6,#0x2                         
ram:08001942    4058            ldr         param_1,[param_1,param_2]=>DAT_20000294 
ram:08001944    0028            cmp         param_1,#0x0                            
ram:08001946    03d0            beq         LAB_08001950                            
                            LAB_08001948:                 ;XREF[3,0]:   08001930,08001938,0800193c
ram:08001948    1421            movs        param_2,#0x14                           
ram:0800194a    4448            ldr         param_1,[DAT_08001a5c]                  ;= 200002A4h
ram:0800194c    b200            lsls        r2,r6,#0x2                              
ram:0800194e    8150            str         param_2,[param_1,r2]=>DAT_200002a4      
                            LAB_08001950:                 ;XREF[2,0]:   08001946,080019a2
ram:08001950    a805            lsls        param_1,r5,#0x16                        
ram:08001952    800f            lsrs        param_1,param_1,#0x1e                   
ram:08001954    26d0            beq         LAB_080019a4                            
ram:08001956    28e0            b           LAB_080019aa                            
                            LAB_08001958:                 ;XREF[1,0]:   080018f2
ram:08001958    f0b2            uxtb        param_1,r6                              
ram:0800195a    01f0ddfa        bl          FUN_08002f18                            ;int FUN_08002f18(int param_1)
ram:0800195e    3149            ldr         param_2,[DAT_08001a24]                  ;= 20000148h
ram:08001960    1438            subs        param_1,#0x14                           
ram:08001962    c95f            ldrsh       param_2,[param_2,r7]=>DAT_20000148      
ram:08001964    8842            cmp         param_1,param_2                         
ram:08001966    03dd            ble         LAB_08001970                            
ram:08001968    0120            movs        param_1,#0x1                            
ram:0800196a    019d            ldr         r5,[sp,#local_24+0x28]                  
ram:0800196c    4002            lsls        param_1,param_1,#0x9                    
ram:0800196e    0543            orrs        r5,param_1                              
                            LAB_08001970:                 ;XREF[1,0]:   08001966
ram:08001970    f0b2            uxtb        param_1,r6                              
ram:08001972    01f0d1fa        bl          FUN_08002f18                            ;int FUN_08002f18(int param_1)
ram:08001976    2b49            ldr         param_2,[DAT_08001a24]                  ;= 20000148h
ram:08001978    1430            adds        param_1,#0x14                           
ram:0800197a    c95f            ldrsh       param_2,[param_2,r7]=>DAT_20000148      
ram:0800197c    8842            cmp         param_1,param_2                         
ram:0800197e    02da            bge         LAB_08001986                            
ram:08001980    ff20            movs        param_1,#0xff                           
ram:08001982    0130            adds        param_1,#0x1                            
ram:08001984    0543            orrs        r5,param_1                              
                            LAB_08001986:                 ;XREF[1,0]:   0800197e
ram:08001986    3048            ldr         param_1,[DAT_08001a48]                  ;= 2000010Ah
ram:08001988    0322            movs        r2,#0x3                                 
ram:0800198a    0188            ldrh        param_2,[param_1,#0x0]=>DAT_2000010a    
ram:0800198c    1202            lsls        r2,r2,#0x8                              
ram:0800198e    9143            bics        param_2,r2                              
ram:08001990    aa05            lsls        r2,r5,#0x16                             
ram:08001992    920f            lsrs        r2,r2,#0x1e                             
ram:08001994    1202            lsls        r2,r2,#0x8                              
ram:08001996    1143            orrs        param_2,r2                              
ram:08001998    0180            strh        param_2,[param_1,#0x0]=>DAT_2000010a    
ram:0800199a    ff21            movs        param_2,#0xff                           
ram:0800199c    2f48            ldr         param_1,[DAT_08001a5c]                  ;= 200002A4h
ram:0800199e    b200            lsls        r2,r6,#0x2                              
ram:080019a0    8150            str         param_2,[param_1,r2]=>DAT_200002a4      
ram:080019a2    d5e7            b           LAB_08001950                            
                            LAB_080019a4:                 ;XREF[1,0]:   08001954
ram:080019a4    1f49            ldr         param_2,[DAT_08001a24]                  ;= 20000148h
ram:080019a6    2048            ldr         param_1,[DAT_08001a28]                  ;= FFFF8000h
ram:080019a8    c853            strh        param_1,[param_2,r7]=>DAT_20000148      
                            LAB_080019aa:                 ;XREF[2,0]:   080018e0,08001956
ram:080019aa    2c48            ldr         param_1,[DAT_08001a5c]                  ;= 200002A4h
ram:080019ac    b100            lsls        param_2,r6,#0x2                         
ram:080019ae    4058            ldr         param_1,[param_1,param_2]=>DAT_200002a4 
ram:080019b0    0028            cmp         param_1,#0x0                            
ram:080019b2    02d1            bne         LAB_080019ba                            
ram:080019b4    1b48            ldr         param_1,[DAT_08001a24]                  ;= 20000148h
ram:080019b6    1c49            ldr         param_2,[DAT_08001a28]                  ;= FFFF8000h
ram:080019b8    c153            strh        param_2,[param_1,r7]=>DAT_20000148      
                            LAB_080019ba:                 ;XREF[1,0]:   080019b2
ram:080019ba    2348            ldr         param_1,[DAT_08001a48]                  ;= 2000010Ah
ram:080019bc    ad08            lsrs        r5,r5,#0x2                              
ram:080019be    0188            ldrh        param_2,[param_1,#0x0]=>DAT_2000010a    
ram:080019c0    761c            adds        r6,r6,#0x1                              
ram:080019c2    8908            lsrs        param_2,param_2,#0x2                    
ram:080019c4    0180            strh        param_2,[param_1,#0x0]=>DAT_2000010a    
ram:080019c6    042e            cmp         r6,#0x4                                 
ram:080019c8    00da            bge         LAB_080019cc                            
ram:080019ca    7ce7            b           LAB_080018c6                            
                            LAB_080019cc:                 ;XREF[1,0]:   080019c8
ram:080019cc    2806            lsls        param_1,r5,#0x18                        
ram:080019ce    050c            lsrs        r5,param_1,#0x10                        
ram:080019d0    1d48            ldr         param_1,[DAT_08001a48]                  ;= 2000010Ah
ram:080019d2    0178            ldrb        param_2,[param_1,#0x0]=>DAT_2000010a    
ram:080019d4    0902            lsls        param_2,param_2,#0x8                    
ram:080019d6    0180            strh        param_2,[param_1,#0x0]=>DAT_2000010a    
ram:080019d8    1448            ldr         param_1,[DAT_08001a2c]                  ;= 20000100h
ram:080019da    002c            cmp         r4,#0x0                                 
ram:080019dc    40d0            beq         LAB_08001a60                            
ram:080019de    4078            ldrb        param_1,[param_1,#offset DAT_20000101...
ram:080019e0    0028            cmp         param_1,#0x0                            
ram:080019e2    44d0            beq         LAB_08001a6e                            
                            LAB_080019e4:                 ;XREF[1,0]:   08001a6a
ram:080019e4    1648            ldr         param_1,[DAT_08001a40]                  ;= 20000146h
ram:080019e6    104a            ldr         r2,[DAT_08001a28]                       ;= FFFF8000h
ram:080019e8    0221            movs        param_2,#0x2                            
                            LAB_080019ea:                 ;XREF[1,0]:   080019f2
                                                          ; FWD[2,0]:   20000148,2000014c
ram:080019ea    4280            strh        r2,[param_1,#0x2]=>DAT_20000148         
                                                          ; FWD[2,0]:   2000014a,2000014e
ram:080019ec    8280            strh        r2,[param_1,#0x4]=>DAT_2000014a         
ram:080019ee    001d            adds        param_1,param_1,#0x4                    
ram:080019f0    491e            subs        param_2,param_2,#0x1                    
ram:080019f2    fad1            bne         LAB_080019ea                            
ram:080019f4    0d48            ldr         param_1,[DAT_08001a2c]                  ;= 20000100h
ram:080019f6    0024            movs        r4,#0x0                                 
ram:080019f8    0462            str         r4,[param_1,#offset DAT_20000120 &0xff] 
ram:080019fa    0146            mov         param_2,param_1                         
ram:080019fc    0c64            str         r4,[param_2,#offset DAT_20000140 &0xff] 
ram:080019fe    4178            ldrb        param_2,[param_1,#offset DAT_20000101...
ram:08001a00    2546            mov         r5,r4                                   
ram:08001a02    0129            cmp         param_2,#0x1                            
ram:08001a04    32d0            beq         LAB_08001a6c                            
ram:08001a06    32e0            b           LAB_08001a6e                            
                            DAT_08001a08:                 ;XREF[3,0]:   0800162a,08001686,0800176a
ram:08001a08    30010020        undefined4  20000130h                               
                            DAT_08001a0c:                 ;XREF[6,0]:   0800163e,080016be,080016dc,080016fe
                                                          ;             08001720,08001742
ram:08001a0c    24020020        undefined4  20000224h                               
                            PTR_LAB_08001a10:             ;XREF[1,0]:   0800164a
ram:08001a10    bc530008        addr        LAB_080053bc                            
                            DAT_08001a14:                 ;XREF[2,0]:   0800164c,080017ce
ram:08001a14    02000000        undefined4  00000002h                               
                            DAT_08001a18:                 ;XREF[1,0]:   0800165a
ram:08001a18    02010020        undefined4  20000102h                               
                            DAT_08001a1c:                 ;XREF[1,0]:   0800165c
ram:08001a1c    00000000        undefined4  00000000h                               
                            DAT_08001a20:                 ;XREF[1,0]:   08001764
ram:08001a20    00f00182        undefined4  8201F000h                               
                            DAT_08001a24:                 ;XREF[17,0]:  08001780,080017d2,080017da,080017e0
                                                          ;             080017f2,080017f8,0800180a,08001810
                                                          ;             08001822,080018b2,080018c6,08001906
                                                          ;             0800191a,0800195e,08001976,080019a4
                                                          ;             080019b4
ram:08001a24    48010020        undefined4  20000148h                               
                            DAT_08001a28:                 ;XREF[9,0]:   08001782,080017e2,080017fa,08001812
                                                          ;             08001836,08001898,080019a6,080019b6
                                                          ;             080019e6
ram:08001a28    0080ffff        undefined4  FFFF8000h                               
                            DAT_08001a2c:                 ;XREF[5,0]:   080017b4,08001888,080018aa,080019d8
                                                          ;             080019f4
ram:08001a2c    00010020        undefined4  20000100h                               
                            DAT_08001a30:                 ;XREF[1,0]:   080017d6
ram:08001a30    22000000        undefined4  00000022h                               
                            DAT_08001a34:                 ;XREF[1,0]:   080017ee
ram:08001a34    1a000000        undefined4  0000001Ah                               
                            DAT_08001a38:                 ;XREF[1,0]:   08001806
ram:08001a38    12000000        undefined4  00000012h                               
                            DAT_08001a3c:                 ;XREF[1,0]:   0800181e
ram:08001a3c    0a000000        undefined4  0000000Ah                               
                            DAT_08001a40:                 ;XREF[3,0]:   08001834,08001896,080019e4
ram:08001a40    46010020        undefined4  20000146h                               
                            DAT_08001a44:                 ;XREF[3,0]:   0800185a,08001866,0800186e
ram:08001a44    b4020020        undefined4  200002B4h                               
                            DAT_08001a48:                 ;XREF[6,0]:   080018ba,080018d4,080018e8,08001986
                                                          ;             080019ba,080019d0
ram:08001a48    0a010020        undefined4  2000010Ah                               
                            DAT_08001a4c:                 ;XREF[1,0]:   08001928
ram:08001a4c    9a010020        undefined4  2000019Ah                               
                            DAT_08001a50:                 ;XREF[1,0]:   0800192c
ram:08001a50    ff7f0000        undefined4  00007FFFh                               
                            DAT_08001a54:                 ;XREF[1,0]:   08001932
ram:08001a54    a2010020        undefined4  200001A2h                               
                            DAT_08001a58:                 ;XREF[1,0]:   0800193e
ram:08001a58    94020020        undefined4  20000294h                               
                            DAT_08001a5c:                 ;XREF[3,0]:   0800194a,0800199c,080019aa
ram:08001a5c    a4020020        undefined4  200002A4h                               
                            LAB_08001a60:                 ;XREF[1,0]:   080019dc
ram:08001a60    4178            ldrb        param_2,[param_1,#offset DAT_20000101...
ram:08001a62    0029            cmp         param_2,#0x0                            
ram:08001a64    03d0            beq         LAB_08001a6e                            
ram:08001a66    0121            movs        param_2,#0x1                            
ram:08001a68    4170            strb        param_2,[param_1,#offset DAT_20000101...
ram:08001a6a    bbe7            b           LAB_080019e4                            
                            LAB_08001a6c:                 ;XREF[1,0]:   08001a04
ram:08001a6c    4470            strb        r4,[param_1,#offset DAT_20000101 &0xff] 
                            LAB_08001a6e:                 ;XREF[3,0]:   080019e2,08001a06,08001a64
ram:08001a6e    210e            lsrs        param_2,r4,#0x18                        
ram:08001a70    0122            movs        r2,#0x1                                 
ram:08001a72    d205            lsls        r2,r2,#0x17                             
ram:08001a74    cb07            lsls        r3,param_2,#0x1f                        
ram:08001a76    db0f            lsrs        r3,r3,#0x1f                             
ram:08001a78    2046            mov         param_1,r4                              
ram:08001a7a    1442            tst         r4,r2                                   
ram:08001a7c    0494            str         r4,[sp,#local_18+0x28]                  
ram:08001a7e    0191            str         param_2,[sp,#local_24+0x28]             
ram:08001a80    02d1            bne         LAB_08001a88                            
ram:08001a82    ff49            ldr         param_2,[DAT_08001e80]                  ;= 200002B4h
ram:08001a84    0f26            movs        r6,#0xf                                 
ram:08001a86    0e60            str         r6,[param_2,#0x0]=>DAT_200002b4         
                            LAB_08001a88:                 ;XREF[1,0]:   08001a80
ram:08001a88    002b            cmp         r3,#0x0                                 
ram:08001a8a    04d0            beq         LAB_08001a96                            
ram:08001a8c    0021            movs        param_2,#0x0                            
ram:08001a8e    fc4b            ldr         r3,[DAT_08001e80]                       ;= 200002B4h
ram:08001a90    c943            mvns        param_2,param_2                         
ram:08001a92    1960            str         param_2,[r3,#0x0]=>DAT_200002b4         
ram:08001a94    03e0            b           LAB_08001a9e                            
                            LAB_08001a96:                 ;XREF[1,0]:   08001a8a
ram:08001a96    fa49            ldr         param_2,[DAT_08001e80]                  ;= 200002B4h
ram:08001a98    0b68            ldr         r3,[param_2,#0x0]=>DAT_200002b4         
ram:08001a9a    002b            cmp         r3,#0x0                                 
ram:08001a9c    11d0            beq         LAB_08001ac2                            
                            LAB_08001a9e:                 ;XREF[1,0]:   08001a94
ram:08001a9e    9043            bics        param_1,r2                              
                            LAB_08001aa0:                 ;XREF[1,0]:   08001ac8
ram:08001aa0    0123            movs        r3,#0x1                                 
ram:08001aa2    2102            lsls        param_2,r4,#0x8                         
ram:08001aa4    1b06            lsls        r3,r3,#0x18                             
ram:08001aa6    0f0e            lsrs        r7,param_2,#0x18                        
ram:08001aa8    f909            lsrs        param_2,r7,#0x7                         
ram:08001aaa    1842            tst         param_1,r3                              
ram:08001aac    02d1            bne         LAB_08001ab4                            
ram:08001aae    f44e            ldr         r6,[DAT_08001e80]                       ;= 200002B4h
ram:08001ab0    0f22            movs        r2,#0xf                                 
ram:08001ab2    7260            str         r2,[r6,#0x4]=>DAT_200002b8              
                            LAB_08001ab4:                 ;XREF[1,0]:   08001aac
ram:08001ab4    0029            cmp         param_2,#0x0                            
ram:08001ab6    08d0            beq         LAB_08001aca                            
ram:08001ab8    0021            movs        param_2,#0x0                            
ram:08001aba    f14a            ldr         r2=>DAT_200002b4,[DAT_08001e80]         ;= 200002B4h
ram:08001abc    c943            mvns        param_2,param_2                         
ram:08001abe    5160            str         param_2,[r2,#0x4]=>DAT_200002b8         
ram:08001ac0    07e0            b           LAB_08001ad2                            
                            LAB_08001ac2:                 ;XREF[1,0]:   08001a9c
ram:08001ac2    0022            movs        r2,#0x0                                 
ram:08001ac4    d243            mvns        r2,r2                                   
ram:08001ac6    0a60            str         r2,[param_2,#0x0]=>DAT_200002b4         
ram:08001ac8    eae7            b           LAB_08001aa0                            
                            LAB_08001aca:                 ;XREF[1,0]:   08001ab6
ram:08001aca    ed49            ldr         param_2=>DAT_200002b4,[DAT_08001e80]    ;= 200002B4h
ram:08001acc    4a68            ldr         r2,[param_2,#0x4]=>DAT_200002b8         
ram:08001ace    002a            cmp         r2,#0x0                                 
ram:08001ad0    0fd0            beq         LAB_08001af2                            
                            LAB_08001ad2:                 ;XREF[1,0]:   08001ac0
ram:08001ad2    9843            bics        param_1,r3                              
                            LAB_08001ad4:                 ;XREF[1,0]:   08001af8
ram:08001ad4    00f02bfb        bl          FUN_0800212e                            ;undefined FUN_0800212e(uint param_1)
ram:08001ad8    ea48            ldr         param_1,[DAT_08001e84]                  ;= 200000D4h
ram:08001ada    0068            ldr         param_1,[param_1,#0x0]=>DAT_200000d4    
ram:08001adc    0028            cmp         param_1,#0x0                            
ram:08001ade    2ed0            beq         LAB_08001b3e                            
ram:08001ae0    2004            lsls        param_1,r4,#0x10                        
ram:08001ae2    000e            lsrs        param_1,param_1,#0x18                   
ram:08001ae4    c007            lsls        param_1,param_1,#0x1f                   
ram:08001ae6    08d0            beq         LAB_08001afa                            
ram:08001ae8    e748            ldr         param_1,[DAT_08001e88]                  ;= 20000100h
ram:08001aea    0169            ldr         param_2,[param_1,#offset DAT_20000110...
ram:08001aec    0129            cmp         param_2,#0x1                            
ram:08001aee    09d0            beq         LAB_08001b04                            
ram:08001af0    16e0            b           LAB_08001b20                            
                            LAB_08001af2:                 ;XREF[1,0]:   08001ad0
ram:08001af2    0022            movs        r2,#0x0                                 
ram:08001af4    d243            mvns        r2,r2                                   
ram:08001af6    4a60            str         r2,[param_2,#0x4]=>DAT_200002b8         
ram:08001af8    ece7            b           LAB_08001ad4                            
                            LAB_08001afa:                 ;XREF[1,0]:   08001ae6
ram:08001afa    ff21            movs        param_2,#0xff                           
ram:08001afc    e248            ldr         param_1,[DAT_08001e88]                  ;= 20000100h
ram:08001afe    2d31            adds        param_2,#0x2d                           
ram:08001b00    0161            str         param_2,[param_1,#offset DAT_20000110...
ram:08001b02    0de0            b           LAB_08001b20                            
                            LAB_08001b04:                 ;XREF[1,0]:   08001aee
ram:08001b04    0021            movs        param_2,#0x0                            
ram:08001b06    0161            str         param_2,[param_1,#offset DAT_20000110...
ram:08001b08    c268            ldr         r2,[param_1,#offset DAT_2000010c &0xff] 
ram:08001b0a    002a            cmp         r2,#0x0                                 
ram:08001b0c    0ed0            beq         LAB_08001b2c                            
ram:08001b0e    c160            str         param_2,[param_1,#offset DAT_2000010c...
                            LAB_08001b10:                 ;XREF[1,0]:   08001b30
ram:08001b10    0821            movs        param_2,#0x8                            
ram:08001b12    0170            strb        param_2,[param_1,#0x0]=>DAT_20000100    
ram:08001b14    0120            movs        param_1,#0x1                            
ram:08001b16    03f01ffa        bl          FUN_08004f58                            ;undefined FUN_08004f58(undefined4 pa...
ram:08001b1a    dc48            ldr         param_1,[DAT_08001e8c]                  ;= 20000224h
ram:08001b1c    0221            movs        param_2,#0x2                            
ram:08001b1e    0160            str         param_2,[param_1,#0x0]=>DAT_20000224    
                            LAB_08001b20:                 ;XREF[2,0]:   08001af0,08001b02
ram:08001b20    d948            ldr         param_1,[DAT_08001e88]                  ;= 20000100h
ram:08001b22    c068            ldr         param_1,[param_1,#offset DAT_2000010c...
ram:08001b24    0028            cmp         param_1,#0x0                            
ram:08001b26    04d0            beq         LAB_08001b32                            
ram:08001b28    0121            movs        param_2,#0x1                            
ram:08001b2a    03e0            b           LAB_08001b34                            
                            LAB_08001b2c:                 ;XREF[1,0]:   08001b0c
ram:08001b2c    0121            movs        param_2,#0x1                            
ram:08001b2e    c160            str         param_2,[param_1,#offset DAT_2000010c...
ram:08001b30    eee7            b           LAB_08001b10                            
                            LAB_08001b32:                 ;XREF[1,0]:   08001b26
ram:08001b32    0021            movs        param_2,#0x0                            
                            LAB_08001b34:                 ;XREF[1,0]:   08001b2a
ram:08001b34    0120            movs        param_1,#0x1                            
ram:08001b36    0007            lsls        param_1,param_1,#0x1c                   
ram:08001b38    02f02eff        bl          FUN_08004998                            ;undefined FUN_08004998(uint param_1,...
ram:08001b3c    09e0            b           LAB_08001b52                            
                            LAB_08001b3e:                 ;XREF[1,0]:   08001ade
ram:08001b3e    0120            movs        param_1,#0x1                            
ram:08001b40    0321            movs        param_2,#0x3                            
ram:08001b42    0007            lsls        param_1,param_1,#0x1c                   
ram:08001b44    02f028ff        bl          FUN_08004998                            ;undefined FUN_08004998(uint param_1,...
ram:08001b48    cf48            ldr         param_1,[DAT_08001e88]                  ;= 20000100h
ram:08001b4a    0121            movs        param_2,#0x1                            
ram:08001b4c    c160            str         param_2,[param_1,#offset DAT_2000010c...
ram:08001b4e    0021            movs        param_2,#0x0                            
ram:08001b50    0161            str         param_2,[param_1,#offset DAT_20000110...
                            LAB_08001b52:                 ;XREF[1,0]:   08001b3c
ram:08001b52    cd4e            ldr         r6,[DAT_08001e88]                       ;= 20000100h
ram:08001b54    706a            ldr         param_1,[r6,#offset DAT_20000124 &0xff] 
ram:08001b56    0028            cmp         param_1,#0x0                            
ram:08001b58    00d1            bne         LAB_08001b5c                            
ram:08001b5a    3062            str         param_1,[r6,#offset DAT_20000120 &0xff] 
                            LAB_08001b5c:                 ;XREF[1,0]:   08001b58
ram:08001b5c    306a            ldr         param_1,[r6,#offset DAT_20000120 &0xff] 
ram:08001b5e    0028            cmp         param_1,#0x0                            
ram:08001b60    15d0            beq         LAB_08001b8e                            
ram:08001b62    0020            movs        param_1,#0x0                            
ram:08001b64    01f0d8f9        bl          FUN_08002f18                            ;int FUN_08002f18(int param_1)
ram:08001b68    0028            cmp         param_1,#0x0                            
ram:08001b6a    0ed1            bne         LAB_08001b8a                            
ram:08001b6c    0120            movs        param_1,#0x1                            
ram:08001b6e    01f0d3f9        bl          FUN_08002f18                            ;int FUN_08002f18(int param_1)
ram:08001b72    0028            cmp         param_1,#0x0                            
ram:08001b74    09d1            bne         LAB_08001b8a                            
ram:08001b76    0220            movs        param_1,#0x2                            
ram:08001b78    01f0cef9        bl          FUN_08002f18                            ;int FUN_08002f18(int param_1)
ram:08001b7c    0028            cmp         param_1,#0x0                            
ram:08001b7e    04d1            bne         LAB_08001b8a                            
ram:08001b80    0320            movs        param_1,#0x3                            
ram:08001b82    01f0c9f9        bl          FUN_08002f18                            ;int FUN_08002f18(int param_1)
ram:08001b86    0028            cmp         param_1,#0x0                            
ram:08001b88    01d0            beq         LAB_08001b8e                            
                            LAB_08001b8a:                 ;XREF[3,0]:   08001b6a,08001b74,08001b7e
ram:08001b8a    1420            movs        param_1,#0x14                           
ram:08001b8c    3062            str         param_1,[r6,#offset DAT_20000120 &0xff] 
                            LAB_08001b8e:                 ;XREF[2,0]:   08001b60,08001b88
ram:08001b8e    b807            lsls        param_1,r7,#0x1e                        
ram:08001b90    bf4f            ldr         r7,[DAT_08001e90]                       ;= 20000204h
ram:08001b92    0fd5            bpl         LAB_08001bb4                            
ram:08001b94    bf48            ldr         param_1,[DAT_08001e94]                  ;= 20000130h
ram:08001b96    8078            ldrb        param_1,[param_1,#0x2]=>DAT_20000132    
ram:08001b98    8007            lsls        param_1,param_1,#0x1e                   
ram:08001b9a    0bd4            bmi         LAB_08001bb4                            
ram:08001b9c    3868            ldr         param_1,[r7,#0x0]=>DAT_20000204         
ram:08001b9e    0028            cmp         param_1,#0x0                            
ram:08001ba0    02d0            beq         LAB_08001ba8                            
ram:08001ba2    0020            movs        param_1,#0x0                            
ram:08001ba4    3860            str         param_1,[r7,#0x0]=>DAT_20000204         
ram:08001ba6    03e0            b           LAB_08001bb0                            
                            LAB_08001ba8:                 ;XREF[1,0]:   08001ba0
ram:08001ba8    0020            movs        param_1,#0x0                            
ram:08001baa    c043            mvns        param_1,param_1                         
ram:08001bac    3860            str         param_1,[r7,#0x0]=>DAT_20000204         
ram:08001bae    ba48            ldr         param_1,[DAT_08001e98]                  ;= 00000BB8h
                            LAB_08001bb0:                 ;XREF[1,0]:   08001ba6
ram:08001bb0    f061            str         param_1,[r6,#offset DAT_2000011c &0xff] 
ram:08001bb2    05e0            b           LAB_08001bc0                            
                            LAB_08001bb4:                 ;XREF[2,0]:   08001b92,08001b9a
ram:08001bb4    f069            ldr         param_1,[r6,#offset DAT_2000011c &0xff] 
ram:08001bb6    0128            cmp         param_1,#0x1                            
ram:08001bb8    02d1            bne         LAB_08001bc0                            
ram:08001bba    0020            movs        param_1,#0x0                            
ram:08001bbc    3860            str         param_1,[r7,#0x0]=>DAT_20000204         
ram:08001bbe    f061            str         param_1,[r6,#offset DAT_2000011c &0xff] 
                            LAB_08001bc0:                 ;XREF[2,0]:   08001bb2,08001bb8
ram:08001bc0    b079            ldrb        param_1,[r6,#offset DAT_20000106 &0xff] 
ram:08001bc2    0228            cmp         param_1,#0x2                            
ram:08001bc4    09d1            bne         LAB_08001bda                            
ram:08001bc6    3868            ldr         param_1,[r7,#0x0]=>DAT_20000204         
ram:08001bc8    0028            cmp         param_1,#0x0                            
ram:08001bca    01d0            beq         LAB_08001bd0                            
ram:08001bcc    0121            movs        param_2,#0x1                            
ram:08001bce    00e0            b           LAB_08001bd2                            
                            LAB_08001bd0:                 ;XREF[1,0]:   08001bca
ram:08001bd0    0021            movs        param_2,#0x0                            
                            LAB_08001bd2:                 ;XREF[1,0]:   08001bce
ram:08001bd2    0120            movs        param_1,#0x1                            
ram:08001bd4    4004            lsls        param_1,param_1,#0x11                   
ram:08001bd6    02f0dffe        bl          FUN_08004998                            ;undefined FUN_08004998(uint param_1,...
                            LAB_08001bda:                 ;XREF[1,0]:   08001bc4
ram:08001bda    0198            ldr         param_1,[sp,#local_24+0x28]             
ram:08001bdc    0007            lsls        param_1,param_1,#0x1c                   
ram:08001bde    17d5            bpl         LAB_08001c10                            
ram:08001be0    706c            ldr         param_1,[r6,#offset DAT_20000144 &0xff] 
ram:08001be2    0128            cmp         param_1,#0x1                            
ram:08001be4    16d1            bne         LAB_08001c14                            
ram:08001be6    0020            movs        param_1,#0x0                            
ram:08001be8    7064            str         param_1,[r6,#offset DAT_20000144 &0xff] 
ram:08001bea    f178            ldrb        param_2,[r6,#offset DAT_20000103 &0xff] 
ram:08001bec    0029            cmp         param_2,#0x0                            
ram:08001bee    00d1            bne         LAB_08001bf2                            
ram:08001bf0    401e            subs        param_1,param_1,#0x1                    
                            LAB_08001bf2:                 ;XREF[1,0]:   08001bee
ram:08001bf2    f070            strb        param_1,[r6,#offset DAT_20000103 &0xff] 
ram:08001bf4    0122            movs        r2,#0x1                                 
ram:08001bf6    a949            ldr         param_2=>DAT_20000103,[DAT_08001e9c]    ;= 20000103h
ram:08001bf8    a948            ldr         param_1,[DAT_08001ea0]                  ;= 00000001h
ram:08001bfa    01f0d4fa        bl          FUN_080031a6                            ;undefined FUN_080031a6(uint param_1,...
ram:08001bfe    0120            movs        param_1,#0x1                            
ram:08001c00    03f0aaf9        bl          FUN_08004f58                            ;undefined FUN_08004f58(undefined4 pa...
ram:08001c04    0820            movs        param_1,#0x8                            
ram:08001c06    3070            strb        param_1,[r6,#0x0]=>DAT_20000100         
ram:08001c08    a048            ldr         param_1,[DAT_08001e8c]                  ;= 20000224h
ram:08001c0a    0221            movs        param_2,#0x2                            
ram:08001c0c    0160            str         param_2,[param_1,#0x0]=>DAT_20000224    
ram:08001c0e    01e0            b           LAB_08001c14                            
                            LAB_08001c10:                 ;XREF[1,0]:   08001bde
ram:08001c10    3220            movs        param_1,#0x32                           
ram:08001c12    7064            str         param_1,[r6,#offset DAT_20000144 &0xff] 
                            LAB_08001c14:                 ;XREF[2,0]:   08001be4,08001c0e
ram:08001c14    f078            ldrb        param_1,[r6,#offset DAT_20000103 &0xff] 
ram:08001c16    0028            cmp         param_1,#0x0                            
ram:08001c18    01d0            beq         LAB_08001c1e                            
ram:08001c1a    0121            movs        param_2,#0x1                            
ram:08001c1c    00e0            b           LAB_08001c20                            
                            LAB_08001c1e:                 ;XREF[1,0]:   08001c18
ram:08001c1e    0021            movs        param_2,#0x0                            
                            LAB_08001c20:                 ;XREF[1,0]:   08001c1c
ram:08001c20    0120            movs        param_1,#0x1                            
ram:08001c22    8006            lsls        param_1,param_1,#0x1a                   
ram:08001c24    02f0b8fe        bl          FUN_08004998                            ;undefined FUN_08004998(uint param_1,...
ram:08001c28    f06a            ldr         param_1,[r6,#offset DAT_2000012c &0xff] 
ram:08001c2a    0028            cmp         param_1,#0x0                            
ram:08001c2c    06d1            bne         LAB_08001c3c                            
ram:08001c2e    3079            ldrb        param_1,[r6,#offset DAT_20000104 &0xff] 
ram:08001c30    0428            cmp         param_1,#0x4                            
ram:08001c32    01d1            bne         LAB_08001c38                            
ram:08001c34    0020            movs        param_1,#0x0                            
ram:08001c36    3860            str         param_1,[r7,#0x0]=>DAT_20000204         
                            LAB_08001c38:                 ;XREF[1,0]:   08001c32
ram:08001c38    0020            movs        param_1,#0x0                            
ram:08001c3a    3071            strb        param_1,[r6,#offset DAT_20000104 &0xff] 
                            LAB_08001c3c:                 ;XREF[1,0]:   08001c2c
ram:08001c3c    f078            ldrb        param_1,[r6,#offset DAT_20000103 &0xff] 
ram:08001c3e    0028            cmp         param_1,#0x0                            
ram:08001c40    23d0            beq         LAB_08001c8a                            
ram:08001c42    0023            movs        r3,#0x0                                 
ram:08001c44    7362            str         r3,[r6,#offset DAT_20000124 &0xff]      
ram:08001c46    9748            ldr         param_1,[DAT_08001ea4]                  ;= 20000146h
ram:08001c48    9749            ldr         param_2,[DAT_08001ea8]                  ;= FFFF8000h
ram:08001c4a    0222            movs        r2,#0x2                                 
                            LAB_08001c4c:                 ;XREF[1,0]:   08001c54
                                                          ; FWD[2,0]:   20000148,2000014c
ram:08001c4c    4180            strh        param_2,[param_1,#0x2]=>DAT_20000148    
                                                          ; FWD[2,0]:   2000014a,2000014e
ram:08001c4e    8180            strh        param_2,[param_1,#0x4]=>DAT_2000014a    
ram:08001c50    001d            adds        param_1,param_1,#0x4                    
ram:08001c52    521e            subs        r2,r2,#0x1                              
ram:08001c54    fad1            bne         LAB_08001c4c                            
ram:08001c56    1846            mov         param_1,r3                              
ram:08001c58    3362            str         r3,[r6,#offset DAT_20000120 &0xff]      
ram:08001c5a    8b49            ldr         param_2,[DAT_08001e88]                  ;= 20000100h
ram:08001c5c    0b64            str         r3,[param_2,#offset DAT_20000140 &0xff] 
ram:08001c5e    002d            cmp         r5,#0x0                                 
ram:08001c60    0cd1            bne         LAB_08001c7c                            
ram:08001c62    2104            lsls        param_2,r4,#0x10                        
ram:08001c64    090e            lsrs        param_2,param_2,#0x18                   
ram:08001c66    ca06            lsls        r2,param_2,#0x1b                        
ram:08001c68    08d4            bmi         LAB_08001c7c                            
ram:08001c6a    8a06            lsls        r2,param_2,#0x1a                        
ram:08001c6c    06d4            bmi         LAB_08001c7c                            
ram:08001c6e    4a06            lsls        r2,param_2,#0x19                        
ram:08001c70    04d4            bmi         LAB_08001c7c                            
ram:08001c72    c909            lsrs        param_2,param_2,#0x7                    
ram:08001c74    02d1            bne         LAB_08001c7c                            
ram:08001c76    0199            ldr         param_2,[sp,#local_24+0x28]             
ram:08001c78    c906            lsls        param_2,param_2,#0x1b                   
ram:08001c7a    05d5            bpl         LAB_08001c88                            
                            LAB_08001c7c:                 ;XREF[5,0]:   08001c60,08001c68,08001c6c,08001c70
                                                          ;             08001c74
ram:08001c7c    8b49            ldr         param_2,[DAT_08001eac]                  ;= 20000134h
ram:08001c7e    0968            ldr         param_2,[param_2,#0x0]=>DAT_20000134    
ram:08001c80    0029            cmp         param_2,#0x0                            
ram:08001c82    01d1            bne         LAB_08001c88                            
ram:08001c84    0421            movs        param_2,#0x4                            
ram:08001c86    3170            strb        param_2,[r6,#0x0]=>DAT_20000100         
                            LAB_08001c88:                 ;XREF[2,0]:   08001c7a,08001c82
ram:08001c88    0546            mov         r5,param_1                              
                            LAB_08001c8a:                 ;XREF[1,0]:   08001c40
ram:08001c8a    8948            ldr         param_1,[DAT_08001eb0]                  ;= 20000170h
ram:08001c8c    0068            ldr         param_1,[param_1,#0x0]=>DAT_20000170    
ram:08001c8e    0028            cmp         param_1,#0x0                            
ram:08001c90    02d0            beq         LAB_08001c98                            
ram:08001c92    306a            ldr         param_1,[r6,#offset DAT_20000120 &0xff] 
ram:08001c94    0028            cmp         param_1,#0x0                            
ram:08001c96    02d0            beq         LAB_08001c9e                            
                            LAB_08001c98:                 ;XREF[1,0]:   08001c90
ram:08001c98    5520            movs        param_1,#0x55                           
ram:08001c9a    4002            lsls        param_1,param_1,#0x9                    
ram:08001c9c    0543            orrs        r5,param_1                              
                            LAB_08001c9e:                 ;XREF[1,0]:   08001c96
ram:08001c9e    0924            movs        r4,#0x9                                 
ram:08001ca0    0121            movs        param_2,#0x1                            
ram:08001ca2    e406            lsls        r4,r4,#0x1b                             
ram:08001ca4    8902            lsls        param_2,param_2,#0xa                    
ram:08001ca6    2046            mov         param_1=>DAT_48000000,r4                
ram:08001ca8    02f003fa        bl          FUN_080040b2                            ;bool FUN_080040b2(int param_1, ushor...
ram:08001cac    0028            cmp         param_1,#0x0                            
ram:08001cae    04d0            beq         LAB_08001cba                            
ram:08001cb0    e805            lsls        param_1,r5,#0x17                        
ram:08001cb2    02d4            bmi         LAB_08001cba                            
ram:08001cb4    7f49            ldr         param_2,[DAT_08001eb4]                  ;= 20000294h
ram:08001cb6    6420            movs        param_1,#0x64                           
ram:08001cb8    0860            str         param_1,[param_2,#0x0]=>DAT_20000294    
                            LAB_08001cba:                 ;XREF[2,0]:   08001cae,08001cb2
ram:08001cba    0121            movs        param_2,#0x1                            
ram:08001cbc    c902            lsls        param_2,param_2,#0xb                    
ram:08001cbe    2046            mov         param_1=>DAT_48000000,r4                
ram:08001cc0    02f0f7f9        bl          FUN_080040b2                            ;bool FUN_080040b2(int param_1, ushor...
ram:08001cc4    0028            cmp         param_1,#0x0                            
ram:08001cc6    04d0            beq         LAB_08001cd2                            
ram:08001cc8    a805            lsls        param_1,r5,#0x16                        
ram:08001cca    02d4            bmi         LAB_08001cd2                            
ram:08001ccc    7949            ldr         param_2,[DAT_08001eb4]                  ;= 20000294h
ram:08001cce    6420            movs        param_1,#0x64                           
ram:08001cd0    0860            str         param_1,[param_2,#0x0]=>DAT_20000294    
                            LAB_08001cd2:                 ;XREF[2,0]:   08001cc6,08001cca
ram:08001cd2    0121            movs        param_2,#0x1                            
ram:08001cd4    0903            lsls        param_2,param_2,#0xc                    
ram:08001cd6    2046            mov         param_1=>DAT_48000000,r4                
ram:08001cd8    02f0ebf9        bl          FUN_080040b2                            ;bool FUN_080040b2(int param_1, ushor...
ram:08001cdc    0028            cmp         param_1,#0x0                            
ram:08001cde    04d0            beq         LAB_08001cea                            
ram:08001ce0    6805            lsls        param_1,r5,#0x15                        
ram:08001ce2    02d4            bmi         LAB_08001cea                            
ram:08001ce4    7349            ldr         param_2,[DAT_08001eb4]                  ;= 20000294h
ram:08001ce6    6420            movs        param_1,#0x64                           
ram:08001ce8    4860            str         param_1,[param_2,#0x4]=>DAT_20000298    
                            LAB_08001cea:                 ;XREF[2,0]:   08001cde,08001ce2
ram:08001cea    0121            movs        param_2,#0x1                            
ram:08001cec    c903            lsls        param_2,param_2,#0xf                    
ram:08001cee    2046            mov         param_1=>DAT_48000000,r4                
ram:08001cf0    02f0dff9        bl          FUN_080040b2                            ;bool FUN_080040b2(int param_1, ushor...
ram:08001cf4    0028            cmp         param_1,#0x0                            
ram:08001cf6    04d0            beq         LAB_08001d02                            
ram:08001cf8    2805            lsls        param_1,r5,#0x14                        
ram:08001cfa    02d4            bmi         LAB_08001d02                            
ram:08001cfc    6d49            ldr         param_2,[DAT_08001eb4]                  ;= 20000294h
ram:08001cfe    6420            movs        param_1,#0x64                           
ram:08001d00    4860            str         param_1,[param_2,#0x4]=>DAT_20000298    
                            LAB_08001d02:                 ;XREF[2,0]:   08001cf6,08001cfa
ram:08001d02    6d4c            ldr         r4,[DAT_08001eb8]                       ;= 48000400h
ram:08001d04    1021            movs        param_2,#0x10                           
ram:08001d06    2046            mov         param_1=>DAT_48000400,r4                
ram:08001d08    02f0d3f9        bl          FUN_080040b2                            ;bool FUN_080040b2(int param_1, ushor...
ram:08001d0c    0028            cmp         param_1,#0x0                            
ram:08001d0e    04d0            beq         LAB_08001d1a                            
ram:08001d10    e804            lsls        param_1,r5,#0x13                        
ram:08001d12    02d4            bmi         LAB_08001d1a                            
ram:08001d14    6748            ldr         param_1,[DAT_08001eb4]                  ;= 20000294h
ram:08001d16    6421            movs        param_2,#0x64                           
ram:08001d18    8160            str         param_2,[param_1,#0x8]=>DAT_2000029c    
                            LAB_08001d1a:                 ;XREF[2,0]:   08001d0e,08001d12
ram:08001d1a    2021            movs        param_2,#0x20                           
ram:08001d1c    2046            mov         param_1=>DAT_48000400,r4                
ram:08001d1e    02f0c8f9        bl          FUN_080040b2                            ;bool FUN_080040b2(int param_1, ushor...
ram:08001d22    0028            cmp         param_1,#0x0                            
ram:08001d24    04d0            beq         LAB_08001d30                            
ram:08001d26    a804            lsls        param_1,r5,#0x12                        
ram:08001d28    02d4            bmi         LAB_08001d30                            
ram:08001d2a    6249            ldr         param_2,[DAT_08001eb4]                  ;= 20000294h
ram:08001d2c    6420            movs        param_1,#0x64                           
ram:08001d2e    8860            str         param_1,[param_2,#0x8]=>DAT_2000029c    
                            LAB_08001d30:                 ;XREF[2,0]:   08001d24,08001d28
ram:08001d30    0121            movs        param_2,#0x1                            
ram:08001d32    8902            lsls        param_2,param_2,#0xa                    
ram:08001d34    2046            mov         param_1=>DAT_48000400,r4                
ram:08001d36    02f0bcf9        bl          FUN_080040b2                            ;bool FUN_080040b2(int param_1, ushor...
ram:08001d3a    0028            cmp         param_1,#0x0                            
ram:08001d3c    04d0            beq         LAB_08001d48                            
ram:08001d3e    6804            lsls        param_1,r5,#0x11                        
ram:08001d40    02d4            bmi         LAB_08001d48                            
ram:08001d42    5c49            ldr         param_2,[DAT_08001eb4]                  ;= 20000294h
ram:08001d44    6420            movs        param_1,#0x64                           
ram:08001d46    c860            str         param_1,[param_2,#0xc]=>DAT_200002a0    
                            LAB_08001d48:                 ;XREF[2,0]:   08001d3c,08001d40
ram:08001d48    0121            movs        param_2,#0x1                            
ram:08001d4a    c902            lsls        param_2,param_2,#0xb                    
ram:08001d4c    2046            mov         param_1=>DAT_48000400,r4                
ram:08001d4e    02f0b0f9        bl          FUN_080040b2                            ;bool FUN_080040b2(int param_1, ushor...
ram:08001d52    0028            cmp         param_1,#0x0                            
ram:08001d54    04d0            beq         LAB_08001d60                            
ram:08001d56    e80b            lsrs        param_1,r5,#0xf                         
ram:08001d58    02d1            bne         LAB_08001d60                            
ram:08001d5a    5649            ldr         param_2,[DAT_08001eb4]                  ;= 20000294h
ram:08001d5c    6420            movs        param_1,#0x64                           
ram:08001d5e    c860            str         param_1,[param_2,#0xc]=>DAT_200002a0    
                            LAB_08001d60:                 ;XREF[2,0]:   08001d54,08001d58
ram:08001d60    5448            ldr         param_1,[DAT_08001eb4]                  ;= 20000294h
ram:08001d62    0168            ldr         param_2,[param_1,#0x0]=>DAT_20000294    
ram:08001d64    0029            cmp         param_2,#0x0                            
ram:08001d66    02d0            beq         LAB_08001d6e                            
ram:08001d68    0321            movs        param_2,#0x3                            
ram:08001d6a    0902            lsls        param_2,param_2,#0x8                    
ram:08001d6c    8d43            bics        r5,param_2                              
                            LAB_08001d6e:                 ;XREF[1,0]:   08001d66
ram:08001d6e    4168            ldr         param_2,[param_1,#0x4]=>DAT_20000298    
ram:08001d70    0029            cmp         param_2,#0x0                            
ram:08001d72    02d0            beq         LAB_08001d7a                            
ram:08001d74    0321            movs        param_2,#0x3                            
ram:08001d76    8902            lsls        param_2,param_2,#0xa                    
ram:08001d78    8d43            bics        r5,param_2                              
                            LAB_08001d7a:                 ;XREF[1,0]:   08001d72
ram:08001d7a    8168            ldr         param_2,[param_1,#0x8]=>DAT_2000029c    
ram:08001d7c    0029            cmp         param_2,#0x0                            
ram:08001d7e    02d0            beq         LAB_08001d86                            
ram:08001d80    0321            movs        param_2,#0x3                            
ram:08001d82    0903            lsls        param_2,param_2,#0xc                    
ram:08001d84    8d43            bics        r5,param_2                              
                            LAB_08001d86:                 ;XREF[1,0]:   08001d7e
ram:08001d86    c068            ldr         param_1,[param_1,#0xc]=>DAT_200002a0    
ram:08001d88    0028            cmp         param_1,#0x0                            
ram:08001d8a    01d0            beq         LAB_08001d90                            
ram:08001d8c    ad04            lsls        r5,r5,#0x12                             
ram:08001d8e    ad0c            lsrs        r5,r5,#0x12                             
                            LAB_08001d90:                 ;XREF[1,0]:   08001d8a
ram:08001d90    4049            ldr         param_2,[DAT_08001e94]                  ;= 20000130h
ram:08001d92    0498            ldr         param_1,[sp,#local_18+0x28]             
ram:08001d94    0860            str         param_1,[param_2,#0x0]=>DAT_20000130    
ram:08001d96    091d            adds        param_2,param_2,#0x4                    
ram:08001d98    0098            ldr         param_1,[sp,#0x0]=>local_28             
ram:08001d9a    0860            str         param_1,[param_2,#0x0]=>DAT_20000134    
ram:08001d9c    3078            ldrb        param_1,[r6,#0x0]=>DAT_20000100         
ram:08001d9e    0028            cmp         param_1,#0x0                            
ram:08001da0    b079            ldrb        param_1,[r6,#offset DAT_20000106 &0xff] 
ram:08001da2    12d0            beq         LAB_08001dca                            
ram:08001da4    0228            cmp         param_1,#0x2                            
ram:08001da6    04d1            bne         LAB_08001db2                            
ram:08001da8    3868            ldr         param_1,[r7,#0x0]=>DAT_20000204         
ram:08001daa    0028            cmp         param_1,#0x0                            
ram:08001dac    00d0            beq         LAB_08001db0                            
ram:08001dae    0120            movs        param_1,#0x1                            
                            LAB_08001db0:                 ;XREF[1,0]:   08001dac
ram:08001db0    b071            strb        param_1,[r6,#offset DAT_20000106 &0xff] 
                            LAB_08001db2:                 ;XREF[1,0]:   08001da6
ram:08001db2    3078            ldrb        param_1,[r6,#0x0]=>DAT_20000100         
ram:08001db4    8107            lsls        param_2,param_1,#0x1e                   
ram:08001db6    0020            movs        param_1,#0x0                            
ram:08001db8    c043            mvns        param_1,param_1                         
ram:08001dba    8207            lsls        r2,param_1,#0x1e                        
ram:08001dbc    d142            cmn         param_2,r2                              
ram:08001dbe    01d5            bpl         LAB_08001dc4                            
ram:08001dc0    3860            str         param_1,[r7,#0x0]=>DAT_20000204         
ram:08001dc2    0be0            b           LAB_08001ddc                            
                            LAB_08001dc4:                 ;XREF[1,0]:   08001dbe
ram:08001dc4    0020            movs        param_1,#0x0                            
ram:08001dc6    3860            str         param_1,[r7,#0x0]=>DAT_20000204         
ram:08001dc8    08e0            b           LAB_08001ddc                            
                            LAB_08001dca:                 ;XREF[1,0]:   08001da2
ram:08001dca    0228            cmp         param_1,#0x2                            
ram:08001dcc    06d0            beq         LAB_08001ddc                            
ram:08001dce    0028            cmp         param_1,#0x0                            
ram:08001dd0    01d0            beq         LAB_08001dd6                            
ram:08001dd2    0020            movs        param_1,#0x0                            
ram:08001dd4    c043            mvns        param_1,param_1                         
                            LAB_08001dd6:                 ;XREF[1,0]:   08001dd0
ram:08001dd6    3860            str         param_1,[r7,#0x0]=>DAT_20000204         
ram:08001dd8    0220            movs        param_1,#0x2                            
ram:08001dda    b071            strb        param_1,[r6,#offset DAT_20000106 &0xff] 
                            LAB_08001ddc:                 ;XREF[3,0]:   08001dc2,08001dc8,08001dcc
ram:08001ddc    f06b            ldr         param_1,[r6,#offset DAT_2000013c &0xff] 
ram:08001dde    0028            cmp         param_1,#0x0                            
ram:08001de0    00d0            beq         LAB_08001de4                            
ram:08001de2    0025            movs        r5,#0x0                                 
                            LAB_08001de4:                 ;XREF[1,0]:   08001de0
ram:08001de4    274f            ldr         r7,[DAT_08001e84]                       ;= 200000D4h
ram:08001de6    354e            ldr         r6,[DAT_08001ebc]                       ;= 20000140h
ram:08001de8    0024            movs        r4,#0x0                                 
                            LAB_08001dea:                 ;XREF[1,0]:   08001e78
ram:08001dea    e805            lsls        param_1,r5,#0x17                        
ram:08001dec    08d5            bpl         LAB_08001e00                            
ram:08001dee    a805            lsls        param_1,r5,#0x16                        
ram:08001df0    0fd4            bmi         LAB_08001e12                            
ram:08001df2    ff21            movs        param_2,#0xff                           
ram:08001df4    2046            mov         param_1,r4                              
ram:08001df6    01f01af9        bl          FUN_0800302e                            ;undefined FUN_0800302e(int param_1, ...
ram:08001dfa    9620            movs        param_1,#0x96                           
ram:08001dfc    3055            strb        param_1,[r6,r4]=>DAT_20000140           
ram:08001dfe    37e0            b           LAB_08001e70                            
                            LAB_08001e00:                 ;XREF[1,0]:   08001dec
ram:08001e00    a805            lsls        param_1,r5,#0x16                        
ram:08001e02    06d5            bpl         LAB_08001e12                            
ram:08001e04    ff21            movs        param_2,#0xff                           
ram:08001e06    2046            mov         param_1,r4                              
ram:08001e08    01f02cf9        bl          FUN_08003064                            ;undefined FUN_08003064(int param_1, ...
ram:08001e0c    9620            movs        param_1,#0x96                           
ram:08001e0e    3055            strb        param_1,[r6,r4]=>DAT_20000140           
ram:08001e10    2ee0            b           LAB_08001e70                            
                            LAB_08001e12:                 ;XREF[2,0]:   08001df0,08001e02
ram:08001e12    3868            ldr         param_1,[r7,#0x0]=>DAT_200000d4         
ram:08001e14    0028            cmp         param_1,#0x0                            
ram:08001e16    27d0            beq         LAB_08001e68                            
ram:08001e18    1b48            ldr         param_1,[DAT_08001e88]                  ;= 20000100h
ram:08001e1a    c068            ldr         param_1,[param_1,#offset DAT_2000010c...
ram:08001e1c    0028            cmp         param_1,#0x0                            
ram:08001e1e    23d0            beq         LAB_08001e68                            
ram:08001e20    305d            ldrb        param_1,[r6,r4]=>DAT_20000140           
ram:08001e22    0028            cmp         param_1,#0x0                            
ram:08001e24    20d0            beq         LAB_08001e68                            
ram:08001e26    6000            lsls        param_1,r4,#0x1                         
ram:08001e28    2549            ldr         param_2,[DAT_08001ec0]                  ;= 2000019Ah
ram:08001e2a    0090            str         param_1,[sp,#0x0]=>local_28             
ram:08001e2c    095a            ldrh        param_2,[param_2,param_1]=>DAT_2000019a 
ram:08001e2e    2548            ldr         param_1,[DAT_08001ec4]                  ;= 00007FFFh
ram:08001e30    8142            cmp         param_2,param_1                         
ram:08001e32    19d2            bcs         LAB_08001e68                            
ram:08001e34    2448            ldr         param_1,[DAT_08001ec8]                  ;= 200001A6h
ram:08001e36    005d            ldrb        param_1,[param_1,r4]=>DAT_200001a6      
ram:08001e38    0128            cmp         param_1,#0x1                            
ram:08001e3a    08d1            bne         LAB_08001e4e                            
ram:08001e3c    2046            mov         param_1,r4                              
ram:08001e3e    01f06bf8        bl          FUN_08002f18                            ;int FUN_08002f18(int param_1)
ram:08001e42    224a            ldr         r2=>DAT_200000f8,[DAT_08001ecc]         ;= 200000F8h
ram:08001e44    0099            ldr         param_2,[sp,#0x0]=>local_28             
ram:08001e46    1438            subs        param_1,#0x14                           
ram:08001e48    515e            ldrsh       param_2,[r2,param_2]=>DAT_200000f8      
ram:08001e4a    8842            cmp         param_1,param_2                         
ram:08001e4c    10dc            bgt         LAB_08001e70                            
                            LAB_08001e4e:                 ;XREF[1,0]:   08001e3a
ram:08001e4e    1e48            ldr         param_1,[DAT_08001ec8]                  ;= 200001A6h
ram:08001e50    005d            ldrb        param_1,[param_1,r4]=>DAT_200001a6      
ram:08001e52    0228            cmp         param_1,#0x2                            
ram:08001e54    08d1            bne         LAB_08001e68                            
ram:08001e56    2046            mov         param_1,r4                              
ram:08001e58    01f05ef8        bl          FUN_08002f18                            ;int FUN_08002f18(int param_1)
ram:08001e5c    1b4a            ldr         r2=>DAT_200000f8,[DAT_08001ecc]         ;= 200000F8h
ram:08001e5e    0099            ldr         param_2,[sp,#0x0]=>local_28             
ram:08001e60    1430            adds        param_1,#0x14                           
ram:08001e62    515e            ldrsh       param_2,[r2,param_2]=>DAT_200000f8      
ram:08001e64    8842            cmp         param_1,param_2                         
ram:08001e66    03db            blt         LAB_08001e70                            
                            LAB_08001e68:                 ;XREF[5,0]:   08001e16,08001e1e,08001e24,08001e32
                                                          ;             08001e54
ram:08001e68    0021            movs        param_2,#0x0                            
ram:08001e6a    2046            mov         param_1,r4                              
ram:08001e6c    01f0faf8        bl          FUN_08003064                            ;undefined FUN_08003064(int param_1, ...
                            LAB_08001e70:                 ;XREF[4,0]:   08001dfe,08001e10,08001e4c,08001e66
ram:08001e70    641c            adds        r4,r4,#0x1                              
ram:08001e72    ad08            lsrs        r5,r5,#0x2                              
ram:08001e74    e4b2            uxtb        r4,r4                                   
ram:08001e76    042c            cmp         r4,#0x4                                 
ram:08001e78    b7d3            bcc         LAB_08001dea                            
ram:08001e7a    05b0            add         sp,#0x14                                
ram:08001e7c    f0bd            pop         {r4,r5,r6,r7,pc}                        
ram:08001e7e    0000            movs        r0,r0                                   
                            DAT_08001e80:                 ;XREF[6,0]:   08001a82,08001a8e,08001a96,08001aae
                                                          ;             08001aba,08001aca
ram:08001e80    b4020020        undefined4  200002B4h                               
                            DAT_08001e84:                 ;XREF[2,0]:   08001ad8,08001de4
ram:08001e84    d4000020        undefined4  200000D4h                               
                            DAT_08001e88:                 ;XREF[7,0]:   08001ae8,08001afc,08001b20,08001b48
                                                          ;             08001b52,08001c5a,08001e18
ram:08001e88    00010020        undefined4  20000100h                               
                            DAT_08001e8c:                 ;XREF[2,0]:   08001b1a,08001c08
ram:08001e8c    24020020        undefined4  20000224h                               
                            DAT_08001e90:                 ;XREF[1,0]:   08001b90
ram:08001e90    04020020        undefined4  20000204h                               
                            DAT_08001e94:                 ;XREF[2,0]:   08001b94,08001d90
ram:08001e94    30010020        undefined4  20000130h                               
                            DAT_08001e98:                 ;XREF[1,0]:   08001bae
ram:08001e98    b80b0000        undefined4  00000BB8h                               
                            DAT_08001e9c:                 ;XREF[1,0]:   08001bf6
ram:08001e9c    03010020        undefined4  20000103h                               
                            DAT_08001ea0:                 ;XREF[1,0]:   08001bf8
ram:08001ea0    01000000        undefined4  00000001h                               
                            DAT_08001ea4:                 ;XREF[1,0]:   08001c46
ram:08001ea4    46010020        undefined4  20000146h                               
                            DAT_08001ea8:                 ;XREF[1,0]:   08001c48
ram:08001ea8    0080ffff        undefined4  FFFF8000h                               
                            DAT_08001eac:                 ;XREF[1,0]:   08001c7c
ram:08001eac    34010020        undefined4  20000134h                               
                            DAT_08001eb0:                 ;XREF[1,0]:   08001c8a
ram:08001eb0    70010020        undefined4  20000170h                               
                            DAT_08001eb4:                 ;XREF[9,0]:   08001cb4,08001ccc,08001ce4,08001cfc
                                                          ;             08001d14,08001d2a,08001d42,08001d5a
                                                          ;             08001d60
ram:08001eb4    94020020        undefined4  20000294h                               
                            DAT_08001eb8:                 ;XREF[1,0]:   08001d02
ram:08001eb8    00040048        undefined4  48000400h                               
                            DAT_08001ebc:                 ;XREF[1,0]:   08001de6
ram:08001ebc    40010020        undefined4  20000140h                               
                            DAT_08001ec0:                 ;XREF[1,0]:   08001e28
ram:08001ec0    9a010020        undefined4  2000019Ah                               
                            DAT_08001ec4:                 ;XREF[1,0]:   08001e2e
ram:08001ec4    ff7f0000        undefined4  00007FFFh                               
                            DAT_08001ec8:                 ;XREF[2,0]:   08001e34,08001e4e
ram:08001ec8    a6010020        undefined4  200001A6h                               
                            DAT_08001ecc:                 ;XREF[2,0]:   08001e42,08001e5c
ram:08001ecc    f8000020        undefined4  200000F8h                               
                            ;************************************************************************************************
                            ;*                                           FUNCTION                                           *
                            ;************************************************************************************************
                            ;undefined FUN_08001ed0(void)
                                                          ;XREF[1,0]:   08004ec8
ram:08001ed0    10b5            push        {r4,lr}                                 
ram:08001ed2    5249            ldr         r1,[DAT_0800201c]                       ;= 20000294h
ram:08001ed4    0868            ldr         r0,[r1,#0x0]=>DAT_20000294              
ram:08001ed6    0028            cmp         r0,#0x0                                 
ram:08001ed8    02d0            beq         LAB_08001ee0                            
ram:08001eda    0868            ldr         r0,[r1,#0x0]=>DAT_20000294              
ram:08001edc    401e            subs        r0,r0,#0x1                              
ram:08001ede    0860            str         r0,[r1,#0x0]=>DAT_20000294              
                            LAB_08001ee0:                 ;XREF[1,0]:   08001ed8
ram:08001ee0    4f48            ldr         r0,[DAT_08002020]                       ;= 20000140h
ram:08001ee2    0278            ldrb        r2,[r0,#0x0]=>DAT_20000140              
ram:08001ee4    002a            cmp         r2,#0x0                                 
ram:08001ee6    02d0            beq         LAB_08001eee                            
ram:08001ee8    0278            ldrb        r2,[r0,#0x0]=>DAT_20000140              
ram:08001eea    521e            subs        r2,r2,#0x1                              
ram:08001eec    0270            strb        r2,[r0,#0x0]=>DAT_20000140              
                            LAB_08001eee:                 ;XREF[1,0]:   08001ee6
ram:08001eee    4a68            ldr         r2,[r1,#0x4]=>DAT_20000298              
ram:08001ef0    002a            cmp         r2,#0x0                                 
ram:08001ef2    02d0            beq         LAB_08001efa                            
ram:08001ef4    4a68            ldr         r2,[r1,#0x4]=>DAT_20000298              
ram:08001ef6    521e            subs        r2,r2,#0x1                              
ram:08001ef8    4a60            str         r2,[r1,#0x4]=>DAT_20000298              
                            LAB_08001efa:                 ;XREF[1,0]:   08001ef2
ram:08001efa    4278            ldrb        r2,[r0,#0x1]=>DAT_20000141              
ram:08001efc    002a            cmp         r2,#0x0                                 
ram:08001efe    02d0            beq         LAB_08001f06                            
ram:08001f00    4278            ldrb        r2,[r0,#0x1]=>DAT_20000141              
ram:08001f02    521e            subs        r2,r2,#0x1                              
ram:08001f04    4270            strb        r2,[r0,#0x1]=>DAT_20000141              
                            LAB_08001f06:                 ;XREF[1,0]:   08001efe
ram:08001f06    8a68            ldr         r2,[r1,#0x8]=>DAT_2000029c              
ram:08001f08    002a            cmp         r2,#0x0                                 
ram:08001f0a    02d0            beq         LAB_08001f12                            
ram:08001f0c    8a68            ldr         r2,[r1,#0x8]=>DAT_2000029c              
ram:08001f0e    521e            subs        r2,r2,#0x1                              
ram:08001f10    8a60            str         r2,[r1,#0x8]=>DAT_2000029c              
                            LAB_08001f12:                 ;XREF[1,0]:   08001f0a
ram:08001f12    8278            ldrb        r2,[r0,#0x2]=>DAT_20000142              
ram:08001f14    002a            cmp         r2,#0x0                                 
ram:08001f16    02d0            beq         LAB_08001f1e                            
ram:08001f18    8278            ldrb        r2,[r0,#0x2]=>DAT_20000142              
ram:08001f1a    521e            subs        r2,r2,#0x1                              
ram:08001f1c    8270            strb        r2,[r0,#0x2]=>DAT_20000142              
                            LAB_08001f1e:                 ;XREF[1,0]:   08001f16
ram:08001f1e    ca68            ldr         r2,[r1,#0xc]=>DAT_200002a0              
ram:08001f20    002a            cmp         r2,#0x0                                 
ram:08001f22    02d0            beq         LAB_08001f2a                            
ram:08001f24    ca68            ldr         r2,[r1,#0xc]=>DAT_200002a0              
ram:08001f26    521e            subs        r2,r2,#0x1                              
ram:08001f28    ca60            str         r2,[r1,#0xc]=>DAT_200002a0              
                            LAB_08001f2a:                 ;XREF[1,0]:   08001f22
ram:08001f2a    c178            ldrb        r1,[r0,#0x3]=>DAT_20000143              
ram:08001f2c    0029            cmp         r1,#0x0                                 
ram:08001f2e    02d0            beq         LAB_08001f36                            
ram:08001f30    c178            ldrb        r1,[r0,#0x3]=>DAT_20000143              
ram:08001f32    491e            subs        r1,r1,#0x1                              
ram:08001f34    c170            strb        r1,[r0,#0x3]=>DAT_20000143              
                            LAB_08001f36:                 ;XREF[1,0]:   08001f2e
ram:08001f36    3b48            ldr         r0,[DAT_08002024]                       ;= 20000100h
ram:08001f38    c16a            ldr         r1,[r0,#offset DAT_2000012c &0xff]      
ram:08001f3a    0029            cmp         r1,#0x0                                 
ram:08001f3c    02d0            beq         LAB_08001f44                            
ram:08001f3e    c16a            ldr         r1,[r0,#offset DAT_2000012c &0xff]      
ram:08001f40    491e            subs        r1,r1,#0x1                              
ram:08001f42    c162            str         r1,[r0,#offset DAT_2000012c &0xff]      
                            LAB_08001f44:                 ;XREF[1,0]:   08001f3c
ram:08001f44    016a            ldr         r1,[r0,#offset DAT_20000120 &0xff]      
ram:08001f46    0029            cmp         r1,#0x0                                 
ram:08001f48    02d0            beq         LAB_08001f50                            
ram:08001f4a    016a            ldr         r1,[r0,#offset DAT_20000120 &0xff]      
ram:08001f4c    491e            subs        r1,r1,#0x1                              
ram:08001f4e    0162            str         r1,[r0,#offset DAT_20000120 &0xff]      
                            LAB_08001f50:                 ;XREF[1,0]:   08001f48
ram:08001f50    416a            ldr         r1,[r0,#offset DAT_20000124 &0xff]      
ram:08001f52    0029            cmp         r1,#0x0                                 
ram:08001f54    02d0            beq         LAB_08001f5c                            
ram:08001f56    416a            ldr         r1,[r0,#offset DAT_20000124 &0xff]      
ram:08001f58    491e            subs        r1,r1,#0x1                              
ram:08001f5a    4162            str         r1,[r0,#offset DAT_20000124 &0xff]      
                            LAB_08001f5c:                 ;XREF[1,0]:   08001f54
ram:08001f5c    c16b            ldr         r1,[r0,#offset DAT_2000013c &0xff]      
ram:08001f5e    0029            cmp         r1,#0x0                                 
ram:08001f60    01d0            beq         LAB_08001f66                            
ram:08001f62    491e            subs        r1,r1,#0x1                              
ram:08001f64    c163            str         r1,[r0,#offset DAT_2000013c &0xff]      
                            LAB_08001f66:                 ;XREF[1,0]:   08001f60
ram:08001f66    0169            ldr         r1,[r0,#offset DAT_20000110 &0xff]      
ram:08001f68    0129            cmp         r1,#0x1                                 
ram:08001f6a    02d9            bls         LAB_08001f72                            
ram:08001f6c    0169            ldr         r1,[r0,#offset DAT_20000110 &0xff]      
ram:08001f6e    491e            subs        r1,r1,#0x1                              
ram:08001f70    0161            str         r1,[r0,#offset DAT_20000110 &0xff]      
                            LAB_08001f72:                 ;XREF[1,0]:   08001f6a
ram:08001f72    2d49            ldr         r1,[DAT_08002028]                       ;= 200002A4h
ram:08001f74    0a68            ldr         r2,[r1,#0x0]=>DAT_200002a4              
ram:08001f76    002a            cmp         r2,#0x0                                 
ram:08001f78    02d0            beq         LAB_08001f80                            
ram:08001f7a    0a68            ldr         r2,[r1,#0x0]=>DAT_200002a4              
ram:08001f7c    521e            subs        r2,r2,#0x1                              
ram:08001f7e    0a60            str         r2,[r1,#0x0]=>DAT_200002a4              
                            LAB_08001f80:                 ;XREF[1,0]:   08001f78
ram:08001f80    4a68            ldr         r2,[r1,#0x4]=>DAT_200002a8              
ram:08001f82    002a            cmp         r2,#0x0                                 
ram:08001f84    02d0            beq         LAB_08001f8c                            
ram:08001f86    4a68            ldr         r2,[r1,#0x4]=>DAT_200002a8              
ram:08001f88    521e            subs        r2,r2,#0x1                              
ram:08001f8a    4a60            str         r2,[r1,#0x4]=>DAT_200002a8              
                            LAB_08001f8c:                 ;XREF[1,0]:   08001f84
ram:08001f8c    8a68            ldr         r2,[r1,#0x8]=>DAT_200002ac              
ram:08001f8e    002a            cmp         r2,#0x0                                 
ram:08001f90    02d0            beq         LAB_08001f98                            
ram:08001f92    8a68            ldr         r2,[r1,#0x8]=>DAT_200002ac              
ram:08001f94    521e            subs        r2,r2,#0x1                              
ram:08001f96    8a60            str         r2,[r1,#0x8]=>DAT_200002ac              
                            LAB_08001f98:                 ;XREF[1,0]:   08001f90
ram:08001f98    ca68            ldr         r2,[r1,#0xc]=>DAT_200002b0              
ram:08001f9a    002a            cmp         r2,#0x0                                 
ram:08001f9c    02d0            beq         LAB_08001fa4                            
ram:08001f9e    ca68            ldr         r2,[r1,#0xc]=>DAT_200002b0              
ram:08001fa0    521e            subs        r2,r2,#0x1                              
ram:08001fa2    ca60            str         r2,[r1,#0xc]=>DAT_200002b0              
                            LAB_08001fa4:                 ;XREF[1,0]:   08001f9c
ram:08001fa4    017a            ldrb        r1,[r0,#offset DAT_20000108 &0xff]      
ram:08001fa6    0029            cmp         r1,#0x0                                 
ram:08001fa8    21d1            bne         LAB_08001fee                            
ram:08001faa    0a21            movs        r1,#0xa                                 
ram:08001fac    0172            strb        r1,[r0,#offset DAT_20000108 &0xff]      
ram:08001fae    417a            ldrb        r1,[r0,#offset DAT_20000109 &0xff]      
ram:08001fb0    0129            cmp         r1,#0x1                                 
ram:08001fb2    02d9            bls         LAB_08001fba                            
ram:08001fb4    417a            ldrb        r1,[r0,#offset DAT_20000109 &0xff]      
ram:08001fb6    491e            subs        r1,r1,#0x1                              
ram:08001fb8    4172            strb        r1,[r0,#offset DAT_20000109 &0xff]      
                            LAB_08001fba:                 ;XREF[1,0]:   08001fb2
ram:08001fba    0178            ldrb        r1,[r0,#0x0]=>DAT_20000100              
ram:08001fbc    0029            cmp         r1,#0x0                                 
ram:08001fbe    02d0            beq         LAB_08001fc6                            
ram:08001fc0    0178            ldrb        r1,[r0,#0x0]=>DAT_20000100              
ram:08001fc2    491e            subs        r1,r1,#0x1                              
ram:08001fc4    0170            strb        r1,[r0,#0x0]=>DAT_20000100              
                            LAB_08001fc6:                 ;XREF[1,0]:   08001fbe
ram:08001fc6    416c            ldr         r1,[r0,#offset DAT_20000144 &0xff]      
ram:08001fc8    0129            cmp         r1,#0x1                                 
ram:08001fca    01d9            bls         LAB_08001fd0                            
ram:08001fcc    491e            subs        r1,r1,#0x1                              
ram:08001fce    4164            str         r1,[r0,#offset DAT_20000144 &0xff]      
                            LAB_08001fd0:                 ;XREF[1,0]:   08001fca
ram:08001fd0    c169            ldr         r1,[r0,#offset DAT_2000011c &0xff]      
ram:08001fd2    0129            cmp         r1,#0x1                                 
ram:08001fd4    01d9            bls         LAB_08001fda                            
ram:08001fd6    491e            subs        r1,r1,#0x1                              
ram:08001fd8    c161            str         r1,[r0,#offset DAT_2000011c &0xff]      
                            LAB_08001fda:                 ;XREF[1,0]:   08001fd4
ram:08001fda    4169            ldr         r1,[r0,#offset DAT_20000114 &0xff]      
ram:08001fdc    0029            cmp         r1,#0x0                                 
ram:08001fde    01d0            beq         LAB_08001fe4                            
ram:08001fe0    491e            subs        r1,r1,#0x1                              
ram:08001fe2    4161            str         r1,[r0,#offset DAT_20000114 &0xff]      
                            LAB_08001fe4:                 ;XREF[1,0]:   08001fde
ram:08001fe4    8169            ldr         r1,[r0,#offset DAT_20000118 &0xff]      
ram:08001fe6    0029            cmp         r1,#0x0                                 
ram:08001fe8    01d0            beq         LAB_08001fee                            
ram:08001fea    491e            subs        r1,r1,#0x1                              
ram:08001fec    8161            str         r1,[r0,#offset DAT_20000118 &0xff]      
                            LAB_08001fee:                 ;XREF[2,0]:   08001fa8,08001fe8
ram:08001fee    017a            ldrb        r1,[r0,#offset DAT_20000108 &0xff]      
ram:08001ff0    491e            subs        r1,r1,#0x1                              
ram:08001ff2    0172            strb        r1,[r0,#offset DAT_20000108 &0xff]      
ram:08001ff4    0d48            ldr         r0=>DAT_200002b4,[DAT_0800202c]         ;= 200002B4h
ram:08001ff6    0168            ldr         r1,[r0,#0x0]=>DAT_200002b4              
ram:08001ff8    0029            cmp         r1,#0x0                                 
ram:08001ffa    01dd            ble         LAB_08002000                            
ram:08001ffc    491e            subs        r1,r1,#0x1                              
ram:08001ffe    0160            str         r1,[r0,#0x0]=>DAT_200002b4              
                            LAB_08002000:                 ;XREF[1,0]:   08001ffa
ram:08002000    4168            ldr         r1,[r0,#0x4]=>DAT_200002b8              
ram:08002002    0029            cmp         r1,#0x0                                 
ram:08002004    01dd            ble         LAB_0800200a                            
ram:08002006    491e            subs        r1,r1,#0x1                              
ram:08002008    4160            str         r1,[r0,#0x4]=>DAT_200002b8              
                            LAB_0800200a:                 ;XREF[1,0]:   08002004
ram:0800200a    8168            ldr         r1,[r0,#0x8]=>DAT_200002bc              
ram:0800200c    0029            cmp         r1,#0x0                                 
ram:0800200e    01dd            ble         LAB_08002014                            
ram:08002010    491e            subs        r1,r1,#0x1                              
ram:08002012    8160            str         r1,[r0,#0x8]=>DAT_200002bc              
                            LAB_08002014:                 ;XREF[1,0]:   0800200e
ram:08002014    00f077fa        bl          FUN_08002506                            ;undefined FUN_08002506(void)
ram:08002018    10bd            pop         {r4,pc}                                 
ram:0800201a    0000            movs        r0,r0                                   
                            DAT_0800201c:                 ;XREF[1,0]:   08001ed2
ram:0800201c    94020020        undefined4  20000294h                               
                            DAT_08002020:                 ;XREF[1,0]:   08001ee0
ram:08002020    40010020        undefined4  20000140h                               
                            DAT_08002024:                 ;XREF[1,0]:   08001f36
ram:08002024    00010020        undefined4  20000100h                               
                            DAT_08002028:                 ;XREF[1,0]:   08001f72
ram:08002028    a4020020        undefined4  200002A4h                               
                            DAT_0800202c:                 ;XREF[1,0]:   08001ff4
ram:0800202c    b4020020        undefined4  200002B4h                               
                            ;************************************************************************************************
                            ;*                                           FUNCTION                                           *
                            ;************************************************************************************************
                            ;undefined FUN_08002096(uint param_1)
          ;param_1       uint                r0                      
                                                          ;XREF[3,0]:   080022a8,080022ba,080022cc
ram:08002096    30b4            push        {r4,r5}                                 
ram:08002098    e449            ldr         r1,[DAT_0800242c]                       ;= 20000150h
ram:0800209a    4a68            ldr         r2,[r1,#0x4]=>DAT_20000154              
ram:0800209c    002a            cmp         r2,#0x0                                 
ram:0800209e    01d1            bne         LAB_080020a4                            
ram:080020a0    e54a            ldr         r2,[DAT_08002438]                       ;= 0000EA60h
ram:080020a2    4a60            str         r2,[r1,#0x4]=>DAT_20000154              
                            LAB_080020a4:                 ;XREF[1,0]:   0800209e
ram:080020a4    8a68            ldr         r2,[r1,#0x8]=>DAT_20000158              
ram:080020a6    0023            movs        r3,#0x0                                 
ram:080020a8    8242            cmp         r2,param_1                              
ram:080020aa    03d0            beq         LAB_080020b4                            
ram:080020ac    0428            cmp         param_1,#0x4                            
ram:080020ae    00d2            bcs         LAB_080020b2                            
ram:080020b0    8b61            str         r3,[r1,#0x18]=>DAT_20000168             
                            LAB_080020b2:                 ;XREF[1,0]:   080020ae
ram:080020b2    8860            str         param_1,[r1,#0x8]=>DAT_20000158         
                            LAB_080020b4:                 ;XREF[1,0]:   080020aa
ram:080020b4    8869            ldr         param_1,[r1,#0x18]=>DAT_20000168        
ram:080020b6    401c            adds        param_1,param_1,#0x1                    
ram:080020b8    8861            str         param_1,[r1,#0x18]=>DAT_20000168        
ram:080020ba    0628            cmp         param_1,#0x6                            
ram:080020bc    01d3            bcc         LAB_080020c2                            
ram:080020be    8b61            str         r3,[r1,#0x18]=>DAT_20000168             
ram:080020c0    05e0            b           LAB_080020ce                            
                            LAB_080020c2:                 ;XREF[1,0]:   080020bc
ram:080020c2    0028            cmp         param_1,#0x0                            
ram:080020c4    03d0            beq         LAB_080020ce                            
ram:080020c6    0328            cmp         param_1,#0x3                            
ram:080020c8    01d2            bcs         LAB_080020ce                            
ram:080020ca    0320            movs        param_1,#0x3                            
ram:080020cc    8861            str         param_1,[r1,#0x18]=>DAT_20000168        
                            LAB_080020ce:                 ;XREF[3,0]:   080020c0,080020c4,080020c8
ram:080020ce    8869            ldr         param_1,[r1,#0x18]=>DAT_20000168        
ram:080020d0    0428            cmp         param_1,#0x4                            
ram:080020d2    01d3            bcc         LAB_080020d8                            
ram:080020d4    0622            movs        r2,#0x6                                 
ram:080020d6    101a            subs        param_1,r2,param_1                      
                            LAB_080020d8:                 ;XREF[1,0]:   080020d2
ram:080020d8    8c68            ldr         r4,[r1,#0x8]=>DAT_20000158              
ram:080020da    d44a            ldr         r2,[DAT_0800242c]                       ;= 20000150h
ram:080020dc    062c            cmp         r4,#0x6                                 
ram:080020de    07d2            bcs         switchD_080020e8::caseD_0               
ram:080020e0    2500            movs        r5,r4                                   
ram:080020e2    7d44            add         r5,pc                                   
ram:080020e4    2d79            ldrb        r5,[r5,#0x4]=>switchD_080020e8::switc...;= 2h
ram:080020e6    6d19            adds        r5,r5,r5                                
                            switchD:                      ; FWD[5,0]:   080020f0,080020f8,080020fe,08002106
                                                          ;             0800210c
ram:080020e8    af44            add         pc,r5                                   
                            switchdataD_080020ea:         ;XREF[1,0]:   080020e4
ram:080020ea    02              db          2h                                      
ram:080020eb    06              db          6h                                      
ram:080020ec    09              db          9h                                      
ram:080020ed    09              db          9h                                      
ram:080020ee    0d              db          Dh                                      
ram:080020ef    10              db          10h                                     
                            caseD_0:                      ;XREF[2,0]:   080020de,080020e8
ram:080020f0    cb60            str         r3,[r1,#0xc]=>DAT_2000015c              
ram:080020f2    1370            strb        r3,[r2,#0x0]=>DAT_20000150              
ram:080020f4    5370            strb        r3,[r2,#0x1]=>DAT_20000151              
ram:080020f6    11e0            b           LAB_0800211c                            
                            caseD_1:                      ;XREF[1,0]:   080020e8
ram:080020f8    cb60            str         r3,[r1,#0xc]=>DAT_2000015c              
ram:080020fa    1070            strb        param_1,[r2,#0x0]=>DAT_20000150         
ram:080020fc    07e0            b           LAB_0800210e                            
                            caseD_3:                      ;XREF[1,0]:   080020e8
                            caseD_2:                      
ram:080020fe    c860            str         param_1,[r1,#0xc]=>DAT_2000015c         
ram:08002100    1070            strb        param_1,[r2,#0x0]=>DAT_20000150         
ram:08002102    5070            strb        param_1,[r2,#0x1]=>DAT_20000151         
ram:08002104    04e0            b           LAB_08002110                            
                            caseD_4:                      ;XREF[1,0]:   080020e8
ram:08002106    cb60            str         r3,[r1,#0xc]=>DAT_2000015c              
ram:08002108    1070            strb        param_1,[r2,#0x0]=>DAT_20000150         
ram:0800210a    01e0            b           LAB_08002110                            
                            caseD_5:                      ;XREF[1,0]:   080020e8
ram:0800210c    cb60            str         r3,[r1,#0xc]=>DAT_2000015c              
                            LAB_0800210e:                 ;XREF[1,0]:   080020fc
ram:0800210e    5070            strb        param_1,[r2,#0x1]=>DAT_20000151         
                            LAB_08002110:                 ;XREF[2,0]:   08002104,0800210a
ram:08002110    1078            ldrb        param_1,[r2,#0x0]=>DAT_20000150         
ram:08002112    0028            cmp         param_1,#0x0                            
ram:08002114    03d1            bne         LAB_0800211e                            
ram:08002116    5078            ldrb        param_1,[r2,#0x1]=>DAT_20000151         
ram:08002118    0028            cmp         param_1,#0x0                            
ram:0800211a    00d1            bne         LAB_0800211e                            
                            LAB_0800211c:                 ;XREF[1,0]:   080020f6
ram:0800211c    4b60            str         r3,[r1,#0x4]=>DAT_20000154              
                            LAB_0800211e:                 ;XREF[2,0]:   08002114,0800211a
ram:0800211e    30bc            pop         {r4,r5}                                 
ram:08002120    7047            bx          lr                                      
                            ;************************************************************************************************
                            ;*                                           FUNCTION                                           *
                            ;************************************************************************************************
                            ;undefined FUN_08002122(void)
                                                          ;XREF[2,0]:   080014bc,08001884
ram:08002122    c248            ldr         r0=>DAT_20000150,[DAT_0800242c]         ;= 20000150h
ram:08002124    0021            movs        r1,#0x0                                 
ram:08002126    4160            str         r1,[r0,#0x4]=>DAT_20000154              
ram:08002128    8160            str         r1,[r0,#0x8]=>DAT_20000158              
ram:0800212a    0180            strh        r1,[r0,#0x0]=>DAT_20000150              
ram:0800212c    7047            bx          lr                                      
                            ;************************************************************************************************
                            ;*                                           FUNCTION                                           *
                            ;************************************************************************************************
                            ;undefined FUN_0800212e(uint param_1)
          ;param_1       uint                r0                      
          ;local_1c      undefined4         -1c                      ;XREF[2,0]:   08002148,08002418
          ;local_20      undefined4         -20                      ;XREF[2,0]:   080021fa,080022d0
                                                          ;XREF[1,0]:   08001ad4
ram:0800212e    f0b5            push        {r4,r5,r6,r7,lr}                        
ram:08002130    be49            ldr         r1,[DAT_0800242c]                       ;= 20000150h
ram:08002132    0025            movs        r5,#0x0                                 
ram:08002134    0b78            ldrb        r3,[r1,#0x0]=>DAT_20000150              
ram:08002136    4978            ldrb        r1,[r1,#0x1]=>DAT_20000151              
ram:08002138    bc4c            ldr         r4,[DAT_0800242c]                       ;= 20000150h
ram:0800213a    83b0            sub         sp,#0xc                                 
ram:0800213c    002b            cmp         r3,#0x0                                 
ram:0800213e    02d1            bne         LAB_08002146                            
ram:08002140    0029            cmp         r1,#0x0                                 
ram:08002142    00d1            bne         LAB_08002146                            
ram:08002144    e560            str         r5,[r4,#0xc]=>DAT_2000015c              
                            LAB_08002146:                 ;XREF[2,0]:   0800213e,08002142
ram:08002146    bd4a            ldr         r2,[DAT_0800243c]                       ;= 1807F3FFh
ram:08002148    0190            str         param_1,[sp,#local_1c+0x20]             
ram:0800214a    1042            tst         param_1,r2                              
ram:0800214c    04d0            beq         LAB_08002158                            
ram:0800214e    002b            cmp         r3,#0x0                                 
ram:08002150    02d1            bne         LAB_08002158                            
ram:08002152    0029            cmp         r1,#0x0                                 
ram:08002154    00d1            bne         LAB_08002158                            
ram:08002156    6560            str         r5,[r4,#0x4]=>DAT_20000154              
                            LAB_08002158:                 ;XREF[3,0]:   0800214c,08002150,08002154
ram:08002158    b94f            ldr         r7,[DAT_08002440]                       ;= 20000164h
ram:0800215a    060e            lsrs        r6,param_1,#0x18                        
ram:0800215c    ff78            ldrb        r7,[r7,#0x3]=>DAT_20000167              
ram:0800215e    7207            lsls        r2,r6,#0x1d                             
ram:08002160    bc46            mov         r12,r7                                  
ram:08002162    13d5            bpl         LAB_0800218c                            
ram:08002164    7a07            lsls        r2,r7,#0x1d                             
ram:08002166    11d4            bmi         LAB_0800218c                            
ram:08002168    a560            str         r5,[r4,#0x8]=>DAT_20000158              
ram:0800216a    e268            ldr         r2,[r4,#0xc]=>DAT_2000015c              
ram:0800216c    521c            adds        r2,r2,#0x1                              
ram:0800216e    e260            str         r2,[r4,#0xc]=>DAT_2000015c              
ram:08002170    042a            cmp         r2,#0x4                                 
ram:08002172    01d3            bcc         LAB_08002178                            
ram:08002174    e560            str         r5,[r4,#0xc]=>DAT_2000015c              
ram:08002176    09e0            b           LAB_0800218c                            
                            LAB_08002178:                 ;XREF[1,0]:   08002172
ram:08002178    ac4a            ldr         r2,[DAT_0800242c]                       ;= 20000150h
ram:0800217a    002b            cmp         r3,#0x0                                 
ram:0800217c    06d1            bne         LAB_0800218c                            
ram:0800217e    0029            cmp         r1,#0x0                                 
ram:08002180    04d1            bne         LAB_0800218c                            
ram:08002182    0221            movs        r1,#0x2                                 
ram:08002184    1170            strb        r1,[r2,#0x0]=>DAT_20000150              
ram:08002186    5170            strb        r1,[r2,#0x1]=>DAT_20000151              
ram:08002188    ab49            ldr         r1,[DAT_08002438]                       ;= 0000EA60h
ram:0800218a    6160            str         r1,[r4,#0x4]=>DAT_20000154              
                            LAB_0800218c:                 ;XREF[5,0]:   08002162,08002166,08002176,0800217c
                                                          ;             08002180
ram:0800218c    ac4a            ldr         r2,[DAT_08002440]                       ;= 20000164h
ram:0800218e    0102            lsls        r1,param_1,#0x8                         
ram:08002190    0f0e            lsrs        r7,r1,#0x18                             
ram:08002192    9278            ldrb        r2,[r2,#0x2]=>DAT_20000166              
ram:08002194    b906            lsls        r1,r7,#0x1a                             
ram:08002196    15d5            bpl         LAB_080021c4                            
ram:08002198    9106            lsls        r1,r2,#0x1a                             
ram:0800219a    13d4            bmi         LAB_080021c4                            
ram:0800219c    a560            str         r5,[r4,#0x8]=>DAT_20000158              
ram:0800219e    6168            ldr         r1,[r4,#0x4]=>DAT_20000154              
ram:080021a0    0029            cmp         r1,#0x0                                 
ram:080021a2    01d1            bne         LAB_080021a8                            
ram:080021a4    a449            ldr         r1,[DAT_08002438]                       ;= 0000EA60h
ram:080021a6    6160            str         r1,[r4,#0x4]=>DAT_20000154              
                            LAB_080021a8:                 ;XREF[1,0]:   080021a2
ram:080021a8    a049            ldr         r1,[DAT_0800242c]                       ;= 20000150h
ram:080021aa    0b78            ldrb        r3,[r1,#0x0]=>DAT_20000150              
ram:080021ac    002b            cmp         r3,#0x0                                 
ram:080021ae    02d1            bne         LAB_080021b6                            
ram:080021b0    4b78            ldrb        r3,[r1,#0x1]=>DAT_20000151              
ram:080021b2    002b            cmp         r3,#0x0                                 
ram:080021b4    02d0            beq         LAB_080021bc                            
                            LAB_080021b6:                 ;XREF[1,0]:   080021ae
ram:080021b6    0d70            strb        r5,[r1,#0x0]=>DAT_20000150              
ram:080021b8    6560            str         r5,[r4,#0x4]=>DAT_20000154              
ram:080021ba    01e0            b           LAB_080021c0                            
                            LAB_080021bc:                 ;XREF[1,0]:   080021b4
ram:080021bc    0323            movs        r3,#0x3                                 
ram:080021be    0b70            strb        r3,[r1,#0x0]=>DAT_20000150              
                            LAB_080021c0:                 ;XREF[1,0]:   080021ba
ram:080021c0    0b78            ldrb        r3,[r1,#0x0]=>DAT_20000150              
ram:080021c2    4b70            strb        r3,[r1,#0x1]=>DAT_20000151              
                            LAB_080021c4:                 ;XREF[2,0]:   08002196,0800219a
ram:080021c4    7906            lsls        r1,r7,#0x19                             
ram:080021c6    16d5            bpl         LAB_080021f6                            
ram:080021c8    5106            lsls        r1,r2,#0x19                             
ram:080021ca    14d4            bmi         LAB_080021f6                            
ram:080021cc    a560            str         r5,[r4,#0x8]=>DAT_20000158              
ram:080021ce    6168            ldr         r1,[r4,#0x4]=>DAT_20000154              
ram:080021d0    0029            cmp         r1,#0x0                                 
ram:080021d2    01d1            bne         LAB_080021d8                            
ram:080021d4    9849            ldr         r1,[DAT_08002438]                       ;= 0000EA60h
ram:080021d6    6160            str         r1,[r4,#0x4]=>DAT_20000154              
                            LAB_080021d8:                 ;XREF[1,0]:   080021d2
ram:080021d8    9449            ldr         r1,[DAT_0800242c]                       ;= 20000150h
ram:080021da    4b78            ldrb        r3,[r1,#0x1]=>DAT_20000151              
ram:080021dc    5b1c            adds        r3,r3,#0x1                              
ram:080021de    dbb2            uxtb        r3,r3                                   
ram:080021e0    4b70            strb        r3,[r1,#0x1]=>DAT_20000151              
ram:080021e2    042b            cmp         r3,#0x4                                 
ram:080021e4    00d3            bcc         LAB_080021e8                            
ram:080021e6    4d70            strb        r5,[r1,#0x1]=>DAT_20000151              
                            LAB_080021e8:                 ;XREF[1,0]:   080021e4
ram:080021e8    0b78            ldrb        r3,[r1,#0x0]=>DAT_20000150              
ram:080021ea    002b            cmp         r3,#0x0                                 
ram:080021ec    03d1            bne         LAB_080021f6                            
ram:080021ee    4978            ldrb        r1,[r1,#0x1]=>DAT_20000151              
ram:080021f0    0029            cmp         r1,#0x0                                 
ram:080021f2    00d1            bne         LAB_080021f6                            
ram:080021f4    6560            str         r5,[r4,#0x4]=>DAT_20000154              
                            LAB_080021f6:                 ;XREF[4,0]:   080021c6,080021ca,080021ec,080021f2
ram:080021f6    0004            lsls        param_1,param_1,#0x10                   
ram:080021f8    000e            lsrs        param_1,param_1,#0x18                   
ram:080021fa    0090            str         param_1,[sp,#0x0]=>local_20             
ram:080021fc    0007            lsls        param_1,param_1,#0x1c                   
ram:080021fe    18d5            bpl         LAB_08002232                            
ram:08002200    8f48            ldr         param_1,[DAT_08002440]                  ;= 20000164h
ram:08002202    4078            ldrb        param_1,[param_1,#0x1]=>DAT_20000165    
ram:08002204    0007            lsls        param_1,param_1,#0x1c                   
ram:08002206    14d4            bmi         LAB_08002232                            
ram:08002208    a560            str         r5,[r4,#0x8]=>DAT_20000158              
ram:0800220a    6068            ldr         param_1,[r4,#0x4]=>DAT_20000154         
ram:0800220c    0028            cmp         param_1,#0x0                            
ram:0800220e    01d1            bne         LAB_08002214                            
ram:08002210    8948            ldr         param_1,[DAT_08002438]                  ;= 0000EA60h
ram:08002212    6060            str         param_1,[r4,#0x4]=>DAT_20000154         
                            LAB_08002214:                 ;XREF[1,0]:   0800220e
ram:08002214    8548            ldr         param_1,[DAT_0800242c]                  ;= 20000150h
ram:08002216    0178            ldrb        r1,[param_1,#0x0]=>DAT_20000150         
ram:08002218    491c            adds        r1,r1,#0x1                              
ram:0800221a    c9b2            uxtb        r1,r1                                   
ram:0800221c    0170            strb        r1,[param_1,#0x0]=>DAT_20000150         
ram:0800221e    0429            cmp         r1,#0x4                                 
ram:08002220    01d3            bcc         LAB_08002226                            
ram:08002222    0570            strb        r5,[param_1,#0x0]=>DAT_20000150         
ram:08002224    01e0            b           LAB_0800222a                            
                            LAB_08002226:                 ;XREF[1,0]:   08002220
ram:08002226    0029            cmp         r1,#0x0                                 
ram:08002228    03d1            bne         LAB_08002232                            
                            LAB_0800222a:                 ;XREF[1,0]:   08002224
ram:0800222a    4078            ldrb        param_1,[param_1,#0x1]=>DAT_20000151    
ram:0800222c    0028            cmp         param_1,#0x0                            
ram:0800222e    00d1            bne         LAB_08002232                            
ram:08002230    6560            str         r5,[r4,#0x4]=>DAT_20000154              
                            LAB_08002232:                 ;XREF[4,0]:   080021fe,08002206,08002228,0800222e
ram:08002232    f809            lsrs        param_1,r7,#0x7                         
ram:08002234    0423            movs        r3,#0x4                                 
ram:08002236    0028            cmp         param_1,#0x0                            
ram:08002238    16d0            beq         LAB_08002268                            
ram:0800223a    d009            lsrs        param_1,r2,#0x7                         
ram:0800223c    14d1            bne         LAB_08002268                            
ram:0800223e    a560            str         r5,[r4,#0x8]=>DAT_20000158              
ram:08002240    6068            ldr         param_1,[r4,#0x4]=>DAT_20000154         
ram:08002242    0028            cmp         param_1,#0x0                            
ram:08002244    01d1            bne         LAB_0800224a                            
ram:08002246    7c48            ldr         param_1,[DAT_08002438]                  ;= 0000EA60h
ram:08002248    6060            str         param_1,[r4,#0x4]=>DAT_20000154         
                            LAB_0800224a:                 ;XREF[1,0]:   08002244
ram:0800224a    7848            ldr         param_1,[DAT_0800242c]                  ;= 20000150h
ram:0800224c    0178            ldrb        r1,[param_1,#0x0]=>DAT_20000150         
ram:0800224e    0029            cmp         r1,#0x0                                 
ram:08002250    00d1            bne         LAB_08002254                            
ram:08002252    0370            strb        r3,[param_1,#0x0]=>DAT_20000150         
                            LAB_08002254:                 ;XREF[1,0]:   08002250
ram:08002254    0178            ldrb        r1,[param_1,#0x0]=>DAT_20000150         
ram:08002256    491e            subs        r1,r1,#0x1                              
ram:08002258    0906            lsls        r1,r1,#0x18                             
ram:0800225a    090e            lsrs        r1,r1,#0x18                             
ram:0800225c    0170            strb        r1,[param_1,#0x0]=>DAT_20000150         
ram:0800225e    03d1            bne         LAB_08002268                            
ram:08002260    4078            ldrb        param_1,[param_1,#0x1]=>DAT_20000151    
ram:08002262    0028            cmp         param_1,#0x0                            
ram:08002264    00d1            bne         LAB_08002268                            
ram:08002266    6560            str         r5,[r4,#0x4]=>DAT_20000154              
                            LAB_08002268:                 ;XREF[4,0]:   08002238,0800223c,0800225e,08002264
ram:08002268    f007            lsls        param_1,r6,#0x1f                        
ram:0800226a    17d0            beq         LAB_0800229c                            
ram:0800226c    6046            mov         param_1,r12                             
ram:0800226e    c007            lsls        param_1,param_1,#0x1f                   
ram:08002270    14d1            bne         LAB_0800229c                            
ram:08002272    a560            str         r5,[r4,#0x8]=>DAT_20000158              
ram:08002274    6068            ldr         param_1,[r4,#0x4]=>DAT_20000154         
ram:08002276    0028            cmp         param_1,#0x0                            
ram:08002278    01d1            bne         LAB_0800227e                            
ram:0800227a    6f48            ldr         param_1,[DAT_08002438]                  ;= 0000EA60h
ram:0800227c    6060            str         param_1,[r4,#0x4]=>DAT_20000154         
                            LAB_0800227e:                 ;XREF[1,0]:   08002278
ram:0800227e    6b48            ldr         param_1,[DAT_0800242c]                  ;= 20000150h
ram:08002280    4178            ldrb        r1,[param_1,#0x1]=>DAT_20000151         
ram:08002282    0029            cmp         r1,#0x0                                 
ram:08002284    00d1            bne         LAB_08002288                            
ram:08002286    4370            strb        r3,[param_1,#0x1]=>DAT_20000151         
                            LAB_08002288:                 ;XREF[1,0]:   08002284
ram:08002288    4178            ldrb        r1,[param_1,#0x1]=>DAT_20000151         
ram:0800228a    491e            subs        r1,r1,#0x1                              
ram:0800228c    c9b2            uxtb        r1,r1                                   
ram:0800228e    4170            strb        r1,[param_1,#0x1]=>DAT_20000151         
ram:08002290    0078            ldrb        param_1,[param_1,#0x0]=>DAT_20000150    
ram:08002292    0028            cmp         param_1,#0x0                            
ram:08002294    02d1            bne         LAB_0800229c                            
ram:08002296    0029            cmp         r1,#0x0                                 
ram:08002298    00d1            bne         LAB_0800229c                            
ram:0800229a    6560            str         r5,[r4,#0x4]=>DAT_20000154              
                            LAB_0800229c:                 ;XREF[4,0]:   0800226a,08002270,08002294,08002298
ram:0800229c    b006            lsls        param_1,r6,#0x1a                        
ram:0800229e    05d5            bpl         LAB_080022ac                            
ram:080022a0    6046            mov         param_1,r12                             
ram:080022a2    8006            lsls        param_1,param_1,#0x1a                   
ram:080022a4    02d4            bmi         LAB_080022ac                            
ram:080022a6    0120            movs        param_1,#0x1                            
ram:080022a8    fff7f5fe        bl          FUN_08002096                            ;undefined FUN_08002096(uint param_1)
                            LAB_080022ac:                 ;XREF[2,0]:   0800229e,080022a4
ram:080022ac    7006            lsls        param_1,r6,#0x19                        
ram:080022ae    06d5            bpl         LAB_080022be                            
ram:080022b0    6348            ldr         param_1,[DAT_08002440]                  ;= 20000164h
ram:080022b2    c078            ldrb        param_1,[param_1,#0x3]=>DAT_20000167    
ram:080022b4    4006            lsls        param_1,param_1,#0x19                   
ram:080022b6    02d4            bmi         LAB_080022be                            
ram:080022b8    0220            movs        param_1,#0x2                            
ram:080022ba    fff7ecfe        bl          FUN_08002096                            ;undefined FUN_08002096(uint param_1)
                            LAB_080022be:                 ;XREF[2,0]:   080022ae,080022b6
ram:080022be    f009            lsrs        param_1,r6,#0x7                         
ram:080022c0    06d0            beq         LAB_080022d0                            
ram:080022c2    5f48            ldr         param_1,[DAT_08002440]                  ;= 20000164h
ram:080022c4    c078            ldrb        param_1,[param_1,#0x3]=>DAT_20000167    
ram:080022c6    c009            lsrs        param_1,param_1,#0x7                    
ram:080022c8    02d1            bne         LAB_080022d0                            
ram:080022ca    0320            movs        param_1,#0x3                            
ram:080022cc    fff7e3fe        bl          FUN_08002096                            ;undefined FUN_08002096(uint param_1)
                            LAB_080022d0:                 ;XREF[2,0]:   080022c0,080022c8
ram:080022d0    0098            ldr         param_1,[sp,#0x0]=>local_20             
ram:080022d2    4007            lsls        param_1,param_1,#0x1d                   
ram:080022d4    06d5            bpl         LAB_080022e4                            
ram:080022d6    5a48            ldr         param_1,[DAT_08002440]                  ;= 20000164h
ram:080022d8    4078            ldrb        param_1,[param_1,#0x1]=>DAT_20000165    
ram:080022da    4007            lsls        param_1,param_1,#0x1d                   
ram:080022dc    02d4            bmi         LAB_080022e4                            
ram:080022de    6560            str         r5,[r4,#0x4]=>DAT_20000154              
ram:080022e0    a560            str         r5,[r4,#0x8]=>DAT_20000158              
ram:080022e2    2580            strh        r5,[r4,#0x0]=>DAT_20000150              
                            LAB_080022e4:                 ;XREF[2,0]:   080022d4,080022dc
ram:080022e4    3807            lsls        param_1,r7,#0x1c                        
ram:080022e6    16d5            bpl         LAB_08002316                            
ram:080022e8    5548            ldr         param_1,[DAT_08002440]                  ;= 20000164h
ram:080022ea    8078            ldrb        param_1,[param_1,#0x2]=>DAT_20000166    
ram:080022ec    0007            lsls        param_1,param_1,#0x1c                   
ram:080022ee    12d4            bmi         LAB_08002316                            
ram:080022f0    4e48            ldr         param_1,[DAT_0800242c]                  ;= 20000150h
ram:080022f2    0178            ldrb        r1,[param_1,#0x0]=>DAT_20000150         
ram:080022f4    0029            cmp         r1,#0x0                                 
ram:080022f6    05d0            beq         LAB_08002304                            
ram:080022f8    0570            strb        r5,[param_1,#0x0]=>DAT_20000150         
ram:080022fa    4078            ldrb        param_1,[param_1,#0x1]=>DAT_20000151    
ram:080022fc    0028            cmp         param_1,#0x0                            
ram:080022fe    08d1            bne         LAB_08002312                            
ram:08002300    6560            str         r5,[r4,#0x4]=>DAT_20000154              
ram:08002302    06e0            b           LAB_08002312                            
                            LAB_08002304:                 ;XREF[1,0]:   080022f6
ram:08002304    0321            movs        r1,#0x3                                 
ram:08002306    0170            strb        r1,[param_1,#0x0]=>DAT_20000150         
ram:08002308    6068            ldr         param_1,[r4,#0x4]=>DAT_20000154         
ram:0800230a    0028            cmp         param_1,#0x0                            
ram:0800230c    01d1            bne         LAB_08002312                            
ram:0800230e    4a48            ldr         param_1,[DAT_08002438]                  ;= 0000EA60h
ram:08002310    6060            str         param_1,[r4,#0x4]=>DAT_20000154         
                            LAB_08002312:                 ;XREF[3,0]:   080022fe,08002302,0800230c
ram:08002312    a560            str         r5,[r4,#0x8]=>DAT_20000158              
ram:08002314    e560            str         r5,[r4,#0xc]=>DAT_2000015c              
                            LAB_08002316:                 ;XREF[2,0]:   080022e6,080022ee
ram:08002316    f806            lsls        param_1,r7,#0x1b                        
ram:08002318    16d5            bpl         LAB_08002348                            
ram:0800231a    4948            ldr         param_1,[DAT_08002440]                  ;= 20000164h
ram:0800231c    8078            ldrb        param_1,[param_1,#0x2]=>DAT_20000166    
ram:0800231e    c006            lsls        param_1,param_1,#0x1b                   
ram:08002320    12d4            bmi         LAB_08002348                            
ram:08002322    4248            ldr         param_1,[DAT_0800242c]                  ;= 20000150h
ram:08002324    4178            ldrb        r1,[param_1,#0x1]=>DAT_20000151         
ram:08002326    0029            cmp         r1,#0x0                                 
ram:08002328    05d0            beq         LAB_08002336                            
ram:0800232a    4570            strb        r5,[param_1,#0x1]=>DAT_20000151         
ram:0800232c    0078            ldrb        param_1,[param_1,#0x0]=>DAT_20000150    
ram:0800232e    0028            cmp         param_1,#0x0                            
ram:08002330    08d1            bne         LAB_08002344                            
ram:08002332    6560            str         r5,[r4,#0x4]=>DAT_20000154              
ram:08002334    06e0            b           LAB_08002344                            
                            LAB_08002336:                 ;XREF[1,0]:   08002328
ram:08002336    0321            movs        r1,#0x3                                 
ram:08002338    4170            strb        r1,[param_1,#0x1]=>DAT_20000151         
ram:0800233a    6068            ldr         param_1,[r4,#0x4]=>DAT_20000154         
ram:0800233c    0028            cmp         param_1,#0x0                            
ram:0800233e    01d1            bne         LAB_08002344                            
ram:08002340    3d48            ldr         param_1,[DAT_08002438]                  ;= 0000EA60h
ram:08002342    6060            str         param_1,[r4,#0x4]=>DAT_20000154         
                            LAB_08002344:                 ;XREF[3,0]:   08002330,08002334,0800233e
ram:08002344    a560            str         r5,[r4,#0x8]=>DAT_20000158              
ram:08002346    e560            str         r5,[r4,#0xc]=>DAT_2000015c              
                            LAB_08002348:                 ;XREF[2,0]:   08002318,08002320
ram:08002348    3e4a            ldr         r2,[DAT_08002444]                       ;= 0001D4C0h
ram:0800234a    b007            lsls        param_1,r6,#0x1e                        
ram:0800234c    21d5            bpl         LAB_08002392                            
ram:0800234e    3c48            ldr         param_1,[DAT_08002440]                  ;= 20000164h
ram:08002350    c078            ldrb        param_1,[param_1,#0x3]=>DAT_20000167    
ram:08002352    8007            lsls        param_1,param_1,#0x1e                   
ram:08002354    1dd4            bmi         LAB_08002392                            
ram:08002356    3548            ldr         param_1,[DAT_0800242c]                  ;= 20000150h
ram:08002358    0178            ldrb        r1,[param_1,#0x0]=>DAT_20000150         
ram:0800235a    0029            cmp         r1,#0x0                                 
ram:0800235c    02d1            bne         LAB_08002364                            
ram:0800235e    4178            ldrb        r1,[param_1,#0x1]=>DAT_20000151         
ram:08002360    0029            cmp         r1,#0x0                                 
ram:08002362    04d0            beq         LAB_0800236e                            
                            LAB_08002364:                 ;XREF[1,0]:   0800235c
ram:08002364    a560            str         r5,[r4,#0x8]=>DAT_20000158              
ram:08002366    0570            strb        r5,[param_1,#0x0]=>DAT_20000150         
ram:08002368    4570            strb        r5,[param_1,#0x1]=>DAT_20000151         
ram:0800236a    6560            str         r5,[r4,#0x4]=>DAT_20000154              
ram:0800236c    11e0            b           LAB_08002392                            
                            LAB_0800236e:                 ;XREF[1,0]:   08002362
ram:0800236e    6068            ldr         param_1,[r4,#0x4]=>DAT_20000154         
ram:08002370    0028            cmp         param_1,#0x0                            
ram:08002372    05d0            beq         LAB_08002380                            
ram:08002374    6168            ldr         r1,[r4,#0x4]=>DAT_20000154              
ram:08002376    3048            ldr         param_1,[DAT_08002438]                  ;= 0000EA60h
ram:08002378    8142            cmp         r1,param_1                              
ram:0800237a    03d8            bhi         LAB_08002384                            
ram:0800237c    6260            str         r2,[r4,#0x4]=>DAT_20000154              
ram:0800237e    08e0            b           LAB_08002392                            
                            LAB_08002380:                 ;XREF[1,0]:   08002372
ram:08002380    2d48            ldr         param_1,[DAT_08002438]                  ;= 0000EA60h
ram:08002382    03e0            b           LAB_0800238c                            
                            LAB_08002384:                 ;XREF[1,0]:   0800237a
ram:08002384    6068            ldr         param_1,[r4,#0x4]=>DAT_20000154         
ram:08002386    9042            cmp         param_1,r2                              
ram:08002388    02d8            bhi         LAB_08002390                            
ram:0800238a    2f48            ldr         param_1,[DAT_08002448]                  ;= 0002BF20h
                            LAB_0800238c:                 ;XREF[1,0]:   08002382
ram:0800238c    6060            str         param_1,[r4,#0x4]=>DAT_20000154         
ram:0800238e    00e0            b           LAB_08002392                            
                            LAB_08002390:                 ;XREF[1,0]:   08002388
ram:08002390    6560            str         r5,[r4,#0x4]=>DAT_20000154              
                            LAB_08002392:                 ;XREF[5,0]:   0800234c,08002354,0800236c,0800237e
                                                          ;             0800238e
ram:08002392    6068            ldr         param_1,[r4,#0x4]=>DAT_20000154         
ram:08002394    0028            cmp         param_1,#0x0                            
ram:08002396    01d1            bne         LAB_0800239c                            
ram:08002398    a560            str         r5,[r4,#0x8]=>DAT_20000158              
ram:0800239a    2580            strh        r5,[r4,#0x0]=>DAT_20000150              
                            LAB_0800239c:                 ;XREF[1,0]:   08002396
ram:0800239c    6568            ldr         r5,[r4,#0x4]=>DAT_20000154              
ram:0800239e    2b48            ldr         param_1,[DAT_0800244c]                  ;= 20000218h
ram:080023a0    2b49            ldr         r1,[DAT_08002450]                       ;= 200000ECh
ram:080023a2    ff23            movs        r3,#0xff                                
ram:080023a4    002d            cmp         r5,#0x0                                 
ram:080023a6    07d0            beq         LAB_080023b8                            
ram:080023a8    6668            ldr         r6,[r4,#0x4]=>DAT_20000154              
ram:080023aa    234d            ldr         r5,[DAT_08002438]                       ;= 0000EA60h
ram:080023ac    ae42            cmp         r6,r5                                   
ram:080023ae    06d8            bhi         LAB_080023be                            
ram:080023b0    0122            movs        r2,#0x1                                 
ram:080023b2    0260            str         r2,[param_1,#0x0]=>DAT_20000218         
ram:080023b4    0a60            str         r2,[r1,#0x0]=>DAT_200000ec              
ram:080023b6    0ce0            b           LAB_080023d2                            
                            LAB_080023b8:                 ;XREF[1,0]:   080023a6
ram:080023b8    0360            str         r3,[param_1,#0x0]=>DAT_20000218         
ram:080023ba    0b60            str         r3,[r1,#0x0]=>DAT_200000ec              
ram:080023bc    09e0            b           LAB_080023d2                            
                            LAB_080023be:                 ;XREF[1,0]:   080023ae
ram:080023be    6568            ldr         r5,[r4,#0x4]=>DAT_20000154              
ram:080023c0    9542            cmp         r5,r2                                   
ram:080023c2    03d8            bhi         LAB_080023cc                            
ram:080023c4    0222            movs        r2,#0x2                                 
ram:080023c6    0260            str         r2,[param_1,#0x0]=>DAT_20000218         
ram:080023c8    0a60            str         r2,[r1,#0x0]=>DAT_200000ec              
ram:080023ca    02e0            b           LAB_080023d2                            
                            LAB_080023cc:                 ;XREF[1,0]:   080023c2
ram:080023cc    0322            movs        r2,#0x3                                 
ram:080023ce    0260            str         r2,[param_1,#0x0]=>DAT_20000218         
ram:080023d0    0a60            str         r2,[r1,#0x0]=>DAT_200000ec              
                            LAB_080023d2:                 ;XREF[3,0]:   080023b6,080023bc,080023ca
ram:080023d2    2048            ldr         param_1,[DAT_08002454]                  ;= 2000021Ch
ram:080023d4    0360            str         r3,[param_1,#0x0]=>DAT_2000021c         
ram:080023d6    a068            ldr         param_1,[r4,#0x8]=>DAT_20000158         
ram:080023d8    0428            cmp         param_1,#0x4                            
ram:080023da    0bd2            bcs         LAB_080023f4                            
ram:080023dc    8100            lsls        r1,param_1,#0x2                         
ram:080023de    1e48            ldr         param_1,[PTR_DAT_08002458]              ;= 080053f8
ram:080023e0    4058            ldr         param_1,[param_1,r1]=>DAT_080053f8      
ram:080023e2    0121            movs        r1,#0x1                                 
ram:080023e4    02f0d8fa        bl          FUN_08004998                            ;undefined FUN_08004998(uint param_1,...
ram:080023e8    a068            ldr         param_1,[r4,#0x8]=>DAT_20000158         
ram:080023ea    1c49            ldr         r1,[PTR_DAT_0800245c]                   ;= 08005410
ram:080023ec    8000            lsls        param_1,param_1,#0x2                    
ram:080023ee    0858            ldr         param_1,[r1,param_1]=>DAT_08005410      ;= 68180000h
ram:080023f0    0321            movs        r1,#0x3                                 
ram:080023f2    0ee0            b           LAB_08002412                            
                            LAB_080023f4:                 ;XREF[1,0]:   080023da
ram:080023f4    0d48            ldr         param_1,[DAT_0800242c]                  ;= 20000150h
ram:080023f6    0178            ldrb        r1,[param_1,#0x0]=>DAT_20000150         
ram:080023f8    0029            cmp         r1,#0x0                                 
ram:080023fa    79d0            beq         LAB_080024f0                            
ram:080023fc    4078            ldrb        param_1,[param_1,#0x1]=>DAT_20000151    
ram:080023fe    0028            cmp         param_1,#0x0                            
ram:08002400    6fd0            beq         LAB_080024e2                            
ram:08002402    0320            movs        param_1,#0x3                            
ram:08002404    0121            movs        r1,#0x1                                 
ram:08002406    c004            lsls        param_1,param_1,#0x13                   
ram:08002408    02f0c6fa        bl          FUN_08004998                            ;undefined FUN_08004998(uint param_1,...
ram:0800240c    0d20            movs        param_1,#0xd                            
ram:0800240e    0321            movs        r1,#0x3                                 
ram:08002410    c006            lsls        param_1,param_1,#0x1b                   
                            LAB_08002412:                 ;XREF[3,0]:   080023f2,080024ee,080024fc
ram:08002412    02f0c1fa        bl          FUN_08004998                            ;undefined FUN_08004998(uint param_1,...
ram:08002416    0a49            ldr         r1,[DAT_08002440]                       ;= 20000164h
ram:08002418    0198            ldr         param_1,[sp,#local_1c+0x20]             
ram:0800241a    044a            ldr         r2,[DAT_0800242c]                       ;= 20000150h
ram:0800241c    0860            str         param_1,[r1,#0x0]=>DAT_20000164         
ram:0800241e    1078            ldrb        param_1,[r2,#0x0]=>DAT_20000150         
ram:08002420    034b            ldr         r3,[PTR_DAT_08002430]                   ;= 080053e4
ram:08002422    185c            ldrb        param_1,[r3,param_1]=>DAT_080053e4      
ram:08002424    0028            cmp         param_1,#0x0                            
ram:08002426    26d0            beq         LAB_08002476                            
ram:08002428    401e            subs        param_1,param_1,#0x1                    
ram:0800242a    19e0            b           LAB_08002460                            
                            DAT_0800242c:                 ;XREF[16,0]:  08002098,080020da,08002122,08002130
                                                          ;             08002138,08002178,080021a8,080021d8
                                                          ;             08002214,0800224a,0800227e,080022f0
                                                          ;             08002322,08002356,080023f4,0800241a
ram:0800242c    50010020        undefined4  20000150h                               
                            PTR_DAT_08002430:             ;XREF[1,0]:   08002420
ram:08002430    e4530008        addr        DAT_080053e4                            
                            DAT_08002438:                 ;XREF[12,0]:  080020a0,08002188,080021a4,080021d4
                                                          ;             08002210,08002246,0800227a,0800230e
                                                          ;             08002340,08002376,08002380,080023aa
ram:08002438    60ea0000        undefined4  0000EA60h                               
                            DAT_0800243c:                 ;XREF[1,0]:   08002146
ram:0800243c    fff30718        undefined4  1807F3FFh                               
                            DAT_08002440:                 ;XREF[10,0]:  08002158,0800218c,08002200,080022b0
                                                          ;             080022c2,080022d6,080022e8,0800231a
                                                          ;             0800234e,08002416
ram:08002440    64010020        undefined4  20000164h                               
                            DAT_08002444:                 ;XREF[1,0]:   08002348
ram:08002444    c0d40100        undefined4  0001D4C0h                               
                            DAT_08002448:                 ;XREF[1,0]:   0800238a
ram:08002448    20bf0200        undefined4  0002BF20h                               
                            DAT_0800244c:                 ;XREF[1,0]:   0800239e
ram:0800244c    18020020        undefined4  20000218h                               
                            DAT_08002450:                 ;XREF[1,0]:   080023a0
ram:08002450    ec000020        undefined4  200000ECh                               
                            DAT_08002454:                 ;XREF[1,0]:   080023d2
ram:08002454    1c020020        undefined4  2000021Ch                               
                            PTR_DAT_08002458:             ;XREF[1,0]:   080023de
ram:08002458    f8530008        addr        DAT_080053f8                            
                            PTR_DAT_0800245c:             ;XREF[1,0]:   080023ea
ram:0800245c    10540008        addr        DAT_08005410                            ;= 68180000h
                            LAB_08002460:                 ;XREF[1,0]:   0800242a
ram:08002460    2169            ldr         r1,[r4,#0x10]=>DAT_20000160             
ram:08002462    0912            asrs        r1,r1,#0x8                              
ram:08002464    00d5            bpl         LAB_08002468                            
ram:08002466    4942            rsbs        r1,r1                                   
                            LAB_08002468:                 ;XREF[1,0]:   08002464
ram:08002468    491c            adds        r1,r1,#0x1                              
ram:0800246a    4843            muls        param_1,r1                              
ram:0800246c    ff21            movs        r1,#0xff                                
ram:0800246e    6c31            adds        r1,#0x6c                                
ram:08002470    ff30            adds        param_1,#0xff                           
ram:08002472    0130            adds        param_1,#0x1                            
ram:08002474    4843            muls        param_1,r1                              
                            LAB_08002476:                 ;XREF[1,0]:   08002426
ram:08002476    000c            lsrs        param_1,param_1,#0x10                   
ram:08002478    1425            movs        r5,#0x14                                
ram:0800247a    4f49            ldr         r1,[DAT_080025b8]                       ;= 20000152h
ram:0800247c    0028            cmp         param_1,#0x0                            
ram:0800247e    3ed0            beq         LAB_080024fe                            
ram:08002480    0e78            ldrb        r6,[r1,#0x0]=>DAT_20000152              
ram:08002482    002e            cmp         r6,#0x0                                 
ram:08002484    02d0            beq         LAB_0800248c                            
ram:08002486    2328            cmp         param_1,#0x23                           
ram:08002488    00d2            bcs         LAB_0800248c                            
ram:0800248a    2320            movs        param_1,#0x23                           
                            LAB_0800248c:                 ;XREF[3,0]:   08002484,08002488,08002500
ram:0800248c    4b4e            ldr         r6,[DAT_080025bc]                       ;= 40012C00h
ram:0800248e    7063            str         param_1,[r6,#offset DAT_40012c34 &0xff] 
ram:08002490    5078            ldrb        param_1,[r2,#0x1]=>DAT_20000151         
ram:08002492    185c            ldrb        param_1,[r3,param_1]=>DAT_080053e4      
ram:08002494    0028            cmp         param_1,#0x0                            
ram:08002496    14d0            beq         LAB_080024c2                            
ram:08002498    2269            ldr         r2,[r4,#0x10]=>DAT_20000160             
ram:0800249a    401e            subs        param_1,param_1,#0x1                    
ram:0800249c    1212            asrs        r2,r2,#0x8                              
ram:0800249e    00d5            bpl         LAB_080024a2                            
ram:080024a0    5242            rsbs        r2,r2                                   
                            LAB_080024a2:                 ;XREF[1,0]:   0800249e
ram:080024a2    e368            ldr         r3,[r4,#0xc]=>DAT_2000015c              
ram:080024a4    521c            adds        r2,r2,#0x1                              
ram:080024a6    002b            cmp         r3,#0x0                                 
ram:080024a8    05d0            beq         LAB_080024b6                            
ram:080024aa    a368            ldr         r3,[r4,#0x8]=>DAT_20000158              
ram:080024ac    022b            cmp         r3,#0x2                                 
ram:080024ae    02d0            beq         LAB_080024b6                            
ram:080024b0    ff23            movs        r3,#0xff                                
ram:080024b2    0233            adds        r3,#0x2                                 
ram:080024b4    9a1a            subs        r2,r3,r2                                
                            LAB_080024b6:                 ;XREF[2,0]:   080024a8,080024ae
ram:080024b6    5043            muls        param_1,r2                              
ram:080024b8    ff22            movs        r2,#0xff                                
ram:080024ba    6c32            adds        r2,#0x6c                                
ram:080024bc    ff30            adds        param_1,#0xff                           
ram:080024be    0130            adds        param_1,#0x1                            
ram:080024c0    5043            muls        param_1,r2                              
                            LAB_080024c2:                 ;XREF[1,0]:   08002496
ram:080024c2    000c            lsrs        param_1,param_1,#0x10                   
ram:080024c4    1dd0            beq         LAB_08002502                            
ram:080024c6    4978            ldrb        r1,[r1,#0x1]=>DAT_20000153              
ram:080024c8    0029            cmp         r1,#0x0                                 
ram:080024ca    02d0            beq         LAB_080024d2                            
ram:080024cc    2328            cmp         param_1,#0x23                           
ram:080024ce    00d2            bcs         LAB_080024d2                            
ram:080024d0    2320            movs        param_1,#0x23                           
                            LAB_080024d2:                 ;XREF[3,0]:   080024ca,080024ce,08002504
ram:080024d2    ff21            movs        r1,#0xff                                
ram:080024d4    6b31            adds        r1,#0x6b                                
ram:080024d6    081a            subs        param_1,r1,param_1                      
ram:080024d8    b063            str         param_1,[r6,#offset DAT_40012c38 &0xff] 
ram:080024da    03b0            add         sp,#0xc                                 
ram:080024dc    f0bd            pop         {r4,r5,r6,r7,pc}                        
ram:080024de    07e0            b           LAB_080024f0                            
ram:080024e0    ffe7            b           LAB_080024e2                            
                            LAB_080024e2:                 ;XREF[2,0]:   08002400,080024e0
ram:080024e2    0121            movs        r1,#0x1                                 
ram:080024e4    c804            lsls        param_1,r1,#0x13                        
ram:080024e6    02f057fa        bl          FUN_08004998                            ;undefined FUN_08004998(uint param_1,...
ram:080024ea    0321            movs        r1,#0x3                                 
ram:080024ec    3448            ldr         param_1,[DAT_080025c0]                  ;= 68100000h
ram:080024ee    90e7            b           LAB_08002412                            
                            LAB_080024f0:                 ;XREF[2,0]:   080023fa,080024de
ram:080024f0    0121            movs        r1,#0x1                                 
ram:080024f2    0805            lsls        param_1,r1,#0x14                        
ram:080024f4    02f050fa        bl          FUN_08004998                            ;undefined FUN_08004998(uint param_1,...
ram:080024f8    0321            movs        r1,#0x3                                 
ram:080024fa    3248            ldr         param_1,[DAT_080025c4]                  ;= 68080000h
ram:080024fc    89e7            b           LAB_08002412                            
                            LAB_080024fe:                 ;XREF[1,0]:   0800247e
ram:080024fe    0d70            strb        r5,[r1,#0x0]=>DAT_20000152              
ram:08002500    c4e7            b           LAB_0800248c                            
                            LAB_08002502:                 ;XREF[1,0]:   080024c4
ram:08002502    4d70            strb        r5,[r1,#0x1]=>DAT_20000153              
ram:08002504    e5e7            b           LAB_080024d2                            
                            ;************************************************************************************************
                            ;*                                           FUNCTION                                           *
                            ;************************************************************************************************
                            ;undefined FUN_08002506(void)
                                                          ;XREF[1,0]:   08002014
ram:08002506    3048            ldr         r0=>DAT_20000150,[DAT_080025c8]         ;= 20000150h
ram:08002508    304a            ldr         r2,[PTR_DAT_080025cc]                   ;= 080053e8
ram:0800250a    c168            ldr         r1,[r0,#0xc]=>DAT_2000015c              
ram:0800250c    8900            lsls        r1,r1,#0x2                              
ram:0800250e    5158            ldr         r1,[r2,r1]=>DAT_080053e8                
ram:08002510    2f4a            ldr         r2,[DAT_080025d0]                       ;= FFFF0001h
ram:08002512    0029            cmp         r1,#0x0                                 
ram:08002514    05d0            beq         LAB_08002522                            
ram:08002516    0369            ldr         r3,[r0,#0x10]=>DAT_20000160             
ram:08002518    5918            adds        r1,r3,r1                                
ram:0800251a    130c            lsrs        r3,r2,#0x10                             
ram:0800251c    0161            str         r1,[r0,#0x10]=>DAT_20000160             
ram:0800251e    9942            cmp         r1,r3                                   
ram:08002520    00dd            ble         LAB_08002524                            
                            LAB_08002522:                 ;XREF[1,0]:   08002514
ram:08002522    0261            str         r2,[r0,#0x10]=>DAT_20000160             
                            LAB_08002524:                 ;XREF[1,0]:   08002520
ram:08002524    244a            ldr         r2,[DAT_080025b8]                       ;= 20000152h
ram:08002526    1178            ldrb        r1,[r2,#0x0]=>DAT_20000152              
ram:08002528    0029            cmp         r1,#0x0                                 
ram:0800252a    01d0            beq         LAB_08002530                            
ram:0800252c    491e            subs        r1,r1,#0x1                              
ram:0800252e    1170            strb        r1,[r2,#0x0]=>DAT_20000152              
                            LAB_08002530:                 ;XREF[1,0]:   0800252a
ram:08002530    5178            ldrb        r1,[r2,#0x1]=>DAT_20000153              
ram:08002532    0029            cmp         r1,#0x0                                 
ram:08002534    01d0            beq         LAB_0800253a                            
ram:08002536    491e            subs        r1,r1,#0x1                              
ram:08002538    5170            strb        r1,[r2,#0x1]=>DAT_20000153              
                            LAB_0800253a:                 ;XREF[1,0]:   08002534
ram:0800253a    4168            ldr         r1,[r0,#0x4]=>DAT_20000154              
ram:0800253c    0029            cmp         r1,#0x0                                 
ram:0800253e    02d0            beq         LAB_08002546                            
ram:08002540    4168            ldr         r1,[r0,#0x4]=>DAT_20000154              
ram:08002542    491e            subs        r1,r1,#0x1                              
ram:08002544    4160            str         r1,[r0,#0x4]=>DAT_20000154              
                            LAB_08002546:                 ;XREF[1,0]:   0800253e
ram:08002546    7047            bx          lr                                      
                            ;************************************************************************************************
                            ;*                                           FUNCTION                                           *
                            ;************************************************************************************************
                            ;undefined FUN_08002548(undefined * param_1)
          ;param_1       undefined *         r0                      
                                                          ;XREF[1,0]:   08000e68
ram:08002548    1f49            ldr         r1,[DAT_080025c8]                       ;= 20000150h
ram:0800254a    4a68            ldr         r2,[r1,#0x4]=>DAT_20000154              
ram:0800254c    0270            strb        r2,[param_1,#0x0]                       
ram:0800254e    130a            lsrs        r3,r2,#0x8                              
ram:08002550    4370            strb        r3,[param_1,#0x1]                       
ram:08002552    130c            lsrs        r3,r2,#0x10                             
ram:08002554    8370            strb        r3,[param_1,#0x2]                       
ram:08002556    120e            lsrs        r2,r2,#0x18                             
ram:08002558    c270            strb        r2,[param_1,#0x3]                       
ram:0800255a    0a7a            ldrb        r2,[r1,#0x8]=>DAT_20000158              
ram:0800255c    0271            strb        r2,[param_1,#0x4]                       
ram:0800255e    0a7e            ldrb        r2,[r1,#0x18]=>DAT_20000168             
ram:08002560    4271            strb        r2,[param_1,#0x5]                       
ram:08002562    0a78            ldrb        r2,[r1,#0x0]=>DAT_20000150              
ram:08002564    8271            strb        r2,[param_1,#0x6]                       
ram:08002566    4a78            ldrb        r2,[r1,#0x1]=>DAT_20000151              
ram:08002568    c271            strb        r2,[param_1,#0x7]                       
ram:0800256a    0a7b            ldrb        r2,[r1,#0xc]=>DAT_2000015c              
ram:0800256c    0272            strb        r2,[param_1,#0x8]                       
ram:0800256e    0969            ldr         r1,[r1,#0x10]=>DAT_20000160             
ram:08002570    4910            asrs        r1,r1,#0x1                              
ram:08002572    4172            strb        r1,[param_1,#0x9]                       
ram:08002574    090a            lsrs        r1,r1,#0x8                              
ram:08002576    8172            strb        r1,[param_1,#0xa]                       
ram:08002578    7047            bx          lr                                      
                            ;************************************************************************************************
                            ;*                                           FUNCTION                                           *
                            ;************************************************************************************************
                            ;undefined FUN_0800257a(undefined4 * param_1)
          ;param_1       undefined4 *        r0                      
                                                          ;XREF[1,0]:   08001026
ram:0800257a    0378            ldrb        r3,[param_1,#0x0]                       
ram:0800257c    c178            ldrb        r1,[param_1,#0x3]                       
ram:0800257e    1a46            mov         r2,r3                                   
ram:08002580    4378            ldrb        r3,[param_1,#0x1]                       
ram:08002582    1b02            lsls        r3,r3,#0x8                              
ram:08002584    1a43            orrs        r2,r3                                   
ram:08002586    8378            ldrb        r3,[param_1,#0x2]                       
ram:08002588    1b04            lsls        r3,r3,#0x10                             
ram:0800258a    1a43            orrs        r2,r3                                   
ram:0800258c    0906            lsls        r1,r1,#0x18                             
ram:0800258e    0a43            orrs        r2,r1                                   
ram:08002590    0d49            ldr         r1,[DAT_080025c8]                       ;= 20000150h
ram:08002592    4a60            str         r2,[r1,#0x4]=>DAT_20000154              
ram:08002594    0279            ldrb        r2,[param_1,#0x4]                       
ram:08002596    8a60            str         r2,[r1,#0x8]=>DAT_20000158              
ram:08002598    4279            ldrb        r2,[param_1,#0x5]                       
ram:0800259a    8a61            str         r2,[r1,#0x18]=>DAT_20000168             
ram:0800259c    8279            ldrb        r2,[param_1,#0x6]                       
ram:0800259e    0a70            strb        r2,[r1,#0x0]=>DAT_20000150              
ram:080025a0    c279            ldrb        r2,[param_1,#0x7]                       
ram:080025a2    4a70            strb        r2,[r1,#0x1]=>DAT_20000151              
ram:080025a4    027a            ldrb        r2,[param_1,#0x8]                       
ram:080025a6    ca60            str         r2,[r1,#0xc]=>DAT_2000015c              
ram:080025a8    837a            ldrb        r3,[param_1,#0xa]                       
ram:080025aa    427a            ldrb        r2,[param_1,#0x9]                       
ram:080025ac    1806            lsls        param_1,r3,#0x18                        
ram:080025ae    0014            asrs        param_1,param_1,#0x10                   
ram:080025b0    1043            orrs        param_1,r2                              
ram:080025b2    4000            lsls        param_1,param_1,#0x1                    
ram:080025b4    0861            str         param_1,[r1,#0x10]=>DAT_20000160        
ram:080025b6    7047            bx          lr                                      
                            DAT_080025b8:                 ;XREF[2,0]:   0800247a,08002524
ram:080025b8    52010020        undefined4  20000152h                               
                            DAT_080025bc:                 ;XREF[1,0]:   0800248c
ram:080025bc    002c0140        undefined4  40012C00h                               
                            DAT_080025c0:                 ;XREF[1,0]:   080024ec
ram:080025c0    00001068        undefined4  68100000h                               
                            DAT_080025c4:                 ;XREF[1,0]:   080024fa
ram:080025c4    00000868        undefined4  68080000h                               
                            DAT_080025c8:                 ;XREF[3,0]:   08002506,08002548,08002590
ram:080025c8    50010020        undefined4  20000150h                               
                            PTR_DAT_080025cc:             ;XREF[1,0]:   08002508
ram:080025cc    e8530008        addr        DAT_080053e8                            
                            DAT_080025d0:                 ;XREF[1,0]:   08002510
ram:080025d0    0100ffff        undefined4  FFFF0001h                               
                            ;************************************************************************************************
                            ;*                                           FUNCTION                                           *
                            ;************************************************************************************************
                            ;undefined FUN_080025d4(void)
                                                          ;XREF[3,0]:   080033ba,080033f2,08004be4
ram:080025d4    2521            movs        r1,#0x25                                
ram:080025d6    3648            ldr         r0,[DAT_080026b0]                       ;= 40020040h
ram:080025d8    c901            lsls        r1,r1,#0x7                              
ram:080025da    8161            str         r1,[r0,#0x18]=>DAT_40020058             
ram:080025dc    354a            ldr         r2,[DAT_080026b4]                       ;= 40013800h
ram:080025de    0821            movs        r1,#0x8                                 
ram:080025e0    1183            strh        r1,[r2,#offset DAT_40013818 &0xff]      
ram:080025e2    ff21            movs        r1,#0xff                                
ram:080025e4    0631            adds        r1,#0x6                                 
ram:080025e6    c161            str         r1,[r0,#0x1c]=>DAT_4002005c             
ram:080025e8    3349            ldr         r1,[DAT_080026b8]                       ;= 40013824h
ram:080025ea    0162            str         r1,[r0,#0x20]=>DAT_40020060             
ram:080025ec    3349            ldr         r1,[DAT_080026bc]                       ;= 20000394h
ram:080025ee    4162            str         r1=>DAT_20000394,[r0,#0x24]=>DAT_4002...
ram:080025f0    3349            ldr         r1,[DAT_080026c0]                       ;= 00002281h
ram:080025f2    8161            str         r1,[r0,#0x18]=>DAT_40020058             
ram:080025f4    7047            bx          lr                                      
                            ;************************************************************************************************
                            ;*                                           FUNCTION                                           *
                            ;************************************************************************************************
                            ;undefined FUN_080025f6(void)
                                                          ;XREF[3,0]:   08000e92,080010a8,08001140
ram:080025f6    10b5            push        {r4,lr}                                 
ram:080025f8    00f046ff        bl          FUN_08003488                            ;undefined4 FUN_08003488(void)
ram:080025fc    2f49            ldr         r1,[DAT_080026bc]                       ;= 20000394h
ram:080025fe    314a            ldr         r2,[DAT_080026c4]                       ;= 20000396h
ram:08002600    0b78            ldrb        r3,[r1,#0x0]=>DAT_20000394              
ram:08002602    9a18            adds        r2,r3,r2                                
ram:08002604    1070            strb        r0,[r2,#0x0]=>DAT_20000396              
ram:08002606    030a            lsrs        r3,r0,#0x8                              
ram:08002608    5370            strb        r3,[r2,#0x1]=>DAT_20000397              
ram:0800260a    030c            lsrs        r3,r0,#0x10                             
ram:0800260c    9370            strb        r3,[r2,#0x2]=>DAT_20000398              
ram:0800260e    000e            lsrs        r0,r0,#0x18                             
ram:08002610    d070            strb        r0,[r2,#0x3]=>DAT_20000399              
ram:08002612    284a            ldr         r2,[DAT_080026b4]                       ;= 40013800h
ram:08002614    2c48            ldr         r0,[DAT_080026c8]                       ;= 00001449h
ram:08002616    1060            str         r0,[r2,#0x0]=>DAT_40013800              
ram:08002618    c006            lsls        r0,r0,#0x1b                             
ram:0800261a    8388            ldrh        r3,[r0,#offset DAT_48000004 &0xff]      
ram:0800261c    0424            movs        r4,#0x4                                 
ram:0800261e    a343            bics        r3,r4                                   
ram:08002620    8380            strh        r3,[r0,#offset DAT_48000004 &0xff]      
ram:08002622    2348            ldr         r0,[DAT_080026b0]                       ;= 40020040h
ram:08002624    294b            ldr         r3,[DAT_080026cc]                       ;= 00001290h
ram:08002626    4360            str         r3,[r0,#0x4]=>DAT_40020044              
ram:08002628    0b78            ldrb        r3,[r1,#0x0]=>DAT_20000394              
ram:0800262a    9b1d            adds        r3,r3,#0x6                              
ram:0800262c    8360            str         r3,[r0,#0x8]=>DAT_40020048              
ram:0800262e    284b            ldr         r3,[DAT_080026d0]                       ;= 40013828h
ram:08002630    c360            str         r3,[r0,#0xc]=>DAT_4002004c              
ram:08002632    0161            str         r1=>DAT_20000394,[r0,#0x10]=>DAT_4002...
ram:08002634    274b            ldr         r3,[DAT_080026d4]                       ;= 00001291h
ram:08002636    4360            str         r3,[r0,#0x4]=>DAT_40020044              
ram:08002638    2523            movs        r3,#0x25                                
ram:0800263a    db01            lsls        r3,r3,#0x7                              
ram:0800263c    8361            str         r3,[r0,#0x18]=>DAT_40020058             
ram:0800263e    0823            movs        r3,#0x8                                 
ram:08002640    1383            strh        r3,[r2,#offset DAT_40013818 &0xff]      
ram:08002642    ff22            movs        r2,#0xff                                
ram:08002644    0632            adds        r2,#0x6                                 
ram:08002646    c261            str         r2,[r0,#0x1c]=>DAT_4002005c             
ram:08002648    1b4a            ldr         r2,[DAT_080026b8]                       ;= 40013824h
ram:0800264a    0262            str         r2,[r0,#0x20]=>DAT_40020060             
ram:0800264c    4162            str         r1=>DAT_20000394,[r0,#0x24]=>DAT_4002...
ram:0800264e    1c49            ldr         r1,[DAT_080026c0]                       ;= 00002281h
ram:08002650    8161            str         r1,[r0,#0x18]=>DAT_40020058             
ram:08002652    10bd            pop         {r4,pc}                                 
                            ;************************************************************************************************
                            ;*                                           FUNCTION                                           *
                            ;************************************************************************************************
                            ;undefined FUNC_VT_08002654(void)
                                                          ;XREF[0,1]:   08000cbc
ram:08002654    0920            movs        r0,#0x9                                 
ram:08002656    c006            lsls        r0,r0,#0x1b                             
ram:08002658    8188            ldrh        r1,[r0,#offset DAT_48000004 &0xff]      
ram:0800265a    0422            movs        r2,#0x4                                 
ram:0800265c    1143            orrs        r1,r2                                   
ram:0800265e    8180            strh        r1,[r0,#offset DAT_48000004 &0xff]      
ram:08002660    1449            ldr         r1,[DAT_080026b4]                       ;= 40013800h
ram:08002662    4020            movs        r0,#0x40                                
ram:08002664    0862            str         r0,[r1,#offset DAT_40013820 &0xff]      
ram:08002666    154a            ldr         r2,[DAT_080026bc]                       ;= 20000394h
ram:08002668    0020            movs        r0,#0x0                                 
ram:0800266a    1070            strb        r0,[r2,#0x0]=>DAT_20000394              
ram:0800266c    2523            movs        r3,#0x25                                
ram:0800266e    1048            ldr         r0,[DAT_080026b0]                       ;= 40020040h
ram:08002670    db01            lsls        r3,r3,#0x7                              
ram:08002672    8361            str         r3,[r0,#0x18]=>DAT_40020058             
ram:08002674    0823            movs        r3,#0x8                                 
ram:08002676    0b83            strh        r3,[r1,#offset DAT_40013818 &0xff]      
ram:08002678    ff23            movs        r3,#0xff                                
ram:0800267a    0633            adds        r3,#0x6                                 
ram:0800267c    c361            str         r3,[r0,#0x1c]=>DAT_4002005c             
ram:0800267e    0e4b            ldr         r3,[DAT_080026b8]                       ;= 40013824h
ram:08002680    0362            str         r3,[r0,#0x20]=>DAT_40020060             
ram:08002682    4262            str         r2=>DAT_20000394,[r0,#0x24]=>DAT_4002...
ram:08002684    0e4a            ldr         r2,[DAT_080026c0]                       ;= 00002281h
ram:08002686    8261            str         r2,[r0,#0x18]=>DAT_40020058             
ram:08002688    1348            ldr         r0,[DAT_080026d8]                       ;= 0000144Dh
ram:0800268a    0860            str         r0,[r1,#0x0]=>DAT_40013800              
ram:0800268c    1349            ldr         r1,[DAT_080026dc]                       ;= 48000800h
ram:0800268e    5007            lsls        r0,r2,#0x1d                             
ram:08002690    8861            str         r0,[r1,#offset DAT_48000818 &0xff]      
ram:08002692    7047            bx          lr                                      
                            ;************************************************************************************************
                            ;*                                           FUNCTION                                           *
                            ;************************************************************************************************
                            ;undefined4 FUN_08002694(void)
                                                          ;XREF[2,0]:   080033a4,08004cd4
ram:08002694    0748            ldr         r0,[DAT_080026b4]                       ;= 40013800h
ram:08002696    c169            ldr         r1,[r0,#offset DAT_4001381c &0xff]      
ram:08002698    8907            lsls        r1,r1,#0x1e                             
ram:0800269a    03d5            bpl         LAB_080026a4                            
ram:0800269c    0221            movs        r1,#0x2                                 
ram:0800269e    0162            str         r1,[r0,#offset DAT_40013820 &0xff]      
ram:080026a0    c81e            subs        r0,r1,#0x3                              
ram:080026a2    7047            bx          lr                                      
                            LAB_080026a4:                 ;XREF[1,0]:   0800269a
ram:080026a4    0020            movs        r0,#0x0                                 
ram:080026a6    7047            bx          lr                                      
                            ;************************************************************************************************
                            ;*                                           FUNCTION                                           *
                            ;************************************************************************************************
                            ;undefined FUN_080026a8(void)
                                                          ;XREF[1,0]:   08003300
ram:080026a8    0249            ldr         r1,[DAT_080026b4]                       ;= 40013800h
ram:080026aa    0220            movs        r0,#0x2                                 
ram:080026ac    0883            strh        r0,[r1,#offset DAT_40013818 &0xff]      
ram:080026ae    7047            bx          lr                                      
                            DAT_080026b0:                 ;XREF[3,0]:   080025d6,08002622,0800266e
ram:080026b0    40000240        undefined4  40020040h                               
                            DAT_080026b4:                 ;XREF[5,0]:   080025dc,08002612,08002660,08002694
                                                          ;             080026a8
ram:080026b4    00380140        undefined4  40013800h                               
                            DAT_080026b8:                 ;XREF[3,0]:   080025e8,08002648,0800267e
ram:080026b8    24380140        undefined4  40013824h                               
                            DAT_080026bc:                 ;XREF[3,0]:   080025ec,080025fc,08002666
ram:080026bc    94030020        undefined4  20000394h                               
                            DAT_080026c0:                 ;XREF[3,0]:   080025f0,0800264e,08002684
ram:080026c0    81220000        undefined4  00002281h                               
                            DAT_080026c4:                 ;XREF[1,0]:   080025fe
ram:080026c4    96030020        undefined4  20000396h                               
                            DAT_080026c8:                 ;XREF[1,0]:   08002614
ram:080026c8    49140000        undefined4  00001449h                               
                            DAT_080026cc:                 ;XREF[1,0]:   08002624
ram:080026cc    90120000        undefined4  00001290h                               
                            DAT_080026d0:                 ;XREF[1,0]:   0800262e
ram:080026d0    28380140        undefined4  40013828h                               
                            DAT_080026d4:                 ;XREF[1,0]:   08002634
ram:080026d4    91120000        undefined4  00001291h                               
                            DAT_080026d8:                 ;XREF[1,0]:   08002688
ram:080026d8    4d140000        undefined4  0000144Dh                               
                            DAT_080026dc:                 ;XREF[1,0]:   0800268c
ram:080026dc    00080048        undefined4  48000800h                               
                            ;************************************************************************************************
                            ;*                                           FUNCTION                                           *
                            ;************************************************************************************************
                            ;undefined FUN_080026e0(uint param_1, int param_2)
          ;param_1       uint                r0                      
          ;param_2       int                 r1                      
                                                          ;XREF[3,0]:   08002f66,08002f7a,08002fa0
ram:080026e0    0428            cmp         param_1,#0x4                            
ram:080026e2    0bd2            bcs         LAB_080026fc                            
ram:080026e4    314a            ldr         r2,[PTR_DAT_080027ac]                   ;= 08005428
ram:080026e6    324b            ldr         r3,[PTR_DAT_080027b0]                   ;= 08005438
ram:080026e8    8000            lsls        param_1,param_1,#0x2                    
ram:080026ea    0029            cmp         param_2,#0x0                            
ram:080026ec    07d0            beq         LAB_080026fe                            
ram:080026ee    1158            ldr         param_2,[r2,param_1]=>DAT_08005428      
ram:080026f0    0922            movs        r2,#0x9                                 
ram:080026f2    d206            lsls        r2,r2,#0x1b                             
ram:080026f4    9161            str         param_2,[r2,#offset DAT_48000018 &0xff] 
ram:080026f6    2f49            ldr         param_2,[DAT_080027b4]                  ;= 48000400h
ram:080026f8    1858            ldr         param_1,[r3,param_1]=>DAT_08005438      
ram:080026fa    8861            str         param_1,[param_2,#offset DAT_48000418...
                            LAB_080026fc:                 ;XREF[1,0]:   080026e2
ram:080026fc    7047            bx          lr                                      
                            LAB_080026fe:                 ;XREF[1,0]:   080026ec
ram:080026fe    115a            ldrh        param_2,[r2,param_1]=>DAT_08005428      
ram:08002700    2d4a            ldr         r2,[DAT_080027b8]                       ;= 48000020h
ram:08002702    1181            strh        param_2,[r2,#0x8]=>DAT_48000028         
ram:08002704    2d49            ldr         param_2,[DAT_080027bc]                  ;= 48000420h
ram:08002706    185a            ldrh        param_1,[r3,param_1]=>DAT_08005438      
ram:08002708    0881            strh        param_1,[param_2,#0x8]=>DAT_48000428    
ram:0800270a    7047            bx          lr                                      
                            ;************************************************************************************************
                            ;*                                           FUNCTION                                           *
                            ;************************************************************************************************
                            ;undefined FUN_0800270c(uint param_1, int param_2)
          ;param_1       uint                r0                      
          ;param_2       int                 r1                      
                                                          ;XREF[4,0]:   08002f5c,08002f72,08002f86,08002f98
ram:0800270c    0428            cmp         param_1,#0x4                            
ram:0800270e    0bd2            bcs         LAB_08002728                            
ram:08002710    2b4a            ldr         r2,[PTR_DAT_080027c0]                   ;= 08005448
ram:08002712    2c4b            ldr         r3,[PTR_DAT_080027c4]                   ;= 08005458
ram:08002714    8000            lsls        param_1,param_1,#0x2                    
ram:08002716    0029            cmp         param_2,#0x0                            
ram:08002718    07d0            beq         LAB_0800272a                            
ram:0800271a    1158            ldr         param_2,[r2,param_1]=>DAT_08005448      
ram:0800271c    0922            movs        r2,#0x9                                 
ram:0800271e    d206            lsls        r2,r2,#0x1b                             
ram:08002720    9161            str         param_2,[r2,#offset DAT_48000018 &0xff] 
ram:08002722    2449            ldr         param_2,[DAT_080027b4]                  ;= 48000400h
ram:08002724    1858            ldr         param_1,[r3,param_1]=>DAT_08005458      
ram:08002726    8861            str         param_1,[param_2,#offset DAT_48000418...
                            LAB_08002728:                 ;XREF[1,0]:   0800270e
ram:08002728    7047            bx          lr                                      
                            LAB_0800272a:                 ;XREF[1,0]:   08002718
ram:0800272a    115a            ldrh        param_2,[r2,param_1]=>DAT_08005448      
ram:0800272c    224a            ldr         r2,[DAT_080027b8]                       ;= 48000020h
ram:0800272e    1181            strh        param_2,[r2,#0x8]=>DAT_48000028         
ram:08002730    2249            ldr         param_2,[DAT_080027bc]                  ;= 48000420h
ram:08002732    185a            ldrh        param_1,[r3,param_1]=>DAT_08005458      
ram:08002734    0881            strh        param_1,[param_2,#0x8]=>DAT_48000428    
ram:08002736    7047            bx          lr                                      
ram:08002738    0200            movs        r2,r0                                   
ram:0800273a    10b5            push        {r4,lr}                                 
ram:0800273c    2249            ldr         r1,[DAT_080027c8]                       ;= 00000400h
ram:0800273e    2348            ldr         r0=>DAT_48000000,[DAT_080027cc]         ;= 48000000h
ram:08002740    13d0            beq         FUN_0800276a                            
ram:08002742    012a            cmp         r2,#0x1                                 
ram:08002744    06d0            beq         FUN_08002754                            
ram:08002746    1b48            ldr         r0=>DAT_48000400,[DAT_080027b4]         ;= 48000400h
ram:08002748    032a            cmp         r2,#0x3                                 
ram:0800274a    09d0            beq         FUN_08002760                            
ram:0800274c    042a            cmp         r2,#0x4                                 
ram:0800274e    0cd0            beq         FUN_0800276a                            
ram:08002750    0020            movs        r0,#0x0                                 
ram:08002752    10bd            pop         {r4,pc}                                 
                            ;************************************************************************************************
                            ;*                                           FUNCTION                                           *
                            ;************************************************************************************************
                            ;bool FUN_08002754(int param_1)
          ;param_1       int                 r0                      
                                                          ;XREF[1,0]:   08002744
ram:08002754    0121            movs        r1,#0x1                                 
ram:08002756    0903            lsls        r1,r1,#0xc                              
ram:08002758    01f0abfc        bl          FUN_080040b2                            ;bool FUN_080040b2(int param_1, ushor...
ram:0800275c    40b2            sxtb        param_1,param_1                         
ram:0800275e    10bd            pop         {r4,pc}                                 
                            ;************************************************************************************************
                            ;*                                           FUNCTION                                           *
                            ;************************************************************************************************
                            ;bool FUN_08002760(int param_1)
          ;param_1       int                 r0                      
                                                          ;XREF[1,0]:   0800274a
ram:08002760    1021            movs        r1,#0x10                                
ram:08002762    01f0a6fc        bl          FUN_080040b2                            ;bool FUN_080040b2(int param_1, ushor...
ram:08002766    40b2            sxtb        param_1,param_1                         
ram:08002768    10bd            pop         {r4,pc}                                 
                            ;************************************************************************************************
                            ;*                                           FUNCTION                                           *
                            ;************************************************************************************************
                            ;bool FUN_0800276a(int param_1, ushort param_2)
          ;param_1       int                 r0                      
          ;param_2       ushort              r1                      
                                                          ;XREF[2,0]:   08002740,0800274e
ram:0800276a    01f0a2fc        bl          FUN_080040b2                            ;bool FUN_080040b2(int param_1, ushor...
ram:0800276e    40b2            sxtb        param_1,param_1                         
ram:08002770    10bd            pop         {r4,pc}                                 
ram:08002772    0200            movs        r2,r0                                   
ram:08002774    10b5            push        {r4,lr}                                 
ram:08002776    1649            ldr         r1,[DAT_080027d0]                       ;= 00000800h
ram:08002778    1448            ldr         r0=>DAT_48000000,[DAT_080027cc]         ;= 48000000h
ram:0800277a    13d0            beq         FUN_080027a4                            
ram:0800277c    012a            cmp         r2,#0x1                                 
ram:0800277e    06d0            beq         FUN_0800278e                            
ram:08002780    0c48            ldr         r0=>DAT_48000400,[DAT_080027b4]         ;= 48000400h
ram:08002782    032a            cmp         r2,#0x3                                 
ram:08002784    09d0            beq         FUN_0800279a                            
ram:08002786    042a            cmp         r2,#0x4                                 
ram:08002788    0cd0            beq         FUN_080027a4                            
ram:0800278a    0020            movs        r0,#0x0                                 
ram:0800278c    10bd            pop         {r4,pc}                                 
                            ;************************************************************************************************
                            ;*                                           FUNCTION                                           *
                            ;************************************************************************************************
                            ;bool FUN_0800278e(int param_1)
          ;param_1       int                 r0                      
                                                          ;XREF[1,0]:   0800277e
ram:0800278e    0121            movs        r1,#0x1                                 
ram:08002790    c903            lsls        r1,r1,#0xf                              
ram:08002792    01f08efc        bl          FUN_080040b2                            ;bool FUN_080040b2(int param_1, ushor...
ram:08002796    40b2            sxtb        param_1,param_1                         
ram:08002798    10bd            pop         {r4,pc}                                 
                            ;************************************************************************************************
                            ;*                                           FUNCTION                                           *
                            ;************************************************************************************************
                            ;bool FUN_0800279a(int param_1)
          ;param_1       int                 r0                      
                                                          ;XREF[1,0]:   08002784
ram:0800279a    2021            movs        r1,#0x20                                
ram:0800279c    01f089fc        bl          FUN_080040b2                            ;bool FUN_080040b2(int param_1, ushor...
ram:080027a0    40b2            sxtb        param_1,param_1                         
ram:080027a2    10bd            pop         {r4,pc}                                 
                            ;************************************************************************************************
                            ;*                                           FUNCTION                                           *
                            ;************************************************************************************************
                            ;bool FUN_080027a4(int param_1, ushort param_2)
          ;param_1       int                 r0                      
          ;param_2       ushort              r1                      
                                                          ;XREF[2,0]:   0800277a,08002788
ram:080027a4    01f085fc        bl          FUN_080040b2                            ;bool FUN_080040b2(int param_1, ushor...
ram:080027a8    40b2            sxtb        param_1,param_1                         
ram:080027aa    10bd            pop         {r4,pc}                                 
                            PTR_DAT_080027ac:             ;XREF[1,0]:   080026e4
ram:080027ac    28540008        addr        DAT_08005428                            
                            PTR_DAT_080027b0:             ;XREF[1,0]:   080026e6
ram:080027b0    38540008        addr        DAT_08005438                            
                            DAT_080027b4:                 ;XREF[4,0]:   080026f6,08002722,08002746,08002780
ram:080027b4    00040048        undefined4  48000400h                               
                            DAT_080027b8:                 ;XREF[2,0]:   08002700,0800272c
ram:080027b8    20000048        undefined4  48000020h                               
                            DAT_080027bc:                 ;XREF[2,0]:   08002704,08002730
ram:080027bc    20040048        undefined4  48000420h                               
                            PTR_DAT_080027c0:             ;XREF[1,0]:   08002710
ram:080027c0    48540008        addr        DAT_08005448                            
                            PTR_DAT_080027c4:             ;XREF[1,0]:   08002712
ram:080027c4    58540008        addr        DAT_08005458                            
                            DAT_080027c8:                 ;XREF[1,0]:   0800273c
ram:080027c8    00040000        undefined4  00000400h                               
                            DAT_080027cc:                 ;XREF[2,0]:   0800273e,08002778
ram:080027cc    00000048        undefined4  48000000h                               
                            DAT_080027d0:                 ;XREF[1,0]:   08002776
ram:080027d0    00080000        undefined4  00000800h                               
                            ;************************************************************************************************
                            ;*                                           FUNCTION                                           *
                            ;************************************************************************************************
                            ;undefined FUN_080027d4(void)
                                                          ;XREF[2,0]:   08004c72,08004ecc
ram:080027d4    10b4            push        {r4}                                    
ram:080027d6    0c48            ldr         r0=>DAT_2000016c,[DAT_08002808]         ;= 2000016Ch
ram:080027d8    0168            ldr         r1,[r0,#0x0]=>DAT_2000016c              
ram:080027da    0029            cmp         r1,#0x0                                 
ram:080027dc    01d0            beq         LAB_080027e2                            
ram:080027de    491e            subs        r1,r1,#0x1                              
ram:080027e0    0160            str         r1,[r0,#0x0]=>DAT_2000016c              
                            LAB_080027e2:                 ;XREF[1,0]:   080027dc
ram:080027e2    0a49            ldr         r1,[DAT_0800280c]                       ;= 48001400h
ram:080027e4    0b8a            ldrh        r3,[r1,#offset DAT_48001410 &0xff]      
ram:080027e6    0222            movs        r2,#0x2                                 
ram:080027e8    8468            ldr         r4,[r0,#0x8]=>DAT_20000174              
ram:080027ea    1340            ands        r3,r2                                   
ram:080027ec    a342            cmp         r3,r4                                   
ram:080027ee    01d0            beq         LAB_080027f4                            
ram:080027f0    0523            movs        r3,#0x5                                 
ram:080027f2    0360            str         r3,[r0,#0x0]=>DAT_2000016c              
                            LAB_080027f4:                 ;XREF[1,0]:   080027ee
ram:080027f4    098a            ldrh        r1,[r1,#offset DAT_48001410 &0xff]      
ram:080027f6    1140            ands        r1,r2                                   
ram:080027f8    8160            str         r1,[r0,#0x8]=>DAT_20000174              
ram:080027fa    0268            ldr         r2,[r0,#0x0]=>DAT_2000016c              
ram:080027fc    002a            cmp         r2,#0x0                                 
ram:080027fe    00d1            bne         LAB_08002802                            
ram:08002800    4160            str         r1,[r0,#0x4]=>DAT_20000170              
                            LAB_08002802:                 ;XREF[1,0]:   080027fe
ram:08002802    10bc            pop         {r4}                                    
ram:08002804    7047            bx          lr                                      
ram:08002806    0000            movs        r0,r0                                   
                            DAT_08002808:                 ;XREF[1,0]:   080027d6
ram:08002808    6c010020        undefined4  2000016Ch                               
                            DAT_0800280c:                 ;XREF[1,0]:   080027e2
ram:0800280c    00140048        undefined4  48001400h                               
                            ;************************************************************************************************
                            ;*                                           FUNCTION                                           *
                            ;************************************************************************************************
                            ;undefined FUN_08002810(void)
                                                          ;XREF[1,0]:   08004b00
ram:08002810    10b4            push        {r4}                                    
ram:08002812    b520            movs        r0,#0xb5                                
ram:08002814    6b4a            ldr         r2,[DAT_080029c4]                       ;= 40020000h
ram:08002816    4001            lsls        r0,r0,#0x5                              
ram:08002818    9060            str         r0,[r2,#offset DAT_40020008 &0xff]      
ram:0800281a    0524            movs        r4,#0x5                                 
ram:0800281c    d460            str         r4,[r2,#offset DAT_4002000c &0xff]      
ram:0800281e    6a48            ldr         r0,[DAT_080029c8]                       ;= 40012440h
ram:08002820    1061            str         r0,[r2,#offset DAT_40020010 &0xff]      
ram:08002822    6a48            ldr         r0,[DAT_080029cc]                       ;= 2000049Ah
ram:08002824    5061            str         r0,[r2,#offset DAT_40020014 &0xff]      
ram:08002826    6a48            ldr         r0=>DAT_40012400,[DAT_080029d0]         ;= 40012400h
ram:08002828    8168            ldr         r1,[r0,#offset DAT_40012408 &0xff]      
ram:0800282a    c907            lsls        r1,r1,#0x1f                             
ram:0800282c    0cd0            beq         LAB_08002848                            
ram:0800282e    8168            ldr         r1,[r0,#offset DAT_40012408 &0xff]      
ram:08002830    4907            lsls        r1,r1,#0x1d                             
ram:08002832    04d5            bpl         LAB_0800283e                            
ram:08002834    1021            movs        r1,#0x10                                
ram:08002836    8160            str         r1,[r0,#offset DAT_40012408 &0xff]      
                            LAB_08002838:                 ;XREF[1,0]:   0800283c
ram:08002838    8168            ldr         r1,[r0,#offset DAT_40012408 &0xff]      
ram:0800283a    c906            lsls        r1,r1,#0x1b                             
ram:0800283c    fcd4            bmi         LAB_08002838                            
                            LAB_0800283e:                 ;XREF[1,0]:   08002832
ram:0800283e    0221            movs        r1,#0x2                                 
ram:08002840    8160            str         r1,[r0,#offset DAT_40012408 &0xff]      
                            LAB_08002842:                 ;XREF[1,0]:   08002846
ram:08002842    8168            ldr         r1,[r0,#offset DAT_40012408 &0xff]      
ram:08002844    8907            lsls        r1,r1,#0x1e                             
ram:08002846    fcd4            bmi         LAB_08002842                            
                            LAB_08002848:                 ;XREF[1,0]:   0800282c
ram:08002848    c168            ldr         r1,[r0,#offset DAT_4001240c &0xff]      
ram:0800284a    1823            movs        r3,#0x18                                
ram:0800284c    9943            bics        r1,r3                                   
ram:0800284e    c160            str         r1,[r0,#offset DAT_4001240c &0xff]      
ram:08002850    0023            movs        r3,#0x0                                 
ram:08002852    0361            str         r3,[r0,#offset DAT_40012410 &0xff]      
ram:08002854    0121            movs        r1,#0x1                                 
ram:08002856    c907            lsls        r1,r1,#0x1f                             
ram:08002858    8160            str         r1,[r0,#offset DAT_40012408 &0xff]      
                            LAB_0800285a:                 ;XREF[1,0]:   0800285e
ram:0800285a    8168            ldr         r1,[r0,#offset DAT_40012408 &0xff]      
ram:0800285c    0029            cmp         r1,#0x0                                 
ram:0800285e    fcdb            blt         LAB_0800285a                            
ram:08002860    0121            movs        r1,#0x1                                 
ram:08002862    8160            str         r1,[r0,#offset DAT_40012408 &0xff]      
                            LAB_08002864:                 ;XREF[1,0]:   08002868
ram:08002864    0168            ldr         r1,[r0,#0x0]=>DAT_40012400              
ram:08002866    c907            lsls        r1,r1,#0x1f                             
ram:08002868    fcd0            beq         LAB_08002864                            
ram:0800286a    0021            movs        r1,#0x0                                 
ram:0800286c    c943            mvns        r1,r1                                   
ram:0800286e    0160            str         r1,[r0,#0x0]=>DAT_40012400              
ram:08002870    4360            str         r3,[r0,#offset DAT_40012404 &0xff]      
ram:08002872    5849            ldr         r1,[DAT_080029d4]                       ;= 00008003h
ram:08002874    c160            str         r1,[r0,#offset DAT_4001240c &0xff]      
ram:08002876    4461            str         r4,[r0,#offset DAT_40012414 &0xff]      
ram:08002878    3b21            movs        r1,#0x3b                                
ram:0800287a    8162            str         r1,[r0,#offset DAT_40012428 &0xff]      
ram:0800287c    5649            ldr         r1,[DAT_080029d8]                       ;= 40012700h
ram:0800287e    8b60            str         r3,[r1,#offset DAT_40012708 &0xff]      
ram:08002880    5649            ldr         r1,[DAT_080029dc]                       ;= 000016A1h
ram:08002882    9160            str         r1,[r2,#offset DAT_40020008 &0xff]      
ram:08002884    0421            movs        r1,#0x4                                 
ram:08002886    8160            str         r1,[r0,#offset DAT_40012408 &0xff]      
ram:08002888    10bc            pop         {r4}                                    
ram:0800288a    7047            bx          lr                                      
                            ;************************************************************************************************
                            ;*                                           FUNCTION                                           *
                            ;************************************************************************************************
                            ;undefined FUN_0800288c(void)
                                                          ;XREF[1,0]:   08004d34
ram:0800288c    f0b4            push        {r4,r5,r6,r7}                           
ram:0800288e    5048            ldr         r0,[DAT_080029d0]                       ;= 40012400h
ram:08002890    0068            ldr         r0,[r0,#0x0]=>DAT_40012400              
ram:08002892    0007            lsls        r0,r0,#0x1c                             
ram:08002894    7ed5            bpl         LAB_08002994                            
ram:08002896    5249            ldr         r1,[DAT_080029e0]                       ;= 200002E0h
ram:08002898    4c48            ldr         r0,[DAT_080029cc]                       ;= 2000049Ah
ram:0800289a    0a68            ldr         r2,[r1,#0x0]=>DAT_200002e0              
ram:0800289c    0388            ldrh        r3,[r0,#0x0]=>DAT_2000049a              
ram:0800289e    d218            adds        r2,r2,r3                                
ram:080028a0    0a60            str         r2,[r1,#0x0]=>DAT_200002e0              
ram:080028a2    4388            ldrh        r3,[r0,#0x2]=>DAT_2000049c              
ram:080028a4    4a68            ldr         r2,[r1,#0x4]=>DAT_200002e4              
ram:080028a6    d218            adds        r2,r2,r3                                
ram:080028a8    4a60            str         r2,[r1,#0x4]=>DAT_200002e4              
ram:080028aa    8388            ldrh        r3,[r0,#0x4]=>DAT_2000049e              
ram:080028ac    8a68            ldr         r2,[r1,#0x8]=>DAT_200002e8              
ram:080028ae    d218            adds        r2,r2,r3                                
ram:080028b0    8a60            str         r2,[r1,#0x8]=>DAT_200002e8              
ram:080028b2    c388            ldrh        r3,[r0,#0x6]=>DAT_200004a0              
ram:080028b4    ca68            ldr         r2,[r1,#0xc]=>DAT_200002ec              
ram:080028b6    d218            adds        r2,r2,r3                                
ram:080028b8    ca60            str         r2,[r1,#0xc]=>DAT_200002ec              
ram:080028ba    0089            ldrh        r0,[r0,#0x8]=>DAT_200004a2              
ram:080028bc    0a69            ldr         r2,[r1,#0x10]=>DAT_200002f0             
ram:080028be    1018            adds        r0,r2,r0                                
ram:080028c0    0861            str         r0,[r1,#0x10]=>DAT_200002f0             
ram:080028c2    4848            ldr         r0,[DAT_080029e4]                       ;= 20000178h
ram:080028c4    0268            ldr         r2,[r0,#0x0]=>DAT_20000178              
ram:080028c6    521e            subs        r2,r2,#0x1                              
ram:080028c8    0260            str         r2,[r0,#0x0]=>DAT_20000178              
ram:080028ca    69d1            bne         LAB_080029a0                            
ram:080028cc    0122            movs        r2,#0x1                                 
ram:080028ce    9202            lsls        r2,r2,#0xa                              
ram:080028d0    0260            str         r2,[r0,#0x0]=>DAT_20000178              
ram:080028d2    4548            ldr         r0,[DAT_080029e8]                       ;= 200001A6h
ram:080028d4    0a24            movs        r4,#0xa                                 
ram:080028d6    0278            ldrb        r2,[r0,#0x0]=>DAT_200001a6              
ram:080028d8    4448            ldr         r0,[DAT_080029ec]                       ;= 200002D0h
ram:080028da    002a            cmp         r2,#0x0                                 
ram:080028dc    00d0            beq         LAB_080028e0                            
ram:080028de    0460            str         r4,[r0,#0x0]=>DAT_200002d0              
                            LAB_080028e0:                 ;XREF[1,0]:   080028dc
ram:080028e0    434a            ldr         r2,[PTR_DAT_080029f0]                   ;= 08005478
ram:080028e2    3f49            ldr         r1,[DAT_080029e0]                       ;= 200002E0h
ram:080028e4    1268            ldr         r2,[r2,#0x0]=>DAT_08005478              ;= 00000002h
ram:080028e6    0768            ldr         r7,[r0,#0x0]=>DAT_200002d0              
ram:080028e8    9200            lsls        r2,r2,#0x2                              
ram:080028ea    8d58            ldr         r5,[r1,r2]=>DAT_200002e8                
ram:080028ec    414a            ldr         r2,[PTR_DAT_080029f4]                   ;= 08005468
ram:080028ee    0023            movs        r3,#0x0                                 
ram:080028f0    1268            ldr         r2,[r2,#0x0]=>DAT_08005468              
ram:080028f2    bc46            mov         r12,r7                                  
ram:080028f4    9200            lsls        r2,r2,#0x2                              
ram:080028f6    8958            ldr         r1=>DAT_200002e0,[r1,r2]                
ram:080028f8    404a            ldr         r2,[DAT_080029fc]                       ;= 2000017Ch
ram:080028fa    6e1a            subs        r6,r5,r1                                
ram:080028fc    3e49            ldr         r1,[DAT_080029f8]                       ;= 200002C0h
ram:080028fe    002f            cmp         r7,#0x0                                 
ram:08002900    53d0            beq         LAB_080029aa                            
ram:08002902    0f68            ldr         r7,[r1,#0x0]=>DAT_200002c0              
ram:08002904    f61b            subs        r6,r6,r7                                
ram:08002906    b611            asrs        r6,r6,#0x6                              
ram:08002908    1680            strh        r6,[r2,#0x0]=>DAT_2000017c              
ram:0800290a    6646            mov         r6,r12                                  
ram:0800290c    761e            subs        r6,r6,#0x1                              
ram:0800290e    0660            str         r6,[r0,#0x0]=>DAT_200002d0              
                            LAB_08002910:                 ;XREF[1,0]:   080029ae
ram:08002910    354e            ldr         r6,[DAT_080029e8]                       ;= 200001A6h
ram:08002912    7678            ldrb        r6,[r6,#0x1]=>DAT_200001a7              
ram:08002914    002e            cmp         r6,#0x0                                 
ram:08002916    00d0            beq         LAB_0800291a                            
ram:08002918    4460            str         r4,[r0,#0x4]=>DAT_200002d4              
                            LAB_0800291a:                 ;XREF[1,0]:   08002916
ram:0800291a    364e            ldr         r6,[PTR_DAT_080029f4]                   ;= 08005468
ram:0800291c    7668            ldr         r6,[r6,#0x4]=>DAT_0800546c              ;= 00000001h
ram:0800291e    b700            lsls        r7,r6,#0x2                              
ram:08002920    2f4e            ldr         r6,[DAT_080029e0]                       ;= 200002E0h
ram:08002922    f659            ldr         r6,[r6,r7]=>DAT_200002e4                
ram:08002924    4768            ldr         r7,[r0,#0x4]=>DAT_200002d4              
ram:08002926    ae1b            subs        r6,r5,r6                                
ram:08002928    bc46            mov         r12,r7                                  
ram:0800292a    002f            cmp         r7,#0x0                                 
ram:0800292c    40d0            beq         LAB_080029b0                            
ram:0800292e    4f68            ldr         r7,[r1,#0x4]=>DAT_200002c4              
ram:08002930    f61b            subs        r6,r6,r7                                
ram:08002932    b611            asrs        r6,r6,#0x6                              
ram:08002934    5680            strh        r6,[r2,#0x2]=>DAT_2000017e              
ram:08002936    6646            mov         r6,r12                                  
ram:08002938    761e            subs        r6,r6,#0x1                              
ram:0800293a    4660            str         r6,[r0,#0x4]=>DAT_200002d4              
                            LAB_0800293c:                 ;XREF[1,0]:   080029b4
ram:0800293c    2a4e            ldr         r6,[DAT_080029e8]                       ;= 200001A6h
ram:0800293e    b678            ldrb        r6,[r6,#0x2]=>DAT_200001a8              
ram:08002940    002e            cmp         r6,#0x0                                 
ram:08002942    00d0            beq         LAB_08002946                            
ram:08002944    8460            str         r4,[r0,#0x8]=>DAT_200002d8              
                            LAB_08002946:                 ;XREF[1,0]:   08002942
ram:08002946    2b4e            ldr         r6,[PTR_DAT_080029f4]                   ;= 08005468
ram:08002948    b668            ldr         r6,[r6,#0x8]=>DAT_08005470              ;= 00000003h
ram:0800294a    b700            lsls        r7,r6,#0x2                              
ram:0800294c    244e            ldr         r6,[DAT_080029e0]                       ;= 200002E0h
ram:0800294e    f659            ldr         r6,[r6,r7]=>DAT_200002ec                
ram:08002950    8768            ldr         r7,[r0,#0x8]=>DAT_200002d8              
ram:08002952    ae1b            subs        r6,r5,r6                                
ram:08002954    bc46            mov         r12,r7                                  
ram:08002956    002f            cmp         r7,#0x0                                 
ram:08002958    2dd0            beq         LAB_080029b6                            
ram:0800295a    8f68            ldr         r7,[r1,#0x8]=>DAT_200002c8              
ram:0800295c    f61b            subs        r6,r6,r7                                
ram:0800295e    b611            asrs        r6,r6,#0x6                              
ram:08002960    9680            strh        r6,[r2,#0x4]=>DAT_20000180              
ram:08002962    6646            mov         r6,r12                                  
ram:08002964    761e            subs        r6,r6,#0x1                              
ram:08002966    8660            str         r6,[r0,#0x8]=>DAT_200002d8              
                            LAB_08002968:                 ;XREF[1,0]:   080029ba
ram:08002968    1f4e            ldr         r6,[DAT_080029e8]                       ;= 200001A6h
ram:0800296a    f678            ldrb        r6,[r6,#0x3]=>DAT_200001a9              
ram:0800296c    002e            cmp         r6,#0x0                                 
ram:0800296e    00d0            beq         LAB_08002972                            
ram:08002970    c460            str         r4,[r0,#0xc]=>DAT_200002dc              
                            LAB_08002972:                 ;XREF[1,0]:   0800296e
ram:08002972    204e            ldr         r6,[PTR_DAT_080029f4]                   ;= 08005468
ram:08002974    1a4c            ldr         r4,[DAT_080029e0]                       ;= 200002E0h
ram:08002976    f668            ldr         r6,[r6,#0xc]=>DAT_08005474              ;= 00000004h
ram:08002978    b600            lsls        r6,r6,#0x2                              
ram:0800297a    a459            ldr         r4,[r4,r6]=>DAT_200002f0                
ram:0800297c    2c1b            subs        r4,r5,r4                                
ram:0800297e    c568            ldr         r5,[r0,#0xc]=>DAT_200002dc              
ram:08002980    002d            cmp         r5,#0x0                                 
ram:08002982    1bd0            beq         LAB_080029bc                            
ram:08002984    c968            ldr         r1,[r1,#0xc]=>DAT_200002cc              
ram:08002986    611a            subs        r1,r4,r1                                
ram:08002988    8911            asrs        r1,r1,#0x6                              
ram:0800298a    d180            strh        r1,[r2,#0x6]=>DAT_20000182              
ram:0800298c    6d1e            subs        r5,r5,#0x1                              
ram:0800298e    c560            str         r5,[r0,#0xc]=>DAT_200002dc              
                            LAB_08002990:                 ;XREF[1,0]:   080029c0
ram:08002990    1948            ldr         r0,[DAT_080029f8]                       ;= 200002C0h
ram:08002992    00e0            b           LAB_08002996                            
                            LAB_08002994:                 ;XREF[1,0]:   08002894
ram:08002994    07e0            b           LAB_080029a6                            
                            LAB_08002996:                 ;XREF[1,0]:   08002992
ram:08002996    0362            str         r3,[r0,#0x20]=>DAT_200002e0             
ram:08002998    4362            str         r3,[r0,#0x24]=>DAT_200002e4             
ram:0800299a    8362            str         r3,[r0,#0x28]=>DAT_200002e8             
ram:0800299c    c362            str         r3,[r0,#0x2c]=>DAT_200002ec             
ram:0800299e    0363            str         r3,[r0,#0x30]=>DAT_200002f0             
                            LAB_080029a0:                 ;XREF[1,0]:   080028ca
ram:080029a0    0b48            ldr         r0=>DAT_40012400,[DAT_080029d0]         ;= 40012400h
ram:080029a2    0421            movs        r1,#0x4                                 
ram:080029a4    8160            str         r1,[r0,#offset DAT_40012408 &0xff]      
                            LAB_080029a6:                 ;XREF[1,0]:   08002994
ram:080029a6    f0bc            pop         {r4,r5,r6,r7}                           
ram:080029a8    7047            bx          lr                                      
                            LAB_080029aa:                 ;XREF[1,0]:   08002900
ram:080029aa    0e60            str         r6,[r1,#0x0]=>DAT_200002c0              
ram:080029ac    1380            strh        r3,[r2,#0x0]=>DAT_2000017c              
ram:080029ae    afe7            b           LAB_08002910                            
                            LAB_080029b0:                 ;XREF[1,0]:   0800292c
ram:080029b0    4e60            str         r6,[r1,#0x4]=>DAT_200002c4              
ram:080029b2    5380            strh        r3,[r2,#0x2]=>DAT_2000017e              
ram:080029b4    c2e7            b           LAB_0800293c                            
                            LAB_080029b6:                 ;XREF[1,0]:   08002958
ram:080029b6    8e60            str         r6,[r1,#0x8]=>DAT_200002c8              
ram:080029b8    9380            strh        r3,[r2,#0x4]=>DAT_20000180              
ram:080029ba    d5e7            b           LAB_08002968                            
                            LAB_080029bc:                 ;XREF[1,0]:   08002982
ram:080029bc    cc60            str         r4,[r1,#0xc]=>DAT_200002cc              
ram:080029be    d380            strh        r3,[r2,#0x6]=>DAT_20000182              
ram:080029c0    e6e7            b           LAB_08002990                            
ram:080029c2    0000            movs        r0,r0                                   
                            DAT_080029c4:                 ;XREF[1,0]:   08002814
ram:080029c4    00000240        undefined4  40020000h                               
                            DAT_080029c8:                 ;XREF[1,0]:   0800281e
ram:080029c8    40240140        undefined4  40012440h                               
                            DAT_080029cc:                 ;XREF[2,0]:   08002822,08002898
ram:080029cc    9a040020        undefined4  2000049Ah                               
                            DAT_080029d0:                 ;XREF[3,0]:   08002826,0800288e,080029a0
ram:080029d0    00240140        undefined4  40012400h                               
                            DAT_080029d4:                 ;XREF[1,0]:   08002872
ram:080029d4    03800000        undefined4  00008003h                               
                            DAT_080029d8:                 ;XREF[1,0]:   0800287c
ram:080029d8    00270140        undefined4  40012700h                               
                            DAT_080029dc:                 ;XREF[1,0]:   08002880
ram:080029dc    a1160000        undefined4  000016A1h                               
                            DAT_080029e0:                 ;XREF[5,0]:   08002896,080028e2,08002920,0800294c
                                                          ;             08002974
ram:080029e0    e0020020        undefined4  200002E0h                               
                            DAT_080029e4:                 ;XREF[1,0]:   080028c2
ram:080029e4    78010020        undefined4  20000178h                               
                            DAT_080029e8:                 ;XREF[4,0]:   080028d2,08002910,0800293c,08002968
ram:080029e8    a6010020        undefined4  200001A6h                               
                            DAT_080029ec:                 ;XREF[1,0]:   080028d8
ram:080029ec    d0020020        undefined4  200002D0h                               
                            PTR_DAT_080029f0:             ;XREF[1,0]:   080028e0
ram:080029f0    78540008        addr        DAT_08005478                            ;= 00000002h
                            PTR_DAT_080029f4:             ;XREF[4,0]:   080028ec,0800291a,08002946,08002972
ram:080029f4    68540008        addr        DAT_08005468                            
                            DAT_080029f8:                 ;XREF[2,0]:   080028fc,08002990
ram:080029f8    c0020020        undefined4  200002C0h                               
                            DAT_080029fc:                 ;XREF[1,0]:   080028f8
ram:080029fc    7c010020        undefined4  2000017Ch                               
                            ;************************************************************************************************
                            ;*                                           FUNCTION                                           *
                            ;************************************************************************************************
                            ;undefined FUNC_VT_08002a00(void)
          ;local_1c      undefined4         -1c                      ;XREF[1,0]:   08002a14
          ;local_20      undefined4         -20                      ;XREF[2,0]:   08002a16,08002afa
          ;local_24      undefined4         -24                      ;XREF[1,0]:   08002a0a
          ;local_28      undefined4         -28                      ;XREF[3,0]:   08002a0c,08002a88,08002a94
          ;local_38      undefined4         -38                      ;XREF[1,0]:   08002a1c
          ;local_40      undefined4         -40                      ;XREF[6,0]:   08002ab6,08002ac2,08002ace,08002ada,08002ae2
                                                                     ;             08002bf0
                                                          ;XREF[0,1]:   08000c90
ram:08002a00    f0b5            push        {r4,r5,r6,r7,lr}                        
ram:08002a02    fc48            ldr         r0,[PTR_DAT_08002df4]                   ;= 0800547c
ram:08002a04    8bb0            sub         sp,#0x2c                                
ram:08002a06    4268            ldr         r2,[r0,#0x4]=>DAT_08005480              ;= 00100008h
ram:08002a08    0168            ldr         r1,[r0,#0x0]=>DAT_0800547c              ;= 00040002h
ram:08002a0a    0792            str         r2,[sp,#local_24+0x40]                  
ram:08002a0c    0691            str         r1,[sp,#local_28+0x40]                  
ram:08002a0e    c268            ldr         r2,[r0,#0xc]=>DAT_08005488              ;= 00020001h
ram:08002a10    8168            ldr         r1,[r0,#0x8]=>DAT_08005484              ;= 00800040h
ram:08002a12    1030            adds        r0,#0x10                                
ram:08002a14    0992            str         r2,[sp,#local_1c+0x40]                  
ram:08002a16    0891            str         r1,[sp,#local_20+0x40]                  
                                                          ; FWD[5,0]:   0800548c,08005490,08005494,08005498
                                                          ;             48000400
ram:08002a18    0fc8            ldmia       r0,{r0,r1,r2,r3}=>DAT_0800548c          ;= 48000000h
                                                                                    ;= 48000400h
ram:08002a1a    02ac            add         r4,sp,#0x8                              
                                                          ; FWD[3,0]:   Stack[-0x38],48000000,48000400
ram:08002a1c    0fc4            stmia       r4!=>local_38,{r0,r1,r2,r3}=>DAT_4800...
ram:08002a1e    f64f            ldr         r7,[DAT_08002df8]                       ;= 40000400h
ram:08002a20    0121            movs        r1,#0x1                                 
ram:08002a22    3846            mov         r0,r7                                   
ram:08002a24    01f0bcf9        bl          FUN_08003da0                            ;bool FUN_08003da0(int param_1, ushor...
ram:08002a28    f44e            ldr         r6,[DAT_08002dfc]                       ;= 0000FFFFh
ram:08002a2a    f54c            ldr         r4,[DAT_08002e00]                       ;= 20000334h
ram:08002a2c    0028            cmp         r0,#0x0                                 
ram:08002a2e    27d0            beq         LAB_08002a80                            
ram:08002a30    0121            movs        r1,#0x1                                 
ram:08002a32    3846            mov         r0,r7                                   
ram:08002a34    01f0bbf9        bl          FUN_08003dae                            ;undefined FUN_08003dae(int param_1, ...
ram:08002a38    2168            ldr         r1,[r4,#0x0]=>DAT_20000334              
ram:08002a3a    0029            cmp         r1,#0x0                                 
ram:08002a3c    01d0            beq         LAB_08002a42                            
ram:08002a3e    f148            ldr         r0,[DAT_08002e04]                       ;= 2000019Ah
ram:08002a40    0680            strh        r6,[r0,#0x0]=>DAT_2000019a              
                            LAB_08002a42:                 ;XREF[1,0]:   08002a3c
ram:08002a42    481c            adds        r0,r1,#0x1                              
ram:08002a44    01d0            beq         LAB_08002a4a                            
ram:08002a46    491c            adds        r1,r1,#0x1                              
ram:08002a48    2160            str         r1,[r4,#0x0]=>DAT_20000334              
                            LAB_08002a4a:                 ;XREF[1,0]:   08002a44
ram:08002a4a    6068            ldr         r0,[r4,#0x4]=>DAT_20000338              
ram:08002a4c    0028            cmp         r0,#0x0                                 
ram:08002a4e    01d0            beq         LAB_08002a54                            
ram:08002a50    ec49            ldr         r1,[DAT_08002e04]                       ;= 2000019Ah
ram:08002a52    4e80            strh        r6,[r1,#0x2]=>DAT_2000019c              
                            LAB_08002a54:                 ;XREF[1,0]:   08002a4e
ram:08002a54    411c            adds        r1,r0,#0x1                              
ram:08002a56    01d0            beq         LAB_08002a5c                            
ram:08002a58    401c            adds        r0,r0,#0x1                              
ram:08002a5a    6060            str         r0,[r4,#0x4]=>DAT_20000338              
                            LAB_08002a5c:                 ;XREF[1,0]:   08002a56
ram:08002a5c    a068            ldr         r0,[r4,#0x8]=>DAT_2000033c              
ram:08002a5e    0028            cmp         r0,#0x0                                 
ram:08002a60    01d0            beq         LAB_08002a66                            
ram:08002a62    e849            ldr         r1,[DAT_08002e04]                       ;= 2000019Ah
ram:08002a64    8e80            strh        r6,[r1,#0x4]=>DAT_2000019e              
                            LAB_08002a66:                 ;XREF[1,0]:   08002a60
ram:08002a66    411c            adds        r1,r0,#0x1                              
ram:08002a68    01d0            beq         LAB_08002a6e                            
ram:08002a6a    401c            adds        r0,r0,#0x1                              
ram:08002a6c    a060            str         r0,[r4,#0x8]=>DAT_2000033c              
                            LAB_08002a6e:                 ;XREF[1,0]:   08002a68
ram:08002a6e    e068            ldr         r0,[r4,#0xc]=>DAT_20000340              
ram:08002a70    0028            cmp         r0,#0x0                                 
ram:08002a72    01d0            beq         LAB_08002a78                            
ram:08002a74    e349            ldr         r1,[DAT_08002e04]                       ;= 2000019Ah
ram:08002a76    ce80            strh        r6,[r1,#0x6]=>DAT_200001a0              
                            LAB_08002a78:                 ;XREF[1,0]:   08002a72
ram:08002a78    411c            adds        r1,r0,#0x1                              
ram:08002a7a    01d0            beq         LAB_08002a80                            
ram:08002a7c    401c            adds        r0,r0,#0x1                              
ram:08002a7e    e060            str         r0,[r4,#0xc]=>DAT_20000340              
                            LAB_08002a80:                 ;XREF[2,0]:   08002a2e,08002a7a
ram:08002a80    0025            movs        r5,#0x0                                 
                            LAB_08002a82:                 ;XREF[1,0]:   08002bfc
ram:08002a82    dd4c            ldr         r4,[DAT_08002df8]                       ;= 40000400h
ram:08002a84    6e00            lsls        r6,r5,#0x1                              
ram:08002a86    06af            add         r7,sp,#0x18                             
ram:08002a88    b95b            ldrh        r1,[r7,r6]=>local_28                    
ram:08002a8a    2046            mov         r0,r4                                   
ram:08002a8c    01f088f9        bl          FUN_08003da0                            ;bool FUN_08003da0(int param_1, ushor...
ram:08002a90    0028            cmp         r0,#0x0                                 
ram:08002a92    7dd0            beq         LAB_08002b90                            
ram:08002a94    b95b            ldrh        r1,[r7,r6]=>local_28                    
ram:08002a96    2046            mov         r0,r4                                   
ram:08002a98    01f089f9        bl          FUN_08003dae                            ;undefined FUN_08003dae(int param_1, ...
ram:08002a9c    002d            cmp         r5,#0x0                                 
ram:08002a9e    06d0            beq         LAB_08002aae                            
ram:08002aa0    012d            cmp         r5,#0x1                                 
ram:08002aa2    0ad0            beq         LAB_08002aba                            
ram:08002aa4    022d            cmp         r5,#0x2                                 
ram:08002aa6    0ed0            beq         LAB_08002ac6                            
ram:08002aa8    032d            cmp         r5,#0x3                                 
ram:08002aaa    17d1            bne         LAB_08002adc                            
ram:08002aac    11e0            b           LAB_08002ad2                            
                            LAB_08002aae:                 ;XREF[1,0]:   08002a9e
ram:08002aae    2046            mov         r0,r4                                   
ram:08002ab0    01f064f9        bl          FUN_08003d7c                            ;undefined4 FUN_08003d7c(int param_1)
ram:08002ab4    80b2            uxth        r0,r0                                   
ram:08002ab6    0090            str         r0,[sp,#0x0]=>local_40                  
ram:08002ab8    10e0            b           LAB_08002adc                            
                            LAB_08002aba:                 ;XREF[1,0]:   08002aa2
ram:08002aba    2046            mov         r0,r4                                   
ram:08002abc    01f060f9        bl          FUN_08003d80                            ;undefined4 FUN_08003d80(int param_1)
ram:08002ac0    80b2            uxth        r0,r0                                   
ram:08002ac2    0090            str         r0,[sp,#0x0]=>local_40                  
ram:08002ac4    0ae0            b           LAB_08002adc                            
                            LAB_08002ac6:                 ;XREF[1,0]:   08002aa6
ram:08002ac6    2046            mov         r0,r4                                   
ram:08002ac8    01f05cf9        bl          FUN_08003d84                            ;undefined4 FUN_08003d84(int param_1)
ram:08002acc    80b2            uxth        r0,r0                                   
ram:08002ace    0090            str         r0,[sp,#0x0]=>local_40                  
ram:08002ad0    04e0            b           LAB_08002adc                            
                            LAB_08002ad2:                 ;XREF[1,0]:   08002aac
ram:08002ad2    2046            mov         r0,r4                                   
ram:08002ad4    01f058f9        bl          FUN_08003d88                            ;undefined4 FUN_08003d88(int param_1)
ram:08002ad8    80b2            uxth        r0,r0                                   
ram:08002ada    0090            str         r0,[sp,#0x0]=>local_40                  
                            LAB_08002adc:                 ;XREF[4,0]:   08002aaa,08002ab8,08002ac4,08002ad0
ram:08002adc    ca48            ldr         r0,[DAT_08002e08]                       ;= 2000018Ah
ram:08002ade    ac00            lsls        r4,r5,#0x2                              
ram:08002ae0    815b            ldrh        r1,[r0,r6]=>DAT_2000018a                
ram:08002ae2    0098            ldr         r0,[sp,#0x0]=>local_40                  
ram:08002ae4    401a            subs        r0,r0,r1                                
ram:08002ae6    87b2            uxth        r7,r0                                   
ram:08002ae8    c548            ldr         r0,[DAT_08002e00]                       ;= 20000334h
ram:08002aea    0159            ldr         r1,[r0,r4]=>DAT_20000334                
ram:08002aec    0129            cmp         r1,#0x1                                 
ram:08002aee    00d9            bls         LAB_08002af2                            
ram:08002af0    c64f            ldr         r7,[DAT_08002e0c]                       ;= 00007FFFh
                            LAB_08002af2:                 ;XREF[1,0]:   08002aee
ram:08002af2    c348            ldr         r0,[DAT_08002e00]                       ;= 20000334h
ram:08002af4    0021            movs        r1,#0x0                                 
ram:08002af6    0151            str         r1,[r0,r4]=>DAT_20000334                
ram:08002af8    08a8            add         r0,sp,#0x20                             
ram:08002afa    815b            ldrh        r1,[r0,r6]=>local_20                    
ram:08002afc    02a8            add         r0,sp,#0x8                              
ram:08002afe    0059            ldr         r0=>DAT_48000000,[r0,r4]                
ram:08002b00    01f0cefa        bl          FUN_080040a0                            ;bool FUN_080040a0(int param_1, ushor...
ram:08002b04    0028            cmp         r0,#0x0                                 
ram:08002b06    04d0            beq         LAB_08002b12                            
ram:08002b08    c148            ldr         r0,[DAT_08002e10]                       ;= 20000324h
ram:08002b0a    c249            ldr         r1,[DAT_08002e14]                       ;= 20000314h
ram:08002b0c    0259            ldr         r2,[r0,r4]=>DAT_20000324                
ram:08002b0e    0a51            str         r2,[r1,r4]=>DAT_20000314                
ram:08002b10    6ce0            b           LAB_08002bec                            
                            LAB_08002b12:                 ;XREF[1,0]:   08002b06
ram:08002b12    c14b            ldr         r3,[DAT_08002e18]                       ;= 20000354h
ram:08002b14    1859            ldr         r0,[r3,r4]=>DAT_20000354                
ram:08002b16    0028            cmp         r0,#0x0                                 
ram:08002b18    19d0            beq         LAB_08002b4e                            
ram:08002b1a    c048            ldr         r0,[DAT_08002e1c]                       ;= 20000384h
ram:08002b1c    0159            ldr         r1,[r0,r4]=>DAT_20000384                
ram:08002b1e    491c            adds        r1,r1,#0x1                              
ram:08002b20    0151            str         r1,[r0,r4]=>DAT_20000384                
                            LAB_08002b22:                 ;XREF[2,0]:   08002b58,08002b62
ram:08002b22    bb48            ldr         r0,[DAT_08002e10]                       ;= 20000324h
ram:08002b24    0059            ldr         r0,[r0,r4]=>DAT_20000324                
ram:08002b26    8446            mov         r12,r0                                  
ram:08002b28    c119            adds        r1,r0,r7                                
ram:08002b2a    b548            ldr         r0,[DAT_08002e00]                       ;= 20000334h
ram:08002b2c    0259            ldr         r2,[r0,r4]=>DAT_20000334                
ram:08002b2e    012a            cmp         r2,#0x1                                 
ram:08002b30    00d9            bls         LAB_08002b34                            
ram:08002b32    b249            ldr         r1,[DAT_08002dfc]                       ;= 0000FFFFh
                            LAB_08002b34:                 ;XREF[1,0]:   08002b30
ram:08002b34    0022            movs        r2,#0x0                                 
ram:08002b36    0251            str         r2,[r0,r4]=>DAT_20000334                
ram:08002b38    1a59            ldr         r2,[r3,r4]=>DAT_20000354                
ram:08002b3a    1846            mov         r0,r3                                   
ram:08002b3c    002a            cmp         r2,#0x0                                 
ram:08002b3e    17d0            beq         LAB_08002b70                            
ram:08002b40    0259            ldr         r2,[r0,r4]=>DAT_20000354                
ram:08002b42    cb43            mvns        r3,r1                                   
ram:08002b44    9a42            cmp         r2,r3                                   
ram:08002b46    0259            ldr         r2,[r0,r4]=>DAT_20000354                
ram:08002b48    10d2            bcs         LAB_08002b6c                            
ram:08002b4a    5218            adds        r2,r2,r1                                
ram:08002b4c    0fe0            b           LAB_08002b6e                            
                            LAB_08002b4e:                 ;XREF[1,0]:   08002b18
ram:08002b4e    b448            ldr         r0,[DAT_08002e20]                       ;= 200001A6h
ram:08002b50    405d            ldrb        r0,[r0,r5]=>DAT_200001a6                
ram:08002b52    0128            cmp         r0,#0x1                                 
ram:08002b54    06d0            beq         LAB_08002b64                            
ram:08002b56    0228            cmp         r0,#0x2                                 
ram:08002b58    e3d1            bne         LAB_08002b22                            
ram:08002b5a    b248            ldr         r0,[DAT_08002e24]                       ;= 20000192h
ram:08002b5c    815b            ldrh        r1,[r0,r6]=>DAT_20000192                
ram:08002b5e    491c            adds        r1,r1,#0x1                              
                            LAB_08002b60:                 ;XREF[1,0]:   08002b6a
ram:08002b60    8153            strh        r1,[r0,r6]=>DAT_20000192                
ram:08002b62    dee7            b           LAB_08002b22                            
                            LAB_08002b64:                 ;XREF[1,0]:   08002b54
ram:08002b64    af48            ldr         r0,[DAT_08002e24]                       ;= 20000192h
ram:08002b66    815b            ldrh        r1,[r0,r6]=>DAT_20000192                
ram:08002b68    491e            subs        r1,r1,#0x1                              
ram:08002b6a    f9e7            b           LAB_08002b60                            
                            LAB_08002b6c:                 ;XREF[1,0]:   08002b48
ram:08002b6c    521e            subs        r2,r2,#0x1                              
                            LAB_08002b6e:                 ;XREF[1,0]:   08002b4c
ram:08002b6e    0251            str         r2,[r0,r4]=>DAT_20000354                
                            LAB_08002b70:                 ;XREF[1,0]:   08002b3e
ram:08002b70    ad4a            ldr         r2,[DAT_08002e28]                       ;= 200001A2h
ram:08002b72    525d            ldrb        r2,[r2,r5]=>DAT_200001a2                
ram:08002b74    022a            cmp         r2,#0x2                                 
ram:08002b76    32d0            beq         LAB_08002bde                            
ram:08002b78    052a            cmp         r2,#0x5                                 
ram:08002b7a    30d0            beq         LAB_08002bde                            
ram:08002b7c    0259            ldr         r2,[r0,r4]=>DAT_20000354                
ram:08002b7e    002a            cmp         r2,#0x0                                 
ram:08002b80    1dd1            bne         LAB_08002bbe                            
ram:08002b82    aa4a            ldr         r2,[DAT_08002e2c]                       ;= 200002F4h
ram:08002b84    8b08            lsrs        r3,r1,#0x2                              
ram:08002b86    1259            ldr         r2,[r2,r4]=>DAT_200002f4                
ram:08002b88    cb1a            subs        r3,r1,r3                                
ram:08002b8a    9646            mov         lr,r2                                   
ram:08002b8c    9a42            cmp         r2,r3                                   
ram:08002b8e    00e0            b           LAB_08002b92                            
                            LAB_08002b90:                 ;XREF[1,0]:   08002a92
ram:08002b90    30e0            b           LAB_08002bf4                            
                            LAB_08002b92:                 ;XREF[1,0]:   08002b8e
ram:08002b92    0cd3            bcc         LAB_08002bae                            
ram:08002b94    6346            mov         r3,r12                                  
ram:08002b96    9a08            lsrs        r2,r3,#0x2                              
ram:08002b98    9a1a            subs        r2,r3,r2                                
ram:08002b9a    9e4b            ldr         r3,[DAT_08002e14]                       ;= 20000314h
ram:08002b9c    1b59            ldr         r3,[r3,r4]=>DAT_20000314                
ram:08002b9e    9a42            cmp         r2,r3                                   
ram:08002ba0    05d8            bhi         LAB_08002bae                            
ram:08002ba2    a34a            ldr         r2,[DAT_08002e30]                       ;= 20000304h
ram:08002ba4    1359            ldr         r3,[r2,r4]=>DAT_20000304                
ram:08002ba6    ba08            lsrs        r2,r7,#0x2                              
ram:08002ba8    ba1a            subs        r2,r7,r2                                
ram:08002baa    9342            cmp         r3,r2                                   
ram:08002bac    07d2            bcs         LAB_08002bbe                            
                            LAB_08002bae:                 ;XREF[2,0]:   08002b92,08002ba0
ram:08002bae    0123            movs        r3,#0x1                                 
ram:08002bb0    0351            str         r3,[r0,r4]=>DAT_20000354                
ram:08002bb2    a04a            ldr         r2,[DAT_08002e34]                       ;= 20000364h
ram:08002bb4    7346            mov         r3,lr                                   
ram:08002bb6    1351            str         r3,[r2,r4]=>DAT_20000364                
ram:08002bb8    9f4b            ldr         r3,[DAT_08002e38]                       ;= 20000344h
ram:08002bba    0022            movs        r2,#0x0                                 
ram:08002bbc    1a51            str         r2,[r3,r4]=>DAT_20000344                
                            LAB_08002bbe:                 ;XREF[2,0]:   08002b80,08002bac
ram:08002bbe    0259            ldr         r2,[r0,r4]=>DAT_20000354                
ram:08002bc0    002a            cmp         r2,#0x0                                 
ram:08002bc2    0ed0            beq         LAB_08002be2                            
ram:08002bc4    994a            ldr         r2,[DAT_08002e2c]                       ;= 200002F4h
ram:08002bc6    1259            ldr         r2,[r2,r4]=>DAT_200002f4                
ram:08002bc8    8a42            cmp         r2,r1                                   
ram:08002bca    0ad9            bls         LAB_08002be2                            
ram:08002bcc    9b4a            ldr         r2,[DAT_08002e3c]                       ;= 20000374h
ram:08002bce    1151            str         r1,[r2,r4]=>DAT_20000374                
ram:08002bd0    0259            ldr         r2,[r0,r4]=>DAT_20000354                
ram:08002bd2    9948            ldr         r0,[DAT_08002e38]                       ;= 20000344h
ram:08002bd4    0251            str         r2,[r0,r4]=>DAT_20000344                
ram:08002bd6    914a            ldr         r2,[DAT_08002e1c]                       ;= 20000384h
ram:08002bd8    0020            movs        r0,#0x0                                 
ram:08002bda    1051            str         r0,[r2,r4]=>DAT_20000384                
ram:08002bdc    01e0            b           LAB_08002be2                            
                            LAB_08002bde:                 ;XREF[2,0]:   08002b76,08002b7a
ram:08002bde    0022            movs        r2,#0x0                                 
ram:08002be0    0251            str         r2,[r0,r4]=>DAT_20000354                
                            LAB_08002be2:                 ;XREF[3,0]:   08002bc2,08002bca,08002bdc
ram:08002be2    9248            ldr         r0,[DAT_08002e2c]                       ;= 200002F4h
ram:08002be4    0151            str         r1,[r0,r4]=>DAT_200002f4                
ram:08002be6    8748            ldr         r0,[DAT_08002e04]                       ;= 2000019Ah
ram:08002be8    8153            strh        r1,[r0,r6]=>DAT_2000019a                
ram:08002bea    9148            ldr         r0,[DAT_08002e30]                       ;= 20000304h
                            LAB_08002bec:                 ;XREF[1,0]:   08002b10
ram:08002bec    8649            ldr         r1,[DAT_08002e08]                       ;= 2000018Ah
                                                          ; FWD[2,0]:   20000304,20000324
ram:08002bee    0751            str         r7,[r0,r4]=>DAT_20000324                
ram:08002bf0    0098            ldr         r0,[sp,#0x0]=>local_40                  
ram:08002bf2    8853            strh        r0,[r1,r6]=>DAT_2000018a                
                            LAB_08002bf4:                 ;XREF[1,0]:   08002b90
ram:08002bf4    6d1c            adds        r5,r5,#0x1                              
ram:08002bf6    edb2            uxtb        r5,r5                                   
ram:08002bf8    042d            cmp         r5,#0x4                                 
ram:08002bfa    00d2            bcs         LAB_08002bfe                            
ram:08002bfc    41e7            b           LAB_08002a82                            
                            LAB_08002bfe:                 ;XREF[1,0]:   08002bfa
ram:08002bfe    0bb0            add         sp,#0x2c                                
ram:08002c00    f0bd            pop         {r4,r5,r6,r7,pc}                        
                            ;************************************************************************************************
                            ;*                                           FUNCTION                                           *
                            ;************************************************************************************************
                            ;undefined FUN_08002c02(int param_1)
          ;param_1       int                 r0                      
                                                          ;XREF[1,0]:   08003004
ram:08002c02    70b5            push        {r4,r5,r6,lr}                           
ram:08002c04    0546            mov         r5,param_1                              
ram:08002c06    8400            lsls        r4,param_1,#0x2                         
ram:08002c08    8348            ldr         param_1,[DAT_08002e18]                  ;= 20000354h
ram:08002c0a    0159            ldr         r1,[param_1,r4]                         
ram:08002c0c    0022            movs        r2,#0x0                                 
ram:08002c0e    0251            str         r2,[param_1,r4]                         
ram:08002c10    0129            cmp         r1,#0x1                                 
ram:08002c12    21d9            bls         LAB_08002c58                            
ram:08002c14    1038            subs        param_1,#0x10                           
ram:08002c16    0159            ldr         r1,[param_1,r4]                         
ram:08002c18    0029            cmp         r1,#0x0                                 
ram:08002c1a    1dd0            beq         LAB_08002c58                            
ram:08002c1c    7f4e            ldr         r6,[DAT_08002e1c]                       ;= 20000384h
ram:08002c1e    3259            ldr         r2,[r6,r4]                              
ram:08002c20    8449            ldr         r1,[DAT_08002e34]                       ;= 20000364h
ram:08002c22    012a            cmp         r2,#0x1                                 
ram:08002c24    0959            ldr         r1,[r1,r4]                              
ram:08002c26    02d8            bhi         LAB_08002c2e                            
ram:08002c28    4900            lsls        r1,r1,#0x1                              
ram:08002c2a    0059            ldr         param_1,[param_1,r4]                    
ram:08002c2c    04e0            b           LAB_08002c38                            
                            LAB_08002c2e:                 ;XREF[1,0]:   08002c26
ram:08002c2e    834a            ldr         r2,[DAT_08002e3c]                       ;= 20000374h
ram:08002c30    1259            ldr         r2,[r2,r4]                              
ram:08002c32    0059            ldr         param_1,[param_1,r4]                    
ram:08002c34    8918            adds        r1,r1,r2                                
ram:08002c36    4000            lsls        param_1,param_1,#0x1                    
                            LAB_08002c38:                 ;XREF[1,0]:   08002c2c
ram:08002c38    02f02afb        bl          FUN_08005290                            ;int FUN_08005290(uint param_1, uint ...
ram:08002c3c    3159            ldr         r1,[r6,r4]                              
ram:08002c3e    0a18            adds        r2,r1,param_1                           
ram:08002c40    7748            ldr         param_1,[DAT_08002e20]                  ;= 200001A6h
ram:08002c42    7849            ldr         r1,[DAT_08002e24]                       ;= 20000192h
ram:08002c44    435d            ldrb        r3,[param_1,r5]                         
ram:08002c46    6800            lsls        param_1,r5,#0x1                         
ram:08002c48    921c            adds        r2,r2,#0x2                              
ram:08002c4a    012b            cmp         r3,#0x1                                 
ram:08002c4c    05d0            beq         LAB_08002c5a                            
ram:08002c4e    022b            cmp         r3,#0x2                                 
ram:08002c50    02d1            bne         LAB_08002c58                            
ram:08002c52    0b5a            ldrh        r3,[r1,param_1]                         
ram:08002c54    9a18            adds        r2,r3,r2                                
                            LAB_08002c56:                 ;XREF[1,0]:   08002c5e
ram:08002c56    0a52            strh        r2,[r1,param_1]                         
                            LAB_08002c58:                 ;XREF[3,0]:   08002c12,08002c1a,08002c50
ram:08002c58    70bd            pop         {r4,r5,r6,pc}                           
                            LAB_08002c5a:                 ;XREF[1,0]:   08002c4c
ram:08002c5a    0b5a            ldrh        r3,[r1,param_1]                         
ram:08002c5c    9a1a            subs        r2,r3,r2                                
ram:08002c5e    fae7            b           LAB_08002c56                            
                            ;************************************************************************************************
                            ;*                                           FUNCTION                                           *
                            ;************************************************************************************************
                            ;undefined FUN_08002c60(void)
                                                          ;XREF[1,0]:   08004f44
ram:08002c60    10b5            push        {r4,lr}                                 
ram:08002c62    72b6            cpsid       i                                       
ram:08002c64    0822            movs        r2,#0x8                                 
ram:08002c66    6f49            ldr         r1=>DAT_20000192,[DAT_08002e24]         ;= 20000192h
ram:08002c68    7548            ldr         r0,[DAT_08002e40]                       ;= 00000036h
ram:08002c6a    00f09cfa        bl          FUN_080031a6                            ;undefined FUN_080031a6(uint param_1,...
ram:08002c6e    0122            movs        r2,#0x1                                 
ram:08002c70    7449            ldr         r1=>DAT_20000184,[DAT_08002e44]         ;= 20000184h
ram:08002c72    7548            ldr         r0,[DAT_08002e48]                       ;= 00000034h
ram:08002c74    00f097fa        bl          FUN_080031a6                            ;undefined FUN_080031a6(uint param_1,...
ram:08002c78    62b6            cpsie       i                                       
ram:08002c7a    10bd            pop         {r4,pc}                                 
                            ;************************************************************************************************
                            ;*                                           FUNCTION                                           *
                            ;************************************************************************************************
                            ;undefined FUN_08002c7c(void)
                                                          ;XREF[1,0]:   08004c6e
ram:08002c7c    10b5            push        {r4,lr}                                 
ram:08002c7e    72b6            cpsid       i                                       
ram:08002c80    0822            movs        r2,#0x8                                 
ram:08002c82    6849            ldr         r1=>DAT_20000192,[DAT_08002e24]         ;= 20000192h
ram:08002c84    6e48            ldr         r0,[DAT_08002e40]                       ;= 00000036h
ram:08002c86    00f062fa        bl          FUN_0800314e                            ;int FUN_0800314e(uint param_1, int p...
ram:08002c8a    0122            movs        r2,#0x1                                 
ram:08002c8c    6d49            ldr         r1=>DAT_20000184,[DAT_08002e44]         ;= 20000184h
ram:08002c8e    6e48            ldr         r0,[DAT_08002e48]                       ;= 00000034h
ram:08002c90    00f05dfa        bl          FUN_0800314e                            ;int FUN_0800314e(uint param_1, int p...
ram:08002c94    62b6            cpsie       i                                       
ram:08002c96    10bd            pop         {r4,pc}                                 
                            ;************************************************************************************************
                            ;*                                           FUNCTION                                           *
                            ;************************************************************************************************
                            ;undefined FUN_08002c98(void)
          ;local_18      undefined4         -18                      ;XREF[2,0]:   08002dd4,08002dec
                                                          ;XREF[1,0]:   08004cb4
ram:08002c98    f8b5            push        {r3,r4,r5,r6,r7,lr}                     
ram:08002c9a    6c4d            ldr         r5,[DAT_08002e4c]                       ;= 200001AEh
ram:08002c9c    6c4a            ldr         r2,[DAT_08002e50]                       ;= 20000185h
ram:08002c9e    2b78            ldrb        r3,[r5,#0x0]=>DAT_200001ae              
ram:08002ca0    6149            ldr         r1,[DAT_08002e28]                       ;= 200001A2h
ram:08002ca2    501e            subs        r0,r2,#0x1                              
ram:08002ca4    002b            cmp         r3,#0x0                                 
ram:08002ca6    5ed1            bne         LAB_08002d66                            
ram:08002ca8    6b78            ldrb        r3,[r5,#0x1]=>DAT_200001af              
ram:08002caa    002b            cmp         r3,#0x0                                 
ram:08002cac    5bd1            bne         LAB_08002d66                            
ram:08002cae    ab78            ldrb        r3,[r5,#0x2]=>DAT_200001b0              
ram:08002cb0    002b            cmp         r3,#0x0                                 
ram:08002cb2    58d1            bne         LAB_08002d66                            
ram:08002cb4    eb78            ldrb        r3,[r5,#0x3]=>DAT_200001b1              
ram:08002cb6    002b            cmp         r3,#0x0                                 
ram:08002cb8    55d1            bne         LAB_08002d66                            
ram:08002cba    524b            ldr         r3,[DAT_08002e04]                       ;= 2000019Ah
ram:08002cbc    1e88            ldrh        r6,[r3,#0x0]=>DAT_2000019a              
ram:08002cbe    534c            ldr         r4,[DAT_08002e0c]                       ;= 00007FFFh
ram:08002cc0    0023            movs        r3,#0x0                                 
ram:08002cc2    db43            mvns        r3,r3                                   
ram:08002cc4    a642            cmp         r6,r4                                   
ram:08002cc6    0fd2            bcs         LAB_08002ce8                            
ram:08002cc8    0e78            ldrb        r6,[r1,#0x0]=>DAT_200001a2              
ram:08002cca    022e            cmp         r6,#0x2                                 
ram:08002ccc    01d0            beq         LAB_08002cd2                            
ram:08002cce    052e            cmp         r6,#0x5                                 
ram:08002cd0    0ad1            bne         LAB_08002ce8                            
                            LAB_08002cd2:                 ;XREF[1,0]:   08002ccc
ram:08002cd2    0478            ldrb        r4,[r0,#0x0]=>DAT_20000184              
ram:08002cd4    e706            lsls        r7,r4,#0x1b                             
ram:08002cd6    04d5            bpl         LAB_08002ce2                            
ram:08002cd8    e707            lsls        r7,r4,#0x1f                             
ram:08002cda    02d1            bne         LAB_08002ce2                            
ram:08002cdc    022e            cmp         r6,#0x2                                 
ram:08002cde    00d1            bne         LAB_08002ce2                            
ram:08002ce0    1370            strb        r3,[r2,#0x0]=>DAT_20000185              
                            LAB_08002ce2:                 ;XREF[3,0]:   08002cd6,08002cda,08002cde
ram:08002ce2    ef26            movs        r6,#0xef                                
ram:08002ce4    3440            ands        r4,r6                                   
ram:08002ce6    0470            strb        r4,[r0,#0x0]=>DAT_20000184              
                            LAB_08002ce8:                 ;XREF[2,0]:   08002cc6,08002cd0
ram:08002ce8    464c            ldr         r4,[DAT_08002e04]                       ;= 2000019Ah
ram:08002cea    6688            ldrh        r6,[r4,#0x2]=>DAT_2000019c              
ram:08002cec    474c            ldr         r4,[DAT_08002e0c]                       ;= 00007FFFh
ram:08002cee    a642            cmp         r6,r4                                   
ram:08002cf0    0fd2            bcs         LAB_08002d12                            
ram:08002cf2    4e78            ldrb        r6,[r1,#0x1]=>DAT_200001a3              
ram:08002cf4    022e            cmp         r6,#0x2                                 
ram:08002cf6    01d0            beq         LAB_08002cfc                            
ram:08002cf8    052e            cmp         r6,#0x5                                 
ram:08002cfa    0ad1            bne         LAB_08002d12                            
                            LAB_08002cfc:                 ;XREF[1,0]:   08002cf6
ram:08002cfc    0478            ldrb        r4,[r0,#0x0]=>DAT_20000184              
ram:08002cfe    a706            lsls        r7,r4,#0x1a                             
ram:08002d00    04d5            bpl         LAB_08002d0c                            
ram:08002d02    a707            lsls        r7,r4,#0x1e                             
ram:08002d04    02d4            bmi         LAB_08002d0c                            
ram:08002d06    022e            cmp         r6,#0x2                                 
ram:08002d08    00d1            bne         LAB_08002d0c                            
ram:08002d0a    5370            strb        r3,[r2,#0x1]=>DAT_20000186              
                            LAB_08002d0c:                 ;XREF[3,0]:   08002d00,08002d04,08002d08
ram:08002d0c    df26            movs        r6,#0xdf                                
ram:08002d0e    3440            ands        r4,r6                                   
ram:08002d10    0470            strb        r4,[r0,#0x0]=>DAT_20000184              
                            LAB_08002d12:                 ;XREF[2,0]:   08002cf0,08002cfa
ram:08002d12    3c4c            ldr         r4,[DAT_08002e04]                       ;= 2000019Ah
ram:08002d14    a688            ldrh        r6,[r4,#0x4]=>DAT_2000019e              
ram:08002d16    3d4c            ldr         r4,[DAT_08002e0c]                       ;= 00007FFFh
ram:08002d18    a642            cmp         r6,r4                                   
ram:08002d1a    0fd2            bcs         LAB_08002d3c                            
ram:08002d1c    8e78            ldrb        r6,[r1,#0x2]=>DAT_200001a4              
ram:08002d1e    022e            cmp         r6,#0x2                                 
ram:08002d20    01d0            beq         LAB_08002d26                            
ram:08002d22    052e            cmp         r6,#0x5                                 
ram:08002d24    0ad1            bne         LAB_08002d3c                            
                            LAB_08002d26:                 ;XREF[1,0]:   08002d20
ram:08002d26    0478            ldrb        r4,[r0,#0x0]=>DAT_20000184              
ram:08002d28    6706            lsls        r7,r4,#0x19                             
ram:08002d2a    04d5            bpl         LAB_08002d36                            
ram:08002d2c    6707            lsls        r7,r4,#0x1d                             
ram:08002d2e    02d4            bmi         LAB_08002d36                            
ram:08002d30    022e            cmp         r6,#0x2                                 
ram:08002d32    00d1            bne         LAB_08002d36                            
ram:08002d34    9370            strb        r3,[r2,#0x2]=>DAT_20000187              
                            LAB_08002d36:                 ;XREF[3,0]:   08002d2a,08002d2e,08002d32
ram:08002d36    bf26            movs        r6,#0xbf                                
ram:08002d38    3440            ands        r4,r6                                   
ram:08002d3a    0470            strb        r4,[r0,#0x0]=>DAT_20000184              
                            LAB_08002d3c:                 ;XREF[2,0]:   08002d1a,08002d24
ram:08002d3c    314c            ldr         r4,[DAT_08002e04]                       ;= 2000019Ah
ram:08002d3e    e688            ldrh        r6,[r4,#0x6]=>DAT_200001a0              
ram:08002d40    324c            ldr         r4,[DAT_08002e0c]                       ;= 00007FFFh
ram:08002d42    a642            cmp         r6,r4                                   
ram:08002d44    0fd2            bcs         LAB_08002d66                            
ram:08002d46    ce78            ldrb        r6,[r1,#0x3]=>DAT_200001a5              
ram:08002d48    022e            cmp         r6,#0x2                                 
ram:08002d4a    01d0            beq         LAB_08002d50                            
ram:08002d4c    052e            cmp         r6,#0x5                                 
ram:08002d4e    0ad1            bne         LAB_08002d66                            
                            LAB_08002d50:                 ;XREF[1,0]:   08002d4a
ram:08002d50    0478            ldrb        r4,[r0,#0x0]=>DAT_20000184              
ram:08002d52    e709            lsrs        r7,r4,#0x7                              
ram:08002d54    04d0            beq         LAB_08002d60                            
ram:08002d56    2707            lsls        r7,r4,#0x1c                             
ram:08002d58    02d4            bmi         LAB_08002d60                            
ram:08002d5a    022e            cmp         r6,#0x2                                 
ram:08002d5c    00d1            bne         LAB_08002d60                            
ram:08002d5e    d370            strb        r3,[r2,#0x3]=>DAT_20000188              
                            LAB_08002d60:                 ;XREF[3,0]:   08002d54,08002d58,08002d5c
ram:08002d60    6306            lsls        r3,r4,#0x19                             
ram:08002d62    5b0e            lsrs        r3,r3,#0x19                             
ram:08002d64    0370            strb        r3,[r0,#0x0]=>DAT_20000184              
                            LAB_08002d66:                 ;XREF[6,0]:   08002ca6,08002cac,08002cb2,08002cb8
                                                          ;             08002d44,08002d4e
ram:08002d66    0024            movs        r4,#0x0                                 
ram:08002d68    0127            movs        r7,#0x1                                 
ram:08002d6a    3a4e            ldr         r6,[DAT_08002e54]                       ;= 2000017Ch
ram:08002d6c    bf02            lsls        r7,r7,#0xa                              
                            LAB_08002d6e:                 ;XREF[1,0]:   08002f14
                                                          ; FWD[2,0]:   200001ae,200001af
ram:08002d6e    285d            ldrb        r0,[r5,r4]=>DAT_200001ae                
ram:08002d70    0028            cmp         r0,#0x0                                 
ram:08002d72    75d1            bne         LAB_08002e60                            
ram:08002d74    6000            lsls        r0,r4,#0x1                              
ram:08002d76    315e            ldrsh       r1,[r6,r0]=>DAT_2000017c                
ram:08002d78    b942            cmp         r1,r7                                   
ram:08002d7a    71da            bge         LAB_08002e60                            
ram:08002d7c    0122            movs        r2,#0x1                                 
ram:08002d7e    9202            lsls        r2,r2,#0xa                              
ram:08002d80    d142            cmn         r1,r2                                   
ram:08002d82    6ddd            ble         LAB_08002e60                            
ram:08002d84    1f49            ldr         r1,[DAT_08002e04]                       ;= 2000019Ah
ram:08002d86    0a5a            ldrh        r2,[r1,r0]=>DAT_2000019a                
ram:08002d88    2049            ldr         r1,[DAT_08002e0c]                       ;= 00007FFFh
ram:08002d8a    8a42            cmp         r2,r1                                   
ram:08002d8c    68d3            bcc         LAB_08002e60                            
ram:08002d8e    3049            ldr         r1,[DAT_08002e50]                       ;= 20000185h
ram:08002d90    095d            ldrb        r1,[r1,r4]=>DAT_20000185                
ram:08002d92    0029            cmp         r1,#0x0                                 
ram:08002d94    2449            ldr         r1,[DAT_08002e28]                       ;= 200001A2h
ram:08002d96    095d            ldrb        r1,[r1,r4]=>DAT_200001a2                
ram:08002d98    16d0            beq         LAB_08002dc8                            
ram:08002d9a    0229            cmp         r1,#0x2                                 
ram:08002d9c    02d0            beq         LAB_08002da4                            
ram:08002d9e    0529            cmp         r1,#0x5                                 
ram:08002da0    0ed1            bne         LAB_08002dc0                            
ram:08002da2    08e0            b           LAB_08002db6                            
                            LAB_08002da4:                 ;XREF[1,0]:   08002d9c
ram:08002da4    2c4a            ldr         r2,[DAT_08002e58]                       ;= 0000002Ah
ram:08002da6    72b6            cpsid       i                                       
ram:08002da8    1e49            ldr         r1,[DAT_08002e24]                       ;= 20000192h
ram:08002daa    4118            adds        r1=>DAT_20000192,r0,r1                  
ram:08002dac    8018            adds        r0,r0,r2                                
ram:08002dae    0422            movs        r2,#0x4                                 
ram:08002db0    00f0f9f9        bl          FUN_080031a6                            ;undefined FUN_080031a6(uint param_1,...
ram:08002db4    03e0            b           LAB_08002dbe                            
                            LAB_08002db6:                 ;XREF[1,0]:   08002da2
ram:08002db6    72b6            cpsid       i                                       
ram:08002db8    0021            movs        r1,#0x0                                 
ram:08002dba    1a4a            ldr         r2,[DAT_08002e24]                       ;= 20000192h
ram:08002dbc    1152            strh        r1,[r2,r0]=>DAT_20000192                
                            LAB_08002dbe:                 ;XREF[1,0]:   08002db4
ram:08002dbe    62b6            cpsie       i                                       
                            LAB_08002dc0:                 ;XREF[1,0]:   08002da0
ram:08002dc0    0020            movs        r0,#0x0                                 
ram:08002dc2    2349            ldr         r1,[DAT_08002e50]                       ;= 20000185h
ram:08002dc4    0855            strb        r0,[r1,r4]=>DAT_20000185                
ram:08002dc6    51e0            b           LAB_08002e6c                            
                            LAB_08002dc8:                 ;XREF[1,0]:   08002d98
ram:08002dc8    0229            cmp         r1,#0x2                                 
ram:08002dca    02d0            beq         LAB_08002dd2                            
ram:08002dcc    0529            cmp         r1,#0x5                                 
ram:08002dce    4dd1            bne         LAB_08002e6c                            
ram:08002dd0    47e0            b           LAB_08002e62                            
                            LAB_08002dd2:                 ;XREF[1,0]:   08002dca
ram:08002dd2    2149            ldr         r1,[DAT_08002e58]                       ;= 0000002Ah
ram:08002dd4    0090            str         r0,[sp,#0x0]=>local_18                  
ram:08002dd6    4018            adds        r0,r0,r1                                
ram:08002dd8    0222            movs        r2,#0x2                                 
ram:08002dda    2049            ldr         r1=>DAT_200001b8,[DAT_08002e5c]         ;= 200001B8h
ram:08002ddc    00f0b7f9        bl          FUN_0800314e                            ;int FUN_0800314e(uint param_1, int p...
ram:08002de0    0021            movs        r1,#0x0                                 
ram:08002de2    415e            ldrsh       r1,[r0,r1]                              
ram:08002de4    0029            cmp         r1,#0x0                                 
ram:08002de6    41d0            beq         LAB_08002e6c                            
ram:08002de8    72b6            cpsid       i                                       
ram:08002dea    0e4a            ldr         r2,[DAT_08002e24]                       ;= 20000192h
ram:08002dec    0098            ldr         r0,[sp,#0x0]=>local_18                  
ram:08002dee    1152            strh        r1,[r2,r0]=>DAT_20000192                
ram:08002df0    62b6            cpsie       i                                       
ram:08002df2    3be0            b           LAB_08002e6c                            
                            PTR_DAT_08002df4:             ;XREF[1,0]:   08002a02
ram:08002df4    7c540008        addr        DAT_0800547c                            ;= 00040002h
                            DAT_08002df8:                 ;XREF[2,0]:   08002a1e,08002a82
ram:08002df8    00040040        undefined4  40000400h                               
                            DAT_08002dfc:                 ;XREF[2,0]:   08002a28,08002b32
ram:08002dfc    ffff0000        undefined4  0000FFFFh                               
                            DAT_08002e00:                 ;XREF[4,0]:   08002a2a,08002ae8,08002af2,08002b2a
ram:08002e00    34030020        undefined4  20000334h                               
                            DAT_08002e04:                 ;XREF[10,0]:  08002a3e,08002a50,08002a62,08002a74
                                                          ;             08002be6,08002cba,08002ce8,08002d12
                                                          ;             08002d3c,08002d84
ram:08002e04    9a010020        undefined4  2000019Ah                               
                            DAT_08002e08:                 ;XREF[2,0]:   08002adc,08002bec
ram:08002e08    8a010020        undefined4  2000018Ah                               
                            DAT_08002e0c:                 ;XREF[6,0]:   08002af0,08002cbe,08002cec,08002d16
                                                          ;             08002d40,08002d88
ram:08002e0c    ff7f0000        undefined4  00007FFFh                               
                            DAT_08002e10:                 ;XREF[2,0]:   08002b08,08002b22
ram:08002e10    24030020        undefined4  20000324h                               
                            DAT_08002e14:                 ;XREF[2,0]:   08002b0a,08002b9a
ram:08002e14    14030020        undefined4  20000314h                               
                            DAT_08002e18:                 ;XREF[2,0]:   08002b12,08002c08
ram:08002e18    54030020        undefined4  20000354h                               
                            DAT_08002e1c:                 ;XREF[3,0]:   08002b1a,08002bd6,08002c1c
ram:08002e1c    84030020        undefined4  20000384h                               
                            DAT_08002e20:                 ;XREF[2,0]:   08002b4e,08002c40
ram:08002e20    a6010020        undefined4  200001A6h                               
                            DAT_08002e24:                 ;XREF[8,0]:   08002b5a,08002b64,08002c42,08002c66
                                                          ;             08002c82,08002da8,08002dba,08002dea
ram:08002e24    92010020        undefined4  20000192h                               
                            DAT_08002e28:                 ;XREF[3,0]:   08002b70,08002ca0,08002d94
ram:08002e28    a2010020        undefined4  200001A2h                               
                            DAT_08002e2c:                 ;XREF[3,0]:   08002b82,08002bc4,08002be2
ram:08002e2c    f4020020        undefined4  200002F4h                               
                            DAT_08002e30:                 ;XREF[2,0]:   08002ba2,08002bea
ram:08002e30    04030020        undefined4  20000304h                               
                            DAT_08002e34:                 ;XREF[2,0]:   08002bb2,08002c20
ram:08002e34    64030020        undefined4  20000364h                               
                            DAT_08002e38:                 ;XREF[2,0]:   08002bb8,08002bd2
ram:08002e38    44030020        undefined4  20000344h                               
                            DAT_08002e3c:                 ;XREF[2,0]:   08002bcc,08002c2e
ram:08002e3c    74030020        undefined4  20000374h                               
                            DAT_08002e40:                 ;XREF[2,0]:   08002c68,08002c84
ram:08002e40    36000000        undefined4  00000036h                               
                            DAT_08002e44:                 ;XREF[2,0]:   08002c70,08002c8c
ram:08002e44    84010020        undefined4  20000184h                               
                            DAT_08002e48:                 ;XREF[2,0]:   08002c72,08002c8e
ram:08002e48    34000000        undefined4  00000034h                               
                            DAT_08002e4c:                 ;XREF[1,0]:   08002c9a
ram:08002e4c    ae010020        undefined4  200001AEh                               
                            DAT_08002e50:                 ;XREF[3,0]:   08002c9c,08002d8e,08002dc2
ram:08002e50    85010020        undefined4  20000185h                               
                            DAT_08002e54:                 ;XREF[1,0]:   08002d6a
ram:08002e54    7c010020        undefined4  2000017Ch                               
                            DAT_08002e58:                 ;XREF[2,0]:   08002da4,08002dd2
ram:08002e58    2a000000        undefined4  0000002Ah                               
                            DAT_08002e5c:                 ;XREF[1,0]:   08002dda
ram:08002e5c    b8010020        undefined4  200001B8h                               
                            LAB_08002e60:                 ;XREF[4,0]:   08002d72,08002d7a,08002d82,08002d8c
ram:08002e60    4ce0            b           LAB_08002efc                            
                            LAB_08002e62:                 ;XREF[1,0]:   08002dd0
ram:08002e62    72b6            cpsid       i                                       
ram:08002e64    0021            movs        r1,#0x0                                 
ram:08002e66    2f4a            ldr         r2,[DAT_08002f24]                       ;= 20000192h
ram:08002e68    1152            strh        r1,[r2,r0]=>DAT_20000192                
ram:08002e6a    62b6            cpsie       i                                       
                            LAB_08002e6c:                 ;XREF[4,0]:   08002dc6,08002dce,08002de6,08002df2
ram:08002e6c    2e48            ldr         r0,[DAT_08002f28]                       ;= 200001A2h
ram:08002e6e    005d            ldrb        r0,[r0,r4]=>DAT_200001a2                
ram:08002e70    0228            cmp         r0,#0x2                                 
ram:08002e72    02d0            beq         LAB_08002e7a                            
ram:08002e74    0528            cmp         r0,#0x5                                 
ram:08002e76    49d1            bne         LAB_08002f0c                            
ram:08002e78    20e0            b           LAB_08002ebc                            
                            LAB_08002e7a:                 ;XREF[1,0]:   08002e72
ram:08002e7a    002c            cmp         r4,#0x0                                 
ram:08002e7c    06d0            beq         LAB_08002e8c                            
ram:08002e7e    012c            cmp         r4,#0x1                                 
ram:08002e80    0ad0            beq         LAB_08002e98                            
ram:08002e82    022c            cmp         r4,#0x2                                 
ram:08002e84    0ed0            beq         LAB_08002ea4                            
ram:08002e86    032c            cmp         r4,#0x3                                 
ram:08002e88    12d0            beq         LAB_08002eb0                            
ram:08002e8a    3fe0            b           LAB_08002f0c                            
                            LAB_08002e8c:                 ;XREF[1,0]:   08002e7c
ram:08002e8c    2749            ldr         r1,[DAT_08002f2c]                       ;= 20000184h
ram:08002e8e    1122            movs        r2,#0x11                                
ram:08002e90    0878            ldrb        r0,[r1,#0x0]=>DAT_20000184              
ram:08002e92    1043            orrs        r0,r2                                   
ram:08002e94    0870            strb        r0,[r1,#0x0]=>DAT_20000184              
ram:08002e96    39e0            b           LAB_08002f0c                            
                            LAB_08002e98:                 ;XREF[1,0]:   08002e80
ram:08002e98    2449            ldr         r1,[DAT_08002f2c]                       ;= 20000184h
ram:08002e9a    2222            movs        r2,#0x22                                
ram:08002e9c    0878            ldrb        r0,[r1,#0x0]=>DAT_20000184              
ram:08002e9e    1043            orrs        r0,r2                                   
ram:08002ea0    0870            strb        r0,[r1,#0x0]=>DAT_20000184              
ram:08002ea2    33e0            b           LAB_08002f0c                            
                            LAB_08002ea4:                 ;XREF[1,0]:   08002e84
ram:08002ea4    2149            ldr         r1,[DAT_08002f2c]                       ;= 20000184h
ram:08002ea6    4422            movs        r2,#0x44                                
ram:08002ea8    0878            ldrb        r0,[r1,#0x0]=>DAT_20000184              
ram:08002eaa    1043            orrs        r0,r2                                   
ram:08002eac    0870            strb        r0,[r1,#0x0]=>DAT_20000184              
ram:08002eae    2de0            b           LAB_08002f0c                            
                            LAB_08002eb0:                 ;XREF[1,0]:   08002e88
ram:08002eb0    1e49            ldr         r1,[DAT_08002f2c]                       ;= 20000184h
ram:08002eb2    8822            movs        r2,#0x88                                
ram:08002eb4    0878            ldrb        r0,[r1,#0x0]=>DAT_20000184              
ram:08002eb6    1043            orrs        r0,r2                                   
ram:08002eb8    0870            strb        r0,[r1,#0x0]=>DAT_20000184              
ram:08002eba    27e0            b           LAB_08002f0c                            
                            LAB_08002ebc:                 ;XREF[1,0]:   08002e78
ram:08002ebc    002c            cmp         r4,#0x0                                 
ram:08002ebe    06d0            beq         LAB_08002ece                            
ram:08002ec0    012c            cmp         r4,#0x1                                 
ram:08002ec2    0cd0            beq         LAB_08002ede                            
ram:08002ec4    022c            cmp         r4,#0x2                                 
ram:08002ec6    12d0            beq         LAB_08002eee                            
ram:08002ec8    032c            cmp         r4,#0x3                                 
ram:08002eca    18d0            beq         LAB_08002efe                            
ram:08002ecc    1ee0            b           LAB_08002f0c                            
                            LAB_08002ece:                 ;XREF[1,0]:   08002ebe
ram:08002ece    1749            ldr         r1,[DAT_08002f2c]                       ;= 20000184h
ram:08002ed0    1022            movs        r2,#0x10                                
ram:08002ed2    0878            ldrb        r0,[r1,#0x0]=>DAT_20000184              
ram:08002ed4    4008            lsrs        r0,r0,#0x1                              
ram:08002ed6    4000            lsls        r0,r0,#0x1                              
ram:08002ed8    1043            orrs        r0,r2                                   
ram:08002eda    0870            strb        r0,[r1,#0x0]=>DAT_20000184              
ram:08002edc    16e0            b           LAB_08002f0c                            
                            LAB_08002ede:                 ;XREF[1,0]:   08002ec2
ram:08002ede    1349            ldr         r1,[DAT_08002f2c]                       ;= 20000184h
ram:08002ee0    fd22            movs        r2,#0xfd                                
ram:08002ee2    0878            ldrb        r0,[r1,#0x0]=>DAT_20000184              
ram:08002ee4    1040            ands        r0,r2                                   
ram:08002ee6    2022            movs        r2,#0x20                                
ram:08002ee8    1043            orrs        r0,r2                                   
ram:08002eea    0870            strb        r0,[r1,#0x0]=>DAT_20000184              
ram:08002eec    0ee0            b           LAB_08002f0c                            
                            LAB_08002eee:                 ;XREF[1,0]:   08002ec6
ram:08002eee    0f49            ldr         r1,[DAT_08002f2c]                       ;= 20000184h
ram:08002ef0    fb22            movs        r2,#0xfb                                
ram:08002ef2    0878            ldrb        r0,[r1,#0x0]=>DAT_20000184              
ram:08002ef4    1040            ands        r0,r2                                   
ram:08002ef6    4022            movs        r2,#0x40                                
ram:08002ef8    1043            orrs        r0,r2                                   
ram:08002efa    0870            strb        r0,[r1,#0x0]=>DAT_20000184              
                            LAB_08002efc:                 ;XREF[1,0]:   08002e60
ram:08002efc    06e0            b           LAB_08002f0c                            
                            LAB_08002efe:                 ;XREF[1,0]:   08002eca
ram:08002efe    0b49            ldr         r1,[DAT_08002f2c]                       ;= 20000184h
ram:08002f00    f722            movs        r2,#0xf7                                
ram:08002f02    0878            ldrb        r0,[r1,#0x0]=>DAT_20000184              
ram:08002f04    1040            ands        r0,r2                                   
ram:08002f06    8022            movs        r2,#0x80                                
ram:08002f08    1043            orrs        r0,r2                                   
ram:08002f0a    0870            strb        r0,[r1,#0x0]=>DAT_20000184              
                            LAB_08002f0c:                 ;XREF[10,0]:  08002e76,08002e8a,08002e96,08002ea2
                                                          ;             08002eae,08002eba,08002ecc,08002edc
                                                          ;             08002eec,08002efc
ram:08002f0c    641c            adds        r4,r4,#0x1                              
ram:08002f0e    e4b2            uxtb        r4,r4                                   
ram:08002f10    042c            cmp         r4,#0x4                                 
ram:08002f12    00d2            bcs         LAB_08002f16                            
ram:08002f14    2be7            b           LAB_08002d6e                            
                            LAB_08002f16:                 ;XREF[1,0]:   08002f12
ram:08002f16    f8bd            pop         {r3,r4,r5,r6,r7,pc}                     
                            ;************************************************************************************************
                            ;*                                           FUNCTION                                           *
                            ;************************************************************************************************
                            ;int FUN_08002f18(int param_1)
          ;param_1       int                 r0                      
                                                          ;XREF[20,0]:  08000da0,08000dae,08000dbc,08000dc8
                                                          ;             0800127c,08001284,0800143a,08001452
                                                          ;             0800146a,08001482,08001902,08001916
                                                          ;             0800195a,08001972,08001b64,08001b6e
                                                          ;             08001b78,08001b82,08001e3e,08001e58
ram:08002f18    72b6            cpsid       i                                       
ram:08002f1a    4000            lsls        param_1,param_1,#0x1                    
ram:08002f1c    0149            ldr         r1,[DAT_08002f24]                       ;= 20000192h
ram:08002f1e    085e            ldrsh       param_1,[r1,param_1]                    
ram:08002f20    62b6            cpsie       i                                       
ram:08002f22    7047            bx          lr                                      
                            DAT_08002f24:                 ;XREF[2,0]:   08002e66,08002f1c
ram:08002f24    92010020        undefined4  20000192h                               
                            DAT_08002f28:                 ;XREF[1,0]:   08002e6c
ram:08002f28    a2010020        undefined4  200001A2h                               
                            DAT_08002f2c:                 ;XREF[8,0]:   08002e8c,08002e98,08002ea4,08002eb0
                                                          ;             08002ece,08002ede,08002eee,08002efe
ram:08002f2c    84010020        undefined4  20000184h                               
                            ;************************************************************************************************
                            ;*                                           FUNCTION                                           *
                            ;************************************************************************************************
                            ;undefined FUN_08002f32(void)
                                                          ;XREF[3,0]:   08003028,08003062,08003098
ram:08002f32    f8b5            push        {r3,r4,r5,r6,r7,lr}                     
ram:08002f34    0024            movs        r4,#0x0                                 
ram:08002f36    594f            ldr         r7,[DAT_0800309c]                       ;= 20000185h
ram:08002f38    594d            ldr         r5,[DAT_080030a0]                       ;= 200001A2h
ram:08002f3a    2646            mov         r6,r4                                   
                            LAB_08002f3c:                 ;XREF[1,0]:   08002fa8
                                                          ; FWD[2,0]:   200001a2,200001a3
ram:08002f3c    285d            ldrb        r0,[r5,r4]=>DAT_200001a2                
ram:08002f3e    0928            cmp         r0,#0x9                                 
ram:08002f40    15d2            bcs         switchD_08002f4a::caseD_0               
ram:08002f42    0100            movs        r1,r0                                   
ram:08002f44    7944            add         r1,pc                                   
ram:08002f46    0979            ldrb        r1,[r1,#0x4]=>switchD_08002f4a::switc...;= 10h
ram:08002f48    4918            adds        r1,r1,r1                                
                            switchD:                      ; FWD[4,0]:   08002f56,08002f6e,08002f82,08002f92
ram:08002f4a    8f44            add         pc,r1                                   
                            switchdataD_08002f4c:         ;XREF[1,0]:   08002f46
ram:08002f4c    10              db          10h                                     
ram:08002f4d    04              db          4h                                      
ram:08002f4e    1a              db          1Ah                                     
ram:08002f4f    10              db          10h                                     
ram:08002f50    10              db          10h                                     
ram:08002f51    22              db          22h                                     
ram:08002f52    04              db          4h                                      
ram:08002f53    10              db          10h                                     
ram:08002f54    04              db          4h                                      
                            caseD_6:                      ;XREF[1,0]:   08002f4a
                            caseD_8:                      
                            caseD_1:                      
ram:08002f56    0021            movs        r1,#0x0                                 
ram:08002f58    e0b2            uxtb        r0,r4                                   
ram:08002f5a    c943            mvns        r1,r1                                   
ram:08002f5c    fff7d6fb        bl          FUN_0800270c                            ;undefined FUN_0800270c(uint param_1,...
ram:08002f60    0021            movs        r1,#0x0                                 
ram:08002f62    e0b2            uxtb        r0,r4                                   
ram:08002f64    c943            mvns        r1,r1                                   
ram:08002f66    fff7bbfb        bl          FUN_080026e0                            ;undefined FUN_080026e0(uint param_1,...
ram:08002f6a    3e55            strb        r6,[r7,r4]=>DAT_20000185                
ram:08002f6c    1ae0            b           LAB_08002fa4                            
                            caseD_3:                      ;XREF[2,0]:   08002f40,08002f4a
                            caseD_4:                      
                            caseD_7:                      
                            caseD_0:                      
ram:08002f6e    e0b2            uxtb        r0,r4                                   
ram:08002f70    0021            movs        r1,#0x0                                 
ram:08002f72    fff7cbfb        bl          FUN_0800270c                            ;undefined FUN_0800270c(uint param_1,...
ram:08002f76    e0b2            uxtb        r0,r4                                   
ram:08002f78    0021            movs        r1,#0x0                                 
ram:08002f7a    fff7b1fb        bl          FUN_080026e0                            ;undefined FUN_080026e0(uint param_1,...
ram:08002f7e    3e55            strb        r6,[r7,r4]=>DAT_20000185                
ram:08002f80    10e0            b           LAB_08002fa4                            
                            caseD_2:                      ;XREF[1,0]:   08002f4a
ram:08002f82    e0b2            uxtb        r0,r4                                   
ram:08002f84    0021            movs        r1,#0x0                                 
ram:08002f86    fff7c1fb        bl          FUN_0800270c                            ;undefined FUN_0800270c(uint param_1,...
ram:08002f8a    0021            movs        r1,#0x0                                 
ram:08002f8c    e0b2            uxtb        r0,r4                                   
ram:08002f8e    c943            mvns        r1,r1                                   
ram:08002f90    06e0            b           LAB_08002fa0                            
                            caseD_5:                      ;XREF[1,0]:   08002f4a
ram:08002f92    0021            movs        r1,#0x0                                 
ram:08002f94    e0b2            uxtb        r0,r4                                   
ram:08002f96    c943            mvns        r1,r1                                   
ram:08002f98    fff7b8fb        bl          FUN_0800270c                            ;undefined FUN_0800270c(uint param_1,...
ram:08002f9c    e0b2            uxtb        r0,r4                                   
ram:08002f9e    0021            movs        r1,#0x0                                 
                            LAB_08002fa0:                 ;XREF[1,0]:   08002f90
ram:08002fa0    fff79efb        bl          FUN_080026e0                            ;undefined FUN_080026e0(uint param_1,...
                            LAB_08002fa4:                 ;XREF[2,0]:   08002f6c,08002f80
ram:08002fa4    641c            adds        r4,r4,#0x1                              
ram:08002fa6    042c            cmp         r4,#0x4                                 
ram:08002fa8    c8d3            bcc         LAB_08002f3c                            
ram:08002faa    0320            movs        r0,#0x3                                 
                            LAB_08002fac:                 ;XREF[1,0]:   08002fbc
                                                          ; FWD[2,0]:   200001a4,200001a5
ram:08002fac    295c            ldrb        r1,[r5,r0]=>DAT_200001a5                
ram:08002fae    0029            cmp         r1,#0x0                                 
ram:08002fb0    03d0            beq         LAB_08002fba                            
ram:08002fb2    401c            adds        r0,r0,#0x1                              
ram:08002fb4    03d0            beq         LAB_08002fbe                            
ram:08002fb6    8020            movs        r0,#0x80                                
ram:08002fb8    03e0            b           LAB_08002fc2                            
                            LAB_08002fba:                 ;XREF[1,0]:   08002fb0
ram:08002fba    401e            subs        r0,r0,#0x1                              
ram:08002fbc    f6d2            bcs         LAB_08002fac                            
                            LAB_08002fbe:                 ;XREF[1,0]:   08002fb4
ram:08002fbe    0120            movs        r0,#0x1                                 
ram:08002fc0    c005            lsls        r0,r0,#0x17                             
                            LAB_08002fc2:                 ;XREF[1,0]:   08002fb8
ram:08002fc2    3849            ldr         r1,[DAT_080030a4]                       ;= 48001400h
ram:08002fc4    8861            str         r0,[r1,#offset DAT_48001418 &0xff]      
ram:08002fc6    f8bd            pop         {r3,r4,r5,r6,r7,pc}                     
                            ;************************************************************************************************
                            ;*                                           FUNCTION                                           *
                            ;************************************************************************************************
                            ;undefined FUN_08002fc8(void)
                                                          ;XREF[1,0]:   08004ec4
ram:08002fc8    f8b5            push        {r3,r4,r5,r6,r7,lr}                     
ram:08002fca    374f            ldr         r7,[DAT_080030a8]                       ;= 200001AEh
ram:08002fcc    344e            ldr         r6,[DAT_080030a0]                       ;= 200001A2h
ram:08002fce    0024            movs        r4,#0x0                                 
                            LAB_08002fd0:                 ;XREF[1,0]:   08003026
                                                          ; FWD[2,0]:   200001ae,200001af
ram:08002fd0    385d            ldrb        r0,[r7,r4]=>DAT_200001ae                
ram:08002fd2    0028            cmp         r0,#0x0                                 
ram:08002fd4    01d0            beq         LAB_08002fda                            
ram:08002fd6    401e            subs        r0,r0,#0x1                              
ram:08002fd8    3855            strb        r0,[r7,r4]=>DAT_200001ae                
                            LAB_08002fda:                 ;XREF[1,0]:   08002fd4
ram:08002fda    3448            ldr         r0,[DAT_080030ac]                       ;= 200001AAh
ram:08002fdc    355d            ldrb        r5,[r6,r4]=>DAT_200001a2                
ram:08002fde    015d            ldrb        r1,[r0,r4]=>DAT_200001aa                
ram:08002fe0    0029            cmp         r1,#0x0                                 
ram:08002fe2    02d0            beq         LAB_08002fea                            
ram:08002fe4    491e            subs        r1,r1,#0x1                              
ram:08002fe6    0155            strb        r1,[r0,r4]=>DAT_200001aa                
ram:08002fe8    15e0            b           LAB_08003016                            
                            LAB_08002fea:                 ;XREF[1,0]:   08002fe2
ram:08002fea    082d            cmp         r5,#0x8                                 
ram:08002fec    01d9            bls         LAB_08002ff2                            
ram:08002fee    0025            movs        r5,#0x0                                 
ram:08002ff0    0ae0            b           LAB_08003008                            
                            LAB_08002ff2:                 ;XREF[1,0]:   08002fec
ram:08002ff2    012d            cmp         r5,#0x1                                 
ram:08002ff4    05d0            beq         LAB_08003002                            
ram:08002ff6    032d            cmp         r5,#0x3                                 
ram:08002ff8    03d0            beq         LAB_08003002                            
ram:08002ffa    042d            cmp         r5,#0x4                                 
ram:08002ffc    01d0            beq         LAB_08003002                            
ram:08002ffe    062d            cmp         r5,#0x6                                 
ram:08003000    02d1            bne         LAB_08003008                            
                            LAB_08003002:                 ;XREF[3,0]:   08002ff4,08002ff8,08002ffc
ram:08003002    2046            mov         r0,r4                                   
ram:08003004    fff7fdfd        bl          FUN_08002c02                            ;undefined FUN_08002c02(int param_1)
                            LAB_08003008:                 ;XREF[2,0]:   08002ff0,08003000
ram:08003008    2948            ldr         r0,[PTR_DAT_080030b0]                   ;= 080054b7
ram:0800300a    405d            ldrb        r0=>DAT_080054b7,[r0,r5]=>DAT_080054b7  
ram:0800300c    3055            strb        r0,[r6,r4]=>DAT_200001a2                
ram:0800300e    a842            cmp         r0,r5                                   
ram:08003010    01d0            beq         LAB_08003016                            
ram:08003012    5020            movs        r0,#0x50                                
ram:08003014    3855            strb        r0,[r7,r4]=>DAT_200001ae                
                            LAB_08003016:                 ;XREF[2,0]:   08002fe8,08003010
ram:08003016    305d            ldrb        r0,[r6,r4]=>DAT_200001a2                
ram:08003018    2649            ldr         r1,[PTR_DAT_080030b4]                   ;= 080054c0
ram:0800301a    095c            ldrb        r1=>DAT_080054c0,[r1,r0]                
ram:0800301c    2648            ldr         r0=>DAT_200001a6,[DAT_080030b8]         ;= 200001A6h
ram:0800301e    0155            strb        r1,[r0,r4]=>DAT_200001a6                
ram:08003020    641c            adds        r4,r4,#0x1                              
ram:08003022    e4b2            uxtb        r4,r4                                   
ram:08003024    042c            cmp         r4,#0x4                                 
ram:08003026    d3d3            bcc         LAB_08002fd0                            
ram:08003028    fff783ff        bl          FUN_08002f32                            ;undefined FUN_08002f32(void)
ram:0800302c    f8bd            pop         {r3,r4,r5,r6,r7,pc}                     
                            ;************************************************************************************************
                            ;*                                           FUNCTION                                           *
                            ;************************************************************************************************
                            ;undefined FUN_0800302e(int param_1, int param_2)
          ;param_1       int                 r0                      
          ;param_2       int                 r1                      
                                                          ;XREF[1,0]:   08001df6
ram:0800302e    30b4            push        {r4,r5}                                 
ram:08003030    1b4c            ldr         r4,[DAT_080030a0]                       ;= 200001A2h
ram:08003032    225c            ldrb        r2,[r4,param_1]=>DAT_200001a2           
ram:08003034    1346            mov         r3,r2                                   
ram:08003036    082a            cmp         r2,#0x8                                 
ram:08003038    00d9            bls         LAB_0800303c                            
ram:0800303a    0022            movs        r2,#0x0                                 
                            LAB_0800303c:                 ;XREF[1,0]:   08003038
ram:0800303c    0029            cmp         param_2,#0x0                            
ram:0800303e    07d0            beq         LAB_08003050                            
ram:08003040    1e49            ldr         param_2,[PTR_DAT_080030bc]              ;= 0800549c
ram:08003042    895c            ldrb        param_2,[param_2,r2]=>DAT_0800549c      ;= 02h
ram:08003044    8a42            cmp         r2,param_2                              
ram:08003046    05d0            beq         LAB_08003054                            
ram:08003048    174d            ldr         r5,[DAT_080030a8]                       ;= 200001AEh
ram:0800304a    5022            movs        r2,#0x50                                
ram:0800304c    2a54            strb        r2,[r5,param_1]=>DAT_200001ae           
ram:0800304e    01e0            b           LAB_08003054                            
                            LAB_08003050:                 ;XREF[1,0]:   0800303e
ram:08003050    1b49            ldr         param_2,[PTR_DAT_080030c0]              ;= 080054a5
ram:08003052    895c            ldrb        param_2,[param_2,r2]=>DAT_080054a5      
                            LAB_08003054:                 ;XREF[2,0]:   08003046,0800304e
ram:08003054    8b42            cmp         r3,param_2                              
ram:08003056    02d0            beq         LAB_0800305e                            
ram:08003058    144b            ldr         r3,[DAT_080030ac]                       ;= 200001AAh
ram:0800305a    1922            movs        r2,#0x19                                
ram:0800305c    1a54            strb        r2,[r3,param_1]                         
                            LAB_0800305e:                 ;XREF[1,0]:   08003056
ram:0800305e    2154            strb        param_2,[r4,param_1]=>DAT_200001a2      
ram:08003060    30bc            pop         {r4,r5}                                 
ram:08003062    66e7            b           FUN_08002f32                            ;undefined FUN_08002f32(void)
                            ;************************************************************************************************
                            ;*                                           FUNCTION                                           *
                            ;************************************************************************************************
                            ;undefined FUN_08003064(int param_1, int param_2)
          ;param_1       int                 r0                      
          ;param_2       int                 r1                      
                                                          ;XREF[2,0]:   08001e08,08001e6c
ram:08003064    30b4            push        {r4,r5}                                 
ram:08003066    0e4c            ldr         r4,[DAT_080030a0]                       ;= 200001A2h
ram:08003068    225c            ldrb        r2,[r4,param_1]=>DAT_200001a2           
ram:0800306a    1346            mov         r3,r2                                   
ram:0800306c    082a            cmp         r2,#0x8                                 
ram:0800306e    00d9            bls         LAB_08003072                            
ram:08003070    0022            movs        r2,#0x0                                 
                            LAB_08003072:                 ;XREF[1,0]:   0800306e
ram:08003072    0029            cmp         param_2,#0x0                            
ram:08003074    07d0            beq         LAB_08003086                            
ram:08003076    1349            ldr         param_2,[PTR_DAT_080030c4]              ;= 080054ae
ram:08003078    895c            ldrb        param_2,[param_2,r2]=>DAT_080054ae      ;= 05h
ram:0800307a    8a42            cmp         r2,param_2                              
ram:0800307c    05d0            beq         LAB_0800308a                            
ram:0800307e    0a4d            ldr         r5,[DAT_080030a8]                       ;= 200001AEh
ram:08003080    5022            movs        r2,#0x50                                
ram:08003082    2a54            strb        r2,[r5,param_1]=>DAT_200001ae           
ram:08003084    01e0            b           LAB_0800308a                            
                            LAB_08003086:                 ;XREF[1,0]:   08003074
ram:08003086    0e49            ldr         param_2,[PTR_DAT_080030c0]              ;= 080054a5
ram:08003088    895c            ldrb        param_2,[param_2,r2]=>DAT_080054a5      
                            LAB_0800308a:                 ;XREF[2,0]:   0800307c,08003084
ram:0800308a    8b42            cmp         r3,param_2                              
ram:0800308c    02d0            beq         LAB_08003094                            
ram:0800308e    074b            ldr         r3=>DAT_200001aa,[DAT_080030ac]         ;= 200001AAh
ram:08003090    1922            movs        r2,#0x19                                
ram:08003092    1a54            strb        r2,[r3,param_1]=>DAT_200001aa           
                            LAB_08003094:                 ;XREF[1,0]:   0800308c
ram:08003094    2154            strb        param_2,[r4,param_1]=>DAT_200001a2      
ram:08003096    30bc            pop         {r4,r5}                                 
ram:08003098    4be7            b           FUN_08002f32                            ;undefined FUN_08002f32(void)
ram:0800309a    0000            movs        r0,r0                                   
                            DAT_0800309c:                 ;XREF[1,0]:   08002f36
ram:0800309c    85010020        undefined4  20000185h                               
                            DAT_080030a0:                 ;XREF[4,0]:   08002f38,08002fcc,08003030,08003066
ram:080030a0    a2010020        undefined4  200001A2h                               
                            DAT_080030a4:                 ;XREF[1,0]:   08002fc2
ram:080030a4    00140048        undefined4  48001400h                               
                            DAT_080030a8:                 ;XREF[3,0]:   08002fca,08003048,0800307e
ram:080030a8    ae010020        undefined4  200001AEh                               
                            DAT_080030ac:                 ;XREF[3,0]:   08002fda,08003058,0800308e
ram:080030ac    aa010020        undefined4  200001AAh                               
                            PTR_DAT_080030b0:             ;XREF[1,0]:   08003008
ram:080030b0    b7540008        addr        DAT_080054b7                            
                            PTR_DAT_080030b4:             ;XREF[1,0]:   08003018
ram:080030b4    c0540008        addr        DAT_080054c0                            
                            DAT_080030b8:                 ;XREF[1,0]:   0800301c
ram:080030b8    a6010020        undefined4  200001A6h                               
                            PTR_DAT_080030bc:             ;XREF[1,0]:   08003040
ram:080030bc    9c540008        addr        DAT_0800549c                            ;= 02h
                            PTR_DAT_080030c0:             ;XREF[2,0]:   08003050,08003086
ram:080030c0    a5540008        addr        DAT_080054a5                            
                            PTR_DAT_080030c4:             ;XREF[1,0]:   08003076
ram:080030c4    ae540008        addr        DAT_080054ae                            ;= 05h
                            ;************************************************************************************************
                            ;*                                           FUNCTION                                           *
                            ;************************************************************************************************
                            ;undefined FUN_080030c8(undefined4 param_1)
          ;param_1       undefined4          r0                      
ram:080030c8    70b5            push        {r4,r5,r6,lr}                           
ram:080030ca    7c4c            ldr         r4,[DAT_080032bc]                       ;= 40005400h
ram:080030cc    0546            mov         r5,param_1                              
                            LAB_080030ce:                 ;XREF[1,0]:   080030d8
ram:080030ce    0121            movs        r1,#0x1                                 
ram:080030d0    2046            mov         param_1,r4                              
ram:080030d2    01f0aef9        bl          FUN_08004432                            ;bool FUN_08004432(int param_1, uint ...
ram:080030d6    0028            cmp         param_1,#0x0                            
ram:080030d8    f9d0            beq         LAB_080030ce                            
ram:080030da    2946            mov         r1,r5                                   
ram:080030dc    2046            mov         param_1,r4                              
ram:080030de    01f09bf9        bl          FUN_08004418                            ;undefined FUN_08004418(int param_1, ...
ram:080030e2    70bd            pop         {r4,r5,r6,pc}                           
                            ;************************************************************************************************
                            ;*                                           FUNCTION                                           *
                            ;************************************************************************************************
                            ;undefined FUN_080030e4(uint param_1, uint param_2)
          ;param_1       uint                r0                      
          ;param_2       uint                r1                      
          ;local_18      undefined4         -18                      ;XREF[1,0]:   08003122
          ;local_20      undefined4         -20                      ;XREF[1,0]:   0800311a
                                                          ;XREF[2,0]:   08003158,080031b0
ram:080030e4    f3b5            push        {param_1,param_2,r4,r5,r6,r7,lr}        
ram:080030e6    0546            mov         r5,param_1                              
ram:080030e8    0127            movs        r7,#0x1                                 
ram:080030ea    4005            lsls        param_1,param_1,#0x15                   
ram:080030ec    7f03            lsls        r7,r7,#0xd                              
ram:080030ee    460f            lsrs        r6,param_1,#0x1d                        
ram:080030f0    724c            ldr         r4,[DAT_080032bc]                       ;= 40005400h
ram:080030f2    81b0            sub         sp,#0x4                                 
ram:080030f4    a036            adds        r6,#0xa0                                
                            LAB_080030f6:                 ;XREF[2,0]:   08003102,08003148
ram:080030f6    0121            movs        param_2,#0x1                            
ram:080030f8    c903            lsls        param_2,param_2,#0xf                    
ram:080030fa    2046            mov         param_1,r4                              
ram:080030fc    01f099f9        bl          FUN_08004432                            ;bool FUN_08004432(int param_1, uint ...
ram:08003100    0028            cmp         param_1,#0x0                            
ram:08003102    f8d1            bne         LAB_080030f6                            
                            LAB_08003104:                 ;XREF[1,0]:   08003110
ram:08003104    0421            movs        param_2,#0x4                            
ram:08003106    2046            mov         param_1,r4                              
ram:08003108    01f080f9        bl          FUN_0800440c                            ;undefined4 FUN_0800440c(int param_1,...
ram:0800310c    4004            lsls        param_1,param_1,#0x11                   
ram:0800310e    800f            lsrs        param_1,param_1,#0x1e                   
ram:08003110    f8d1            bne         LAB_08003104                            
ram:08003112    3021            movs        param_2,#0x30                           
ram:08003114    2046            mov         param_1,r4                              
ram:08003116    01f093f9        bl          FUN_08004440                            ;undefined FUN_08004440(int param_1, ...
ram:0800311a    0097            str         r7,[sp,#0x0]=>local_20                  
ram:0800311c    0122            movs        r2,#0x1                                 
ram:0800311e    3146            mov         param_2,r6                              
ram:08003120    2046            mov         param_1,r4                              
ram:08003122    029b            ldr         r3,[sp,#local_18+0x20]                  
ram:08003124    01f013f9        bl          FUN_0800434e                            ;undefined FUN_0800434e(int param_1, ...
ram:08003128    e9b2            uxtb        param_2,r5                              
ram:0800312a    2046            mov         param_1,r4                              
ram:0800312c    01f074f9        bl          FUN_08004418                            ;undefined FUN_08004418(int param_1, ...
                            LAB_08003130:                 ;XREF[1,0]:   0800313c
ram:08003130    0421            movs        param_2,#0x4                            
ram:08003132    2046            mov         param_1,r4                              
ram:08003134    01f06af9        bl          FUN_0800440c                            ;undefined4 FUN_0800440c(int param_1,...
ram:08003138    4004            lsls        param_1,param_1,#0x11                   
ram:0800313a    800f            lsrs        param_1,param_1,#0x1e                   
ram:0800313c    f8d1            bne         LAB_08003130                            
ram:0800313e    1021            movs        param_2,#0x10                           
ram:08003140    2046            mov         param_1,r4                              
ram:08003142    01f076f9        bl          FUN_08004432                            ;bool FUN_08004432(int param_1, uint ...
ram:08003146    0028            cmp         param_1,#0x0                            
ram:08003148    d5d1            bne         LAB_080030f6                            
ram:0800314a    03b0            add         sp,#0xc                                 
ram:0800314c    f0bd            pop         {r4,r5,r6,r7,pc}                        
                            ;************************************************************************************************
                            ;*                                           FUNCTION                                           *
                            ;************************************************************************************************
                            ;int FUN_0800314e(uint param_1, int param_2, uint param_3)
          ;param_1       uint                r0                      
          ;param_2       int                 r1                      
          ;param_3       uint                r2                      
          ;local_18      undefined4         -18                      ;XREF[1,0]:   0800316e
                                                          ;XREF[12,0]:  0800113c,08001244,080012ee,080012fc
                                                          ;             080017dc,080017f4,0800180c,08001824
                                                          ;             08002c86,08002c90,08002ddc,08004c8a
ram:0800314e    f8b5            push        {r3,r4,r5,r6,r7,lr}                     
ram:08003150    0f46            mov         r7,param_2                              
ram:08003152    1546            mov         r5,param_3                              
ram:08003154    0446            mov         r4,param_1                              
ram:08003156    0021            movs        param_2,#0x0                            
ram:08003158    fff7c4ff        bl          FUN_080030e4                            ;undefined FUN_080030e4(uint param_1,...
ram:0800315c    574e            ldr         r6,[DAT_080032bc]                       ;= 40005400h
                            LAB_0800315e:                 ;XREF[1,0]:   08003168
ram:0800315e    4021            movs        param_2,#0x40                           
ram:08003160    3046            mov         param_1,r6                              
ram:08003162    01f066f9        bl          FUN_08004432                            ;bool FUN_08004432(int param_1, uint ...
ram:08003166    0028            cmp         param_1,#0x0                            
ram:08003168    f9d0            beq         LAB_0800315e                            
ram:0800316a    0920            movs        param_1,#0x9                            
ram:0800316c    8002            lsls        param_1,param_1,#0xa                    
ram:0800316e    0090            str         param_1,[sp,#0x0]=>local_18             
ram:08003170    6005            lsls        param_1,r4,#0x15                        
ram:08003172    410f            lsrs        param_2,param_1,#0x1d                   
ram:08003174    0123            movs        r3,#0x1                                 
ram:08003176    eab2            uxtb        param_3,r5                              
ram:08003178    5b06            lsls        r3,r3,#0x19                             
ram:0800317a    3046            mov         param_1,r6                              
ram:0800317c    a031            adds        param_2,#0xa0                           
ram:0800317e    01f0e6f8        bl          FUN_0800434e                            ;undefined FUN_0800434e(int param_1, ...
ram:08003182    0024            movs        r4,#0x0                                 
ram:08003184    002d            cmp         r5,#0x0                                 
ram:08003186    0cd9            bls         LAB_080031a2                            
                            LAB_08003188:                 ;XREF[2,0]:   08003192,080031a0
ram:08003188    0421            movs        param_2,#0x4                            
ram:0800318a    3046            mov         param_1,r6                              
ram:0800318c    01f051f9        bl          FUN_08004432                            ;bool FUN_08004432(int param_1, uint ...
ram:08003190    0028            cmp         param_1,#0x0                            
ram:08003192    f9d0            beq         LAB_08003188                            
ram:08003194    3046            mov         param_1,r6                              
ram:08003196    01f041f9        bl          FUN_0800441c                            ;uint FUN_0800441c(int param_1)
ram:0800319a    3855            strb        param_1,[r7,r4]                         
ram:0800319c    641c            adds        r4,r4,#0x1                              
ram:0800319e    ac42            cmp         r4,r5                                   
ram:080031a0    f2d3            bcc         LAB_08003188                            
                            LAB_080031a2:                 ;XREF[1,0]:   08003186
ram:080031a2    3846            mov         param_1,r7                              
ram:080031a4    f8bd            pop         {r3,r4,r5,r6,r7,pc}                     
                            ;************************************************************************************************
                            ;*                                           FUNCTION                                           *
                            ;************************************************************************************************
                            ;undefined FUN_080031a6(uint param_1, int param_2, uint param_3)
          ;param_1       uint                r0                      
          ;param_2       int                 r1                      
          ;param_3       uint                r2                      
          ;local_18      undefined4         -18                      ;XREF[4,0]:   080031b6,080031e8,0800325e,080032a2
          ;local_1c      undefined4         -1c                      ;XREF[1,0]:   08003288
          ;local_28      undefined4         -28                      ;XREF[2,0]:   080031fe,08003234
          ;local_2c      undefined4         -2c                      ;XREF[2,0]:   08003208,08003236
          ;local_30      undefined4         -30                      ;XREF[3,0]:   080031e2,0800322e,08003274
                                                          ;XREF[16,0]:  080010b6,080012aa,080012bc,080012ce
                                                          ;             080012e0,08001402,080014cc,080014e0
                                                          ;             0800154c,0800164e,0800165e,08001bfa
                                                          ;             08002c6a,08002c74,08002db0,08004ca2
ram:080031a6    f7b5            push        {param_1,param_2,param_3,r4,r5,r6,r7,lr}
ram:080031a8    0121            movs        param_2,#0x1                            
ram:080031aa    84b0            sub         sp,#0x10                                
ram:080031ac    0446            mov         r4,param_1                              
ram:080031ae    0906            lsls        param_2,param_2,#0x18                   
ram:080031b0    fff798ff        bl          FUN_080030e4                            ;undefined FUN_080030e4(uint param_1,...
ram:080031b4    6042            rsbs        param_1,r4                              
ram:080031b6    069d            ldr         r5,[sp,#local_18+0x30]                  
ram:080031b8    0007            lsls        param_1,param_1,#0x1c                   
ram:080031ba    000f            lsrs        param_1,param_1,#0x1c                   
ram:080031bc    00d1            bne         LAB_080031c0                            
ram:080031be    1020            movs        param_1,#0x10                           
                            LAB_080031c0:                 ;XREF[1,0]:   080031bc
ram:080031c0    8542            cmp         r5,param_1                              
ram:080031c2    76d8            bhi         LAB_080032b2                            
                            LAB_080031c4:                 ;XREF[1,0]:   080032b4
ram:080031c4    3d4f            ldr         r7,[DAT_080032bc]                       ;= 40005400h
                            LAB_080031c6:                 ;XREF[1,0]:   080031d0
ram:080031c6    8021            movs        param_2,#0x80                           
ram:080031c8    3846            mov         param_1,r7                              
ram:080031ca    01f032f9        bl          FUN_08004432                            ;bool FUN_08004432(int param_1, uint ...
ram:080031ce    0028            cmp         param_1,#0x0                            
ram:080031d0    f9d0            beq         LAB_080031c6                            
ram:080031d2    6005            lsls        param_1,r4,#0x15                        
ram:080031d4    410f            lsrs        param_2,param_1,#0x1d                   
ram:080031d6    0026            movs        r6,#0x0                                 
ram:080031d8    0123            movs        r3,#0x1                                 
ram:080031da    eab2            uxtb        param_3,r5                              
ram:080031dc    5b06            lsls        r3,r3,#0x19                             
ram:080031de    3846            mov         param_1,r7                              
ram:080031e0    a031            adds        param_2,#0xa0                           
ram:080031e2    0096            str         r6,[sp,#0x0]=>local_30                  
ram:080031e4    01f0b3f8        bl          FUN_0800434e                            ;undefined FUN_0800434e(int param_1, ...
ram:080031e8    0698            ldr         param_1,[sp,#local_18+0x30]             
ram:080031ea    0025            movs        r5,#0x0                                 
ram:080031ec    0028            cmp         param_1,#0x0                            
ram:080031ee    5dd9            bls         LAB_080032ac                            
                            LAB_080031f0:                 ;XREF[1,0]:   080032aa
ram:080031f0    2007            lsls        param_1,r4,#0x1c                        
ram:080031f2    49d1            bne         LAB_08003288                            
ram:080031f4    002d            cmp         r5,#0x0                                 
ram:080031f6    47d0            beq         LAB_08003288                            
ram:080031f8    0120            movs        param_1,#0x1                            
ram:080031fa    0006            lsls        param_1,param_1,#0x18                   
ram:080031fc    c712            asrs        r7,param_1,#0xb                         
ram:080031fe    0290            str         param_1,[sp,#local_28+0x30]             
ram:08003200    6005            lsls        param_1,r4,#0x15                        
ram:08003202    400f            lsrs        param_1,param_1,#0x1d                   
ram:08003204    2d4e            ldr         r6,[DAT_080032bc]                       ;= 40005400h
ram:08003206    a030            adds        param_1,#0xa0                           
ram:08003208    0190            str         param_1,[sp,#local_2c+0x30]             
                            LAB_0800320a:                 ;XREF[2,0]:   08003216,0800325c
ram:0800320a    0121            movs        param_2,#0x1                            
ram:0800320c    c903            lsls        param_2,param_2,#0xf                    
ram:0800320e    3046            mov         param_1,r6                              
ram:08003210    01f00ff9        bl          FUN_08004432                            ;bool FUN_08004432(int param_1, uint ...
ram:08003214    0028            cmp         param_1,#0x0                            
ram:08003216    f8d1            bne         LAB_0800320a                            
                            LAB_08003218:                 ;XREF[1,0]:   08003224
ram:08003218    0421            movs        param_2,#0x4                            
ram:0800321a    3046            mov         param_1,r6                              
ram:0800321c    01f0f6f8        bl          FUN_0800440c                            ;undefined4 FUN_0800440c(int param_1,...
ram:08003220    4004            lsls        param_1,param_1,#0x11                   
ram:08003222    800f            lsrs        param_1,param_1,#0x1e                   
ram:08003224    f8d1            bne         LAB_08003218                            
ram:08003226    3021            movs        param_2,#0x30                           
ram:08003228    3046            mov         param_1,r6                              
ram:0800322a    01f009f9        bl          FUN_08004440                            ;undefined FUN_08004440(int param_1, ...
ram:0800322e    0097            str         r7,[sp,#0x0]=>local_30                  
ram:08003230    0122            movs        param_3,#0x1                            
ram:08003232    3046            mov         param_1,r6                              
ram:08003234    029b            ldr         r3,[sp,#local_28+0x30]                  
ram:08003236    0199            ldr         param_2,[sp,#local_2c+0x30]             
ram:08003238    01f089f8        bl          FUN_0800434e                            ;undefined FUN_0800434e(int param_1, ...
ram:0800323c    e1b2            uxtb        param_2,r4                              
ram:0800323e    3046            mov         param_1,r6                              
ram:08003240    01f0eaf8        bl          FUN_08004418                            ;undefined FUN_08004418(int param_1, ...
                            LAB_08003244:                 ;XREF[1,0]:   08003250
ram:08003244    0421            movs        param_2,#0x4                            
ram:08003246    3046            mov         param_1,r6                              
ram:08003248    01f0e0f8        bl          FUN_0800440c                            ;undefined4 FUN_0800440c(int param_1,...
ram:0800324c    4004            lsls        param_1,param_1,#0x11                   
ram:0800324e    800f            lsrs        param_1,param_1,#0x1e                   
ram:08003250    f8d1            bne         LAB_08003244                            
ram:08003252    1021            movs        param_2,#0x10                           
ram:08003254    3046            mov         param_1,r6                              
ram:08003256    01f0ecf8        bl          FUN_08004432                            ;bool FUN_08004432(int param_1, uint ...
ram:0800325a    0028            cmp         param_1,#0x0                            
ram:0800325c    d5d1            bne         LAB_0800320a                            
ram:0800325e    0698            ldr         param_1,[sp,#local_18+0x30]             
ram:08003260    471b            subs        r7,param_1,r5                           
ram:08003262    102f            cmp         r7,#0x10                                
ram:08003264    27d8            bhi         LAB_080032b6                            
                            LAB_08003266:                 ;XREF[2,0]:   08003270,080032b8
ram:08003266    8021            movs        param_2,#0x80                           
ram:08003268    3046            mov         param_1,r6                              
ram:0800326a    01f0e2f8        bl          FUN_08004432                            ;bool FUN_08004432(int param_1, uint ...
ram:0800326e    0028            cmp         param_1,#0x0                            
ram:08003270    f9d0            beq         LAB_08003266                            
ram:08003272    0020            movs        param_1,#0x0                            
ram:08003274    0090            str         param_1,[sp,#0x0]=>local_30             
ram:08003276    6005            lsls        param_1,r4,#0x15                        
ram:08003278    410f            lsrs        param_2,param_1,#0x1d                   
ram:0800327a    0123            movs        r3,#0x1                                 
ram:0800327c    fab2            uxtb        param_3,r7                              
ram:0800327e    5b06            lsls        r3,r3,#0x19                             
ram:08003280    3046            mov         param_1,r6                              
ram:08003282    a031            adds        param_2,#0xa0                           
ram:08003284    01f063f8        bl          FUN_0800434e                            ;undefined FUN_0800434e(int param_1, ...
                            LAB_08003288:                 ;XREF[2,0]:   080031f2,080031f6
ram:08003288    0598            ldr         param_1,[sp,#local_1c+0x30]             
ram:0800328a    0c4f            ldr         r7,[DAT_080032bc]                       ;= 40005400h
ram:0800328c    465d            ldrb        r6,[param_1,r5]                         
                            LAB_0800328e:                 ;XREF[1,0]:   08003298
ram:0800328e    0121            movs        param_2,#0x1                            
ram:08003290    3846            mov         param_1,r7                              
ram:08003292    01f0cef8        bl          FUN_08004432                            ;bool FUN_08004432(int param_1, uint ...
ram:08003296    0028            cmp         param_1,#0x0                            
ram:08003298    f9d0            beq         LAB_0800328e                            
ram:0800329a    3146            mov         param_2,r6                              
ram:0800329c    3846            mov         param_1,r7                              
ram:0800329e    01f0bbf8        bl          FUN_08004418                            ;undefined FUN_08004418(int param_1, ...
ram:080032a2    0698            ldr         param_1,[sp,#local_18+0x30]             
ram:080032a4    641c            adds        r4,r4,#0x1                              
ram:080032a6    6d1c            adds        r5,r5,#0x1                              
ram:080032a8    8542            cmp         r5,param_1                              
ram:080032aa    a1d3            bcc         LAB_080031f0                            
                            LAB_080032ac:                 ;XREF[1,0]:   080031ee
ram:080032ac    07b0            add         sp,#0x1c                                
ram:080032ae    f0bd            pop         {r4,r5,r6,r7,pc}                        
ram:080032b0    ffe7            b           LAB_080032b2                            
                            LAB_080032b2:                 ;XREF[2,0]:   080031c2,080032b0
ram:080032b2    0546            mov         r5,param_1                              
ram:080032b4    86e7            b           LAB_080031c4                            
                            LAB_080032b6:                 ;XREF[1,0]:   08003264
ram:080032b6    1027            movs        r7,#0x10                                
ram:080032b8    d5e7            b           LAB_08003266                            
ram:080032ba    0000            movs        r0,r0                                   
                            DAT_080032bc:                 ;XREF[6,0]:   080030ca,080030f0,0800315c,080031c4
                                                          ;             08003204,0800328a
ram:080032bc    00540040        undefined4  40005400h                               
                            ;************************************************************************************************
                            ;*                                           FUNCTION                                           *
                            ;************************************************************************************************
                            ;undefined FUN_080032c0(void)
                                                          ;XREF[1,0]:   08004d60
ram:080032c0    6b48            ldr         r0=>DAT_200001c0,[DAT_08003470]         ;= 200001C0h
ram:080032c2    0168            ldr         r1,[r0,#0x0]=>DAT_200001c0              
ram:080032c4    0129            cmp         r1,#0x1                                 
ram:080032c6    01d9            bls         LAB_080032cc                            
ram:080032c8    491e            subs        r1,r1,#0x1                              
ram:080032ca    0160            str         r1,[r0,#0x0]=>DAT_200001c0              
                            LAB_080032cc:                 ;XREF[1,0]:   080032c6
ram:080032cc    4168            ldr         r1,[r0,#0x4]=>DAT_200001c4              
ram:080032ce    0029            cmp         r1,#0x0                                 
ram:080032d0    01d0            beq         LAB_080032d6                            
ram:080032d2    491e            subs        r1,r1,#0x1                              
ram:080032d4    4160            str         r1,[r0,#0x4]=>DAT_200001c4              
                            LAB_080032d6:                 ;XREF[1,0]:   080032d0
ram:080032d6    8168            ldr         r1,[r0,#0x8]=>DAT_200001c8              
ram:080032d8    0029            cmp         r1,#0x0                                 
ram:080032da    01d0            beq         LAB_080032e0                            
ram:080032dc    491e            subs        r1,r1,#0x1                              
ram:080032de    8160            str         r1,[r0,#0x8]=>DAT_200001c8              
                            LAB_080032e0:                 ;XREF[1,0]:   080032da
ram:080032e0    c168            ldr         r1,[r0,#0xc]=>DAT_200001cc              
ram:080032e2    0029            cmp         r1,#0x0                                 
ram:080032e4    01d0            beq         LAB_080032ea                            
ram:080032e6    491e            subs        r1,r1,#0x1                              
ram:080032e8    c160            str         r1,[r0,#0xc]=>DAT_200001cc              
                            LAB_080032ea:                 ;XREF[1,0]:   080032e4
ram:080032ea    0169            ldr         r1,[r0,#0x10]=>DAT_200001d0             
ram:080032ec    0029            cmp         r1,#0x0                                 
ram:080032ee    01d0            beq         LAB_080032f4                            
ram:080032f0    491e            subs        r1,r1,#0x1                              
ram:080032f2    0161            str         r1,[r0,#0x10]=>DAT_200001d0             
                            LAB_080032f4:                 ;XREF[1,0]:   080032ee
ram:080032f4    7047            bx          lr                                      
                            ;************************************************************************************************
                            ;*                                           FUNCTION                                           *
                            ;************************************************************************************************
                            ;undefined FUN_080032f6(void)
ram:080032f6    10b5            push        {r4,lr}                                 
ram:080032f8    5d4c            ldr         r4,[DAT_08003470]                       ;= 200001C0h
ram:080032fa    a068            ldr         r0,[r4,#0x8]=>DAT_200001c8              
ram:080032fc    0028            cmp         r0,#0x0                                 
ram:080032fe    03d1            bne         LAB_08003308                            
ram:08003300    fff7d2f9        bl          FUN_080026a8                            ;undefined FUN_080026a8(void)
ram:08003304    c820            movs        r0,#0xc8                                
ram:08003306    a060            str         r0,[r4,#0x8]=>DAT_200001c8              
                            LAB_08003308:                 ;XREF[1,0]:   080032fe
ram:08003308    10bd            pop         {r4,pc}                                 
ram:0800330a    5a48            ldr         r0=>DAT_48000800,[DAT_08003474]         ;= 48000800h
ram:0800330c    818a            ldrh        r1,[r0,#offset DAT_48000814 &0xff]      
ram:0800330e    4904            lsls        r1,r1,#0x11                             
ram:08003310    04d4            bmi         FUN_0800331c                            
ram:08003312    574a            ldr         r2,[DAT_08003470]                       ;= 200001C0h
ram:08003314    0221            movs        r1,#0x2                                 
ram:08003316    1161            str         r1,[r2,#0x10]=>DAT_200001d0             
ram:08003318    4903            lsls        r1,r1,#0xd                              
ram:0800331a    8161            str         r1,[r0,#offset DAT_48000818 &0xff]      
                            ;************************************************************************************************
                            ;*                                           FUNCTION                                           *
                            ;************************************************************************************************
                            ;undefined FUN_0800331c(void)
                                                          ;XREF[1,0]:   08003310
ram:0800331c    7047            bx          lr                                      
                            ;************************************************************************************************
                            ;*                                           FUNCTION                                           *
                            ;************************************************************************************************
                            ;undefined FUN_0800331e(void)
                                                          ;XREF[1,0]:   08000f30
ram:0800331e    5548            ldr         r0,[DAT_08003474]                       ;= 48000800h
ram:08003320    818a            ldrh        r1,[r0,#offset DAT_48000814 &0xff]      
ram:08003322    8904            lsls        r1,r1,#0x12                             
ram:08003324    04d4            bmi         LAB_08003330                            
ram:08003326    524a            ldr         r2,[DAT_08003470]                       ;= 200001C0h
ram:08003328    0221            movs        r1,#0x2                                 
ram:0800332a    d160            str         r1,[r2,#0xc]=>DAT_200001cc              
ram:0800332c    0903            lsls        r1,r1,#0xc                              
ram:0800332e    8161            str         r1,[r0,#offset DAT_48000818 &0xff]      
                            LAB_08003330:                 ;XREF[1,0]:   08003324
ram:08003330    7047            bx          lr                                      
ram:08003332    4f48            ldr         r0,[DAT_08003470]                       ;= 200001C0h
ram:08003334    c068            ldr         r0,[r0,#0xc]=>DAT_200001cc              
ram:08003336    0028            cmp         r0,#0x0                                 
ram:08003338    09d1            bne         FUN_0800334e                            
ram:0800333a    4e48            ldr         r0,[DAT_08003474]                       ;= 48000800h
ram:0800333c    018a            ldrh        r1,[r0,#offset DAT_48000810 &0xff]      
ram:0800333e    8904            lsls        r1,r1,#0x12                             
ram:08003340    05d4            bmi         FUN_0800334e                            
ram:08003342    808a            ldrh        r0,[r0,#offset DAT_48000814 &0xff]      
ram:08003344    8004            lsls        r0,r0,#0x12                             
ram:08003346    02d5            bpl         FUN_0800334e                            
ram:08003348    0020            movs        r0,#0x0                                 
ram:0800334a    c043            mvns        r0,r0                                   
ram:0800334c    7047            bx          lr                                      
                            ;************************************************************************************************
                            ;*                                           FUNCTION                                           *
                            ;************************************************************************************************
                            ;undefined4 FUN_0800334e(void)
                                                          ;XREF[3,0]:   08003338,08003340,08003346
ram:0800334e    0020            movs        r0,#0x0                                 
ram:08003350    7047            bx          lr                                      
ram:08003352    4748            ldr         r0,[DAT_08003470]                       ;= 200001C0h
ram:08003354    0069            ldr         r0,[r0,#0x10]=>DAT_200001d0             
ram:08003356    0028            cmp         r0,#0x0                                 
ram:08003358    09d1            bne         FUN_0800336e                            
ram:0800335a    4648            ldr         r0,[DAT_08003474]                       ;= 48000800h
ram:0800335c    018a            ldrh        r1,[r0,#offset DAT_48000810 &0xff]      
ram:0800335e    4904            lsls        r1,r1,#0x11                             
ram:08003360    05d4            bmi         FUN_0800336e                            
ram:08003362    808a            ldrh        r0,[r0,#offset DAT_48000814 &0xff]      
ram:08003364    4004            lsls        r0,r0,#0x11                             
ram:08003366    02d5            bpl         FUN_0800336e                            
ram:08003368    0020            movs        r0,#0x0                                 
ram:0800336a    c043            mvns        r0,r0                                   
ram:0800336c    7047            bx          lr                                      
                            ;************************************************************************************************
                            ;*                                           FUNCTION                                           *
                            ;************************************************************************************************
                            ;undefined4 FUN_0800336e(void)
                                                          ;XREF[3,0]:   08003358,08003360,08003366
ram:0800336e    0020            movs        r0,#0x0                                 
ram:08003370    7047            bx          lr                                      
                            ;************************************************************************************************
                            ;*                                           FUNCTION                                           *
                            ;************************************************************************************************
                            ;undefined FUN_08003372(undefined4 param_1)
          ;param_1       undefined4          r0                      
                                                          ;XREF[5,0]:   08000ea4,08000f36,0800105a,08004c6a
                                                          ;             08004d8e
ram:08003372    3f49            ldr         r1,[DAT_08003470]                       ;= 200001C0h
ram:08003374    0860            str         param_1,[r1,#0x0]=>DAT_200001c0         
ram:08003376    7047            bx          lr                                      
ram:08003378    3f48            ldr         r0,[DAT_08003478]                       ;= 20000394h
ram:0800337a    4078            ldrb        r0,[r0,#0x1]=>DAT_20000395              
ram:0800337c    0728            cmp         r0,#0x7                                 
ram:0800337e    02d1            bne         LAB_08003386                            
ram:08003380    3b49            ldr         r1,[DAT_08003470]                       ;= 200001C0h
ram:08003382    6620            movs        r0,#0x66                                
ram:08003384    0860            str         r0,[r1,#0x0]=>DAT_200001c0              
                            LAB_08003386:                 ;XREF[1,0]:   0800337e
ram:08003386    7047            bx          lr                                      
                            ;************************************************************************************************
                            ;*                                           FUNCTION                                           *
                            ;************************************************************************************************
                            ;undefined FUN_08003388(void)
                                                          ;XREF[1,0]:   08004cac
ram:08003388    70b5            push        {r4,r5,r6,lr}                           
ram:0800338a    3c48            ldr         r0,[DAT_0800347c]                       ;= 40020040h
ram:0800338c    c069            ldr         r0,[r0,#0x1c]=>DAT_4002005c             
ram:0800338e    ff21            movs        r1,#0xff                                
ram:08003390    0631            adds        r1,#0x6                                 
ram:08003392    374c            ldr         r4,[DAT_08003470]                       ;= 200001C0h
ram:08003394    0d1a            subs        r5,r1,r0                                
ram:08003396    6069            ldr         r0,[r4,#0x14]=>DAT_200001d4             
ram:08003398    c826            movs        r6,#0xc8                                
ram:0800339a    8542            cmp         r5,r0                                   
ram:0800339c    02d0            beq         LAB_080033a4                            
ram:0800339e    0320            movs        r0,#0x3                                 
ram:080033a0    a660            str         r6,[r4,#0x8]=>DAT_200001c8              
ram:080033a2    6060            str         r0,[r4,#0x4]=>DAT_200001c4              
                            LAB_080033a4:                 ;XREF[1,0]:   0800339c
ram:080033a4    fff776f9        bl          FUN_08002694                            ;undefined4 FUN_08002694(void)
ram:080033a8    0028            cmp         r0,#0x0                                 
ram:080033aa    00d0            beq         LAB_080033ae                            
ram:080033ac    a660            str         r6,[r4,#0x8]=>DAT_200001c8              
                            LAB_080033ae:                 ;XREF[1,0]:   080033aa
ram:080033ae    6561            str         r5,[r4,#0x14]=>DAT_200001d4             
ram:080033b0    002d            cmp         r5,#0x0                                 
ram:080033b2    20d0            beq         LAB_080033f6                            
ram:080033b4    6068            ldr         r0,[r4,#0x4]=>DAT_200001c4              
ram:080033b6    0028            cmp         r0,#0x0                                 
ram:080033b8    01d1            bne         LAB_080033be                            
ram:080033ba    fff70bf9        bl          FUN_080025d4                            ;undefined FUN_080025d4(void)
                            LAB_080033be:                 ;XREF[1,0]:   080033b8
ram:080033be    2e4e            ldr         r6,[DAT_08003478]                       ;= 20000394h
ram:080033c0    3078            ldrb        r0,[r6,#0x0]=>DAT_20000394              
ram:080033c2    801d            adds        r0,r0,#0x6                              
ram:080033c4    a842            cmp         r0,r5                                   
ram:080033c6    16d8            bhi         LAB_080033f6                            
ram:080033c8    00f05ef8        bl          FUN_08003488                            ;undefined4 FUN_08003488(void)
ram:080033cc    3278            ldrb        r2,[r6,#0x0]=>DAT_20000394              
ram:080033ce    2c49            ldr         r1,[DAT_08003480]                       ;= 20000396h
ram:080033d0    5118            adds        r1,r2,r1                                
ram:080033d2    0a46            mov         r2,r1                                   
ram:080033d4    1378            ldrb        r3,[r2,#0x0]                            
ram:080033d6    1946            mov         r1,r3                                   
ram:080033d8    5378            ldrb        r3,[r2,#0x1]                            
ram:080033da    1b02            lsls        r3,r3,#0x8                              
ram:080033dc    1943            orrs        r1,r3                                   
ram:080033de    9378            ldrb        r3,[r2,#0x2]                            
ram:080033e0    d278            ldrb        r2,[r2,#0x3]                            
ram:080033e2    1b04            lsls        r3,r3,#0x10                             
ram:080033e4    1943            orrs        r1,r3                                   
ram:080033e6    1206            lsls        r2,r2,#0x18                             
ram:080033e8    1143            orrs        r1,r2                                   
ram:080033ea    8842            cmp         r0,r1                                   
ram:080033ec    01d1            bne         LAB_080033f2                            
ram:080033ee    fdf766fd        bl          FUN_08000ebe                            ;undefined FUN_08000ebe(void)
                            LAB_080033f2:                 ;XREF[1,0]:   080033ec
ram:080033f2    fff7eff8        bl          FUN_080025d4                            ;undefined FUN_080025d4(void)
                            LAB_080033f6:                 ;XREF[2,0]:   080033b2,080033c6
ram:080033f6    0122            movs        r2,#0x1                                 
ram:080033f8    2369            ldr         r3,[r4,#0x10]=>DAT_200001d0             
ram:080033fa    5203            lsls        r2,r2,#0xd                              
ram:080033fc    0221            movs        r1,#0x2                                 
ram:080033fe    1d48            ldr         r0,[DAT_08003474]                       ;= 48000800h
ram:08003400    002b            cmp         r3,#0x0                                 
ram:08003402    0bd1            bne         LAB_0800341c                            
ram:08003404    038a            ldrh        r3,[r0,#offset DAT_48000810 &0xff]      
ram:08003406    5b04            lsls        r3,r3,#0x11                             
ram:08003408    08d4            bmi         LAB_0800341c                            
ram:0800340a    838a            ldrh        r3,[r0,#offset DAT_48000814 &0xff]      
ram:0800340c    5b04            lsls        r3,r3,#0x11                             
ram:0800340e    05d5            bpl         LAB_0800341c                            
ram:08003410    838a            ldrh        r3,[r0,#offset DAT_48000814 &0xff]      
ram:08003412    9b04            lsls        r3,r3,#0x12                             
ram:08003414    02d4            bmi         LAB_0800341c                            
ram:08003416    e160            str         r1,[r4,#0xc]=>DAT_200001cc              
ram:08003418    8261            str         r2,[r0,#offset DAT_48000818 &0xff]      
ram:0800341a    0ee0            b           LAB_0800343a                            
                            LAB_0800341c:                 ;XREF[4,0]:   08003402,08003408,0800340e,08003414
ram:0800341c    e368            ldr         r3,[r4,#0xc]=>DAT_200001cc              
ram:0800341e    002b            cmp         r3,#0x0                                 
ram:08003420    0bd1            bne         LAB_0800343a                            
ram:08003422    038a            ldrh        r3,[r0,#offset DAT_48000810 &0xff]      
ram:08003424    9b04            lsls        r3,r3,#0x12                             
ram:08003426    08d4            bmi         LAB_0800343a                            
ram:08003428    838a            ldrh        r3,[r0,#offset DAT_48000814 &0xff]      
ram:0800342a    9b04            lsls        r3,r3,#0x12                             
ram:0800342c    05d5            bpl         LAB_0800343a                            
ram:0800342e    0121            movs        r1,#0x1                                 
ram:08003430    8907            lsls        r1,r1,#0x1e                             
ram:08003432    8161            str         r1,[r0,#offset DAT_48000818 &0xff]      
ram:08003434    0520            movs        r0,#0x5                                 
ram:08003436    2060            str         r0,[r4,#0x0]=>DAT_200001c0              
                            LAB_08003438:                 ;XREF[2,0]:   0800344a,0800344e
ram:08003438    70bd            pop         {r4,r5,r6,pc}                           
                            LAB_0800343a:                 ;XREF[4,0]:   0800341a,08003420,08003426,0800342c
ram:0800343a    838a            ldrh        r3,[r0,#offset DAT_48000814 &0xff]      
ram:0800343c    5e04            lsls        r6,r3,#0x11                             
ram:0800343e    114b            ldr         r3,[DAT_08003484]                       ;= 00004000h
ram:08003440    01d4            bmi         LAB_08003446                            
ram:08003442    2161            str         r1,[r4,#0x10]=>DAT_200001d0             
ram:08003444    8361            str         r3,[r0,#offset DAT_48000818 &0xff]      
                            LAB_08003446:                 ;XREF[1,0]:   08003440
ram:08003446    2668            ldr         r6,[r4,#0x0]=>DAT_200001c0              
ram:08003448    012e            cmp         r6,#0x1                                 
ram:0800344a    f5d1            bne         LAB_08003438                            
ram:0800344c    002d            cmp         r5,#0x0                                 
ram:0800344e    f3d1            bne         LAB_08003438                            
ram:08003450    858a            ldrh        r5,[r0,#offset DAT_48000814 &0xff]      
ram:08003452    ad04            lsls        r5,r5,#0x12                             
ram:08003454    01d4            bmi         LAB_0800345a                            
ram:08003456    e160            str         r1,[r4,#0xc]=>DAT_200001cc              
ram:08003458    8261            str         r2,[r0,#offset DAT_48000818 &0xff]      
                            LAB_0800345a:                 ;XREF[1,0]:   08003454
ram:0800345a    828a            ldrh        r2,[r0,#offset DAT_48000814 &0xff]      
ram:0800345c    5204            lsls        r2,r2,#0x11                             
ram:0800345e    01d4            bmi         LAB_08003464                            
ram:08003460    2161            str         r1,[r4,#0x10]=>DAT_200001d0             
ram:08003462    8361            str         r3,[r0,#offset DAT_48000818 &0xff]      
                            LAB_08003464:                 ;XREF[1,0]:   0800345e
ram:08003464    0020            movs        r0,#0x0                                 
ram:08003466    2060            str         r0,[r4,#0x0]=>DAT_200001c0              
ram:08003468    fdf736fc        bl          FUN_08000cd8                            ;undefined FUN_08000cd8(void)
ram:0800346c    70bd            pop         {r4,r5,r6,pc}                           
ram:0800346e    0000            movs        r0,r0                                   
                            DAT_08003470:                 ;XREF[9,0]:   080032c0,080032f8,08003312,08003326
                                                          ;             08003332,08003352,08003372,08003380
                                                          ;             08003392
ram:08003470    c0010020        undefined4  200001C0h                               
                            DAT_08003474:                 ;XREF[5,0]:   0800330a,0800331e,0800333a,0800335a
                                                          ;             080033fe
ram:08003474    00080048        undefined4  48000800h                               
                            DAT_08003478:                 ;XREF[2,0]:   08003378,080033be
ram:08003478    94030020        undefined4  20000394h                               
                            DAT_0800347c:                 ;XREF[1,0]:   0800338a
ram:0800347c    40000240        undefined4  40020040h                               
                            DAT_08003480:                 ;XREF[1,0]:   080033ce
ram:08003480    96030020        undefined4  20000396h                               
                            DAT_08003484:                 ;XREF[1,0]:   0800343e
ram:08003484    00400000        undefined4  00004000h                               
                            ;************************************************************************************************
                            ;*                                           FUNCTION                                           *
                            ;************************************************************************************************
                            ;undefined4 FUN_08003488(void)
                                                          ;XREF[2,0]:   080025f8,080033c8
ram:08003488    10b4            push        {r4}                                    
ram:0800348a    0021            movs        r1,#0x0                                 
ram:0800348c    0c48            ldr         r0,[DAT_080034c0]                       ;= 40023000h
ram:0800348e    c943            mvns        r1,r1                                   
ram:08003490    0160            str         r1,[r0,#0x0]=>DAT_40023000              
ram:08003492    0161            str         r1,[r0,#offset DAT_40023010 &0xff]      
ram:08003494    0121            movs        r1,#0x1                                 
ram:08003496    8160            str         r1,[r0,#offset DAT_40023008 &0xff]      
ram:08003498    0a4a            ldr         r2,[DAT_080034c4]                       ;= 20000394h
ram:0800349a    1378            ldrb        r3,[r2,#0x0]=>DAT_20000394              
ram:0800349c    1940            ands        r1,r3                                   
ram:0800349e    00d0            beq         LAB_080034a2                            
ram:080034a0    0370            strb        r3,[r0,#0x0]=>DAT_40023000              
                            LAB_080034a2:                 ;XREF[1,0]:   0800349e
ram:080034a2    9b1c            adds        r3,r3,#0x2                              
ram:080034a4    8b42            cmp         r3,r1                                   
ram:080034a6    07d9            bls         LAB_080034b8                            
                            LAB_080034a8:                 ;XREF[1,0]:   080034b6
ram:080034a8    545c            ldrb        r4,[r2,r1]=>DAT_20000394                
ram:080034aa    0470            strb        r4,[r0,#0x0]=>DAT_40023000              
ram:080034ac    5418            adds        r4,r2,r1                                
ram:080034ae    6478            ldrb        r4,[r4,#0x1]                            
ram:080034b0    0470            strb        r4,[r0,#0x0]=>DAT_40023000              
ram:080034b2    891c            adds        r1,r1,#0x2                              
ram:080034b4    8b42            cmp         r3,r1                                   
ram:080034b6    f7d8            bhi         LAB_080034a8                            
                            LAB_080034b8:                 ;XREF[1,0]:   080034a6
ram:080034b8    0068            ldr         r0,[r0,#0x0]=>DAT_40023000              
ram:080034ba    10bc            pop         {r4}                                    
ram:080034bc    7047            bx          lr                                      
ram:080034be    0000            movs        r0,r0                                   
                            DAT_080034c0:                 ;XREF[1,0]:   0800348c
ram:080034c0    00300240        undefined4  40023000h                               
                            DAT_080034c4:                 ;XREF[1,0]:   08003498
ram:080034c4    94030020        undefined4  20000394h                               
                            ;************************************************************************************************
                            ;*                                           FUNCTION                                           *
                            ;************************************************************************************************
                            ;undefined FUN_080035a2(ushort * param_1, ushort * param_2)
          ;param_1       ushort *            r0                      
          ;param_2       ushort *            r1                      
                                                          ;XREF[1,0]:   08004bba
ram:080035a2    10b4            push        {r4}                                    
ram:080035a4    0288            ldrh        r2,[param_1,#0x0]                       
ram:080035a6    bf4b            ldr         r3,[DAT_080038a4]                       ;= 40012C00h
ram:080035a8    9842            cmp         param_1,r3                              
ram:080035aa    06d0            beq         LAB_080035ba                            
ram:080035ac    0124            movs        r4,#0x1                                 
ram:080035ae    a407            lsls        r4,r4,#0x1e                             
ram:080035b0    a042            cmp         param_1,r4                              
ram:080035b2    02d0            beq         LAB_080035ba                            
ram:080035b4    bc4c            ldr         r4,[DAT_080038a8]                       ;= 40000400h
ram:080035b6    a042            cmp         param_1,r4                              
ram:080035b8    03d1            bne         LAB_080035c2                            
                            LAB_080035ba:                 ;XREF[2,0]:   080035aa,080035b2
ram:080035ba    7024            movs        r4,#0x70                                
ram:080035bc    a243            bics        r2,r4                                   
ram:080035be    4c88            ldrh        r4,[param_2,#0x2]                       
ram:080035c0    2243            orrs        r2,r4                                   
                            LAB_080035c2:                 ;XREF[1,0]:   080035b8
ram:080035c2    ba4c            ldr         r4,[DAT_080038ac]                       ;= 40001000h
ram:080035c4    a042            cmp         param_1,r4                              
ram:080035c6    03d0            beq         LAB_080035d0                            
ram:080035c8    be4c            ldr         r4,[DAT_080038c4]                       ;= 0000FCFFh
ram:080035ca    2240            ands        r2,r4                                   
ram:080035cc    0c89            ldrh        r4,[param_2,#0x8]                       
ram:080035ce    2243            orrs        r2,r4                                   
                            LAB_080035d0:                 ;XREF[1,0]:   080035c6
ram:080035d0    0280            strh        r2,[param_1,#0x0]                       
ram:080035d2    4a68            ldr         r2,[param_2,#0x4]                       
ram:080035d4    c262            str         r2,[param_1,#0x2c]                      
ram:080035d6    0a88            ldrh        r2,[param_2,#0x0]                       
ram:080035d8    0285            strh        r2,[param_1,#0x28]                      
ram:080035da    9842            cmp         param_1,r3                              
ram:080035dc    08d0            beq         LAB_080035f0                            
ram:080035de    b64a            ldr         r2,[DAT_080038b8]                       ;= 40014000h
ram:080035e0    9042            cmp         param_1,r2                              
ram:080035e2    05d0            beq         LAB_080035f0                            
ram:080035e4    b54a            ldr         r2,[DAT_080038bc]                       ;= 40014400h
ram:080035e6    9042            cmp         param_1,r2                              
ram:080035e8    02d0            beq         LAB_080035f0                            
ram:080035ea    b54a            ldr         r2,[DAT_080038c0]                       ;= 40014800h
ram:080035ec    9042            cmp         param_1,r2                              
ram:080035ee    01d1            bne         LAB_080035f4                            
                            LAB_080035f0:                 ;XREF[3,0]:   080035dc,080035e2,080035e8
ram:080035f0    897a            ldrb        param_2,[param_2,#0xa]                  
ram:080035f2    0186            strh        param_2,[param_1,#0x30]                 
                            LAB_080035f4:                 ;XREF[1,0]:   080035ee
ram:080035f4    0121            movs        param_2,#0x1                            
ram:080035f6    8182            strh        param_2,[param_1,#0x14]                 
ram:080035f8    10bc            pop         {r4}                                    
ram:080035fa    7047            bx          lr                                      
ram:080035fc    0021            movs        r1,#0x0                                 
ram:080035fe    c943            mvns        r1,r1                                   
ram:08003600    4160            str         r1,[r0,#0x4]                            
ram:08003602    0021            movs        r1,#0x0                                 
ram:08003604    0180            strh        r1,[r0,#0x0]                            
ram:08003606    0181            strh        r1,[r0,#0x8]                            
ram:08003608    4180            strh        r1,[r0,#0x2]                            
ram:0800360a    8172            strb        r1,[r0,#0xa]                            
ram:0800360c    7047            bx          lr                                      
ram:0800360e    0185            strh        r1,[r0,#0x28]                           
ram:08003610    8282            strh        r2,[r0,#0x14]                           
ram:08003612    7047            bx          lr                                      
ram:08003614    0288            ldrh        r2,[r0,#0x0]                            
ram:08003616    7023            movs        r3,#0x70                                
ram:08003618    9a43            bics        r2,r3                                   
ram:0800361a    0a43            orrs        r2,r1                                   
ram:0800361c    0280            strh        r2,[r0,#0x0]                            
ram:0800361e    7047            bx          lr                                      
ram:08003620    4162            str         r1,[r0,#0x24]                           
ram:08003622    7047            bx          lr                                      
ram:08003624    c162            str         r1,[r0,#0x2c]                           
ram:08003626    7047            bx          lr                                      
ram:08003628    406a            ldr         r0,[r0,#0x24]                           
ram:0800362a    7047            bx          lr                                      
ram:0800362c    008d            ldrh        r0,[r0,#0x28]                           
ram:0800362e    7047            bx          lr                                      
ram:08003630    0222            movs        r2,#0x2                                 
ram:08003632    0029            cmp         r1,#0x0                                 
ram:08003634    0188            ldrh        r1,[r0,#0x0]                            
ram:08003636    01d0            beq         LAB_0800363c                            
ram:08003638    1143            orrs        r1,r2                                   
ram:0800363a    00e0            b           LAB_0800363e                            
                            LAB_0800363c:                 ;XREF[1,0]:   08003636
ram:0800363c    9143            bics        r1,r2                                   
                            LAB_0800363e:                 ;XREF[1,0]:   0800363a
ram:0800363e    0180            strh        r1,[r0,#0x0]                            
ram:08003640    7047            bx          lr                                      
                            ;************************************************************************************************
                            ;*                                           FUNCTION                                           *
                            ;************************************************************************************************
                            ;undefined FUN_08003642(ushort * param_1, int param_2)
          ;param_1       ushort *            r0                      
          ;param_2       int                 r1                      
                                                          ;XREF[1,0]:   08004bc2
ram:08003642    0422            movs        r2,#0x4                                 
ram:08003644    0029            cmp         param_2,#0x0                            
ram:08003646    0188            ldrh        param_2,[param_1,#0x0]                  
ram:08003648    01d0            beq         LAB_0800364e                            
ram:0800364a    1143            orrs        param_2,r2                              
ram:0800364c    00e0            b           LAB_08003650                            
                            LAB_0800364e:                 ;XREF[1,0]:   08003648
ram:0800364e    9143            bics        param_2,r2                              
                            LAB_08003650:                 ;XREF[1,0]:   0800364c
ram:08003650    0180            strh        param_2,[param_1,#0x0]                  
ram:08003652    7047            bx          lr                                      
ram:08003654    8022            movs        r2,#0x80                                
ram:08003656    0029            cmp         r1,#0x0                                 
ram:08003658    0188            ldrh        r1,[r0,#0x0]                            
ram:0800365a    01d0            beq         FUN_08003660                            
ram:0800365c    1143            orrs        r1,r2                                   
ram:0800365e    00e0            b           LAB_08003662                            
                            ;************************************************************************************************
                            ;*                                           FUNCTION                                           *
                            ;************************************************************************************************
                            ;undefined FUN_08003660(ushort * param_1, ushort param_2, ushort param_3)
          ;param_1       ushort *            r0                      
          ;param_2       ushort              r1                      
          ;param_3       ushort              r2                      
                                                          ;XREF[1,0]:   0800365a
ram:08003660    9143            bics        param_2,param_3                         
                            LAB_08003662:                 ;XREF[1,0]:   0800365e
ram:08003662    0180            strh        param_2,[param_1,#0x0]                  
ram:08003664    7047            bx          lr                                      
ram:08003666    0288            ldrh        r2,[r0,#0x0]                            
ram:08003668    0823            movs        r3,#0x8                                 
ram:0800366a    9a43            bics        r2,r3                                   
ram:0800366c    0280            strh        r2,[r0,#0x0]                            
ram:0800366e    0288            ldrh        r2,[r0,#0x0]                            
ram:08003670    0a43            orrs        r2,r1                                   
ram:08003672    0280            strh        r2,[r0,#0x0]                            
ram:08003674    7047            bx          lr                                      
ram:08003676    0288            ldrh        r2,[r0,#0x0]                            
ram:08003678    924b            ldr         r3,[DAT_080038c4]                       ;= 0000FCFFh
ram:0800367a    1a40            ands        r2,r3                                   
ram:0800367c    0280            strh        r2,[r0,#0x0]                            
ram:0800367e    0288            ldrh        r2,[r0,#0x0]                            
ram:08003680    0a43            orrs        r2,r1                                   
ram:08003682    0280            strh        r2,[r0,#0x0]                            
ram:08003684    7047            bx          lr                                      
                            ;************************************************************************************************
                            ;*                                           FUNCTION                                           *
                            ;************************************************************************************************
                            ;undefined FUN_08003686(ushort * param_1, int param_2)
          ;param_1       ushort *            r0                      
          ;param_2       int                 r1                      
                                                          ;XREF[3,0]:   08004bda,08004dac,08004dcc
ram:08003686    0029            cmp         param_2,#0x0                            
ram:08003688    0188            ldrh        param_2,[param_1,#0x0]                  
ram:0800368a    02d0            beq         LAB_08003692                            
ram:0800368c    0122            movs        r2,#0x1                                 
ram:0800368e    1143            orrs        param_2,r2                              
ram:08003690    01e0            b           LAB_08003696                            
                            LAB_08003692:                 ;XREF[1,0]:   0800368a
ram:08003692    4908            lsrs        param_2,param_2,#0x1                    
ram:08003694    4900            lsls        param_2,param_2,#0x1                    
                            LAB_08003696:                 ;XREF[1,0]:   08003690
ram:08003696    0180            strh        param_2,[param_1,#0x0]                  
ram:08003698    7047            bx          lr                                      
ram:0800369a    10b4            push        {r4}                                    
ram:0800369c    0a88            ldrh        r2,[r1,#0x0]                            
ram:0800369e    4b88            ldrh        r3,[r1,#0x2]                            
ram:080036a0    cc88            ldrh        r4,[r1,#0x6]                            
ram:080036a2    1a43            orrs        r2,r3                                   
ram:080036a4    8b88            ldrh        r3,[r1,#0x4]                            
ram:080036a6    2343            orrs        r3,r4                                   
ram:080036a8    1a43            orrs        r2,r3                                   
ram:080036aa    0b89            ldrh        r3,[r1,#0x8]                            
ram:080036ac    1a43            orrs        r2,r3                                   
ram:080036ae    4b89            ldrh        r3,[r1,#0xa]                            
ram:080036b0    8989            ldrh        r1,[r1,#0xc]                            
ram:080036b2    1a43            orrs        r2,r3                                   
ram:080036b4    0a43            orrs        r2,r1                                   
ram:080036b6    4030            adds        r0,#0x40                                
ram:080036b8    8280            strh        r2,[r0,#0x4]                            
ram:080036ba    10bc            pop         {r4}                                    
ram:080036bc    7047            bx          lr                                      
ram:080036be    0021            movs        r1,#0x0                                 
ram:080036c0    0180            strh        r1,[r0,#0x0]                            
ram:080036c2    4180            strh        r1,[r0,#0x2]                            
ram:080036c4    8180            strh        r1,[r0,#0x4]                            
ram:080036c6    c180            strh        r1,[r0,#0x6]                            
ram:080036c8    0181            strh        r1,[r0,#0x8]                            
ram:080036ca    4181            strh        r1,[r0,#0xa]                            
ram:080036cc    8181            strh        r1,[r0,#0xc]                            
ram:080036ce    7047            bx          lr                                      
ram:080036d0    4030            adds        r0,#0x40                                
ram:080036d2    0029            cmp         r1,#0x0                                 
ram:080036d4    8188            ldrh        r1,[r0,#0x4]                            
ram:080036d6    03d0            beq         LAB_080036e0                            
ram:080036d8    0122            movs        r2,#0x1                                 
ram:080036da    d203            lsls        r2,r2,#0xf                              
ram:080036dc    1143            orrs        r1,r2                                   
ram:080036de    01e0            b           LAB_080036e4                            
                            LAB_080036e0:                 ;XREF[1,0]:   080036d6
ram:080036e0    4904            lsls        r1,r1,#0x11                             
ram:080036e2    490c            lsrs        r1,r1,#0x11                             
                            LAB_080036e4:                 ;XREF[1,0]:   080036de
ram:080036e4    8180            strh        r1,[r0,#0x4]                            
ram:080036e6    7047            bx          lr                                      
ram:080036e8    30b4            push        {r4,r5}                                 
ram:080036ea    028c            ldrh        r2,[r0,#0x20]                           
ram:080036ec    5208            lsrs        r2,r2,#0x1                              
ram:080036ee    5200            lsls        r2,r2,#0x1                              
ram:080036f0    0284            strh        r2,[r0,#0x20]                           
ram:080036f2    038c            ldrh        r3,[r0,#0x20]                           
ram:080036f4    8288            ldrh        r2,[r0,#0x4]                            
ram:080036f6    048b            ldrh        r4,[r0,#0x18]                           
ram:080036f8    7025            movs        r5,#0x70                                
ram:080036fa    ac43            bics        r4,r5                                   
ram:080036fc    a408            lsrs        r4,r4,#0x2                              
ram:080036fe    0d88            ldrh        r5,[r1,#0x0]                            
ram:08003700    a400            lsls        r4,r4,#0x2                              
ram:08003702    2543            orrs        r5,r4                                   
ram:08003704    0224            movs        r4,#0x2                                 
ram:08003706    a343            bics        r3,r4                                   
ram:08003708    8c89            ldrh        r4,[r1,#0xc]                            
ram:0800370a    1c43            orrs        r4,r3                                   
ram:0800370c    4b88            ldrh        r3,[r1,#0x2]                            
ram:0800370e    2343            orrs        r3,r4                                   
ram:08003710    644c            ldr         r4,[DAT_080038a4]                       ;= 40012C00h
ram:08003712    a042            cmp         r0,r4                                   
ram:08003714    08d0            beq         LAB_08003728                            
ram:08003716    684c            ldr         r4,[DAT_080038b8]                       ;= 40014000h
ram:08003718    a042            cmp         r0,r4                                   
ram:0800371a    05d0            beq         LAB_08003728                            
ram:0800371c    674c            ldr         r4,[DAT_080038bc]                       ;= 40014400h
ram:0800371e    a042            cmp         r0,r4                                   
ram:08003720    02d0            beq         LAB_08003728                            
ram:08003722    674c            ldr         r4,[DAT_080038c0]                       ;= 40014800h
ram:08003724    a042            cmp         r0,r4                                   
ram:08003726    0dd1            bne         LAB_08003744                            
                            LAB_08003728:                 ;XREF[3,0]:   08003714,0800371a,08003720
ram:08003728    0824            movs        r4,#0x8                                 
ram:0800372a    a343            bics        r3,r4                                   
ram:0800372c    cc89            ldrh        r4,[r1,#0xe]                            
ram:0800372e    1c43            orrs        r4,r3                                   
ram:08003730    0423            movs        r3,#0x4                                 
ram:08003732    9c43            bics        r4,r3                                   
ram:08003734    8b88            ldrh        r3,[r1,#0x4]                            
ram:08003736    2343            orrs        r3,r4                                   
ram:08003738    624c            ldr         r4,[DAT_080038c4]                       ;= 0000FCFFh
ram:0800373a    2240            ands        r2,r4                                   
ram:0800373c    0c8a            ldrh        r4,[r1,#0x10]                           
ram:0800373e    1443            orrs        r4,r2                                   
ram:08003740    4a8a            ldrh        r2,[r1,#0x12]                           
ram:08003742    2243            orrs        r2,r4                                   
                            LAB_08003744:                 ;XREF[1,0]:   08003726
ram:08003744    8280            strh        r2,[r0,#0x4]                            
ram:08003746    0583            strh        r5,[r0,#0x18]                           
ram:08003748    8968            ldr         r1,[r1,#0x8]                            
ram:0800374a    4163            str         r1,[r0,#0x34]                           
ram:0800374c    0384            strh        r3,[r0,#0x20]                           
ram:0800374e    30bc            pop         {r4,r5}                                 
ram:08003750    7047            bx          lr                                      
ram:08003752    70b4            push        {r4,r5,r6}                              
ram:08003754    028c            ldrh        r2,[r0,#0x20]                           
ram:08003756    1023            movs        r3,#0x10                                
ram:08003758    9a43            bics        r2,r3                                   
ram:0800375a    0284            strh        r2,[r0,#0x20]                           
ram:0800375c    048c            ldrh        r4,[r0,#0x20]                           
ram:0800375e    8288            ldrh        r2,[r0,#0x4]                            
ram:08003760    038b            ldrh        r3,[r0,#0x18]                           
ram:08003762    594d            ldr         r5,[DAT_080038c8]                       ;= 00008CFFh
ram:08003764    2b40            ands        r3,r5                                   
ram:08003766    0d78            ldrb        r5,[r1,#0x0]                            
ram:08003768    2d06            lsls        r5,r5,#0x18                             
ram:0800376a    2d0c            lsrs        r5,r5,#0x10                             
ram:0800376c    1d43            orrs        r5,r3                                   
ram:0800376e    2023            movs        r3,#0x20                                
ram:08003770    9c43            bics        r4,r3                                   
ram:08003772    8b89            ldrh        r3,[r1,#0xc]                            
ram:08003774    1b05            lsls        r3,r3,#0x14                             
ram:08003776    1e0c            lsrs        r6,r3,#0x10                             
ram:08003778    4b88            ldrh        r3,[r1,#0x2]                            
ram:0800377a    2643            orrs        r6,r4                                   
ram:0800377c    1b05            lsls        r3,r3,#0x14                             
ram:0800377e    1b0c            lsrs        r3,r3,#0x10                             
ram:08003780    484c            ldr         r4,[DAT_080038a4]                       ;= 40012C00h
ram:08003782    3343            orrs        r3,r6                                   
ram:08003784    a042            cmp         r0,r4                                   
ram:08003786    02d0            beq         LAB_0800378e                            
ram:08003788    4b4e            ldr         r6,[DAT_080038b8]                       ;= 40014000h
ram:0800378a    b042            cmp         r0,r6                                   
ram:0800378c    19d1            bne         LAB_080037c2                            
                            LAB_0800378e:                 ;XREF[1,0]:   08003786
ram:0800378e    4f4e            ldr         r6,[DAT_080038cc]                       ;= 0000FBFFh
ram:08003790    3240            ands        r2,r6                                   
ram:08003792    0e8a            ldrh        r6,[r1,#0x10]                           
ram:08003794    b604            lsls        r6,r6,#0x12                             
ram:08003796    360c            lsrs        r6,r6,#0x10                             
ram:08003798    3243            orrs        r2,r6                                   
ram:0800379a    a042            cmp         r0,r4                                   
ram:0800379c    11d1            bne         LAB_080037c2                            
ram:0800379e    8024            movs        r4,#0x80                                
ram:080037a0    a343            bics        r3,r4                                   
ram:080037a2    cc89            ldrh        r4,[r1,#0xe]                            
ram:080037a4    2405            lsls        r4,r4,#0x14                             
ram:080037a6    240c            lsrs        r4,r4,#0x10                             
ram:080037a8    1c43            orrs        r4,r3                                   
ram:080037aa    4023            movs        r3,#0x40                                
ram:080037ac    9c43            bics        r4,r3                                   
ram:080037ae    8b88            ldrh        r3,[r1,#0x4]                            
ram:080037b0    1b05            lsls        r3,r3,#0x14                             
ram:080037b2    1b0c            lsrs        r3,r3,#0x10                             
ram:080037b4    2343            orrs        r3,r4                                   
ram:080037b6    464c            ldr         r4,[DAT_080038d0]                       ;= 0000F7FFh
ram:080037b8    2240            ands        r2,r4                                   
ram:080037ba    4c8a            ldrh        r4,[r1,#0x12]                           
ram:080037bc    a404            lsls        r4,r4,#0x12                             
ram:080037be    240c            lsrs        r4,r4,#0x10                             
ram:080037c0    2243            orrs        r2,r4                                   
                            LAB_080037c2:                 ;XREF[2,0]:   0800378c,0800379c
ram:080037c2    8280            strh        r2,[r0,#0x4]                            
ram:080037c4    0583            strh        r5,[r0,#0x18]                           
ram:080037c6    8968            ldr         r1,[r1,#0x8]                            
ram:080037c8    8163            str         r1,[r0,#0x38]                           
ram:080037ca    0384            strh        r3,[r0,#0x20]                           
ram:080037cc    70bc            pop         {r4,r5,r6}                              
ram:080037ce    7047            bx          lr                                      
ram:080037d0    30b4            push        {r4,r5}                                 
ram:080037d2    028c            ldrh        r2,[r0,#0x20]                           
ram:080037d4    3f4b            ldr         r3,[DAT_080038d4]                       ;= 0000FEFFh
ram:080037d6    1a40            ands        r2,r3                                   
ram:080037d8    0284            strh        r2,[r0,#0x20]                           
ram:080037da    038c            ldrh        r3,[r0,#0x20]                           
ram:080037dc    8288            ldrh        r2,[r0,#0x4]                            
ram:080037de    848b            ldrh        r4,[r0,#0x1c]                           
ram:080037e0    7025            movs        r5,#0x70                                
ram:080037e2    ac43            bics        r4,r5                                   
ram:080037e4    a408            lsrs        r4,r4,#0x2                              
ram:080037e6    0d88            ldrh        r5,[r1,#0x0]                            
ram:080037e8    a400            lsls        r4,r4,#0x2                              
ram:080037ea    2543            orrs        r5,r4                                   
ram:080037ec    3a4c            ldr         r4,[DAT_080038d8]                       ;= 0000FDFFh
ram:080037ee    2340            ands        r3,r4                                   
ram:080037f0    0c7b            ldrb        r4,[r1,#0xc]                            
ram:080037f2    2406            lsls        r4,r4,#0x18                             
ram:080037f4    240c            lsrs        r4,r4,#0x10                             
ram:080037f6    1c43            orrs        r4,r3                                   
ram:080037f8    8b78            ldrb        r3,[r1,#0x2]                            
ram:080037fa    1b06            lsls        r3,r3,#0x18                             
ram:080037fc    1b0c            lsrs        r3,r3,#0x10                             
ram:080037fe    2343            orrs        r3,r4                                   
ram:08003800    284c            ldr         r4,[DAT_080038a4]                       ;= 40012C00h
ram:08003802    a042            cmp         r0,r4                                   
ram:08003804    15d1            bne         LAB_08003832                            
ram:08003806    324c            ldr         r4,[DAT_080038d0]                       ;= 0000F7FFh
ram:08003808    2340            ands        r3,r4                                   
ram:0800380a    8c7b            ldrb        r4,[r1,#0xe]                            
ram:0800380c    2406            lsls        r4,r4,#0x18                             
ram:0800380e    240c            lsrs        r4,r4,#0x10                             
ram:08003810    1c43            orrs        r4,r3                                   
ram:08003812    2e4b            ldr         r3,[DAT_080038cc]                       ;= 0000FBFFh
ram:08003814    1c40            ands        r4,r3                                   
ram:08003816    0b79            ldrb        r3,[r1,#0x4]                            
ram:08003818    1b06            lsls        r3,r3,#0x18                             
ram:0800381a    1b0c            lsrs        r3,r3,#0x10                             
ram:0800381c    2343            orrs        r3,r4                                   
ram:0800381e    2f4c            ldr         r4,[DAT_080038dc]                       ;= 0000CFFFh
ram:08003820    2240            ands        r2,r4                                   
ram:08003822    0c8a            ldrh        r4,[r1,#0x10]                           
ram:08003824    2405            lsls        r4,r4,#0x14                             
ram:08003826    240c            lsrs        r4,r4,#0x10                             
ram:08003828    1443            orrs        r4,r2                                   
ram:0800382a    4a8a            ldrh        r2,[r1,#0x12]                           
ram:0800382c    1205            lsls        r2,r2,#0x14                             
ram:0800382e    120c            lsrs        r2,r2,#0x10                             
ram:08003830    2243            orrs        r2,r4                                   
                            LAB_08003832:                 ;XREF[1,0]:   08003804
ram:08003832    8280            strh        r2,[r0,#0x4]                            
ram:08003834    8583            strh        r5,[r0,#0x1c]                           
ram:08003836    8968            ldr         r1,[r1,#0x8]                            
ram:08003838    c163            str         r1,[r0,#0x3c]                           
ram:0800383a    0384            strh        r3,[r0,#0x20]                           
ram:0800383c    30bc            pop         {r4,r5}                                 
ram:0800383e    7047            bx          lr                                      
ram:08003840    30b4            push        {r4,r5}                                 
ram:08003842    028c            ldrh        r2,[r0,#0x20]                           
ram:08003844    264b            ldr         r3,[DAT_080038e0]                       ;= 0000EFFFh
ram:08003846    1a40            ands        r2,r3                                   
ram:08003848    0284            strh        r2,[r0,#0x20]                           
ram:0800384a    048c            ldrh        r4,[r0,#0x20]                           
ram:0800384c    8388            ldrh        r3,[r0,#0x4]                            
ram:0800384e    828b            ldrh        r2,[r0,#0x1c]                           
ram:08003850    1d4d            ldr         r5,[DAT_080038c8]                       ;= 00008CFFh
ram:08003852    2a40            ands        r2,r5                                   
ram:08003854    0d78            ldrb        r5,[r1,#0x0]                            
ram:08003856    2d06            lsls        r5,r5,#0x18                             
ram:08003858    2d0c            lsrs        r5,r5,#0x10                             
ram:0800385a    1543            orrs        r5,r2                                   
ram:0800385c    214a            ldr         r2,[DAT_080038e4]                       ;= 0000DFFFh
ram:0800385e    1440            ands        r4,r2                                   
ram:08003860    0a7b            ldrb        r2,[r1,#0xc]                            
ram:08003862    1207            lsls        r2,r2,#0x1c                             
ram:08003864    120c            lsrs        r2,r2,#0x10                             
ram:08003866    2243            orrs        r2,r4                                   
ram:08003868    8c78            ldrb        r4,[r1,#0x2]                            
ram:0800386a    2407            lsls        r4,r4,#0x1c                             
ram:0800386c    240c            lsrs        r4,r4,#0x10                             
ram:0800386e    1443            orrs        r4,r2                                   
ram:08003870    0c4a            ldr         r2,[DAT_080038a4]                       ;= 40012C00h
ram:08003872    9042            cmp         r0,r2                                   
ram:08003874    05d1            bne         LAB_08003882                            
ram:08003876    1c4a            ldr         r2,[DAT_080038e8]                       ;= 0000BFFFh
ram:08003878    1340            ands        r3,r2                                   
ram:0800387a    0a8a            ldrh        r2,[r1,#0x10]                           
ram:0800387c    9205            lsls        r2,r2,#0x16                             
ram:0800387e    120c            lsrs        r2,r2,#0x10                             
ram:08003880    1343            orrs        r3,r2                                   
                            LAB_08003882:                 ;XREF[1,0]:   08003874
ram:08003882    8380            strh        r3,[r0,#0x4]                            
ram:08003884    8583            strh        r5,[r0,#0x1c]                           
ram:08003886    8968            ldr         r1,[r1,#0x8]                            
ram:08003888    0164            str         r1,[r0,#0x40]                           
ram:0800388a    0484            strh        r4,[r0,#0x20]                           
ram:0800388c    30bc            pop         {r4,r5}                                 
ram:0800388e    7047            bx          lr                                      
ram:08003890    0021            movs        r1,#0x0                                 
ram:08003892    0180            strh        r1,[r0,#0x0]                            
ram:08003894    4180            strh        r1,[r0,#0x2]                            
ram:08003896    8180            strh        r1,[r0,#0x4]                            
ram:08003898    8160            str         r1,[r0,#0x8]                            
ram:0800389a    8181            strh        r1,[r0,#0xc]                            
ram:0800389c    c181            strh        r1,[r0,#0xe]                            
ram:0800389e    0182            strh        r1,[r0,#0x10]                           
ram:080038a0    4182            strh        r1,[r0,#0x12]                           
ram:080038a2    7047            bx          lr                                      
                            DAT_080038a4:                 ;XREF[5,0]:   080035a6,08003710,08003780,08003800
                                                          ;             08003870
ram:080038a4    002c0140        undefined4  40012C00h                               
                            DAT_080038a8:                 ;XREF[1,0]:   080035b4
ram:080038a8    00040040        undefined4  40000400h                               
                            DAT_080038ac:                 ;XREF[1,0]:   080035c2
ram:080038ac    00100040        undefined4  40001000h                               
                            DAT_080038b8:                 ;XREF[3,0]:   080035de,08003716,08003788
ram:080038b8    00400140        undefined4  40014000h                               
                            DAT_080038bc:                 ;XREF[2,0]:   080035e4,0800371c
ram:080038bc    00440140        undefined4  40014400h                               
                            DAT_080038c0:                 ;XREF[2,0]:   080035ea,08003722
ram:080038c0    00480140        undefined4  40014800h                               
                            DAT_080038c4:                 ;XREF[3,0]:   080035c8,08003678,08003738
ram:080038c4    fffc0000        undefined4  0000FCFFh                               
                            DAT_080038c8:                 ;XREF[2,0]:   08003762,08003850
ram:080038c8    ff8c0000        undefined4  00008CFFh                               
                            DAT_080038cc:                 ;XREF[2,0]:   0800378e,08003812
ram:080038cc    fffb0000        undefined4  0000FBFFh                               
                            DAT_080038d0:                 ;XREF[2,0]:   080037b6,08003806
ram:080038d0    fff70000        undefined4  0000F7FFh                               
                            DAT_080038d4:                 ;XREF[1,0]:   080037d4
ram:080038d4    fffe0000        undefined4  0000FEFFh                               
                            DAT_080038d8:                 ;XREF[1,0]:   080037ec
ram:080038d8    fffd0000        undefined4  0000FDFFh                               
                            DAT_080038dc:                 ;XREF[1,0]:   0800381e
ram:080038dc    ffcf0000        undefined4  0000CFFFh                               
                            DAT_080038e0:                 ;XREF[1,0]:   08003844
ram:080038e0    ffef0000        undefined4  0000EFFFh                               
                            DAT_080038e4:                 ;XREF[1,0]:   0800385c
ram:080038e4    ffdf0000        undefined4  0000DFFFh                               
                            DAT_080038e8:                 ;XREF[1,0]:   08003876
ram:080038e8    ffbf0000        undefined4  0000BFFFh                               
                            ;************************************************************************************************
                            ;*                                           FUNCTION                                           *
                            ;************************************************************************************************
                            ;undefined FUN_08003b22(int param_1, short * param_2)
          ;param_1       int                 r0                      
          ;param_2       short *             r1                      
                                                          ;XREF[4,0]:   08004b76,08004b84,08004b92,08004ba0
ram:08003b22    f0b4            push        {r4,r5,r6,r7}                           
ram:08003b24    0c88            ldrh        r4,[param_2,#0x0]                       
ram:08003b26    f327            movs        r7,#0xf3                                
ram:08003b28    4e88            ldrh        r6,[param_2,#0x2]                       
ram:08003b2a    8b88            ldrh        r3,[param_2,#0x4]                       
ram:08003b2c    0a89            ldrh        r2,[param_2,#0x8]                       
ram:08003b2e    002c            cmp         r4,#0x0                                 
ram:08003b30    23d0            beq         LAB_08003b7a                            
ram:08003b32    042c            cmp         r4,#0x4                                 
ram:08003b34    3cd0            beq         LAB_08003bb0                            
ram:08003b36    082c            cmp         r4,#0x8                                 
ram:08003b38    048c            ldrh        r4,[param_1,#0x20]                      
ram:08003b3a    58d0            beq         LAB_08003bee                            
ram:08003b3c    8a4d            ldr         r5,[DAT_08003d68]                       ;= 0000EFFFh
ram:08003b3e    2c40            ands        r4,r5                                   
ram:08003b40    0484            strh        r4,[param_1,#0x20]                      
ram:08003b42    848b            ldrh        r4,[param_1,#0x1c]                      
ram:08003b44    078c            ldrh        r7,[param_1,#0x20]                      
ram:08003b46    3503            lsls        r5,r6,#0xc                              
ram:08003b48    884e            ldr         r6,[DAT_08003d6c]                       ;= 00000CFFh
ram:08003b4a    1b02            lsls        r3,r3,#0x8                              
ram:08003b4c    3440            ands        r4,r6                                   
ram:08003b4e    2343            orrs        r3,r4                                   
ram:08003b50    1203            lsls        r2,r2,#0xc                              
ram:08003b52    1a43            orrs        r2,r3                                   
ram:08003b54    864b            ldr         r3,[DAT_08003d70]                       ;= 00005FFFh
ram:08003b56    8283            strh        r2,[param_1,#0x1c]                      
ram:08003b58    1f40            ands        r7,r3                                   
ram:08003b5a    0123            movs        r3,#0x1                                 
ram:08003b5c    2f43            orrs        r7,r5                                   
ram:08003b5e    1b03            lsls        r3,r3,#0xc                              
ram:08003b60    1f43            orrs        r7,r3                                   
ram:08003b62    0784            strh        r7,[param_1,#0x20]                      
ram:08003b64    8979            ldrb        param_2,[param_2,#0x6]                  
ram:08003b66    828b            ldrh        r2,[param_1,#0x1c]                      
ram:08003b68    7e4b            ldr         r3,[DAT_08003d64]                       ;= 0000F3FFh
ram:08003b6a    1a40            ands        r2,r3                                   
ram:08003b6c    8283            strh        r2,[param_1,#0x1c]                      
ram:08003b6e    828b            ldrh        r2,[param_1,#0x1c]                      
ram:08003b70    0902            lsls        param_2,param_2,#0x8                    
ram:08003b72    0a43            orrs        r2,param_2                              
ram:08003b74    8283            strh        r2,[param_1,#0x1c]                      
ram:08003b76    f0bc            pop         {r4,r5,r6,r7}                           
ram:08003b78    7047            bx          lr                                      
                            LAB_08003b7a:                 ;XREF[1,0]:   08003b30
ram:08003b7a    048c            ldrh        r4,[param_1,#0x20]                      
ram:08003b7c    6408            lsrs        r4,r4,#0x1                              
ram:08003b7e    6400            lsls        r4,r4,#0x1                              
ram:08003b80    0484            strh        r4,[param_1,#0x20]                      
ram:08003b82    058b            ldrh        r5,[param_1,#0x18]                      
ram:08003b84    048c            ldrh        r4,[param_1,#0x20]                      
ram:08003b86    1201            lsls        r2,r2,#0x4                              
ram:08003b88    1a43            orrs        r2,r3                                   
ram:08003b8a    0a23            movs        r3,#0xa                                 
ram:08003b8c    bd43            bics        r5,r7                                   
ram:08003b8e    9c43            bics        r4,r3                                   
ram:08003b90    2a43            orrs        r2,r5                                   
ram:08003b92    3443            orrs        r4,r6                                   
ram:08003b94    0123            movs        r3,#0x1                                 
ram:08003b96    1c43            orrs        r4,r3                                   
ram:08003b98    0283            strh        r2,[param_1,#0x18]                      
ram:08003b9a    0484            strh        r4,[param_1,#0x20]                      
ram:08003b9c    c988            ldrh        param_2,[param_2,#0x6]                  
ram:08003b9e    038b            ldrh        r3,[param_1,#0x18]                      
ram:08003ba0    0c22            movs        r2,#0xc                                 
ram:08003ba2    9343            bics        r3,r2                                   
ram:08003ba4    0383            strh        r3,[param_1,#0x18]                      
ram:08003ba6    028b            ldrh        r2,[param_1,#0x18]                      
ram:08003ba8    0a43            orrs        r2,param_2                              
ram:08003baa    0283            strh        r2,[param_1,#0x18]                      
ram:08003bac    f0bc            pop         {r4,r5,r6,r7}                           
ram:08003bae    7047            bx          lr                                      
                            LAB_08003bb0:                 ;XREF[1,0]:   08003b34
ram:08003bb0    048c            ldrh        r4,[param_1,#0x20]                      
ram:08003bb2    1025            movs        r5,#0x10                                
ram:08003bb4    ac43            bics        r4,r5                                   
ram:08003bb6    0484            strh        r4,[param_1,#0x20]                      
ram:08003bb8    058b            ldrh        r5,[param_1,#0x18]                      
ram:08003bba    048c            ldrh        r4,[param_1,#0x20]                      
ram:08003bbc    6b4f            ldr         r7,[DAT_08003d6c]                       ;= 00000CFFh
ram:08003bbe    1203            lsls        r2,r2,#0xc                              
ram:08003bc0    3601            lsls        r6,r6,#0x4                              
ram:08003bc2    3d40            ands        r5,r7                                   
ram:08003bc4    2a43            orrs        r2,r5                                   
ram:08003bc6    1b02            lsls        r3,r3,#0x8                              
ram:08003bc8    1343            orrs        r3,r2                                   
ram:08003bca    a022            movs        r2,#0xa0                                
ram:08003bcc    9443            bics        r4,r2                                   
ram:08003bce    3443            orrs        r4,r6                                   
ram:08003bd0    1022            movs        r2,#0x10                                
ram:08003bd2    1443            orrs        r4,r2                                   
ram:08003bd4    0383            strh        r3,[param_1,#0x18]                      
ram:08003bd6    0484            strh        r4,[param_1,#0x20]                      
ram:08003bd8    8979            ldrb        param_2,[param_2,#0x6]                  
ram:08003bda    028b            ldrh        r2,[param_1,#0x18]                      
ram:08003bdc    614b            ldr         r3,[DAT_08003d64]                       ;= 0000F3FFh
ram:08003bde    1a40            ands        r2,r3                                   
ram:08003be0    0283            strh        r2,[param_1,#0x18]                      
ram:08003be2    028b            ldrh        r2,[param_1,#0x18]                      
ram:08003be4    0902            lsls        param_2,param_2,#0x8                    
ram:08003be6    0a43            orrs        r2,param_2                              
ram:08003be8    0283            strh        r2,[param_1,#0x18]                      
ram:08003bea    f0bc            pop         {r4,r5,r6,r7}                           
ram:08003bec    7047            bx          lr                                      
                            LAB_08003bee:                 ;XREF[1,0]:   08003b3a
ram:08003bee    614d            ldr         r5,[DAT_08003d74]                       ;= 0000FEFFh
ram:08003bf0    2c40            ands        r4,r5                                   
ram:08003bf2    0484            strh        r4,[param_1,#0x20]                      
ram:08003bf4    858b            ldrh        r5,[param_1,#0x1c]                      
ram:08003bf6    048c            ldrh        r4,[param_1,#0x20]                      
ram:08003bf8    1201            lsls        r2,r2,#0x4                              
ram:08003bfa    1a43            orrs        r2,r3                                   
ram:08003bfc    5e4b            ldr         r3,[DAT_08003d78]                       ;= 0000F5FFh
ram:08003bfe    3602            lsls        r6,r6,#0x8                              
ram:08003c00    1c40            ands        r4,r3                                   
ram:08003c02    bd43            bics        r5,r7                                   
ram:08003c04    2a43            orrs        r2,r5                                   
ram:08003c06    ff23            movs        r3,#0xff                                
ram:08003c08    3443            orrs        r4,r6                                   
ram:08003c0a    0133            adds        r3,#0x1                                 
ram:08003c0c    1c43            orrs        r4,r3                                   
ram:08003c0e    8283            strh        r2,[param_1,#0x1c]                      
ram:08003c10    0484            strh        r4,[param_1,#0x20]                      
ram:08003c12    c988            ldrh        param_2,[param_2,#0x6]                  
ram:08003c14    838b            ldrh        r3,[param_1,#0x1c]                      
ram:08003c16    0c22            movs        r2,#0xc                                 
ram:08003c18    9343            bics        r3,r2                                   
ram:08003c1a    8383            strh        r3,[param_1,#0x1c]                      
ram:08003c1c    828b            ldrh        r2,[param_1,#0x1c]                      
ram:08003c1e    0a43            orrs        r2,param_2                              
ram:08003c20    8283            strh        r2,[param_1,#0x1c]                      
ram:08003c22    f0bc            pop         {r4,r5,r6,r7}                           
ram:08003c24    7047            bx          lr                                      
ram:08003c26    0021            movs        r1,#0x0                                 
ram:08003c28    0180            strh        r1,[r0,#0x0]                            
ram:08003c2a    4180            strh        r1,[r0,#0x2]                            
ram:08003c2c    0122            movs        r2,#0x1                                 
ram:08003c2e    8280            strh        r2,[r0,#0x4]                            
ram:08003c30    c180            strh        r1,[r0,#0x6]                            
ram:08003c32    0181            strh        r1,[r0,#0x8]                            
ram:08003c34    7047            bx          lr                                      
ram:08003c36    f0b5            push        {r4,r5,r6,r7,lr}                        
ram:08003c38    4c88            ldrh        r4,[r1,#0x2]                            
ram:08003c3a    0023            movs        r3,#0x0                                 
ram:08003c3c    0122            movs        r2,#0x1                                 
ram:08003c3e    002c            cmp         r4,#0x0                                 
ram:08003c40    00d1            bne         LAB_08003c44                            
ram:08003c42    0223            movs        r3,#0x2                                 
                            LAB_08003c44:                 ;XREF[1,0]:   08003c40
ram:08003c44    8f88            ldrh        r7,[r1,#0x4]                            
ram:08003c46    012f            cmp         r7,#0x1                                 
ram:08003c48    00d1            bne         LAB_08003c4c                            
ram:08003c4a    0222            movs        r2,#0x2                                 
                            LAB_08003c4c:                 ;XREF[1,0]:   08003c48
ram:08003c4c    0d88            ldrh        r5,[r1,#0x0]                            
ram:08003c4e    0e89            ldrh        r6,[r1,#0x8]                            
ram:08003c50    002d            cmp         r5,#0x0                                 
ram:08003c52    a446            mov         r12,r4                                  
ram:08003c54    3ed0            beq         LAB_08003cd4                            
ram:08003c56    058c            ldrh        r5,[r0,#0x20]                           
ram:08003c58    1024            movs        r4,#0x10                                
ram:08003c5a    a543            bics        r5,r4                                   
ram:08003c5c    0584            strh        r5,[r0,#0x20]                           
ram:08003c5e    058b            ldrh        r5,[r0,#0x18]                           
ram:08003c60    048c            ldrh        r4,[r0,#0x20]                           
ram:08003c62    a646            mov         lr,r4                                   
ram:08003c64    6446            mov         r4,r12                                  
ram:08003c66    2401            lsls        r4,r4,#0x4                              
ram:08003c68    a446            mov         r12,r4                                  
ram:08003c6a    404c            ldr         r4,[DAT_08003d6c]                       ;= 00000CFFh
ram:08003c6c    2540            ands        r5,r4                                   
ram:08003c6e    3403            lsls        r4,r6,#0xc                              
ram:08003c70    2c43            orrs        r4,r5                                   
ram:08003c72    3d02            lsls        r5,r7,#0x8                              
ram:08003c74    2543            orrs        r5,r4                                   
ram:08003c76    7446            mov         r4,lr                                   
ram:08003c78    a026            movs        r6,#0xa0                                
ram:08003c7a    b443            bics        r4,r6                                   
ram:08003c7c    2646            mov         r6,r4                                   
ram:08003c7e    6446            mov         r4,r12                                  
ram:08003c80    2643            orrs        r6,r4                                   
ram:08003c82    1024            movs        r4,#0x10                                
ram:08003c84    2643            orrs        r6,r4                                   
ram:08003c86    0583            strh        r5,[r0,#0x18]                           
ram:08003c88    0684            strh        r6,[r0,#0x20]                           
ram:08003c8a    8c79            ldrb        r4,[r1,#0x6]                            
ram:08003c8c    058b            ldrh        r5,[r0,#0x18]                           
ram:08003c8e    354e            ldr         r6,[DAT_08003d64]                       ;= 0000F3FFh
ram:08003c90    3540            ands        r5,r6                                   
ram:08003c92    0583            strh        r5,[r0,#0x18]                           
ram:08003c94    058b            ldrh        r5,[r0,#0x18]                           
ram:08003c96    2402            lsls        r4,r4,#0x8                              
ram:08003c98    2543            orrs        r5,r4                                   
ram:08003c9a    0583            strh        r5,[r0,#0x18]                           
ram:08003c9c    0f89            ldrh        r7,[r1,#0x8]                            
ram:08003c9e    048c            ldrh        r4,[r0,#0x20]                           
ram:08003ca0    6408            lsrs        r4,r4,#0x1                              
ram:08003ca2    6400            lsls        r4,r4,#0x1                              
ram:08003ca4    0484            strh        r4,[r0,#0x20]                           
ram:08003ca6    058b            ldrh        r5,[r0,#0x18]                           
ram:08003ca8    048c            ldrh        r4,[r0,#0x20]                           
ram:08003caa    f326            movs        r6,#0xf3                                
ram:08003cac    b543            bics        r5,r6                                   
ram:08003cae    3e01            lsls        r6,r7,#0x4                              
ram:08003cb0    1643            orrs        r6,r2                                   
ram:08003cb2    0a22            movs        r2,#0xa                                 
ram:08003cb4    9443            bics        r4,r2                                   
ram:08003cb6    2e43            orrs        r6,r5                                   
ram:08003cb8    1c43            orrs        r4,r3                                   
ram:08003cba    0122            movs        r2,#0x1                                 
ram:08003cbc    1443            orrs        r4,r2                                   
ram:08003cbe    0683            strh        r6,[r0,#0x18]                           
ram:08003cc0    0484            strh        r4,[r0,#0x20]                           
ram:08003cc2    c988            ldrh        r1,[r1,#0x6]                            
ram:08003cc4    028b            ldrh        r2,[r0,#0x18]                           
ram:08003cc6    0c23            movs        r3,#0xc                                 
ram:08003cc8    9a43            bics        r2,r3                                   
ram:08003cca    0283            strh        r2,[r0,#0x18]                           
ram:08003ccc    028b            ldrh        r2,[r0,#0x18]                           
ram:08003cce    0a43            orrs        r2,r1                                   
ram:08003cd0    0283            strh        r2,[r0,#0x18]                           
ram:08003cd2    f0bd            pop         {r4,r5,r6,r7,pc}                        
                            LAB_08003cd4:                 ;XREF[1,0]:   08003c54
ram:08003cd4    058c            ldrh        r5,[r0,#0x20]                           
ram:08003cd6    3446            mov         r4,r6                                   
ram:08003cd8    6d08            lsrs        r5,r5,#0x1                              
ram:08003cda    6d00            lsls        r5,r5,#0x1                              
ram:08003cdc    0584            strh        r5,[r0,#0x20]                           
ram:08003cde    058b            ldrh        r5,[r0,#0x18]                           
ram:08003ce0    068c            ldrh        r6,[r0,#0x20]                           
ram:08003ce2    2401            lsls        r4,r4,#0x4                              
ram:08003ce4    b646            mov         lr,r6                                   
ram:08003ce6    f326            movs        r6,#0xf3                                
ram:08003ce8    b543            bics        r5,r6                                   
ram:08003cea    3c43            orrs        r4,r7                                   
ram:08003cec    2c43            orrs        r4,r5                                   
ram:08003cee    7646            mov         r6,lr                                   
ram:08003cf0    0a25            movs        r5,#0xa                                 
ram:08003cf2    ae43            bics        r6,r5                                   
ram:08003cf4    6546            mov         r5,r12                                  
ram:08003cf6    2e43            orrs        r6,r5                                   
ram:08003cf8    0125            movs        r5,#0x1                                 
ram:08003cfa    2e43            orrs        r6,r5                                   
ram:08003cfc    0483            strh        r4,[r0,#0x18]                           
ram:08003cfe    0684            strh        r6,[r0,#0x20]                           
ram:08003d00    cc88            ldrh        r4,[r1,#0x6]                            
ram:08003d02    058b            ldrh        r5,[r0,#0x18]                           
ram:08003d04    0c26            movs        r6,#0xc                                 
ram:08003d06    b543            bics        r5,r6                                   
ram:08003d08    0583            strh        r5,[r0,#0x18]                           
ram:08003d0a    058b            ldrh        r5,[r0,#0x18]                           
ram:08003d0c    2543            orrs        r5,r4                                   
ram:08003d0e    0583            strh        r5,[r0,#0x18]                           
ram:08003d10    0d7a            ldrb        r5,[r1,#0x8]                            
ram:08003d12    048c            ldrh        r4,[r0,#0x20]                           
ram:08003d14    1026            movs        r6,#0x10                                
ram:08003d16    b443            bics        r4,r6                                   
ram:08003d18    0484            strh        r4,[r0,#0x20]                           
ram:08003d1a    048b            ldrh        r4,[r0,#0x18]                           
ram:08003d1c    078c            ldrh        r7,[r0,#0x20]                           
ram:08003d1e    134e            ldr         r6,[DAT_08003d6c]                       ;= 00000CFFh
ram:08003d20    2d03            lsls        r5,r5,#0xc                              
ram:08003d22    3440            ands        r4,r6                                   
ram:08003d24    2543            orrs        r5,r4                                   
ram:08003d26    1b01            lsls        r3,r3,#0x4                              
ram:08003d28    a024            movs        r4,#0xa0                                
ram:08003d2a    1202            lsls        r2,r2,#0x8                              
ram:08003d2c    a743            bics        r7,r4                                   
ram:08003d2e    2a43            orrs        r2,r5                                   
ram:08003d30    1f43            orrs        r7,r3                                   
ram:08003d32    1023            movs        r3,#0x10                                
ram:08003d34    1f43            orrs        r7,r3                                   
ram:08003d36    0283            strh        r2,[r0,#0x18]                           
ram:08003d38    0784            strh        r7,[r0,#0x20]                           
ram:08003d3a    8979            ldrb        r1,[r1,#0x6]                            
ram:08003d3c    028b            ldrh        r2,[r0,#0x18]                           
ram:08003d3e    094b            ldr         r3,[DAT_08003d64]                       ;= 0000F3FFh
ram:08003d40    1a40            ands        r2,r3                                   
ram:08003d42    0283            strh        r2,[r0,#0x18]                           
ram:08003d44    028b            ldrh        r2,[r0,#0x18]                           
ram:08003d46    0902            lsls        r1,r1,#0x8                              
ram:08003d48    0a43            orrs        r2,r1                                   
ram:08003d4a    0283            strh        r2,[r0,#0x18]                           
ram:08003d4c    f0bd            pop         {r4,r5,r6,r7,pc}                        
ram:08003d4e    0000            movs        r0,r0                                   
ram:08003d50    ff8f            ldrh        r7,[r7,#0x3e]                           
ram:08003d52    0000            movs        r0,r0                                   
                            DAT_08003d64:                 ;XREF[4,0]:   08003b68,08003bdc,08003c8e,08003d3e
ram:08003d64    fff30000        undefined4  0000F3FFh                               
                            DAT_08003d68:                 ;XREF[1,0]:   08003b3c
ram:08003d68    ffef0000        undefined4  0000EFFFh                               
                            DAT_08003d6c:                 ;XREF[4,0]:   08003b48,08003bbc,08003c6a,08003d1e
ram:08003d6c    ff0c0000        undefined4  00000CFFh                               
                            DAT_08003d70:                 ;XREF[1,0]:   08003b54
ram:08003d70    ff5f0000        undefined4  00005FFFh                               
                            DAT_08003d74:                 ;XREF[1,0]:   08003bee
ram:08003d74    fffe0000        undefined4  0000FEFFh                               
                            DAT_08003d78:                 ;XREF[1,0]:   08003bfc
ram:08003d78    fff50000        undefined4  0000F5FFh                               
                            ;************************************************************************************************
                            ;*                                           FUNCTION                                           *
                            ;************************************************************************************************
                            ;undefined4 FUN_08003d7c(int param_1)
          ;param_1       int                 r0                      
                                                          ;XREF[1,0]:   08002ab0
ram:08003d7c    406b            ldr         param_1,[param_1,#0x34]                 
ram:08003d7e    7047            bx          lr                                      
                            ;************************************************************************************************
                            ;*                                           FUNCTION                                           *
                            ;************************************************************************************************
                            ;undefined4 FUN_08003d80(int param_1)
          ;param_1       int                 r0                      
                                                          ;XREF[1,0]:   08002abc
ram:08003d80    806b            ldr         param_1,[param_1,#0x38]                 
ram:08003d82    7047            bx          lr                                      
                            ;************************************************************************************************
                            ;*                                           FUNCTION                                           *
                            ;************************************************************************************************
                            ;undefined4 FUN_08003d84(int param_1)
          ;param_1       int                 r0                      
                                                          ;XREF[1,0]:   08002ac8
ram:08003d84    c06b            ldr         param_1,[param_1,#0x3c]                 
ram:08003d86    7047            bx          lr                                      
                            ;************************************************************************************************
                            ;*                                           FUNCTION                                           *
                            ;************************************************************************************************
                            ;undefined4 FUN_08003d88(int param_1)
          ;param_1       int                 r0                      
                                                          ;XREF[1,0]:   08002ad4
ram:08003d88    006c            ldr         param_1,[param_1,#0x40]                 
ram:08003d8a    7047            bx          lr                                      
                            ;************************************************************************************************
                            ;*                                           FUNCTION                                           *
                            ;************************************************************************************************
                            ;undefined FUN_08003d8c(int param_1, ushort param_2, int param_3)
          ;param_1       int                 r0                      
          ;param_2       ushort              r1                      
          ;param_3       int                 r2                      
                                                          ;XREF[1,0]:   08004bcc
ram:08003d8c    002a            cmp         param_3,#0x0                            
ram:08003d8e    8289            ldrh        param_3,[param_1,#0xc]                  
ram:08003d90    01d0            beq         LAB_08003d96                            
ram:08003d92    0a43            orrs        param_3,param_2                         
ram:08003d94    00e0            b           LAB_08003d98                            
                            LAB_08003d96:                 ;XREF[1,0]:   08003d90
ram:08003d96    8a43            bics        param_3,param_2                         
                            LAB_08003d98:                 ;XREF[1,0]:   08003d94
ram:08003d98    8281            strh        param_3,[param_1,#0xc]                  
ram:08003d9a    7047            bx          lr                                      
ram:08003d9c    8182            strh        r1,[r0,#0x14]                           
ram:08003d9e    7047            bx          lr                                      
                            ;************************************************************************************************
                            ;*                                           FUNCTION                                           *
                            ;************************************************************************************************
                            ;bool FUN_08003da0(int param_1, ushort param_2)
          ;param_1       int                 r0                      
          ;param_2       ushort              r1                      
                                                          ;XREF[2,0]:   08002a24,08002a8c
ram:08003da0    0246            mov         r2,param_1                              
ram:08003da2    128a            ldrh        r2,[r2,#0x10]                           
ram:08003da4    0020            movs        param_1,#0x0                            
ram:08003da6    0a42            tst         r2,param_2                              
ram:08003da8    00d0            beq         LAB_08003dac                            
ram:08003daa    0120            movs        param_1,#0x1                            
                            LAB_08003dac:                 ;XREF[1,0]:   08003da8
ram:08003dac    7047            bx          lr                                      
                            ;************************************************************************************************
                            ;*                                           FUNCTION                                           *
                            ;************************************************************************************************
                            ;undefined FUN_08003dae(int param_1, ushort param_2)
          ;param_1       int                 r0                      
          ;param_2       ushort              r1                      
                                                          ;XREF[2,0]:   08002a34,08002a98
ram:08003dae    c943            mvns        param_2,param_2                         
ram:08003db0    0182            strh        param_2,[param_1,#0x10]                 
ram:08003db2    7047            bx          lr                                      
ram:08003db4    038a            ldrh        r3,[r0,#0x10]                           
ram:08003db6    0022            movs        r2,#0x0                                 
ram:08003db8    8089            ldrh        r0,[r0,#0xc]                            
ram:08003dba    0b40            ands        r3,r1                                   
ram:08003dbc    0840            ands        r0,r1                                   
ram:08003dbe    002b            cmp         r3,#0x0                                 
ram:08003dc0    02d0            beq         LAB_08003dc8                            
ram:08003dc2    0028            cmp         r0,#0x0                                 
ram:08003dc4    00d0            beq         LAB_08003dc8                            
ram:08003dc6    0122            movs        r2,#0x1                                 
                            LAB_08003dc8:                 ;XREF[2,0]:   08003dc0,08003dc4
ram:08003dc8    1046            mov         r0,r2                                   
ram:08003dca    7047            bx          lr                                      
ram:08003dcc    c943            mvns        r1,r1                                   
ram:08003dce    0182            strh        r1,[r0,#0x10]                           
ram:08003dd0    7047            bx          lr                                      
ram:08003dd2    1143            orrs        r1,r2                                   
ram:08003dd4    4030            adds        r0,#0x40                                
ram:08003dd6    0181            strh        r1,[r0,#0x8]                            
ram:08003dd8    7047            bx          lr                                      
ram:08003dda    002a            cmp         r2,#0x0                                 
ram:08003ddc    8289            ldrh        r2,[r0,#0xc]                            
ram:08003dde    01d0            beq         LAB_08003de4                            
ram:08003de0    0a43            orrs        r2,r1                                   
ram:08003de2    00e0            b           LAB_08003de6                            
                            LAB_08003de4:                 ;XREF[1,0]:   08003dde
ram:08003de4    8a43            bics        r2,r1                                   
                            LAB_08003de6:                 ;XREF[1,0]:   08003de2
ram:08003de6    8281            strh        r2,[r0,#0xc]                            
ram:08003de8    7047            bx          lr                                      
ram:08003dea    0822            movs        r2,#0x8                                 
ram:08003dec    0029            cmp         r1,#0x0                                 
ram:08003dee    8188            ldrh        r1,[r0,#0x4]                            
ram:08003df0    01d0            beq         LAB_08003df6                            
ram:08003df2    1143            orrs        r1,r2                                   
ram:08003df4    00e0            b           LAB_08003df8                            
                            LAB_08003df6:                 ;XREF[1,0]:   08003df0
ram:08003df6    9143            bics        r1,r2                                   
                            LAB_08003df8:                 ;XREF[1,0]:   08003df4
ram:08003df8    8180            strh        r1,[r0,#0x4]                            
ram:08003dfa    7047            bx          lr                                      
ram:08003dfc    0189            ldrh        r1,[r0,#0x8]                            
ram:08003dfe    c908            lsrs        r1,r1,#0x3                              
ram:08003e00    c900            lsls        r1,r1,#0x3                              
ram:08003e02    0181            strh        r1,[r0,#0x8]                            
ram:08003e04    7047            bx          lr                                      
ram:08003e06    0289            ldrh        r2,[r0,#0x8]                            
ram:08003e08    7023            movs        r3,#0x70                                
ram:08003e0a    9a43            bics        r2,r3                                   
ram:08003e0c    0a43            orrs        r2,r1                                   
ram:08003e0e    0281            strh        r2,[r0,#0x8]                            
ram:08003e10    7047            bx          lr                                      
ram:08003e12    0289            ldrh        r2,[r0,#0x8]                            
ram:08003e14    7023            movs        r3,#0x70                                
ram:08003e16    9a43            bics        r2,r3                                   
ram:08003e18    0a43            orrs        r2,r1                                   
ram:08003e1a    0281            strh        r2,[r0,#0x8]                            
ram:08003e1c    0189            ldrh        r1,[r0,#0x8]                            
ram:08003e1e    0722            movs        r2,#0x7                                 
ram:08003e20    1143            orrs        r1,r2                                   
ram:08003e22    0181            strh        r1,[r0,#0x8]                            
ram:08003e24    7047            bx          lr                                      
ram:08003e26    f0b4            push        {r4,r5,r6,r7}                           
ram:08003e28    6029            cmp         r1,#0x60                                
ram:08003e2a    1bd0            beq         LAB_08003e64                            
ram:08003e2c    048c            ldrh        r4,[r0,#0x20]                           
ram:08003e2e    0127            movs        r7,#0x1                                 
ram:08003e30    bc43            bics        r4,r7                                   
ram:08003e32    0484            strh        r4,[r0,#0x20]                           
ram:08003e34    058b            ldrh        r5,[r0,#0x18]                           
ram:08003e36    048c            ldrh        r4,[r0,#0x20]                           
ram:08003e38    f326            movs        r6,#0xf3                                
ram:08003e3a    1b01            lsls        r3,r3,#0x4                              
ram:08003e3c    b543            bics        r5,r6                                   
ram:08003e3e    3b43            orrs        r3,r7                                   
ram:08003e40    2b43            orrs        r3,r5                                   
ram:08003e42    0a25            movs        r5,#0xa                                 
ram:08003e44    ac43            bics        r4,r5                                   
ram:08003e46    1443            orrs        r4,r2                                   
ram:08003e48    3c43            orrs        r4,r7                                   
ram:08003e4a    0383            strh        r3,[r0,#0x18]                           
                            LAB_08003e4c:                 ;XREF[1,0]:   08003e88
ram:08003e4c    0484            strh        r4,[r0,#0x20]                           
ram:08003e4e    0289            ldrh        r2,[r0,#0x8]                            
ram:08003e50    7023            movs        r3,#0x70                                
ram:08003e52    9a43            bics        r2,r3                                   
ram:08003e54    0a43            orrs        r2,r1                                   
ram:08003e56    0281            strh        r2,[r0,#0x8]                            
ram:08003e58    0189            ldrh        r1,[r0,#0x8]                            
ram:08003e5a    0722            movs        r2,#0x7                                 
ram:08003e5c    1143            orrs        r1,r2                                   
ram:08003e5e    0181            strh        r1,[r0,#0x8]                            
ram:08003e60    f0bc            pop         {r4,r5,r6,r7}                           
ram:08003e62    7047            bx          lr                                      
                            LAB_08003e64:                 ;XREF[1,0]:   08003e2a
ram:08003e64    048c            ldrh        r4,[r0,#0x20]                           
ram:08003e66    1027            movs        r7,#0x10                                
ram:08003e68    bc43            bics        r4,r7                                   
ram:08003e6a    0484            strh        r4,[r0,#0x20]                           
ram:08003e6c    058b            ldrh        r5,[r0,#0x18]                           
ram:08003e6e    048c            ldrh        r4,[r0,#0x20]                           
ram:08003e70    394e            ldr         r6,[DAT_08003f58]                       ;= 00000CFFh
ram:08003e72    1b03            lsls        r3,r3,#0xc                              
ram:08003e74    3540            ands        r5,r6                                   
ram:08003e76    1201            lsls        r2,r2,#0x4                              
ram:08003e78    2b43            orrs        r3,r5                                   
ram:08003e7a    3d01            lsls        r5,r7,#0x4                              
ram:08003e7c    1d43            orrs        r5,r3                                   
ram:08003e7e    a023            movs        r3,#0xa0                                
ram:08003e80    9c43            bics        r4,r3                                   
ram:08003e82    1443            orrs        r4,r2                                   
ram:08003e84    3c43            orrs        r4,r7                                   
ram:08003e86    0583            strh        r5,[r0,#0x18]                           
ram:08003e88    e0e7            b           LAB_08003e4c                            
ram:08003e8a    10b4            push        {r4}                                    
ram:08003e8c    0489            ldrh        r4,[r0,#0x8]                            
ram:08003e8e    1b02            lsls        r3,r3,#0x8                              
ram:08003e90    1343            orrs        r3,r2                                   
ram:08003e92    e4b2            uxtb        r4,r4                                   
ram:08003e94    0b43            orrs        r3,r1                                   
ram:08003e96    2343            orrs        r3,r4                                   
ram:08003e98    0381            strh        r3,[r0,#0x8]                            
ram:08003e9a    10bc            pop         {r4}                                    
ram:08003e9c    7047            bx          lr                                      
ram:08003e9e    10b4            push        {r4}                                    
ram:08003ea0    0489            ldrh        r4,[r0,#0x8]                            
ram:08003ea2    1b02            lsls        r3,r3,#0x8                              
ram:08003ea4    1343            orrs        r3,r2                                   
ram:08003ea6    e4b2            uxtb        r4,r4                                   
ram:08003ea8    0b43            orrs        r3,r1                                   
ram:08003eaa    2343            orrs        r3,r4                                   
ram:08003eac    0381            strh        r3,[r0,#0x8]                            
ram:08003eae    0189            ldrh        r1,[r0,#0x8]                            
ram:08003eb0    0722            movs        r2,#0x7                                 
ram:08003eb2    c908            lsrs        r1,r1,#0x3                              
ram:08003eb4    c900            lsls        r1,r1,#0x3                              
ram:08003eb6    1143            orrs        r1,r2                                   
ram:08003eb8    7022            movs        r2,#0x70                                
ram:08003eba    9143            bics        r1,r2                                   
ram:08003ebc    1143            orrs        r1,r2                                   
ram:08003ebe    0181            strh        r1,[r0,#0x8]                            
ram:08003ec0    10bc            pop         {r4}                                    
ram:08003ec2    7047            bx          lr                                      
ram:08003ec4    10b4            push        {r4}                                    
ram:08003ec6    0489            ldrh        r4,[r0,#0x8]                            
ram:08003ec8    1b02            lsls        r3,r3,#0x8                              
ram:08003eca    1343            orrs        r3,r2                                   
ram:08003ecc    e4b2            uxtb        r4,r4                                   
ram:08003ece    0b43            orrs        r3,r1                                   
ram:08003ed0    2343            orrs        r3,r4                                   
ram:08003ed2    0381            strh        r3,[r0,#0x8]                            
ram:08003ed4    0189            ldrh        r1,[r0,#0x8]                            
ram:08003ed6    0122            movs        r2,#0x1                                 
ram:08003ed8    9203            lsls        r2,r2,#0xe                              
ram:08003eda    1143            orrs        r1,r2                                   
ram:08003edc    0181            strh        r1,[r0,#0x8]                            
ram:08003ede    10bc            pop         {r4}                                    
ram:08003ee0    7047            bx          lr                                      
ram:08003ee2    8288            ldrh        r2,[r0,#0x4]                            
ram:08003ee4    7023            movs        r3,#0x70                                
ram:08003ee6    9a43            bics        r2,r3                                   
ram:08003ee8    8280            strh        r2,[r0,#0x4]                            
ram:08003eea    8288            ldrh        r2,[r0,#0x4]                            
ram:08003eec    0a43            orrs        r2,r1                                   
ram:08003eee    8280            strh        r2,[r0,#0x4]                            
ram:08003ef0    7047            bx          lr                                      
ram:08003ef2    0289            ldrh        r2,[r0,#0x8]                            
ram:08003ef4    d208            lsrs        r2,r2,#0x3                              
ram:08003ef6    d200            lsls        r2,r2,#0x3                              
ram:08003ef8    0281            strh        r2,[r0,#0x8]                            
ram:08003efa    0289            ldrh        r2,[r0,#0x8]                            
ram:08003efc    0a43            orrs        r2,r1                                   
ram:08003efe    0281            strh        r2,[r0,#0x8]                            
ram:08003f00    7047            bx          lr                                      
ram:08003f02    0289            ldrh        r2,[r0,#0x8]                            
ram:08003f04    8023            movs        r3,#0x80                                
ram:08003f06    9a43            bics        r2,r3                                   
ram:08003f08    0281            strh        r2,[r0,#0x8]                            
ram:08003f0a    0289            ldrh        r2,[r0,#0x8]                            
ram:08003f0c    0a43            orrs        r2,r1                                   
ram:08003f0e    0281            strh        r2,[r0,#0x8]                            
ram:08003f10    7047            bx          lr                                      
ram:08003f12    70b4            push        {r4,r5,r6}                              
ram:08003f14    0689            ldrh        r6,[r0,#0x8]                            
ram:08003f16    048b            ldrh        r4,[r0,#0x18]                           
ram:08003f18    058c            ldrh        r5,[r0,#0x20]                           
ram:08003f1a    f608            lsrs        r6,r6,#0x3                              
ram:08003f1c    f600            lsls        r6,r6,#0x3                              
ram:08003f1e    0e43            orrs        r6,r1                                   
ram:08003f20    0e49            ldr         r1,[DAT_08003f5c]                       ;= 0000FCFCh
ram:08003f22    0681            strh        r6,[r0,#0x8]                            
ram:08003f24    0c40            ands        r4,r1                                   
ram:08003f26    ff21            movs        r1,#0xff                                
ram:08003f28    0231            adds        r1,#0x2                                 
ram:08003f2a    0c43            orrs        r4,r1                                   
ram:08003f2c    aa21            movs        r1,#0xaa                                
ram:08003f2e    8d43            bics        r5,r1                                   
ram:08003f30    1901            lsls        r1,r3,#0x4                              
ram:08003f32    1143            orrs        r1,r2                                   
ram:08003f34    2943            orrs        r1,r5                                   
ram:08003f36    0483            strh        r4,[r0,#0x18]                           
ram:08003f38    0184            strh        r1,[r0,#0x20]                           
ram:08003f3a    70bc            pop         {r4,r5,r6}                              
ram:08003f3c    7047            bx          lr                                      
ram:08003f3e    8022            movs        r2,#0x80                                
ram:08003f40    0029            cmp         r1,#0x0                                 
ram:08003f42    8188            ldrh        r1,[r0,#0x4]                            
ram:08003f44    01d0            beq         LAB_08003f4a                            
ram:08003f46    1143            orrs        r1,r2                                   
ram:08003f48    00e0            b           LAB_08003f4c                            
                            LAB_08003f4a:                 ;XREF[1,0]:   08003f44
ram:08003f4a    9143            bics        r1,r2                                   
                            LAB_08003f4c:                 ;XREF[1,0]:   08003f48
ram:08003f4c    8180            strh        r1,[r0,#0x4]                            
ram:08003f4e    7047            bx          lr                                      
ram:08003f50    4030            adds        r0,#0x40                                
ram:08003f52    0182            strh        r1,[r0,#0x10]                           
ram:08003f54    7047            bx          lr                                      
ram:08003f56    0000            movs        r0,r0                                   
                            DAT_08003f58:                 ;XREF[1,0]:   08003e70
ram:08003f58    ff0c0000        undefined4  00000CFFh                               
                            DAT_08003f5c:                 ;XREF[1,0]:   08003f20
ram:08003f5c    fcfc0000        undefined4  0000FCFCh                               
                            ;************************************************************************************************
                            ;*                                           FUNCTION                                           *
                            ;************************************************************************************************
                            ;bool FUN_080040a0(int param_1, ushort param_2)
          ;param_1       int                 r0                      
          ;param_2       ushort              r1                      
                                                          ;XREF[1,0]:   08002b00
ram:080040a0    0246            mov         r2,param_1                              
ram:080040a2    128a            ldrh        r2,[r2,#0x10]                           
ram:080040a4    0020            movs        param_1,#0x0                            
ram:080040a6    0a42            tst         r2,param_2                              
ram:080040a8    00d0            beq         LAB_080040ac                            
ram:080040aa    0120            movs        param_1,#0x1                            
                            LAB_080040ac:                 ;XREF[1,0]:   080040a8
ram:080040ac    7047            bx          lr                                      
ram:080040ae    008a            ldrh        r0,[r0,#0x10]                           
ram:080040b0    7047            bx          lr                                      
                            ;************************************************************************************************
                            ;*                                           FUNCTION                                           *
                            ;************************************************************************************************
                            ;bool FUN_080040b2(int param_1, ushort param_2)
          ;param_1       int                 r0                      
          ;param_2       ushort              r1                      
                                                          ;XREF[14,0]:  08001ca8,08001cc0,08001cd8,08001cf0
                                                          ;             08001d08,08001d1e,08001d36,08001d4e
                                                          ;             08002758,08002762,0800276a,08002792
                                                          ;             0800279c,080027a4
ram:080040b2    0246            mov         r2,param_1                              
ram:080040b4    928a            ldrh        r2,[r2,#0x14]                           
ram:080040b6    0020            movs        param_1,#0x0                            
ram:080040b8    0a42            tst         r2,param_2                              
ram:080040ba    00d0            beq         LAB_080040be                            
ram:080040bc    0120            movs        param_1,#0x1                            
                            LAB_080040be:                 ;XREF[1,0]:   080040ba
ram:080040be    7047            bx          lr                                      
ram:080040c0    808a            ldrh        r0,[r0,#0x14]                           
ram:080040c2    7047            bx          lr                                      
ram:080040c4    8161            str         r1,[r0,#0x18]                           
ram:080040c6    7047            bx          lr                                      
ram:080040c8    0185            strh        r1,[r0,#0x28]                           
ram:080040ca    7047            bx          lr                                      
ram:080040cc    002a            cmp         r2,#0x0                                 
ram:080040ce    01d0            beq         LAB_080040d4                            
ram:080040d0    8161            str         r1,[r0,#0x18]                           
ram:080040d2    7047            bx          lr                                      
                            LAB_080040d4:                 ;XREF[1,0]:   080040ce
ram:080040d4    0185            strh        r1,[r0,#0x28]                           
ram:080040d6    7047            bx          lr                                      
ram:080040d8    8182            strh        r1,[r0,#0x14]                           
ram:080040da    7047            bx          lr                                      
ram:080040dc    4b07            lsls        r3,r1,#0x1d                             
ram:080040de    db0e            lsrs        r3,r3,#0x1b                             
ram:080040e0    9a40            lsls        r2,r3                                   
ram:080040e2    c908            lsrs        r1,r1,#0x3                              
ram:080040e4    10b4            push        {r4}                                    
ram:080040e6    8900            lsls        r1,r1,#0x2                              
ram:080040e8    0818            adds        r0,r1,r0                                
ram:080040ea    016a            ldr         r1,[r0,#0x20]                           
ram:080040ec    0f24            movs        r4,#0xf                                 
ram:080040ee    9c40            lsls        r4,r3                                   
ram:080040f0    a143            bics        r1,r4                                   
ram:080040f2    0162            str         r1,[r0,#0x20]                           
ram:080040f4    016a            ldr         r1,[r0,#0x20]                           
ram:080040f6    1143            orrs        r1,r2                                   
ram:080040f8    0162            str         r1,[r0,#0x20]                           
ram:080040fa    10bc            pop         {r4}                                    
ram:080040fc    7047            bx          lr                                      
ram:080040fe    0000            movs        r0,r0                                   
ram:08004100    0004            lsls        r0,r0,#0x10                             
ram:08004102    0048            ldr         r0,[LAB_08004104]                       
                            LAB_08004104:                 ;XREF[1,0]:   08004102
ram:08004104    0008            lsrs        r0,r0                                   
ram:08004106    0048            ldr         r0,[LAB_08004108]                       
                            LAB_08004108:                 ;XREF[1,0]:   08004106
ram:08004108    000c            lsrs        r0,r0,#0x10                             
ram:0800410a    0048            ldr         r0,[LAB_0800410c]                       
                            LAB_0800410c:                 ;XREF[1,0]:   0800410a
ram:0800410c    0010            asrs        r0,r0                                   
ram:0800410e    0048            ldr         r0,[LAB_08004110]                       
                            LAB_08004110:                 ;XREF[1,0]:   0800410e
ram:08004110    0014            asrs        r0,r0,#0x10                             
ram:08004112    0048            ldr         r0,[DAT_08004114]                       ;= 0000FFFFh
                            DAT_08004114:                 ;XREF[1,0]:   08004112
ram:08004114    ffff0000        undefined4  0000FFFFh                               
                            ;************************************************************************************************
                            ;*                                           FUNCTION                                           *
                            ;************************************************************************************************
                            ;undefined FUN_08004148(uint * param_1, uint * param_2)
          ;param_1       uint *              r0                      
          ;param_2       uint *              r1                      
                                                          ;XREF[1,0]:   08004b16
ram:08004148    10b4            push        {r4}                                    
ram:0800414a    0268            ldr         r2,[param_1,#0x0]                       
ram:0800414c    5208            lsrs        r2,r2,#0x1                              
ram:0800414e    5200            lsls        r2,r2,#0x1                              
ram:08004150    0260            str         r2,[param_1,#0x0]                       
ram:08004152    0268            ldr         r2,[param_1,#0x0]                       
ram:08004154    ca4b            ldr         r3,[DAT_08004480]                       ;= 00CFE0FFh
ram:08004156    8c68            ldr         r4,[param_2,#0x8]                       
ram:08004158    1a40            ands        r2,r3                                   
ram:0800415a    2402            lsls        r4,r4,#0x8                              
ram:0800415c    4b68            ldr         r3,[param_2,#0x4]                       
ram:0800415e    1443            orrs        r4,r2                                   
ram:08004160    2343            orrs        r3,r4                                   
ram:08004162    0360            str         r3,[param_1,#0x0]                       
ram:08004164    0f23            movs        r3,#0xf                                 
ram:08004166    0a68            ldr         r2,[param_2,#0x0]                       
ram:08004168    1b06            lsls        r3,r3,#0x18                             
ram:0800416a    9a43            bics        r2,r3                                   
ram:0800416c    0261            str         r2,[param_1,#0x10]                      
ram:0800416e    0268            ldr         r2,[param_1,#0x0]                       
ram:08004170    0123            movs        r3,#0x1                                 
ram:08004172    1a43            orrs        r2,r3                                   
ram:08004174    0260            str         r2,[param_1,#0x0]                       
ram:08004176    0022            movs        r2,#0x0                                 
ram:08004178    8260            str         r2,[param_1,#0x8]                       
ram:0800417a    c260            str         r2,[param_1,#0xc]                       
ram:0800417c    0b69            ldr         r3,[param_2,#0x10]                      
ram:0800417e    8a69            ldr         r2,[param_2,#0x18]                      
ram:08004180    1a43            orrs        r2,r3                                   
ram:08004182    8260            str         r2,[param_1,#0x8]                       
ram:08004184    8268            ldr         r2,[param_1,#0x8]                       
ram:08004186    0123            movs        r3,#0x1                                 
ram:08004188    db03            lsls        r3,r3,#0xf                              
ram:0800418a    1a43            orrs        r2,r3                                   
ram:0800418c    8260            str         r2,[param_1,#0x8]                       
ram:0800418e    ca68            ldr         r2,[param_2,#0xc]                       
ram:08004190    0368            ldr         r3,[param_1,#0x0]                       
ram:08004192    1343            orrs        r3,r2                                   
ram:08004194    0360            str         r3,[param_1,#0x0]                       
ram:08004196    4268            ldr         r2,[param_1,#0x4]                       
ram:08004198    ba4b            ldr         r3,[DAT_08004484]                       ;= 07FF7FFFh
ram:0800419a    4969            ldr         param_2,[param_2,#0x14]                 
ram:0800419c    1a40            ands        r2,r3                                   
ram:0800419e    1143            orrs        param_2,r2                              
ram:080041a0    4160            str         param_2,[param_1,#0x4]                  
ram:080041a2    10bc            pop         {r4}                                    
ram:080041a4    7047            bx          lr                                      
ram:080041a6    0021            movs        r1,#0x0                                 
ram:080041a8    0160            str         r1,[r0,#0x0]                            
ram:080041aa    4160            str         r1,[r0,#0x4]                            
ram:080041ac    8160            str         r1,[r0,#0x8]                            
ram:080041ae    c160            str         r1,[r0,#0xc]                            
ram:080041b0    0122            movs        r2,#0x1                                 
ram:080041b2    d203            lsls        r2,r2,#0xf                              
ram:080041b4    0161            str         r1,[r0,#0x10]                           
ram:080041b6    4261            str         r2,[r0,#0x14]                           
ram:080041b8    8161            str         r1,[r0,#0x18]                           
ram:080041ba    7047            bx          lr                                      
                            ;************************************************************************************************
                            ;*                                           FUNCTION                                           *
                            ;************************************************************************************************
                            ;undefined FUN_080041bc(uint * param_1, int param_2)
          ;param_1       uint *              r0                      
          ;param_2       int                 r1                      
                                                          ;XREF[1,0]:   08004b1e
ram:080041bc    0029            cmp         param_2,#0x0                            
ram:080041be    0168            ldr         param_2,[param_1,#0x0]                  
ram:080041c0    02d0            beq         LAB_080041c8                            
ram:080041c2    0122            movs        r2,#0x1                                 
ram:080041c4    1143            orrs        param_2,r2                              
ram:080041c6    01e0            b           LAB_080041cc                            
                            LAB_080041c8:                 ;XREF[1,0]:   080041c0
ram:080041c8    4908            lsrs        param_2,param_2,#0x1                    
ram:080041ca    4900            lsls        param_2,param_2,#0x1                    
                            LAB_080041cc:                 ;XREF[1,0]:   080041c6
ram:080041cc    0160            str         param_2,[param_1,#0x0]                  
ram:080041ce    7047            bx          lr                                      
ram:080041d0    0168            ldr         r1,[r0,#0x0]                            
ram:080041d2    4908            lsrs        r1,r1,#0x1                              
ram:080041d4    4900            lsls        r1,r1,#0x1                              
ram:080041d6    0160            str         r1,[r0,#0x0]                            
ram:080041d8    0168            ldr         r1,[r0,#0x0]                            
ram:080041da    0168            ldr         r1,[r0,#0x0]                            
ram:080041dc    0122            movs        r2,#0x1                                 
ram:080041de    1143            orrs        r1,r2                                   
ram:080041e0    0160            str         r1,[r0,#0x0]                            
ram:080041e2    7047            bx          lr                                      
ram:080041e4    002a            cmp         r2,#0x0                                 
ram:080041e6    0268            ldr         r2,[r0,#0x0]                            
ram:080041e8    01d0            beq         LAB_080041ee                            
ram:080041ea    0a43            orrs        r2,r1                                   
ram:080041ec    00e0            b           LAB_080041f0                            
                            LAB_080041ee:                 ;XREF[1,0]:   080041e8
ram:080041ee    8a43            bics        r2,r1                                   
                            LAB_080041f0:                 ;XREF[1,0]:   080041ec
ram:080041f0    0260            str         r2,[r0,#0x0]                            
ram:080041f2    7047            bx          lr                                      
ram:080041f4    0122            movs        r2,#0x1                                 
ram:080041f6    5204            lsls        r2,r2,#0x11                             
ram:080041f8    0029            cmp         r1,#0x0                                 
ram:080041fa    0168            ldr         r1,[r0,#0x0]                            
ram:080041fc    01d0            beq         LAB_08004202                            
ram:080041fe    9143            bics        r1,r2                                   
ram:08004200    00e0            b           LAB_08004204                            
                            LAB_08004202:                 ;XREF[1,0]:   080041fc
ram:08004202    1143            orrs        r1,r2                                   
                            LAB_08004204:                 ;XREF[1,0]:   08004200
ram:08004204    0160            str         r1,[r0,#0x0]                            
ram:08004206    7047            bx          lr                                      
ram:08004208    0122            movs        r2,#0x1                                 
ram:0800420a    9204            lsls        r2,r2,#0x12                             
ram:0800420c    0029            cmp         r1,#0x0                                 
ram:0800420e    0168            ldr         r1,[r0,#0x0]                            
ram:08004210    01d0            beq         LAB_08004216                            
ram:08004212    1143            orrs        r1,r2                                   
ram:08004214    00e0            b           LAB_08004218                            
                            LAB_08004216:                 ;XREF[1,0]:   08004210
ram:08004216    9143            bics        r1,r2                                   
                            LAB_08004218:                 ;XREF[1,0]:   08004214
ram:08004218    0160            str         r1,[r0,#0x0]                            
ram:0800421a    7047            bx          lr                                      
ram:0800421c    0122            movs        r2,#0x1                                 
ram:0800421e    d203            lsls        r2,r2,#0xf                              
ram:08004220    0029            cmp         r1,#0x0                                 
ram:08004222    c168            ldr         r1,[r0,#0xc]                            
ram:08004224    01d0            beq         LAB_0800422a                            
ram:08004226    1143            orrs        r1,r2                                   
ram:08004228    00e0            b           LAB_0800422c                            
                            LAB_0800422a:                 ;XREF[1,0]:   08004224
ram:0800422a    9143            bics        r1,r2                                   
                            LAB_0800422c:                 ;XREF[1,0]:   08004228
ram:0800422c    c160            str         r1,[r0,#0xc]                            
ram:0800422e    7047            bx          lr                                      
ram:08004230    10b4            push        {r4}                                    
ram:08004232    c368            ldr         r3,[r0,#0xc]                            
ram:08004234    944c            ldr         r4,[DAT_08004488]                       ;= FFFFF801h
ram:08004236    5207            lsls        r2,r2,#0x1d                             
ram:08004238    2340            ands        r3,r4                                   
ram:0800423a    fe24            movs        r4,#0xfe                                
ram:0800423c    2140            ands        r1,r4                                   
ram:0800423e    520d            lsrs        r2,r2,#0x15                             
ram:08004240    1143            orrs        r1,r2                                   
ram:08004242    1943            orrs        r1,r3                                   
ram:08004244    c160            str         r1,[r0,#0xc]                            
ram:08004246    10bc            pop         {r4}                                    
ram:08004248    7047            bx          lr                                      
ram:0800424a    0122            movs        r2,#0x1                                 
ram:0800424c    d204            lsls        r2,r2,#0x13                             
ram:0800424e    0029            cmp         r1,#0x0                                 
ram:08004250    0168            ldr         r1,[r0,#0x0]                            
ram:08004252    01d0            beq         LAB_08004258                            
ram:08004254    1143            orrs        r1,r2                                   
ram:08004256    00e0            b           LAB_0800425a                            
                            LAB_08004258:                 ;XREF[1,0]:   08004252
ram:08004258    9143            bics        r1,r2                                   
                            LAB_0800425a:                 ;XREF[1,0]:   08004256
ram:0800425a    0160            str         r1,[r0,#0x0]                            
ram:0800425c    7047            bx          lr                                      
ram:0800425e    0122            movs        r2,#0x1                                 
ram:08004260    1204            lsls        r2,r2,#0x10                             
ram:08004262    0029            cmp         r1,#0x0                                 
ram:08004264    0168            ldr         r1,[r0,#0x0]                            
ram:08004266    01d0            beq         LAB_0800426c                            
ram:08004268    1143            orrs        r1,r2                                   
ram:0800426a    00e0            b           LAB_0800426e                            
                            LAB_0800426c:                 ;XREF[1,0]:   08004266
ram:0800426c    9143            bics        r1,r2                                   
                            LAB_0800426e:                 ;XREF[1,0]:   0800426a
ram:0800426e    0160            str         r1,[r0,#0x0]                            
ram:08004270    7047            bx          lr                                      
ram:08004272    4268            ldr         r2,[r0,#0x4]                            
ram:08004274    8905            lsls        r1,r1,#0x16                             
ram:08004276    920a            lsrs        r2,r2,#0xa                              
ram:08004278    9202            lsls        r2,r2,#0xa                              
ram:0800427a    890d            lsrs        r1,r1,#0x16                             
ram:0800427c    1143            orrs        r1,r2                                   
ram:0800427e    4160            str         r1,[r0,#0x4]                            
ram:08004280    7047            bx          lr                                      
ram:08004282    0122            movs        r2,#0x1                                 
ram:08004284    d202            lsls        r2,r2,#0xb                              
ram:08004286    0029            cmp         r1,#0x0                                 
ram:08004288    4168            ldr         r1,[r0,#0x4]                            
ram:0800428a    01d0            beq         LAB_08004290                            
ram:0800428c    1143            orrs        r1,r2                                   
ram:0800428e    00e0            b           LAB_08004292                            
                            LAB_08004290:                 ;XREF[1,0]:   0800428a
ram:08004290    9143            bics        r1,r2                                   
                            LAB_08004292:                 ;XREF[1,0]:   0800428e
ram:08004292    4160            str         r1,[r0,#0x4]                            
ram:08004294    7047            bx          lr                                      
ram:08004296    0122            movs        r2,#0x1                                 
ram:08004298    5206            lsls        r2,r2,#0x19                             
ram:0800429a    0029            cmp         r1,#0x0                                 
ram:0800429c    4168            ldr         r1,[r0,#0x4]                            
ram:0800429e    01d0            beq         LAB_080042a4                            
ram:080042a0    1143            orrs        r1,r2                                   
ram:080042a2    00e0            b           LAB_080042a6                            
                            LAB_080042a4:                 ;XREF[1,0]:   0800429e
ram:080042a4    9143            bics        r1,r2                                   
                            LAB_080042a6:                 ;XREF[1,0]:   080042a2
ram:080042a6    4160            str         r1,[r0,#0x4]                            
ram:080042a8    7047            bx          lr                                      
ram:080042aa    0122            movs        r2,#0x1                                 
ram:080042ac    1206            lsls        r2,r2,#0x18                             
ram:080042ae    0029            cmp         r1,#0x0                                 
ram:080042b0    4168            ldr         r1,[r0,#0x4]                            
ram:080042b2    01d0            beq         LAB_080042b8                            
ram:080042b4    1143            orrs        r1,r2                                   
ram:080042b6    00e0            b           LAB_080042ba                            
                            LAB_080042b8:                 ;XREF[1,0]:   080042b2
ram:080042b8    9143            bics        r1,r2                                   
                            LAB_080042ba:                 ;XREF[1,0]:   080042b6
ram:080042ba    4160            str         r1,[r0,#0x4]                            
ram:080042bc    7047            bx          lr                                      
ram:080042be    4268            ldr         r2,[r0,#0x4]                            
ram:080042c0    ff23            movs        r3,#0xff                                
ram:080042c2    1b04            lsls        r3,r3,#0x10                             
ram:080042c4    9a43            bics        r2,r3                                   
ram:080042c6    0904            lsls        r1,r1,#0x10                             
ram:080042c8    1143            orrs        r1,r2                                   
ram:080042ca    4160            str         r1,[r0,#0x4]                            
ram:080042cc    7047            bx          lr                                      
ram:080042ce    0122            movs        r2,#0x1                                 
ram:080042d0    9202            lsls        r2,r2,#0xa                              
ram:080042d2    0029            cmp         r1,#0x0                                 
ram:080042d4    4168            ldr         r1,[r0,#0x4]                            
ram:080042d6    02d0            beq         LAB_080042de                            
ram:080042d8    1143            orrs        r1,r2                                   
                            LAB_080042da:                 ;XREF[1,0]:   080042e0
ram:080042da    4160            str         r1,[r0,#0x4]                            
ram:080042dc    7047            bx          lr                                      
                            LAB_080042de:                 ;XREF[1,0]:   080042d6
ram:080042de    9143            bics        r1,r2                                   
ram:080042e0    fbe7            b           LAB_080042da                            
ram:080042e2    0122            movs        r2,#0x1                                 
ram:080042e4    5203            lsls        r2,r2,#0xd                              
ram:080042e6    0029            cmp         r1,#0x0                                 
ram:080042e8    4168            ldr         r1,[r0,#0x4]                            
ram:080042ea    01d0            beq         LAB_080042f0                            
ram:080042ec    1143            orrs        r1,r2                                   
ram:080042ee    00e0            b           LAB_080042f2                            
                            LAB_080042f0:                 ;XREF[1,0]:   080042ea
ram:080042f0    9143            bics        r1,r2                                   
                            LAB_080042f2:                 ;XREF[1,0]:   080042ee
ram:080042f2    4160            str         r1,[r0,#0x4]                            
ram:080042f4    7047            bx          lr                                      
ram:080042f6    0122            movs        r2,#0x1                                 
ram:080042f8    9203            lsls        r2,r2,#0xe                              
ram:080042fa    0029            cmp         r1,#0x0                                 
ram:080042fc    4168            ldr         r1,[r0,#0x4]                            
ram:080042fe    01d0            beq         LAB_08004304                            
ram:08004300    1143            orrs        r1,r2                                   
ram:08004302    00e0            b           LAB_08004306                            
                            LAB_08004304:                 ;XREF[1,0]:   080042fe
ram:08004304    9143            bics        r1,r2                                   
                            LAB_08004306:                 ;XREF[1,0]:   08004302
ram:08004306    4160            str         r1,[r0,#0x4]                            
ram:08004308    7047            bx          lr                                      
ram:0800430a    0122            movs        r2,#0x1                                 
ram:0800430c    1203            lsls        r2,r2,#0xc                              
ram:0800430e    0029            cmp         r1,#0x0                                 
ram:08004310    4168            ldr         r1,[r0,#0x4]                            
ram:08004312    01d0            beq         LAB_08004318                            
ram:08004314    1143            orrs        r1,r2                                   
ram:08004316    00e0            b           LAB_0800431a                            
                            LAB_08004318:                 ;XREF[1,0]:   08004312
ram:08004318    9143            bics        r1,r2                                   
                            LAB_0800431a:                 ;XREF[1,0]:   08004316
ram:0800431a    4160            str         r1,[r0,#0x4]                            
ram:0800431c    7047            bx          lr                                      
ram:0800431e    0122            movs        r2,#0x1                                 
ram:08004320    d203            lsls        r2,r2,#0xf                              
ram:08004322    0029            cmp         r1,#0x0                                 
ram:08004324    4168            ldr         r1,[r0,#0x4]                            
ram:08004326    01d0            beq         LAB_0800432c                            
ram:08004328    9143            bics        r1,r2                                   
ram:0800432a    00e0            b           LAB_0800432e                            
                            LAB_0800432c:                 ;XREF[1,0]:   08004326
ram:0800432c    1143            orrs        r1,r2                                   
                            LAB_0800432e:                 ;XREF[1,0]:   0800432a
ram:0800432e    4160            str         r1,[r0,#0x4]                            
ram:08004330    7047            bx          lr                                      
ram:08004332    8069            ldr         r0,[r0,#0x18]                           
ram:08004334    fe21            movs        r1,#0xfe                                
ram:08004336    000c            lsrs        r0,r0,#0x10                             
ram:08004338    0840            ands        r0,r1                                   
ram:0800433a    7047            bx          lr                                      
ram:0800433c    0146            mov         r1,r0                                   
ram:0800433e    8969            ldr         r1,[r1,#0x18]                           
ram:08004340    0020            movs        r0,#0x0                                 
ram:08004342    0122            movs        r2,#0x1                                 
ram:08004344    1204            lsls        r2,r2,#0x10                             
ram:08004346    1142            tst         r1,r2                                   
ram:08004348    00d0            beq         LAB_0800434c                            
ram:0800434a    9011            asrs        r0,r2,#0x6                              
                            LAB_0800434c:                 ;XREF[1,0]:   08004348
ram:0800434c    7047            bx          lr                                      
                            ;************************************************************************************************
                            ;*                                           FUNCTION                                           *
                            ;************************************************************************************************
                            ;undefined FUN_0800434e(int param_1, uint param_2, int param_3, uint param_4, uint param_5)
          ;param_1       int                 r0                      
          ;param_2       uint                r1                      
          ;param_3       int                 r2                      
          ;param_4       uint                r3                      
          ;param_5       uint                 0                      ;XREF[1,0]:   08004350
                                                          ;XREF[5,0]:   08003124,0800317e,080031e4,08003238
                                                          ;             08003284
ram:0800434e    70b4            push        {r4,r5,r6}                              
ram:08004350    039d            ldr         r5,[sp,#param_5+0xc]                    
ram:08004352    4468            ldr         r4,[param_1,#0x4]                       
ram:08004354    8905            lsls        param_2,param_2,#0x16                   
ram:08004356    890d            lsrs        param_2,param_2,#0x16                   
ram:08004358    1204            lsls        param_3,param_3,#0x10                   
ram:0800435a    4c4e            ldr         r6,[DAT_0800448c]                       ;= FC009800h
ram:0800435c    1143            orrs        param_2,param_3                         
ram:0800435e    1943            orrs        param_2,param_4                         
ram:08004360    3440            ands        r4,r6                                   
ram:08004362    2943            orrs        param_2,r5                              
ram:08004364    2143            orrs        param_2,r4                              
ram:08004366    4160            str         param_2,[param_1,#0x4]                  
ram:08004368    70bc            pop         {r4,r5,r6}                              
ram:0800436a    7047            bx          lr                                      
ram:0800436c    0122            movs        r2,#0x1                                 
ram:0800436e    9205            lsls        r2,r2,#0x16                             
ram:08004370    0029            cmp         r1,#0x0                                 
ram:08004372    0168            ldr         r1,[r0,#0x0]                            
ram:08004374    01d0            beq         LAB_0800437a                            
ram:08004376    1143            orrs        r1,r2                                   
ram:08004378    00e0            b           LAB_0800437c                            
                            LAB_0800437a:                 ;XREF[1,0]:   08004374
ram:0800437a    9143            bics        r1,r2                                   
                            LAB_0800437c:                 ;XREF[1,0]:   08004378
ram:0800437c    0160            str         r1,[r0,#0x0]                            
ram:0800437e    7047            bx          lr                                      
ram:08004380    0122            movs        r2,#0x1                                 
ram:08004382    d203            lsls        r2,r2,#0xf                              
ram:08004384    0029            cmp         r1,#0x0                                 
ram:08004386    4169            ldr         r1,[r0,#0x14]                           
ram:08004388    01d0            beq         LAB_0800438e                            
ram:0800438a    1143            orrs        r1,r2                                   
ram:0800438c    00e0            b           LAB_08004390                            
                            LAB_0800438e:                 ;XREF[1,0]:   08004388
ram:0800438e    9143            bics        r1,r2                                   
                            LAB_08004390:                 ;XREF[1,0]:   0800438c
ram:08004390    4161            str         r1,[r0,#0x14]                           
ram:08004392    7047            bx          lr                                      
ram:08004394    0029            cmp         r1,#0x0                                 
ram:08004396    4169            ldr         r1,[r0,#0x14]                           
ram:08004398    03d0            beq         LAB_080043a2                            
ram:0800439a    0122            movs        r2,#0x1                                 
ram:0800439c    d207            lsls        r2,r2,#0x1f                             
ram:0800439e    1143            orrs        r1,r2                                   
ram:080043a0    01e0            b           LAB_080043a6                            
                            LAB_080043a2:                 ;XREF[1,0]:   08004398
ram:080043a2    4900            lsls        r1,r1,#0x1                              
ram:080043a4    4908            lsrs        r1,r1,#0x1                              
                            LAB_080043a6:                 ;XREF[1,0]:   080043a0
ram:080043a6    4161            str         r1,[r0,#0x14]                           
ram:080043a8    7047            bx          lr                                      
ram:080043aa    0122            movs        r2,#0x1                                 
ram:080043ac    1203            lsls        r2,r2,#0xc                              
ram:080043ae    0029            cmp         r1,#0x0                                 
ram:080043b0    4169            ldr         r1,[r0,#0x14]                           
ram:080043b2    01d0            beq         LAB_080043b8                            
ram:080043b4    1143            orrs        r1,r2                                   
ram:080043b6    00e0            b           LAB_080043ba                            
                            LAB_080043b8:                 ;XREF[1,0]:   080043b2
ram:080043b8    9143            bics        r1,r2                                   
                            LAB_080043ba:                 ;XREF[1,0]:   080043b6
ram:080043ba    4161            str         r1,[r0,#0x14]                           
ram:080043bc    7047            bx          lr                                      
ram:080043be    4269            ldr         r2,[r0,#0x14]                           
ram:080043c0    0905            lsls        r1,r1,#0x14                             
ram:080043c2    120b            lsrs        r2,r2,#0xc                              
ram:080043c4    1203            lsls        r2,r2,#0xc                              
ram:080043c6    090d            lsrs        r1,r1,#0x14                             
ram:080043c8    1143            orrs        r1,r2                                   
ram:080043ca    4161            str         r1,[r0,#0x14]                           
ram:080043cc    7047            bx          lr                                      
ram:080043ce    4269            ldr         r2,[r0,#0x14]                           
ram:080043d0    2f4b            ldr         r3,[DAT_08004490]                       ;= F000FFFFh
ram:080043d2    0905            lsls        r1,r1,#0x14                             
ram:080043d4    1a40            ands        r2,r3                                   
ram:080043d6    0909            lsrs        r1,r1,#0x4                              
ram:080043d8    1143            orrs        r1,r2                                   
ram:080043da    4161            str         r1,[r0,#0x14]                           
ram:080043dc    7047            bx          lr                                      
ram:080043de    0122            movs        r2,#0x1                                 
ram:080043e0    d205            lsls        r2,r2,#0x17                             
ram:080043e2    0029            cmp         r1,#0x0                                 
ram:080043e4    0168            ldr         r1,[r0,#0x0]                            
ram:080043e6    01d0            beq         LAB_080043ec                            
ram:080043e8    1143            orrs        r1,r2                                   
ram:080043ea    00e0            b           LAB_080043ee                            
                            LAB_080043ec:                 ;XREF[1,0]:   080043e6
ram:080043ec    9143            bics        r1,r2                                   
                            LAB_080043ee:                 ;XREF[1,0]:   080043ea
ram:080043ee    0160            str         r1,[r0,#0x0]                            
ram:080043f0    7047            bx          lr                                      
ram:080043f2    0122            movs        r2,#0x1                                 
ram:080043f4    9206            lsls        r2,r2,#0x1a                             
ram:080043f6    0029            cmp         r1,#0x0                                 
ram:080043f8    4168            ldr         r1,[r0,#0x4]                            
ram:080043fa    01d0            beq         LAB_08004400                            
ram:080043fc    1143            orrs        r1,r2                                   
ram:080043fe    00e0            b           LAB_08004402                            
                            LAB_08004400:                 ;XREF[1,0]:   080043fa
ram:08004400    9143            bics        r1,r2                                   
                            LAB_08004402:                 ;XREF[1,0]:   080043fe
ram:08004402    4160            str         r1,[r0,#0x4]                            
ram:08004404    7047            bx          lr                                      
ram:08004406    006a            ldr         r0,[r0,#0x20]                           
ram:08004408    c0b2            uxtb        r0,r0                                   
ram:0800440a    7047            bx          lr                                      
                            ;************************************************************************************************
                            ;*                                           FUNCTION                                           *
                            ;************************************************************************************************
                            ;undefined4 FUN_0800440c(int param_1, int param_2)
          ;param_1       int                 r0                      
          ;param_2       int                 r1                      
          ;local_4       undefined4          -4                      ;XREF[1,0]:   08004410
                                                          ;XREF[4,0]:   08003108,08003134,0800321c,08003248
ram:0800440c    81b0            sub         sp,#0x4                                 
ram:0800440e    4018            adds        param_1,param_1,param_2                 
ram:08004410    0090            str         param_1,[sp,#0x0]=>local_4              
ram:08004412    0068            ldr         param_1,[param_1,#0x0]                  
ram:08004414    01b0            add         sp,#0x4                                 
ram:08004416    7047            bx          lr                                      
                            ;************************************************************************************************
                            ;*                                           FUNCTION                                           *
                            ;************************************************************************************************
                            ;undefined FUN_08004418(int param_1, undefined4 param_2)
          ;param_1       int                 r0                      
          ;param_2       undefined4          r1                      
                                                          ;XREF[4,0]:   080030de,0800312c,08003240,0800329e
ram:08004418    8162            str         param_2,[param_1,#0x28]                 
ram:0800441a    7047            bx          lr                                      
                            ;************************************************************************************************
                            ;*                                           FUNCTION                                           *
                            ;************************************************************************************************
                            ;uint FUN_0800441c(int param_1)
          ;param_1       int                 r0                      
                                                          ;XREF[1,0]:   08003196
ram:0800441c    406a            ldr         param_1,[param_1,#0x24]                 
ram:0800441e    c0b2            uxtb        param_1,param_1                         
ram:08004420    7047            bx          lr                                      
ram:08004422    002a            cmp         r2,#0x0                                 
ram:08004424    0268            ldr         r2,[r0,#0x0]                            
ram:08004426    01d0            beq         LAB_0800442c                            
ram:08004428    0a43            orrs        r2,r1                                   
ram:0800442a    00e0            b           LAB_0800442e                            
                            LAB_0800442c:                 ;XREF[1,0]:   08004426
ram:0800442c    8a43            bics        r2,r1                                   
                            LAB_0800442e:                 ;XREF[1,0]:   0800442a
ram:0800442e    0260            str         r2,[r0,#0x0]                            
ram:08004430    7047            bx          lr                                      
                            ;************************************************************************************************
                            ;*                                           FUNCTION                                           *
                            ;************************************************************************************************
                            ;bool FUN_08004432(int param_1, uint param_2)
          ;param_1       int                 r0                      
          ;param_2       uint                r1                      
                                                          ;XREF[10,0]:  080030d2,080030fc,08003142,08003162
                                                          ;             0800318c,080031ca,08003210,08003256
                                                          ;             0800326a,08003292
ram:08004432    0246            mov         r2,param_1                              
ram:08004434    9269            ldr         r2,[r2,#0x18]                           
ram:08004436    0020            movs        param_1,#0x0                            
ram:08004438    0a42            tst         r2,param_2                              
ram:0800443a    00d0            beq         LAB_0800443e                            
ram:0800443c    0120            movs        param_1,#0x1                            
                            LAB_0800443e:                 ;XREF[1,0]:   0800443a
ram:0800443e    7047            bx          lr                                      
                            ;************************************************************************************************
                            ;*                                           FUNCTION                                           *
                            ;************************************************************************************************
                            ;undefined FUN_08004440(int param_1, undefined4 param_2)
          ;param_1       int                 r0                      
          ;param_2       undefined4          r1                      
                                                          ;XREF[2,0]:   08003116,0800322a
ram:08004440    c161            str         param_2,[param_1,#0x1c]                 
ram:08004442    7047            bx          lr                                      
ram:08004444    10b4            push        {r4}                                    
ram:08004446    0023            movs        r3,#0x0                                 
ram:08004448    8a04            lsls        r2,r1,#0x12                             
ram:0800444a    920e            lsrs        r2,r2,#0x1a                             
ram:0800444c    02d0            beq         LAB_08004454                            
ram:0800444e    0268            ldr         r2,[r0,#0x0]                            
ram:08004450    8024            movs        r4,#0x80                                
ram:08004452    04e0            b           LAB_0800445e                            
                            LAB_08004454:                 ;XREF[1,0]:   0800444c
ram:08004454    0a06            lsls        r2,r1,#0x18                             
ram:08004456    920f            lsrs        r2,r2,#0x1e                             
ram:08004458    0268            ldr         r2,[r0,#0x0]                            
ram:0800445a    02d0            beq         LAB_08004462                            
ram:0800445c    4024            movs        r4,#0x40                                
                            LAB_0800445e:                 ;XREF[1,0]:   08004452
ram:0800445e    2240            ands        r2,r4                                   
ram:08004460    00e0            b           LAB_08004464                            
                            LAB_08004462:                 ;XREF[1,0]:   0800445a
ram:08004462    0a40            ands        r2,r1                                   
                            LAB_08004464:                 ;XREF[1,0]:   08004460
ram:08004464    8069            ldr         r0,[r0,#0x18]                           
ram:08004466    0842            tst         r0,r1                                   
ram:08004468    02d0            beq         LAB_08004470                            
ram:0800446a    002a            cmp         r2,#0x0                                 
ram:0800446c    00d0            beq         LAB_08004470                            
ram:0800446e    0123            movs        r3,#0x1                                 
                            LAB_08004470:                 ;XREF[2,0]:   08004468,0800446c
ram:08004470    10bc            pop         {r4}                                    
ram:08004472    1846            mov         r0,r3                                   
ram:08004474    7047            bx          lr                                      
ram:08004476    c161            str         r1,[r0,#0x1c]                           
ram:08004478    7047            bx          lr                                      
ram:0800447a    0000            movs        r0,r0                                   
ram:0800447c    0054            strb        r0,[r0,r0]                              
ram:0800447e    0040            ands        r0,r0                                   
                            DAT_08004480:                 ;XREF[1,0]:   08004154
ram:08004480    ffe0cf00        undefined4  00CFE0FFh                               
                            DAT_08004484:                 ;XREF[1,0]:   08004198
ram:08004484    ff7fff07        undefined4  07FF7FFFh                               
                            DAT_08004488:                 ;XREF[1,0]:   08004234
ram:08004488    01f8ffff        undefined4  FFFFF801h                               
                            DAT_0800448c:                 ;XREF[1,0]:   0800435a
ram:0800448c    009800fc        undefined4  FC009800h                               
                            DAT_08004490:                 ;XREF[1,0]:   080043d0
ram:08004490    ffff00f0        undefined4  F000FFFFh                               
                            ;************************************************************************************************
                            ;*                                           FUNCTION                                           *
                            ;************************************************************************************************
                            ;undefined FUN_08004998(uint param_1, int param_2)
          ;param_1       uint                r0                      
          ;param_2       int                 r1                      
                                                          ;XREF[10,0]:  08001766,08001b38,08001b44,08001bd6
                                                          ;             08001c24,080023e4,08002408,08002412
                                                          ;             080024e6,080024f4
ram:08004998    f0b4            push        {r4,r5,r6,r7}                           
ram:0800499a    104b            ldr         r3,[DAT_080049dc]                       ;= 20000210h
ram:0800499c    104c            ldr         r4,[DAT_080049e0]                       ;= 20000214h
ram:0800499e    1a68            ldr         r2,[r3,#0x0]=>DAT_20000210              
ram:080049a0    2768            ldr         r7,[r4,#0x0]=>DAT_20000214              
ram:080049a2    1646            mov         r6,r2                                   
ram:080049a4    3d46            mov         r5,r7                                   
ram:080049a6    8643            bics        r6,param_1                              
ram:080049a8    8543            bics        r5,param_1                              
ram:080049aa    0029            cmp         param_2,#0x0                            
ram:080049ac    0ad0            beq         LAB_080049c4                            
ram:080049ae    0129            cmp         param_2,#0x1                            
ram:080049b0    0ad0            beq         LAB_080049c8                            
ram:080049b2    0229            cmp         param_2,#0x2                            
ram:080049b4    0dd0            beq         LAB_080049d2                            
ram:080049b6    0329            cmp         param_2,#0x3                            
ram:080049b8    02d1            bne         LAB_080049c0                            
ram:080049ba    0743            orrs        r7,param_1                              
ram:080049bc    1e60            str         r6,[r3,#0x0]=>DAT_20000210              
ram:080049be    2760            str         r7,[r4,#0x0]=>DAT_20000214              
                            LAB_080049c0:                 ;XREF[1,0]:   080049b8
ram:080049c0    f0bc            pop         {r4,r5,r6,r7}                           
ram:080049c2    7047            bx          lr                                      
                            LAB_080049c4:                 ;XREF[1,0]:   080049ac
ram:080049c4    1e60            str         r6,[r3,#0x0]=>DAT_20000210              
ram:080049c6    06e0            b           LAB_080049d6                            
                            LAB_080049c8:                 ;XREF[1,0]:   080049b0
ram:080049c8    0243            orrs        r2,param_1                              
ram:080049ca    1a60            str         r2,[r3,#0x0]=>DAT_20000210              
ram:080049cc    2560            str         r5,[r4,#0x0]=>DAT_20000214              
ram:080049ce    f0bc            pop         {r4,r5,r6,r7}                           
ram:080049d0    7047            bx          lr                                      
                            LAB_080049d2:                 ;XREF[1,0]:   080049b4
ram:080049d2    4240            eors        r2,param_1                              
ram:080049d4    1a60            str         r2,[r3,#0x0]=>DAT_20000210              
                            LAB_080049d6:                 ;XREF[1,0]:   080049c6
ram:080049d6    2560            str         r5,[r4,#0x0]=>DAT_20000214              
ram:080049d8    f0bc            pop         {r4,r5,r6,r7}                           
ram:080049da    7047            bx          lr                                      
                            DAT_080049dc:                 ;XREF[1,0]:   0800499a
ram:080049dc    10020020        undefined4  20000210h                               
                            DAT_080049e0:                 ;XREF[1,0]:   0800499c
ram:080049e0    14020020        undefined4  20000214h                               
                            ;************************************************************************************************
                            ;*                                           FUNCTION                                           *
                            ;************************************************************************************************
                            ;undefined FUNC_SysTick_08004a02(void)
                                                          ;XREF[0,1]:   08000c4c
ram:08004a02    f948            ldr         r0=>DAT_200001e8,[DAT_08004de8]         ;= 200001E8h
ram:08004a04    016a            ldr         r1,[r0,#0x20]=>DAT_20000208             
ram:08004a06    7d22            movs        r2,#0x7d                                
ram:08004a08    9201            lsls        r2,r2,#0x6                              
ram:08004a0a    8918            adds        r1,r1,r2                                
ram:08004a0c    0162            str         r1,[r0,#0x20]=>DAT_20000208             
ram:08004a0e    0169            ldr         r1,[r0,#0x10]=>DAT_200001f8             
ram:08004a10    491c            adds        r1,r1,#0x1                              
ram:08004a12    02d0            beq         LAB_08004a1a                            
ram:08004a14    0169            ldr         r1,[r0,#0x10]=>DAT_200001f8             
ram:08004a16    491c            adds        r1,r1,#0x1                              
ram:08004a18    0161            str         r1,[r0,#0x10]=>DAT_200001f8             
                            LAB_08004a1a:                 ;XREF[1,0]:   08004a12
ram:08004a1a    4169            ldr         r1,[r0,#0x14]=>DAT_200001fc             
ram:08004a1c    491c            adds        r1,r1,#0x1                              
ram:08004a1e    4161            str         r1,[r0,#0x14]=>DAT_200001fc             
ram:08004a20    0a29            cmp         r1,#0xa                                 
ram:08004a22    07d3            bcc         LAB_08004a34                            
ram:08004a24    0021            movs        r1,#0x0                                 
ram:08004a26    4161            str         r1,[r0,#0x14]=>DAT_200001fc             
ram:08004a28    c168            ldr         r1,[r0,#0xc]=>DAT_200001f4              
ram:08004a2a    491c            adds        r1,r1,#0x1                              
ram:08004a2c    02d0            beq         LAB_08004a34                            
ram:08004a2e    c168            ldr         r1,[r0,#0xc]=>DAT_200001f4              
ram:08004a30    491c            adds        r1,r1,#0x1                              
ram:08004a32    c160            str         r1,[r0,#0xc]=>DAT_200001f4              
                            LAB_08004a34:                 ;XREF[2,0]:   08004a22,08004a2c
ram:08004a34    7047            bx          lr                                      
                            ;************************************************************************************************
                            ;*                                           FUNCTION                                           *
                            ;************************************************************************************************
                            ;undefined FUN_08004a36(void)
          ;local_c       undefined4          -c                      ;XREF[2,0]:   08004cbc,08004d70
          ;local_10      undefined4         -10                      ;XREF[1,0]:   08004b08
          ;local_14      undefined4         -14                      ;XREF[1,0]:   08004b04
          ;local_1c      undefined4         -1c                      ;XREF[1,0]:   08004b12
          ;local_20      undefined4         -20                      ;XREF[1,0]:   08004b0e
          ;local_24      undefined4         -24                      ;XREF[1,0]:   08004b0c
          ;local_28      undefined4         -28                      ;XREF[1,0]:   08004b0a
          ;local_2e      undefined1         -2e                      ;XREF[1,0]:   08004bb4
          ;local_30      undefined2         -30                      ;XREF[1,0]:   08004bb2
          ;local_34      undefined4         -34                      ;XREF[1,0]:   08004bae
          ;local_36      undefined2         -36                      ;XREF[1,0]:   08004baa
          ;local_38      undefined2         -38                      ;XREF[1,0]:   08004ba8
          ;local_3c      undefined2         -3c                      ;XREF[1,0]:   08004b70
          ;local_3e      undefined2         -3e                      ;XREF[1,0]:   08004b6a
          ;local_40      undefined2         -40                      ;XREF[1,0]:   08004b6c
          ;local_42      undefined2         -42                      ;XREF[1,0]:   08004b68
          ;local_44      undefined2         -44                      ;XREF[4,0]:   08004b64,08004b7e,08004b8c,08004b9a
                                                          ;XREF[1,0]:   08000cce
ram:08004a36    ed48            ldr         r0,[DAT_08004dec]                       ;= 40021000h
ram:08004a38    0025            movs        r5,#0x0                                 
ram:08004a3a    4168            ldr         r1,[r0,#offset DAT_40021004 &0xff]      
ram:08004a3c    92b0            sub         sp,#0x48                                
ram:08004a3e    fa24            movs        r4,#0xfa                                
ram:08004a40    8908            lsrs        r1,r1,#0x2                              
ram:08004a42    8900            lsls        r1,r1,#0x2                              
ram:08004a44    4160            str         r1,[r0,#offset DAT_40021004 &0xff]      
ram:08004a46    0168            ldr         r1,[r0,#0x0]=>DAT_40021000              
ram:08004a48    0122            movs        r2,#0x1                                 
ram:08004a4a    1206            lsls        r2,r2,#0x18                             
ram:08004a4c    9143            bics        r1,r2                                   
ram:08004a4e    0160            str         r1,[r0,#0x0]=>DAT_40021000              
ram:08004a50    8121            movs        r1,#0x81                                
ram:08004a52    0160            str         r1,[r0,#0x0]=>DAT_40021000              
ram:08004a54    2e46            mov         r6,r5                                   
ram:08004a56    4560            str         r5,[r0,#offset DAT_40021004 &0xff]      
ram:08004a58    0127            movs        r7,#0x1                                 
ram:08004a5a    4762            str         r7,[r0,#offset DAT_40021024 &0xff]      
ram:08004a5c    0321            movs        r1,#0x3                                 
ram:08004a5e    0163            str         r1,[r0,#offset DAT_40021030 &0xff]      
ram:08004a60    8121            movs        r1,#0x81                                
ram:08004a62    4163            str         r1,[r0,#offset DAT_40021034 &0xff]      
ram:08004a64    e249            ldr         r1,[DAT_08004df0]                       ;= 40022000h
ram:08004a66    0d60            str         r5,[r1,#0x0]=>DAT_40022000              
ram:08004a68    e249            ldr         r1,[DAT_08004df4]                       ;= 004E0055h
ram:08004a6a    4161            str         r1,[r0,#offset DAT_40021014 &0xff]      
ram:08004a6c    e249            ldr         r1,[DAT_08004df8]                       ;= 10200002h
ram:08004a6e    c161            str         r1,[r0,#offset DAT_4002101c &0xff]      
ram:08004a70    e249            ldr         r1,[DAT_08004dfc]                       ;= 00405A01h
ram:08004a72    8161            str         r1,[r0,#offset DAT_40021018 &0xff]      
ram:08004a74    e24a            ldr         r2=>DAT_40007000,[DAT_08004e00]         ;= 40007000h
ram:08004a76    8115            asrs        r1,r0,#0x16                             
ram:08004a78    1160            str         r1,[r2,#0x0]=>DAT_40007000              
ram:08004a7a    8121            movs        r1,#0x81                                
ram:08004a7c    4902            lsls        r1,r1,#0x9                              
ram:08004a7e    0162            str         r1,[r0,#offset DAT_40021020 &0xff]      
ram:08004a80    4115            asrs        r1,r0,#0x15                             
ram:08004a82    0162            str         r1,[r0,#offset DAT_40021020 &0xff]      
ram:08004a84    4121            movs        r1,#0x41                                
ram:08004a86    4902            lsls        r1,r1,#0x9                              
ram:08004a88    0162            str         r1,[r0,#offset DAT_40021020 &0xff]      
ram:08004a8a    de48            ldr         r0,[DAT_08004e04]                       ;= 40020000h
ram:08004a8c    8660            str         r6,[r0,#offset DAT_40020008 &0xff]      
ram:08004a8e    c661            str         r6,[r0,#offset DAT_4002001c &0xff]      
ram:08004a90    0663            str         r6,[r0,#offset DAT_40020030 &0xff]      
ram:08004a92    dd48            ldr         r0,[DAT_08004e08]                       ;= 40020040h
ram:08004a94    4660            str         r6,[r0,#0x4]=>DAT_40020044              
ram:08004a96    8661            str         r6,[r0,#0x18]=>DAT_40020058             
ram:08004a98    dd49            ldr         r1,[DAT_08004e10]                       ;= 40010000h
ram:08004a9a    dc48            ldr         r0,[DAT_08004e0c]                       ;= 00130603h
ram:08004a9c    0860            str         r0,[r1,#0x0]=>DAT_40010000              
ram:08004a9e    dd48            ldr         r0,[DAT_08004e14]                       ;= 48001400h
ram:08004aa0    1114            asrs        r1,r2,#0x10                             
ram:08004aa2    0160            str         r1,[r0,#0x0]=>DAT_48001400              
ram:08004aa4    dc49            ldr         r1,[DAT_08004e18]                       ;= 00001005h
ram:08004aa6    c160            str         r1,[r0,#offset DAT_4800140c &0xff]      
ram:08004aa8    8680            strh        r6,[r0,#offset DAT_48001404 &0xff]      
ram:08004aaa    8682            strh        r6,[r0,#offset DAT_48001414 &0xff]      
ram:08004aac    1521            movs        r1,#0x15                                
ram:08004aae    db48            ldr         r0,[DAT_08004e1c]                       ;= 48000800h
ram:08004ab0    8906            lsls        r1,r1,#0x1a                             
ram:08004ab2    0160            str         r1,[r0,#0x0]=>DAT_48000800              
ram:08004ab4    0521            movs        r1,#0x5                                 
ram:08004ab6    8906            lsls        r1,r1,#0x1a                             
ram:08004ab8    c160            str         r1,[r0,#offset DAT_4800080c &0xff]      
ram:08004aba    0321            movs        r1,#0x3                                 
ram:08004abc    4903            lsls        r1,r1,#0xd                              
ram:08004abe    8180            strh        r1,[r0,#offset DAT_48000804 &0xff]      
ram:08004ac0    8182            strh        r1,[r0,#offset DAT_48000814 &0xff]      
ram:08004ac2    d848            ldr         r0,[DAT_08004e24]                       ;= 48000400h
ram:08004ac4    d649            ldr         r1,[DAT_08004e20]                       ;= A955A55Ah
ram:08004ac6    0160            str         r1,[r0,#0x0]=>DAT_48000400              
ram:08004ac8    c021            movs        r1,#0xc0                                
ram:08004aca    8180            strh        r1,[r0,#offset DAT_48000404 &0xff]      
ram:08004acc    8660            str         r6,[r0,#offset DAT_48000408 &0xff]      
ram:08004ace    0521            movs        r1,#0x5                                 
ram:08004ad0    0903            lsls        r1,r1,#0xc                              
ram:08004ad2    c160            str         r1,[r0,#offset DAT_4800040c &0xff]      
ram:08004ad4    9114            asrs        r1,r2,#0x12                             
ram:08004ad6    8182            strh        r1,[r0,#offset DAT_48000414 &0xff]      
ram:08004ad8    d349            ldr         r1,[DAT_08004e28]                       ;= 11000011h
ram:08004ada    0162            str         r1,[r0,#offset DAT_48000420 &0xff]      
ram:08004adc    4662            str         r6,[r0,#offset DAT_48000424 &0xff]      
ram:08004ade    0920            movs        r0,#0x9                                 
ram:08004ae0    d249            ldr         r1,[DAT_08004e2c]                       ;= 695AAFEFh
ram:08004ae2    c006            lsls        r0=>DAT_48000000,r0,#0x1b               
ram:08004ae4    0160            str         r1,[r0,#0x0]=>DAT_48000000              
ram:08004ae6    0421            movs        r1,#0x4                                 
ram:08004ae8    8180            strh        r1,[r0,#offset DAT_48000004 &0xff]      
ram:08004aea    0f21            movs        r1,#0xf                                 
ram:08004aec    0904            lsls        r1,r1,#0x10                             
ram:08004aee    8160            str         r1,[r0,#offset DAT_48000008 &0xff]      
ram:08004af0    1021            movs        r1,#0x10                                
ram:08004af2    c160            str         r1,[r0,#offset DAT_4800000c &0xff]      
ram:08004af4    0421            movs        r1,#0x4                                 
ram:08004af6    8182            strh        r1,[r0,#offset DAT_48000014 &0xff]      
ram:08004af8    cd49            ldr         r1,[DAT_08004e30]                       ;= 11000100h
ram:08004afa    0162            str         r1,[r0,#offset DAT_48000020 &0xff]      
ram:08004afc    2221            movs        r1,#0x22                                
ram:08004afe    4162            str         r1,[r0,#offset DAT_48000024 &0xff]      
ram:08004b00    fdf786fe        bl          FUN_08002810                            ;undefined FUN_08002810(void)
ram:08004b04    0d96            str         r6,[sp,#local_14+0x48]                  
ram:08004b06    cb48            ldr         r0,[DAT_08004e34]                       ;= 00200002h
ram:08004b08    0e96            str         r6,[sp,#local_10+0x48]                  
ram:08004b0a    0890            str         r0,[sp,#local_28+0x48]                  
ram:08004b0c    0996            str         r6,[sp,#local_24+0x48]                  
ram:08004b0e    0a96            str         r6,[sp,#local_20+0x48]                  
ram:08004b10    08a9            add         r1,sp,#0x20                             
ram:08004b12    0b96            str         r6,[sp,#local_1c+0x48]                  
ram:08004b14    c848            ldr         r0,[DAT_08004e38]                       ;= 40005400h
ram:08004b16    fff717fb        bl          FUN_08004148                            ;undefined FUN_08004148(uint * param_...
ram:08004b1a    0121            movs        r1,#0x1                                 
ram:08004b1c    c648            ldr         r0,[DAT_08004e38]                       ;= 40005400h
ram:08004b1e    fff74dfb        bl          FUN_080041bc                            ;undefined FUN_080041bc(uint * param_...
ram:08004b22    c649            ldr         r1,[DAT_08004e3c]                       ;= 40013000h
ram:08004b24    1c20            movs        r0,#0x1c                                
ram:08004b26    0880            strh        r0,[r1,#0x0]=>DAT_40013000              
ram:08004b28    c548            ldr         r0,[DAT_08004e40]                       ;= 00001707h
ram:08004b2a    8880            strh        r0,[r1,#offset DAT_40013004 &0xff]      
ram:08004b2c    c548            ldr         r0,[DAT_08004e44]                       ;= 40012C00h
ram:08004b2e    0680            strh        r6,[r0,#0x0]=>DAT_40012c00              
ram:08004b30    8680            strh        r6,[r0,#offset DAT_40012c04 &0xff]      
ram:08004b32    0681            strh        r6,[r0,#offset DAT_40012c08 &0xff]      
ram:08004b34    8681            strh        r6,[r0,#offset DAT_40012c0c &0xff]      
ram:08004b36    0682            strh        r6,[r0,#offset DAT_40012c10 &0xff]      
ram:08004b38    c349            ldr         r1,[DAT_08004e48]                       ;= 00007060h
ram:08004b3a    0183            strh        r1,[r0,#offset DAT_40012c18 &0xff]      
ram:08004b3c    8683            strh        r6,[r0,#offset DAT_40012c1c &0xff]      
ram:08004b3e    c349            ldr         r1,[DAT_08004e4c]                       ;= 40012C20h
ram:08004b40    1122            movs        r2,#0x11                                
ram:08004b42    0a80            strh        r2,[r1,#0x0]=>DAT_40012c20              
ram:08004b44    0e81            strh        r6,[r1,#0x8]=>DAT_40012c28              
ram:08004b46    ff22            movs        r2,#0xff                                
ram:08004b48    6a32            adds        r2,#0x6a                                
ram:08004b4a    c262            str         r2,[r0,#offset DAT_40012c2c &0xff]      
ram:08004b4c    0e82            strh        r6,[r1,#0x10]=>DAT_40012c30             
ram:08004b4e    4663            str         r6,[r0,#offset DAT_40012c34 &0xff]      
ram:08004b50    511c            adds        r1,r2,#0x1                              
ram:08004b52    8163            str         r1,[r0,#offset DAT_40012c38 &0xff]      
ram:08004b54    3322            movs        r2,#0x33                                
ram:08004b56    be49            ldr         r1,[DAT_08004e50]                       ;= 40012C40h
ram:08004b58    9202            lsls        r2,r2,#0xa                              
ram:08004b5a    8a80            strh        r2,[r1,#0x4]=>DAT_40012c44              
ram:08004b5c    0e81            strh        r6,[r1,#0x8]=>DAT_40012c48              
ram:08004b5e    8e81            strh        r6,[r1,#0xc]=>DAT_40012c4c              
ram:08004b60    0780            strh        r7,[r0,#0x0]=>DAT_40012c00              
ram:08004b62    6846            mov         r0,sp                                   
ram:08004b64    8680            strh        r6,[r0,#local_44+0x48]                  
ram:08004b66    0a21            movs        r1,#0xa                                 
ram:08004b68    c180            strh        r1,[r0,#local_42+0x48]                  
ram:08004b6a    4681            strh        r6,[r0,#local_3e+0x48]                  
ram:08004b6c    0781            strh        r7,[r0,#local_40+0x48]                  
ram:08004b6e    b94f            ldr         r7,[DAT_08004e54]                       ;= 40000400h
ram:08004b70    8681            strh        r6,[r0,#local_3c+0x48]                  
ram:08004b72    01a9            add         r1,sp,#0x4                              
ram:08004b74    3846            mov         r0,r7                                   
ram:08004b76    fef7d4ff        bl          FUN_08003b22                            ;undefined FUN_08003b22(int param_1, ...
ram:08004b7a    0421            movs        r1,#0x4                                 
ram:08004b7c    6846            mov         r0,sp                                   
ram:08004b7e    8180            strh        r1,[r0,#local_44+0x48]                  
ram:08004b80    01a9            add         r1,sp,#0x4                              
ram:08004b82    3846            mov         r0,r7                                   
ram:08004b84    fef7cdff        bl          FUN_08003b22                            ;undefined FUN_08003b22(int param_1, ...
ram:08004b88    0821            movs        r1,#0x8                                 
ram:08004b8a    6846            mov         r0,sp                                   
ram:08004b8c    8180            strh        r1,[r0,#local_44+0x48]                  
ram:08004b8e    01a9            add         r1,sp,#0x4                              
ram:08004b90    3846            mov         r0,r7                                   
ram:08004b92    fef7c6ff        bl          FUN_08003b22                            ;undefined FUN_08003b22(int param_1, ...
ram:08004b96    0c21            movs        r1,#0xc                                 
ram:08004b98    6846            mov         r0,sp                                   
ram:08004b9a    8180            strh        r1,[r0,#local_44+0x48]                  
ram:08004b9c    01a9            add         r1,sp,#0x4                              
ram:08004b9e    3846            mov         r0,r7                                   
ram:08004ba0    fef7bfff        bl          FUN_08003b22                            ;undefined FUN_08003b22(int param_1, ...
ram:08004ba4    2b21            movs        r1,#0x2b                                
ram:08004ba6    6846            mov         r0,sp                                   
ram:08004ba8    0182            strh        r1,[r0,#local_38+0x48]                  
ram:08004baa    4682            strh        r6,[r0,#local_36+0x48]                  
ram:08004bac    aa48            ldr         r0,[DAT_08004e58]                       ;= 0000FFFFh
ram:08004bae    0590            str         r0,[sp,#local_34+0x48]                  
ram:08004bb0    6846            mov         r0,sp                                   
ram:08004bb2    0683            strh        r6,[r0,#local_30+0x48]                  
ram:08004bb4    8676            strb        r6,[r0,#local_2e+0x48]                  
ram:08004bb6    04a9            add         r1,sp,#0x10                             
ram:08004bb8    3846            mov         r0,r7                                   
ram:08004bba    fef7f2fc        bl          FUN_080035a2                            ;undefined FUN_080035a2(ushort * para...
ram:08004bbe    0021            movs        r1,#0x0                                 
ram:08004bc0    3846            mov         r0,r7                                   
ram:08004bc2    fef73efd        bl          FUN_08003642                            ;undefined FUN_08003642(ushort * para...
ram:08004bc6    0122            movs        r2,#0x1                                 
ram:08004bc8    1f21            movs        r1,#0x1f                                
ram:08004bca    3846            mov         r0,r7                                   
ram:08004bcc    fff7def8        bl          FUN_08003d8c                            ;undefined FUN_08003d8c(int param_1, ...
ram:08004bd0    a249            ldr         r1,[DAT_08004e5c]                       ;= E000E100h
ram:08004bd2    b813            asrs        r0,r7,#0xe                              
ram:08004bd4    0860            str         r0,[r1,#0x0]=>DAT_e000e100              
ram:08004bd6    0121            movs        r1,#0x1                                 
ram:08004bd8    3846            mov         r0,r7                                   
ram:08004bda    fef754fd        bl          FUN_08003686                            ;undefined FUN_08003686(ushort * para...
ram:08004bde    a14f            ldr         r7,[DAT_08004e64]                       ;= 40013800h
ram:08004be0    9f48            ldr         r0,[DAT_08004e60]                       ;= 0000144Ch
ram:08004be2    3860            str         r0,[r7,#0x0]=>DAT_40013800              
ram:08004be4    fdf7f6fc        bl          FUN_080025d4                            ;undefined FUN_080025d4(void)
ram:08004be8    7814            asrs        r0,r7,#0x11                             
ram:08004bea    7860            str         r0,[r7,#offset DAT_40013804 &0xff]      
ram:08004bec    9e48            ldr         r0,[DAT_08004e68]                       ;= 000010C8h
ram:08004bee    b860            str         r0,[r7,#offset DAT_40013808 &0xff]      
ram:08004bf0    d020            movs        r0,#0xd0                                
ram:08004bf2    b881            strh        r0,[r7,#offset DAT_4001380c &0xff]      
ram:08004bf4    9d48            ldr         r0,[DAT_08004e6c]                       ;= 0000144Dh
ram:08004bf6    3860            str         r0,[r7,#0x0]=>DAT_40013800              
ram:08004bf8    0120            movs        r0,#0x1                                 
ram:08004bfa    9849            ldr         r1,[DAT_08004e5c]                       ;= E000E100h
ram:08004bfc    c006            lsls        r0,r0,#0x1b                             
ram:08004bfe    0860            str         r0,[r1,#0x0]=>DAT_e000e100              
ram:08004c00    7848            ldr         r0,[DAT_08004de4]                       ;= E000E000h
ram:08004c02    9b49            ldr         r1,[DAT_08004e70]                       ;= 00001F3Fh
ram:08004c04    4161            str         r1,[r0,#offset DAT_e000e014 &0xff]      
ram:08004c06    9b49            ldr         r1,[DAT_08004e74]                       ;= E000ED04h
ram:08004c08    c969            ldr         r1,[r1,#0x1c]=>DAT_e000ed20             
ram:08004c0a    0902            lsls        r1,r1,#0x8                              
ram:08004c0c    090a            lsrs        r1,r1,#0x8                              
ram:08004c0e    4204            lsls        r2,r0,#0x11                             
ram:08004c10    1143            orrs        r1,r2                                   
ram:08004c12    984a            ldr         r2,[DAT_08004e74]                       ;= E000ED04h
ram:08004c14    d161            str         r1,[r2,#0x1c]=>DAT_e000ed20             
ram:08004c16    8661            str         r6,[r0,#offset DAT_e000e018 &0xff]      
ram:08004c18    0721            movs        r1,#0x7                                 
ram:08004c1a    0161            str         r1,[r0,#offset DAT_e000e010 &0xff]      
ram:08004c1c    9649            ldr         r1,[DAT_08004e78]                       ;= 40002800h
ram:08004c1e    ca20            movs        r0,#0xca                                
ram:08004c20    4862            str         r0,[r1,#offset DAT_40002824 &0xff]      
ram:08004c22    5320            movs        r0,#0x53                                
ram:08004c24    4862            str         r0,[r1,#offset DAT_40002824 &0xff]      
ram:08004c26    8e60            str         r6,[r1,#offset DAT_40002808 &0xff]      
ram:08004c28    8020            movs        r0,#0x80                                
ram:08004c2a    c860            str         r0,[r1,#offset DAT_4000280c &0xff]      
                            LAB_08004c2c:                 ;XREF[1,0]:   08004c30
ram:08004c2c    c868            ldr         r0,[r1,#offset DAT_4000280c &0xff]      
ram:08004c2e    4006            lsls        r0,r0,#0x19                             
ram:08004c30    fcd5            bpl         LAB_08004c2c                            
ram:08004c32    9148            ldr         r0,[DAT_08004e78]                       ;= 40002800h
ram:08004c34    914a            ldr         r2,[DAT_08004e7c]                       ;= 007D0140h
ram:08004c36    0261            str         r2,[r0,#offset DAT_40002810 &0xff]      
ram:08004c38    0261            str         r2,[r0,#offset DAT_40002810 &0xff]      
ram:08004c3a    9149            ldr         r1,[DAT_08004e80]                       ;= 80808080h
ram:08004c3c    c161            str         r1,[r0,#offset DAT_4000281c &0xff]      
ram:08004c3e    914a            ldr         r2,[DAT_08004e84]                       ;= 40002840h
ram:08004c40    4103            lsls        r1,r0,#0xd                              
ram:08004c42    5160            str         r1,[r2,#0x4]=>DAT_40002844              
ram:08004c44    0021            movs        r1,#0x0                                 
ram:08004c46    c160            str         r1,[r0,#offset DAT_4000280c &0xff]      
ram:08004c48    1123            movs        r3,#0x11                                
ram:08004c4a    1b02            lsls        r3,r3,#0x8                              
ram:08004c4c    8360            str         r3,[r0,#offset DAT_40002808 &0xff]      
ram:08004c4e    1160            str         r1,[r2,#0x0]=>DAT_40002840              
ram:08004c50    6f48            ldr         r0,[DAT_08004e10]                       ;= 40010000h
ram:08004c52    8160            str         r1,[r0,#offset DAT_40010008 &0xff]      
ram:08004c54    c160            str         r1,[r0,#offset DAT_4001000c &0xff]      
ram:08004c56    0161            str         r1,[r0,#offset DAT_40010010 &0xff]      
ram:08004c58    4161            str         r1,[r0,#offset DAT_40010014 &0xff]      
ram:08004c5a    8c48            ldr         r0,[DAT_08004e8c]                       ;= 40010400h
ram:08004c5c    8a4a            ldr         r2,[DAT_08004e88]                       ;= 00020004h
ram:08004c5e    8260            str         r2,[r0,#offset DAT_40010408 &0xff]      
ram:08004c60    0421            movs        r1,#0x4                                 
ram:08004c62    c160            str         r1,[r0,#offset DAT_4001040c &0xff]      
ram:08004c64    0160            str         r1,[r0,#0x0]=>DAT_40010400              
ram:08004c66    4260            str         r2,[r0,#offset DAT_40010404 &0xff]      
ram:08004c68    6620            movs        r0,#0x66                                
ram:08004c6a    fef782fb        bl          FUN_08003372                            ;undefined FUN_08003372(undefined4 pa...
ram:08004c6e    fef705f8        bl          FUN_08002c7c                            ;undefined FUN_08002c7c(void)
ram:08004c72    fdf7affd        bl          FUN_080027d4                            ;undefined FUN_080027d4(void)
ram:08004c76    6748            ldr         r0,[DAT_08004e14]                       ;= 48001400h
ram:08004c78    008a            ldrh        r0,[r0,#offset DAT_48001410 &0xff]      
ram:08004c7a    0221            movs        r1,#0x2                                 
ram:08004c7c    844f            ldr         r7,[DAT_08004e90]                       ;= 20000170h
ram:08004c7e    0840            ands        r0,r1                                   
ram:08004c80    3860            str         r0,[r7,#0x0]=>DAT_20000170              
ram:08004c82    62b6            cpsie       i                                       
ram:08004c84    0422            movs        r2,#0x4                                 
ram:08004c86    8349            ldr         r1=>DAT_200001b8,[DAT_08004e94]         ;= 200001B8h
ram:08004c88    8348            ldr         r0,[DAT_08004e98]                       ;= 00000040h
ram:08004c8a    fef760fa        bl          FUN_0800314e                            ;int FUN_0800314e(uint param_1, int p...
ram:08004c8e    0668            ldr         r6,[r0,#0x0]                            
ram:08004c90    3046            mov         r0,r6                                   
ram:08004c92    00f030fb        bl          FUN_080052f6                            ;undefined FUN_080052f6(undefined4 pa...
ram:08004c96    7f48            ldr         r0,[DAT_08004e94]                       ;= 200001B8h
ram:08004c98    761c            adds        r6,r6,#0x1                              
ram:08004c9a    0146            mov         r1=>DAT_200001b8,r0                     
ram:08004c9c    0660            str         r6,[r0,#0x0]=>DAT_200001b8              
ram:08004c9e    0422            movs        r2,#0x4                                 
ram:08004ca0    7d48            ldr         r0,[DAT_08004e98]                       ;= 00000040h
ram:08004ca2    fef780fa        bl          FUN_080031a6                            ;undefined FUN_080031a6(uint param_1,...
ram:08004ca6    fcf71efb        bl          FUN_080012e6                            ;undefined FUN_080012e6(void)
ram:08004caa    4f4e            ldr         r6,[DAT_08004de8]                       ;= 200001E8h
                            LAB_08004cac:                 ;XREF[2,0]:   08004f3a,08004f56
ram:08004cac    fef76cfb        bl          FUN_08003388                            ;undefined FUN_08003388(void)
ram:08004cb0    fcf729fb        bl          FUN_08001306                            ;undefined FUN_08001306(undefined4 pa...
ram:08004cb4    fdf7f0ff        bl          FUN_08002c98                            ;undefined FUN_08002c98(void)
ram:08004cb8    00f0b9f9        bl          FUN_0800502e                            ;undefined4 FUN_0800502e(void)
ram:08004cbc    0f90            str         r0,[sp,#local_c+0x48]                   
ram:08004cbe    7748            ldr         r0,[DAT_08004e9c]                       ;= 2000020Ch
ram:08004cc0    0068            ldr         r0,[r0,#0x0]=>DAT_2000020c              
ram:08004cc2    0028            cmp         r0,#0x0                                 
ram:08004cc4    28d1            bne         LAB_08004d18                            
ram:08004cc6    534f            ldr         r7,[DAT_08004e14]                       ;= 48001400h
ram:08004cc8    388a            ldrh        r0,[r7,#offset DAT_48001410 &0xff]      
ram:08004cca    7149            ldr         r1,[DAT_08004e90]                       ;= 20000170h
ram:08004ccc    0978            ldrb        r1,[r1,#0x0]=>DAT_20000170              
ram:08004cce    0840            ands        r0,r1                                   
ram:08004cd0    8007            lsls        r0,r0,#0x1e                             
ram:08004cd2    21d5            bpl         LAB_08004d18                            
ram:08004cd4    fdf7defc        bl          FUN_08002694                            ;undefined4 FUN_08002694(void)
ram:08004cd8    0028            cmp         r0,#0x0                                 
ram:08004cda    1dd1            bne         LAB_08004d18                            
ram:08004cdc    fcf733fa        bl          FUN_08001146                            ;uint FUN_08001146(void)
ram:08004ce0    0028            cmp         r0,#0x0                                 
ram:08004ce2    19d1            bne         LAB_08004d18                            
ram:08004ce4    f069            ldr         r0,[r6,#0x1c]=>DAT_20000204             
ram:08004ce6    0028            cmp         r0,#0x0                                 
ram:08004ce8    16d1            bne         LAB_08004d18                            
ram:08004cea    0920            movs        r0,#0x9                                 
ram:08004cec    c006            lsls        r0,r0,#0x1b                             
ram:08004cee    808a            ldrh        r0,[r0,#offset DAT_48000014 &0xff]      
ram:08004cf0    2721            movs        r1,#0x27                                
ram:08004cf2    8902            lsls        r1,r1,#0xa                              
ram:08004cf4    0840            ands        r0,r1                                   
ram:08004cf6    4b49            ldr         r1=>DAT_48000400,[DAT_08004e24]         ;= 48000400h
ram:08004cf8    898a            ldrh        r1,[r1,#offset DAT_48000414 &0xff]      
ram:08004cfa    c322            movs        r2,#0xc3                                
ram:08004cfc    1201            lsls        r2,r2,#0x4                              
ram:08004cfe    1140            ands        r1,r2                                   
ram:08004d00    0843            orrs        r0,r1                                   
ram:08004d02    09d1            bne         LAB_08004d18                            
ram:08004d04    b88a            ldrh        r0,[r7,#offset DAT_48001414 &0xff]      
ram:08004d06    0006            lsls        r0,r0,#0x18                             
ram:08004d08    06d4            bmi         LAB_08004d18                            
ram:08004d0a    4e48            ldr         r0,[DAT_08004e44]                       ;= 40012C00h
ram:08004d0c    816b            ldr         r1,[r0,#offset DAT_40012c38 &0xff]      
ram:08004d0e    406b            ldr         r0,[r0,#offset DAT_40012c34 &0xff]      
ram:08004d10    ff39            subs        r1,#0xff                                
ram:08004d12    6b39            subs        r1,#0x6b                                
ram:08004d14    0143            orrs        r1,r0                                   
ram:08004d16    02d0            beq         LAB_08004d1e                            
                            LAB_08004d18:                 ;XREF[7,0]:   08004cc4,08004cd2,08004cda,08004ce2
                                                          ;             08004ce8,08004d02,08004d08
ram:08004d18    6420            movs        r0,#0x64                                
ram:08004d1a    3060            str         r0,[r6,#0x0]=>DAT_200001e8              
ram:08004d1c    06e0            b           LAB_08004d2c                            
                            LAB_08004d1e:                 ;XREF[1,0]:   08004d16
ram:08004d1e    3068            ldr         r0,[r6,#0x0]=>DAT_200001e8              
ram:08004d20    0028            cmp         r0,#0x0                                 
ram:08004d22    03d1            bne         LAB_08004d2c                            
ram:08004d24    fcf733fa        bl          FUN_0800118e                            ;undefined4 FUN_0800118e(void)
ram:08004d28    0028            cmp         r0,#0x0                                 
ram:08004d2a    25d0            beq         LAB_08004d78                            
                            LAB_08004d2c:                 ;XREF[2,0]:   08004d1c,08004d22
ram:08004d2c    0120            movs        r0,#0x1                                 
ram:08004d2e    3b49            ldr         r1=>DAT_48000800,[DAT_08004e1c]         ;= 48000800h
ram:08004d30    c003            lsls        r0,r0,#0xf                              
ram:08004d32    8861            str         r0,[r1,#offset DAT_48000818 &0xff]      
ram:08004d34    fdf7aafd        bl          FUN_0800288c                            ;undefined FUN_0800288c(void)
                            LAB_08004d38:                 ;XREF[2,0]:   08004d96,08004ea6
ram:08004d38    5448            ldr         r0,[DAT_08004e8c]                       ;= 40010400h
ram:08004d3a    4169            ldr         r1,[r0,#offset DAT_40010414 &0xff]      
ram:08004d3c    4907            lsls        r1,r1,#0x1d                             
ram:08004d3e    03d5            bpl         LAB_08004d48                            
ram:08004d40    0421            movs        r1,#0x4                                 
ram:08004d42    4161            str         r1,[r0,#offset DAT_40010414 &0xff]      
ram:08004d44    1420            movs        r0,#0x14                                
ram:08004d46    7060            str         r0,[r6,#0x4]=>DAT_200001ec              
                            LAB_08004d48:                 ;XREF[1,0]:   08004d3e
ram:08004d48    3248            ldr         r0,[DAT_08004e14]                       ;= 48001400h
ram:08004d4a    008a            ldrh        r0,[r0,#offset DAT_48001410 &0xff]      
ram:08004d4c    8007            lsls        r0,r0,#0x1e                             
ram:08004d4e    01d5            bpl         LAB_08004d54                            
ram:08004d50    0020            movs        r0,#0x0                                 
ram:08004d52    b060            str         r0,[r6,#0x8]=>DAT_200001f0              
                            LAB_08004d54:                 ;XREF[1,0]:   08004d4e
ram:08004d54    3069            ldr         r0,[r6,#0x10]=>DAT_200001f8             
ram:08004d56    0028            cmp         r0,#0x0                                 
ram:08004d58    07d0            beq         LAB_08004d6a                            
                            LAB_08004d5a:                 ;XREF[1,0]:   08004d68
ram:08004d5a    3069            ldr         r0,[r6,#0x10]=>DAT_200001f8             
ram:08004d5c    401e            subs        r0,r0,#0x1                              
ram:08004d5e    3061            str         r0,[r6,#0x10]=>DAT_200001f8             
ram:08004d60    fef7aefa        bl          FUN_080032c0                            ;undefined FUN_080032c0(void)
ram:08004d64    3069            ldr         r0,[r6,#0x10]=>DAT_200001f8             
ram:08004d66    0028            cmp         r0,#0x0                                 
ram:08004d68    f7d1            bne         LAB_08004d5a                            
                            LAB_08004d6a:                 ;XREF[1,0]:   08004d58
ram:08004d6a    f068            ldr         r0,[r6,#0xc]=>DAT_200001f4              
ram:08004d6c    0028            cmp         r0,#0x0                                 
ram:08004d6e    37d0            beq         LAB_08004de0                            
ram:08004d70    0f98            ldr         r0,[sp,#local_c+0x48]                   
ram:08004d72    0028            cmp         r0,#0x0                                 
ram:08004d74    35d1            bne         LAB_08004de2                            
ram:08004d76    97e0            b           LAB_08004ea8                            
                            LAB_08004d78:                 ;XREF[1,0]:   08004d2a
ram:08004d78    0120            movs        r0,#0x1                                 
ram:08004d7a    284f            ldr         r7,[DAT_08004e1c]                       ;= 48000800h
ram:08004d7c    c007            lsls        r0,r0,#0x1f                             
ram:08004d7e    b861            str         r0,[r7,#offset DAT_48000818 &0xff]      
ram:08004d80    00f0b0fa        bl          FUN_080052e4                            ;uint FUN_080052e4(void)
ram:08004d84    1921            movs        r1,#0x19                                
ram:08004d86    00f099fa        bl          FUN_080052bc                            ;int FUN_080052bc(uint param_1, uint ...
ram:08004d8a    0846            mov         r0,r1                                   
ram:08004d8c    6630            adds        r0,#0x66                                
ram:08004d8e    fef7f0fa        bl          FUN_08003372                            ;undefined FUN_08003372(undefined4 pa...
ram:08004d92    7068            ldr         r0,[r6,#0x4]=>DAT_200001ec              
ram:08004d94    0028            cmp         r0,#0x0                                 
ram:08004d96    cfd1            bne         LAB_08004d38                            
ram:08004d98    0320            movs        r0,#0x3                                 
ram:08004d9a    4003            lsls        r0,r0,#0xd                              
ram:08004d9c    b861            str         r0,[r7,#offset DAT_48000818 &0xff]      
                            LAB_08004d9e:                 ;XREF[1,0]:   08004da4
ram:08004d9e    00f046f9        bl          FUN_0800502e                            ;undefined4 FUN_0800502e(void)
ram:08004da2    0028            cmp         r0,#0x0                                 
ram:08004da4    fbd0            beq         LAB_08004d9e                            
ram:08004da6    2b4f            ldr         r7,[DAT_08004e54]                       ;= 40000400h
ram:08004da8    0021            movs        r1,#0x0                                 
ram:08004daa    3846            mov         r0,r7                                   
ram:08004dac    fef76bfc        bl          FUN_08003686                            ;undefined FUN_08003686(ushort * para...
ram:08004db0    3b49            ldr         r1,[DAT_08004ea0]                       ;= E000ED00h
ram:08004db2    0420            movs        r0,#0x4                                 
ram:08004db4    0861            str         r0,[r1,#offset DAT_e000ed10 &0xff]      
ram:08004db6    8101            lsls        r1,r0,#0x6                              
ram:08004db8    1148            ldr         r0,[DAT_08004e00]                       ;= 40007000h
ram:08004dba    0160            str         r1,[r0,#0x0]=>DAT_40007000              
ram:08004dbc    0022            movs        r2,#0x0                                 
ram:08004dbe    4260            str         r2,[r0,#offset DAT_40007004 &0xff]      
ram:08004dc0    20bf            wfe                                                  
ram:08004dc2    0160            str         r1,[r0,#0x0]=>DAT_40007000              
ram:08004dc4    2c48            ldr         r0,[DAT_08004e78]                       ;= 40002800h
ram:08004dc6    c260            str         r2,[r0,#offset DAT_4000280c &0xff]      
ram:08004dc8    0121            movs        r1,#0x1                                 
ram:08004dca    3846            mov         r0,r7                                   
ram:08004dcc    fef75bfc        bl          FUN_08003686                            ;undefined FUN_08003686(ushort * para...
ram:08004dd0    00f0cef8        bl          FUN_08004f70                            ;undefined FUN_08004f70(void)
ram:08004dd4    fa20            movs        r0,#0xfa                                
ram:08004dd6    b061            str         r0,[r6,#0x18]=>DAT_20000200             
                            LAB_08004dd8:                 ;XREF[1,0]:   08004ea4
ram:08004dd8    00f029f9        bl          FUN_0800502e                            ;undefined4 FUN_0800502e(void)
ram:08004ddc    0028            cmp         r0,#0x0                                 
ram:08004dde    61e0            b           LAB_08004ea4                            
                            LAB_08004de0:                 ;XREF[1,0]:   08004d6e
ram:08004de0    69e0            b           LAB_08004eb6                            
                            LAB_08004de2:                 ;XREF[1,0]:   08004d74
ram:08004de2    64e0            b           LAB_08004eae                            
                            DAT_08004de4:                 ;XREF[1,0]:   08004c00
ram:08004de4    00e000e0        undefined4  E000E000h                               
                            DAT_08004de8:                 ;XREF[2,0]:   08004a02,08004caa
ram:08004de8    e8010020        undefined4  200001E8h                               
                            DAT_08004dec:                 ;XREF[1,0]:   08004a36
ram:08004dec    00100240        undefined4  40021000h                               
                            DAT_08004df0:                 ;XREF[1,0]:   08004a64
ram:08004df0    00200240        undefined4  40022000h                               
                            DAT_08004df4:                 ;XREF[1,0]:   08004a68
ram:08004df4    55004e00        undefined4  004E0055h                               
                            DAT_08004df8:                 ;XREF[1,0]:   08004a6c
ram:08004df8    02002010        undefined4  10200002h                               
                            DAT_08004dfc:                 ;XREF[1,0]:   08004a70
ram:08004dfc    015a4000        undefined4  00405A01h                               
                            DAT_08004e00:                 ;XREF[2,0]:   08004a74,08004db8
ram:08004e00    00700040        undefined4  40007000h                               
                            DAT_08004e04:                 ;XREF[1,0]:   08004a8a
ram:08004e04    00000240        undefined4  40020000h                               
                            DAT_08004e08:                 ;XREF[1,0]:   08004a92
ram:08004e08    40000240        undefined4  40020040h                               
                            DAT_08004e0c:                 ;XREF[1,0]:   08004a9a
ram:08004e0c    03061300        undefined4  00130603h                               
                            DAT_08004e10:                 ;XREF[2,0]:   08004a98,08004c50
ram:08004e10    00000140        undefined4  40010000h                               
                            DAT_08004e14:                 ;XREF[4,0]:   08004a9e,08004c76,08004cc6,08004d48
ram:08004e14    00140048        undefined4  48001400h                               
                            DAT_08004e18:                 ;XREF[1,0]:   08004aa4
ram:08004e18    05100000        undefined4  00001005h                               
                            DAT_08004e1c:                 ;XREF[3,0]:   08004aae,08004d2e,08004d7a
ram:08004e1c    00080048        undefined4  48000800h                               
                            DAT_08004e20:                 ;XREF[1,0]:   08004ac4
ram:08004e20    5aa555a9        undefined4  A955A55Ah                               
                            DAT_08004e24:                 ;XREF[2,0]:   08004ac2,08004cf6
ram:08004e24    00040048        undefined4  48000400h                               
                            DAT_08004e28:                 ;XREF[1,0]:   08004ad8
ram:08004e28    11000011        undefined4  11000011h                               
                            DAT_08004e2c:                 ;XREF[1,0]:   08004ae0
ram:08004e2c    efaf5a69        undefined4  695AAFEFh                               
                            DAT_08004e30:                 ;XREF[1,0]:   08004af8
ram:08004e30    00010011        undefined4  11000100h                               
                            DAT_08004e34:                 ;XREF[1,0]:   08004b06
ram:08004e34    02002000        undefined4  00200002h                               
                            DAT_08004e38:                 ;XREF[2,0]:   08004b14,08004b1c
ram:08004e38    00540040        undefined4  40005400h                               
                            DAT_08004e3c:                 ;XREF[1,0]:   08004b22
ram:08004e3c    00300140        undefined4  40013000h                               
                            DAT_08004e40:                 ;XREF[1,0]:   08004b28
ram:08004e40    07170000        undefined4  00001707h                               
                            DAT_08004e44:                 ;XREF[2,0]:   08004b2c,08004d0a
ram:08004e44    002c0140        undefined4  40012C00h                               
                            DAT_08004e48:                 ;XREF[1,0]:   08004b38
ram:08004e48    60700000        undefined4  00007060h                               
                            DAT_08004e4c:                 ;XREF[1,0]:   08004b3e
ram:08004e4c    202c0140        undefined4  40012C20h                               
                            DAT_08004e50:                 ;XREF[1,0]:   08004b56
ram:08004e50    402c0140        undefined4  40012C40h                               
                            DAT_08004e54:                 ;XREF[2,0]:   08004b6e,08004da6
ram:08004e54    00040040        undefined4  40000400h                               
                            DAT_08004e58:                 ;XREF[1,0]:   08004bac
ram:08004e58    ffff0000        undefined4  0000FFFFh                               
                            DAT_08004e5c:                 ;XREF[2,0]:   08004bd0,08004bfa
ram:08004e5c    00e100e0        undefined4  E000E100h                               
                            DAT_08004e60:                 ;XREF[1,0]:   08004be0
ram:08004e60    4c140000        undefined4  0000144Ch                               
                            DAT_08004e64:                 ;XREF[1,0]:   08004bde
ram:08004e64    00380140        undefined4  40013800h                               
                            DAT_08004e68:                 ;XREF[1,0]:   08004bec
ram:08004e68    c8100000        undefined4  000010C8h                               
                            DAT_08004e6c:                 ;XREF[1,0]:   08004bf4
ram:08004e6c    4d140000        undefined4  0000144Dh                               
                            DAT_08004e70:                 ;XREF[1,0]:   08004c02
ram:08004e70    3f1f0000        undefined4  00001F3Fh                               
                            DAT_08004e74:                 ;XREF[2,0]:   08004c06,08004c12
ram:08004e74    04ed00e0        undefined4  E000ED04h                               
                            DAT_08004e78:                 ;XREF[3,0]:   08004c1c,08004c32,08004dc4
ram:08004e78    00280040        undefined4  40002800h                               
                            DAT_08004e7c:                 ;XREF[1,0]:   08004c34
ram:08004e7c    40017d00        undefined4  007D0140h                               
                            DAT_08004e80:                 ;XREF[1,0]:   08004c3a
ram:08004e80    80808080        undefined4  80808080h                               
                            DAT_08004e84:                 ;XREF[1,0]:   08004c3e
ram:08004e84    40280040        undefined4  40002840h                               
                            DAT_08004e88:                 ;XREF[1,0]:   08004c5c
ram:08004e88    04000200        undefined4  00020004h                               
                            DAT_08004e8c:                 ;XREF[2,0]:   08004c5a,08004d38
ram:08004e8c    00040140        undefined4  40010400h                               
                            DAT_08004e90:                 ;XREF[2,0]:   08004c7c,08004cca
ram:08004e90    70010020        undefined4  20000170h                               
                            DAT_08004e94:                 ;XREF[2,0]:   08004c86,08004c96
ram:08004e94    b8010020        undefined4  200001B8h                               
                            DAT_08004e98:                 ;XREF[2,0]:   08004c88,08004ca0
ram:08004e98    40000000        undefined4  00000040h                               
                            DAT_08004e9c:                 ;XREF[1,0]:   08004cbe
ram:08004e9c    0c020020        undefined4  2000020Ch                               
                            DAT_08004ea0:                 ;XREF[1,0]:   08004db0
ram:08004ea0    00ed00e0        undefined4  E000ED00h                               
                            LAB_08004ea4:                 ;XREF[1,0]:   08004dde
ram:08004ea4    98d0            beq         LAB_08004dd8                            
ram:08004ea6    47e7            b           LAB_08004d38                            
                            LAB_08004ea8:                 ;XREF[1,0]:   08004d76
ram:08004ea8    b069            ldr         r0,[r6,#0x18]=>DAT_20000200             
ram:08004eaa    0028            cmp         r0,#0x0                                 
ram:08004eac    03d1            bne         LAB_08004eb6                            
                            LAB_08004eae:                 ;XREF[1,0]:   08004de2
ram:08004eae    00f05ff8        bl          FUN_08004f70                            ;undefined FUN_08004f70(void)
ram:08004eb2    fa20            movs        r0,#0xfa                                
ram:08004eb4    b061            str         r0,[r6,#0x18]=>DAT_20000200             
                            LAB_08004eb6:                 ;XREF[2,0]:   08004de0,08004eac
ram:08004eb6    f068            ldr         r0,[r6,#0xc]=>DAT_200001f4              
ram:08004eb8    0028            cmp         r0,#0x0                                 
ram:08004eba    31d0            beq         LAB_08004f20                            
ram:08004ebc    284f            ldr         r7,[DAT_08004f60]                       ;= 200001A2h
                            LAB_08004ebe:                 ;XREF[1,0]:   08004f1e
ram:08004ebe    f068            ldr         r0,[r6,#0xc]=>DAT_200001f4              
ram:08004ec0    401e            subs        r0,r0,#0x1                              
ram:08004ec2    f060            str         r0,[r6,#0xc]=>DAT_200001f4              
ram:08004ec4    fef780f8        bl          FUN_08002fc8                            ;undefined FUN_08002fc8(void)
ram:08004ec8    fdf702f8        bl          FUN_08001ed0                            ;undefined FUN_08001ed0(void)
ram:08004ecc    fdf782fc        bl          FUN_080027d4                            ;undefined FUN_080027d4(void)
ram:08004ed0    3878            ldrb        r0,[r7,#0x0]=>DAT_200001a2              
ram:08004ed2    0028            cmp         r0,#0x0                                 
ram:08004ed4    08d1            bne         LAB_08004ee8                            
ram:08004ed6    7878            ldrb        r0,[r7,#0x1]=>DAT_200001a3              
ram:08004ed8    0028            cmp         r0,#0x0                                 
ram:08004eda    05d1            bne         LAB_08004ee8                            
ram:08004edc    b878            ldrb        r0,[r7,#0x2]=>DAT_200001a4              
ram:08004ede    0028            cmp         r0,#0x0                                 
ram:08004ee0    02d1            bne         LAB_08004ee8                            
ram:08004ee2    f878            ldrb        r0,[r7,#0x3]=>DAT_200001a5              
ram:08004ee4    0028            cmp         r0,#0x0                                 
ram:08004ee6    29d0            beq         LAB_08004f3c                            
                            LAB_08004ee8:                 ;XREF[3,0]:   08004ed4,08004eda,08004ee0
ram:08004ee8    fa24            movs        r4,#0xfa                                
                            LAB_08004eea:                 ;XREF[3,0]:   08004f3e,08004f42,08004f48
ram:08004eea    b069            ldr         r0,[r6,#0x18]=>DAT_20000200             
ram:08004eec    0028            cmp         r0,#0x0                                 
ram:08004eee    2cd0            beq         LAB_08004f4a                            
ram:08004ef0    401e            subs        r0,r0,#0x1                              
ram:08004ef2    b061            str         r0,[r6,#0x18]=>DAT_20000200             
                            LAB_08004ef4:                 ;XREF[1,0]:   08004f4c
ram:08004ef4    0a2d            cmp         r5,#0xa                                 
ram:08004ef6    0fd3            bcc         LAB_08004f18                            
ram:08004ef8    3068            ldr         r0,[r6,#0x0]=>DAT_200001e8              
ram:08004efa    0025            movs        r5,#0x0                                 
ram:08004efc    0028            cmp         r0,#0x0                                 
ram:08004efe    01d0            beq         LAB_08004f04                            
ram:08004f00    401e            subs        r0,r0,#0x1                              
ram:08004f02    3060            str         r0,[r6,#0x0]=>DAT_200001e8              
                            LAB_08004f04:                 ;XREF[1,0]:   08004efe
ram:08004f04    7068            ldr         r0,[r6,#0x4]=>DAT_200001ec              
ram:08004f06    0028            cmp         r0,#0x0                                 
ram:08004f08    01d0            beq         LAB_08004f0e                            
ram:08004f0a    401e            subs        r0,r0,#0x1                              
ram:08004f0c    7060            str         r0,[r6,#0x4]=>DAT_200001ec              
                            LAB_08004f0e:                 ;XREF[1,0]:   08004f08
ram:08004f0e    b068            ldr         r0,[r6,#0x8]=>DAT_200001f0              
ram:08004f10    0128            cmp         r0,#0x1                                 
ram:08004f12    01d9            bls         LAB_08004f18                            
ram:08004f14    401e            subs        r0,r0,#0x1                              
ram:08004f16    b060            str         r0,[r6,#0x8]=>DAT_200001f0              
                            LAB_08004f18:                 ;XREF[2,0]:   08004ef6,08004f12
ram:08004f18    f068            ldr         r0,[r6,#0xc]=>DAT_200001f4              
ram:08004f1a    6d1c            adds        r5,r5,#0x1                              
ram:08004f1c    0028            cmp         r0,#0x0                                 
ram:08004f1e    ced1            bne         LAB_08004ebe                            
                            LAB_08004f20:                 ;XREF[1,0]:   08004eba
ram:08004f20    1048            ldr         r0,[DAT_08004f64]                       ;= 200004B2h
ram:08004f22    f269            ldr         r2,[r6,#0x1c]=>DAT_20000204             
ram:08004f24    4079            ldrb        r0,[r0,#0x5]=>DAT_200004b7              
ram:08004f26    c107            lsls        r1,r0,#0x1f                             
ram:08004f28    c90f            lsrs        r1,r1,#0x1f                             
ram:08004f2a    1143            orrs        r1,r2                                   
ram:08004f2c    0fd0            beq         LAB_08004f4e                            
ram:08004f2e    8007            lsls        r0,r0,#0x1e                             
ram:08004f30    0dd4            bmi         LAB_08004f4e                            
ram:08004f32    0320            movs        r0,#0x3                                 
ram:08004f34    0c49            ldr         r1,[DAT_08004f68]                       ;= 48000400h
ram:08004f36    0002            lsls        r0,r0,#0x8                              
ram:08004f38    8861            str         r0,[r1,#offset DAT_48000418 &0xff]      
ram:08004f3a    b7e6            b           LAB_08004cac                            
                            LAB_08004f3c:                 ;XREF[1,0]:   08004ee6
ram:08004f3c    002c            cmp         r4,#0x0                                 
ram:08004f3e    d4d0            beq         LAB_08004eea                            
ram:08004f40    641e            subs        r4,r4,#0x1                              
ram:08004f42    d2d1            bne         LAB_08004eea                            
ram:08004f44    fdf78cfe        bl          FUN_08002c60                            ;undefined FUN_08002c60(void)
ram:08004f48    cfe7            b           LAB_08004eea                            
                            LAB_08004f4a:                 ;XREF[1,0]:   08004eee
ram:08004f4a    00bf            nop                                                  
ram:08004f4c    d2e7            b           LAB_08004ef4                            
                            LAB_08004f4e:                 ;XREF[2,0]:   08004f2c,08004f30
ram:08004f4e    0320            movs        r0,#0x3                                 
ram:08004f50    0549            ldr         r1,[DAT_08004f68]                       ;= 48000400h
ram:08004f52    0006            lsls        r0,r0,#0x18                             
ram:08004f54    8861            str         r0,[r1,#offset DAT_48000418 &0xff]      
ram:08004f56    a9e6            b           LAB_08004cac                            
                            ;************************************************************************************************
                            ;*                                           FUNCTION                                           *
                            ;************************************************************************************************
                            ;undefined FUN_08004f58(undefined4 param_1)
          ;param_1       undefined4          r0                      
                                                          ;XREF[11,0]:  08001494,080014b8,08001540,0800163a
                                                          ;             080016ba,080016d8,080016fa,0800171c
                                                          ;             0800173e,08001b16,08001c00
ram:08004f58    0449            ldr         r1,[DAT_08004f6c]                       ;= 20000220h
ram:08004f5a    0860            str         param_1,[r1,#0x0]=>DAT_20000220         
ram:08004f5c    7047            bx          lr                                      
ram:08004f5e    0000            movs        r0,r0                                   
                            DAT_08004f60:                 ;XREF[1,0]:   08004ebc
ram:08004f60    a2010020        undefined4  200001A2h                               
                            DAT_08004f64:                 ;XREF[1,0]:   08004f20
ram:08004f64    b2040020        undefined4  200004B2h                               
                            DAT_08004f68:                 ;XREF[2,0]:   08004f34,08004f50
ram:08004f68    00040048        undefined4  48000400h                               
                            DAT_08004f6c:                 ;XREF[1,0]:   08004f58
ram:08004f6c    20020020        undefined4  20000220h                               
                            ;************************************************************************************************
                            ;*                                           FUNCTION                                           *
                            ;************************************************************************************************
                            ;undefined FUN_08004f70(void)
          ;local_10      undefined4         -10                      ;XREF[1,0]:   08004ffe
                                                          ;XREF[2,0]:   08004dd0,08004eae
ram:08004f70    78b4            push        {r3,r4,r5,r6}                           
ram:08004f72    0120            movs        r0,#0x1                                 
ram:08004f74    4e4e            ldr         r6,[DAT_080050b0]                       ;= 48000400h
ram:08004f76    0003            lsls        r0,r0,#0xc                              
ram:08004f78    b061            str         r0,[r6,#offset DAT_48000418 &0xff]      
ram:08004f7a    4e49            ldr         r1,[DAT_080050b4]                       ;= 200004A4h
ram:08004f7c    0022            movs        r2,#0x0                                 
ram:08004f7e    4e48            ldr         r0,[DAT_080050b8]                       ;= 2000020Ch
ram:08004f80    0a70            strb        r2,[r1,#0x0]=>DAT_200004a4              
ram:08004f82    4468            ldr         r4,[r0,#0x4]=>DAT_20000210              
ram:08004f84    0b46            mov         r3,r1                                   
ram:08004f86    5c70            strb        r4,[r3,#0x1]=>DAT_200004a5              
ram:08004f88    250a            lsrs        r5,r4,#0x8                              
ram:08004f8a    9d70            strb        r5,[r3,#0x2]=>DAT_200004a6              
ram:08004f8c    250c            lsrs        r5,r4,#0x10                             
ram:08004f8e    dd70            strb        r5,[r3,#0x3]=>DAT_200004a7              
ram:08004f90    240e            lsrs        r4,r4,#0x18                             
ram:08004f92    1c71            strb        r4,[r3,#0x4]=>DAT_200004a8              
ram:08004f94    8468            ldr         r4,[r0,#0x8]=>DAT_20000214              
ram:08004f96    5c71            strb        r4,[r3,#0x5]=>DAT_200004a9              
ram:08004f98    250a            lsrs        r5,r4,#0x8                              
ram:08004f9a    9d71            strb        r5,[r3,#0x6]=>DAT_200004aa              
ram:08004f9c    250c            lsrs        r5,r4,#0x10                             
ram:08004f9e    dd71            strb        r5,[r3,#0x7]=>DAT_200004ab              
ram:08004fa0    240e            lsrs        r4,r4,#0x18                             
ram:08004fa2    1c72            strb        r4,[r3,#0x8]=>DAT_200004ac              
ram:08004fa4    037b            ldrb        r3,[r0,#0xc]=>DAT_20000218              
ram:08004fa6    4b72            strb        r3,[r1,#0x9]=>DAT_200004ad              
ram:08004fa8    037d            ldrb        r3,[r0,#0x14]=>DAT_20000220             
ram:08004faa    8b72            strb        r3,[r1,#0xa]=>DAT_200004ae              
ram:08004fac    4261            str         r2,[r0,#0x14]=>DAT_20000220             
ram:08004fae    cb7a            ldrb        r3,[r1,#0xb]=>DAT_200004af              
ram:08004fb0    047e            ldrb        r4,[r0,#0x18]=>DAT_20000224             
ram:08004fb2    9b09            lsrs        r3,r3,#0x6                              
ram:08004fb4    a406            lsls        r4,r4,#0x1a                             
ram:08004fb6    9b01            lsls        r3,r3,#0x6                              
ram:08004fb8    a40e            lsrs        r4,r4,#0x1a                             
ram:08004fba    8261            str         r2,[r0,#0x18]=>DAT_20000224             
ram:08004fbc    2343            orrs        r3,r4                                   
ram:08004fbe    bf22            movs        r2,#0xbf                                
ram:08004fc0    1340            ands        r3,r2                                   
ram:08004fc2    3e4a            ldr         r2,[DAT_080050bc]                       ;= 20000204h
ram:08004fc4    1278            ldrb        r2,[r2,#0x0]=>DAT_20000204              
ram:08004fc6    d207            lsls        r2,r2,#0x1f                             
ram:08004fc8    520e            lsrs        r2,r2,#0x19                             
ram:08004fca    1343            orrs        r3,r2                                   
ram:08004fcc    3c4a            ldr         r2,[DAT_080050c0]                       ;= 20000170h
ram:08004fce    cb72            strb        r3,[r1,#0xb]=>DAT_200004af              
ram:08004fd0    1268            ldr         r2,[r2,#0x0]=>DAT_20000170              
ram:08004fd2    002a            cmp         r2,#0x0                                 
ram:08004fd4    28d0            beq         LAB_08005028                            
ram:08004fd6    5b06            lsls        r3,r3,#0x19                             
ram:08004fd8    5b0e            lsrs        r3,r3,#0x19                             
                            LAB_08004fda:                 ;XREF[1,0]:   0800502c
ram:08004fda    cb72            strb        r3,[r1,#0xb]=>DAT_200004af              
ram:08004fdc    007c            ldrb        r0,[r0,#0x10]=>DAT_2000021c             
ram:08004fde    0873            strb        r0,[r1,#0xc]=>DAT_200004b0              
ram:08004fe0    3848            ldr         r0,[DAT_080050c4]                       ;= 40013000h
ram:08004fe2    5c22            movs        r2,#0x5c                                
ram:08004fe4    0280            strh        r2,[r0,#0x0]=>DAT_40013000              
ram:08004fe6    6122            movs        r2,#0x61                                
ram:08004fe8    374b            ldr         r3,[DAT_080050c8]                       ;= 40020000h
ram:08004fea    d201            lsls        r2,r2,#0x7                              
ram:08004fec    da61            str         r2,[r3,#offset DAT_4002001c &0xff]      
ram:08004fee    9022            movs        r2,#0x90                                
ram:08004ff0    1a63            str         r2,[r3,#offset DAT_40020030 &0xff]      
ram:08004ff2    da02            lsls        r2,r3,#0xb                              
ram:08004ff4    b261            str         r2,[r6,#offset DAT_48000418 &0xff]      
ram:08004ff6    0289            ldrh        r2,[r0,#offset DAT_40013008 &0xff]      
ram:08004ff8    d207            lsls        r2,r2,#0x1f                             
ram:08004ffa    04d0            beq         LAB_08005006                            
                            LAB_08004ffc:                 ;XREF[1,0]:   08005004
ram:08004ffc    027b            ldrb        r2,[r0,#offset DAT_4001300c &0xff]      
ram:08004ffe    0092            str         r2,[sp,#0x0]=>local_10                  
ram:08005000    0289            ldrh        r2,[r0,#offset DAT_40013008 &0xff]      
ram:08005002    d207            lsls        r2,r2,#0x1f                             
ram:08005004    fad1            bne         LAB_08004ffc                            
                            LAB_08005006:                 ;XREF[1,0]:   08004ffa
ram:08005006    0e20            movs        r0,#0xe                                 
ram:08005008    1862            str         r0,[r3,#offset DAT_40020020 &0xff]      
ram:0800500a    304a            ldr         r2,[DAT_080050cc]                       ;= 4001300Ch
ram:0800500c    5a62            str         r2=>DAT_4001300c,[r3,#offset DAT_4002...
ram:0800500e    304c            ldr         r4,[DAT_080050d0]                       ;= 200004B2h
ram:08005010    9c62            str         r4=>DAT_200004b2,[r3,#offset DAT_4002...
ram:08005012    2024            movs        r4,#0x20                                
ram:08005014    5c60            str         r4,[r3,#offset DAT_40020004 &0xff]      
ram:08005016    2f4c            ldr         r4,[DAT_080050d4]                       ;= 00003081h
ram:08005018    dc61            str         r4,[r3,#offset DAT_4002001c &0xff]      
ram:0800501a    5863            str         r0,[r3,#offset DAT_40020034 &0xff]      
ram:0800501c    9a63            str         r2=>DAT_4001300c,[r3,#offset DAT_4002...
ram:0800501e    d963            str         r1=>DAT_200004a4,[r3,#offset DAT_4002...
ram:08005020    9120            movs        r0,#0x91                                
ram:08005022    1863            str         r0,[r3,#offset DAT_40020030 &0xff]      
ram:08005024    78bc            pop         {r3,r4,r5,r6}                           
ram:08005026    7047            bx          lr                                      
                            LAB_08005028:                 ;XREF[1,0]:   08004fd4
ram:08005028    8022            movs        r2,#0x80                                
ram:0800502a    1343            orrs        r3,r2                                   
ram:0800502c    d5e7            b           LAB_08004fda                            
                            ;************************************************************************************************
                            ;*                                           FUNCTION                                           *
                            ;************************************************************************************************
                            ;undefined4 FUN_0800502e(void)
                                                          ;XREF[3,0]:   08004cb8,08004d9e,08004dd8
ram:0800502e    2648            ldr         r0,[DAT_080050c8]                       ;= 40020000h
ram:08005030    c169            ldr         r1,[r0,#offset DAT_4002001c &0xff]      
ram:08005032    c907            lsls        r1,r1,#0x1f                             
ram:08005034    17d0            beq         LAB_08005066                            
ram:08005036    016b            ldr         r1,[r0,#offset DAT_40020030 &0xff]      
ram:08005038    c907            lsls        r1,r1,#0x1f                             
ram:0800503a    14d0            beq         LAB_08005066                            
ram:0800503c    0168            ldr         r1,[r0,#0x0]=>DAT_40020000              
ram:0800503e    8906            lsls        r1,r1,#0x1a                             
ram:08005040    34d5            bpl         LAB_080050ac                            
ram:08005042    1b4a            ldr         r2,[DAT_080050b0]                       ;= 48000400h
ram:08005044    8114            asrs        r1,r0,#0x12                             
ram:08005046    9161            str         r1,[r2,#offset DAT_48000418 &0xff]      
ram:08005048    6121            movs        r1,#0x61                                
ram:0800504a    c901            lsls        r1,r1,#0x7                              
ram:0800504c    c161            str         r1,[r0,#offset DAT_4002001c &0xff]      
ram:0800504e    9021            movs        r1,#0x90                                
ram:08005050    0163            str         r1,[r0,#offset DAT_40020030 &0xff]      
ram:08005052    1c49            ldr         r1,[DAT_080050c4]                       ;= 40013000h
ram:08005054    1c20            movs        r0,#0x1c                                
ram:08005056    0880            strh        r0,[r1,#0x0]=>DAT_40013000              
ram:08005058    1d48            ldr         r0,[DAT_080050d0]                       ;= 200004B2h
ram:0800505a    0178            ldrb        r1,[r0,#0x0]=>DAT_200004b2              
ram:0800505c    0029            cmp         r1,#0x0                                 
ram:0800505e    05d0            beq         LAB_0800506c                            
ram:08005060    0129            cmp         r1,#0x1                                 
ram:08005062    12d0            beq         LAB_0800508a                            
ram:08005064    1fe0            b           LAB_080050a6                            
                            LAB_08005066:                 ;XREF[2,0]:   08005034,0800503a
ram:08005066    0120            movs        r0,#0x1                                 
ram:08005068    c043            mvns        r0,r0                                   
ram:0800506a    7047            bx          lr                                      
                            LAB_0800506c:                 ;XREF[1,0]:   0800505e
ram:0800506c    1a49            ldr         r1,[DAT_080050d8]                       ;= 200004B3h
ram:0800506e    0a78            ldrb        r2,[r1,#0x0]=>DAT_200004b3              
ram:08005070    1046            mov         r0,r2                                   
ram:08005072    4a78            ldrb        r2,[r1,#0x1]=>DAT_200004b4              
ram:08005074    1202            lsls        r2,r2,#0x8                              
ram:08005076    1043            orrs        r0,r2                                   
ram:08005078    8a78            ldrb        r2,[r1,#0x2]=>DAT_200004b5              
ram:0800507a    c978            ldrb        r1,[r1,#0x3]=>DAT_200004b6              
ram:0800507c    1204            lsls        r2,r2,#0x10                             
ram:0800507e    1043            orrs        r0,r2                                   
ram:08005080    0906            lsls        r1,r1,#0x18                             
ram:08005082    0843            orrs        r0,r1                                   
ram:08005084    0c49            ldr         r1,[DAT_080050b8]                       ;= 2000020Ch
ram:08005086    0860            str         r0,[r1,#0x0]=>DAT_2000020c              
ram:08005088    0de0            b           LAB_080050a6                            
                            LAB_0800508a:                 ;XREF[1,0]:   08005062
ram:0800508a    c078            ldrb        r0,[r0,#0x3]=>DAT_200004b5              
ram:0800508c    0028            cmp         r0,#0x0                                 
ram:0800508e    0ad0            beq         LAB_080050a6                            
ram:08005090    0528            cmp         r0,#0x5                                 
ram:08005092    08d0            beq         LAB_080050a6                            
ram:08005094    bff34f8f        dsb         0xf                                     
ram:08005098    1149            ldr         r1,[DAT_080050e0]                       ;= E000ED00h
ram:0800509a    1048            ldr         r0,[DAT_080050dc]                       ;= 05FA0004h
ram:0800509c    c860            str         r0,[r1,#offset DAT_e000ed0c &0xff]      
ram:0800509e    bff34f8f        dsb         0xf                                     
                            LAB_080050a2:                 ;XREF[1,0]:   080050a4
ram:080050a2    00bf            nop                                                  
ram:080050a4    fde7            b           LAB_080050a2                            
                            LAB_080050a6:                 ;XREF[4,0]:   08005064,08005088,0800508e,08005092
ram:080050a6    0020            movs        r0,#0x0                                 
ram:080050a8    c043            mvns        r0,r0                                   
ram:080050aa    7047            bx          lr                                      
                            LAB_080050ac:                 ;XREF[1,0]:   08005040
ram:080050ac    0020            movs        r0,#0x0                                 
ram:080050ae    7047            bx          lr                                      
                            DAT_080050b0:                 ;XREF[2,0]:   08004f74,08005042
ram:080050b0    00040048        undefined4  48000400h                               
                            DAT_080050b4:                 ;XREF[1,0]:   08004f7a
ram:080050b4    a4040020        undefined4  200004A4h                               
                            DAT_080050b8:                 ;XREF[2,0]:   08004f7e,08005084
ram:080050b8    0c020020        undefined4  2000020Ch                               
                            DAT_080050bc:                 ;XREF[1,0]:   08004fc2
ram:080050bc    04020020        undefined4  20000204h                               
                            DAT_080050c0:                 ;XREF[1,0]:   08004fcc
ram:080050c0    70010020        undefined4  20000170h                               
                            DAT_080050c4:                 ;XREF[2,0]:   08004fe0,08005052
ram:080050c4    00300140        undefined4  40013000h                               
                            DAT_080050c8:                 ;XREF[2,0]:   08004fe8,0800502e
ram:080050c8    00000240        undefined4  40020000h                               
                            DAT_080050cc:                 ;XREF[1,0]:   0800500a
ram:080050cc    0c300140        undefined4  4001300Ch                               
                            DAT_080050d0:                 ;XREF[2,0]:   0800500e,08005058
ram:080050d0    b2040020        undefined4  200004B2h                               
                            DAT_080050d4:                 ;XREF[1,0]:   08005016
ram:080050d4    81300000        undefined4  00003081h                               
                            DAT_080050d8:                 ;XREF[1,0]:   0800506c
ram:080050d8    b3040020        undefined4  200004B3h                               
                            DAT_080050dc:                 ;XREF[1,0]:   0800509a
ram:080050dc    0400fa05        undefined4  05FA0004h                               
                            DAT_080050e0:                 ;XREF[1,0]:   08005098
ram:080050e0    00ed00e0        undefined4  E000ED00h                               
                            ;************************************************************************************************
                            ;*                                           FUNCTION                                           *
                            ;************************************************************************************************
                            ;undefined FUNC_Reset_080050e4(void)
                                                          ;XREF[0,1]:   08000c14
ram:080050e4    0c48            ldr         r0,[DAT_08005118]                       ;= 200008C0h
ram:080050e6    80f30888        msr         msp,r0                                  
ram:080050ea    0c48            ldr         r0,[DAT_0800511c]                       ;= 00000004h
ram:080050ec    0168            ldr         r1,[r0,#0x0]=>DAT_00000004              
ram:080050ee    090e            lsrs        r1,r1,#0x18                             
ram:080050f0    0b4a            ldr         r2,[DAT_08005120]                       ;= 0000001Fh
ram:080050f2    9142            cmp         r1,r2                                   
ram:080050f4    05d1            bne         LAB_08005102                            
ram:080050f6    0b48            ldr         r0,[DAT_08005124]                       ;= 40021018h
ram:080050f8    0b49            ldr         r1,[DAT_08005128]                       ;= 00000001h
ram:080050fa    0160            str         r1,[r0,#0x0]=>DAT_40021018              
ram:080050fc    0b48            ldr         r0,[DAT_0800512c]                       ;= 40010000h
ram:080050fe    0c49            ldr         r1,[DAT_08005130]                       
ram:08005100    0160            str         r1,[r0,#0x0]=>DAT_40010000              
                            LAB_08005102:                 ;XREF[1,0]:   080050f4
ram:08005102    0c48            ldr         r0,[DAT_08005134]                       ;= 0800513Dh
ram:08005104    8047            blx         r0=>FUN_0800513c                        ;undefined FUN_0800513c(void)
ram:08005106    0c48            ldr         r0,[DAT_08005138]                       ;= 08000CC5h
ram:08005108    0047            bx          r0=>FUN_08000cc4                        ;undefined FUN_08000cc4(undefined4 pa...
                            ;************************************************************************************************
                            ;*                                           FUNCTION                                           *
                            ;************************************************************************************************
                            ;undefined FUNC_NMI_0800510a(void)
                                                          ;XREF[1,1]:   0800510a,08000c18
ram:0800510a    fee7            b           FUNC_NMI_0800510a                       
                            ;************************************************************************************************
                            ;*                                           FUNCTION                                           *
                            ;************************************************************************************************
                            ;undefined FUNC_HardFault_0800510c(void)
                                                          ;XREF[1,1]:   0800510c,08000c1c
ram:0800510c    fee7            b           FUNC_HardFault_0800510c                 
                            ;************************************************************************************************
                            ;*                                           FUNCTION                                           *
                            ;************************************************************************************************
                            ;undefined FUNC_SVCall_0800510e(void)
                                                          ;XREF[1,1]:   0800510e,08000c3c
ram:0800510e    fee7            b           FUNC_SVCall_0800510e                    
                            ;************************************************************************************************
                            ;*                                           FUNCTION                                           *
                            ;************************************************************************************************
                            ;undefined FUNC_PendSV_08005110(void)
                                                          ;XREF[1,1]:   08005110,08000c48
ram:08005110    fee7            b           FUNC_PendSV_08005110                    
                            ;************************************************************************************************
                            ;*                                           FUNCTION                                           *
                            ;************************************************************************************************
                            ;undefined FUN_08005112(void)
                                                          ;XREF[1,0]:   08005112
ram:08005112    fee7            b           FUN_08005112                            
                            ;************************************************************************************************
                            ;*                                           FUNCTION                                           *
                            ;************************************************************************************************
                            ;undefined FUNC_IRQ_08005114(void)
                                                          ;XREF[1,22]:  08005114,08000c50,08000c58,08000c5c
                                                          ;             08000c60,08000c64,08000c68,08000c6c
                                                          ;             08000c74,08000c78,08000c7c,08000c80
                                                          ;             08000c84,08000c88,08000c9c,08000ca0
                                                          ;             08000ca4,08000ca8,08000cac,08000cb0
                                                          ;             08000cb4,08000cb8,08000cc0
ram:08005114    fee7            b           FUNC_IRQ_08005114                       
ram:08005116    0000            movs        r0,r0                                   
                            DAT_08005118:                 ;XREF[1,0]:   080050e4
ram:08005118    c0080020        undefined4  200008C0h                               
                            DAT_0800511c:                 ;XREF[1,0]:   080050ea
ram:0800511c    04000000        undefined4  00000004h                               
                            DAT_08005120:                 ;XREF[1,0]:   080050f0
ram:08005120    1f000000        undefined4  0000001Fh                               
                            DAT_08005124:                 ;XREF[1,0]:   080050f6
ram:08005124    18100240        undefined4  40021018h                               
                            DAT_08005128:                 ;XREF[1,0]:   080050f8
ram:08005128    01000000        undefined4  00000001h                               
                            DAT_0800512c:                 ;XREF[1,0]:   080050fc
ram:0800512c    00000140        undefined4  40010000h                               
                            DAT_08005130:                 ;XREF[1,0]:   080050fe
ram:08005130    00000000        undefined4  00000000h                               
                            DAT_08005134:                 ;XREF[1,0]:   08005102
ram:08005134    3d510008        undefined4  0800513Dh                               ;?  ->  0800513d
                            DAT_08005138:                 ;XREF[1,0]:   08005106
ram:08005138    c50c0008        undefined4  08000CC5h                               ;?  ->  08000cc5
                            ;************************************************************************************************
                            ;*                                           FUNCTION                                           *
                            ;************************************************************************************************
                            ;undefined FUN_0800513c(void)
          ;local_c       undefined4          -c                      ;XREF[4,0]:   08005188,080051a0,080051a4,080051ac
          ;local_10      undefined4         -10                      ;XREF[5,0]:   0800518a,0800519e,080051a6,080051bc,0800520c
                                                          ;XREF[1,0]:   08005104
ram:0800513c    30b4            push        {r4,r5}                                 
ram:0800513e    4c48            ldr         r0=>DAT_40021000,[DAT_08005270]         ;= 40021000h
ram:08005140    82b0            sub         sp,#0x8                                 
ram:08005142    0168            ldr         r1,[r0,#0x0]=>DAT_40021000              
ram:08005144    0124            movs        r4,#0x1                                 
ram:08005146    2143            orrs        r1,r4                                   
ram:08005148    0160            str         r1,[r0,#0x0]=>DAT_40021000              
ram:0800514a    4168            ldr         r1,[r0,#offset DAT_40021004 &0xff]      
ram:0800514c    494a            ldr         r2,[DAT_08005274]                       ;= 08FFB80Ch
ram:0800514e    1140            ands        r1,r2                                   
ram:08005150    4160            str         r1,[r0,#offset DAT_40021004 &0xff]      
ram:08005152    0168            ldr         r1,[r0,#0x0]=>DAT_40021000              
ram:08005154    484a            ldr         r2,[DAT_08005278]                       ;= FEF6FFFFh
ram:08005156    1140            ands        r1,r2                                   
ram:08005158    0160            str         r1,[r0,#0x0]=>DAT_40021000              
ram:0800515a    0168            ldr         r1,[r0,#0x0]=>DAT_40021000              
ram:0800515c    a204            lsls        r2,r4,#0x12                             
ram:0800515e    9143            bics        r1,r2                                   
ram:08005160    0160            str         r1,[r0,#0x0]=>DAT_40021000              
ram:08005162    4168            ldr         r1,[r0,#offset DAT_40021004 &0xff]      
ram:08005164    3f22            movs        r2,#0x3f                                
ram:08005166    1204            lsls        r2,r2,#0x10                             
ram:08005168    9143            bics        r1,r2                                   
ram:0800516a    4160            str         r1,[r0,#offset DAT_40021004 &0xff]      
ram:0800516c    c16a            ldr         r1,[r0,#offset DAT_4002102c &0xff]      
ram:0800516e    0909            lsrs        r1,r1,#0x4                              
ram:08005170    0901            lsls        r1,r1,#0x4                              
ram:08005172    c162            str         r1,[r0,#offset DAT_4002102c &0xff]      
ram:08005174    016b            ldr         r1,[r0,#offset DAT_40021030 &0xff]      
ram:08005176    ff22            movs        r2,#0xff                                
ram:08005178    5432            adds        r2,#0x54                                
ram:0800517a    9143            bics        r1,r2                                   
ram:0800517c    0163            str         r1,[r0,#offset DAT_40021030 &0xff]      
ram:0800517e    416b            ldr         r1,[r0,#offset DAT_40021034 &0xff]      
ram:08005180    a143            bics        r1,r4                                   
ram:08005182    4163            str         r1,[r0,#offset DAT_40021034 &0xff]      
ram:08005184    0023            movs        r3,#0x0                                 
ram:08005186    8360            str         r3,[r0,#offset DAT_40021008 &0xff]      
ram:08005188    0193            str         r3,[sp,#local_c+0x10]                   
ram:0800518a    0093            str         r3,[sp,#0x0]=>local_10                  
ram:0800518c    0168            ldr         r1,[r0,#0x0]=>DAT_40021000              
ram:0800518e    2204            lsls        r2,r4,#0x10                             
ram:08005190    1143            orrs        r1,r2                                   
ram:08005192    0160            str         r1,[r0,#0x0]=>DAT_40021000              
ram:08005194    5200            lsls        r2,r2,#0x1                              
ram:08005196    0525            movs        r5,#0x5                                 
ram:08005198    2d03            lsls        r5,r5,#0xc                              
                            LAB_0800519a:                 ;XREF[1,0]:   080051b0
ram:0800519a    0168            ldr         r1,[r0,#0x0]=>DAT_40021000              
ram:0800519c    1140            ands        r1,r2                                   
ram:0800519e    0091            str         r1,[sp,#0x0]=>local_10                  
ram:080051a0    0199            ldr         r1,[sp,#local_c+0x10]                   
ram:080051a2    491c            adds        r1,r1,#0x1                              
ram:080051a4    0191            str         r1,[sp,#local_c+0x10]                   
ram:080051a6    0099            ldr         r1,[sp,#0x0]=>local_10                  
ram:080051a8    0029            cmp         r1,#0x0                                 
ram:080051aa    02d1            bne         LAB_080051b2                            
ram:080051ac    0199            ldr         r1,[sp,#local_c+0x10]                   
ram:080051ae    a942            cmp         r1,r5                                   
ram:080051b0    f3d1            bne         LAB_0800519a                            
                            LAB_080051b2:                 ;XREF[1,0]:   080051aa
ram:080051b2    0168            ldr         r1,[r0,#0x0]=>DAT_40021000              
ram:080051b4    8903            lsls        r1,r1,#0xe                              
ram:080051b6    29d5            bpl         LAB_0800520c                            
ram:080051b8    304a            ldr         r2,[DAT_0800527c]                       ;= 40022000h
ram:080051ba    1121            movs        r1,#0x11                                
ram:080051bc    0094            str         r4,[sp,#0x0]=>local_10                  
ram:080051be    1160            str         r1,[r2,#0x0]=>DAT_40022000              
ram:080051c0    4168            ldr         r1,[r0,#offset DAT_40021004 &0xff]      
ram:080051c2    4160            str         r1,[r0,#offset DAT_40021004 &0xff]      
ram:080051c4    4168            ldr         r1,[r0,#offset DAT_40021004 &0xff]      
ram:080051c6    4160            str         r1,[r0,#offset DAT_40021004 &0xff]      
ram:080051c8    4168            ldr         r1,[r0,#offset DAT_40021004 &0xff]      
ram:080051ca    7f22            movs        r2,#0x7f                                
ram:080051cc    d203            lsls        r2,r2,#0xf                              
ram:080051ce    9143            bics        r1,r2                                   
ram:080051d0    4160            str         r1,[r0,#offset DAT_40021004 &0xff]      
ram:080051d2    4168            ldr         r1,[r0,#offset DAT_40021004 &0xff]      
ram:080051d4    1122            movs        r2,#0x11                                
ram:080051d6    1204            lsls        r2,r2,#0x10                             
ram:080051d8    1143            orrs        r1,r2                                   
ram:080051da    4160            str         r1,[r0,#offset DAT_40021004 &0xff]      
ram:080051dc    0168            ldr         r1,[r0,#0x0]=>DAT_40021000              
ram:080051de    0122            movs        r2,#0x1                                 
ram:080051e0    1206            lsls        r2,r2,#0x18                             
ram:080051e2    1143            orrs        r1,r2                                   
ram:080051e4    0160            str         r1,[r0,#0x0]=>DAT_40021000              
                            LAB_080051e6:                 ;XREF[1,0]:   080051ea
ram:080051e6    0168            ldr         r1,[r0,#0x0]=>DAT_40021000              
ram:080051e8    8901            lsls        r1,r1,#0x6                              
ram:080051ea    fcd5            bpl         LAB_080051e6                            
ram:080051ec    4168            ldr         r1,[r0,#offset DAT_40021004 &0xff]      
ram:080051ee    8908            lsrs        r1,r1,#0x2                              
ram:080051f0    8900            lsls        r1,r1,#0x2                              
ram:080051f2    4160            str         r1,[r0,#offset DAT_40021004 &0xff]      
ram:080051f4    4168            ldr         r1,[r0,#offset DAT_40021004 &0xff]      
ram:080051f6    0222            movs        r2,#0x2                                 
ram:080051f8    1143            orrs        r1,r2                                   
ram:080051fa    4160            str         r1,[r0,#offset DAT_40021004 &0xff]      
                            LAB_080051fc:                 ;XREF[1,0]:   08005204
ram:080051fc    4168            ldr         r1,[r0,#offset DAT_40021004 &0xff]      
ram:080051fe    0907            lsls        r1,r1,#0x1c                             
ram:08005200    890f            lsrs        r1,r1,#0x1e                             
ram:08005202    0229            cmp         r1,#0x2                                 
ram:08005204    fad1            bne         LAB_080051fc                            
ram:08005206    02b0            add         sp,#0x8                                 
ram:08005208    30bc            pop         {r4,r5}                                 
ram:0800520a    7047            bx          lr                                      
                            LAB_0800520c:                 ;XREF[1,0]:   080051b6
ram:0800520c    0093            str         r3,[sp,#0x0]=>local_10                  
ram:0800520e    02b0            add         sp,#0x8                                 
ram:08005210    30bc            pop         {r4,r5}                                 
ram:08005212    7047            bx          lr                                      
                            ;************************************************************************************************
                            ;*                                           FUNCTION                                           *
                            ;************************************************************************************************
                            ;undefined FUN_08005214(void)
ram:08005214    70b5            push        {r4,r5,r6,lr}                           
ram:08005216    164d            ldr         r5,[DAT_08005270]                       ;= 40021000h
ram:08005218    6968            ldr         r1,[r5,#offset DAT_40021004 &0xff]      
ram:0800521a    0c20            movs        r0,#0xc                                 
ram:0800521c    0140            ands        r1,r0                                   
ram:0800521e    1848            ldr         r0,[DAT_08005280]                       ;= 007A1200h
ram:08005220    184c            ldr         r4,[DAT_08005284]                       ;= 20000228h
ram:08005222    03d0            beq         LAB_0800522c                            
ram:08005224    0429            cmp         r1,#0x4                                 
ram:08005226    01d0            beq         LAB_0800522c                            
ram:08005228    0829            cmp         r1,#0x8                                 
ram:0800522a    01d0            beq         LAB_08005230                            
                            LAB_0800522c:                 ;XREF[2,0]:   08005222,08005226
ram:0800522c    2060            str         r0,[r4,#0x0]=>DAT_20000228              
ram:0800522e    11e0            b           LAB_08005254                            
                            LAB_08005230:                 ;XREF[1,0]:   0800522a
ram:08005230    6a68            ldr         r2,[r5,#offset DAT_40021004 &0xff]      
ram:08005232    6968            ldr         r1,[r5,#offset DAT_40021004 &0xff]      
ram:08005234    0323            movs        r3,#0x3                                 
ram:08005236    9202            lsls        r2,r2,#0xa                              
ram:08005238    db03            lsls        r3,r3,#0xf                              
ram:0800523a    160f            lsrs        r6,r2,#0x1c                             
ram:0800523c    1940            ands        r1,r3                                   
ram:0800523e    b61c            adds        r6,r6,#0x2                              
ram:08005240    0029            cmp         r1,#0x0                                 
ram:08005242    10d0            beq         LAB_08005266                            
ram:08005244    e96a            ldr         r1,[r5,#offset DAT_4002102c &0xff]      
ram:08005246    0907            lsls        r1,r1,#0x1c                             
ram:08005248    090f            lsrs        r1,r1,#0x1c                             
ram:0800524a    491c            adds        r1,r1,#0x1                              
ram:0800524c    00f020f8        bl          FUN_08005290                            ;int FUN_08005290(uint param_1, uint ...
ram:08005250    7043            muls        r0,r6                                   
ram:08005252    2060            str         r0,[r4,#0x0]=>DAT_20000228              
                            LAB_08005254:                 ;XREF[2,0]:   0800522e,0800526c
ram:08005254    6868            ldr         r0,[r5,#offset DAT_40021004 &0xff]      
ram:08005256    0c49            ldr         r1,[DAT_08005288]                       ;= 2000022Ch
ram:08005258    0006            lsls        r0,r0,#0x18                             
ram:0800525a    000f            lsrs        r0,r0,#0x1c                             
ram:0800525c    085c            ldrb        r0,[r1,r0]                              
ram:0800525e    2168            ldr         r1,[r4,#0x0]=>DAT_20000228              
ram:08005260    c140            lsrs        r1,r0                                   
ram:08005262    2160            str         r1,[r4,#0x0]=>DAT_20000228              
ram:08005264    70bd            pop         {r4,r5,r6,pc}                           
                            LAB_08005266:                 ;XREF[1,0]:   08005242
ram:08005266    0948            ldr         r0,[DAT_0800528c]                       ;= 003D0900h
ram:08005268    4643            muls        r6,r0                                   
ram:0800526a    2660            str         r6,[r4,#0x0]=>DAT_20000228              
ram:0800526c    f2e7            b           LAB_08005254                            
ram:0800526e    0000            movs        r0,r0                                   
                            DAT_08005270:                 ;XREF[2,0]:   0800513e,08005216
ram:08005270    00100240        undefined4  40021000h                               
                            DAT_08005274:                 ;XREF[1,0]:   0800514c
ram:08005274    0cb8ff08        undefined4  08FFB80Ch                               
                            DAT_08005278:                 ;XREF[1,0]:   08005154
ram:08005278    fffff6fe        undefined4  FEF6FFFFh                               
                            DAT_0800527c:                 ;XREF[1,0]:   080051b8
ram:0800527c    00200240        undefined4  40022000h                               
                            DAT_08005280:                 ;XREF[1,0]:   0800521e
ram:08005280    00127a00        undefined4  007A1200h                               
                            DAT_08005284:                 ;XREF[1,0]:   08005220
ram:08005284    28020020        undefined4  20000228h                               
                            DAT_08005288:                 ;XREF[1,0]:   08005256
ram:08005288    2c020020        undefined4  2000022Ch                               
                            DAT_0800528c:                 ;XREF[1,0]:   08005266
ram:0800528c    00093d00        undefined4  003D0900h                               
                            ;************************************************************************************************
                            ;*                                           FUNCTION                                           *
                            ;************************************************************************************************
                            ;int FUN_08005290(uint param_1, uint param_2)
          ;param_1       uint                r0                      
          ;param_2       uint                r1                      
                                                          ;XREF[3,0]:   08002c38,0800524c,080052d2
ram:08005290    30b5            push        {r4,r5,lr}                              
ram:08005292    0b46            mov         r3,param_2                              
ram:08005294    0146            mov         param_2,param_1                         
ram:08005296    0020            movs        param_1,#0x0                            
ram:08005298    2022            movs        r2,#0x20                                
ram:0800529a    0124            movs        r4,#0x1                                 
ram:0800529c    09e0            b           LAB_080052b2                            
                            LAB_0800529e:                 ;XREF[1,0]:   080052b8
ram:0800529e    0d46            mov         r5,param_2                              
ram:080052a0    d540            lsrs        r5,r2                                   
ram:080052a2    9d42            cmp         r5,r3                                   
ram:080052a4    05d3            bcc         LAB_080052b2                            
ram:080052a6    1d46            mov         r5,r3                                   
ram:080052a8    9540            lsls        r5,r2                                   
ram:080052aa    491b            subs        param_2,param_2,r5                      
ram:080052ac    2546            mov         r5,r4                                   
ram:080052ae    9540            lsls        r5,r2                                   
ram:080052b0    4019            adds        param_1,param_1,r5                      
                            LAB_080052b2:                 ;XREF[2,0]:   0800529c,080052a4
ram:080052b2    1546            mov         r5,r2                                   
ram:080052b4    521e            subs        r2,r2,#0x1                              
ram:080052b6    002d            cmp         r5,#0x0                                 
ram:080052b8    f1dc            bgt         LAB_0800529e                            
ram:080052ba    30bd            pop         {r4,r5,pc}                              
                            ;************************************************************************************************
                            ;*                                           FUNCTION                                           *
                            ;************************************************************************************************
                            ;int FUN_080052bc(uint param_1, uint param_2)
          ;param_1       uint                r0                      
          ;param_2       uint                r1                      
                                                          ;XREF[2,0]:   08000e9c,08004d86
ram:080052bc    70b5            push        {r4,r5,r6,lr}                           
ram:080052be    0024            movs        r4,#0x0                                 
ram:080052c0    2546            mov         r5,r4                                   
ram:080052c2    0028            cmp         param_1,#0x0                            
ram:080052c4    01da            bge         LAB_080052ca                            
ram:080052c6    0124            movs        r4,#0x1                                 
ram:080052c8    4042            rsbs        param_1,param_1                         
                            LAB_080052ca:                 ;XREF[1,0]:   080052c4
ram:080052ca    0029            cmp         param_2,#0x0                            
ram:080052cc    01da            bge         LAB_080052d2                            
ram:080052ce    0125            movs        r5,#0x1                                 
ram:080052d0    4942            rsbs        param_2,param_2                         
                            LAB_080052d2:                 ;XREF[1,0]:   080052cc
ram:080052d2    fff7ddff        bl          FUN_08005290                            ;int FUN_08005290(uint param_1, uint ...
ram:080052d6    ac42            cmp         r4,r5                                   
ram:080052d8    00d0            beq         LAB_080052dc                            
ram:080052da    4042            rsbs        param_1,param_1                         
                            LAB_080052dc:                 ;XREF[1,0]:   080052d8
ram:080052dc    002c            cmp         r4,#0x0                                 
ram:080052de    00d0            beq         LAB_080052e2                            
ram:080052e0    4942            rsbs        param_2,param_2                         
                            LAB_080052e2:                 ;XREF[1,0]:   080052de
ram:080052e2    70bd            pop         {r4,r5,r6,pc}                           
                            ;************************************************************************************************
                            ;*                                           FUNCTION                                           *
                            ;************************************************************************************************
                            ;uint FUN_080052e4(void)
                                                          ;XREF[2,0]:   08000e96,08004d80
ram:080052e4    0549            ldr         r1,[DAT_080052fc]                       ;= 2000023Ch
ram:080052e6    064a            ldr         r2,[DAT_08005300]                       ;= 41C64E6Dh
ram:080052e8    0868            ldr         r0,[r1,#0x0]=>DAT_2000023c              
ram:080052ea    5043            muls        r0,r2                                   
ram:080052ec    054a            ldr         r2,[DAT_08005304]                       ;= 00003039h
ram:080052ee    8018            adds        r0,r0,r2                                
ram:080052f0    0860            str         r0,[r1,#0x0]=>DAT_2000023c              
ram:080052f2    4008            lsrs        r0,r0,#0x1                              
ram:080052f4    7047            bx          lr                                      
                            ;************************************************************************************************
                            ;*                                           FUNCTION                                           *
                            ;************************************************************************************************
                            ;undefined FUN_080052f6(undefined4 param_1)
          ;param_1       undefined4          r0                      
                                                          ;XREF[1,0]:   08004c92
ram:080052f6    0149            ldr         r1,[DAT_080052fc]                       ;= 2000023Ch
ram:080052f8    0860            str         param_1,[r1,#0x0]=>DAT_2000023c         
ram:080052fa    7047            bx          lr                                      
                            DAT_080052fc:                 ;XREF[2,0]:   080052e4,080052f6
ram:080052fc    3c020020        undefined4  2000023Ch                               
                            DAT_08005300:                 ;XREF[1,0]:   080052e6
ram:08005300    6d4ec641        undefined4  41C64E6Dh                               
                            DAT_08005304:                 ;XREF[1,0]:   080052ec
ram:08005304    39300000        undefined4  00003039h                               
                            ;************************************************************************************************
                            ;*                                           FUNCTION                                           *
                            ;************************************************************************************************
                            ;undefined FUN_08005308(int param_1, int param_2, uint param_3)
          ;param_1       int                 r0                      
          ;param_2       int                 r1                      
          ;param_3       uint                r2                      
                                                          ;XREF[1,0]:   080018b6
ram:08005308    30b5            push        {r4,r5,lr}                              
ram:0800530a    0446            mov         r4,param_1                              
ram:0800530c    0020            movs        param_1,#0x0                            
ram:0800530e    0346            mov         r3,param_1                              
ram:08005310    00e0            b           LAB_08005314                            
                            LAB_08005312:                 ;XREF[1,0]:   0800531e
ram:08005312    5b1c            adds        r3,r3,#0x1                              
                            LAB_08005314:                 ;XREF[1,0]:   08005310
ram:08005314    9342            cmp         r3,param_3                              
ram:08005316    03d2            bcs         LAB_08005320                            
ram:08005318    e05c            ldrb        param_1,[r4,r3]                         
ram:0800531a    cd5c            ldrb        r5,[param_2,r3]                         
ram:0800531c    401b            subs        param_1,param_1,r5                      
ram:0800531e    f8d0            beq         LAB_08005312                            
                            LAB_08005320:                 ;XREF[1,0]:   08005316
ram:08005320    30bd            pop         {r4,r5,pc}                              
ram:08005322    0000            movs        r0,r0                                   
                            ;************************************************************************************************
                            ;*                                           FUNCTION                                           *
                            ;************************************************************************************************
                            ;undefined FUN_08005324(undefined4 param_1, undefined4 param_2, undefined * param_3, uint param_4)
          ;param_1       undefined4          r0                      
          ;param_2       undefined4          r1                      
          ;param_3       undefined *         r2                      
          ;param_4       uint                r3                      
                                                          ;XREF[1,0]:   08000cc8
ram:08005324    064c            ldr         r4,[FUN_08005340]                       
ram:08005326    0125            movs        r5,#0x1                                 
ram:08005328    064e            ldr         r6,[LAB_08005344]                       
ram:0800532a    05e0            b           LAB_08005338                            
                            LAB_0800532c:                 ;XREF[1,0]:   0800533a
ram:0800532c    e368            ldr         param_4,[r4,#0xc]=>DAT_080054d8         ;= 08005348h
                                                          ; FWD[5,0]:   080054cc,080054d0,080054d4,080054ec
                                                          ;             200000c4
ram:0800532e    07cc            ldmia       r4!,{param_1,param_2,param_3}=>PTR_DA...;= 080054ec
                                                                                    ;= 200000C4h
                                                                                    ;= 00000180h
                                                                                    ;= 02h
ram:08005330    2b43            orrs        param_4,r5                              
ram:08005332    0c3c            subs        r4,#0xc                                 
ram:08005334    9847            blx         param_4=>FUN_08005348                   ;undefined FUN_08005348(byte * param_...
ram:08005336    1034            adds        r4,#0x10                                
                            LAB_08005338:                 ;XREF[1,0]:   0800532a
ram:08005338    b442            cmp         r4,r6                                   
ram:0800533a    f7d3            bcc         LAB_0800532c                            
ram:0800533c    fbf7c6fc        bl          thunk_FUN_08004a36                      ;undefined thunk_FUN_08004a36(void)
                            ;************************************************************************************************
                            ;*                                           FUNCTION                                           *
                            ;************************************************************************************************
                            ;undefined FUN_08005340(undefined4 param_1, byte * param_2, int param_3, int param_4)
          ;param_1       undefined4          r0                      
          ;param_2       byte *              r1                      
          ;param_3       int                 r2                      
          ;param_4       int                 r3                      
                                                          ;XREF[2,0]:   08005324,0800539c
ram:08005340    cc54            strb        r4,[param_2,param_4]                    
ram:08005342    0008            lsrs        param_1,param_1                         
                            LAB_08005344:                 ;XREF[1,0]:   08005328
ram:08005344    ec54            strb        r4,[r5,param_4]                         
ram:08005346    0008            lsrs        param_1,param_1                         
                            ;************************************************************************************************
                            ;*                                           FUNCTION                                           *
                            ;************************************************************************************************
                            ;undefined FUN_08005348(byte * param_1, byte * param_2, int param_3)
          ;param_1       byte *              r0                      
          ;param_2       byte *              r1                      
          ;param_3       int                 r2                      
                                                          ;XREF[1,0]:   08005334
                                                          ; FWD[2,0]:   080054cc,080054ec
ram:08005348    70b5            push        {r4,r5,r6,lr}=>DAT_080054ec             ;= 080054ec
                                                                                    ;= 02h
ram:0800534a    8c18            adds        r4,param_2,param_3                      
                            LAB_0800534c:                 ;XREF[1,0]:   08005398
ram:0800534c    0578            ldrb        r5,[param_1,#0x0]                       
ram:0800534e    401c            adds        param_1,param_1,#0x1                    
ram:08005350    6b07            lsls        r3,r5,#0x1d                             
ram:08005352    5b0f            lsrs        r3,r3,#0x1d                             
ram:08005354    01d1            bne         LAB_0800535a                            
ram:08005356    0378            ldrb        r3,[param_1,#0x0]                       
ram:08005358    401c            adds        param_1,param_1,#0x1                    
                            LAB_0800535a:                 ;XREF[1,0]:   08005354
ram:0800535a    2a11            asrs        param_3,r5,#0x4                         
ram:0800535c    06d1            bne         LAB_0800536c                            
ram:0800535e    0278            ldrb        param_3,[param_1,#0x0]                  
ram:08005360    401c            adds        param_1,param_1,#0x1                    
ram:08005362    03e0            b           LAB_0800536c                            
                            LAB_08005364:                 ;XREF[1,0]:   0800536e
ram:08005364    0678            ldrb        r6,[param_1,#0x0]                       
ram:08005366    0e70            strb        r6,[param_2,#0x0]                       
ram:08005368    401c            adds        param_1,param_1,#0x1                    
ram:0800536a    491c            adds        param_2,param_2,#0x1                    
                            LAB_0800536c:                 ;XREF[2,0]:   0800535c,08005362
ram:0800536c    5b1e            subs        r3,r3,#0x1                              
ram:0800536e    f9d1            bne         LAB_08005364                            
ram:08005370    2b07            lsls        r3,r5,#0x1c                             
ram:08005372    05d4            bmi         LAB_08005380                            
ram:08005374    0023            movs        r3,#0x0                                 
                            LAB_08005376:                 ;XREF[1,0]:   0800537e
ram:08005376    521e            subs        param_3,param_3,#0x1                    
ram:08005378    0dd4            bmi         LAB_08005396                            
ram:0800537a    0b70            strb        r3,[param_2,#0x0]                       
ram:0800537c    491c            adds        param_2,param_2,#0x1                    
ram:0800537e    fae7            b           LAB_08005376                            
                            LAB_08005380:                 ;XREF[1,0]:   08005372
ram:08005380    0378            ldrb        r3,[param_1,#0x0]                       
ram:08005382    401c            adds        param_1,param_1,#0x1                    
ram:08005384    cb1a            subs        r3,param_2,r3                           
ram:08005386    921c            adds        param_3,param_3,#0x2                    
ram:08005388    03e0            b           LAB_08005392                            
                            LAB_0800538a:                 ;XREF[1,0]:   08005394
ram:0800538a    1d78            ldrb        r5,[r3,#0x0]                            
ram:0800538c    0d70            strb        r5,[param_2,#0x0]                       
ram:0800538e    491c            adds        param_2,param_2,#0x1                    
ram:08005390    5b1c            adds        r3,r3,#0x1                              
                            LAB_08005392:                 ;XREF[1,0]:   08005388
ram:08005392    521e            subs        param_3,param_3,#0x1                    
ram:08005394    f9d5            bpl         LAB_0800538a                            
                            LAB_08005396:                 ;XREF[1,0]:   08005378
ram:08005396    a142            cmp         param_2,r4                              
ram:08005398    d8d3            bcc         LAB_0800534c                            
ram:0800539a    0020            movs        param_1,#0x0                            
ram:0800539c    70bd            pop         {r4,r5,r6,pc}=>FUN_08005340             
ram:0800539e    02e0            b           LAB_080053a6                            
                            ;************************************************************************************************
                            ;*                                           FUNCTION                                           *
                            ;************************************************************************************************
                            ;undefined FUN_080053a0(undefined4 * param_1, undefined4 * param_2, int param_3)
          ;param_1       undefined4 *        r0                      
          ;param_2       undefined4 *        r1                      
          ;param_3       int                 r2                      
                                                          ;XREF[1,0]:   080053a8
ram:080053a0    08c8            ldmia       param_1!,{r3}                           
ram:080053a2    121f            subs        param_3,param_3,#0x4                    
ram:080053a4    08c1            stmia       param_2!,{r3}                           
                            LAB_080053a6:                 ;XREF[1,0]:   0800539e
ram:080053a6    002a            cmp         param_3,#0x0                            
ram:080053a8    fad1            bne         FUN_080053a0                            
ram:080053aa    7047            bx          lr                                      
ram:080053ac    7047            bx          lr                                      
ram:080053ae    0020            movs        r0,#0x0                                 
ram:080053b0    01e0            b           LAB_080053b6                            
                            LAB_080053b2:                 ;XREF[1,0]:   080053b8
ram:080053b2    01c1            stmia       r1!,{r0}                                
ram:080053b4    121f            subs        r2,r2,#0x4                              
                            LAB_080053b6:                 ;XREF[1,0]:   080053b0
ram:080053b6    002a            cmp         r2,#0x0                                 
ram:080053b8    fbd1            bne         LAB_080053b2                            
ram:080053ba    7047            bx          lr                                      
                            LAB_080053bc:                 ;XREF[4,0]:   08001548,0800160c,0800164a,08001a10
ram:080053bc    cf0d            lsrs        r7,r1,#0x17                             
ram:080053be    3025            movs        r5,#0x30                                
ram:080053c0    0180            strh        r1,[r0,#0x0]                            
ram:080053c2    0180            strh        r1,[r0,#0x0]                            
ram:080053c4    131f            subs        r3,r2,#0x4                              
ram:080053c6    2413            asrs        r4,r4,#0xc                              
ram:080053c8    0180            strh        r1,[r0,#0x0]                            
ram:080053ca    0180            strh        r1,[r0,#0x0]                            
ram:080053cc    e015            asrs        r0,r4,#0x17                             
ram:080053ce    d426            movs        r6,#0xd4                                
ram:080053d0    0180            strh        r1,[r0,#0x0]                            
ram:080053d2    0180            strh        r1,[r0,#0x0]                            
ram:080053d4    f00a            lsrs        r0,r6,#0xb                              
ram:080053d6    0180            strh        r1,[r0,#0x0]                            
ram:080053d8    0180            strh        r1,[r0,#0x0]                            
ram:080053da    0180            strh        r1,[r0,#0x0]                            
ram:080053dc    403d            subs        r5,#0x40                                
ram:080053de    8c23            movs        r3,#0x8c                                
ram:080053e0    0180            strh        r1,[r0,#0x0]                            
ram:080053e2    0180            strh        r1,[r0,#0x0]                            
                            DAT_080053e4:                 ;XREF[3,0]:   08002422,08002430,08002492
ram:080053e4    00              undefined1  00h                                     
                            DAT_080053e8:                 ;XREF[2,0]:   0800250e,080025cc
                            DAT_080053f8:                 ;XREF[2,0]:   080023e0,08002458
ram:080053f8    00000000        undefined4  00000000h                               
                            DAT_08005410:                 ;XREF[2,0]:   080023ee,0800245c
ram:08005410    00001868        undefined4  68180000h                               
                            DAT_08005428:                 ;XREF[3,0]:   080026ee,080026fe,080027ac
                            DAT_08005438:                 ;XREF[3,0]:   080026f8,08002706,080027b0
                            DAT_08005448:                 ;XREF[3,0]:   0800271a,0800272a,080027c0
                            DAT_08005458:                 ;XREF[3,0]:   08002724,08002732,080027c4
                            DAT_08005468:                 ;XREF[2,0]:   080028f0,080029f4
ram:08005468    00000000        undefined4  00000000h                               
                            DAT_0800546c:                 ;XREF[1,0]:   0800291c
ram:0800546c    01000000        undefined4  00000001h                               
                            DAT_08005470:                 ;XREF[1,0]:   08002948
ram:08005470    03000000        undefined4  00000003h                               
                            DAT_08005474:                 ;XREF[1,0]:   08002976
ram:08005474    04000000        undefined4  00000004h                               
                            DAT_08005478:                 ;XREF[2,0]:   080028e4,080029f0
ram:08005478    02000000        undefined4  00000002h                               
                            DAT_0800547c:                 ;XREF[2,0]:   08002a08,08002df4
ram:0800547c    02000400        undefined4  00040002h                               
                            DAT_08005480:                 ;XREF[1,0]:   08002a06
ram:08005480    08001000        undefined4  00100008h                               
                            DAT_08005484:                 ;XREF[1,0]:   08002a10
ram:08005484    40008000        undefined4  00800040h                               
                            DAT_08005488:                 ;XREF[1,0]:   08002a0e
ram:08005488    01000200        undefined4  00020001h                               
                            DAT_0800548c:                 ;XREF[1,0]:   08002a18
ram:0800548c    00000048        undefined4  48000000h                               
                            DAT_08005490:                 ;XREF[1,0]:   08002a18
ram:08005490    00000048        undefined4  48000000h                               
                            DAT_08005494:                 ;XREF[1,0]:   08002a18
ram:08005494    00040048        undefined4  48000400h                               
                            DAT_08005498:                 ;XREF[1,0]:   08002a18
ram:08005498    00040048        undefined4  48000400h                               
                            DAT_0800549c:                 ;XREF[2,0]:   08003042,080030bc
ram:0800549c    02              undefined1  02h                                     
                            DAT_080054a5:                 ;XREF[3,0]:   08003052,08003088,080030c0
ram:080054a5    00              undefined1  00h                                     
                            DAT_080054ae:                 ;XREF[2,0]:   08003078,080030c4
ram:080054ae    05              undefined1  05h                                     
                            DAT_080054b7:                 ;XREF[3,0]:   0800300a,0800300a,080030b0
ram:080054b7    00              undefined1  00h                                     
                            DAT_080054c0:                 ;XREF[2,0]:   0800301a,080030b4
                            PTR_DAT_080054cc:             ;XREF[2,0]:   0800532e,08005348
ram:080054cc    ec540008        addr        DAT_080054ec                            ;= 02h
                            DAT_080054d0:                 ;XREF[1,0]:   0800532e
ram:080054d0    c4000020        undefined4  200000C4h                               
                            DAT_080054d4:                 ;XREF[1,0]:   0800532e
ram:080054d4    80010000        undefined4  00000180h                               
                            DAT_080054d8:                 ;XREF[1,0]:   0800532c
ram:080054d8    48530008        undefined4  08005348h                               ;?  ->  08005348
                            DAT_080054ec:                 ;XREF[3,0]:   0800532e,08005348,080054cc
