                            MasterStackPointer:           
ram:0001b000    00400020        addr        DAT_20004000                            
                            Reset:                        ;XREF[1,0]:   Entry Point
ram:0001b004    81f10100        addr        FUNC_Reset_0001f180+1                   
                            NMI:                          ;XREF[1,0]:   Entry Point
ram:0001b008    c1f10100        addr        FUNC_NMI_0001f1c0+1                     
                            HardFault:                    ;XREF[1,0]:   Entry Point
ram:0001b00c    c5b10100        addr        FUNC_HardFault_0001b1c4+1               
                            MemManage:                    ;XREF[1,0]:   Entry Point
ram:0001b010    00000000        addr        00000000                                
                            BusFault:                     ;XREF[1,0]:   Entry Point
ram:0001b014    00000000        addr        00000000                                
                            UsageFault:                   ;XREF[1,0]:   Entry Point
ram:0001b018    00000000        addr        00000000                                
                            Reserved1:                    ;XREF[1,0]:   Entry Point
ram:0001b01c    00000000        addr        00000000                                
                            Reserved2:                    ;XREF[1,0]:   Entry Point
ram:0001b020    00000000        addr        00000000                                
                            Reserved3:                    ;XREF[1,0]:   Entry Point
ram:0001b024    00000000        addr        00000000                                
                            Reserved5:                    ;XREF[1,0]:   Entry Point
                            Reserved6:                    
                            Reserved4:                    
ram:0001b028    00000000        addr        00000000                                
                            SVCall:                       ;XREF[1,0]:   Entry Point
ram:0001b02c    c5f10100        addr        FUNC_SVCall_0001f1c4+1                  
ram:0001b030    00000000        addr        00000000                                
ram:0001b034    00000000        addr        00000000                                
                            PendSV:                       ;XREF[1,0]:   Entry Point
ram:0001b038    c7f10100        addr        FUNC_PendSV_0001f1c6+1                  
                            SysTick:                      ;XREF[1,0]:   Entry Point
ram:0001b03c    c9f10100        addr        FUNC_SysTick_0001f1c8+1                 
                            IRQ:                          ;XREF[1,0]:   Entry Point
ram:0001b040    bdd80100        addr        FUNC_IRQ_0001d8bc+1                     
ram:0001b044    cbf10100        addr        FUNC_VT_0001f1ca+1                      
ram:0001b048    85e10100        addr        FUNC_VT_0001e184+1                      
ram:0001b04c    cbf10100        addr        FUNC_VT_0001f1ca+1                      
ram:0001b050    cbf10100        addr        FUNC_VT_0001f1ca+1                      
ram:0001b054    00000000        addr        00000000                                
ram:0001b058    25df0100        addr        FUNC_VT_0001df24+1                      
ram:0001b05c    cbf10100        addr        FUNC_VT_0001f1ca+1                      
ram:0001b060    cbf10100        addr        FUNC_VT_0001f1ca+1                      
ram:0001b064    cbf10100        addr        FUNC_VT_0001f1ca+1                      
ram:0001b068    cbf10100        addr        FUNC_VT_0001f1ca+1                      
ram:0001b06c    cbf10100        addr        FUNC_VT_0001f1ca+1                      
ram:0001b070    cbf10100        addr        FUNC_VT_0001f1ca+1                      
ram:0001b074    cbf10100        addr        FUNC_VT_0001f1ca+1                      
ram:0001b078    cbf10100        addr        FUNC_VT_0001f1ca+1                      
ram:0001b07c    cbf10100        addr        FUNC_VT_0001f1ca+1                      
ram:0001b080    cbf10100        addr        FUNC_VT_0001f1ca+1                      
ram:0001b084    c1e30100        addr        FUNC_VT_0001e3c0+1                      
ram:0001b088    cbf10100        addr        FUNC_VT_0001f1ca+1                      
ram:0001b08c    cbf10100        addr        FUNC_VT_0001f1ca+1                      
ram:0001b090    9de40100        addr        FUNC_VT_0001e49c+1                      
ram:0001b094    cbf10100        addr        FUNC_VT_0001f1ca+1                      
ram:0001b098    7df30100        addr        FUNC_VT_0001f37c+1                      
ram:0001b09c    cbf10100        addr        FUNC_VT_0001f1ca+1                      
ram:0001b0a0    cbf10100        addr        FUNC_VT_0001f1ca+1                      
ram:0001b0a4    cbf10100        addr        FUNC_VT_0001f1ca+1                      
ram:0001b0a8    00000000        addr        00000000                                
ram:0001b0ac    00000000        addr        00000000                                
ram:0001b0b0    00000000        addr        00000000                                
ram:0001b0b4    00000000        addr        00000000                                
ram:0001b0b8    00000000        addr        00000000                                
ram:0001b0bc    00              ??          00h                                     
ram:0001b0bd    00              ??          00h                                     
ram:0001b0be    00              ??          00h                                     
ram:0001b0bf    00              ??          00h                                     
                            ;************************************************************************************************
                            ;*                                           FUNCTION                                           *
                            ;************************************************************************************************
                            ;undefined * LAB_0001b0c0+1(undefined * param_1)
          ;param_1       undefined *         r0                      
                                                          ;XREF[0,1]:   0001f7ec
ram:0001b0c0    10b5            push        {r4,lr}                                 
ram:0001b0c2    064c            ldr         r4,[DAT_0001b0dc]                       ;= 200020A8h
ram:0001b0c4    2378            ldrb        r3,[r4,#0x0]=>DAT_200020a8              
ram:0001b0c6    002b            cmp         r3,#0x0                                 
ram:0001b0c8    07d1            bne         LAB_0001b0da                            
ram:0001b0ca    054b            ldr         r3,[DAT_0001b0e0]                       
ram:0001b0cc    002b            cmp         r3,#0x0                                 
ram:0001b0ce    02d0            beq         LAB_0001b0d6                            
ram:0001b0d0    0448            ldr         param_1=>DAT_0001f734,[PTR_DAT_0001b0e4];= 0001f734
ram:0001b0d2    00e0            b           LAB_0001b0d6                            
ram:0001b0d4    00bf            nop                                                  
                            LAB_0001b0d6:                 ;XREF[2,0]:   0001b0ce,0001b0d2
ram:0001b0d6    0123            movs        r3,#0x1                                 
ram:0001b0d8    2370            strb        r3,[r4,#0x0]=>DAT_200020a8              
                            LAB_0001b0da:                 ;XREF[1,0]:   0001b0c8
ram:0001b0da    10bd            pop         {r4,pc}                                 
                            DAT_0001b0dc:                 ;XREF[1,0]:   0001b0c2
ram:0001b0dc    a8200020        undefined4  200020A8h                               
                            DAT_0001b0e0:                 ;XREF[1,0]:   0001b0ca
ram:0001b0e0    00000000        undefined4  00000000h                               
                            PTR_DAT_0001b0e4:             ;XREF[1,0]:   0001b0d0
ram:0001b0e4    34f70100        addr        DAT_0001f734                            
                            ;************************************************************************************************
                            ;*                                           FUNCTION                                           *
                            ;************************************************************************************************
                            ;undefined8 LAB_0001b0e8+1(undefined * param_1, undefined4 param_2)
          ;param_1       undefined *         r0                      
          ;param_2       undefined4          r1                      
                                                          ;XREF[0,1]:   0001f7e8
ram:0001b0e8    044b            ldr         r3,[DAT_0001b0fc]                       
ram:0001b0ea    10b5            push        {r4,lr}                                 
ram:0001b0ec    002b            cmp         r3,#0x0                                 
ram:0001b0ee    03d0            beq         LAB_0001b0f8                            
ram:0001b0f0    0349            ldr         param_2,[DAT_0001b100]                  ;= 200020ACh
ram:0001b0f2    0448            ldr         param_1=>DAT_0001f734,[PTR_DAT_0001b104];= 0001f734
ram:0001b0f4    00e0            b           LAB_0001b0f8                            
ram:0001b0f6    00bf            nop                                                  
                            LAB_0001b0f8:                 ;XREF[2,0]:   0001b0ee,0001b0f4
ram:0001b0f8    10bd            pop         {r4,pc}                                 
ram:0001b0fa    c046            mov         r8,r8                                   
                            DAT_0001b0fc:                 ;XREF[1,0]:   0001b0e8
ram:0001b0fc    00000000        undefined4  00000000h                               
                            DAT_0001b100:                 ;XREF[1,0]:   0001b0f0
ram:0001b100    ac200020        undefined4  200020ACh                               
                            PTR_DAT_0001b104:             ;XREF[1,0]:   0001b0f2
ram:0001b104    34f70100        addr        DAT_0001f734                            
                            ;************************************************************************************************
                            ;*                                           FUNCTION                                           *
                            ;************************************************************************************************
                            ;undefined FUN_0001b108(void)
                                                          ;XREF[1,0]:   0001f1a8
ram:0001b108    164b            ldr         r3,[LAB_0001b164]                       
ram:0001b10a    002b            cmp         r3,#0x0                                 
ram:0001b10c    00d1            bne         LAB_0001b110                            
ram:0001b10e    144b            ldr         r3,[LAB_0001b160]                       
                            LAB_0001b110:                 ;XREF[1,0]:   0001b10c
ram:0001b110    9d46            mov         sp,r3                                   
ram:0001b112    4022            movs        r2,#0x40                                
ram:0001b114    9202            lsls        r2,r2,#0xa                              
ram:0001b116    9a1a            subs        r2,r3,r2                                
ram:0001b118    9246            mov         r10,r2                                  
ram:0001b11a    0021            movs        r1,#0x0                                 
ram:0001b11c    8b46            mov         r11,r1                                  
ram:0001b11e    0f46            mov         r7,r1                                   
ram:0001b120    1348            ldr         r0=>DAT_200020a8,[LAB_0001b170]         
ram:0001b122    144a            ldr         r2,[LAB_0001b174]                       
ram:0001b124    121a            subs        r2,r2,r0                                
ram:0001b126    04f0aaf9        bl          FUN_0001f47e                            ;undefined FUN_0001f47e(undefined * p...
ram:0001b12a    0f4b            ldr         r3,[LAB_0001b168]                       
ram:0001b12c    002b            cmp         r3,#0x0                                 
ram:0001b12e    00d0            beq         LAB_0001b132                            
ram:0001b130    9847            blx         r3                                      
                            LAB_0001b132:                 ;XREF[1,0]:   0001b12e
ram:0001b132    0e4b            ldr         r3,[LAB_0001b16c]                       
ram:0001b134    002b            cmp         r3,#0x0                                 
ram:0001b136    00d0            beq         LAB_0001b13a                            
ram:0001b138    9847            blx         r3                                      
                            LAB_0001b13a:                 ;XREF[1,0]:   0001b136
ram:0001b13a    0020            movs        r0,#0x0                                 
ram:0001b13c    0021            movs        r1,#0x0                                 
ram:0001b13e    0400            movs        r4,r0                                   
ram:0001b140    0d00            movs        r5,r1                                   
ram:0001b142    0d48            ldr         r0,[LAB_0001b178]                       
ram:0001b144    0028            cmp         r0,#0x0                                 
ram:0001b146    02d0            beq         LAB_0001b14e                            
ram:0001b148    0c48            ldr         r0,[LAB_0001b17c]                       
ram:0001b14a    00e0            b           LAB_0001b14e                            
ram:0001b14c    00bf            nop                                                  
                            LAB_0001b14e:                 ;XREF[2,0]:   0001b146,0001b14a
ram:0001b14e    04f069f9        bl          FUN_0001f424                            ;undefined FUN_0001f424(void)
ram:0001b152    2000            movs        r0,r4                                   
ram:0001b154    2900            movs        r1,r5                                   
ram:0001b156    00f039f8        bl          FUN_0001b1cc                            ;undefined FUN_0001b1cc(void)
ram:0001b15a    04f04df9        bl          FUN_0001f3f8                            ;undefined FUN_0001f3f8(undefined4 pa...
                            LAB_0001b15e:                 ;XREF[1,0]:   0001b19e
ram:0001b15e    c046            mov         r8,r8                                   
                            LAB_0001b160:                 ;XREF[1,0]:   0001b10e
ram:0001b160    0000            movs        r0,r0                                   
ram:0001b162    0800            movs        r0,r1                                   
                            LAB_0001b164:                 ;XREF[1,0]:   0001b108
ram:0001b164    0040            ands        r0,r0                                   
ram:0001b166    0020            movs        r0,#0x0                                 
                            LAB_0001b168:                 ;XREF[1,0]:   0001b12a
ram:0001b168    0000            movs        r0,r0                                   
ram:0001b16a    0000            movs        r0,r0                                   
                            LAB_0001b16c:                 ;XREF[1,0]:   0001b132
ram:0001b16c    0000            movs        r0,r0                                   
ram:0001b16e    0000            movs        r0,r0                                   
                            LAB_0001b170:                 ;XREF[1,0]:   0001b120
ram:0001b170    a820            movs        r0,#0xa8                                
ram:0001b172    0020            movs        r0,#0x0                                 
                            LAB_0001b174:                 ;XREF[1,0]:   0001b122
ram:0001b174    c429            cmp         r1,#0xc4                                
ram:0001b176    0020            movs        r0,#0x0                                 
                            LAB_0001b178:                 ;XREF[1,0]:   0001b142
ram:0001b178    0000            movs        r0,r0                                   
ram:0001b17a    0000            movs        r0,r0                                   
                            LAB_0001b17c:                 ;XREF[1,0]:   0001b148
ram:0001b17c    0000            movs        r0,r0                                   
ram:0001b17e    0000            movs        r0,r0                                   
                                                          ;XREF[0,2]:   0001b21e,0001b270
                                                          ; FWD[2,0]:   0007fff8,0007fffc
ram:0001b180    10b5            push        {r4,lr}=>DAT_0007fffc                   
ram:0001b182    0400            movs        r4,r0                                   
ram:0001b184    02f018f9        bl          FUN_0001d3b8                            ;undefined FUN_0001d3b8(short * param_1)
ram:0001b188    2000            movs        r0,r4                                   
ram:0001b18a    01f087fa        bl          FUN_0001c69c                            ;undefined FUN_0001c69c(short * param_1)
ram:0001b18e    2000            movs        r0,r4                                   
ram:0001b190    02f082f8        bl          FUN_0001d298                            ;ushort * FUN_0001d298(ushort * param_1)
ram:0001b194    a088            ldrh        r0,[r4,#DAT_00000004]                   
ram:0001b196    02f097f9        bl          FUN_0001d4c8                            ;int FUN_0001d4c8(uint param_1)
ram:0001b19a    0128            cmp         r0,#0x1                                 
ram:0001b19c    00d0            beq         LAB_0001b1a0                            
                            LAB_0001b19e:                 ;XREF[1,0]:   0001b1a6
                                                          ; FWD[3,0]:   0001b15e,0007fff8,0007fffc
ram:0001b19e    10bd            pop         {r4,pc}=>DAT_0007fff8                   
                            LAB_0001b1a0:                 ;XREF[1,0]:   0001b19c
ram:0001b1a0    2000            movs        r0,r4                                   
ram:0001b1a2    00f0d9f9        bl          FUN_0001b558                            ;undefined FUN_0001b558(short * param_1)
ram:0001b1a6    fae7            b           LAB_0001b19e                            
                            ;************************************************************************************************
                            ;*                                           FUNCTION                                           *
                            ;************************************************************************************************
                            ;undefined FUN_0001b1a8(void)
                                                          ;XREF[2,0]:   0001ec2a,0001f1de
ram:0001b1a8    bff34f8f        dsb         0xf                                     
ram:0001b1ac    034b            ldr         r3,[DAT_0001b1bc]                       ;= E000ED00h
ram:0001b1ae    044a            ldr         r2,[DAT_0001b1c0]                       ;= 05FA0004h
ram:0001b1b0    da60            str         r2,[r3,#offset DAT_e000ed0c &0xff]      
ram:0001b1b2    bff34f8f        dsb         0xf                                     
                            LAB_0001b1b6:                 ;XREF[1,0]:   0001b1b8
ram:0001b1b6    c046            mov         r8,r8                                   
ram:0001b1b8    fde7            b           LAB_0001b1b6                            
ram:0001b1ba    c046            mov         r8,r8                                   
                            DAT_0001b1bc:                 ;XREF[1,0]:   0001b1ac
ram:0001b1bc    00ed00e0        undefined4  E000ED00h                               
                            DAT_0001b1c0:                 ;XREF[1,0]:   0001b1ae
ram:0001b1c0    0400fa05        undefined4  05FA0004h                               
                            ;************************************************************************************************
                            ;*                                           FUNCTION                                           *
                            ;************************************************************************************************
                            ;undefined FUNC_HardFault_0001b1c4(void)
                                                          ;XREF[0,1]:   0001b00c
ram:0001b1c4    eff30883        mrs         r3,msp                                  
                            LAB_0001b1c8:                 ;XREF[1,0]:   0001b1c8
ram:0001b1c8    fee7            b           LAB_0001b1c8                            
ram:0001b1ca    c046            mov         r8,r8                                   
                            ;************************************************************************************************
                            ;*                                           FUNCTION                                           *
                            ;************************************************************************************************
                            ;undefined FUN_0001b1cc(void)
          ;local_1c      undefined2         -1c                      ;XREF[1,0]:   0001b214
          ;local_20      undefined4         -20                      ;XREF[1,0]:   0001b1d8
          ;local_24      undefined4         -24                      ;XREF[1,0]:   0001b1d6
                                                          ;XREF[1,0]:   0001b156
ram:0001b1cc    10b5            push        {r4,lr}                                 
ram:0001b1ce    254b            ldr         r3,[PTR_DAT_0001b264]                   ;= 0001f690
ram:0001b1d0    88b0            sub         sp,#0x20                                
ram:0001b1d2    1b68            ldr         r3,[r3,#0x0]=>DAT_0001f690              ;= 07000001h
ram:0001b1d4    4822            movs        r2,#0x48                                
ram:0001b1d6    0193            str         r3,[sp,#local_24+0x28]                  
ram:0001b1d8    0293            str         r3,[sp,#local_20+0x28]                  
ram:0001b1da    2349            ldr         r1,[DAT_0001b268]                       ;= 200023DCh
ram:0001b1dc    0023            movs        r3,#0x0                                 
ram:0001b1de    02a8            add         r0,sp,#0x8                              
ram:0001b1e0    04f072f8        bl          FUN_0001f2c8                            ;int FUN_0001f2c8(undefined4 param_1,...
ram:0001b1e4    0028            cmp         r0,#0x0                                 
ram:0001b1e6    2ed1            bne         LAB_0001b246                            
                            LAB_0001b1e8:                 ;XREF[1,0]:   0001b24a
ram:0001b1e8    0023            movs        r3,#0x0                                 
ram:0001b1ea    204a            ldr         r2,[DAT_0001b26c]                       ;= 200020C4h
ram:0001b1ec    2121            movs        r1,#0x21                                
ram:0001b1ee    0020            movs        r0,#0x0                                 
ram:0001b1f0    03f0c4fb        bl          FUN_0001e97c                            ;undefined4 FUN_0001e97c(undefined4 p...
ram:0001b1f4    0028            cmp         r0,#0x0                                 
ram:0001b1f6    32d1            bne         LAB_0001b25e                            
                            LAB_0001b1f8:                 ;XREF[1,0]:   0001b262
ram:0001b1f8    03ac            add         r4,sp,#0xc                              
ram:0001b1fa    00f06ffe        bl          FUN_0001bedc                            ;undefined FUN_0001bedc(void)
ram:0001b1fe    02f015fc        bl          FUN_0001da2c                            ;undefined4 FUN_0001da2c(void)
ram:0001b202    2200            movs        r2,r4                                   
ram:0001b204    0121            movs        r1,#0x1                                 
ram:0001b206    0020            movs        r0,#0x0                                 
ram:0001b208    04f0d0f8        bl          FUN_0001f3ac                            ;undefined4 FUN_0001f3ac(int param_1,...
ram:0001b20c    0028            cmp         r0,#0x0                                 
ram:0001b20e    23d1            bne         LAB_0001b258                            
                            LAB_0001b210:                 ;XREF[1,0]:   0001b25c
ram:0001b210    0223            movs        r3,#0x2                                 
ram:0001b212    2000            movs        r0,r4                                   
ram:0001b214    2380            strh        r3,[r4,#0x0]=>local_1c                  
ram:0001b216    04f0e1f8        bl          FUN_0001f3dc                            ;undefined FUN_0001f3dc(void)
ram:0001b21a    0028            cmp         r0,#0x0                                 
ram:0001b21c    19d1            bne         LAB_0001b252                            
                            LAB_0001b21e:                 ;XREF[1,0]:   0001b256
ram:0001b21e    1448            ldr         r0=>LAB_0001b180+1,[PTR_LAB_0001b180+...;= 0001b181
ram:0001b220    04f0a2f8        bl          FUN_0001f368                            ;undefined4 FUN_0001f368(int param_1)
ram:0001b224    0028            cmp         r0,#0x0                                 
ram:0001b226    11d1            bne         LAB_0001b24c                            
                            LAB_0001b228:                 ;XREF[1,0]:   0001b250
ram:0001b228    00f022fb        bl          FUN_0001b870                            ;undefined FUN_0001b870(void)
ram:0001b22c    00f0b8f9        bl          FUN_0001b5a0                            ;undefined FUN_0001b5a0(void)
ram:0001b230    00f03afe        bl          FUN_0001bea8                            ;undefined FUN_0001bea8(void)
ram:0001b234    0021            movs        r1,#0x0                                 
ram:0001b236    0520            movs        r0,#0x5                                 
ram:0001b238    00f086fb        bl          FUN_0001b948                            ;undefined FUN_0001b948(int param_1, ...
ram:0001b23c    00f098fe        bl          FUN_0001bf70                            ;undefined FUN_0001bf70(void)
                            LAB_0001b240:                 ;XREF[1,0]:   0001b244
ram:0001b240    00f044fe        bl          FUN_0001becc                            ;undefined FUN_0001becc(void)
ram:0001b244    fce7            b           LAB_0001b240                            
                            LAB_0001b246:                 ;XREF[1,0]:   0001b1e6
ram:0001b246    03f0e7fc        bl          FUN_0001ec18                            ;undefined FUN_0001ec18(void)
ram:0001b24a    cde7            b           LAB_0001b1e8                            
                            LAB_0001b24c:                 ;XREF[1,0]:   0001b226
ram:0001b24c    03f0e4fc        bl          FUN_0001ec18                            ;undefined FUN_0001ec18(void)
ram:0001b250    eae7            b           LAB_0001b228                            
                            LAB_0001b252:                 ;XREF[1,0]:   0001b21c
ram:0001b252    03f0e1fc        bl          FUN_0001ec18                            ;undefined FUN_0001ec18(void)
ram:0001b256    e2e7            b           LAB_0001b21e                            
                            LAB_0001b258:                 ;XREF[1,0]:   0001b20e
ram:0001b258    03f0defc        bl          FUN_0001ec18                            ;undefined FUN_0001ec18(void)
ram:0001b25c    d8e7            b           LAB_0001b210                            
                            LAB_0001b25e:                 ;XREF[1,0]:   0001b1f6
ram:0001b25e    03f0dbfc        bl          FUN_0001ec18                            ;undefined FUN_0001ec18(void)
ram:0001b262    c9e7            b           LAB_0001b1f8                            
                            PTR_DAT_0001b264:             ;XREF[1,0]:   0001b1ce
ram:0001b264    90f60100        addr        DAT_0001f690                            ;= 07000001h
                            DAT_0001b268:                 ;XREF[1,0]:   0001b1da
ram:0001b268    dc230020        undefined4  200023DCh                               
                            DAT_0001b26c:                 ;XREF[1,0]:   0001b1ea
ram:0001b26c    c4200020        undefined4  200020C4h                               
                            PTR_LAB_0001b180+1_0001b270:  ;XREF[1,0]:   0001b21e
ram:0001b270    81b10100        addr        LAB_0001b180+1                          
                            ;************************************************************************************************
                            ;*                                           FUNCTION                                           *
                            ;************************************************************************************************
                            ;undefined FUN_0001b274(byte param_1)
          ;param_1       byte                r0                      
          ;local_11      undefined1         -11                      ;XREF[1,0]:   0001b286
                                                          ;XREF[0,2]:   0001b60c,0001b634
ram:0001b274    70b5            push        {r4,r5,r6,lr}                           
ram:0001b276    0e4b            ldr         r3,[DAT_0001b2b0]                       ;= 20002440h
ram:0001b278    82b0            sub         sp,#0x8                                 
ram:0001b27a    1870            strb        param_1,[r3,#0x0]=>DAT_20002440         
ram:0001b27c    6b46            mov         r3,sp                                   
ram:0001b27e    dd1d            adds        r5,r3,#0x7                              
ram:0001b280    6023            movs        r3,#0x60                                
ram:0001b282    1843            orrs        param_1,r3                              
ram:0001b284    0b4b            ldr         r3,[DAT_0001b2b4]                       ;= 20001FF8h
ram:0001b286    2870            strb        param_1,[r5,#0x0]=>local_11             
ram:0001b288    1a88            ldrh        r2,[r3,#0x0]=>DAT_20001ff8              
ram:0001b28a    0b4b            ldr         r3,[DAT_0001b2b8]                       ;= 0000FFFFh
ram:0001b28c    9a42            cmp         r2,r3                                   
ram:0001b28e    0cd0            beq         LAB_0001b2aa                            
ram:0001b290    0624            movs        r4,#0x6                                 
ram:0001b292    0a4e            ldr         r6,[DAT_0001b2bc]                       ;= 20002424h
                            LAB_0001b294:                 ;XREF[1,0]:   0001b2a8
ram:0001b294    0122            movs        r2,#0x1                                 
ram:0001b296    2900            movs        r1,r5                                   
ram:0001b298    3000            movs        param_1,r6                              
ram:0001b29a    00f0bfff        bl          FUN_0001c21c                            ;undefined4 FUN_0001c21c(int param_1,...
ram:0001b29e    0028            cmp         param_1,#0x0                            
ram:0001b2a0    03d0            beq         LAB_0001b2aa                            
ram:0001b2a2    013c            subs        r4,#0x1                                 
ram:0001b2a4    e4b2            uxtb        r4,r4                                   
ram:0001b2a6    002c            cmp         r4,#0x0                                 
ram:0001b2a8    f4d1            bne         LAB_0001b294                            
                            LAB_0001b2aa:                 ;XREF[2,0]:   0001b28e,0001b2a0
ram:0001b2aa    02b0            add         sp,#0x8                                 
ram:0001b2ac    70bd            pop         {r4,r5,r6,pc}                           
ram:0001b2ae    c046            mov         r8,r8                                   
                            DAT_0001b2b0:                 ;XREF[1,0]:   0001b276
ram:0001b2b0    40240020        undefined4  20002440h                               
                            DAT_0001b2b4:                 ;XREF[1,0]:   0001b284
ram:0001b2b4    f81f0020        undefined4  20001FF8h                               
                            DAT_0001b2b8:                 ;XREF[1,0]:   0001b28a
ram:0001b2b8    ffff0000        undefined4  0000FFFFh                               
                            DAT_0001b2bc:                 ;XREF[1,0]:   0001b292
ram:0001b2bc    24240020        undefined4  20002424h                               
                            ;************************************************************************************************
                            ;*                                           FUNCTION                                           *
                            ;************************************************************************************************
                            ;undefined FUN_0001b2c0(byte param_1, int param_2)
          ;param_1       byte                r0                      
          ;param_2       int                 r1                      
          ;local_19      undefined1         -19                      ;XREF[1,0]:   0001b304
                                                          ;XREF[0,2]:   0001b60e,0001b638
ram:0001b2c0    f0b5            push        {r4,r5,r6,r7,lr}                        
ram:0001b2c2    1e4a            ldr         r2,[DAT_0001b33c]                       ;= 20001FF8h
ram:0001b2c4    0d00            movs        r5,param_2                              
ram:0001b2c6    1188            ldrh        param_2,[r2,#0x0]=>DAT_20001ff8         
ram:0001b2c8    1d4a            ldr         r2,[DAT_0001b340]                       ;= 0000FFFFh
ram:0001b2ca    83b0            sub         sp,#0xc                                 
ram:0001b2cc    9142            cmp         param_2,r2                              
ram:0001b2ce    0bd1            bne         LAB_0001b2e8                            
                            LAB_0001b2d0:                 ;XREF[2,0]:   0001b312,0001b31c
ram:0001b2d0    00f0ccf9        bl          FUN_0001b66c                            ;undefined FUN_0001b66c(void)
ram:0001b2d4    0028            cmp         param_1,#0x0                            
ram:0001b2d6    05d1            bne         LAB_0001b2e4                            
ram:0001b2d8    012d            cmp         r5,#0x1                                 
ram:0001b2da    20d0            beq         LAB_0001b31e                            
ram:0001b2dc    00f0aef9        bl          FUN_0001b63c                            ;undefined FUN_0001b63c(void)
ram:0001b2e0    0028            cmp         param_1,#0x0                            
ram:0001b2e2    25d1            bne         LAB_0001b330                            
                            LAB_0001b2e4:                 ;XREF[4,0]:   0001b2d6,0001b324,0001b32e,0001b338
ram:0001b2e4    03b0            add         sp,#0xc                                 
ram:0001b2e6    f0bd            pop         {r4,r5,r6,r7,pc}                        
                            LAB_0001b2e8:                 ;XREF[1,0]:   0001b2ce
ram:0001b2e8    6a1e            subs        r2,r5,#0x1                              
ram:0001b2ea    5342            rsbs        r3,r2                                   
ram:0001b2ec    5a41            adcs        r2,r3                                   
ram:0001b2ee    1023            movs        r3,#0x10                                
ram:0001b2f0    5242            rsbs        r2,r2                                   
ram:0001b2f2    1340            ands        r3,r2                                   
ram:0001b2f4    6a46            mov         r2,sp                                   
ram:0001b2f6    d61d            adds        r6,r2,#0x7                              
ram:0001b2f8    0f22            movs        r2,#0xf                                 
ram:0001b2fa    0624            movs        r4,#0x6                                 
ram:0001b2fc    1033            adds        r3,#0x10                                
ram:0001b2fe    1040            ands        param_1,r2                              
ram:0001b300    0343            orrs        r3,param_1                              
ram:0001b302    104f            ldr         r7,[DAT_0001b344]                       ;= 20002424h
ram:0001b304    3370            strb        r3,[r6,#0x0]=>local_19                  
                            LAB_0001b306:                 ;XREF[1,0]:   0001b31a
ram:0001b306    0122            movs        r2,#0x1                                 
ram:0001b308    3100            movs        param_2,r6                              
ram:0001b30a    3800            movs        param_1,r7                              
ram:0001b30c    00f086ff        bl          FUN_0001c21c                            ;undefined4 FUN_0001c21c(int param_1,...
ram:0001b310    0028            cmp         param_1,#0x0                            
ram:0001b312    ddd0            beq         LAB_0001b2d0                            
ram:0001b314    013c            subs        r4,#0x1                                 
ram:0001b316    e4b2            uxtb        r4,r4                                   
ram:0001b318    002c            cmp         r4,#0x0                                 
ram:0001b31a    f4d1            bne         LAB_0001b306                            
ram:0001b31c    d8e7            b           LAB_0001b2d0                            
                            LAB_0001b31e:                 ;XREF[1,0]:   0001b2da
ram:0001b31e    00f099f9        bl          FUN_0001b654                            ;undefined FUN_0001b654(void)
ram:0001b322    0028            cmp         param_1,#0x0                            
ram:0001b324    ded0            beq         LAB_0001b2e4                            
ram:0001b326    00f0e9fa        bl          FUN_0001b8fc                            ;undefined FUN_0001b8fc(void)
ram:0001b32a    00f091fb        bl          FUN_0001ba50                            ;undefined FUN_0001ba50(void)
ram:0001b32e    d9e7            b           LAB_0001b2e4                            
                            LAB_0001b330:                 ;XREF[1,0]:   0001b2e2
ram:0001b330    00f0e4fa        bl          FUN_0001b8fc                            ;undefined FUN_0001b8fc(void)
ram:0001b334    00f0aefb        bl          FUN_0001ba94                            ;undefined FUN_0001ba94(void)
ram:0001b338    d4e7            b           LAB_0001b2e4                            
ram:0001b33a    c046            mov         r8,r8                                   
                            DAT_0001b33c:                 ;XREF[1,0]:   0001b2c2
ram:0001b33c    f81f0020        undefined4  20001FF8h                               
                            DAT_0001b340:                 ;XREF[1,0]:   0001b2c8
ram:0001b340    ffff0000        undefined4  0000FFFFh                               
                            DAT_0001b344:                 ;XREF[1,0]:   0001b302
ram:0001b344    24240020        undefined4  20002424h                               
                            ;************************************************************************************************
                            ;*                                           FUNCTION                                           *
                            ;************************************************************************************************
                            ;undefined LAB_0001b348+1(undefined4 param_1, byte * param_2, uint param_3)
          ;param_1       undefined4          r0                      
          ;param_2       byte *              r1                      
          ;param_3       uint                r2                      
                                                          ;XREF[0,3]:   0001b5ac,0001b5b2,0001b61c
ram:0001b348    f0b5            push        {r4,r5,r6,r7,lr}                        
ram:0001b34a    0c00            movs        r4,param_2                              
ram:0001b34c    0978            ldrb        param_2,[param_2,#0x0]                  
ram:0001b34e    0f20            movs        param_1,#0xf                            
ram:0001b350    0b00            movs        r3,param_2                              
ram:0001b352    83b0            sub         sp,#0xc                                 
ram:0001b354    8343            bics        r3,param_1                              
ram:0001b356    202b            cmp         r3,#0x20                                
ram:0001b358    36d0            beq         LAB_0001b3c8                            
ram:0001b35a    07d9            bls         LAB_0001b36c                            
ram:0001b35c    402b            cmp         r3,#0x40                                
ram:0001b35e    1ed0            beq         LAB_0001b39e                            
ram:0001b360    502b            cmp         r3,#0x50                                
ram:0001b362    2cd0            beq         LAB_0001b3be                            
ram:0001b364    302b            cmp         r3,#0x30                                
ram:0001b366    1fd0            beq         LAB_0001b3a8                            
                            LAB_0001b368:                 ;XREF[21,0]:  0001b372,0001b376,0001b39c,0001b3a6
                                                          ;             0001b3b0,0001b3b4,0001b3c6,0001b3d0
                                                          ;             0001b3d6,0001b402,0001b414,0001b41e
                                                          ;             0001b434,0001b448,0001b452,0001b458
                                                          ;             0001b462,0001b4d4,0001b4e8,0001b4f2
                                                          ;             0001b4f8
ram:0001b368    03b0            add         sp,#0xc                                 
ram:0001b36a    f0bd            pop         {r4,r5,r6,r7,pc}                        
                            LAB_0001b36c:                 ;XREF[1,0]:   0001b35a
ram:0001b36c    002b            cmp         r3,#0x0                                 
ram:0001b36e    20d0            beq         LAB_0001b3b2                            
ram:0001b370    102b            cmp         r3,#0x10                                
ram:0001b372    f9d1            bne         LAB_0001b368                            
ram:0001b374    012a            cmp         param_3,#0x1                            
ram:0001b376    f7d9            bls         LAB_0001b368                            
ram:0001b378    0125            movs        r5,#0x1                                 
ram:0001b37a    6178            ldrb        param_2,[r4,#0x1]                       
ram:0001b37c    0020            movs        param_1,#0x0                            
ram:0001b37e    2940            ands        param_2,r5                              
ram:0001b380    00f09cf9        bl          FUN_0001b6bc                            ;undefined FUN_0001b6bc(int param_1, ...
ram:0001b384    6178            ldrb        param_2,[r4,#0x1]                       
ram:0001b386    0120            movs        param_1,#0x1                            
ram:0001b388    4908            lsrs        param_2,param_2,#0x1                    
ram:0001b38a    2940            ands        param_2,r5                              
ram:0001b38c    00f096f9        bl          FUN_0001b6bc                            ;undefined FUN_0001b6bc(int param_1, ...
ram:0001b390    6178            ldrb        param_2,[r4,#0x1]                       
ram:0001b392    0220            movs        param_1,#0x2                            
ram:0001b394    8908            lsrs        param_2,param_2,#0x2                    
ram:0001b396    2940            ands        param_2,r5                              
ram:0001b398    00f090f9        bl          FUN_0001b6bc                            ;undefined FUN_0001b6bc(int param_1, ...
ram:0001b39c    e4e7            b           LAB_0001b368                            
                            LAB_0001b39e:                 ;XREF[1,0]:   0001b35e
ram:0001b39e    0840            ands        param_1,param_2                         
ram:0001b3a0    0121            movs        param_2,#0x1                            
ram:0001b3a2    00f07df9        bl          FUN_0001b6a0                            ;undefined FUN_0001b6a0(int param_1, ...
ram:0001b3a6    dfe7            b           LAB_0001b368                            
                            LAB_0001b3a8:                 ;XREF[1,0]:   0001b366
ram:0001b3a8    0840            ands        param_1,param_2                         
ram:0001b3aa    0021            movs        param_2,#0x0                            
ram:0001b3ac    00f086f9        bl          FUN_0001b6bc                            ;undefined FUN_0001b6bc(int param_1, ...
ram:0001b3b0    dae7            b           LAB_0001b368                            
                            LAB_0001b3b2:                 ;XREF[1,0]:   0001b36e
ram:0001b3b2    0729            cmp         param_2,#0x7                            
ram:0001b3b4    d8d8            bhi         LAB_0001b368                            
ram:0001b3b6    634b            ldr         r3,[PTR_PTR_FUN_0001b544]               ;= 0001f694
ram:0001b3b8    8900            lsls        param_2,param_2,#0x2                    
ram:0001b3ba    5b58            ldr         r3=>->FUN_0001b4f4,[r3,param_2]         ;= 0001b4f4
ram:0001b3bc    9f46            mov         pc,r3                                   
                            LAB_0001b3be:                 ;XREF[1,0]:   0001b362
ram:0001b3be    0840            ands        param_1,param_2                         
ram:0001b3c0    0021            movs        param_2,#0x0                            
ram:0001b3c2    00f06df9        bl          FUN_0001b6a0                            ;undefined FUN_0001b6a0(int param_1, ...
ram:0001b3c6    cfe7            b           LAB_0001b368                            
                            LAB_0001b3c8:                 ;XREF[1,0]:   0001b358
ram:0001b3c8    0840            ands        param_1,param_2                         
ram:0001b3ca    0121            movs        param_2,#0x1                            
ram:0001b3cc    00f076f9        bl          FUN_0001b6bc                            ;undefined FUN_0001b6bc(int param_1, ...
ram:0001b3d0    cae7            b           LAB_0001b368                            
                            ;************************************************************************************************
                            ;*                                           FUNCTION                                           *
                            ;************************************************************************************************
                            ;undefined FUN_0001b3d2(void)
                                                          ;XREF[1,0]:   0001f6ac
ram:0001b3d2    00f04ffd        bl          FUN_0001be74                            ;undefined FUN_0001be74(void)
ram:0001b3d6    c7e7            b           LAB_0001b368                            
                            ;************************************************************************************************
                            ;*                                           FUNCTION                                           *
                            ;************************************************************************************************
                            ;undefined FUN_0001b3d8(undefined param_1, undefined param_2, undefined param_3, undefined param_4, undefined param_5, undefined1 param_6)
          ;param_1       undefined           r0                      
          ;param_2       undefined           r1                      
          ;param_3       undefined           r2                      
          ;param_4       undefined           r3                      
          ;param_5       undefined            0                      
          ;param_6       undefined1           4                      ;XREF[1,0]:   0001b3fe
                                                          ;XREF[1,0]:   0001f6a8
ram:0001b3d8    00f07efb        bl          FUN_0001bad8                            ;ulonglong FUN_0001bad8(void)
ram:0001b3dc    0500            movs        r5,param_1                              
ram:0001b3de    0528            cmp         param_1,#0x5                            
ram:0001b3e0    00d8            bhi         LAB_0001b3e4                            
ram:0001b3e2    a8e0            b           LAB_0001b536                            
                            LAB_0001b3e4:                 ;XREF[1,0]:   0001b3e0
ram:0001b3e4    0a28            cmp         param_1,#0xa                            
ram:0001b3e6    00d8            bhi         LAB_0001b3ea                            
ram:0001b3e8    a8e0            b           LAB_0001b53c                            
                            LAB_0001b3ea:                 ;XREF[3,0]:   0001b3e6,0001b53a,0001b540
ram:0001b3ea    2801            lsls        param_1,r5,#0x4                         
ram:0001b3ec    401b            subs        param_1,param_1,r5                      
ram:0001b3ee    6421            movs        param_2,#0x64                           
ram:0001b3f0    04f056f8        bl          FUN_0001f4a0                            ;undefined8 FUN_0001f4a0(uint param_1...
ram:0001b3f4    544b            ldr         param_4,[DAT_0001b548]                  ;= 20001FF8h
ram:0001b3f6    01ac            add         r4,sp,#0x4                              
ram:0001b3f8    1a88            ldrh        param_3,[param_4,#0x0]=>DAT_20001ff8    
ram:0001b3fa    544b            ldr         param_4,[DAT_0001b54c]                  ;= 0000FFFFh
ram:0001b3fc    5030            adds        param_1,#0x50                           
ram:0001b3fe    2070            strb        param_1,[r4,#0x0]=>param_6              
ram:0001b400    9a42            cmp         param_3,param_4                         
ram:0001b402    b1d0            beq         LAB_0001b368                            
ram:0001b404    0626            movs        r6,#0x6                                 
ram:0001b406    524d            ldr         r5,[DAT_0001b550]                       ;= 20002424h
                            LAB_0001b408:                 ;XREF[1,0]:   0001b41c
ram:0001b408    0122            movs        param_3,#0x1                            
ram:0001b40a    2100            movs        param_2,r4                              
ram:0001b40c    2800            movs        param_1,r5                              
ram:0001b40e    00f005ff        bl          FUN_0001c21c                            ;undefined4 FUN_0001c21c(int param_1,...
ram:0001b412    0028            cmp         param_1,#0x0                            
ram:0001b414    a8d0            beq         LAB_0001b368                            
ram:0001b416    013e            subs        r6,#0x1                                 
ram:0001b418    f6b2            uxtb        r6,r6                                   
ram:0001b41a    002e            cmp         r6,#0x0                                 
ram:0001b41c    f4d1            bne         LAB_0001b408                            
ram:0001b41e    a3e7            b           LAB_0001b368                            
                            ;************************************************************************************************
                            ;*                                           FUNCTION                                           *
                            ;************************************************************************************************
                            ;undefined FUN_0001b420(undefined param_1, undefined param_2, undefined param_3, undefined param_4, undefined param_5, undefined1 param_6)
          ;param_1       undefined           r0                      
          ;param_2       undefined           r1                      
          ;param_3       undefined           r2                      
          ;param_4       undefined           r3                      
          ;param_5       undefined            0                      
          ;param_6       undefined1           4                      ;XREF[1,0]:   0001b42a
                                                          ;XREF[1,0]:   0001f6b0
ram:0001b420    6022            movs        param_3,#0x60                           
ram:0001b422    4c4b            ldr         param_4,[DAT_0001b554]                  ;= 20002440h
ram:0001b424    01ac            add         r4,sp,#0x4                              
ram:0001b426    1b78            ldrb        param_4,[param_4,#0x0]=>DAT_20002440    
ram:0001b428    1343            orrs        param_4,param_3                         
ram:0001b42a    2370            strb        param_4,[r4,#0x0]=>param_6              
ram:0001b42c    464b            ldr         param_4,[DAT_0001b548]                  ;= 20001FF8h
ram:0001b42e    1a88            ldrh        param_3,[param_4,#0x0]=>DAT_20001ff8    
ram:0001b430    464b            ldr         param_4,[DAT_0001b54c]                  ;= 0000FFFFh
ram:0001b432    9a42            cmp         param_3,param_4                         
ram:0001b434    98d0            beq         LAB_0001b368                            
ram:0001b436    0626            movs        r6,#0x6                                 
ram:0001b438    454d            ldr         r5,[DAT_0001b550]                       ;= 20002424h
                            LAB_0001b43a:                 ;XREF[1,0]:   0001b450
ram:0001b43a    0122            movs        param_3,#0x1                            
ram:0001b43c    2100            movs        param_2,r4                              
ram:0001b43e    2800            movs        param_1,r5                              
ram:0001b440    00f0ecfe        bl          FUN_0001c21c                            ;undefined4 FUN_0001c21c(int param_1,...
ram:0001b444    0028            cmp         param_1,#0x0                            
ram:0001b446    00d1            bne         LAB_0001b44a                            
ram:0001b448    8ee7            b           LAB_0001b368                            
                            LAB_0001b44a:                 ;XREF[1,0]:   0001b446
ram:0001b44a    013e            subs        r6,#0x1                                 
ram:0001b44c    f6b2            uxtb        r6,r6                                   
ram:0001b44e    002e            cmp         r6,#0x0                                 
ram:0001b450    f3d1            bne         LAB_0001b43a                            
ram:0001b452    89e7            b           LAB_0001b368                            
                            ;************************************************************************************************
                            ;*                                           FUNCTION                                           *
                            ;************************************************************************************************
                            ;undefined FUN_0001b454(void)
                                                          ;XREF[1,0]:   0001f6a0
ram:0001b454    00f0fafc        bl          FUN_0001be4c                            ;undefined FUN_0001be4c(void)
ram:0001b458    86e7            b           LAB_0001b368                            
                            ;************************************************************************************************
                            ;*                                           FUNCTION                                           *
                            ;************************************************************************************************
                            ;undefined FUN_0001b45a(void)
                                                          ;XREF[1,0]:   0001f69c
ram:0001b45a    0021            movs        r1,#0x0                                 
ram:0001b45c    0520            movs        r0,#0x5                                 
ram:0001b45e    00f073fa        bl          FUN_0001b948                            ;undefined FUN_0001b948(int param_1, ...
ram:0001b462    81e7            b           LAB_0001b368                            
                            ;************************************************************************************************
                            ;*                                           FUNCTION                                           *
                            ;************************************************************************************************
                            ;undefined FUN_0001b464(undefined param_1, undefined param_2, undefined param_3, undefined param_4, undefined param_5, undefined2 param_6, undefined param_7, undefined param_8, undefined param_9, undefined param_10, undefined1 param_11)
          ;param_1       undefined           r0                      
          ;param_2       undefined           r1                      
          ;param_3       undefined           r2                      
          ;param_4       undefined           r3                      
          ;param_5       undefined            0                      
          ;param_6       undefined2           4                      ;XREF[4,3]:   0001b468,0001b486,0001b4ca,0001b4fe,0001b48e
                                                                     ;             0001b4ce,0001b506
          ;param_7       undefined            8                      
          ;param_8       undefined            c                      
          ;param_9       undefined           10                      
          ;param_10      undefined           14                      
          ;param_11      undefined1           6                      ;XREF[3,0]:   0001b46a,0001b49a,0001b514
                                                          ;XREF[1,0]:   0001f698
ram:0001b464    0023            movs        param_4,#0x0                            
ram:0001b466    01ac            add         r4,sp,#0x4                              
ram:0001b468    2380            strh        param_4,[r4,#0x0]=>param_6              
ram:0001b46a    a370            strb        param_4,[r4,#param_11-0x4]              
ram:0001b46c    0020            movs        param_1,#0x0                            
ram:0001b46e    00f03dfc        bl          FUN_0001bcec                            ;undefined2 FUN_0001bcec(int param_1)
ram:0001b472    0028            cmp         param_1,#0x0                            
ram:0001b474    41d1            bne         LAB_0001b4fa                            
ram:0001b476    344f            ldr         r7,[DAT_0001b548]                       ;= 20001FF8h
                            LAB_0001b478:                 ;XREF[3,0]:   0001b518,0001b52a,0001b534
ram:0001b478    0020            movs        param_1,#0x0                            
ram:0001b47a    00f03dfc        bl          FUN_0001bcf8                            ;undefined2 FUN_0001bcf8(int param_1)
ram:0001b47e    0028            cmp         param_1,#0x0                            
ram:0001b480    1bd0            beq         LAB_0001b4ba                            
ram:0001b482    4023            movs        param_4,#0x40                           
ram:0001b484    0020            movs        param_1,#0x0                            
ram:0001b486    2370            strb        param_4,[r4,#0x0]=>param_6              
ram:0001b488    00f036fc        bl          FUN_0001bcf8                            ;undefined2 FUN_0001bcf8(int param_1)
ram:0001b48c    000a            lsrs        param_1,param_1,#0x8                    
ram:0001b48e    6070            strb        param_1,[r4,#param_6-0x3]               
ram:0001b490    0020            movs        param_1,#0x0                            
ram:0001b492    00f031fc        bl          FUN_0001bcf8                            ;undefined2 FUN_0001bcf8(int param_1)
ram:0001b496    3a88            ldrh        param_3,[r7,#0x0]=>DAT_20001ff8         
ram:0001b498    2c4b            ldr         param_4,[DAT_0001b54c]                  ;= 0000FFFFh
ram:0001b49a    a070            strb        param_1,[r4,#param_11-0x4]              
ram:0001b49c    9a42            cmp         param_3,param_4                         
ram:0001b49e    0cd0            beq         LAB_0001b4ba                            
ram:0001b4a0    0626            movs        r6,#0x6                                 
ram:0001b4a2    2b4d            ldr         r5,[DAT_0001b550]                       ;= 20002424h
                            LAB_0001b4a4:                 ;XREF[1,0]:   0001b4b8
ram:0001b4a4    0322            movs        param_3,#0x3                            
ram:0001b4a6    2100            movs        param_2,r4                              
ram:0001b4a8    2800            movs        param_1,r5                              
ram:0001b4aa    00f0b7fe        bl          FUN_0001c21c                            ;undefined4 FUN_0001c21c(int param_1,...
ram:0001b4ae    0028            cmp         param_1,#0x0                            
ram:0001b4b0    03d0            beq         LAB_0001b4ba                            
ram:0001b4b2    013e            subs        r6,#0x1                                 
ram:0001b4b4    f6b2            uxtb        r6,r6                                   
ram:0001b4b6    002e            cmp         r6,#0x0                                 
ram:0001b4b8    f4d1            bne         LAB_0001b4a4                            
                            LAB_0001b4ba:                 ;XREF[3,0]:   0001b480,0001b49e,0001b4b0
ram:0001b4ba    0020            movs        param_1,#0x0                            
ram:0001b4bc    00f022fc        bl          FUN_0001bd04                            ;undefined FUN_0001bd04(int param_1)
ram:0001b4c0    0020            movs        param_1,#0x0                            
ram:0001b4c2    00f00dfc        bl          FUN_0001bce0                            ;undefined FUN_0001bce0(int param_1)
ram:0001b4c6    0023            movs        param_4,#0x0                            
ram:0001b4c8    3a88            ldrh        param_3,[r7,#0x0]=>DAT_20001ff8         
ram:0001b4ca    2370            strb        param_4,[r4,#0x0]=>param_6              
ram:0001b4cc    1f4b            ldr         param_4,[DAT_0001b54c]                  ;= 0000FFFFh
ram:0001b4ce    6070            strb        param_1,[r4,#param_6-0x3]               
ram:0001b4d0    9a42            cmp         param_3,param_4                         
ram:0001b4d2    00d1            bne         LAB_0001b4d6                            
ram:0001b4d4    48e7            b           LAB_0001b368                            
                            LAB_0001b4d6:                 ;XREF[1,0]:   0001b4d2
ram:0001b4d6    0626            movs        r6,#0x6                                 
ram:0001b4d8    1d4d            ldr         r5,[DAT_0001b550]                       ;= 20002424h
                            LAB_0001b4da:                 ;XREF[1,0]:   0001b4f0
ram:0001b4da    0222            movs        param_3,#0x2                            
ram:0001b4dc    2100            movs        param_2,r4                              
ram:0001b4de    2800            movs        param_1,r5                              
ram:0001b4e0    00f09cfe        bl          FUN_0001c21c                            ;undefined4 FUN_0001c21c(int param_1,...
ram:0001b4e4    0028            cmp         param_1,#0x0                            
ram:0001b4e6    00d1            bne         LAB_0001b4ea                            
ram:0001b4e8    3ee7            b           LAB_0001b368                            
                            LAB_0001b4ea:                 ;XREF[1,0]:   0001b4e6
ram:0001b4ea    013e            subs        r6,#0x1                                 
ram:0001b4ec    f6b2            uxtb        r6,r6                                   
ram:0001b4ee    002e            cmp         r6,#0x0                                 
ram:0001b4f0    f3d1            bne         LAB_0001b4da                            
ram:0001b4f2    39e7            b           LAB_0001b368                            
                            ;************************************************************************************************
                            ;*                                           FUNCTION                                           *
                            ;************************************************************************************************
                            ;undefined FUN_0001b4f4(void)
                                                          ;XREF[1,0]:   0001f694
ram:0001b4f4    00f09cfc        bl          FUN_0001be30                            ;undefined FUN_0001be30(void)
ram:0001b4f8    36e7            b           LAB_0001b368                            
                            LAB_0001b4fa:                 ;XREF[1,0]:   0001b474
ram:0001b4fa    3023            movs        param_4,#0x30                           
ram:0001b4fc    0020            movs        param_1,#0x0                            
ram:0001b4fe    2370            strb        param_4,[r4,#0x0]=>param_6              
ram:0001b500    00f0f4fb        bl          FUN_0001bcec                            ;undefined2 FUN_0001bcec(int param_1)
ram:0001b504    000a            lsrs        param_1,param_1,#0x8                    
ram:0001b506    6070            strb        param_1,[r4,#param_6-0x3]               
ram:0001b508    0020            movs        param_1,#0x0                            
ram:0001b50a    00f0effb        bl          FUN_0001bcec                            ;undefined2 FUN_0001bcec(int param_1)
ram:0001b50e    0e4f            ldr         r7,[DAT_0001b548]                       ;= 20001FF8h
ram:0001b510    0e4b            ldr         param_4,[DAT_0001b54c]                  ;= 0000FFFFh
ram:0001b512    3a88            ldrh        param_3,[r7,#0x0]=>DAT_20001ff8         
ram:0001b514    a070            strb        param_1,[r4,#param_11-0x4]              
ram:0001b516    9a42            cmp         param_3,param_4                         
ram:0001b518    aed0            beq         LAB_0001b478                            
ram:0001b51a    0626            movs        r6,#0x6                                 
ram:0001b51c    0c4d            ldr         r5,[DAT_0001b550]                       ;= 20002424h
                            LAB_0001b51e:                 ;XREF[1,0]:   0001b532
ram:0001b51e    0322            movs        param_3,#0x3                            
ram:0001b520    2100            movs        param_2,r4                              
ram:0001b522    2800            movs        param_1,r5                              
ram:0001b524    00f07afe        bl          FUN_0001c21c                            ;undefined4 FUN_0001c21c(int param_1,...
ram:0001b528    0028            cmp         param_1,#0x0                            
ram:0001b52a    a5d0            beq         LAB_0001b478                            
ram:0001b52c    013e            subs        r6,#0x1                                 
ram:0001b52e    f6b2            uxtb        r6,r6                                   
ram:0001b530    002e            cmp         r6,#0x0                                 
ram:0001b532    f4d1            bne         LAB_0001b51e                            
ram:0001b534    a0e7            b           LAB_0001b478                            
                            LAB_0001b536:                 ;XREF[1,0]:   0001b3e2
ram:0001b536    00f09dfc        bl          FUN_0001be74                            ;undefined FUN_0001be74(void)
ram:0001b53a    56e7            b           LAB_0001b3ea                            
                            LAB_0001b53c:                 ;XREF[1,0]:   0001b3e8
ram:0001b53c    00f0aafc        bl          FUN_0001be94                            ;undefined FUN_0001be94(void)
ram:0001b540    53e7            b           LAB_0001b3ea                            
ram:0001b542    c046            mov         r8,r8                                   
                            PTR_PTR_FUN_0001b544:         ;XREF[1,0]:   0001b3b6
ram:0001b544    94f60100        addr        PTR_FUN_0001f694                        ;= 0001b4f4
                            DAT_0001b548:                 ;XREF[4,0]:   0001b3f4,0001b42c,0001b476,0001b50e
ram:0001b548    f81f0020        undefined4  20001FF8h                               
                            DAT_0001b54c:                 ;XREF[5,0]:   0001b3fa,0001b430,0001b498,0001b4cc
                                                          ;             0001b510
ram:0001b54c    ffff0000        undefined4  0000FFFFh                               
                            DAT_0001b550:                 ;XREF[5,0]:   0001b406,0001b438,0001b4a2,0001b4d8
                                                          ;             0001b51c
ram:0001b550    24240020        undefined4  20002424h                               
                            DAT_0001b554:                 ;XREF[1,0]:   0001b422
ram:0001b554    40240020        undefined4  20002440h                               
                            ;************************************************************************************************
                            ;*                                           FUNCTION                                           *
                            ;************************************************************************************************
                            ;undefined FUN_0001b558(short * param_1)
          ;param_1       short *             r0                      
                                                          ;XREF[1,0]:   0001b1a2
ram:0001b558    10b5            push        {r4,lr}                                 
ram:0001b55a    0400            movs        r4,param_1                              
ram:0001b55c    0100            movs        r1,param_1                              
ram:0001b55e    0e48            ldr         param_1,[DAT_0001b598]                  ;= 20002424h
ram:0001b560    00f04cfd        bl          FUN_0001bffc                            ;undefined FUN_0001bffc(int param_1, ...
ram:0001b564    2388            ldrh        r3,[r4,#0x0]                            
ram:0001b566    102b            cmp         r3,#0x10                                
ram:0001b568    10d0            beq         LAB_0001b58c                            
ram:0001b56a    112b            cmp         r3,#0x11                                
ram:0001b56c    0dd1            bne         LAB_0001b58a                            
ram:0001b56e    0122            movs        r2,#0x1                                 
ram:0001b570    0a4b            ldr         r3=>DAT_20001ff8,[DAT_0001b59c]         ;= 20001FF8h
ram:0001b572    5242            rsbs        r2,r2                                   
ram:0001b574    1a80            strh        r2,[r3,#0x0]=>DAT_20001ff8              
ram:0001b576    00f07ff8        bl          FUN_0001b678                            ;byte FUN_0001b678(void)
ram:0001b57a    0028            cmp         param_1,#0x0                            
ram:0001b57c    01d0            beq         LAB_0001b582                            
ram:0001b57e    00f02dfa        bl          FUN_0001b9dc                            ;undefined FUN_0001b9dc(void)
                            LAB_0001b582:                 ;XREF[1,0]:   0001b57c
ram:0001b582    00f0b1f8        bl          FUN_0001b6e8                            ;undefined FUN_0001b6e8(void)
ram:0001b586    00f0c9fb        bl          FUN_0001bd1c                            ;undefined FUN_0001bd1c(void)
                            LAB_0001b58a:                 ;XREF[2,0]:   0001b56c,0001b596
ram:0001b58a    10bd            pop         {r4,pc}                                 
                            LAB_0001b58c:                 ;XREF[1,0]:   0001b568
ram:0001b58c    a488            ldrh        r4,[r4,#0x4]                            
ram:0001b58e    00f0b5f9        bl          FUN_0001b8fc                            ;undefined FUN_0001b8fc(void)
ram:0001b592    024b            ldr         r3,[DAT_0001b59c]                       ;= 20001FF8h
ram:0001b594    1c80            strh        r4,[r3,#0x0]=>DAT_20001ff8              
ram:0001b596    f8e7            b           LAB_0001b58a                            
                            DAT_0001b598:                 ;XREF[1,0]:   0001b55e
ram:0001b598    24240020        undefined4  20002424h                               
                            DAT_0001b59c:                 ;XREF[2,0]:   0001b570,0001b592
ram:0001b59c    f81f0020        undefined4  20001FF8h                               
                            ;************************************************************************************************
                            ;*                                           FUNCTION                                           *
                            ;************************************************************************************************
                            ;undefined FUN_0001b5a0(void)
          ;local_14      undefined2         -14                      ;XREF[1,0]:   0001b5f2
          ;local_2c      undefined4         -2c                      ;XREF[1,0]:   0001b5f4
          ;local_30      undefined2         -30                      ;XREF[1,0]:   0001b5ee
          ;local_34      undefined4         -34                      ;XREF[1,0]:   0001b5e0
          ;local_38      undefined2         -38                      ;XREF[1,0]:   0001b5e4
          ;local_4c      undefined4         -4c                      ;XREF[1,0]:   0001b5d4
          ;local_50      undefined2         -50                      ;XREF[1,0]:   0001b5d8
          ;local_54      undefined4         -54                      ;XREF[1,0]:   0001b5b2
                                                          ;XREF[1,0]:   0001b22c
ram:0001b5a0    30b5            push        {r4,r5,lr}                              
ram:0001b5a2    0021            movs        r1,#0x0                                 
ram:0001b5a4    93b0            sub         sp,#0x4c                                
ram:0001b5a6    1c48            ldr         r0=>s_GOBackpack...,[PTR_s_GOBackpack...;= "GOBackpack"
                                                                                    ;= 0001f6b4
ram:0001b5a8    00f0b4fc        bl          FUN_0001bf14                            ;undefined FUN_0001bf14(int param_1)
ram:0001b5ac    1b4b            ldr         r3=>LAB_0001b348...,[PTR_LAB_0001b348...;= 0001b349
ram:0001b5ae    01a9            add         r1,sp,#0x4                              
ram:0001b5b0    1b48            ldr         r0,[DAT_0001b620]                       ;= 20002424h
ram:0001b5b2    0193            str         r3=>LAB_0001b348+1+1,[sp,#local_54+0x58]
ram:0001b5b4    00f054fd        bl          FUN_0001c060                            ;int FUN_0001c060(undefined * param_1...
ram:0001b5b8    0028            cmp         r0,#0x0                                 
ram:0001b5ba    01d0            beq         LAB_0001b5c0                            
ram:0001b5bc    03f02cfb        bl          FUN_0001ec18                            ;undefined FUN_0001ec18(void)
                            LAB_0001b5c0:                 ;XREF[1,0]:   0001b5ba
ram:0001b5c0    02ac            add         r4,sp,#0x8                              
ram:0001b5c2    4022            movs        r2,#0x40                                
ram:0001b5c4    0021            movs        r1,#0x0                                 
ram:0001b5c6    2000            movs        r0,r4                                   
ram:0001b5c8    03f059ff        bl          FUN_0001f47e                            ;undefined FUN_0001f47e(undefined * p...
ram:0001b5cc    154d            ldr         r5,[PTR_s_Genius_Objects_0001b624]      ;= 0001f6c0
ram:0001b5ce    2800            movs        r0=>s_Genius_Objects_0001f6c0,r5        ;= "Genius Objects"
ram:0001b5d0    03f05dff        bl          FUN_0001f48e                            ;int FUN_0001f48e(int param_1)
ram:0001b5d4    6560            str         r5=>s_Genius_Obj...,[r4,#local_4c+0x50] ;= "Genius Objects"
ram:0001b5d6    144d            ldr         r5,[PTR_DAT_0001b628]                   ;= 0001f6d0
ram:0001b5d8    2080            strh        r0,[r4,#0x0]=>local_50                  
ram:0001b5da    2800            movs        r0=>DAT_0001f6d0,r5                     ;= 32h    2
ram:0001b5dc    03f057ff        bl          FUN_0001f48e                            ;int FUN_0001f48e(int param_1)
ram:0001b5e0    e561            str         r5=>DAT_0001f6d0,[r4,#local_34+0x50]    ;= 32h    2
ram:0001b5e2    124d            ldr         r5,[PTR_DAT_0001b62c]                   ;= 0001f6d4
ram:0001b5e4    2083            strh        r0,[r4,#local_38+0x50]                  
ram:0001b5e6    2800            movs        r0=>DAT_0001f6d4,r5                     ;= 31h    1
ram:0001b5e8    03f051ff        bl          FUN_0001f48e                            ;int FUN_0001f48e(int param_1)
ram:0001b5ec    1123            movs        r3,#0x11                                
ram:0001b5ee    2084            strh        r0,[r4,#local_30+0x50]                  
ram:0001b5f0    2000            movs        r0,r4                                   
ram:0001b5f2    a387            strh        r3,[r4,#local_14+0x50]                  
ram:0001b5f4    6562            str         r5=>DAT_0001f6d4,[r4,#local_2c+0x50]    ;= 31h    1
ram:0001b5f6    01f0ebff        bl          FUN_0001d5d0                            ;int FUN_0001d5d0(ushort * param_1)
ram:0001b5fa    00f001fc        bl          FUN_0001be00                            ;undefined FUN_0001be00(void)
ram:0001b5fe    0c48            ldr         r0,[DAT_0001b630]                       ;= 20001FFCh
ram:0001b600    00f0c0fc        bl          FUN_0001bf84                            ;undefined FUN_0001bf84(undefined4 pa...
ram:0001b604    00f080fa        bl          FUN_0001bb08                            ;undefined FUN_0001bb08(void)
ram:0001b608    00f086f8        bl          FUN_0001b718                            ;undefined FUN_0001b718(void)
ram:0001b60c    0949            ldr         r1=>FUN_0001b274+1,[PTR_FUN_0001b274+...;= 0001b275
ram:0001b60e    0a48            ldr         r0=>FUN_0001b2c0+1,[PTR_FUN_0001b2c0+...;= 0001b2c1
ram:0001b610    00f08efb        bl          FUN_0001bd30                            ;undefined FUN_0001bd30(undefined4 pa...
ram:0001b614    13b0            add         sp,#0x4c                                
ram:0001b616    30bd            pop         {r4,r5,pc}                              
                            PTR_s_GOBackpack_0001b618:    ;XREF[1,0]:   0001b5a6
ram:0001b618    b4f60100        addr        s_GOBackpack_0001f6b4                   ;= "GOBackpack"
                            PTR_LAB_0001b348+1+1_0001b61c:;XREF[1,0]:   0001b5ac
ram:0001b61c    49b30100        addr        LAB_0001b348+1+1                        
                            DAT_0001b620:                 ;XREF[1,0]:   0001b5b0
ram:0001b620    24240020        undefined4  20002424h                               
                            PTR_s_Genius_Objects_0001b624:;XREF[1,0]:   0001b5cc
ram:0001b624    c0f60100        addr        s_Genius_Objects_0001f6c0               ;= "Genius Objects"
                            PTR_DAT_0001b628:             ;XREF[1,0]:   0001b5d6
ram:0001b628    d0f60100        addr        DAT_0001f6d0                            ;= 32h    2
                            PTR_DAT_0001b62c:             ;XREF[1,0]:   0001b5e2
ram:0001b62c    d4f60100        addr        DAT_0001f6d4                            ;= 31h    1
                            DAT_0001b630:                 ;XREF[1,0]:   0001b5fe
ram:0001b630    fc1f0020        undefined4  20001FFCh                               
                            PTR_FUN_0001b274+1_0001b634:  ;XREF[1,0]:   0001b60c
ram:0001b634    75b20100        addr        FUN_0001b274+1                          
                            PTR_FUN_0001b2c0+1_0001b638:  ;XREF[1,0]:   0001b60e
ram:0001b638    c1b20100        addr        FUN_0001b2c0+1                          
                            ;************************************************************************************************
                            ;*                                           FUNCTION                                           *
                            ;************************************************************************************************
                            ;undefined FUN_0001b63c(void)
                                                          ;XREF[1,0]:   0001b2dc
ram:0001b63c    034b            ldr         r3,[DAT_0001b64c]                       ;= 20002445h
ram:0001b63e    0020            movs        r0,#0x0                                 
ram:0001b640    1b78            ldrb        r3,[r3,#0x0]=>DAT_20002445              
ram:0001b642    002b            cmp         r3,#0x0                                 
ram:0001b644    01d1            bne         LAB_0001b64a                            
ram:0001b646    024b            ldr         r3,[DAT_0001b650]                       ;= 20002443h
ram:0001b648    1878            ldrb        r0,[r3,#0x0]=>DAT_20002443              
                            LAB_0001b64a:                 ;XREF[1,0]:   0001b644
ram:0001b64a    7047            bx          lr                                      
                            DAT_0001b64c:                 ;XREF[1,0]:   0001b63c
ram:0001b64c    45240020        undefined4  20002445h                               
                            DAT_0001b650:                 ;XREF[1,0]:   0001b646
ram:0001b650    43240020        undefined4  20002443h                               
                            ;************************************************************************************************
                            ;*                                           FUNCTION                                           *
                            ;************************************************************************************************
                            ;undefined FUN_0001b654(void)
                                                          ;XREF[1,0]:   0001b31e
ram:0001b654    034b            ldr         r3,[DAT_0001b664]                       ;= 20002445h
ram:0001b656    0020            movs        r0,#0x0                                 
ram:0001b658    1b78            ldrb        r3,[r3,#0x0]=>DAT_20002445              
ram:0001b65a    002b            cmp         r3,#0x0                                 
ram:0001b65c    01d1            bne         LAB_0001b662                            
ram:0001b65e    024b            ldr         r3,[DAT_0001b668]                       ;= 20002441h
ram:0001b660    1878            ldrb        r0,[r3,#0x0]=>DAT_20002441              
                            LAB_0001b662:                 ;XREF[1,0]:   0001b65c
ram:0001b662    7047            bx          lr                                      
                            DAT_0001b664:                 ;XREF[1,0]:   0001b654
ram:0001b664    45240020        undefined4  20002445h                               
                            DAT_0001b668:                 ;XREF[1,0]:   0001b65e
ram:0001b668    41240020        undefined4  20002441h                               
                            ;************************************************************************************************
                            ;*                                           FUNCTION                                           *
                            ;************************************************************************************************
                            ;undefined FUN_0001b66c(void)
                                                          ;XREF[1,0]:   0001b2d0
ram:0001b66c    014b            ldr         r3,[DAT_0001b674]                       ;= 20002444h
ram:0001b66e    1878            ldrb        r0,[r3,#0x0]=>DAT_20002444              
ram:0001b670    7047            bx          lr                                      
ram:0001b672    c046            mov         r8,r8                                   
                            DAT_0001b674:                 ;XREF[1,0]:   0001b66c
ram:0001b674    44240020        undefined4  20002444h                               
                            ;************************************************************************************************
                            ;*                                           FUNCTION                                           *
                            ;************************************************************************************************
                            ;byte FUN_0001b678(void)
                                                          ;XREF[1,0]:   0001b576
ram:0001b678    064b            ldr         r3,[DAT_0001b694]                       ;= 20002442h
ram:0001b67a    1878            ldrb        r0,[r3,#0x0]=>DAT_20002442              
ram:0001b67c    0028            cmp         r0,#0x0                                 
ram:0001b67e    08d0            beq         LAB_0001b692                            
ram:0001b680    054b            ldr         r3,[DAT_0001b698]                       ;= 20002445h
ram:0001b682    0020            movs        r0,#0x0                                 
ram:0001b684    1b78            ldrb        r3,[r3,#0x0]=>DAT_20002445              
ram:0001b686    002b            cmp         r3,#0x0                                 
ram:0001b688    03d1            bne         LAB_0001b692                            
ram:0001b68a    044b            ldr         r3,[DAT_0001b69c]                       ;= 20002444h
ram:0001b68c    1878            ldrb        r0,[r3,#0x0]=>DAT_20002444              
ram:0001b68e    0123            movs        r3,#0x1                                 
ram:0001b690    5840            eors        r0,r3                                   
                            LAB_0001b692:                 ;XREF[2,0]:   0001b67e,0001b688
ram:0001b692    7047            bx          lr                                      
                            DAT_0001b694:                 ;XREF[1,0]:   0001b678
ram:0001b694    42240020        undefined4  20002442h                               
                            DAT_0001b698:                 ;XREF[1,0]:   0001b680
ram:0001b698    45240020        undefined4  20002445h                               
                            DAT_0001b69c:                 ;XREF[1,0]:   0001b68a
ram:0001b69c    44240020        undefined4  20002444h                               
                            ;************************************************************************************************
                            ;*                                           FUNCTION                                           *
                            ;************************************************************************************************
                            ;undefined FUN_0001b6a0(int param_1, undefined param_2)
          ;param_1       int                 r0                      
          ;param_2       undefined           r1                      
                                                          ;XREF[2,0]:   0001b3a2,0001b3c2
ram:0001b6a0    0028            cmp         param_1,#0x0                            
ram:0001b6a2    04d0            beq         LAB_0001b6ae                            
ram:0001b6a4    0128            cmp         param_1,#0x1                            
ram:0001b6a6    01d1            bne         LAB_0001b6ac                            
ram:0001b6a8    024b            ldr         r3,[DAT_0001b6b4]                       ;= 20002444h
ram:0001b6aa    1970            strb        param_2,[r3,#0x0]=>DAT_20002444         
                            LAB_0001b6ac:                 ;XREF[2,0]:   0001b6a6,0001b6b2
ram:0001b6ac    7047            bx          lr                                      
                            LAB_0001b6ae:                 ;XREF[1,0]:   0001b6a2
ram:0001b6ae    024b            ldr         r3,[DAT_0001b6b8]                       ;= 20002445h
ram:0001b6b0    1970            strb        param_2,[r3,#0x0]=>DAT_20002445         
ram:0001b6b2    fbe7            b           LAB_0001b6ac                            
                            DAT_0001b6b4:                 ;XREF[1,0]:   0001b6a8
ram:0001b6b4    44240020        undefined4  20002444h                               
                            DAT_0001b6b8:                 ;XREF[1,0]:   0001b6ae
ram:0001b6b8    45240020        undefined4  20002445h                               
                            ;************************************************************************************************
                            ;*                                           FUNCTION                                           *
                            ;************************************************************************************************
                            ;undefined FUN_0001b6bc(int param_1, undefined param_2)
          ;param_1       int                 r0                      
          ;param_2       undefined           r1                      
                                                          ;XREF[5,0]:   0001b380,0001b38c,0001b398,0001b3ac
                                                          ;             0001b3cc
ram:0001b6bc    0128            cmp         param_1,#0x1                            
ram:0001b6be    09d0            beq         LAB_0001b6d4                            
ram:0001b6c0    0028            cmp         param_1,#0x0                            
ram:0001b6c2    04d0            beq         LAB_0001b6ce                            
ram:0001b6c4    0228            cmp         param_1,#0x2                            
ram:0001b6c6    01d1            bne         LAB_0001b6cc                            
ram:0001b6c8    044b            ldr         r3,[DAT_0001b6dc]                       ;= 20002442h
ram:0001b6ca    1970            strb        param_2,[r3,#0x0]=>DAT_20002442         
                            LAB_0001b6cc:                 ;XREF[3,0]:   0001b6c6,0001b6d2,0001b6d8
ram:0001b6cc    7047            bx          lr                                      
                            LAB_0001b6ce:                 ;XREF[1,0]:   0001b6c2
ram:0001b6ce    044b            ldr         r3,[DAT_0001b6e0]                       ;= 20002443h
ram:0001b6d0    1970            strb        param_2,[r3,#0x0]=>DAT_20002443         
ram:0001b6d2    fbe7            b           LAB_0001b6cc                            
                            LAB_0001b6d4:                 ;XREF[1,0]:   0001b6be
ram:0001b6d4    034b            ldr         r3,[DAT_0001b6e4]                       ;= 20002441h
ram:0001b6d6    1970            strb        param_2,[r3,#0x0]=>DAT_20002441         
ram:0001b6d8    f8e7            b           LAB_0001b6cc                            
ram:0001b6da    c046            mov         r8,r8                                   
                            DAT_0001b6dc:                 ;XREF[1,0]:   0001b6c8
ram:0001b6dc    42240020        undefined4  20002442h                               
                            DAT_0001b6e0:                 ;XREF[1,0]:   0001b6ce
ram:0001b6e0    43240020        undefined4  20002443h                               
                            DAT_0001b6e4:                 ;XREF[1,0]:   0001b6d4
ram:0001b6e4    41240020        undefined4  20002441h                               
                            ;************************************************************************************************
                            ;*                                           FUNCTION                                           *
                            ;************************************************************************************************
                            ;undefined FUN_0001b6e8(void)
                                                          ;XREF[1,0]:   0001b582
ram:0001b6e8    0123            movs        r3,#0x1                                 
ram:0001b6ea    064a            ldr         r2,[DAT_0001b704]                       ;= 20002441h
ram:0001b6ec    1370            strb        r3,[r2,#0x0]=>DAT_20002441              
ram:0001b6ee    064a            ldr         r2,[DAT_0001b708]                       ;= 20002443h
ram:0001b6f0    1370            strb        r3,[r2,#0x0]=>DAT_20002443              
ram:0001b6f2    064a            ldr         r2,[DAT_0001b70c]                       ;= 20002442h
ram:0001b6f4    1370            strb        r3,[r2,#0x0]=>DAT_20002442              
ram:0001b6f6    0023            movs        r3,#0x0                                 
ram:0001b6f8    054a            ldr         r2,[DAT_0001b710]                       ;= 20002444h
ram:0001b6fa    1370            strb        r3,[r2,#0x0]=>DAT_20002444              
ram:0001b6fc    054a            ldr         r2,[DAT_0001b714]                       ;= 20002445h
ram:0001b6fe    1370            strb        r3,[r2,#0x0]=>DAT_20002445              
ram:0001b700    7047            bx          lr                                      
ram:0001b702    c046            mov         r8,r8                                   
                            DAT_0001b704:                 ;XREF[1,0]:   0001b6ea
ram:0001b704    41240020        undefined4  20002441h                               
                            DAT_0001b708:                 ;XREF[1,0]:   0001b6ee
ram:0001b708    43240020        undefined4  20002443h                               
                            DAT_0001b70c:                 ;XREF[1,0]:   0001b6f2
ram:0001b70c    42240020        undefined4  20002442h                               
                            DAT_0001b710:                 ;XREF[1,0]:   0001b6f8
ram:0001b710    44240020        undefined4  20002444h                               
                            DAT_0001b714:                 ;XREF[1,0]:   0001b6fc
ram:0001b714    45240020        undefined4  20002445h                               
                            ;************************************************************************************************
                            ;*                                           FUNCTION                                           *
                            ;************************************************************************************************
                            ;undefined FUN_0001b718(void)
                                                          ;XREF[1,0]:   0001b608
ram:0001b718    0123            movs        r3,#0x1                                 
ram:0001b71a    064a            ldr         r2,[DAT_0001b734]                       ;= 20002441h
ram:0001b71c    1370            strb        r3,[r2,#0x0]=>DAT_20002441              
ram:0001b71e    064a            ldr         r2,[DAT_0001b738]                       ;= 20002443h
ram:0001b720    1370            strb        r3,[r2,#0x0]=>DAT_20002443              
ram:0001b722    064a            ldr         r2,[DAT_0001b73c]                       ;= 20002442h
ram:0001b724    1370            strb        r3,[r2,#0x0]=>DAT_20002442              
ram:0001b726    0023            movs        r3,#0x0                                 
ram:0001b728    054a            ldr         r2,[DAT_0001b740]                       ;= 20002444h
ram:0001b72a    1370            strb        r3,[r2,#0x0]=>DAT_20002444              
ram:0001b72c    054a            ldr         r2,[DAT_0001b744]                       ;= 20002445h
ram:0001b72e    1370            strb        r3,[r2,#0x0]=>DAT_20002445              
ram:0001b730    7047            bx          lr                                      
ram:0001b732    c046            mov         r8,r8                                   
                            DAT_0001b734:                 ;XREF[1,0]:   0001b71a
ram:0001b734    41240020        undefined4  20002441h                               
                            DAT_0001b738:                 ;XREF[1,0]:   0001b71e
ram:0001b738    43240020        undefined4  20002443h                               
                            DAT_0001b73c:                 ;XREF[1,0]:   0001b722
ram:0001b73c    42240020        undefined4  20002442h                               
                            DAT_0001b740:                 ;XREF[1,0]:   0001b728
ram:0001b740    44240020        undefined4  20002444h                               
                            DAT_0001b744:                 ;XREF[1,0]:   0001b72c
ram:0001b744    45240020        undefined4  20002445h                               
                            ;************************************************************************************************
                            ;*                                           FUNCTION                                           *
                            ;************************************************************************************************
                            ;undefined LAB_0001b748+1(void)
                                                          ;XREF[0,2]:   0001b89a,0001b8e8
ram:0001b748    0e4b            ldr         r3,[DAT_0001b784]                       ;= 20002448h
ram:0001b74a    1b78            ldrb        r3,[r3,#0x0]=>DAT_20002448              
ram:0001b74c    002b            cmp         r3,#0x0                                 
ram:0001b74e    14d0            beq         LAB_0001b77a                            
ram:0001b750    a021            movs        r1,#0xa0                                
ram:0001b752    0d4b            ldr         r3,[DAT_0001b788]                       ;= 20002000h
ram:0001b754    c905            lsls        r1,r1,#0x17                             
ram:0001b756    1a78            ldrb        r2,[r3,#0x0]=>DAT_20002000              
ram:0001b758    002a            cmp         r2,#0x0                                 
ram:0001b75a    06d1            bne         LAB_0001b76a                            
ram:0001b75c    8020            movs        r0,#0x80                                
ram:0001b75e    0b4a            ldr         r2,[DAT_0001b78c]                       ;= 0000050Ch
ram:0001b760    8005            lsls        r0,r0,#0x16                             
ram:0001b762    8850            str         r0,[r1,r2]=>DAT_5000050c                
ram:0001b764    0122            movs        r2,#0x1                                 
ram:0001b766    1a70            strb        r2,[r3,#0x0]=>DAT_20002000              
                            LAB_0001b768:                 ;XREF[2,0]:   0001b778,0001b780
ram:0001b768    7047            bx          lr                                      
                            LAB_0001b76a:                 ;XREF[1,0]:   0001b75a
ram:0001b76a    a122            movs        r2,#0xa1                                
ram:0001b76c    8020            movs        r0,#0x80                                
ram:0001b76e    d200            lsls        r2,r2,#0x3                              
ram:0001b770    8005            lsls        r0,r0,#0x16                             
ram:0001b772    8850            str         r0,[r1,r2]=>DAT_50000508                
ram:0001b774    0022            movs        r2,#0x0                                 
ram:0001b776    1a70            strb        r2,[r3,#0x0]=>DAT_20002000              
ram:0001b778    f6e7            b           LAB_0001b768                            
                            LAB_0001b77a:                 ;XREF[1,0]:   0001b74e
ram:0001b77a    0122            movs        r2,#0x1                                 
ram:0001b77c    024b            ldr         r3,[DAT_0001b788]                       ;= 20002000h
ram:0001b77e    1a70            strb        r2,[r3,#0x0]=>DAT_20002000              
ram:0001b780    f2e7            b           LAB_0001b768                            
ram:0001b782    c046            mov         r8,r8                                   
                            DAT_0001b784:                 ;XREF[1,0]:   0001b748
ram:0001b784    48240020        undefined4  20002448h                               
                            DAT_0001b788:                 ;XREF[2,0]:   0001b752,0001b77c
ram:0001b788    00200020        undefined4  20002000h                               
                            DAT_0001b78c:                 ;XREF[1,0]:   0001b75e
ram:0001b78c    0c050000        undefined4  0000050Ch                               
                            ;************************************************************************************************
                            ;*                                           FUNCTION                                           *
                            ;************************************************************************************************
                            ;undefined FUN_0001b790(void)
                                                          ;XREF[0,2]:   0001b8a6,0001b8ec
ram:0001b790    10b5            push        {r4,lr}                                 
ram:0001b792    0e4b            ldr         r3,[DAT_0001b7cc]                       ;= 20002448h
ram:0001b794    1b78            ldrb        r3,[r3,#0x0]=>DAT_20002448              
ram:0001b796    002b            cmp         r3,#0x0                                 
ram:0001b798    00d1            bne         LAB_0001b79c                            
                            LAB_0001b79a:                 ;XREF[1,0]:   0001b7c4
ram:0001b79a    10bd            pop         {r4,pc}                                 
                            LAB_0001b79c:                 ;XREF[1,0]:   0001b798
ram:0001b79c    0c48            ldr         r0,[DAT_0001b7d0]                       ;= 2000248Ch
ram:0001b79e    03f0f7f9        bl          FUN_0001eb90                            ;undefined4 FUN_0001eb90(int param_1)
ram:0001b7a2    0c4b            ldr         r3,[DAT_0001b7d4]                       ;= 20002447h
ram:0001b7a4    1b78            ldrb        r3,[r3,#0x0]=>DAT_20002447              
ram:0001b7a6    032b            cmp         r3,#0x3                                 
ram:0001b7a8    0dd8            bhi         LAB_0001b7c6                            
ram:0001b7aa    0b4a            ldr         r2,[PTR_DAT_0001b7d8]                   ;= 0001f6d8
ram:0001b7ac    9b00            lsls        r3,r3,#0x2                              
ram:0001b7ae    9958            ldr         r1,[r3,r2]=>DAT_0001f6d8                
                            LAB_0001b7b0:                 ;XREF[1,0]:   0001b7ca
ram:0001b7b0    0022            movs        r2,#0x0                                 
ram:0001b7b2    0a48            ldr         r0,[DAT_0001b7dc]                       ;= 2000244Ch
ram:0001b7b4    03f08af9        bl          FUN_0001eacc                            ;undefined4 FUN_0001eacc(int param_1,...
ram:0001b7b8    a022            movs        r2,#0xa0                                
ram:0001b7ba    8021            movs        r1,#0x80                                
ram:0001b7bc    084b            ldr         r3,[DAT_0001b7e0]                       ;= 0000050Ch
ram:0001b7be    d205            lsls        r2,r2,#0x17                             
ram:0001b7c0    8905            lsls        r1,r1,#0x16                             
ram:0001b7c2    d150            str         r1,[r2,r3]=>DAT_5000050c                
ram:0001b7c4    e9e7            b           LAB_0001b79a                            
                            LAB_0001b7c6:                 ;XREF[1,0]:   0001b7a8
ram:0001b7c6    0121            movs        r1,#0x1                                 
ram:0001b7c8    4942            rsbs        r1,r1                                   
ram:0001b7ca    f1e7            b           LAB_0001b7b0                            
                            DAT_0001b7cc:                 ;XREF[1,0]:   0001b792
ram:0001b7cc    48240020        undefined4  20002448h                               
                            DAT_0001b7d0:                 ;XREF[1,0]:   0001b79c
ram:0001b7d0    8c240020        undefined4  2000248Ch                               
                            DAT_0001b7d4:                 ;XREF[1,0]:   0001b7a2
ram:0001b7d4    47240020        undefined4  20002447h                               
                            PTR_DAT_0001b7d8:             ;XREF[1,0]:   0001b7aa
ram:0001b7d8    d8f60100        addr        DAT_0001f6d8                            
                            DAT_0001b7dc:                 ;XREF[1,0]:   0001b7b2
ram:0001b7dc    4c240020        undefined4  2000244Ch                               
                            DAT_0001b7e0:                 ;XREF[1,0]:   0001b7bc
ram:0001b7e0    0c050000        undefined4  0000050Ch                               
                            ;************************************************************************************************
                            ;*                                           FUNCTION                                           *
                            ;************************************************************************************************
                            ;undefined FUN_0001b7e4(void)
                                                          ;XREF[0,2]:   0001b8b4,0001b8f4
ram:0001b7e4    70b5            push        {r4,r5,r6,lr}                           
ram:0001b7e6    1a4c            ldr         r4,[DAT_0001b850]                       ;= 20002448h
ram:0001b7e8    2378            ldrb        r3,[r4,#0x0]=>DAT_20002448              
ram:0001b7ea    002b            cmp         r3,#0x0                                 
ram:0001b7ec    00d1            bne         LAB_0001b7f0                            
                            LAB_0001b7ee:                 ;XREF[2,0]:   0001b824,0001b848
ram:0001b7ee    70bd            pop         {r4,r5,r6,pc}                           
                            LAB_0001b7f0:                 ;XREF[1,0]:   0001b7ec
ram:0001b7f0    184e            ldr         r6,[DAT_0001b854]                       ;= 20002446h
ram:0001b7f2    3578            ldrb        r5,[r6,#0x0]=>DAT_20002446              
ram:0001b7f4    002d            cmp         r5,#0x0                                 
ram:0001b7f6    16d0            beq         LAB_0001b826                            
ram:0001b7f8    174b            ldr         r3=>DAT_20002447,[DAT_0001b858]         ;= 20002447h
ram:0001b7fa    013d            subs        r5,#0x1                                 
ram:0001b7fc    1c78            ldrb        r4,[r3,#0x0]=>DAT_20002447              
ram:0001b7fe    0022            movs        r2,#0x0                                 
ram:0001b800    0821            movs        r1,#0x8                                 
ram:0001b802    1648            ldr         r0,[DAT_0001b85c]                       ;= 2000248Ch
ram:0001b804    3570            strb        r5,[r6,#0x0]=>DAT_20002446              
ram:0001b806    03f061f9        bl          FUN_0001eacc                            ;undefined4 FUN_0001eacc(int param_1,...
ram:0001b80a    022c            cmp         r4,#0x2                                 
ram:0001b80c    1dd9            bls         LAB_0001b84a                            
ram:0001b80e    033c            subs        r4,#0x3                                 
ram:0001b810    6142            rsbs        r1,r4                                   
ram:0001b812    6141            adcs        r1,r4                                   
ram:0001b814    124b            ldr         r3,[DAT_0001b860]                       ;= 00004001h
ram:0001b816    4942            rsbs        r1,r1                                   
ram:0001b818    1940            ands        r1,r3                                   
ram:0001b81a    0139            subs        r1,#0x1                                 
                            LAB_0001b81c:                 ;XREF[1,0]:   0001b84e
ram:0001b81c    0022            movs        r2,#0x0                                 
ram:0001b81e    1148            ldr         r0,[DAT_0001b864]                       ;= 2000246Ch
ram:0001b820    03f054f9        bl          FUN_0001eacc                            ;undefined4 FUN_0001eacc(int param_1,...
ram:0001b824    e3e7            b           LAB_0001b7ee                            
                            LAB_0001b826:                 ;XREF[1,0]:   0001b7f6
ram:0001b826    0d48            ldr         r0,[DAT_0001b85c]                       ;= 2000248Ch
ram:0001b828    03f0b2f9        bl          FUN_0001eb90                            ;undefined4 FUN_0001eb90(int param_1)
ram:0001b82c    0d48            ldr         r0,[DAT_0001b864]                       ;= 2000246Ch
ram:0001b82e    03f0aff9        bl          FUN_0001eb90                            ;undefined4 FUN_0001eb90(int param_1)
ram:0001b832    0d48            ldr         r0,[DAT_0001b868]                       ;= 2000244Ch
ram:0001b834    03f0acf9        bl          FUN_0001eb90                            ;undefined4 FUN_0001eb90(int param_1)
ram:0001b838    a022            movs        r2,#0xa0                                
ram:0001b83a    8021            movs        r1,#0x80                                
ram:0001b83c    0b4b            ldr         r3,[DAT_0001b86c]                       ;= 0000050Ch
ram:0001b83e    d205            lsls        r2,r2,#0x17                             
ram:0001b840    8905            lsls        r1,r1,#0x16                             
ram:0001b842    d150            str         r1,[r2,r3]=>DAT_5000050c                
ram:0001b844    3570            strb        r5,[r6,#0x0]=>DAT_20002446              
ram:0001b846    2570            strb        r5,[r4,#0x0]=>DAT_20002448              
ram:0001b848    d1e7            b           LAB_0001b7ee                            
                            LAB_0001b84a:                 ;XREF[1,0]:   0001b80c
ram:0001b84a    8021            movs        r1,#0x80                                
ram:0001b84c    0901            lsls        r1,r1,#0x4                              
ram:0001b84e    e5e7            b           LAB_0001b81c                            
                            DAT_0001b850:                 ;XREF[1,0]:   0001b7e6
ram:0001b850    48240020        undefined4  20002448h                               
                            DAT_0001b854:                 ;XREF[1,0]:   0001b7f0
ram:0001b854    46240020        undefined4  20002446h                               
                            DAT_0001b858:                 ;XREF[1,0]:   0001b7f8
ram:0001b858    47240020        undefined4  20002447h                               
                            DAT_0001b85c:                 ;XREF[2,0]:   0001b802,0001b826
ram:0001b85c    8c240020        undefined4  2000248Ch                               
                            DAT_0001b860:                 ;XREF[1,0]:   0001b814
ram:0001b860    01400000        undefined4  00004001h                               
                            DAT_0001b864:                 ;XREF[2,0]:   0001b81e,0001b82c
ram:0001b864    6c240020        undefined4  2000246Ch                               
                            DAT_0001b868:                 ;XREF[1,0]:   0001b832
ram:0001b868    4c240020        undefined4  2000244Ch                               
                            DAT_0001b86c:                 ;XREF[1,0]:   0001b83c
ram:0001b86c    0c050000        undefined4  0000050Ch                               
                            ;************************************************************************************************
                            ;*                                           FUNCTION                                           *
                            ;************************************************************************************************
                            ;undefined FUN_0001b870(void)
                                                          ;XREF[1,0]:   0001b228
ram:0001b870    a023            movs        r3,#0xa0                                
ram:0001b872    0322            movs        r2,#0x3                                 
ram:0001b874    1749            ldr         r1,[DAT_0001b8d4]                       ;= 00000714h
ram:0001b876    db05            lsls        r3,r3,#0x17                             
ram:0001b878    10b5            push        {r4,lr}                                 
ram:0001b87a    5a50            str         r2,[r3,r1]=>DAT_50000714                
ram:0001b87c    1649            ldr         r1,[DAT_0001b8d8]                       ;= 0000070Ch
ram:0001b87e    1748            ldr         r0=>DAT_0001f6f0,[PTR_DAT_0001b8dc]     ;= 8Ch
                                                                                    ;= 0001f6f0
ram:0001b880    5a50            str         r2,[r3,r1]=>DAT_5000070c                
ram:0001b882    1749            ldr         r1,[DAT_0001b8e0]                       ;= 00000774h
ram:0001b884    5a50            str         r2,[r3,r1]=>DAT_50000774                
ram:0001b886    a122            movs        r2,#0xa1                                
ram:0001b888    2021            movs        r1,#0x20                                
ram:0001b88a    d200            lsls        r2,r2,#0x3                              
ram:0001b88c    9950            str         r1,[r3,r2]=>DAT_50000508                
ram:0001b88e    154a            ldr         r2,[DAT_0001b8e4]                       ;= 0000050Ch
ram:0001b890    1839            subs        r1,#0x18                                
ram:0001b892    9950            str         r1,[r3,r2]=>DAT_5000050c                
ram:0001b894    8021            movs        r1,#0x80                                
ram:0001b896    8905            lsls        r1,r1,#0x16                             
ram:0001b898    9950            str         r1,[r3,r2]=>DAT_5000050c                
ram:0001b89a    134a            ldr         r2=>LAB_0001b748...,[PTR_LAB_0001b748...;= 0001b749
ram:0001b89c    0121            movs        r1,#0x1                                 
ram:0001b89e    03f0fff8        bl          FUN_0001eaa0                            ;undefined FUN_0001eaa0(int * param_1...
ram:0001b8a2    0028            cmp         r0,#0x0                                 
ram:0001b8a4    13d1            bne         LAB_0001b8ce                            
                            LAB_0001b8a6:                 ;XREF[1,0]:   0001b8d2
ram:0001b8a6    114a            ldr         r2=>FUN_0001b790+1,[PTR_FUN_0001b790+...;= 0001b791
ram:0001b8a8    0021            movs        r1,#0x0                                 
ram:0001b8aa    1148            ldr         r0=>DAT_0001f6ec,[PTR_DAT_0001b8f0]     ;= 6Ch    l
                                                                                    ;= 0001f6ec
ram:0001b8ac    03f0f8f8        bl          FUN_0001eaa0                            ;undefined FUN_0001eaa0(int * param_1...
ram:0001b8b0    0028            cmp         r0,#0x0                                 
ram:0001b8b2    09d1            bne         LAB_0001b8c8                            
                            LAB_0001b8b4:                 ;XREF[1,0]:   0001b8cc
ram:0001b8b4    0f4a            ldr         r2=>FUN_0001b7e4+1,[PTR_FUN_0001b7e4+...;= 0001b7e5
ram:0001b8b6    0021            movs        r1,#0x0                                 
ram:0001b8b8    0f48            ldr         r0=>DAT_0001f6e8,[PTR_DAT_0001b8f8]     ;= 4Ch    L
                                                                                    ;= 0001f6e8
ram:0001b8ba    03f0f1f8        bl          FUN_0001eaa0                            ;undefined FUN_0001eaa0(int * param_1...
ram:0001b8be    0028            cmp         r0,#0x0                                 
ram:0001b8c0    01d0            beq         LAB_0001b8c6                            
ram:0001b8c2    03f0a9f9        bl          FUN_0001ec18                            ;undefined FUN_0001ec18(void)
                            LAB_0001b8c6:                 ;XREF[1,0]:   0001b8c0
ram:0001b8c6    10bd            pop         {r4,pc}                                 
                            LAB_0001b8c8:                 ;XREF[1,0]:   0001b8b2
ram:0001b8c8    03f0a6f9        bl          FUN_0001ec18                            ;undefined FUN_0001ec18(void)
ram:0001b8cc    f2e7            b           LAB_0001b8b4                            
                            LAB_0001b8ce:                 ;XREF[1,0]:   0001b8a4
ram:0001b8ce    03f0a3f9        bl          FUN_0001ec18                            ;undefined FUN_0001ec18(void)
ram:0001b8d2    e8e7            b           LAB_0001b8a6                            
                            DAT_0001b8d4:                 ;XREF[1,0]:   0001b874
ram:0001b8d4    14070000        undefined4  00000714h                               
                            DAT_0001b8d8:                 ;XREF[1,0]:   0001b87c
ram:0001b8d8    0c070000        undefined4  0000070Ch                               
                            PTR_DAT_0001b8dc:             ;XREF[1,0]:   0001b87e
ram:0001b8dc    f0f60100        addr        DAT_0001f6f0                            ;= 8Ch
                            DAT_0001b8e0:                 ;XREF[1,0]:   0001b882
ram:0001b8e0    74070000        undefined4  00000774h                               
                            DAT_0001b8e4:                 ;XREF[1,0]:   0001b88e
ram:0001b8e4    0c050000        undefined4  0000050Ch                               
                            PTR_LAB_0001b748+1+1_0001b8e8:;XREF[1,0]:   0001b89a
ram:0001b8e8    49b70100        addr        LAB_0001b748+1+1                        
                            PTR_FUN_0001b790+1_0001b8ec:  ;XREF[1,0]:   0001b8a6
ram:0001b8ec    91b70100        addr        FUN_0001b790+1                          
                            PTR_DAT_0001b8f0:             ;XREF[1,0]:   0001b8aa
ram:0001b8f0    ecf60100        addr        DAT_0001f6ec                            ;= 6Ch    l
                            PTR_FUN_0001b7e4+1_0001b8f4:  ;XREF[1,0]:   0001b8b4
ram:0001b8f4    e5b70100        addr        FUN_0001b7e4+1                          
                            PTR_DAT_0001b8f8:             ;XREF[1,0]:   0001b8b8
ram:0001b8f8    e8f60100        addr        DAT_0001f6e8                            ;= 4Ch    L
                            ;************************************************************************************************
                            ;*                                           FUNCTION                                           *
                            ;************************************************************************************************
                            ;undefined FUN_0001b8fc(void)
                                                          ;XREF[3,0]:   0001b326,0001b330,0001b58e
ram:0001b8fc    10b5            push        {r4,lr}                                 
ram:0001b8fe    0c4c            ldr         r4,[DAT_0001b930]                       ;= 20002448h
ram:0001b900    2378            ldrb        r3,[r4,#0x0]=>DAT_20002448              
ram:0001b902    002b            cmp         r3,#0x0                                 
ram:0001b904    12d0            beq         LAB_0001b92c                            
ram:0001b906    0b48            ldr         r0,[DAT_0001b934]                       ;= 2000248Ch
ram:0001b908    03f042f9        bl          FUN_0001eb90                            ;undefined4 FUN_0001eb90(int param_1)
ram:0001b90c    0a48            ldr         r0,[DAT_0001b938]                       ;= 2000246Ch
ram:0001b90e    03f03ff9        bl          FUN_0001eb90                            ;undefined4 FUN_0001eb90(int param_1)
ram:0001b912    0a48            ldr         r0,[DAT_0001b93c]                       ;= 2000244Ch
ram:0001b914    03f03cf9        bl          FUN_0001eb90                            ;undefined4 FUN_0001eb90(int param_1)
ram:0001b918    a022            movs        r2,#0xa0                                
ram:0001b91a    8021            movs        r1,#0x80                                
ram:0001b91c    084b            ldr         r3,[DAT_0001b940]                       ;= 0000050Ch
ram:0001b91e    d205            lsls        r2,r2,#0x17                             
ram:0001b920    8905            lsls        r1,r1,#0x16                             
ram:0001b922    d150            str         r1,[r2,r3]=>DAT_5000050c                
ram:0001b924    0023            movs        r3,#0x0                                 
ram:0001b926    074a            ldr         r2,[DAT_0001b944]                       ;= 20002446h
ram:0001b928    2370            strb        r3,[r4,#0x0]=>DAT_20002448              
ram:0001b92a    1370            strb        r3,[r2,#0x0]=>DAT_20002446              
                            LAB_0001b92c:                 ;XREF[1,0]:   0001b904
ram:0001b92c    10bd            pop         {r4,pc}                                 
ram:0001b92e    c046            mov         r8,r8                                   
                            DAT_0001b930:                 ;XREF[1,0]:   0001b8fe
ram:0001b930    48240020        undefined4  20002448h                               
                            DAT_0001b934:                 ;XREF[1,0]:   0001b906
ram:0001b934    8c240020        undefined4  2000248Ch                               
                            DAT_0001b938:                 ;XREF[1,0]:   0001b90c
ram:0001b938    6c240020        undefined4  2000246Ch                               
                            DAT_0001b93c:                 ;XREF[1,0]:   0001b912
ram:0001b93c    4c240020        undefined4  2000244Ch                               
                            DAT_0001b940:                 ;XREF[1,0]:   0001b91c
ram:0001b940    0c050000        undefined4  0000050Ch                               
                            DAT_0001b944:                 ;XREF[1,0]:   0001b926
ram:0001b944    46240020        undefined4  20002446h                               
                            ;************************************************************************************************
                            ;*                                           FUNCTION                                           *
                            ;************************************************************************************************
                            ;undefined FUN_0001b948(int param_1, uint param_2)
          ;param_1       int                 r0                      
          ;param_2       uint                r1                      
                                                          ;XREF[2,0]:   0001b238,0001b45e
ram:0001b948    70b5            push        {r4,r5,r6,lr}                           
ram:0001b94a    1c4c            ldr         r4,[DAT_0001b9bc]                       ;= 20002448h
ram:0001b94c    0500            movs        r5,param_1                              
ram:0001b94e    2378            ldrb        r3,[r4,#0x0]=>DAT_20002448              
ram:0001b950    0e00            movs        r6,param_2                              
ram:0001b952    002b            cmp         r3,#0x0                                 
ram:0001b954    00d0            beq         LAB_0001b958                            
                            LAB_0001b956:                 ;XREF[2,0]:   0001b98e,0001b9b4
ram:0001b956    70bd            pop         {r4,r5,r6,pc}                           
                            LAB_0001b958:                 ;XREF[1,0]:   0001b954
ram:0001b958    0133            adds        r3,#0x1                                 
ram:0001b95a    2370            strb        r3,[r4,#0x0]=>DAT_20002448              
ram:0001b95c    0028            cmp         param_1,#0x0                            
ram:0001b95e    17d0            beq         LAB_0001b990                            
ram:0001b960    174b            ldr         r3,[DAT_0001b9c0]                       ;= 20002447h
ram:0001b962    013d            subs        r5,#0x1                                 
ram:0001b964    1970            strb        param_2,[r3,#0x0]=>DAT_20002447         
ram:0001b966    174b            ldr         r3=>DAT_20002446,[DAT_0001b9c4]         ;= 20002446h
ram:0001b968    0022            movs        r2,#0x0                                 
ram:0001b96a    0821            movs        param_2,#0x8                            
ram:0001b96c    1648            ldr         param_1,[DAT_0001b9c8]                  ;= 2000248Ch
ram:0001b96e    1d70            strb        r5,[r3,#0x0]=>DAT_20002446              
ram:0001b970    03f0acf8        bl          FUN_0001eacc                            ;undefined4 FUN_0001eacc(int param_1,...
ram:0001b974    022e            cmp         r6,#0x2                                 
ram:0001b976    1ed9            bls         LAB_0001b9b6                            
ram:0001b978    033e            subs        r6,#0x3                                 
ram:0001b97a    7142            rsbs        param_2,r6                              
ram:0001b97c    7141            adcs        param_2,r6                              
ram:0001b97e    134e            ldr         r6,[DAT_0001b9cc]                       ;= 00004001h
ram:0001b980    4942            rsbs        param_2,param_2                         
ram:0001b982    3140            ands        param_2,r6                              
ram:0001b984    0139            subs        param_2,#0x1                            
                            LAB_0001b986:                 ;XREF[1,0]:   0001b9ba
ram:0001b986    0022            movs        r2,#0x0                                 
ram:0001b988    1148            ldr         param_1,[DAT_0001b9d0]                  ;= 2000246Ch
ram:0001b98a    03f09ff8        bl          FUN_0001eacc                            ;undefined4 FUN_0001eacc(int param_1,...
ram:0001b98e    e2e7            b           LAB_0001b956                            
                            LAB_0001b990:                 ;XREF[1,0]:   0001b95e
ram:0001b990    0d48            ldr         param_1,[DAT_0001b9c8]                  ;= 2000248Ch
ram:0001b992    03f0fdf8        bl          FUN_0001eb90                            ;undefined4 FUN_0001eb90(int param_1)
ram:0001b996    0e48            ldr         param_1,[DAT_0001b9d0]                  ;= 2000246Ch
ram:0001b998    03f0faf8        bl          FUN_0001eb90                            ;undefined4 FUN_0001eb90(int param_1)
ram:0001b99c    0d48            ldr         param_1,[DAT_0001b9d4]                  ;= 2000244Ch
ram:0001b99e    03f0f7f8        bl          FUN_0001eb90                            ;undefined4 FUN_0001eb90(int param_1)
ram:0001b9a2    a022            movs        r2,#0xa0                                
ram:0001b9a4    8021            movs        param_2,#0x80                           
ram:0001b9a6    0c4b            ldr         r3,[DAT_0001b9d8]                       ;= 0000050Ch
ram:0001b9a8    d205            lsls        r2,r2,#0x17                             
ram:0001b9aa    8905            lsls        param_2,param_2,#0x16                   
ram:0001b9ac    d150            str         param_2,[r2,r3]=>DAT_5000050c           
ram:0001b9ae    054b            ldr         r3,[DAT_0001b9c4]                       ;= 20002446h
ram:0001b9b0    2570            strb        r5,[r4,#0x0]=>DAT_20002448              
ram:0001b9b2    1d70            strb        r5,[r3,#0x0]=>DAT_20002446              
ram:0001b9b4    cfe7            b           LAB_0001b956                            
                            LAB_0001b9b6:                 ;XREF[1,0]:   0001b976
ram:0001b9b6    8021            movs        param_2,#0x80                           
ram:0001b9b8    0901            lsls        param_2,param_2,#0x4                    
ram:0001b9ba    e4e7            b           LAB_0001b986                            
                            DAT_0001b9bc:                 ;XREF[1,0]:   0001b94a
ram:0001b9bc    48240020        undefined4  20002448h                               
                            DAT_0001b9c0:                 ;XREF[1,0]:   0001b960
ram:0001b9c0    47240020        undefined4  20002447h                               
                            DAT_0001b9c4:                 ;XREF[2,0]:   0001b966,0001b9ae
ram:0001b9c4    46240020        undefined4  20002446h                               
                            DAT_0001b9c8:                 ;XREF[2,0]:   0001b96c,0001b990
ram:0001b9c8    8c240020        undefined4  2000248Ch                               
                            DAT_0001b9cc:                 ;XREF[1,0]:   0001b97e
ram:0001b9cc    01400000        undefined4  00004001h                               
                            DAT_0001b9d0:                 ;XREF[2,0]:   0001b988,0001b996
ram:0001b9d0    6c240020        undefined4  2000246Ch                               
                            DAT_0001b9d4:                 ;XREF[1,0]:   0001b99c
ram:0001b9d4    4c240020        undefined4  2000244Ch                               
                            DAT_0001b9d8:                 ;XREF[1,0]:   0001b9a6
ram:0001b9d8    0c050000        undefined4  0000050Ch                               
                            ;************************************************************************************************
                            ;*                                           FUNCTION                                           *
                            ;************************************************************************************************
                            ;undefined FUN_0001b9dc(void)
                                                          ;XREF[1,0]:   0001b57e
ram:0001b9dc    70b5            push        {r4,r5,r6,lr}                           
ram:0001b9de    154c            ldr         r4,[DAT_0001ba34]                       ;= 20002448h
ram:0001b9e0    154e            ldr         r6,[DAT_0001ba38]                       ;= 2000248Ch
ram:0001b9e2    2378            ldrb        r3,[r4,#0x0]=>DAT_20002448              
ram:0001b9e4    002b            cmp         r3,#0x0                                 
ram:0001b9e6    14d1            bne         LAB_0001ba12                            
ram:0001b9e8    144d            ldr         r5,[DAT_0001ba3c]                       ;= 2000246Ch
                            LAB_0001b9ea:                 ;XREF[1,0]:   0001ba32
ram:0001b9ea    0123            movs        r3,#0x1                                 
ram:0001b9ec    0322            movs        r2,#0x3                                 
ram:0001b9ee    2370            strb        r3,[r4,#0x0]=>DAT_20002448              
ram:0001b9f0    134b            ldr         r3,[DAT_0001ba40]                       ;= 20002447h
ram:0001b9f2    3000            movs        r0,r6                                   
ram:0001b9f4    1a70            strb        r2,[r3,#0x0]=>DAT_20002447              
ram:0001b9f6    134b            ldr         r3=>DAT_20002446,[DAT_0001ba44]         ;= 20002446h
ram:0001b9f8    013a            subs        r2,#0x1                                 
ram:0001b9fa    1a70            strb        r2,[r3,#0x0]=>DAT_20002446              
ram:0001b9fc    0821            movs        r1,#0x8                                 
ram:0001b9fe    0022            movs        r2,#0x0                                 
ram:0001ba00    03f064f8        bl          FUN_0001eacc                            ;undefined4 FUN_0001eacc(int param_1,...
ram:0001ba04    8021            movs        r1,#0x80                                
ram:0001ba06    2800            movs        r0,r5                                   
ram:0001ba08    0022            movs        r2,#0x0                                 
ram:0001ba0a    c901            lsls        r1,r1,#0x7                              
ram:0001ba0c    03f05ef8        bl          FUN_0001eacc                            ;undefined4 FUN_0001eacc(int param_1,...
ram:0001ba10    70bd            pop         {r4,r5,r6,pc}                           
                            LAB_0001ba12:                 ;XREF[1,0]:   0001b9e6
ram:0001ba12    3000            movs        r0,r6                                   
ram:0001ba14    03f0bcf8        bl          FUN_0001eb90                            ;undefined4 FUN_0001eb90(int param_1)
ram:0001ba18    084d            ldr         r5,[DAT_0001ba3c]                       ;= 2000246Ch
ram:0001ba1a    2800            movs        r0,r5                                   
ram:0001ba1c    03f0b8f8        bl          FUN_0001eb90                            ;undefined4 FUN_0001eb90(int param_1)
ram:0001ba20    0948            ldr         r0,[DAT_0001ba48]                       ;= 2000244Ch
ram:0001ba22    03f0b5f8        bl          FUN_0001eb90                            ;undefined4 FUN_0001eb90(int param_1)
ram:0001ba26    a022            movs        r2,#0xa0                                
ram:0001ba28    8021            movs        r1,#0x80                                
ram:0001ba2a    084b            ldr         r3,[DAT_0001ba4c]                       ;= 0000050Ch
ram:0001ba2c    d205            lsls        r2,r2,#0x17                             
ram:0001ba2e    8905            lsls        r1,r1,#0x16                             
ram:0001ba30    d150            str         r1,[r2,r3]=>DAT_5000050c                
ram:0001ba32    dae7            b           LAB_0001b9ea                            
                            DAT_0001ba34:                 ;XREF[1,0]:   0001b9de
ram:0001ba34    48240020        undefined4  20002448h                               
                            DAT_0001ba38:                 ;XREF[1,0]:   0001b9e0
ram:0001ba38    8c240020        undefined4  2000248Ch                               
                            DAT_0001ba3c:                 ;XREF[2,0]:   0001b9e8,0001ba18
ram:0001ba3c    6c240020        undefined4  2000246Ch                               
                            DAT_0001ba40:                 ;XREF[1,0]:   0001b9f0
ram:0001ba40    47240020        undefined4  20002447h                               
                            DAT_0001ba44:                 ;XREF[1,0]:   0001b9f6
ram:0001ba44    46240020        undefined4  20002446h                               
                            DAT_0001ba48:                 ;XREF[1,0]:   0001ba20
ram:0001ba48    4c240020        undefined4  2000244Ch                               
                            DAT_0001ba4c:                 ;XREF[1,0]:   0001ba2a
ram:0001ba4c    0c050000        undefined4  0000050Ch                               
                            ;************************************************************************************************
                            ;*                                           FUNCTION                                           *
                            ;************************************************************************************************
                            ;undefined FUN_0001ba50(void)
                                                          ;XREF[1,0]:   0001b32a
ram:0001ba50    10b5            push        {r4,lr}                                 
ram:0001ba52    0b4a            ldr         r2,[DAT_0001ba80]                       ;= 20002448h
ram:0001ba54    1378            ldrb        r3,[r2,#0x0]=>DAT_20002448              
ram:0001ba56    002b            cmp         r3,#0x0                                 
ram:0001ba58    10d1            bne         LAB_0001ba7c                            
ram:0001ba5a    0121            movs        r1,#0x1                                 
ram:0001ba5c    1170            strb        r1,[r2,#0x0]=>DAT_20002448              
ram:0001ba5e    094a            ldr         r2,[DAT_0001ba84]                       ;= 20002447h
ram:0001ba60    0948            ldr         r0,[DAT_0001ba88]                       ;= 2000248Ch
ram:0001ba62    1370            strb        r3,[r2,#0x0]=>DAT_20002447              
ram:0001ba64    094b            ldr         r3=>DAT_20002446,[DAT_0001ba8c]         ;= 20002446h
ram:0001ba66    0022            movs        r2,#0x0                                 
ram:0001ba68    1970            strb        r1,[r3,#0x0]=>DAT_20002446              
ram:0001ba6a    0731            adds        r1,#0x7                                 
ram:0001ba6c    03f02ef8        bl          FUN_0001eacc                            ;undefined4 FUN_0001eacc(int param_1,...
ram:0001ba70    8021            movs        r1,#0x80                                
ram:0001ba72    0022            movs        r2,#0x0                                 
ram:0001ba74    0901            lsls        r1,r1,#0x4                              
ram:0001ba76    0648            ldr         r0,[DAT_0001ba90]                       ;= 2000246Ch
ram:0001ba78    03f028f8        bl          FUN_0001eacc                            ;undefined4 FUN_0001eacc(int param_1,...
                            LAB_0001ba7c:                 ;XREF[1,0]:   0001ba58
ram:0001ba7c    10bd            pop         {r4,pc}                                 
ram:0001ba7e    c046            mov         r8,r8                                   
                            DAT_0001ba80:                 ;XREF[1,0]:   0001ba52
ram:0001ba80    48240020        undefined4  20002448h                               
                            DAT_0001ba84:                 ;XREF[1,0]:   0001ba5e
ram:0001ba84    47240020        undefined4  20002447h                               
                            DAT_0001ba88:                 ;XREF[1,0]:   0001ba60
ram:0001ba88    8c240020        undefined4  2000248Ch                               
                            DAT_0001ba8c:                 ;XREF[1,0]:   0001ba64
ram:0001ba8c    46240020        undefined4  20002446h                               
                            DAT_0001ba90:                 ;XREF[1,0]:   0001ba76
ram:0001ba90    6c240020        undefined4  2000246Ch                               
                            ;************************************************************************************************
                            ;*                                           FUNCTION                                           *
                            ;************************************************************************************************
                            ;undefined FUN_0001ba94(void)
                                                          ;XREF[1,0]:   0001b334
ram:0001ba94    10b5            push        {r4,lr}                                 
ram:0001ba96    0b4b            ldr         r3,[DAT_0001bac4]                       ;= 20002448h
ram:0001ba98    1a78            ldrb        r2,[r3,#0x0]=>DAT_20002448              
ram:0001ba9a    002a            cmp         r2,#0x0                                 
ram:0001ba9c    11d1            bne         LAB_0001bac2                            
ram:0001ba9e    0132            adds        r2,#0x1                                 
ram:0001baa0    1a70            strb        r2,[r3,#0x0]=>DAT_20002448              
ram:0001baa2    094b            ldr         r3,[DAT_0001bac8]                       ;= 20002447h
ram:0001baa4    0821            movs        r1,#0x8                                 
ram:0001baa6    1a70            strb        r2,[r3,#0x0]=>DAT_20002447              
ram:0001baa8    084b            ldr         r3=>DAT_20002446,[DAT_0001bacc]         ;= 20002446h
ram:0001baaa    0a32            adds        r2,#0xa                                 
ram:0001baac    1a70            strb        r2,[r3,#0x0]=>DAT_20002446              
ram:0001baae    0848            ldr         r0,[DAT_0001bad0]                       ;= 2000248Ch
ram:0001bab0    0022            movs        r2,#0x0                                 
ram:0001bab2    03f00bf8        bl          FUN_0001eacc                            ;undefined4 FUN_0001eacc(int param_1,...
ram:0001bab6    8021            movs        r1,#0x80                                
ram:0001bab8    0022            movs        r2,#0x0                                 
ram:0001baba    0901            lsls        r1,r1,#0x4                              
ram:0001babc    0548            ldr         r0,[DAT_0001bad4]                       ;= 2000246Ch
ram:0001babe    03f005f8        bl          FUN_0001eacc                            ;undefined4 FUN_0001eacc(int param_1,...
                            LAB_0001bac2:                 ;XREF[1,0]:   0001ba9c
ram:0001bac2    10bd            pop         {r4,pc}                                 
                            DAT_0001bac4:                 ;XREF[1,0]:   0001ba96
ram:0001bac4    48240020        undefined4  20002448h                               
                            DAT_0001bac8:                 ;XREF[1,0]:   0001baa2
ram:0001bac8    47240020        undefined4  20002447h                               
                            DAT_0001bacc:                 ;XREF[1,0]:   0001baa8
ram:0001bacc    46240020        undefined4  20002446h                               
                            DAT_0001bad0:                 ;XREF[1,0]:   0001baae
ram:0001bad0    8c240020        undefined4  2000248Ch                               
                            DAT_0001bad4:                 ;XREF[1,0]:   0001babc
ram:0001bad4    6c240020        undefined4  2000246Ch                               
                            ;************************************************************************************************
                            ;*                                           FUNCTION                                           *
                            ;************************************************************************************************
                            ;ulonglong FUN_0001bad8(void)
                                                          ;XREF[1,0]:   0001b3d8
ram:0001bad8    10b5            push        {r4,lr}                                 
ram:0001bada    0020            movs        r0,#0x0                                 
ram:0001badc    02f048fc        bl          FUN_0001e370                            ;undefined4 FUN_0001e370(int param_1)
ram:0001bae0    084b            ldr         r3,[DAT_0001bb04]                       ;= FFFFFDABh
ram:0001bae2    5621            movs        r1,#0x56                                
ram:0001bae4    9c46            mov         r12,r3                                  
ram:0001bae6    6423            movs        r3,#0x64                                
ram:0001bae8    0004            lsls        r0,r0,#0x10                             
ram:0001baea    000c            lsrs        r0,r0,#0x10                             
ram:0001baec    6044            add         r0,r12                                  
ram:0001baee    5843            muls        r0,r3                                   
ram:0001baf0    ff31            adds        r1,#0xff                                
ram:0001baf2    03f0d5fc        bl          FUN_0001f4a0                            ;undefined8 FUN_0001f4a0(uint param_1...
ram:0001baf6    c0b2            uxtb        r0,r0                                   
ram:0001baf8    031c            adds        r3,r0,#0x0                              
ram:0001bafa    6428            cmp         r0,#0x64                                
ram:0001bafc    00d9            bls         LAB_0001bb00                            
ram:0001bafe    6423            movs        r3,#0x64                                
                            LAB_0001bb00:                 ;XREF[1,0]:   0001bafc
ram:0001bb00    d8b2            uxtb        r0,r3                                   
ram:0001bb02    10bd            pop         {r4,pc}                                 
                            DAT_0001bb04:                 ;XREF[1,0]:   0001bae0
ram:0001bb04    abfdffff        undefined4  FFFFFDABh                               
                            ;************************************************************************************************
                            ;*                                           FUNCTION                                           *
                            ;************************************************************************************************
                            ;undefined FUN_0001bb08(void)
          ;local_10      undefined4         -10                      ;XREF[1,0]:   0001bb14
                                                          ;XREF[1,0]:   0001b604
ram:0001bb08    10b5            push        {r4,lr}                                 
ram:0001bb0a    82b0            sub         sp,#0x8                                 
ram:0001bb0c    6846            mov         r0,sp                                   
ram:0001bb0e    0200            movs        r2,r0                                   
ram:0001bb10    034b            ldr         r3,[PTR_DAT_0001bb20]                   ;= 0001f6f4
                                                          ; FWD[3,0]:   0001f6f4,0001f6f8,0001f6fc
ram:0001bb12    12cb            ldmia       r3!=>DAT_0001f6fc,{r1,r4}=>DAT_0001f6f4 ;= 7Ch    |
                                                                                    ;= 00000602h
ram:0001bb14    12c2            stmia       r2!=>local_10,{r1,r4}                   
ram:0001bb16    02f001fc        bl          FUN_0001e31c                            ;undefined FUN_0001e31c(byte * param_1)
ram:0001bb1a    02b0            add         sp,#0x8                                 
ram:0001bb1c    10bd            pop         {r4,pc}                                 
ram:0001bb1e    c046            mov         r8,r8                                   
                            PTR_DAT_0001bb20:             ;XREF[1,0]:   0001bb10
ram:0001bb20    f4f60100        addr        DAT_0001f6f4                            ;= 00000602h
                            ;************************************************************************************************
                            ;*                                           FUNCTION                                           *
                            ;************************************************************************************************
                            ;undefined LAB_0001bb24+1(int param_1)
          ;param_1       int                 r0                      
                                                          ;XREF[0,3]:   0001bd7e,0001bd86,0001bde0
ram:0001bb24    70b5            push        {r4,r5,r6,lr}                           
ram:0001bb26    0400            movs        r4,param_1                              
ram:0001bb28    02f076f9        bl          FUN_0001de18                            ;undefined FUN_0001de18(int param_1)
ram:0001bb2c    0f49            ldr         r1,[DAT_0001bb6c]                       ;= 00000419h
ram:0001bb2e    2200            movs        r2,r4                                   
ram:0001bb30    0f48            ldr         param_1,[DAT_0001bb70]                  ;= 2000257Ch
ram:0001bb32    02f0cbff        bl          FUN_0001eacc                            ;undefined4 FUN_0001eacc(int param_1,...
ram:0001bb36    0f4b            ldr         r3,[DAT_0001bb74]                       ;= 2000253Ch
ram:0001bb38    185d            ldrb        param_1,[r3,r4]                         
ram:0001bb3a    0f4b            ldr         r3,[DAT_0001bb78]                       ;= 2000255Ch
ram:0001bb3c    195d            ldrb        r1,[r3,r4]                              
ram:0001bb3e    0f4b            ldr         r3,[DAT_0001bb7c]                       ;= 200025C0h
ram:0001bb40    1954            strb        r1,[r3,param_1]=>DAT_200025c0           
ram:0001bb42    0129            cmp         r1,#0x1                                 
ram:0001bb44    0bd0            beq         LAB_0001bb5e                            
ram:0001bb46    0e4a            ldr         r2=>DAT_200024b8,[DAT_0001bb80]         ;= 200024B8h
ram:0001bb48    4400            lsls        r4,param_1,#0x1                         
ram:0001bb4a    a35a            ldrh        r3,[r4,r2]=>DAT_200024b8                
ram:0001bb4c    0d4d            ldr         r5,[DAT_0001bb84]                       ;= 0000FFFFh
ram:0001bb4e    ab42            cmp         r3,r5                                   
ram:0001bb50    01d0            beq         LAB_0001bb56                            
                            LAB_0001bb52:                 ;XREF[1,0]:   0001bb68
ram:0001bb52    0133            adds        r3,#0x1                                 
                                                          ; FWD[2,0]:   200024ac,200024b8
ram:0001bb54    a352            strh        r3,[r4,r2]=>DAT_200024b8                
                            LAB_0001bb56:                 ;XREF[2,0]:   0001bb50,0001bb6a
ram:0001bb56    0c4b            ldr         r3,[DAT_0001bb88]                       ;= 200024B0h
ram:0001bb58    1b68            ldr         r3,[r3,#0x0]=>DAT_200024b0              
ram:0001bb5a    9847            blx         r3                                      
ram:0001bb5c    70bd            pop         {r4,r5,r6,pc}                           
                            LAB_0001bb5e:                 ;XREF[1,0]:   0001bb44
ram:0001bb5e    0b4a            ldr         r2=>DAT_200024ac,[DAT_0001bb8c]         ;= 200024ACh
ram:0001bb60    4400            lsls        r4,param_1,#0x1                         
ram:0001bb62    a35a            ldrh        r3,[r4,r2]=>DAT_200024ac                
ram:0001bb64    074d            ldr         r5,[DAT_0001bb84]                       ;= 0000FFFFh
ram:0001bb66    ab42            cmp         r3,r5                                   
ram:0001bb68    f3d1            bne         LAB_0001bb52                            
ram:0001bb6a    f4e7            b           LAB_0001bb56                            
                            DAT_0001bb6c:                 ;XREF[1,0]:   0001bb2c
ram:0001bb6c    19040000        undefined4  00000419h                               
                            DAT_0001bb70:                 ;XREF[1,0]:   0001bb30
ram:0001bb70    7c250020        undefined4  2000257Ch                               
                            DAT_0001bb74:                 ;XREF[1,0]:   0001bb36
ram:0001bb74    3c250020        undefined4  2000253Ch                               
                            DAT_0001bb78:                 ;XREF[1,0]:   0001bb3a
ram:0001bb78    5c250020        undefined4  2000255Ch                               
                            DAT_0001bb7c:                 ;XREF[1,0]:   0001bb3e
ram:0001bb7c    c0250020        undefined4  200025C0h                               
                            DAT_0001bb80:                 ;XREF[1,0]:   0001bb46
ram:0001bb80    b8240020        undefined4  200024B8h                               
                            DAT_0001bb84:                 ;XREF[2,0]:   0001bb4c,0001bb64
ram:0001bb84    ffff0000        undefined4  0000FFFFh                               
                            DAT_0001bb88:                 ;XREF[1,0]:   0001bb56
ram:0001bb88    b0240020        undefined4  200024B0h                               
                            DAT_0001bb8c:                 ;XREF[1,0]:   0001bb5e
ram:0001bb8c    ac240020        undefined4  200024ACh                               
                            ;************************************************************************************************
                            ;*                                           FUNCTION                                           *
                            ;************************************************************************************************
                            ;undefined FUN_0001bb90(void)
                                                          ;XREF[0,2]:   0001bd48,0001bdd0
ram:0001bb90    f0b5            push        {r4,r5,r6,r7,lr}                        
ram:0001bb92    d646            mov         lr,r10                                  
ram:0001bb94    4f46            mov         r7,r9                                   
ram:0001bb96    4646            mov         r6,r8                                   
ram:0001bb98    a024            movs        r4,#0xa0                                
ram:0001bb9a    a123            movs        r3,#0xa1                                
ram:0001bb9c    c0b5            push        {r6,r7,lr}                              
ram:0001bb9e    8027            movs        r7,#0x80                                
ram:0001bba0    314d            ldr         r5,[DAT_0001bc68]                       ;= 0001BB25h
ram:0001bba2    324e            ldr         r6,[DAT_0001bc6c]                       ;= 20002004h
ram:0001bba4    db00            lsls        r3,r3,#0x3                              
ram:0001bba6    e405            lsls        r4,r4,#0x17                             
ram:0001bba8    e750            str         r7,[r4,r3]=>DAT_50000508                
ram:0001bbaa    2a00            movs        r2,r5                                   
ram:0001bbac    3100            movs        r1,r6                                   
ram:0001bbae    0820            movs        r0,#0x8                                 
ram:0001bbb0    9846            mov         r8,r3                                   
ram:0001bbb2    01f0efff        bl          FUN_0001db94                            ;undefined4 FUN_0001db94(uint param_1...
ram:0001bbb6    2a00            movs        r2,r5                                   
ram:0001bbb8    3100            movs        r1,r6                                   
ram:0001bbba    0920            movs        r0,#0x9                                 
ram:0001bbbc    01f0eaff        bl          FUN_0001db94                            ;undefined4 FUN_0001db94(uint param_1...
ram:0001bbc0    a223            movs        r3,#0xa2                                
ram:0001bbc2    0121            movs        r1,#0x1                                 
ram:0001bbc4    db00            lsls        r3,r3,#0x3                              
ram:0001bbc6    e258            ldr         r2,[r4,r3]=>DAT_50000510                
ram:0001bbc8    8946            mov         r9,r1                                   
ram:0001bbca    d205            lsls        r2,r2,#0x17                             
ram:0001bbcc    03d5            bpl         LAB_0001bbd6                            
ram:0001bbce    e358            ldr         r3,[r4,r3]=>DAT_50000510                
ram:0001bbd0    5b0a            lsrs        r3,r3,#0x9                              
ram:0001bbd2    1942            tst         r1,r3                                   
ram:0001bbd4    15d1            bne         LAB_0001bc02                            
                            LAB_0001bbd6:                 ;XREF[1,0]:   0001bbcc
ram:0001bbd6    0820            movs        r0,#0x8                                 
ram:0001bbd8    02f04ef9        bl          FUN_0001de78                            ;undefined FUN_0001de78(int param_1)
ram:0001bbdc    0920            movs        r0,#0x9                                 
ram:0001bbde    02f04bf9        bl          FUN_0001de78                            ;undefined FUN_0001de78(int param_1)
ram:0001bbe2    a022            movs        r2,#0xa0                                
ram:0001bbe4    8021            movs        r1,#0x80                                
ram:0001bbe6    224b            ldr         r3,[DAT_0001bc70]                       ;= 0000050Ch
ram:0001bbe8    d205            lsls        r2,r2,#0x17                             
ram:0001bbea    d150            str         r1,[r2,r3]=>DAT_5000050c                
ram:0001bbec    e121            movs        r1,#0xe1                                
ram:0001bbee    0022            movs        r2,#0x0                                 
ram:0001bbf0    c904            lsls        r1,r1,#0x13                             
ram:0001bbf2    2048            ldr         r0,[DAT_0001bc74]                       ;= 2000259Ch
ram:0001bbf4    02f06aff        bl          FUN_0001eacc                            ;undefined4 FUN_0001eacc(int param_1,...
                            LAB_0001bbf8:                 ;XREF[2,0]:   0001bc2e,0001bc66
ram:0001bbf8    1cbc            pop         {r2,r3,r4}                              
ram:0001bbfa    9046            mov         r8,r2                                   
ram:0001bbfc    9946            mov         r9,r3                                   
ram:0001bbfe    a246            mov         r10,r4                                  
ram:0001bc00    f0bd            pop         {r4,r5,r6,r7,pc}                        
                            LAB_0001bc02:                 ;XREF[1,0]:   0001bbd4
ram:0001bc02    0820            movs        r0,#0x8                                 
ram:0001bc04    02f038f9        bl          FUN_0001de78                            ;undefined FUN_0001de78(int param_1)
ram:0001bc08    0920            movs        r0,#0x9                                 
ram:0001bc0a    02f035f9        bl          FUN_0001de78                            ;undefined FUN_0001de78(int param_1)
ram:0001bc0e    184b            ldr         r3,[DAT_0001bc70]                       ;= 0000050Ch
ram:0001bc10    e750            str         r7,[r4,r3]=>DAT_5000050c                
ram:0001bc12    194b            ldr         r3,[DAT_0001bc78]                       ;= 200024B4h
ram:0001bc14    9a46            mov         r10,r3                                  
ram:0001bc16    1b78            ldrb        r3,[r3,#0x0]=>DAT_200024b4              
ram:0001bc18    002b            cmp         r3,#0x0                                 
ram:0001bc1a    09d1            bne         LAB_0001bc30                            
ram:0001bc1c    e121            movs        r1,#0xe1                                
ram:0001bc1e    0022            movs        r2,#0x0                                 
ram:0001bc20    c904            lsls        r1,r1,#0x13                             
ram:0001bc22    1448            ldr         r0,[DAT_0001bc74]                       ;= 2000259Ch
ram:0001bc24    02f052ff        bl          FUN_0001eacc                            ;undefined4 FUN_0001eacc(int param_1,...
ram:0001bc28    5346            mov         r3,r10                                  
ram:0001bc2a    4a46            mov         r2,r9                                   
ram:0001bc2c    1a70            strb        r2,[r3,#0x0]=>DAT_200024b4              
ram:0001bc2e    e3e7            b           LAB_0001bbf8                            
                            LAB_0001bc30:                 ;XREF[1,0]:   0001bc1a
ram:0001bc30    4346            mov         r3,r8                                   
ram:0001bc32    2a00            movs        r2,r5                                   
ram:0001bc34    e750            str         r7,[r4,r3]=>DAT_50000508                
ram:0001bc36    3100            movs        r1,r6                                   
ram:0001bc38    0820            movs        r0,#0x8                                 
ram:0001bc3a    01f0abff        bl          FUN_0001db94                            ;undefined4 FUN_0001db94(uint param_1...
ram:0001bc3e    2a00            movs        r2,r5                                   
ram:0001bc40    3100            movs        r1,r6                                   
ram:0001bc42    0920            movs        r0,#0x9                                 
ram:0001bc44    01f0a6ff        bl          FUN_0001db94                            ;undefined4 FUN_0001db94(uint param_1...
ram:0001bc48    0121            movs        r1,#0x1                                 
ram:0001bc4a    0820            movs        r0,#0x8                                 
ram:0001bc4c    02f086f8        bl          FUN_0001dd5c                            ;undefined FUN_0001dd5c(uint param_1,...
ram:0001bc50    0121            movs        r1,#0x1                                 
ram:0001bc52    0920            movs        r0,#0x9                                 
ram:0001bc54    02f082f8        bl          FUN_0001dd5c                            ;undefined FUN_0001dd5c(uint param_1,...
ram:0001bc58    0023            movs        r3,#0x0                                 
ram:0001bc5a    5246            mov         r2=>DAT_200024b4,r10                    
ram:0001bc5c    1370            strb        r3,[r2,#0x0]=>DAT_200024b4              
ram:0001bc5e    074b            ldr         r3,[DAT_0001bc7c]                       ;= 200025BCh
ram:0001bc60    0020            movs        r0,#0x0                                 
ram:0001bc62    1b68            ldr         r3,[r3,#0x0]=>DAT_200025bc              
ram:0001bc64    9847            blx         r3                                      
ram:0001bc66    c7e7            b           LAB_0001bbf8                            
                            DAT_0001bc68:                 ;XREF[1,0]:   0001bba0
ram:0001bc68    25bb0100        undefined4  0001BB25h                               ;?  ->  0001bb25
                            DAT_0001bc6c:                 ;XREF[1,0]:   0001bba2
ram:0001bc6c    04200020        undefined4  20002004h                               
                            DAT_0001bc70:                 ;XREF[2,0]:   0001bbe6,0001bc0e
ram:0001bc70    0c050000        undefined4  0000050Ch                               
                            DAT_0001bc74:                 ;XREF[2,0]:   0001bbf2,0001bc22
ram:0001bc74    9c250020        undefined4  2000259Ch                               
                            DAT_0001bc78:                 ;XREF[1,0]:   0001bc12
ram:0001bc78    b4240020        undefined4  200024B4h                               
                            DAT_0001bc7c:                 ;XREF[1,0]:   0001bc5e
ram:0001bc7c    bc250020        undefined4  200025BCh                               
                            ;************************************************************************************************
                            ;*                                           FUNCTION                                           *
                            ;************************************************************************************************
                            ;undefined LAB_0001bc80+1(int param_1)
          ;param_1       int                 r0                      
                                                          ;XREF[0,2]:   0001bd38,0001bdc8
ram:0001bc80    10b5            push        {r4,lr}                                 
ram:0001bc82    a223            movs        r3,#0xa2                                
ram:0001bc84    a024            movs        r4,#0xa0                                
ram:0001bc86    db00            lsls        r3,r3,#0x3                              
ram:0001bc88    e405            lsls        r4,r4,#0x17                             
ram:0001bc8a    e258            ldr         r2,[r4,r3]=>DAT_50000510                
ram:0001bc8c    0121            movs        r1,#0x1                                 
ram:0001bc8e    d205            lsls        r2,r2,#0x17                             
ram:0001bc90    03d4            bmi         LAB_0001bc9a                            
ram:0001bc92    e358            ldr         r3,[r4,r3]=>DAT_50000510                
ram:0001bc94    5b0a            lsrs        r3,r3,#0x9                              
ram:0001bc96    1942            tst         r1,r3                                   
ram:0001bc98    06d0            beq         LAB_0001bca8                            
                            LAB_0001bc9a:                 ;XREF[1,0]:   0001bc90
ram:0001bc9a    0d4b            ldr         r3,[DAT_0001bcd0]                       ;= 200024BCh
ram:0001bc9c    8000            lsls        param_1,param_1,#0x2                    
ram:0001bc9e    c058            ldr         param_1,[param_1,r3]                    
ram:0001bca0    0121            movs        r1,#0x1                                 
ram:0001bca2    02f05bf8        bl          FUN_0001dd5c                            ;undefined FUN_0001dd5c(uint param_1,...
                            LAB_0001bca6:                 ;XREF[1,0]:   0001bcce
ram:0001bca6    10bd            pop         {r4,pc}                                 
                            LAB_0001bca8:                 ;XREF[1,0]:   0001bc98
ram:0001bca8    0820            movs        param_1,#0x8                            
ram:0001bcaa    02f0e5f8        bl          FUN_0001de78                            ;undefined FUN_0001de78(int param_1)
ram:0001bcae    0920            movs        param_1,#0x9                            
ram:0001bcb0    02f0e2f8        bl          FUN_0001de78                            ;undefined FUN_0001de78(int param_1)
ram:0001bcb4    8022            movs        r2,#0x80                                
ram:0001bcb6    e121            movs        r1,#0xe1                                
ram:0001bcb8    064b            ldr         r3,[DAT_0001bcd4]                       ;= 0000050Ch
ram:0001bcba    c904            lsls        r1,r1,#0x13                             
ram:0001bcbc    e250            str         r2,[r4,r3]=>DAT_5000050c                
ram:0001bcbe    0648            ldr         param_1,[DAT_0001bcd8]                  ;= 2000259Ch
ram:0001bcc0    0022            movs        r2,#0x0                                 
ram:0001bcc2    02f003ff        bl          FUN_0001eacc                            ;undefined4 FUN_0001eacc(int param_1,...
ram:0001bcc6    054b            ldr         r3,[DAT_0001bcdc]                       ;= 200025BCh
ram:0001bcc8    0120            movs        param_1,#0x1                            
ram:0001bcca    1b68            ldr         r3,[r3,#0x0]=>DAT_200025bc              
ram:0001bccc    9847            blx         r3                                      
ram:0001bcce    eae7            b           LAB_0001bca6                            
                            DAT_0001bcd0:                 ;XREF[1,0]:   0001bc9a
ram:0001bcd0    bc240020        undefined4  200024BCh                               
                            DAT_0001bcd4:                 ;XREF[1,0]:   0001bcb8
ram:0001bcd4    0c050000        undefined4  0000050Ch                               
                            DAT_0001bcd8:                 ;XREF[1,0]:   0001bcbe
ram:0001bcd8    9c250020        undefined4  2000259Ch                               
                            DAT_0001bcdc:                 ;XREF[1,0]:   0001bcc6
ram:0001bcdc    bc250020        undefined4  200025BCh                               
                            ;************************************************************************************************
                            ;*                                           FUNCTION                                           *
                            ;************************************************************************************************
                            ;undefined FUN_0001bce0(int param_1)
          ;param_1       int                 r0                      
                                                          ;XREF[1,0]:   0001b4c2
ram:0001bce0    014b            ldr         r3,[DAT_0001bce8]                       ;= 200025C0h
ram:0001bce2    185c            ldrb        param_1,[r3,param_1]=>DAT_200025c0      
ram:0001bce4    7047            bx          lr                                      
ram:0001bce6    c046            mov         r8,r8                                   
                            DAT_0001bce8:                 ;XREF[1,0]:   0001bce0
ram:0001bce8    c0250020        undefined4  200025C0h                               
                            ;************************************************************************************************
                            ;*                                           FUNCTION                                           *
                            ;************************************************************************************************
                            ;undefined2 FUN_0001bcec(int param_1)
          ;param_1       int                 r0                      
                                                          ;XREF[3,0]:   0001b46e,0001b500,0001b50a
ram:0001bcec    014b            ldr         r3,[DAT_0001bcf4]                       ;= 200024B8h
ram:0001bcee    4000            lsls        param_1,param_1,#0x1                    
ram:0001bcf0    185a            ldrh        param_1,[r3,param_1]=>DAT_200024b8      
ram:0001bcf2    7047            bx          lr                                      
                            DAT_0001bcf4:                 ;XREF[1,0]:   0001bcec
ram:0001bcf4    b8240020        undefined4  200024B8h                               
                            ;************************************************************************************************
                            ;*                                           FUNCTION                                           *
                            ;************************************************************************************************
                            ;undefined2 FUN_0001bcf8(int param_1)
          ;param_1       int                 r0                      
                                                          ;XREF[3,0]:   0001b47a,0001b488,0001b492
ram:0001bcf8    014b            ldr         r3,[DAT_0001bd00]                       ;= 200024ACh
ram:0001bcfa    4000            lsls        param_1,param_1,#0x1                    
ram:0001bcfc    185a            ldrh        param_1,[r3,param_1]=>DAT_200024ac      
ram:0001bcfe    7047            bx          lr                                      
                            DAT_0001bd00:                 ;XREF[1,0]:   0001bcf8
ram:0001bd00    ac240020        undefined4  200024ACh                               
                            ;************************************************************************************************
                            ;*                                           FUNCTION                                           *
                            ;************************************************************************************************
                            ;undefined FUN_0001bd04(int param_1)
          ;param_1       int                 r0                      
                                                          ;XREF[1,0]:   0001b4bc
ram:0001bd04    0023            movs        r3,#0x0                                 
ram:0001bd06    034a            ldr         r2,[DAT_0001bd14]                       ;= 200024B8h
ram:0001bd08    4000            lsls        param_1,param_1,#0x1                    
ram:0001bd0a    8352            strh        r3,[param_1,r2]=>DAT_200024b8           
ram:0001bd0c    024a            ldr         r2,[DAT_0001bd18]                       ;= 200024ACh
ram:0001bd0e    8352            strh        r3,[param_1,r2]=>DAT_200024ac           
ram:0001bd10    7047            bx          lr                                      
ram:0001bd12    c046            mov         r8,r8                                   
                            DAT_0001bd14:                 ;XREF[1,0]:   0001bd06
ram:0001bd14    b8240020        undefined4  200024B8h                               
                            DAT_0001bd18:                 ;XREF[1,0]:   0001bd0c
ram:0001bd18    ac240020        undefined4  200024ACh                               
                            ;************************************************************************************************
                            ;*                                           FUNCTION                                           *
                            ;************************************************************************************************
                            ;undefined FUN_0001bd1c(void)
                                                          ;XREF[1,0]:   0001b586
ram:0001bd1c    0023            movs        r3,#0x0                                 
ram:0001bd1e    024a            ldr         r2,[DAT_0001bd28]                       ;= 200024B8h
ram:0001bd20    1380            strh        r3,[r2,#0x0]=>DAT_200024b8              
ram:0001bd22    024a            ldr         r2,[DAT_0001bd2c]                       ;= 200024ACh
ram:0001bd24    1380            strh        r3,[r2,#0x0]=>DAT_200024ac              
ram:0001bd26    7047            bx          lr                                      
                            DAT_0001bd28:                 ;XREF[1,0]:   0001bd1e
ram:0001bd28    b8240020        undefined4  200024B8h                               
                            DAT_0001bd2c:                 ;XREF[1,0]:   0001bd22
ram:0001bd2c    ac240020        undefined4  200024ACh                               
                            ;************************************************************************************************
                            ;*                                           FUNCTION                                           *
                            ;************************************************************************************************
                            ;undefined FUN_0001bd30(undefined4 param_1, undefined4 param_2)
          ;param_1       undefined4          r0                      
          ;param_2       undefined4          r1                      
                                                          ;XREF[1,0]:   0001b610
ram:0001bd30    234b            ldr         r3,[DAT_0001bdc0]                       ;= 200024B0h
ram:0001bd32    70b5            push        {r4,r5,r6,lr}                           
ram:0001bd34    1860            str         param_1,[r3,#0x0]=>DAT_200024b0         
ram:0001bd36    234b            ldr         r3=>DAT_200025bc,[DAT_0001bdc4]         ;= 200025BCh
ram:0001bd38    234a            ldr         r2=>LAB_0001bc80...,[PTR_LAB_0001bc80...;= 0001bc81
ram:0001bd3a    1960            str         param_2,[r3,#0x0]=>DAT_200025bc         
ram:0001bd3c    2348            ldr         param_1=>DAT_0001f6fc,[PTR_DAT_0001bdcc];= 7Ch    |
                                                                                    ;= 0001f6fc
ram:0001bd3e    0021            movs        param_2,#0x0                            
ram:0001bd40    02f0aefe        bl          FUN_0001eaa0                            ;undefined FUN_0001eaa0(int * param_1...
ram:0001bd44    0028            cmp         param_1,#0x0                            
ram:0001bd46    37d1            bne         LAB_0001bdb8                            
                            LAB_0001bd48:                 ;XREF[1,0]:   0001bdbc
ram:0001bd48    214a            ldr         r2=>FUN_0001bb90+1,[PTR_FUN_0001bb90+...;= 0001bb91
ram:0001bd4a    0021            movs        param_2,#0x0                            
ram:0001bd4c    2148            ldr         param_1=>DAT_0001f700,[PTR_DAT_0001bdd4];= 9Ch
                                                                                    ;= 0001f700
ram:0001bd4e    02f0a7fe        bl          FUN_0001eaa0                            ;undefined FUN_0001eaa0(int * param_1...
ram:0001bd52    0028            cmp         param_1,#0x0                            
ram:0001bd54    01d0            beq         LAB_0001bd5a                            
ram:0001bd56    02f05fff        bl          FUN_0001ec18                            ;undefined FUN_0001ec18(void)
                            LAB_0001bd5a:                 ;XREF[1,0]:   0001bd54
ram:0001bd5a    a023            movs        r3,#0xa0                                
ram:0001bd5c    0322            movs        r2,#0x3                                 
ram:0001bd5e    1e49            ldr         param_2,[DAT_0001bdd8]                  ;= 0000071Ch
ram:0001bd60    db05            lsls        r3,r3,#0x17                             
ram:0001bd62    5a50            str         r2,[r3,param_2]=>DAT_5000071c           
ram:0001bd64    a121            movs        param_2,#0xa1                           
ram:0001bd66    8020            movs        param_1,#0x80                           
ram:0001bd68    c900            lsls        param_2,param_2,#0x3                    
ram:0001bd6a    5850            str         param_1,[r3,param_2]=>DAT_50000508      
ram:0001bd6c    1b49            ldr         param_2,[DAT_0001bddc]                  ;= 0000073Ch
ram:0001bd6e    1c4d            ldr         r5,[PTR_LAB_0001bb24+1+1_0001bde0]      ;= 0001bb25
ram:0001bd70    5a50            str         r2,[r3,param_2]=>DAT_5000073c           
ram:0001bd72    8021            movs        param_2,#0x80                           
ram:0001bd74    1b4c            ldr         r4,[DAT_0001bde4]                       ;= 20002004h
ram:0001bd76    1c4a            ldr         r2,[DAT_0001bde8]                       ;= 0000050Ch
ram:0001bd78    0902            lsls        param_2,param_2,#0x8                    
ram:0001bd7a    9950            str         param_2,[r3,r2]=>DAT_5000050c           
ram:0001bd7c    7838            subs        param_1,#0x78                           
ram:0001bd7e    2a00            movs        r2=>LAB_0001bb24+1+1,r5                 
ram:0001bd80    2100            movs        param_2,r4                              
ram:0001bd82    01f007ff        bl          FUN_0001db94                            ;undefined4 FUN_0001db94(uint param_1...
ram:0001bd86    2a00            movs        r2=>LAB_0001bb24+1+1,r5                 
ram:0001bd88    2100            movs        param_2,r4                              
ram:0001bd8a    0920            movs        param_1,#0x9                            
ram:0001bd8c    01f002ff        bl          FUN_0001db94                            ;undefined4 FUN_0001db94(uint param_1...
ram:0001bd90    0121            movs        param_2,#0x1                            
ram:0001bd92    0820            movs        param_1,#0x8                            
ram:0001bd94    01f0e2ff        bl          FUN_0001dd5c                            ;undefined FUN_0001dd5c(uint param_1,...
ram:0001bd98    0922            movs        r2,#0x9                                 
ram:0001bd9a    144b            ldr         r3,[DAT_0001bdec]                       ;= 200024BCh
ram:0001bd9c    0021            movs        param_2,#0x0                            
ram:0001bd9e    1a62            str         r2,[r3,#0x20]=>DAT_200024dc             
ram:0001bda0    013a            subs        r2,#0x1                                 
ram:0001bda2    5a62            str         r2,[r3,#0x24]=>DAT_200024e0             
ram:0001bda4    0023            movs        r3,#0x0                                 
ram:0001bda6    124a            ldr         r2,[DAT_0001bdf0]                       ;= 2000253Ch
ram:0001bda8    1181            strh        param_2,[r2,#0x8]=>DAT_20002544         
ram:0001bdaa    124a            ldr         r2,[DAT_0001bdf4]                       ;= 2000255Ch
ram:0001bdac    0131            adds        param_2,#0x1                            
ram:0001bdae    1172            strb        param_2,[r2,#0x8]=>DAT_20002564         
ram:0001bdb0    5372            strb        r3,[r2,#0x9]=>DAT_20002565              
ram:0001bdb2    114a            ldr         r2,[DAT_0001bdf8]                       ;= 200025C0h
ram:0001bdb4    1370            strb        r3,[r2,#0x0]=>DAT_200025c0              
ram:0001bdb6    70bd            pop         {r4,r5,r6,pc}                           
                            LAB_0001bdb8:                 ;XREF[1,0]:   0001bd46
ram:0001bdb8    02f02eff        bl          FUN_0001ec18                            ;undefined FUN_0001ec18(void)
ram:0001bdbc    c4e7            b           LAB_0001bd48                            
ram:0001bdbe    c046            mov         r8,r8                                   
                            DAT_0001bdc0:                 ;XREF[1,0]:   0001bd30
ram:0001bdc0    b0240020        undefined4  200024B0h                               
                            DAT_0001bdc4:                 ;XREF[1,0]:   0001bd36
ram:0001bdc4    bc250020        undefined4  200025BCh                               
                            PTR_LAB_0001bc80+1+1_0001bdc8:;XREF[1,0]:   0001bd38
ram:0001bdc8    81bc0100        addr        LAB_0001bc80+1+1                        
                            PTR_DAT_0001bdcc:             ;XREF[1,0]:   0001bd3c
ram:0001bdcc    fcf60100        addr        DAT_0001f6fc                            ;= 7Ch    |
                            PTR_FUN_0001bb90+1_0001bdd0:  ;XREF[1,0]:   0001bd48
ram:0001bdd0    91bb0100        addr        FUN_0001bb90+1                          
                            PTR_DAT_0001bdd4:             ;XREF[1,0]:   0001bd4c
ram:0001bdd4    00f70100        addr        DAT_0001f700                            ;= 9Ch
                            DAT_0001bdd8:                 ;XREF[1,0]:   0001bd5e
ram:0001bdd8    1c070000        undefined4  0000071Ch                               
                            DAT_0001bddc:                 ;XREF[1,0]:   0001bd6c
ram:0001bddc    3c070000        undefined4  0000073Ch                               
                            PTR_LAB_0001bb24+1+1_0001bde0:;XREF[1,0]:   0001bd6e
ram:0001bde0    25bb0100        addr        LAB_0001bb24+1+1                        
                            DAT_0001bde4:                 ;XREF[1,0]:   0001bd74
ram:0001bde4    04200020        undefined4  20002004h                               
                            DAT_0001bde8:                 ;XREF[1,0]:   0001bd76
ram:0001bde8    0c050000        undefined4  0000050Ch                               
                            DAT_0001bdec:                 ;XREF[1,0]:   0001bd9a
ram:0001bdec    bc240020        undefined4  200024BCh                               
                            DAT_0001bdf0:                 ;XREF[1,0]:   0001bda6
ram:0001bdf0    3c250020        undefined4  2000253Ch                               
                            DAT_0001bdf4:                 ;XREF[1,0]:   0001bdaa
ram:0001bdf4    5c250020        undefined4  2000255Ch                               
                            DAT_0001bdf8:                 ;XREF[1,0]:   0001bdb2
ram:0001bdf8    c0250020        undefined4  200025C0h                               
ram:0001bdfc    70              ??          70h    p                                
ram:0001bdfd    47              ??          47h    G                                
ram:0001bdfe    c0              ??          C0h                                     
ram:0001bdff    46              ??          46h    F                                
                            ;************************************************************************************************
                            ;*                                           FUNCTION                                           *
                            ;************************************************************************************************
                            ;undefined FUN_0001be00(void)
                                                          ;XREF[1,0]:   0001b5fa
ram:0001be00    10b5            push        {r4,lr}                                 
ram:0001be02    0448            ldr         r0,[DAT_0001be14]                       ;= 20002008h
ram:0001be04    01f00cfa        bl          FUN_0001d220                            ;undefined FUN_0001d220(int * param_1)
ram:0001be08    0028            cmp         r0,#0x0                                 
ram:0001be0a    01d0            beq         LAB_0001be10                            
ram:0001be0c    02f004ff        bl          FUN_0001ec18                            ;undefined FUN_0001ec18(void)
                            LAB_0001be10:                 ;XREF[1,0]:   0001be0a
ram:0001be10    10bd            pop         {r4,pc}                                 
ram:0001be12    c046            mov         r8,r8                                   
                            DAT_0001be14:                 ;XREF[1,0]:   0001be02
ram:0001be14    08200020        undefined4  20002008h                               
                            ;************************************************************************************************
                            ;*                                           FUNCTION                                           *
                            ;************************************************************************************************
                            ;undefined FUN_0001be18(void)
                                                          ;XREF[1,0]:   0001beac
ram:0001be18    3bdf            svc         0x3b                                    
ram:0001be1a    7047            bx          lr                                      
                            ;************************************************************************************************
                            ;*                                           FUNCTION                                           *
                            ;************************************************************************************************
                            ;undefined FUN_0001be1c(void)
                                                          ;XREF[1,0]:   0001be7e
ram:0001be1c    3cdf            svc         0x3c                                    
ram:0001be1e    7047            bx          lr                                      
                            ;************************************************************************************************
                            ;*                                           FUNCTION                                           *
                            ;************************************************************************************************
                            ;undefined FUN_0001be20(void)
                                                          ;XREF[1,0]:   0001be50
ram:0001be20    44df            svc         0x44                                    
ram:0001be22    7047            bx          lr                                      
                            ;************************************************************************************************
                            ;*                                           FUNCTION                                           *
                            ;************************************************************************************************
                            ;undefined FUN_0001be24(void)
                                                          ;XREF[2,0]:   0001be98,0001beb6
ram:0001be24    47df            svc         0x47                                    
ram:0001be26    7047            bx          lr                                      
                            ;************************************************************************************************
                            ;*                                           FUNCTION                                           *
                            ;************************************************************************************************
                            ;undefined FUN_0001be28(void)
                                                          ;XREF[1,0]:   0001bece
ram:0001be28    48df            svc         0x48                                    
ram:0001be2a    7047            bx          lr                                      
                            ;************************************************************************************************
                            ;*                                           FUNCTION                                           *
                            ;************************************************************************************************
                            ;undefined LAB_0001be2c+1(void)
                                                          ;XREF[0,2]:   0001bede,0001bf00
ram:0001be2c    7047            bx          lr                                      
ram:0001be2e    c046            mov         r8,r8                                   
                            ;************************************************************************************************
                            ;*                                           FUNCTION                                           *
                            ;************************************************************************************************
                            ;undefined FUN_0001be30(void)
                                                          ;XREF[1,0]:   0001b4f4
ram:0001be30    bff34f8f        dsb         0xf                                     
ram:0001be34    034b            ldr         r3,[DAT_0001be44]                       ;= E000ED00h
ram:0001be36    044a            ldr         r2,[DAT_0001be48]                       ;= 05FA0004h
ram:0001be38    da60            str         r2,[r3,#offset DAT_e000ed0c &0xff]      
ram:0001be3a    bff34f8f        dsb         0xf                                     
                            LAB_0001be3e:                 ;XREF[1,0]:   0001be40
ram:0001be3e    c046            mov         r8,r8                                   
ram:0001be40    fde7            b           LAB_0001be3e                            
ram:0001be42    c046            mov         r8,r8                                   
                            DAT_0001be44:                 ;XREF[1,0]:   0001be34
ram:0001be44    00ed00e0        undefined4  E000ED00h                               
                            DAT_0001be48:                 ;XREF[1,0]:   0001be36
ram:0001be48    0400fa05        undefined4  05FA0004h                               
                            ;************************************************************************************************
                            ;*                                           FUNCTION                                           *
                            ;************************************************************************************************
                            ;undefined FUN_0001be4c(void)
                                                          ;XREF[1,0]:   0001b454
ram:0001be4c    10b5            push        {r4,lr}                                 
ram:0001be4e    b120            movs        r0,#0xb1                                
ram:0001be50    fff7e6ff        bl          FUN_0001be20                            ;undefined FUN_0001be20(void)
ram:0001be54    0028            cmp         r0,#0x0                                 
ram:0001be56    00d0            beq         LAB_0001be5a                            
ram:0001be58    10bd            pop         {r4,pc}                                 
                            LAB_0001be5a:                 ;XREF[1,0]:   0001be56
ram:0001be5a    bff34f8f        dsb         0xf                                     
ram:0001be5e    034b            ldr         r3,[DAT_0001be6c]                       ;= E000ED00h
ram:0001be60    034a            ldr         r2,[DAT_0001be70]                       ;= 05FA0004h
ram:0001be62    da60            str         r2,[r3,#offset DAT_e000ed0c &0xff]      
ram:0001be64    bff34f8f        dsb         0xf                                     
                            LAB_0001be68:                 ;XREF[1,0]:   0001be6a
ram:0001be68    c046            mov         r8,r8                                   
ram:0001be6a    fde7            b           LAB_0001be68                            
                            DAT_0001be6c:                 ;XREF[1,0]:   0001be5e
ram:0001be6c    00ed00e0        undefined4  E000ED00h                               
                            DAT_0001be70:                 ;XREF[1,0]:   0001be60
ram:0001be70    0400fa05        undefined4  05FA0004h                               
                            ;************************************************************************************************
                            ;*                                           FUNCTION                                           *
                            ;************************************************************************************************
                            ;undefined FUN_0001be74(void)
                                                          ;XREF[2,0]:   0001b3d2,0001b536
ram:0001be74    10b5            push        {r4,lr}                                 
ram:0001be76    01f00ffe        bl          FUN_0001da98                            ;bool FUN_0001da98(void)
ram:0001be7a    0028            cmp         r0,#0x0                                 
ram:0001be7c    06d1            bne         LAB_0001be8c                            
                            LAB_0001be7e:                 ;XREF[1,0]:   0001be90
ram:0001be7e    fff7cdff        bl          FUN_0001be1c                            ;undefined FUN_0001be1c(void)
ram:0001be82    0028            cmp         r0,#0x0                                 
ram:0001be84    01d0            beq         LAB_0001be8a                            
ram:0001be86    02f0c7fe        bl          FUN_0001ec18                            ;undefined FUN_0001ec18(void)
                            LAB_0001be8a:                 ;XREF[1,0]:   0001be84
ram:0001be8a    10bd            pop         {r4,pc}                                 
                            LAB_0001be8c:                 ;XREF[1,0]:   0001be7c
ram:0001be8c    01f00efe        bl          FUN_0001daac                            ;undefined FUN_0001daac(void)
ram:0001be90    f5e7            b           LAB_0001be7e                            
ram:0001be92    c046            mov         r8,r8                                   
                            ;************************************************************************************************
                            ;*                                           FUNCTION                                           *
                            ;************************************************************************************************
                            ;undefined FUN_0001be94(void)
                                                          ;XREF[1,0]:   0001b53c
ram:0001be94    10b5            push        {r4,lr}                                 
ram:0001be96    0020            movs        r0,#0x0                                 
ram:0001be98    fff7c4ff        bl          FUN_0001be24                            ;undefined FUN_0001be24(void)
ram:0001be9c    0028            cmp         r0,#0x0                                 
ram:0001be9e    01d0            beq         LAB_0001bea4                            
ram:0001bea0    02f0bafe        bl          FUN_0001ec18                            ;undefined FUN_0001ec18(void)
                            LAB_0001bea4:                 ;XREF[1,0]:   0001be9e
ram:0001bea4    10bd            pop         {r4,pc}                                 
ram:0001bea6    c046            mov         r8,r8                                   
                            ;************************************************************************************************
                            ;*                                           FUNCTION                                           *
                            ;************************************************************************************************
                            ;undefined FUN_0001bea8(void)
                                                          ;XREF[1,0]:   0001b230
ram:0001bea8    10b5            push        {r4,lr}                                 
ram:0001beaa    0120            movs        r0,#0x1                                 
ram:0001beac    fff7b4ff        bl          FUN_0001be18                            ;undefined FUN_0001be18(void)
ram:0001beb0    0028            cmp         r0,#0x0                                 
ram:0001beb2    07d1            bne         LAB_0001bec4                            
                            LAB_0001beb4:                 ;XREF[1,0]:   0001bec8
ram:0001beb4    0120            movs        r0,#0x1                                 
ram:0001beb6    fff7b5ff        bl          FUN_0001be24                            ;undefined FUN_0001be24(void)
ram:0001beba    0028            cmp         r0,#0x0                                 
ram:0001bebc    01d0            beq         LAB_0001bec2                            
ram:0001bebe    02f0abfe        bl          FUN_0001ec18                            ;undefined FUN_0001ec18(void)
                            LAB_0001bec2:                 ;XREF[1,0]:   0001bebc
ram:0001bec2    10bd            pop         {r4,pc}                                 
                            LAB_0001bec4:                 ;XREF[1,0]:   0001beb2
ram:0001bec4    02f0a8fe        bl          FUN_0001ec18                            ;undefined FUN_0001ec18(void)
ram:0001bec8    f4e7            b           LAB_0001beb4                            
ram:0001beca    c046            mov         r8,r8                                   
                            ;************************************************************************************************
                            ;*                                           FUNCTION                                           *
                            ;************************************************************************************************
                            ;undefined FUN_0001becc(void)
                                                          ;XREF[1,0]:   0001b240
ram:0001becc    10b5            push        {r4,lr}                                 
ram:0001bece    fff7abff        bl          FUN_0001be28                            ;undefined FUN_0001be28(void)
ram:0001bed2    0028            cmp         r0,#0x0                                 
ram:0001bed4    01d0            beq         LAB_0001beda                            
ram:0001bed6    02f09ffe        bl          FUN_0001ec18                            ;undefined FUN_0001ec18(void)
                            LAB_0001beda:                 ;XREF[1,0]:   0001bed4
ram:0001beda    10bd            pop         {r4,pc}                                 
                            ;************************************************************************************************
                            ;*                                           FUNCTION                                           *
                            ;************************************************************************************************
                            ;undefined FUN_0001bedc(void)
                                                          ;XREF[1,0]:   0001b1fa
ram:0001bedc    10b5            push        {r4,lr}                                 
ram:0001bede    084a            ldr         r2=>LAB_0001be2c...,[PTR_LAB_0001be2c...;= 0001be2d
ram:0001bee0    0121            movs        r1,#0x1                                 
ram:0001bee2    0848            ldr         r0=>DAT_0001f704,[PTR_DAT_0001bf04]     ;= C4h
                                                                                    ;= 0001f704
ram:0001bee4    02f0dcfd        bl          FUN_0001eaa0                            ;undefined FUN_0001eaa0(int * param_1...
ram:0001bee8    0028            cmp         r0,#0x0                                 
ram:0001beea    01d0            beq         LAB_0001bef0                            
ram:0001beec    02f094fe        bl          FUN_0001ec18                            ;undefined FUN_0001ec18(void)
                            LAB_0001bef0:                 ;XREF[1,0]:   0001beea
ram:0001bef0    f021            movs        r1,#0xf0                                
ram:0001bef2    0022            movs        r2,#0x0                                 
ram:0001bef4    4903            lsls        r1,r1,#0xd                              
ram:0001bef6    0448            ldr         r0,[DAT_0001bf08]                       ;= 200025C4h
ram:0001bef8    02f0e8fd        bl          FUN_0001eacc                            ;undefined4 FUN_0001eacc(int param_1,...
ram:0001befc    10bd            pop         {r4,pc}                                 
ram:0001befe    c046            mov         r8,r8                                   
                            PTR_LAB_0001be2c+1+1_0001bf00:;XREF[1,0]:   0001bede
ram:0001bf00    2dbe0100        addr        LAB_0001be2c+1+1                        
                            PTR_DAT_0001bf04:             ;XREF[1,0]:   0001bee2
ram:0001bf04    04f70100        addr        DAT_0001f704                            ;= C4h
                            DAT_0001bf08:                 ;XREF[1,0]:   0001bef6
ram:0001bf08    c4250020        undefined4  200025C4h                               
                            ;************************************************************************************************
                            ;*                                           FUNCTION                                           *
                            ;************************************************************************************************
                            ;undefined FUN_0001bf0c(void)
                                                          ;XREF[1,0]:   0001bf3e
ram:0001bf0c    77df            svc         0x77                                    
ram:0001bf0e    7047            bx          lr                                      
                            ;************************************************************************************************
                            ;*                                           FUNCTION                                           *
                            ;************************************************************************************************
                            ;undefined FUN_0001bf10(void)
                                                          ;XREF[2,0]:   0001bf30,0001bf58
ram:0001bf10    7cdf            svc         0x7c                                    
ram:0001bf12    7047            bx          lr                                      
                            ;************************************************************************************************
                            ;*                                           FUNCTION                                           *
                            ;************************************************************************************************
                            ;undefined FUN_0001bf14(int param_1)
          ;param_1       int                 r0                      
          ;local_14      undefined1         -14                      ;XREF[1,0]:   0001bf1c
                                                          ;XREF[1,0]:   0001b5a8
ram:0001bf14    0023            movs        r3,#0x0                                 
ram:0001bf16    70b5            push        {r4,r5,r6,lr}                           
ram:0001bf18    82b0            sub         sp,#0x8                                 
ram:0001bf1a    01ac            add         r4,sp,#0x4                              
ram:0001bf1c    2370            strb        r3,[r4,#0x0]=>local_14                  
ram:0001bf1e    104b            ldr         r3=>DAT_10001080,[DAT_0001bf60]         ;= 10001080h
ram:0001bf20    0600            movs        r6,param_1                              
ram:0001bf22    1a78            ldrb        r2,[r3,#0x0]=>DAT_10001080              
ram:0001bf24    0d00            movs        r5,r1                                   
ram:0001bf26    ff2a            cmp         r2,#0xff                                
ram:0001bf28    11d0            beq         LAB_0001bf4e                            
ram:0001bf2a    92b2            uxth        r2,r2                                   
ram:0001bf2c    0d49            ldr         r1,[DAT_0001bf64]                       ;= 10001084h
ram:0001bf2e    2000            movs        param_1,r4                              
ram:0001bf30    fff7eeff        bl          FUN_0001bf10                            ;undefined FUN_0001bf10(void)
                            LAB_0001bf34:                 ;XREF[1,0]:   0001bf5c
ram:0001bf34    0028            cmp         param_1,#0x0                            
ram:0001bf36    01d0            beq         LAB_0001bf3c                            
ram:0001bf38    02f06efe        bl          FUN_0001ec18                            ;undefined FUN_0001ec18(void)
                            LAB_0001bf3c:                 ;XREF[1,0]:   0001bf36
ram:0001bf3c    2800            movs        param_1,r5                              
ram:0001bf3e    fff7e5ff        bl          FUN_0001bf0c                            ;undefined FUN_0001bf0c(void)
ram:0001bf42    0028            cmp         param_1,#0x0                            
ram:0001bf44    01d0            beq         LAB_0001bf4a                            
ram:0001bf46    02f067fe        bl          FUN_0001ec18                            ;undefined FUN_0001ec18(void)
                            LAB_0001bf4a:                 ;XREF[1,0]:   0001bf44
ram:0001bf4a    02b0            add         sp,#0x8                                 
ram:0001bf4c    70bd            pop         {r4,r5,r6,pc}                           
                            LAB_0001bf4e:                 ;XREF[1,0]:   0001bf28
ram:0001bf4e    03f09efa        bl          FUN_0001f48e                            ;int FUN_0001f48e(int param_1)
ram:0001bf52    3100            movs        r1,r6                                   
ram:0001bf54    82b2            uxth        r2,param_1                              
ram:0001bf56    2000            movs        param_1,r4                              
ram:0001bf58    fff7daff        bl          FUN_0001bf10                            ;undefined FUN_0001bf10(void)
ram:0001bf5c    eae7            b           LAB_0001bf34                            
ram:0001bf5e    c046            mov         r8,r8                                   
                            DAT_0001bf60:                 ;XREF[1,0]:   0001bf1e
ram:0001bf60    80100010        undefined4  10001080h                               
                            DAT_0001bf64:                 ;XREF[1,0]:   0001bf2c
ram:0001bf64    84100010        undefined4  10001084h                               
                            ;************************************************************************************************
                            ;*                                           FUNCTION                                           *
                            ;************************************************************************************************
                            ;undefined LAB_0001bf68+1(void)
                                                          ;XREF[0,2]:   0001bfcc,0001bfe4
ram:0001bf68    7047            bx          lr                                      
ram:0001bf6a    c046            mov         r8,r8                                   
                            ;************************************************************************************************
                            ;*                                           FUNCTION                                           *
                            ;************************************************************************************************
                            ;undefined LAB_0001bf6c+1(void)
                                                          ;XREF[0,2]:   0001bfd0,0001bfe8
ram:0001bf6c    7047            bx          lr                                      
ram:0001bf6e    c046            mov         r8,r8                                   
                            ;************************************************************************************************
                            ;*                                           FUNCTION                                           *
                            ;************************************************************************************************
                            ;undefined FUN_0001bf70(void)
                                                          ;XREF[1,0]:   0001b23c
ram:0001bf70    10b5            push        {r4,lr}                                 
ram:0001bf72    0320            movs        r0,#0x3                                 
ram:0001bf74    00f072fb        bl          FUN_0001c65c                            ;int FUN_0001c65c(uint param_1)
ram:0001bf78    0028            cmp         r0,#0x0                                 
ram:0001bf7a    01d0            beq         LAB_0001bf80                            
ram:0001bf7c    02f04cfe        bl          FUN_0001ec18                            ;undefined FUN_0001ec18(void)
                            LAB_0001bf80:                 ;XREF[1,0]:   0001bf7a
ram:0001bf80    10bd            pop         {r4,pc}                                 
ram:0001bf82    c046            mov         r8,r8                                   
                            ;************************************************************************************************
                            ;*                                           FUNCTION                                           *
                            ;************************************************************************************************
                            ;undefined FUN_0001bf84(undefined4 param_1)
          ;param_1       undefined4          r0                      
          ;local_40      undefined4         -40                      ;XREF[1,0]:   0001bfac
          ;local_44      undefined2         -44                      ;XREF[1,0]:   0001bfb6
          ;local_8d      undefined1         -8d                      ;XREF[1,0]:   0001bfa4
          ;local_90      undefined1         -90                      ;XREF[1,0]:   0001bf9a
          ;local_a0      undefined4         -a0                      ;XREF[1,0]:   0001bfc2
          ;local_ad      undefined1         -ad                      ;XREF[1,0]:   0001bfc8
          ;local_af      undefined1         -af                      ;XREF[1,0]:   0001bfc6
          ;local_b8      undefined4         -b8                      ;XREF[1,0]:   0001bfcc
                                                          ;XREF[1,0]:   0001b600
ram:0001bf84    f0b5            push        {r4,r5,r6,r7,lr}                        
ram:0001bf86    a9b0            sub         sp,#0xa4                                
ram:0001bf88    0aad            add         r5,sp,#0x28                             
ram:0001bf8a    0400            movs        r4,param_1                              
ram:0001bf8c    3c22            movs        r2,#0x3c                                
ram:0001bf8e    0021            movs        r1,#0x0                                 
ram:0001bf90    2800            movs        param_1,r5                              
ram:0001bf92    03f074fa        bl          FUN_0001f47e                            ;undefined FUN_0001f47e(undefined * p...
ram:0001bf96    0223            movs        r3,#0x2                                 
ram:0001bf98    19ae            add         r6,sp,#0x64                             
ram:0001bf9a    2b70            strb        r3,[r5,#0x0]=>local_90                  
ram:0001bf9c    3c22            movs        r2,#0x3c                                
ram:0001bf9e    0433            adds        r3,#0x4                                 
ram:0001bfa0    0021            movs        r1,#0x0                                 
ram:0001bfa2    3000            movs        param_1,r6                              
ram:0001bfa4    eb70            strb        r3,[r5,#local_8d+0x90]                  
ram:0001bfa6    03f06afa        bl          FUN_0001f47e                            ;undefined FUN_0001f47e(undefined * p...
ram:0001bfaa    0123            movs        r3,#0x1                                 
ram:0001bfac    7461            str         r4,[r6,#local_40+0x54]                  
ram:0001bfae    02ac            add         r4,sp,#0x8                              
ram:0001bfb0    2022            movs        r2,#0x20                                
ram:0001bfb2    0021            movs        r1,#0x0                                 
ram:0001bfb4    2000            movs        param_1,r4                              
ram:0001bfb6    3382            strh        r3,[r6,#local_44+0x54]                  
ram:0001bfb8    03f061fa        bl          FUN_0001f47e                            ;undefined FUN_0001f47e(undefined * p...
ram:0001bfbc    c823            movs        r3,#0xc8                                
ram:0001bfbe    0127            movs        r7,#0x1                                 
ram:0001bfc0    db00            lsls        r3,r3,#0x3                              
ram:0001bfc2    2361            str         r3,[r4,#local_a0+0xb0]                  
ram:0001bfc4    074b            ldr         r3,[PTR_LAB_0001bf68+1+1_0001bfe4]      ;= 0001bf69
ram:0001bfc6    6770            strb        r7,[r4,#local_af+0xb0]                  
ram:0001bfc8    e770            strb        r7,[r4,#local_ad+0xb0]                  
ram:0001bfca    2200            movs        r2,r4                                   
ram:0001bfcc    0093            str         r3=>LAB_0001bf68+1+1,[sp,#0x0]=>local_b8
ram:0001bfce    3100            movs        r1,r6                                   
ram:0001bfd0    054b            ldr         r3=>LAB_0001bf6c...,[PTR_LAB_0001bf6c...;= 0001bf6d
ram:0001bfd2    2800            movs        param_1,r5                              
ram:0001bfd4    00f06afa        bl          FUN_0001c4ac                            ;int FUN_0001c4ac(undefined * param_1...
ram:0001bfd8    0028            cmp         param_1,#0x0                            
ram:0001bfda    01d0            beq         LAB_0001bfe0                            
ram:0001bfdc    02f01cfe        bl          FUN_0001ec18                            ;undefined FUN_0001ec18(void)
                            LAB_0001bfe0:                 ;XREF[1,0]:   0001bfda
ram:0001bfe0    29b0            add         sp,#0xa4                                
ram:0001bfe2    f0bd            pop         {r4,r5,r6,r7,pc}                        
                            PTR_LAB_0001bf68+1+1_0001bfe4:;XREF[1,0]:   0001bfc4
ram:0001bfe4    69bf0100        addr        LAB_0001bf68+1+1                        
                            PTR_LAB_0001bf6c+1+1_0001bfe8:;XREF[1,0]:   0001bfd0
ram:0001bfe8    6dbf0100        addr        LAB_0001bf6c+1+1                        
                            ;************************************************************************************************
                            ;*                                           FUNCTION                                           *
                            ;************************************************************************************************
                            ;undefined FUN_0001bfec(void)
                                                          ;XREF[1,0]:   0001c0be
ram:0001bfec    a0df            svc         0xa0                                    
ram:0001bfee    7047            bx          lr                                      
                            ;************************************************************************************************
                            ;*                                           FUNCTION                                           *
                            ;************************************************************************************************
                            ;undefined FUN_0001bff0(void)
                                                          ;XREF[2,0]:   0001c172,0001c208
ram:0001bff0    a2df            svc         0xa2                                    
ram:0001bff2    7047            bx          lr                                      
                            ;************************************************************************************************
                            ;*                                           FUNCTION                                           *
                            ;************************************************************************************************
                            ;undefined FUN_0001bff4(void)
                                                          ;XREF[1,0]:   0001c264
ram:0001bff4    a6df            svc         0xa6                                    
ram:0001bff6    7047            bx          lr                                      
                            ;************************************************************************************************
                            ;*                                           FUNCTION                                           *
                            ;************************************************************************************************
                            ;undefined FUN_0001bff8(void)
                                                          ;XREF[1,0]:   0001c09a
ram:0001bff8    63df            svc         0x63                                    
ram:0001bffa    7047            bx          lr                                      
                            ;************************************************************************************************
                            ;*                                           FUNCTION                                           *
                            ;************************************************************************************************
                            ;undefined FUN_0001bffc(int param_1, short * param_2)
          ;param_1       int                 r0                      
          ;param_2       short *             r1                      
                                                          ;XREF[1,0]:   0001b560
ram:0001bffc    10b5            push        {r4,lr}                                 
ram:0001bffe    041e            subs        r4,param_1,#0x0                         
ram:0001c000    08d0            beq         LAB_0001c014                            
ram:0001c002    0029            cmp         param_2,#0x0                            
ram:0001c004    06d0            beq         LAB_0001c014                            
ram:0001c006    0b88            ldrh        r3,[param_2,#0x0]                       
ram:0001c008    112b            cmp         r3,#0x11                                
ram:0001c00a    04d0            beq         LAB_0001c016                            
ram:0001c00c    502b            cmp         r3,#0x50                                
ram:0001c00e    09d0            beq         LAB_0001c024                            
ram:0001c010    102b            cmp         r3,#0x10                                
ram:0001c012    04d0            beq         LAB_0001c01e                            
                            LAB_0001c014:                 ;XREF[9,0]:   0001c000,0001c004,0001c01c,0001c022
                                                          ;             0001c030,0001c036,0001c040,0001c058
                                                          ;             0001c05c
ram:0001c014    10bd            pop         {r4,pc}                                 
                            LAB_0001c016:                 ;XREF[1,0]:   0001c00a
ram:0001c016    0123            movs        r3,#0x1                                 
ram:0001c018    5b42            rsbs        r3,r3                                   
ram:0001c01a    8382            strh        r3,[param_1,#0x14]                      
ram:0001c01c    fae7            b           LAB_0001c014                            
                            LAB_0001c01e:                 ;XREF[1,0]:   0001c012
ram:0001c01e    8b88            ldrh        r3,[param_2,#0x4]                       
ram:0001c020    8382            strh        r3,[param_1,#0x14]                      
ram:0001c022    f7e7            b           LAB_0001c014                            
                            LAB_0001c024:                 ;XREF[1,0]:   0001c00e
ram:0001c024    cb88            ldrh        r3,[param_2,#0x6]                       
ram:0001c026    028a            ldrh        r2,[param_1,#0x10]                      
ram:0001c028    9a42            cmp         r2,r3                                   
ram:0001c02a    0ad0            beq         LAB_0001c042                            
                            LAB_0001c02c:                 ;XREF[1,0]:   0001c046
ram:0001c02c    a288            ldrh        r2,[r4,#0x4]                            
ram:0001c02e    9a42            cmp         r2,r3                                   
ram:0001c030    f0d1            bne         LAB_0001c014                            
ram:0001c032    a369            ldr         r3,[r4,#0x18]                           
ram:0001c034    002b            cmp         r3,#0x0                                 
ram:0001c036    edd0            beq         LAB_0001c014                            
ram:0001c038    0a8a            ldrh        r2,[param_2,#0x10]                      
ram:0001c03a    2000            movs        param_1,r4                              
ram:0001c03c    1231            adds        param_2,#0x12                           
ram:0001c03e    9847            blx         r3                                      
ram:0001c040    e8e7            b           LAB_0001c014                            
                            LAB_0001c042:                 ;XREF[1,0]:   0001c02a
ram:0001c042    0a8a            ldrh        r2,[param_2,#0x10]                      
ram:0001c044    022a            cmp         r2,#0x2                                 
ram:0001c046    f1d1            bne         LAB_0001c02c                            
ram:0001c048    1231            adds        param_2,#0x12                           
ram:0001c04a    0800            movs        param_1,param_2                         
ram:0001c04c    01f054fa        bl          FUN_0001d4f8                            ;byte FUN_0001d4f8(byte * param_1)
ram:0001c050    0028            cmp         param_1,#0x0                            
ram:0001c052    02d0            beq         LAB_0001c05a                            
ram:0001c054    0123            movs        r3,#0x1                                 
ram:0001c056    a375            strb        r3,[r4,#0x16]                           
ram:0001c058    dce7            b           LAB_0001c014                            
                            LAB_0001c05a:                 ;XREF[1,0]:   0001c052
ram:0001c05a    a075            strb        param_1,[r4,#0x16]                      
ram:0001c05c    dae7            b           LAB_0001c014                            
ram:0001c05e    c046            mov         r8,r8                                   
                            ;************************************************************************************************
                            ;*                                           FUNCTION                                           *
                            ;************************************************************************************************
                            ;int FUN_0001c060(undefined * param_1, undefined4 * param_2)
          ;param_1       undefined *         r0                      
          ;param_2       undefined4 *        r1                      
          ;local_2c      undefined4         -2c                      ;XREF[2,0]:   0001c11e,0001c1a0
          ;local_30      undefined4         -30                      ;XREF[2,0]:   0001c108,0001c19e
          ;local_34      undefined4         -34                      ;XREF[2,0]:   0001c11c,0001c19c
          ;local_38      undefined4         -38                      ;XREF[2,0]:   0001c11a,0001c196
          ;local_40      undefined4         -40                      ;XREF[2,0]:   0001c118,0001c188
          ;local_44      undefined1         -44                      ;XREF[4,0]:   0001c0fc,0001c102,0001c186,0001c192
          ;local_4c      undefined2         -4c                      ;XREF[2,0]:   0001c164,0001c1fc
          ;local_50      undefined4         -50                      ;XREF[2,0]:   0001c160,0001c1fa
          ;local_54      undefined4         -54                      ;XREF[2,0]:   0001c170,0001c206
          ;local_58      undefined4         -58                      ;XREF[2,0]:   0001c15a,0001c1f4
          ;local_5c      undefined4         -5c                      ;XREF[1,0]:   0001c07c
          ;local_68      undefined4         -68                      ;XREF[1,0]:   0001c078
          ;local_6a      undefined1         -6a                      ;XREF[2,0]:   0001c10e,0001c198
          ;local_6c      undefined2         -6c                      ;XREF[2,0]:   0001c114,0001c1aa
          ;local_6e      undefined1         -6e                      ;XREF[1,0]:   0001c0bc
          ;local_70      undefined2         -70                      ;XREF[1,0]:   0001c0b6
          ;local_72      undefined1         -72                      ;XREF[4,0]:   0001c138,0001c152,0001c1d6,0001c1ec
          ;local_73      undefined1         -73                      ;XREF[3,0]:   0001c136,0001c1c6,0001c1d4
          ;local_74      undefined1         -74                      ;XREF[3,0]:   0001c12e,0001c1b4,0001c1c4
          ;local_76      undefined1         -76                      ;XREF[2,0]:   0001c0d8,0001c0ec
          ;local_78      undefined2         -78                      ;XREF[1,0]:   0001c0d6
                                                          ;XREF[1,0]:   0001b5b4
ram:0001c060    f0b5            push        {r4,r5,r6,r7,lr}                        
ram:0001c062    5746            mov         r7,r10                                  
ram:0001c064    4e46            mov         r6,r9                                   
ram:0001c066    4546            mov         r5,r8                                   
ram:0001c068    de46            mov         lr,r11                                  
ram:0001c06a    e0b5            push        {r5,r6,r7,lr}                           
ram:0001c06c    95b0            sub         sp,#0x54                                
ram:0001c06e    0400            movs        r4,param_1                              
ram:0001c070    04a8            add         param_1,sp,#0x10                        
ram:0001c072    0200            movs        r2,param_1                              
ram:0001c074    674b            ldr         r3,[PTR_DAT_0001c214]                   ;= 0001f708
                                                          ; FWD[3,0]:   0001f708,0001f70c,0001f710
ram:0001c076    e0cb            ldmia       r3!,{r5,r6,r7}=>DAT_0001f708            ;= 269C9C5Fh
                                                                                    ;= 96BFE969h
                                                                                    ;= FF68B4A7h
ram:0001c078    e0c2            stmia       r2!=>local_68,{r5,r6,r7}                
ram:0001c07a    1b68            ldr         r3,[r3,#0x0]=>DAT_0001f714              ;= 173E410Bh
ram:0001c07c    1360            str         r3,[r2,#0x0]=>local_5c                  
ram:0001c07e    002c            cmp         r4,#0x0                                 
ram:0001c080    00d1            bne         LAB_0001c084                            
ram:0001c082    c5e0            b           LAB_0001c210                            
                            LAB_0001c084:                 ;XREF[1,0]:   0001c080
ram:0001c084    0029            cmp         param_2,#0x0                            
ram:0001c086    00d1            bne         LAB_0001c08a                            
ram:0001c088    c2e0            b           LAB_0001c210                            
                            LAB_0001c08a:                 ;XREF[1,0]:   0001c086
ram:0001c08a    0123            movs        r3,#0x1                                 
ram:0001c08c    5b42            rsbs        r3,r3                                   
ram:0001c08e    a382            strh        r3,[r4,#0x14]                           
ram:0001c090    0b68            ldr         r3,[param_2,#0x0]                       
ram:0001c092    2100            movs        param_2,r4                              
ram:0001c094    a361            str         r3,[r4,#0x18]                           
ram:0001c096    0023            movs        r3,#0x0                                 
ram:0001c098    a375            strb        r3,[r4,#0x16]                           
ram:0001c09a    fff7adff        bl          FUN_0001bff8                            ;undefined FUN_0001bff8(void)
ram:0001c09e    071e            subs        r7,param_1,#0x0                         
ram:0001c0a0    07d0            beq         LAB_0001c0b2                            
                            LAB_0001c0a2:                 ;XREF[4,0]:   0001c0c4,0001c178,0001c20e,0001c212
ram:0001c0a2    3800            movs        param_1,r7                              
ram:0001c0a4    15b0            add         sp,#0x54                                
ram:0001c0a6    3cbc            pop         {r2,r3,r4,r5}                           
ram:0001c0a8    9046            mov         r8,r2                                   
ram:0001c0aa    9946            mov         r9,r3                                   
ram:0001c0ac    a246            mov         r10,r4                                  
ram:0001c0ae    ab46            mov         r11,r5                                  
ram:0001c0b0    f0bd            pop         {r4,r5,r6,r7,pc}                        
                            LAB_0001c0b2:                 ;XREF[1,0]:   0001c0a0
ram:0001c0b2    02a9            add         param_2,sp,#0x8                         
ram:0001c0b4    2378            ldrb        r3,[r4,#0x0]                            
ram:0001c0b6    0880            strh        param_1,[param_2,#0x0]=>local_70        
ram:0001c0b8    a21c            adds        r2,r4,#0x2                              
ram:0001c0ba    0120            movs        param_1,#0x1                            
ram:0001c0bc    8b70            strb        r3,[r1,#local_6e+0x70]                  
ram:0001c0be    fff795ff        bl          FUN_0001bfec                            ;undefined FUN_0001bfec(void)
ram:0001c0c2    071e            subs        r7,param_1,#0x0                         
ram:0001c0c4    edd1            bne         LAB_0001c0a2                            
ram:0001c0c6    0322            movs        r2,#0x3                                 
ram:0001c0c8    0021            movs        param_2,#0x0                            
ram:0001c0ca    6846            mov         param_1,sp                              
ram:0001c0cc    03f0d7f9        bl          FUN_0001f47e                            ;undefined FUN_0001f47e(undefined * p...
ram:0001c0d0    6a46            mov         r2,sp                                   
ram:0001c0d2    514b            ldr         r3,[DAT_0001c218]                       ;= 00001111h
ram:0001c0d4    0dad            add         r5,sp,#0x34                             
ram:0001c0d6    1380            strh        r3,[r2,#0x0]=>local_78                  
ram:0001c0d8    9378            ldrb        r3,[r2,#local_76+0x78]                  
ram:0001c0da    0622            movs        r2,#0x6                                 
ram:0001c0dc    9346            mov         r11,r2                                  
ram:0001c0de    9343            bics        r3,r2                                   
ram:0001c0e0    0222            movs        r2,#0x2                                 
ram:0001c0e2    9046            mov         r8,r2                                   
ram:0001c0e4    4246            mov         r2,r8                                   
ram:0001c0e6    1343            orrs        r3,r2                                   
ram:0001c0e8    6a46            mov         r2,sp                                   
ram:0001c0ea    0021            movs        param_2,#0x0                            
ram:0001c0ec    9370            strb        r3,[r2,#local_76+0x78]                  
ram:0001c0ee    2800            movs        param_1,r5                              
ram:0001c0f0    1c22            movs        r2,#0x1c                                
ram:0001c0f2    03f0c4f9        bl          FUN_0001f47e                            ;undefined FUN_0001f47e(undefined * p...
ram:0001c0f6    1022            movs        r2,#0x10                                
ram:0001c0f8    9246            mov         r10,r2                                  
ram:0001c0fa    5246            mov         r2,r10                                  
ram:0001c0fc    2b78            ldrb        r3,[r5,#0x0]=>local_44                  
ram:0001c0fe    01ae            add         r6,sp,#0x4                              
ram:0001c100    1343            orrs        r3,r2                                   
ram:0001c102    2b70            strb        r3,[r5,#0x0]=>local_44                  
ram:0001c104    6b46            mov         r3,sp                                   
ram:0001c106    6a46            mov         r2,sp                                   
ram:0001c108    6b61            str         r3,[r5,#local_30+0x44]                  
ram:0001c10a    2378            ldrb        r3,[r4,#0x0]                            
ram:0001c10c    0021            movs        param_2,#0x0                            
ram:0001c10e    9373            strb        r3,[r2,#local_6a+0x78]                  
ram:0001c110    0223            movs        r3,#0x2                                 
ram:0001c112    3000            movs        param_1,r6                              
ram:0001c114    9381            strh        r3,[r2,#local_6c+0x78]                  
ram:0001c116    0322            movs        r2,#0x3                                 
ram:0001c118    6f60            str         r7,[r5,#local_40+0x44]                  
ram:0001c11a    ef60            str         r7,[r5,#local_38+0x44]                  
ram:0001c11c    2f61            str         r7,[r5,#local_34+0x44]                  
ram:0001c11e    af61            str         r7,[r5,#local_2c+0x44]                  
ram:0001c120    03f0adf9        bl          FUN_0001f47e                            ;undefined FUN_0001f47e(undefined * p...
ram:0001c124    0123            movs        r3,#0x1                                 
ram:0001c126    9946            mov         r9,r3                                   
ram:0001c128    5346            mov         r3,r10                                  
ram:0001c12a    4a46            mov         r2,r9                                   
ram:0001c12c    1343            orrs        r3,r2                                   
ram:0001c12e    3370            strb        r3,[r6,#0x0]=>local_74                  
ram:0001c130    5346            mov         r3,r10                                  
ram:0001c132    1343            orrs        r3,r2                                   
ram:0001c134    5a46            mov         r2,r11                                  
ram:0001c136    7370            strb        r3,[r6,#local_73+0x74]                  
ram:0001c138    b378            ldrb        r3,[r6,#local_72+0x74]                  
ram:0001c13a    0021            movs        param_2,#0x0                            
ram:0001c13c    9343            bics        r3,r2                                   
ram:0001c13e    4246            mov         r2,r8                                   
ram:0001c140    1343            orrs        r3,r2                                   
ram:0001c142    0822            movs        r2,#0x8                                 
ram:0001c144    9343            bics        r3,r2                                   
ram:0001c146    0832            adds        r2,#0x8                                 
ram:0001c148    9343            bics        r3,r2                                   
ram:0001c14a    4a46            mov         r2,r9                                   
ram:0001c14c    08a8            add         param_1,sp,#0x20                        
ram:0001c14e    1343            orrs        r3,r2                                   
ram:0001c150    1422            movs        r2,#0x14                                
ram:0001c152    b370            strb        r3,[r6,#local_72+0x74]                  
ram:0001c154    03f093f9        bl          FUN_0001f47e                            ;undefined FUN_0001f47e(undefined * p...
ram:0001c158    03ab            add         r3,sp,#0xc                              
ram:0001c15a    0893            str         r3,[sp,#local_58+0x78]                  
ram:0001c15c    0123            movs        r3,#0x1                                 
ram:0001c15e    1422            movs        r2,#0x14                                
ram:0001c160    0a93            str         r3,[sp,#local_50+0x78]                  
ram:0001c162    6b46            mov         r3,sp                                   
ram:0001c164    9a85            strh        r2,[r3,#local_4c+0x78]                  
ram:0001c166    2300            movs        r3,r4                                   
ram:0001c168    6088            ldrh        param_1,[r4,#0x2]                       
ram:0001c16a    0c33            adds        r3,#0xc                                 
ram:0001c16c    08aa            add         r2,sp,#0x20                             
ram:0001c16e    2900            movs        param_2,r5                              
ram:0001c170    0996            str         r6,[sp,#local_54+0x78]                  
ram:0001c172    fff73dff        bl          FUN_0001bff0                            ;undefined FUN_0001bff0(void)
ram:0001c176    071e            subs        r7,param_1,#0x0                         
ram:0001c178    93d1            bne         LAB_0001c0a2                            
ram:0001c17a    1c22            movs        r2,#0x1c                                
ram:0001c17c    0021            movs        param_2,#0x0                            
ram:0001c17e    2800            movs        param_1,r5                              
ram:0001c180    03f07df9        bl          FUN_0001f47e                            ;undefined FUN_0001f47e(undefined * p...
ram:0001c184    0822            movs        r2,#0x8                                 
ram:0001c186    2b78            ldrb        r3,[r5,#0x0]=>local_44                  
ram:0001c188    6f60            str         r7,[r5,#local_40+0x44]                  
ram:0001c18a    1343            orrs        r3,r2                                   
ram:0001c18c    0422            movs        r2,#0x4                                 
ram:0001c18e    1343            orrs        r3,r2                                   
ram:0001c190    6a46            mov         r2,sp                                   
ram:0001c192    2b70            strb        r3,[r5,#0x0]=>local_44                  
ram:0001c194    2378            ldrb        r3,[r4,#0x0]                            
ram:0001c196    ef60            str         r7,[r5,#local_38+0x44]                  
ram:0001c198    9373            strb        r3,[r2,#local_6a+0x78]                  
ram:0001c19a    6b46            mov         r3,sp                                   
ram:0001c19c    2f61            str         r7,[r5,#local_34+0x44]                  
ram:0001c19e    6f61            str         r7,[r5,#local_30+0x44]                  
ram:0001c1a0    af61            str         r7,[r5,#local_2c+0x44]                  
ram:0001c1a2    0322            movs        r2,#0x3                                 
ram:0001c1a4    0137            adds        r7,#0x1                                 
ram:0001c1a6    0021            movs        param_2,#0x0                            
ram:0001c1a8    3000            movs        param_1,r6                              
ram:0001c1aa    9f81            strh        r7,[r3,#local_6c+0x78]                  
ram:0001c1ac    03f067f9        bl          FUN_0001f47e                            ;undefined FUN_0001f47e(undefined * p...
ram:0001c1b0    0f22            movs        r2,#0xf                                 
ram:0001c1b2    4946            mov         param_2,r9                              
ram:0001c1b4    3378            ldrb        r3,[r6,#0x0]=>local_74                  
ram:0001c1b6    08a8            add         param_1,sp,#0x20                        
ram:0001c1b8    9343            bics        r3,r2                                   
ram:0001c1ba    0b43            orrs        r3,param_2                              
ram:0001c1bc    5146            mov         param_2,r10                             
ram:0001c1be    1340            ands        r3,r2                                   
ram:0001c1c0    0b43            orrs        r3,param_2                              
ram:0001c1c2    4946            mov         param_2,r9                              
ram:0001c1c4    3370            strb        r3,[r6,#0x0]=>local_74                  
ram:0001c1c6    7378            ldrb        r3,[r6,#local_73+0x74]                  
ram:0001c1c8    9343            bics        r3,r2                                   
ram:0001c1ca    0b43            orrs        r3,param_2                              
ram:0001c1cc    1340            ands        r3,r2                                   
ram:0001c1ce    5246            mov         r2,r10                                  
ram:0001c1d0    1343            orrs        r3,r2                                   
ram:0001c1d2    5a46            mov         r2,r11                                  
ram:0001c1d4    7370            strb        r3,[r6,#local_73+0x74]                  
ram:0001c1d6    b378            ldrb        r3,[r6,#local_72+0x74]                  
ram:0001c1d8    9343            bics        r3,r2                                   
ram:0001c1da    4246            mov         r2,r8                                   
ram:0001c1dc    1343            orrs        r3,r2                                   
ram:0001c1de    0822            movs        r2,#0x8                                 
ram:0001c1e0    9343            bics        r3,r2                                   
ram:0001c1e2    0832            adds        r2,#0x8                                 
ram:0001c1e4    9343            bics        r3,r2                                   
ram:0001c1e6    0b43            orrs        r3,param_2                              
ram:0001c1e8    1422            movs        r2,#0x14                                
ram:0001c1ea    0021            movs        param_2,#0x0                            
ram:0001c1ec    b370            strb        r3,[r6,#local_72+0x74]                  
ram:0001c1ee    03f046f9        bl          FUN_0001f47e                            ;undefined FUN_0001f47e(undefined * p...
ram:0001c1f2    03ab            add         r3,sp,#0xc                              
ram:0001c1f4    0893            str         r3,[sp,#local_58+0x78]                  
ram:0001c1f6    1422            movs        r2,#0x14                                
ram:0001c1f8    6b46            mov         r3,sp                                   
ram:0001c1fa    0a97            str         r7,[sp,#local_50+0x78]                  
ram:0001c1fc    9a85            strh        r2,[r3,#local_4c+0x78]                  
ram:0001c1fe    6088            ldrh        param_1,[r4,#0x2]                       
ram:0001c200    231d            adds        r3,r4,#0x4                              
ram:0001c202    08aa            add         r2,sp,#0x20                             
ram:0001c204    2900            movs        param_2,r5                              
ram:0001c206    0996            str         r6,[sp,#local_54+0x78]                  
ram:0001c208    fff7f2fe        bl          FUN_0001bff0                            ;undefined FUN_0001bff0(void)
ram:0001c20c    0700            movs        r7,param_1                              
ram:0001c20e    48e7            b           LAB_0001c0a2                            
                            LAB_0001c210:                 ;XREF[2,0]:   0001c082,0001c088
ram:0001c210    0e27            movs        r7,#0xe                                 
ram:0001c212    46e7            b           LAB_0001c0a2                            
                            PTR_DAT_0001c214:             ;XREF[1,0]:   0001c074
ram:0001c214    08f70100        addr        DAT_0001f708                            ;= 269C9C5Fh
                            DAT_0001c218:                 ;XREF[1,0]:   0001c0d2
ram:0001c218    11110000        undefined4  00001111h                               
                            ;************************************************************************************************
                            ;*                                           FUNCTION                                           *
                            ;************************************************************************************************
                            ;undefined4 FUN_0001c21c(int param_1, undefined4 param_2, ushort param_3)
          ;param_1       int                 r0                      
          ;param_2       undefined4          r1                      
          ;param_3       ushort              r2                      
          ;local_14      undefined4         -14                      ;XREF[1,0]:   0001c260
          ;local_18      undefined4         -18                      ;XREF[1,0]:   0001c25a
          ;local_1e      undefined1         -1e                      ;XREF[1,0]:   0001c262
          ;local_20      undefined2         -20                      ;XREF[1,0]:   0001c254
          ;local_22      undefined2         -22                      ;XREF[2,0]:   0001c226,0001c23c
                                                          ;XREF[7,0]:   0001b29a,0001b30c,0001b40e,0001b440
                                                          ;             0001b4aa,0001b4e0,0001b524
ram:0001c21c    70b5            push        {r4,r5,r6,lr}                           
ram:0001c21e    86b0            sub         sp,#0x18                                
ram:0001c220    6b46            mov         r3,sp                                   
ram:0001c222    0400            movs        r4,param_1                              
ram:0001c224    0e00            movs        r6,param_2                              
ram:0001c226    da80            strh        param_3,[r3,#local_22+0x28]             
ram:0001c228    0028            cmp         param_1,#0x0                            
ram:0001c22a    21d0            beq         LAB_0001c270                            
ram:0001c22c    828a            ldrh        param_3,[param_1,#0x14]                 
ram:0001c22e    114b            ldr         r3,[DAT_0001c274]                       ;= 0000FFFFh
ram:0001c230    9a42            cmp         param_3,r3                              
ram:0001c232    1bd0            beq         LAB_0001c26c                            
ram:0001c234    837d            ldrb        r3,[param_1,#0x16]                      
ram:0001c236    002b            cmp         r3,#0x0                                 
ram:0001c238    18d0            beq         LAB_0001c26c                            
ram:0001c23a    6b46            mov         r3,sp                                   
ram:0001c23c    db88            ldrh        r3,[r3,#local_22+0x28]                  
ram:0001c23e    0720            movs        param_1,#0x7                            
ram:0001c240    142b            cmp         r3,#0x14                                
ram:0001c242    11d8            bhi         LAB_0001c268                            
ram:0001c244    02ad            add         r5,sp,#0x8                              
ram:0001c246    0021            movs        param_2,#0x0                            
ram:0001c248    1022            movs        param_3,#0x10                           
ram:0001c24a    2800            movs        param_1,r5                              
ram:0001c24c    03f017f9        bl          FUN_0001f47e                            ;undefined FUN_0001f47e(undefined * p...
ram:0001c250    a389            ldrh        r3,[r4,#0xc]                            
ram:0001c252    a08a            ldrh        param_1,[r4,#0x14]                      
ram:0001c254    2b80            strh        r3,[r5,#0x0]=>local_20                  
ram:0001c256    6b46            mov         r3,sp                                   
ram:0001c258    0633            adds        r3,#0x6                                 
ram:0001c25a    ab60            str         r3,[r5,#local_18+0x20]                  
ram:0001c25c    0123            movs        r3,#0x1                                 
ram:0001c25e    2900            movs        param_2,r5                              
ram:0001c260    ee60            str         r6,[r5,#local_14+0x20]                  
ram:0001c262    ab70            strb        r3,[r5,#local_1e+0x20]                  
ram:0001c264    fff7c6fe        bl          FUN_0001bff4                            ;undefined FUN_0001bff4(void)
                            LAB_0001c268:                 ;XREF[3,0]:   0001c242,0001c26e,0001c272
ram:0001c268    06b0            add         sp,#0x18                                
ram:0001c26a    70bd            pop         {r4,r5,r6,pc}                           
                            LAB_0001c26c:                 ;XREF[2,0]:   0001c232,0001c238
ram:0001c26c    0820            movs        param_1,#0x8                            
ram:0001c26e    fbe7            b           LAB_0001c268                            
                            LAB_0001c270:                 ;XREF[1,0]:   0001c22a
ram:0001c270    0e20            movs        param_1,#0xe                            
ram:0001c272    f9e7            b           LAB_0001c268                            
                            DAT_0001c274:                 ;XREF[1,0]:   0001c22e
ram:0001c274    ffff0000        undefined4  0000FFFFh                               
                            ;************************************************************************************************
                            ;*                                           FUNCTION                                           *
                            ;************************************************************************************************
                            ;undefined FUN_0001c278(void)
                                                          ;XREF[1,0]:   0001c358
ram:0001c278    73df            svc         0x73                                    
ram:0001c27a    7047            bx          lr                                      
                            ;************************************************************************************************
                            ;*                                           FUNCTION                                           *
                            ;************************************************************************************************
                            ;int FUN_0001c27c(uint param_1)
          ;param_1       uint                r0                      
          ;local_28      undefined1         -28                      ;XREF[1,0]:   0001c2fc
          ;local_30      undefined1         -30                      ;XREF[1,0]:   0001c2fa
                                                          ;XREF[3,0]:   0001c68a,0001c71e,0001c738
ram:0001c27c    f0b5            push        {r4,r5,r6,r7,lr}                        
ram:0001c27e    7f4c            ldr         r4,[DAT_0001c47c]                       ;= 200026C4h
ram:0001c280    0722            movs        r2,#0x7                                 
ram:0001c282    87b0            sub         sp,#0x1c                                
ram:0001c284    0600            movs        r6,param_1                              
ram:0001c286    0021            movs        r1,#0x0                                 
ram:0001c288    2000            movs        param_1,r4                              
ram:0001c28a    03f0f8f8        bl          FUN_0001f47e                            ;undefined FUN_0001f47e(undefined * p...
ram:0001c28e    7c4d            ldr         r5,[DAT_0001c480]                       ;= 200025E8h
ram:0001c290    7c4b            ldr         r3,[DAT_0001c484]                       ;= 00FFFF00h
ram:0001c292    2a68            ldr         r2,[r5,#0x0]=>DAT_200025e8              
ram:0001c294    7c4f            ldr         r7,[DAT_0001c488]                       ;= 200025E5h
ram:0001c296    1a42            tst         r2,r3                                   
ram:0001c298    02d0            beq         LAB_0001c2a0                            
ram:0001c29a    3b78            ldrb        r3,[r7,#0x0]=>DAT_200025e5              
ram:0001c29c    012b            cmp         r3,#0x1                                 
ram:0001c29e    38d0            beq         LAB_0001c312                            
                            LAB_0001c2a0:                 ;XREF[1,0]:   0001c298
ram:0001c2a0    ab78            ldrb        r3,[r5,#0x2]=>DAT_200025ea              
ram:0001c2a2    002b            cmp         r3,#0x0                                 
ram:0001c2a4    32d1            bne         LAB_0001c30c                            
                            LAB_0001c2a6:                 ;XREF[3,0]:   0001c310,0001c326,0001c47a
ram:0001c2a6    6378            ldrb        r3,[r4,#0x1]=>DAT_200026c5              
ram:0001c2a8    002b            cmp         r3,#0x0                                 
ram:0001c2aa    64d1            bne         LAB_0001c376                            
ram:0001c2ac    a378            ldrb        r3,[r4,#0x2]=>DAT_200026c6              
ram:0001c2ae    002b            cmp         r3,#0x0                                 
ram:0001c2b0    61d1            bne         LAB_0001c376                            
ram:0001c2b2    e378            ldrb        r3,[r4,#0x3]=>DAT_200026c7              
ram:0001c2b4    002b            cmp         r3,#0x0                                 
ram:0001c2b6    5ed1            bne         LAB_0001c376                            
ram:0001c2b8    2379            ldrb        r3,[r4,#0x4]=>DAT_200026c8              
ram:0001c2ba    002b            cmp         r3,#0x0                                 
ram:0001c2bc    5bd1            bne         LAB_0001c376                            
ram:0001c2be    6379            ldrb        r3,[r4,#0x5]=>DAT_200026c9              
ram:0001c2c0    002b            cmp         r3,#0x0                                 
ram:0001c2c2    58d1            bne         LAB_0001c376                            
ram:0001c2c4    a379            ldrb        r3,[r4,#0x6]=>DAT_200026ca              
ram:0001c2c6    5a1e            subs        r2,r3,#0x1                              
ram:0001c2c8    9341            sbcs        r3,r2                                   
ram:0001c2ca    dbb2            uxtb        r3,r3                                   
ram:0001c2cc    022e            cmp         r6,#0x2                                 
ram:0001c2ce    55d0            beq         LAB_0001c37c                            
                            LAB_0001c2d0:                 ;XREF[1,0]:   0001c37a
ram:0001c2d0    022e            cmp         r6,#0x2                                 
ram:0001c2d2    29d9            bls         LAB_0001c328                            
ram:0001c2d4    032e            cmp         r6,#0x3                                 
ram:0001c2d6    2ed0            beq         LAB_0001c336                            
ram:0001c2d8    042e            cmp         r6,#0x4                                 
ram:0001c2da    02d1            bne         LAB_0001c2e2                            
                            LAB_0001c2dc:                 ;XREF[1,0]:   0001c33a
ram:0001c2dc    2b79            ldrb        r3,[r5,#0x4]=>DAT_200025ec              
ram:0001c2de    002b            cmp         r3,#0x0                                 
ram:0001c2e0    53d1            bne         LAB_0001c38a                            
                            LAB_0001c2e2:                 ;XREF[2,0]:   0001c2da,0001c32a
ram:0001c2e2    0026            movs        r6,#0x0                                 
                            LAB_0001c2e4:                 ;XREF[2,0]:   0001c334,0001c388
ram:0001c2e4    3e70            strb        r6,[r7,#0x0]=>DAT_200025e5              
                            LAB_0001c2e6:                 ;XREF[3,0]:   0001c394,0001c39a,0001c3a2
ram:0001c2e6    0022            movs        r2,#0x0                                 
ram:0001c2e8    684b            ldr         r3=>DAT_200027b4,[DAT_0001c48c]         ;= 200027B4h
ram:0001c2ea    1a70            strb        r2,[r3,#0x0]=>DAT_200027b4              
                            LAB_0001c2ec:                 ;XREF[1,0]:   0001c3ae
ram:0001c2ec    1822            movs        r2,#0x18                                
ram:0001c2ee    0021            movs        r1,#0x0                                 
ram:0001c2f0    6846            mov         param_1,sp                              
ram:0001c2f2    03f0c4f8        bl          FUN_0001f47e                            ;undefined FUN_0001f47e(undefined * p...
ram:0001c2f6    0023            movs        r3,#0x0                                 
ram:0001c2f8    6a46            mov         r2,sp                                   
ram:0001c2fa    1370            strb        r3,[r2,#0x0]=>local_30                  
ram:0001c2fc    1372            strb        r3,[r2,#local_28+0x30]                  
ram:0001c2fe    3b78            ldrb        r3,[r7,#0x0]=>DAT_200025e5              
ram:0001c300    042b            cmp         r3,#0x4                                 
ram:0001c302    28d8            bhi         LAB_0001c356                            
ram:0001c304    624a            ldr         r2=>PTR_FUN_0001...,[PTR_PTR_FUN_0001...;= 0001c3f8
                                                                                    ;= 0001f718
ram:0001c306    9b00            lsls        r3,r3,#0x2                              
ram:0001c308    d358            ldr         r3,[r2,r3]=>->FUN_0001c3f8              ;= 0001c3f8
ram:0001c30a    9f46            mov         pc=>FUN_0001c3f8,r3                     ;undefined4 FUN_0001c3f8(void)
                            LAB_0001c30c:                 ;XREF[1,0]:   0001c2a4
ram:0001c30c    3b78            ldrb        r3,[r7,#0x0]=>DAT_200025e5              
ram:0001c30e    022b            cmp         r3,#0x2                                 
ram:0001c310    c9d1            bne         LAB_0001c2a6                            
                            LAB_0001c312:                 ;XREF[1,0]:   0001c29e
ram:0001c312    604b            ldr         r3,[DAT_0001c494]                       ;= 2000264Ch
ram:0001c314    604a            ldr         r2=>DAT_200026c0,[DAT_0001c498]         ;= 200026C0h
ram:0001c316    1b68            ldr         r3,[r3,#0x0]=>DAT_2000264c              
ram:0001c318    002b            cmp         r3,#0x0                                 
ram:0001c31a    00d1            bne         LAB_0001c31e                            
ram:0001c31c    ace0            b           LAB_0001c478                            
                            LAB_0001c31e:                 ;XREF[1,0]:   0001c31a
ram:0001c31e    0121            movs        r1,#0x1                                 
ram:0001c320    0820            movs        param_1,#0x8                            
ram:0001c322    1170            strb        r1,[r2,#0x0]=>DAT_200026c0              
ram:0001c324    9847            blx         r3                                      
ram:0001c326    bee7            b           LAB_0001c2a6                            
                            LAB_0001c328:                 ;XREF[1,0]:   0001c2d2
ram:0001c328    012e            cmp         r6,#0x1                                 
ram:0001c32a    dad1            bne         LAB_0001c2e2                            
ram:0001c32c    6a78            ldrb        r2,[r5,#0x1]=>DAT_200025e9              
ram:0001c32e    002a            cmp         r2,#0x0                                 
ram:0001c330    24d0            beq         LAB_0001c37c                            
ram:0001c332    002b            cmp         r3,#0x0                                 
ram:0001c334    d6d1            bne         LAB_0001c2e4                            
                            LAB_0001c336:                 ;XREF[3,0]:   0001c2d6,0001c380,0001c384
ram:0001c336    eb78            ldrb        r3,[r5,#0x3]=>DAT_200025eb              
ram:0001c338    002b            cmp         r3,#0x0                                 
ram:0001c33a    cfd0            beq         LAB_0001c2dc                            
ram:0001c33c    0323            movs        r3,#0x3                                 
ram:0001c33e    25e0            b           LAB_0001c38c                            
                            ;************************************************************************************************
                            ;*                                           FUNCTION                                           *
                            ;************************************************************************************************
                            ;int FUN_0001c340(undefined param_1, undefined param_2, undefined param_3, undefined param_4, undefined1 param_5, undefined4 param_6, undefined param_7, undefined param_8, undefined2 param_9, undefined param_10, undefined2 param_11)
          ;param_1       undefined           r0                      
          ;param_2       undefined           r1                      
          ;param_3       undefined           r2                      
          ;param_4       undefined           r3                      
          ;param_5       undefined1           0                      ;XREF[1,0]:   0001c34c
          ;param_6       undefined4           4                      ;XREF[1,0]:   0001c344
          ;param_7       undefined            8                      
          ;param_8       undefined            c                      
          ;param_9       undefined2          10                      ;XREF[1,0]:   0001c354
          ;param_10      undefined           14                      
          ;param_11      undefined2          12                      ;XREF[1,0]:   0001c350
                                                          ;XREF[1,0]:   0001f720
ram:0001c340    0222            movs        param_3,#0x2                            
ram:0001c342    564b            ldr         param_4,[DAT_0001c49c]                  ;= 200025E4h
ram:0001c344    0194            str         r4,[sp,#param_6]                        
ram:0001c346    1a70            strb        param_3,[param_4,#0x0]=>DAT_200025e4    
ram:0001c348    6a46            mov         param_3,sp                              
ram:0001c34a    0123            movs        param_4,#0x1                            
ram:0001c34c    1370            strb        param_4,[param_3,#0x0]=>param_5         
ram:0001c34e    eb68            ldr         param_4,[r5,#0xc]                       
ram:0001c350    5382            strh        param_4,[r2,#param_11]                  
ram:0001c352    ab68            ldr         param_4,[r5,#0x8]                       
ram:0001c354    1382            strh        param_4,[r2,#param_9]                   
                            LAB_0001c356:                 ;XREF[5,0]:   0001c302,0001c44c,0001c45e,0001c466
                                                          ;             0001c46e
ram:0001c356    6846            mov         param_1,sp                              
ram:0001c358    fff78eff        bl          FUN_0001c278                            ;undefined FUN_0001c278(void)
ram:0001c35c    0028            cmp         param_1,#0x0                            
ram:0001c35e    08d1            bne         LAB_0001c372                            
                            LAB_0001c360:                 ;XREF[2,0]:   0001c3fe,0001c44a
ram:0001c360    4c4b            ldr         r3,[DAT_0001c494]                       ;= 2000264Ch
ram:0001c362    1b68            ldr         r3,[r3,#0x0]=>DAT_2000264c              
ram:0001c364    002b            cmp         r3,#0x0                                 
ram:0001c366    00d1            bne         LAB_0001c36a                            
ram:0001c368    82e0            b           LAB_0001c470                            
                            LAB_0001c36a:                 ;XREF[1,0]:   0001c366
ram:0001c36a    4c4a            ldr         r2=>DAT_200025e4,[DAT_0001c49c]         ;= 200025E4h
ram:0001c36c    1078            ldrb        param_1,[r2,#0x0]=>DAT_200025e4         
ram:0001c36e    9847            blx         r3                                      
ram:0001c370    0020            movs        param_1,#0x0                            
                            LAB_0001c372:                 ;XREF[2,0]:   0001c35e,0001c472
ram:0001c372    07b0            add         sp,#0x1c                                
ram:0001c374    f0bd            pop         {r4,r5,r6,r7,pc}                        
                            LAB_0001c376:                 ;XREF[5,0]:   0001c2aa,0001c2b0,0001c2b6,0001c2bc
                                                          ;             0001c2c2
ram:0001c376    0123            movs        r3,#0x1                                 
ram:0001c378    022e            cmp         r6,#0x2                                 
ram:0001c37a    a9d1            bne         LAB_0001c2d0                            
                            LAB_0001c37c:                 ;XREF[2,0]:   0001c2ce,0001c330
ram:0001c37c    aa78            ldrb        r2,[r5,#0x2]=>DAT_200025ea              
ram:0001c37e    002a            cmp         r2,#0x0                                 
ram:0001c380    d9d0            beq         LAB_0001c336                            
ram:0001c382    002b            cmp         r3,#0x0                                 
ram:0001c384    d7d0            beq         LAB_0001c336                            
ram:0001c386    0226            movs        r6,#0x2                                 
ram:0001c388    ace7            b           LAB_0001c2e4                            
                            LAB_0001c38a:                 ;XREF[1,0]:   0001c2e0
ram:0001c38a    0423            movs        r3,#0x4                                 
                            LAB_0001c38c:                 ;XREF[1,0]:   0001c33e
ram:0001c38c    3b70            strb        r3,[r7,#0x0]=>DAT_200025e5              
ram:0001c38e    414b            ldr         r3,[DAT_0001c494]                       ;= 2000264Ch
ram:0001c390    1b68            ldr         r3,[r3,#0x0]=>DAT_2000264c              
ram:0001c392    002b            cmp         r3,#0x0                                 
ram:0001c394    a7d0            beq         LAB_0001c2e6                            
ram:0001c396    2a78            ldrb        r2,[r5,#0x0]=>DAT_200025e8              
ram:0001c398    002a            cmp         r2,#0x0                                 
ram:0001c39a    a4d0            beq         LAB_0001c2e6                            
ram:0001c39c    404a            ldr         r2,[DAT_0001c4a0]                       ;= 200027B5h
ram:0001c39e    1278            ldrb        r2,[r2,#0x0]=>DAT_200027b5              
ram:0001c3a0    002a            cmp         r2,#0x0                                 
ram:0001c3a2    a0d1            bne         LAB_0001c2e6                            
ram:0001c3a4    0121            movs        r1,#0x1                                 
ram:0001c3a6    394a            ldr         r2=>DAT_200027b4,[DAT_0001c48c]         ;= 200027B4h
ram:0001c3a8    0720            movs        param_1,#0x7                            
ram:0001c3aa    1170            strb        r1,[r2,#0x0]=>DAT_200027b4              
ram:0001c3ac    9847            blx         r3                                      
ram:0001c3ae    9de7            b           LAB_0001c2ec                            
                            ;************************************************************************************************
                            ;*                                           FUNCTION                                           *
                            ;************************************************************************************************
                            ;int FUN_0001c3b0(undefined param_1, undefined param_2, undefined param_3, undefined param_4, undefined param_5, undefined param_6, undefined1 param_7, undefined4 param_8, undefined2 param_9, undefined param_10, undefined2 param_11)
          ;param_1       undefined           r0                      
          ;param_2       undefined           r1                      
          ;param_3       undefined           r2                      
          ;param_4       undefined           r3                      
          ;param_5       undefined            0                      
          ;param_6       undefined            4                      
          ;param_7       undefined1           8                      ;XREF[1,0]:   0001c3de
          ;param_8       undefined4           c                      ;XREF[1,0]:   0001c3d6
          ;param_9       undefined2          10                      ;XREF[1,0]:   0001c3b4
          ;param_10      undefined           14                      
          ;param_11      undefined2          12                      ;XREF[1,0]:   0001c3b8
                                                          ;XREF[1,0]:   0001f724
ram:0001c3b0    6a46            mov         param_3,sp                              
ram:0001c3b2    2b69            ldr         param_4,[r5,#0x10]                      
ram:0001c3b4    1382            strh        param_4,[r2,#param_9]                   
ram:0001c3b6    6b69            ldr         param_4,[r5,#0x14]                      
ram:0001c3b8    5382            strh        param_4,[r2,#param_11]                  
ram:0001c3ba    2b78            ldrb        param_4,[r5,#0x0]                       
ram:0001c3bc    002b            cmp         param_4,#0x0                            
ram:0001c3be    4fd0            beq         LAB_0001c460                            
ram:0001c3c0    374b            ldr         param_4,[DAT_0001c4a0]                  ;= 200027B5h
ram:0001c3c2    1b78            ldrb        param_4,[param_4,#0x0]=>DAT_200027b5    
ram:0001c3c4    002b            cmp         param_4,#0x0                            
ram:0001c3c6    4bd1            bne         LAB_0001c460                            
ram:0001c3c8    364b            ldr         param_4,[DAT_0001c4a4]                  ;= 2000202Ch
ram:0001c3ca    1a79            ldrb        param_3,[param_4,#0x4]=>DAT_20002030    
ram:0001c3cc    002a            cmp         param_3,#0x0                            
ram:0001c3ce    02d1            bne         LAB_0001c3d6                            
ram:0001c3d0    1a7b            ldrb        param_3,[param_4,#0xc]=>DAT_20002038    
ram:0001c3d2    002a            cmp         param_3,#0x0                            
ram:0001c3d4    44d0            beq         LAB_0001c460                            
                            LAB_0001c3d6:                 ;XREF[1,0]:   0001c3ce
ram:0001c3d6    0393            str         param_4=>DAT_2000202c,[sp,#param_8]     
ram:0001c3d8    6a46            mov         param_3,sp                              
ram:0001c3da    0223            movs        param_4,#0x2                            
ram:0001c3dc    3248            ldr         param_1=>DAT_20002608,[DAT_0001c4a8]    ;= 20002608h
ram:0001c3de    1372            strb        param_4,[r2,#param_7]                   
ram:0001c3e0    0021            movs        param_2,#0x0                            
ram:0001c3e2    0233            adds        param_4,#0x2                            
ram:0001c3e4    c370            strb        param_4,[param_1,#0x3]=>DAT_2000260b    
ram:0001c3e6    00f053fc        bl          FUN_0001cc90                            ;int FUN_0001cc90(short * param_1, sh...
ram:0001c3ea    0028            cmp         param_1,#0x0                            
ram:0001c3ec    42d1            bne         LAB_0001c474                            
ram:0001c3ee    0522            movs        param_3,#0x5                            
ram:0001c3f0    2a4b            ldr         param_4=>DAT_200025e4,[DAT_0001c49c]    ;= 200025E4h
ram:0001c3f2    1a70            strb        param_3,[param_4,#0x0]=>DAT_200025e4    
ram:0001c3f4    3b78            ldrb        param_4,[r7,#0x0]                       
ram:0001c3f6    26e0            b           LAB_0001c446                            
                            ;************************************************************************************************
                            ;*                                           FUNCTION                                           *
                            ;************************************************************************************************
                            ;undefined4 FUN_0001c3f8(void)
                                                          ;XREF[2,0]:   0001c30a,0001f718
ram:0001c3f8    0022            movs        r2,#0x0                                 
ram:0001c3fa    284b            ldr         r3,[DAT_0001c49c]                       ;= 200025E4h
ram:0001c3fc    1a70            strb        r2,[r3,#0x0]=>DAT_200025e4              
ram:0001c3fe    afe7            b           LAB_0001c360                            
                            ;************************************************************************************************
                            ;*                                           FUNCTION                                           *
                            ;************************************************************************************************
                            ;int FUN_0001c400(undefined param_1, undefined param_2, undefined param_3, undefined param_4, undefined param_5, undefined param_6, undefined1 param_7, undefined4 param_8, undefined2 param_9, undefined param_10, undefined2 param_11)
          ;param_1       undefined           r0                      
          ;param_2       undefined           r1                      
          ;param_3       undefined           r2                      
          ;param_4       undefined           r3                      
          ;param_5       undefined            0                      
          ;param_6       undefined            4                      
          ;param_7       undefined1           8                      ;XREF[1,0]:   0001c42e
          ;param_8       undefined4           c                      ;XREF[1,0]:   0001c426
          ;param_9       undefined2          10                      ;XREF[1,0]:   0001c404
          ;param_10      undefined           14                      
          ;param_11      undefined2          12                      ;XREF[1,0]:   0001c408
                                                          ;XREF[1,0]:   0001f728
ram:0001c400    6a46            mov         param_3,sp                              
ram:0001c402    ab69            ldr         param_4,[r5,#0x18]                      
ram:0001c404    1382            strh        param_4,[r2,#param_9]                   
ram:0001c406    eb69            ldr         param_4,[r5,#0x1c]                      
ram:0001c408    5382            strh        param_4,[r2,#param_11]                  
ram:0001c40a    2b78            ldrb        param_4,[r5,#0x0]                       
ram:0001c40c    002b            cmp         param_4,#0x0                            
ram:0001c40e    2bd0            beq         LAB_0001c468                            
ram:0001c410    234b            ldr         param_4,[DAT_0001c4a0]                  ;= 200027B5h
ram:0001c412    1b78            ldrb        param_4,[param_4,#0x0]=>DAT_200027b5    
ram:0001c414    002b            cmp         param_4,#0x0                            
ram:0001c416    27d1            bne         LAB_0001c468                            
ram:0001c418    224b            ldr         param_4,[DAT_0001c4a4]                  ;= 2000202Ch
ram:0001c41a    1a79            ldrb        param_3,[param_4,#0x4]=>DAT_20002030    
ram:0001c41c    002a            cmp         param_3,#0x0                            
ram:0001c41e    02d1            bne         LAB_0001c426                            
ram:0001c420    1a7b            ldrb        param_3,[param_4,#0xc]=>DAT_20002038    
ram:0001c422    002a            cmp         param_3,#0x0                            
ram:0001c424    20d0            beq         LAB_0001c468                            
                            LAB_0001c426:                 ;XREF[1,0]:   0001c41e
ram:0001c426    0393            str         param_4=>DAT_2000202c,[sp,#param_8]     
ram:0001c428    6a46            mov         param_3,sp                              
ram:0001c42a    0223            movs        param_4,#0x2                            
ram:0001c42c    1e48            ldr         param_1=>DAT_20002608,[DAT_0001c4a8]    ;= 20002608h
ram:0001c42e    1372            strb        param_4,[r2,#param_7]                   
ram:0001c430    0021            movs        param_2,#0x0                            
ram:0001c432    0233            adds        param_4,#0x2                            
ram:0001c434    c370            strb        param_4,[param_1,#0x3]=>DAT_2000260b    
ram:0001c436    00f02bfc        bl          FUN_0001cc90                            ;int FUN_0001cc90(short * param_1, sh...
ram:0001c43a    0028            cmp         param_1,#0x0                            
ram:0001c43c    1ad1            bne         LAB_0001c474                            
ram:0001c43e    0622            movs        param_3,#0x6                            
ram:0001c440    164b            ldr         param_4=>DAT_200025e4,[DAT_0001c49c]    ;= 200025E4h
ram:0001c442    1a70            strb        param_3,[param_4,#0x0]=>DAT_200025e4    
ram:0001c444    3b78            ldrb        param_4,[r7,#0x0]                       
                            LAB_0001c446:                 ;XREF[2,0]:   0001c3f6,0001c476
ram:0001c446    002b            cmp         param_4,#0x0                            
ram:0001c448    00d1            bne         LAB_0001c44c                            
ram:0001c44a    89e7            b           LAB_0001c360                            
                            LAB_0001c44c:                 ;XREF[1,0]:   0001c448
ram:0001c44c    83e7            b           LAB_0001c356                            
                            ;************************************************************************************************
                            ;*                                           FUNCTION                                           *
                            ;************************************************************************************************
                            ;int FUN_0001c44e(undefined param_1, undefined param_2, undefined param_3, undefined param_4, undefined1 param_5, undefined4 param_6, undefined param_7, undefined param_8, undefined4 param_9)
          ;param_1       undefined           r0                      
          ;param_2       undefined           r1                      
          ;param_3       undefined           r2                      
          ;param_4       undefined           r3                      
          ;param_5       undefined1           0                      ;XREF[1,0]:   0001c458
          ;param_6       undefined4           4                      ;XREF[1,0]:   0001c452
          ;param_7       undefined            8                      
          ;param_8       undefined            c                      
          ;param_9       undefined4          10                      ;XREF[1,0]:   0001c45c
                                                          ;XREF[1,0]:   0001f71c
ram:0001c44e    0123            movs        param_4,#0x1                            
ram:0001c450    124a            ldr         param_3,[DAT_0001c49c]                  ;= 200025E4h
ram:0001c452    0194            str         r4,[sp,#param_6]                        
ram:0001c454    1370            strb        param_4,[param_3,#0x0]=>DAT_200025e4    
ram:0001c456    6a46            mov         param_3,sp                              
ram:0001c458    1370            strb        param_4,[param_3,#0x0]=>param_5         
ram:0001c45a    0023            movs        param_4,#0x0                            
ram:0001c45c    0493            str         param_4,[sp,#param_9]                   
ram:0001c45e    7ae7            b           LAB_0001c356                            
                            LAB_0001c460:                 ;XREF[3,0]:   0001c3be,0001c3c6,0001c3d4
ram:0001c460    0322            movs        param_3,#0x3                            
ram:0001c462    0e4b            ldr         param_4,[DAT_0001c49c]                  ;= 200025E4h
ram:0001c464    1a70            strb        param_3,[param_4,#0x0]=>DAT_200025e4    
ram:0001c466    76e7            b           LAB_0001c356                            
                            LAB_0001c468:                 ;XREF[3,0]:   0001c40e,0001c416,0001c424
ram:0001c468    0422            movs        param_3,#0x4                            
ram:0001c46a    0c4b            ldr         param_4,[DAT_0001c49c]                  ;= 200025E4h
ram:0001c46c    1a70            strb        param_3,[param_4,#0x0]=>DAT_200025e4    
ram:0001c46e    72e7            b           LAB_0001c356                            
                            LAB_0001c470:                 ;XREF[1,0]:   0001c368
ram:0001c470    0020            movs        param_1,#0x0                            
ram:0001c472    7ee7            b           LAB_0001c372                            
                            LAB_0001c474:                 ;XREF[2,0]:   0001c3ec,0001c43c
ram:0001c474    3b78            ldrb        param_4,[r7,#0x0]                       
ram:0001c476    e6e7            b           LAB_0001c446                            
                            LAB_0001c478:                 ;XREF[1,0]:   0001c31c
ram:0001c478    1370            strb        r3,[r2,#0x0]=>DAT_200026c0              
ram:0001c47a    14e7            b           LAB_0001c2a6                            
                            DAT_0001c47c:                 ;XREF[1,0]:   0001c27e
ram:0001c47c    c4260020        undefined4  200026C4h                               
                            DAT_0001c480:                 ;XREF[1,0]:   0001c28e
ram:0001c480    e8250020        undefined4  200025E8h                               
                            DAT_0001c484:                 ;XREF[1,0]:   0001c290
ram:0001c484    00ffff00        undefined4  00FFFF00h                               
                            DAT_0001c488:                 ;XREF[1,0]:   0001c294
ram:0001c488    e5250020        undefined4  200025E5h                               
                            DAT_0001c48c:                 ;XREF[2,0]:   0001c2e8,0001c3a6
ram:0001c48c    b4270020        undefined4  200027B4h                               
                            PTR_PTR_FUN_0001c490:         ;XREF[1,0]:   0001c304
ram:0001c490    18f70100        addr        PTR_FUN_0001f718                        ;= 0001c3f8
                            DAT_0001c494:                 ;XREF[3,0]:   0001c312,0001c360,0001c38e
ram:0001c494    4c260020        undefined4  2000264Ch                               
                            DAT_0001c498:                 ;XREF[1,0]:   0001c314
ram:0001c498    c0260020        undefined4  200026C0h                               
                            DAT_0001c49c:                 ;XREF[8,0]:   0001c342,0001c36a,0001c3f0,0001c3fa
                                                          ;             0001c440,0001c450,0001c462,0001c46a
ram:0001c49c    e4250020        undefined4  200025E4h                               
                            DAT_0001c4a0:                 ;XREF[3,0]:   0001c39c,0001c3c0,0001c410
ram:0001c4a0    b5270020        undefined4  200027B5h                               
                            DAT_0001c4a4:                 ;XREF[2,0]:   0001c3c8,0001c418
ram:0001c4a4    2c200020        undefined4  2000202Ch                               
                            DAT_0001c4a8:                 ;XREF[2,0]:   0001c3dc,0001c42c
ram:0001c4a8    08260020        undefined4  20002608h                               
                            ;************************************************************************************************
                            ;*                                           FUNCTION                                           *
                            ;************************************************************************************************
                            ;int FUN_0001c4ac(undefined * param_1, short * param_2, undefined4 * param_3, undefined4 param_4, undefined4 param_5)
          ;param_1       undefined *         r0                      
          ;param_2       short *             r1                      
          ;param_3       undefined4 *        r2                      
          ;param_4       undefined4          r3                      
          ;param_5       undefined4           0                      ;XREF[1,0]:   0001c4e2
                                                          ;XREF[1,0]:   0001bfd4
ram:0001c4ac    f8b5            push        {param_4,r4,r5,r6,r7,lr}                
ram:0001c4ae    0400            movs        r4,param_1                              
ram:0001c4b0    0e00            movs        r6,param_2                              
ram:0001c4b2    0028            cmp         param_1,#0x0                            
ram:0001c4b4    00d1            bne         LAB_0001c4b8                            
ram:0001c4b6    aee0            b           LAB_0001c616                            
                            LAB_0001c4b8:                 ;XREF[1,0]:   0001c4b4
ram:0001c4b8    002a            cmp         param_3,#0x0                            
ram:0001c4ba    00d1            bne         LAB_0001c4be                            
ram:0001c4bc    abe0            b           LAB_0001c616                            
                            LAB_0001c4be:                 ;XREF[1,0]:   0001c4ba
ram:0001c4be    0120            movs        param_1,#0x1                            
ram:0001c4c0    5649            ldr         param_2,[DAT_0001c61c]                  ;= 20002650h
ram:0001c4c2    0870            strb        param_1,[param_2,#0x0]=>DAT_20002650    
ram:0001c4c4    0020            movs        param_1,#0x0                            
ram:0001c4c6    5649            ldr         param_2,[DAT_0001c620]                  ;= 200025E5h
ram:0001c4c8    0870            strb        param_1,[param_2,#0x0]=>DAT_200025e5    
ram:0001c4ca    5648            ldr         param_1,[DAT_0001c624]                  ;= 200025E8h
ram:0001c4cc    0100            movs        param_2,param_1                         
ram:0001c4ce    a1ca            ldmia       param_3!,{param_1,r5,r7}                
                                                          ; FWD[3,0]:   200025e8,200025ec,200025f0
ram:0001c4d0    a1c1            stmia       param_2!=>DAT_20...,{param_1,r5,r7}=>...
ram:0001c4d2    a1ca            ldmia       param_3!,{param_1,r5,r7}                
                                                          ; FWD[3,0]:   200025f4,200025f8,200025fc
ram:0001c4d4    a1c1            stmia       param_2!=>DAT_20...,{param_1,r5,r7}=>...
ram:0001c4d6    21ca            ldmia       param_3!,{param_1,r5}                   
ram:0001c4d8    21c1            stmia       param_2!=>DAT_20...,{param_1,r5}=>DAT...
ram:0001c4da    534a            ldr         param_3,[DAT_0001c628]                  ;= 2000264Ch
ram:0001c4dc    0021            movs        param_2,#0x0                            
ram:0001c4de    1360            str         param_4,[param_3,#0x0]=>DAT_2000264c    
ram:0001c4e0    524b            ldr         param_4,[DAT_0001c62c]                  ;= 20002648h
ram:0001c4e2    069a            ldr         param_3,[sp,#param_5+0x18]              
ram:0001c4e4    5248            ldr         param_1,[DAT_0001c630]                  ;= 200026C4h
ram:0001c4e6    1a60            str         param_3,[param_4,#0x0]=>DAT_20002648    
ram:0001c4e8    0122            movs        param_3,#0x1                            
ram:0001c4ea    524b            ldr         param_4=>DAT_20002646,[DAT_0001c634]    ;= 20002646h
ram:0001c4ec    5242            rsbs        param_3,param_3                         
ram:0001c4ee    1a80            strh        param_3,[param_4,#0x0]=>DAT_20002646    
ram:0001c4f0    0832            adds        param_3,#0x8                            
ram:0001c4f2    02f0c4ff        bl          FUN_0001f47e                            ;undefined FUN_0001f47e(undefined * p...
ram:0001c4f6    504d            ldr         r5,[DAT_0001c638]                       ;= 20002608h
ram:0001c4f8    0021            movs        param_2,#0x0                            
ram:0001c4fa    3c22            movs        param_3,#0x3c                           
ram:0001c4fc    2800            movs        param_1=>DAT_20002608,r5                
ram:0001c4fe    02f0beff        bl          FUN_0001f47e                            ;undefined FUN_0001f47e(undefined * p...
ram:0001c502    2378            ldrb        param_4,[r4,#0x0]                       
ram:0001c504    2200            movs        param_3,r4                              
ram:0001c506    2b70            strb        param_4,[r5,#0x0]=>DAT_20002608         
ram:0001c508    a378            ldrb        param_4,[r4,#0x2]                       
ram:0001c50a    1032            adds        param_3,#0x10                           
ram:0001c50c    ab70            strb        param_4,[r5,#0x2]=>DAT_2000260a         
ram:0001c50e    e378            ldrb        param_4,[r4,#0x3]                       
ram:0001c510    eb70            strb        param_4,[r5,#0x3]=>DAT_2000260b         
ram:0001c512    6378            ldrb        param_4,[r4,#0x1]                       
ram:0001c514    6b70            strb        param_4,[r5,#0x1]=>DAT_20002609         
ram:0001c516    2b00            movs        param_4,r5                              
ram:0001c518    1033            adds        param_4,#0x10                           
ram:0001c51a    03ca            ldmia       param_3!,{param_1,param_2}              
ram:0001c51c    03c3            stmia       param_4!=>DAT_20...,{param_1,param_2}...
ram:0001c51e    2b00            movs        param_4,r5                              
ram:0001c520    103a            subs        param_3,#0x10                           
ram:0001c522    0833            adds        param_4,#0x8                            
ram:0001c524    03ca            ldmia       param_3!,{param_1,param_2}              
ram:0001c526    03c3            stmia       param_4!=>DAT_20...,{param_1,param_2}...
ram:0001c528    2b00            movs        param_4,r5                              
ram:0001c52a    0832            adds        param_3,#0x8                            
ram:0001c52c    1833            adds        param_4,#0x18                           
ram:0001c52e    03ca            ldmia       param_3!,{param_1,param_2}              
ram:0001c530    03c3            stmia       param_4!=>DAT_20...,{param_1,param_2}...
ram:0001c532    636a            ldr         param_4,[r4,#0x24]                      
ram:0001c534    002b            cmp         param_4,#0x0                            
ram:0001c536    11d0            beq         LAB_0001c55c                            
ram:0001c538    404b            ldr         param_4,[DAT_0001c63c]                  ;= 20002674h
ram:0001c53a    414f            ldr         r7,[DAT_0001c640]                       ;= 20002654h
ram:0001c53c    6b62            str         param_4=>DAT_200...,[r5,#0x24]=>DAT_2...
ram:0001c53e    616a            ldr         param_2,[r4,#0x24]                      
ram:0001c540    9f60            str         r7=>DAT_20002654,[param_4,#0x8]=>DAT_...
ram:0001c542    0a88            ldrh        param_3,[param_2,#0x0]                  
ram:0001c544    1a80            strh        param_3,[param_4,#0x0]=>DAT_20002674    
ram:0001c546    8888            ldrh        param_1,[param_2,#0x4]                  
ram:0001c548    9880            strh        param_1,[param_4,#0x4]=>DAT_20002678    
ram:0001c54a    0028            cmp         param_1,#0x0                            
ram:0001c54c    06d0            beq         LAB_0001c55c                            
ram:0001c54e    0023            movs        param_4,#0x0                            
                            LAB_0001c550:                 ;XREF[1,0]:   0001c55a
ram:0001c550    8a68            ldr         param_3,[param_2,#0x8]                  
ram:0001c552    d25c            ldrb        param_3,[param_3,param_4]               
                                                          ; FWD[2,0]:   20002654,20002655
ram:0001c554    fa54            strb        param_3,[r7,param_4]=>DAT_20002654      
ram:0001c556    0133            adds        param_4,#0x1                            
ram:0001c558    9842            cmp         param_1,param_4                         
ram:0001c55a    f9d8            bhi         LAB_0001c550                            
                            LAB_0001c55c:                 ;XREF[2,0]:   0001c536,0001c54c
ram:0001c55c    a36a            ldr         param_4,[r4,#0x28]                      
ram:0001c55e    002b            cmp         param_4,#0x0                            
ram:0001c560    14d0            beq         LAB_0001c58c                            
ram:0001c562    384b            ldr         param_4,[DAT_0001c644]                  ;= 200026CCh
ram:0001c564    384f            ldr         r7,[DAT_0001c648]                       ;= 200026D8h
ram:0001c566    ab62            str         param_4=>DAT_200...,[r5,#0x28]=>DAT_2...
ram:0001c568    a16a            ldr         param_2,[r4,#0x28]                      
ram:0001c56a    9f60            str         r7=>DAT_200026d8,[param_4,#0x8]=>DAT_...
ram:0001c56c    8888            ldrh        param_1,[param_2,#0x4]                  
ram:0001c56e    9880            strh        param_1,[param_4,#0x4]=>DAT_200026d0    
ram:0001c570    0a88            ldrh        param_3,[param_2,#0x0]                  
ram:0001c572    1a80            strh        param_3,[param_4,#0x0]=>DAT_200026cc    
ram:0001c574    0028            cmp         param_1,#0x0                            
ram:0001c576    06d0            beq         LAB_0001c586                            
ram:0001c578    0023            movs        param_4,#0x0                            
                            LAB_0001c57a:                 ;XREF[1,0]:   0001c584
ram:0001c57a    8a68            ldr         param_3,[param_2,#0x8]                  
ram:0001c57c    d25c            ldrb        param_3,[param_3,param_4]               
                                                          ; FWD[2,0]:   200026d8,200026d9
ram:0001c57e    fa54            strb        param_3,[r7,param_4]=>DAT_200026d8      
ram:0001c580    0133            adds        param_4,#0x1                            
ram:0001c582    8342            cmp         param_4,param_1                         
ram:0001c584    f9d3            bcc         LAB_0001c57a                            
                            LAB_0001c586:                 ;XREF[1,0]:   0001c576
ram:0001c586    2c23            movs        param_4,#0x2c                           
ram:0001c588    e25c            ldrb        param_3,[r4,param_4]                    
ram:0001c58a    ea54            strb        param_3,[r5,param_4]=>DAT_20002634      
                            LAB_0001c58c:                 ;XREF[1,0]:   0001c560
ram:0001c58c    236a            ldr         param_4,[r4,#0x20]                      
ram:0001c58e    002b            cmp         param_4,#0x0                            
ram:0001c590    06d0            beq         LAB_0001c5a0                            
ram:0001c592    2e4b            ldr         param_4,[DAT_0001c64c]                  ;= 200026F8h
ram:0001c594    2b62            str         param_4=>DAT_200...,[r5,#0x20]=>DAT_2...
ram:0001c596    226a            ldr         param_3,[r4,#0x20]                      
ram:0001c598    5188            ldrh        param_2,[param_3,#0x2]                  
ram:0001c59a    5980            strh        param_2,[param_4,#0x2]=>DAT_200026fa    
ram:0001c59c    1288            ldrh        param_3,[param_3,#0x0]                  
ram:0001c59e    1a80            strh        param_3,[param_4,#0x0]=>DAT_200026f8    
                            LAB_0001c5a0:                 ;XREF[1,0]:   0001c590
ram:0001c5a0    6368            ldr         param_4,[r4,#0x4]                       
ram:0001c5a2    002b            cmp         param_4,#0x0                            
ram:0001c5a4    00d0            beq         LAB_0001c5a8                            
ram:0001c5a6    6b60            str         param_4,[r5,#0x4]=>DAT_2000260c         
                            LAB_0001c5a8:                 ;XREF[1,0]:   0001c5a4
ram:0001c5a8    2949            ldr         param_2,[DAT_0001c650]                  ;= 2000202Ch
ram:0001c5aa    2a4b            ldr         param_4,[DAT_0001c654]                  ;= 200026FCh
ram:0001c5ac    0a68            ldr         param_3,[param_2,#0x0]=>DAT_2000202c    
ram:0001c5ae    d81d            adds        param_1,param_4,#0x7                    
ram:0001c5b0    1360            str         param_4,[param_3,#0x0]                  
ram:0001c5b2    0a68            ldr         param_3,[param_2,#0x0]=>DAT_2000202c    
ram:0001c5b4    5060            str         param_1,[param_3,#0x4]                  
ram:0001c5b6    1800            movs        param_1,param_4                         
ram:0001c5b8    0e30            adds        param_1,#0xe                            
ram:0001c5ba    9060            str         param_1,[param_3,#0x8]                  
ram:0001c5bc    1800            movs        param_1,param_4                         
ram:0001c5be    1530            adds        param_1,#0x15                           
ram:0001c5c0    d060            str         param_1,[param_3,#0xc]                  
ram:0001c5c2    1800            movs        param_1,param_4                         
ram:0001c5c4    1c30            adds        param_1,#0x1c                           
ram:0001c5c6    1061            str         param_1,[param_3,#0x10]                 
ram:0001c5c8    1800            movs        param_1,param_4                         
ram:0001c5ca    2330            adds        param_1,#0x23                           
ram:0001c5cc    5061            str         param_1,[param_3,#0x14]                 
ram:0001c5ce    1800            movs        param_1,param_4                         
ram:0001c5d0    3133            adds        param_4,#0x31                           
ram:0001c5d2    d361            str         param_4,[param_3,#0x1c]                 
ram:0001c5d4    204b            ldr         param_4,[DAT_0001c658]                  ;= 20002734h
ram:0001c5d6    2a30            adds        param_1,#0x2a                           
ram:0001c5d8    9061            str         param_1,[param_3,#0x18]                 
ram:0001c5da    1800            movs        param_1,param_4                         
ram:0001c5dc    8a68            ldr         param_3,[param_2,#0x8]=>DAT_20002034    
ram:0001c5de    1030            adds        param_1,#0x10                           
ram:0001c5e0    1360            str         param_4,[param_3,#0x0]                  
ram:0001c5e2    8a68            ldr         param_3,[param_2,#0x8]=>DAT_20002034    
ram:0001c5e4    5060            str         param_1,[param_3,#0x4]                  
ram:0001c5e6    1800            movs        param_1,param_4                         
ram:0001c5e8    8a68            ldr         param_3,[param_2,#0x8]=>DAT_20002034    
ram:0001c5ea    2030            adds        param_1,#0x20                           
ram:0001c5ec    9060            str         param_1,[param_3,#0x8]                  
ram:0001c5ee    8a68            ldr         param_3,[param_2,#0x8]=>DAT_20002034    
ram:0001c5f0    1900            movs        param_2,param_4                         
ram:0001c5f2    3031            adds        param_2,#0x30                           
ram:0001c5f4    d160            str         param_2,[param_3,#0xc]                  
ram:0001c5f6    1900            movs        param_2,param_4                         
ram:0001c5f8    4031            adds        param_2,#0x40                           
ram:0001c5fa    1161            str         param_2,[param_3,#0x10]                 
ram:0001c5fc    1900            movs        param_2,param_4                         
ram:0001c5fe    5031            adds        param_2,#0x50                           
ram:0001c600    5161            str         param_2,[param_3,#0x14]                 
ram:0001c602    1900            movs        param_2,param_4                         
ram:0001c604    7033            adds        param_4,#0x70                           
ram:0001c606    6031            adds        param_2,#0x60                           
ram:0001c608    9161            str         param_2,[param_3,#0x18]                 
ram:0001c60a    d361            str         param_4,[param_3,#0x1c]                 
ram:0001c60c    3100            movs        param_2,r6                              
ram:0001c60e    2800            movs        param_1=>DAT_20002608,r5                
ram:0001c610    00f03efb        bl          FUN_0001cc90                            ;int FUN_0001cc90(short * param_1, sh...
                            LAB_0001c614:                 ;XREF[1,0]:   0001c618
ram:0001c614    f8bd            pop         {param_4,r4,r5,r6,r7,pc}                
                            LAB_0001c616:                 ;XREF[2,0]:   0001c4b6,0001c4bc
ram:0001c616    0e20            movs        param_1,#0xe                            
ram:0001c618    fce7            b           LAB_0001c614                            
ram:0001c61a    c046            mov         r8,r8                                   
                            DAT_0001c61c:                 ;XREF[1,0]:   0001c4c0
ram:0001c61c    50260020        undefined4  20002650h                               
                            DAT_0001c620:                 ;XREF[1,0]:   0001c4c6
ram:0001c620    e5250020        undefined4  200025E5h                               
                            DAT_0001c624:                 ;XREF[1,0]:   0001c4ca
ram:0001c624    e8250020        undefined4  200025E8h                               
                            DAT_0001c628:                 ;XREF[1,0]:   0001c4da
ram:0001c628    4c260020        undefined4  2000264Ch                               
                            DAT_0001c62c:                 ;XREF[1,0]:   0001c4e0
ram:0001c62c    48260020        undefined4  20002648h                               
                            DAT_0001c630:                 ;XREF[1,0]:   0001c4e4
ram:0001c630    c4260020        undefined4  200026C4h                               
                            DAT_0001c634:                 ;XREF[1,0]:   0001c4ea
ram:0001c634    46260020        undefined4  20002646h                               
                            DAT_0001c638:                 ;XREF[1,0]:   0001c4f6
ram:0001c638    08260020        undefined4  20002608h                               
                            DAT_0001c63c:                 ;XREF[1,0]:   0001c538
ram:0001c63c    74260020        undefined4  20002674h                               
                            DAT_0001c640:                 ;XREF[1,0]:   0001c53a
ram:0001c640    54260020        undefined4  20002654h                               
                            DAT_0001c644:                 ;XREF[1,0]:   0001c562
ram:0001c644    cc260020        undefined4  200026CCh                               
                            DAT_0001c648:                 ;XREF[1,0]:   0001c564
ram:0001c648    d8260020        undefined4  200026D8h                               
                            DAT_0001c64c:                 ;XREF[1,0]:   0001c592
ram:0001c64c    f8260020        undefined4  200026F8h                               
                            DAT_0001c650:                 ;XREF[1,0]:   0001c5a8
ram:0001c650    2c200020        undefined4  2000202Ch                               
                            DAT_0001c654:                 ;XREF[1,0]:   0001c5aa
ram:0001c654    fc260020        undefined4  200026FCh                               
                            DAT_0001c658:                 ;XREF[1,0]:   0001c5d4
ram:0001c658    34270020        undefined4  20002734h                               
                            ;************************************************************************************************
                            ;*                                           FUNCTION                                           *
                            ;************************************************************************************************
                            ;int FUN_0001c65c(uint param_1)
          ;param_1       uint                r0                      
          ;local_c       undefined4          -c                      ;XREF[1,0]:   0001c676
                                                          ;XREF[1,0]:   0001bf74
ram:0001c65c    10b5            push        {r4,lr}                                 
ram:0001c65e    0c4b            ldr         r3,[DAT_0001c690]                       ;= 20002650h
ram:0001c660    0400            movs        r4,param_1                              
ram:0001c662    1b78            ldrb        r3,[r3,#0x0]=>DAT_20002650              
ram:0001c664    82b0            sub         sp,#0x8                                 
ram:0001c666    0820            movs        param_1,#0x8                            
ram:0001c668    002b            cmp         r3,#0x0                                 
ram:0001c66a    0bd0            beq         LAB_0001c684                            
ram:0001c66c    094b            ldr         r3=>DAT_200025e5,[DAT_0001c694]         ;= 200025E5h
ram:0001c66e    01a8            add         param_1,sp,#0x4                         
ram:0001c670    1c70            strb        r4,[r3,#0x0]=>DAT_200025e5              
ram:0001c672    02f007fd        bl          FUN_0001f084                            ;undefined4 FUN_0001f084(undefined4 *...
ram:0001c676    019b            ldr         r3,[sp,#local_c+0x10]                   
ram:0001c678    002b            cmp         r3,#0x0                                 
ram:0001c67a    05d0            beq         LAB_0001c688                            
ram:0001c67c    0122            movs        r2,#0x1                                 
ram:0001c67e    0020            movs        param_1,#0x0                            
ram:0001c680    054b            ldr         r3,[DAT_0001c698]                       ;= 20002644h
ram:0001c682    1a70            strb        r2,[r3,#0x0]=>DAT_20002644              
                            LAB_0001c684:                 ;XREF[2,0]:   0001c66a,0001c68e
ram:0001c684    02b0            add         sp,#0x8                                 
ram:0001c686    10bd            pop         {r4,pc}                                 
                            LAB_0001c688:                 ;XREF[1,0]:   0001c67a
ram:0001c688    2000            movs        param_1,r4                              
ram:0001c68a    fff7f7fd        bl          FUN_0001c27c                            ;int FUN_0001c27c(uint param_1)
ram:0001c68e    f9e7            b           LAB_0001c684                            
                            DAT_0001c690:                 ;XREF[1,0]:   0001c65e
ram:0001c690    50260020        undefined4  20002650h                               
                            DAT_0001c694:                 ;XREF[1,0]:   0001c66c
ram:0001c694    e5250020        undefined4  200025E5h                               
                            DAT_0001c698:                 ;XREF[1,0]:   0001c680
ram:0001c698    44260020        undefined4  20002644h                               
                            ;************************************************************************************************
                            ;*                                           FUNCTION                                           *
                            ;************************************************************************************************
                            ;undefined FUN_0001c69c(short * param_1)
          ;param_1       short *             r0                      
          ;local_14      undefined4         -14                      ;XREF[2,0]:   0001c6e4,0001c716
                                                          ;XREF[1,0]:   0001b18a
ram:0001c69c    30b5            push        {r4,r5,lr}                              
ram:0001c69e    0388            ldrh        r3,[param_1,#0x0]                       
ram:0001c6a0    83b0            sub         sp,#0xc                                 
ram:0001c6a2    112b            cmp         r3,#0x11                                
ram:0001c6a4    25d0            beq         LAB_0001c6f2                            
ram:0001c6a6    1b2b            cmp         r3,#0x1b                                
ram:0001c6a8    0ad0            beq         LAB_0001c6c0                            
ram:0001c6aa    102b            cmp         r3,#0x10                                
ram:0001c6ac    01d0            beq         LAB_0001c6b2                            
                            LAB_0001c6ae:                 ;XREF[9,0]:   0001c6b6,0001c6be,0001c6c4,0001c6f0
                                                          ;             0001c700,0001c726,0001c730,0001c734
                                                          ;             0001c740
ram:0001c6ae    03b0            add         sp,#0xc                                 
ram:0001c6b0    30bd            pop         {r4,r5,pc}                              
                            LAB_0001c6b2:                 ;XREF[1,0]:   0001c6ac
ram:0001c6b2    837d            ldrb        r3,[param_1,#0x16]                      
ram:0001c6b4    012b            cmp         r3,#0x1                                 
ram:0001c6b6    fad1            bne         LAB_0001c6ae                            
ram:0001c6b8    8288            ldrh        r2,[param_1,#0x4]                       
ram:0001c6ba    224b            ldr         r3,[DAT_0001c744]                       ;= 20002646h
ram:0001c6bc    1a80            strh        r2,[r3,#0x0]=>DAT_20002646              
ram:0001c6be    f6e7            b           LAB_0001c6ae                            
                            LAB_0001c6c0:                 ;XREF[1,0]:   0001c6a8
ram:0001c6c0    037a            ldrb        r3,[param_1,#0x8]                       
ram:0001c6c2    002b            cmp         r3,#0x0                                 
ram:0001c6c4    f3d1            bne         LAB_0001c6ae                            
ram:0001c6c6    204b            ldr         r3,[DAT_0001c748]                       ;= 20002650h
ram:0001c6c8    1b78            ldrb        r3,[r3,#0x0]=>DAT_20002650              
ram:0001c6ca    002b            cmp         r3,#0x0                                 
ram:0001c6cc    2cd0            beq         LAB_0001c728                            
ram:0001c6ce    1f4d            ldr         r5,[DAT_0001c74c]                       ;= 200025E5h
ram:0001c6d0    0521            movs        r1,#0x5                                 
ram:0001c6d2    2878            ldrb        param_1,[r5,#0x0]=>DAT_200025e5         
ram:0001c6d4    0130            adds        param_1,#0x1                            
ram:0001c6d6    02f0c9ff        bl          FUN_0001f66c                            ;undefined8 FUN_0001f66c(uint param_1...
ram:0001c6da    01a8            add         param_1,sp,#0x4                         
ram:0001c6dc    ccb2            uxtb        r4,r1                                   
ram:0001c6de    2c70            strb        r4,[r5,#0x0]=>DAT_200025e5              
ram:0001c6e0    02f0d0fc        bl          FUN_0001f084                            ;undefined4 FUN_0001f084(undefined4 *...
ram:0001c6e4    019b            ldr         r3,[sp,#local_14+0x18]                  
ram:0001c6e6    002b            cmp         r3,#0x0                                 
ram:0001c6e8    25d0            beq         LAB_0001c736                            
                            LAB_0001c6ea:                 ;XREF[1,0]:   0001c71a
ram:0001c6ea    0122            movs        r2,#0x1                                 
ram:0001c6ec    184b            ldr         r3,[DAT_0001c750]                       ;= 20002644h
ram:0001c6ee    1a70            strb        r2,[r3,#0x0]=>DAT_20002644              
ram:0001c6f0    dde7            b           LAB_0001c6ae                            
                            LAB_0001c6f2:                 ;XREF[1,0]:   0001c6a4
ram:0001c6f2    0021            movs        r1,#0x0                                 
ram:0001c6f4    174a            ldr         r2,[DAT_0001c754]                       ;= 200027B5h
ram:0001c6f6    8388            ldrh        r3,[param_1,#0x4]                       
ram:0001c6f8    1170            strb        r1,[r2,#0x0]=>DAT_200027b5              
ram:0001c6fa    124a            ldr         r2,[DAT_0001c744]                       ;= 20002646h
ram:0001c6fc    1288            ldrh        r2,[r2,#0x0]=>DAT_20002646              
ram:0001c6fe    9a42            cmp         r2,r3                                   
ram:0001c700    d5d1            bne         LAB_0001c6ae                            
ram:0001c702    114b            ldr         r3,[DAT_0001c748]                       ;= 20002650h
ram:0001c704    1b78            ldrb        r3,[r3,#0x0]=>DAT_20002650              
ram:0001c706    002b            cmp         r3,#0x0                                 
ram:0001c708    0ed0            beq         LAB_0001c728                            
ram:0001c70a    0122            movs        r2,#0x1                                 
ram:0001c70c    0f4b            ldr         r3=>DAT_200025e5,[DAT_0001c74c]         ;= 200025E5h
ram:0001c70e    01a8            add         param_1,sp,#0x4                         
ram:0001c710    1a70            strb        r2,[r3,#0x0]=>DAT_200025e5              
ram:0001c712    02f0b7fc        bl          FUN_0001f084                            ;undefined4 FUN_0001f084(undefined4 *...
ram:0001c716    019b            ldr         r3,[sp,#local_14+0x18]                  
ram:0001c718    002b            cmp         r3,#0x0                                 
ram:0001c71a    e6d1            bne         LAB_0001c6ea                            
ram:0001c71c    0120            movs        param_1,#0x1                            
ram:0001c71e    fff7adfd        bl          FUN_0001c27c                            ;int FUN_0001c27c(uint param_1)
ram:0001c722    0028            cmp         param_1,#0x0                            
ram:0001c724    01d1            bne         LAB_0001c72a                            
ram:0001c726    c2e7            b           LAB_0001c6ae                            
                            LAB_0001c728:                 ;XREF[2,0]:   0001c6cc,0001c708
ram:0001c728    0820            movs        param_1,#0x8                            
                            LAB_0001c72a:                 ;XREF[2,0]:   0001c724,0001c73e
ram:0001c72a    0b4b            ldr         r3,[DAT_0001c758]                       ;= 20002648h
ram:0001c72c    1b68            ldr         r3,[r3,#0x0]=>DAT_20002648              
ram:0001c72e    002b            cmp         r3,#0x0                                 
ram:0001c730    bdd0            beq         LAB_0001c6ae                            
ram:0001c732    9847            blx         r3                                      
ram:0001c734    bbe7            b           LAB_0001c6ae                            
                            LAB_0001c736:                 ;XREF[1,0]:   0001c6e8
ram:0001c736    2000            movs        param_1,r4                              
ram:0001c738    fff7a0fd        bl          FUN_0001c27c                            ;int FUN_0001c27c(uint param_1)
ram:0001c73c    0028            cmp         param_1,#0x0                            
ram:0001c73e    f4d1            bne         LAB_0001c72a                            
ram:0001c740    b5e7            b           LAB_0001c6ae                            
ram:0001c742    c046            mov         r8,r8                                   
                            DAT_0001c744:                 ;XREF[2,0]:   0001c6ba,0001c6fa
ram:0001c744    46260020        undefined4  20002646h                               
                            DAT_0001c748:                 ;XREF[2,0]:   0001c6c6,0001c702
ram:0001c748    50260020        undefined4  20002650h                               
                            DAT_0001c74c:                 ;XREF[2,0]:   0001c6ce,0001c70c
ram:0001c74c    e5250020        undefined4  200025E5h                               
                            DAT_0001c750:                 ;XREF[1,0]:   0001c6ec
ram:0001c750    44260020        undefined4  20002644h                               
                            DAT_0001c754:                 ;XREF[1,0]:   0001c6f4
ram:0001c754    b5270020        undefined4  200027B5h                               
                            DAT_0001c758:                 ;XREF[1,0]:   0001c72a
ram:0001c758    48260020        undefined4  20002648h                               
                            ;************************************************************************************************
                            ;*                                           FUNCTION                                           *
                            ;************************************************************************************************
                            ;undefined FUN_0001c75c(void)
                                                          ;XREF[2,0]:   0001ca7a,0001cf38
ram:0001c75c    71df            svc         0x71                                    
ram:0001c75e    7047            bx          lr                                      
                            ;************************************************************************************************
                            ;*                                           FUNCTION                                           *
                            ;************************************************************************************************
                            ;undefined FUN_0001c760(void)
                                                          ;XREF[1,0]:   0001cd36
ram:0001c760    72df            svc         0x72                                    
ram:0001c762    7047            bx          lr                                      
                            ;************************************************************************************************
                            ;*                                           FUNCTION                                           *
                            ;************************************************************************************************
                            ;undefined FUN_0001c764(void)
                                                          ;XREF[2,0]:   0001ca40,0001cd42
ram:0001c764    79df            svc         0x79                                    
ram:0001c766    7047            bx          lr                                      
                            ;************************************************************************************************
                            ;*                                           FUNCTION                                           *
                            ;************************************************************************************************
                            ;undefined FUN_0001c768(void)
                                                          ;XREF[2,0]:   0001cc3c,0001ceea
ram:0001c768    7ddf            svc         0x7d                                    
ram:0001c76a    7047            bx          lr                                      
                            ;************************************************************************************************
                            ;*                                           FUNCTION                                           *
                            ;************************************************************************************************
                            ;undefined FUN_0001c76c(void)
                                                          ;XREF[3,0]:   0001c7c6,0001c7ee,0001c860
ram:0001c76c    65df            svc         0x65                                    
ram:0001c76e    7047            bx          lr                                      
                            ;************************************************************************************************
                            ;*                                           FUNCTION                                           *
                            ;************************************************************************************************
                            ;int FUN_0001c770(ushort * param_1, undefined param_2, uint param_3, int param_4, ushort * param_5, ushort param_6)
          ;param_1       ushort *            r0                      
          ;param_2       undefined           r1                      
          ;param_3       uint                r2                      
          ;param_4       int                 r3                      
          ;param_5       ushort *             0                      ;XREF[1,0]:   0001c784
          ;param_6       ushort               4                      ;XREF[1,0]:   0001c788
          ;local_2d      undefined1         -2d                      ;XREF[2,0]:   0001c7ce,0001c7f8
          ;local_34      undefined4         -34                      ;XREF[2,0]:   0001c792,0001c818
          ;local_38      undefined4         -38                      ;XREF[2,0]:   0001c78a,0001c84c
          ;local_3c      undefined4         -3c                      ;XREF[3,0]:   0001c78c,0001c7e2,0001c838
                                                          ;XREF[12,0]:  0001cae4,0001caf8,0001cb16,0001cb2c
                                                          ;             0001cb4a,0001cb60,0001cfaa,0001cfc2
                                                          ;             0001d07a,0001d092,0001d0b4,0001d0cc
ram:0001c770    f0b5            push        {r4,r5,r6,r7,lr}                        
ram:0001c772    de46            mov         lr,r11                                  
ram:0001c774    5746            mov         r7,r10                                  
ram:0001c776    4e46            mov         r6,r9                                   
ram:0001c778    4546            mov         r5,r8                                   
ram:0001c77a    e0b5            push        {r5,r6,r7,lr}                           
ram:0001c77c    87b0            sub         sp,#0x1c                                
ram:0001c77e    9b46            mov         r11,param_4                             
ram:0001c780    10ab            add         param_4,sp,#0x40                        
ram:0001c782    9146            mov         r9,param_3                              
ram:0001c784    04cb            ldmia       param_4!=>param_5,{param_3}             
ram:0001c786    0700            movs        r7,param_1                              
ram:0001c788    1b88            ldrh        param_4=>param_6,[param_4,#0x0]         
ram:0001c78a    0291            str         param_2,[sp,#local_38+0x40]             
ram:0001c78c    0193            str         param_4,[sp,#local_3c+0x40]             
ram:0001c78e    1388            ldrh        param_4,[param_3,#0x0]                  
ram:0001c790    9046            mov         r8,param_3                              
ram:0001c792    0393            str         param_4,[sp,#local_34+0x40]             
ram:0001c794    0388            ldrh        param_4,[param_1,#0x0]                  
ram:0001c796    002b            cmp         param_4,#0x0                            
ram:0001c798    00d1            bne         LAB_0001c79c                            
ram:0001c79a    69e0            b           LAB_0001c870                            
                            LAB_0001c79c:                 ;XREF[1,0]:   0001c798
ram:0001c79c    0023            movs        param_4,#0x0                            
ram:0001c79e    9a46            mov         r10,param_4                             
ram:0001c7a0    04ab            add         param_4,sp,#0x10                        
ram:0001c7a2    0024            movs        r4,#0x0                                 
ram:0001c7a4    dd1c            adds        r5,param_4,#0x3                         
ram:0001c7a6    03e0            b           LAB_0001c7b0                            
                            LAB_0001c7a8:                 ;XREF[1,0]:   0001c7d2
ram:0001c7a8    3b88            ldrh        param_4,[r7,#0x0]                       
ram:0001c7aa    0134            adds        r4,#0x1                                 
ram:0001c7ac    a342            cmp         param_4,r4                              
ram:0001c7ae    2edd            ble         LAB_0001c80e                            
                            LAB_0001c7b0:                 ;XREF[2,0]:   0001c7a6,0001c80c
ram:0001c7b0    7b68            ldr         param_4,[r7,#0x4]                       
ram:0001c7b2    a100            lsls        param_2,r4,#0x2                         
ram:0001c7b4    9c46            mov         r12,param_4                             
ram:0001c7b6    0422            movs        param_3,#0x4                            
ram:0001c7b8    6144            add         param_2,r12                             
ram:0001c7ba    05a8            add         param_1,sp,#0x14                        
ram:0001c7bc    02f056fe        bl          FUN_0001f46c                            ;undefined FUN_0001f46c(int param_1, ...
ram:0001c7c0    0022            movs        param_3,#0x0                            
ram:0001c7c2    2900            movs        param_2,r5                              
ram:0001c7c4    05a8            add         param_1,sp,#0x14                        
ram:0001c7c6    fff7d1ff        bl          FUN_0001c76c                            ;undefined FUN_0001c76c(void)
ram:0001c7ca    061e            subs        r6,param_1,#0x0                         
ram:0001c7cc    2cd1            bne         LAB_0001c828                            
ram:0001c7ce    2b78            ldrb        param_4,[r5,#0x0]=>local_2d             
ram:0001c7d0    4b45            cmp         param_4,r9                              
ram:0001c7d2    e9d1            bne         LAB_0001c7a8                            
ram:0001c7d4    4346            mov         param_4,r8                              
ram:0001c7d6    5146            mov         param_2,r10                             
ram:0001c7d8    1a88            ldrh        param_3,[param_4,#0x0]                  
ram:0001c7da    4b46            mov         param_4,r9                              
ram:0001c7dc    9b18            adds        param_4,param_4,param_3                 
ram:0001c7de    0029            cmp         param_2,#0x0                            
ram:0001c7e0    2ad0            beq         LAB_0001c838                            
ram:0001c7e2    0199            ldr         param_2,[sp,#local_3c+0x40]             
ram:0001c7e4    9942            cmp         param_2,param_4                         
ram:0001c7e6    41db            blt         LAB_0001c86c                            
ram:0001c7e8    5a44            add         param_3,r11                             
ram:0001c7ea    2900            movs        param_2,r5                              
ram:0001c7ec    05a8            add         param_1,sp,#0x14                        
ram:0001c7ee    fff7bdff        bl          FUN_0001c76c                            ;undefined FUN_0001c76c(void)
ram:0001c7f2    0028            cmp         param_1,#0x0                            
ram:0001c7f4    38d1            bne         LAB_0001c868                            
                            LAB_0001c7f6:                 ;XREF[1,0]:   0001c866
ram:0001c7f6    4246            mov         param_3,r8                              
ram:0001c7f8    2b78            ldrb        param_4,[r5,#0x0]=>local_2d             
ram:0001c7fa    1288            ldrh        param_3,[param_3,#0x0]                  
ram:0001c7fc    0134            adds        r4,#0x1                                 
ram:0001c7fe    9b18            adds        param_4,param_4,param_3                 
ram:0001c800    4246            mov         param_3,r8                              
ram:0001c802    1380            strh        param_4,[param_3,#0x0]                  
ram:0001c804    0123            movs        param_4,#0x1                            
ram:0001c806    9a46            mov         r10,param_4                             
ram:0001c808    3b88            ldrh        param_4,[r7,#0x0]                       
ram:0001c80a    a342            cmp         param_4,r4                              
ram:0001c80c    d0dc            bgt         LAB_0001c7b0                            
                            LAB_0001c80e:                 ;XREF[1,0]:   0001c7ae
ram:0001c80e    5346            mov         param_4,r10                             
ram:0001c810    002b            cmp         param_4,#0x0                            
ram:0001c812    2dd0            beq         LAB_0001c870                            
ram:0001c814    4346            mov         param_4,r8                              
ram:0001c816    1b88            ldrh        param_4,[param_4,#0x0]                  
ram:0001c818    039a            ldr         param_3,[sp,#local_34+0x40]             
ram:0001c81a    013b            subs        param_4,#0x1                            
ram:0001c81c    9b1a            subs        param_4,param_4,param_3                 
ram:0001c81e    9bb2            uxth        param_4,param_4                         
ram:0001c820    ff2b            cmp         param_4,#0xff                           
ram:0001c822    23d8            bhi         LAB_0001c86c                            
ram:0001c824    5946            mov         param_2,r11                             
ram:0001c826    8b54            strb        param_4,[param_2,param_3]               
                            LAB_0001c828:                 ;XREF[4,0]:   0001c7cc,0001c86a,0001c86e,0001c872
ram:0001c828    3000            movs        param_1,r6                              
ram:0001c82a    07b0            add         sp,#0x1c                                
ram:0001c82c    3cbc            pop         {param_3,param_4,r4,r5}                 
ram:0001c82e    9046            mov         r8,param_3                              
ram:0001c830    9946            mov         r9,param_4                              
ram:0001c832    a246            mov         r10,r4                                  
ram:0001c834    ab46            mov         r11,r5                                  
ram:0001c836    f0bd            pop         {r4,r5,r6,r7,pc}                        
                            LAB_0001c838:                 ;XREF[1,0]:   0001c7e0
ram:0001c838    0199            ldr         param_2,[sp,#local_3c+0x40]             
ram:0001c83a    0233            adds        param_4,#0x2                            
ram:0001c83c    9942            cmp         param_2,param_4                         
ram:0001c83e    15db            blt         LAB_0001c86c                            
ram:0001c840    4346            mov         param_4,r8                              
ram:0001c842    0132            adds        param_3,#0x1                            
ram:0001c844    6946            mov         param_2,sp                              
ram:0001c846    92b2            uxth        param_3,param_3                         
ram:0001c848    1a80            strh        param_3,[param_4,#0x0]                  
ram:0001c84a    5b46            mov         param_4,r11                             
ram:0001c84c    097a            ldrb        param_2,[r1,#local_38+0x40]             
ram:0001c84e    05a8            add         param_1,sp,#0x14                        
ram:0001c850    9954            strb        param_2,[param_4,param_3]               
ram:0001c852    4346            mov         param_4,r8                              
ram:0001c854    1a88            ldrh        param_3,[param_4,#0x0]                  
ram:0001c856    2900            movs        param_2,r5                              
ram:0001c858    0132            adds        param_3,#0x1                            
ram:0001c85a    92b2            uxth        param_3,param_3                         
ram:0001c85c    1a80            strh        param_3,[param_4,#0x0]                  
ram:0001c85e    5a44            add         param_3,r11                             
ram:0001c860    fff784ff        bl          FUN_0001c76c                            ;undefined FUN_0001c76c(void)
ram:0001c864    0028            cmp         param_1,#0x0                            
ram:0001c866    c6d0            beq         LAB_0001c7f6                            
                            LAB_0001c868:                 ;XREF[1,0]:   0001c7f4
ram:0001c868    0600            movs        r6,param_1                              
ram:0001c86a    dde7            b           LAB_0001c828                            
                            LAB_0001c86c:                 ;XREF[3,0]:   0001c7e6,0001c822,0001c83e
ram:0001c86c    0c26            movs        r6,#0xc                                 
ram:0001c86e    dbe7            b           LAB_0001c828                            
                            LAB_0001c870:                 ;XREF[2,0]:   0001c79a,0001c812
ram:0001c870    0026            movs        r6,#0x0                                 
ram:0001c872    d9e7            b           LAB_0001c828                            
                            ;************************************************************************************************
                            ;*                                           FUNCTION                                           *
                            ;************************************************************************************************
                            ;int FUN_0001c874(short * param_1, int param_2, ushort * param_3)
          ;param_1       short *             r0                      
          ;param_2       int                 r1                      
          ;param_3       ushort *            r2                      
          ;local_30      undefined2         -30                      ;XREF[4,0]:   0001ca5e,0001caac,0001cc3a,0001cc84
          ;local_34      undefined4         -34                      ;XREF[6,0]:   0001cad8,0001caec,0001cb0a,0001cb20,0001cb3e
                                                                     ;             0001cb54
          ;local_38      undefined4         -38                      ;XREF[6,0]:   0001cada,0001caee,0001cb0c,0001cb22,0001cb40
                                                                     ;             0001cb56
                                                          ;XREF[1,0]:   0001cd24
ram:0001c874    f0b5            push        {r4,r5,r6,r7,lr}                        
ram:0001c876    5746            mov         r7,r10                                  
ram:0001c878    4e46            mov         r6,r9                                   
ram:0001c87a    4546            mov         r5,r8                                   
ram:0001c87c    de46            mov         lr,r11                                  
ram:0001c87e    0023            movs        r3,#0x0                                 
ram:0001c880    e0b5            push        {r5,r6,r7,lr}                           
ram:0001c882    1788            ldrh        r7,[param_3,#0x0]                       
ram:0001c884    1380            strh        r3,[param_3,#0x0]                       
ram:0001c886    2d33            adds        r3,#0x2d                                
ram:0001c888    1400            movs        r4,param_3                              
ram:0001c88a    c25c            ldrb        param_3,[param_1,r3]                    
ram:0001c88c    85b0            sub         sp,#0x14                                
ram:0001c88e    0500            movs        r5,param_1                              
ram:0001c890    0e00            movs        r6,param_2                              
ram:0001c892    0023            movs        r3,#0x0                                 
ram:0001c894    002a            cmp         param_3,#0x0                            
ram:0001c896    00d0            beq         LAB_0001c89a                            
ram:0001c898    c3e0            b           LAB_0001ca22                            
                            LAB_0001c89a:                 ;XREF[2,0]:   0001c896,0001cac4
ram:0001c89a    aa78            ldrb        param_3,[r5,#0x2]                       
ram:0001c89c    002a            cmp         param_3,#0x0                            
ram:0001c89e    00d0            beq         LAB_0001c8a2                            
ram:0001c8a0    c9e0            b           LAB_0001ca36                            
                            LAB_0001c8a2:                 ;XREF[2,0]:   0001c89e,0001ca76
ram:0001c8a2    e978            ldrb        param_2,[r5,#0x3]                       
ram:0001c8a4    0029            cmp         param_2,#0x0                            
ram:0001c8a6    14d0            beq         LAB_0001c8d2                            
ram:0001c8a8    da1c            adds        param_3,r3,#0x3                         
ram:0001c8aa    ba42            cmp         param_3,r7                              
ram:0001c8ac    00d9            bls         LAB_0001c8b0                            
ram:0001c8ae    bae0            b           LAB_0001ca26                            
                            LAB_0001c8b0:                 ;XREF[1,0]:   0001c8ac
ram:0001c8b0    0222            movs        param_3,#0x2                            
ram:0001c8b2    f254            strb        param_3,[r6,r3]                         
ram:0001c8b4    2388            ldrh        r3,[r4,#0x0]                            
ram:0001c8b6    013a            subs        param_3,#0x1                            
ram:0001c8b8    0133            adds        r3,#0x1                                 
ram:0001c8ba    9bb2            uxth        r3,r3                                   
ram:0001c8bc    2380            strh        r3,[r4,#0x0]                            
ram:0001c8be    f254            strb        param_3,[r6,r3]                         
ram:0001c8c0    2388            ldrh        r3,[r4,#0x0]                            
ram:0001c8c2    0133            adds        r3,#0x1                                 
ram:0001c8c4    9bb2            uxth        r3,r3                                   
ram:0001c8c6    2380            strh        r3,[r4,#0x0]                            
ram:0001c8c8    f154            strb        param_2,[r6,r3]                         
ram:0001c8ca    2388            ldrh        r3,[r4,#0x0]                            
ram:0001c8cc    0133            adds        r3,#0x1                                 
ram:0001c8ce    9bb2            uxth        r3,r3                                   
ram:0001c8d0    2380            strh        r3,[r4,#0x0]                            
                            LAB_0001c8d2:                 ;XREF[1,0]:   0001c8a6
ram:0001c8d2    6a68            ldr         param_3,[r5,#0x4]                       
ram:0001c8d4    002a            cmp         param_3,#0x0                            
ram:0001c8d6    15d0            beq         LAB_0001c904                            
ram:0001c8d8    d91c            adds        param_2,r3,#0x3                         
ram:0001c8da    b942            cmp         param_2,r7                              
ram:0001c8dc    00d9            bls         LAB_0001c8e0                            
ram:0001c8de    a2e0            b           LAB_0001ca26                            
                            LAB_0001c8e0:                 ;XREF[1,0]:   0001c8dc
ram:0001c8e0    0221            movs        param_2,#0x2                            
ram:0001c8e2    1278            ldrb        param_3,[param_3,#0x0]                  
ram:0001c8e4    f154            strb        param_2,[r6,r3]                         
ram:0001c8e6    2388            ldrh        r3,[r4,#0x0]                            
ram:0001c8e8    0831            adds        param_2,#0x8                            
ram:0001c8ea    0133            adds        r3,#0x1                                 
ram:0001c8ec    9bb2            uxth        r3,r3                                   
ram:0001c8ee    2380            strh        r3,[r4,#0x0]                            
ram:0001c8f0    f154            strb        param_2,[r6,r3]                         
ram:0001c8f2    2388            ldrh        r3,[r4,#0x0]                            
ram:0001c8f4    52b2            sxtb        param_3,param_3                         
ram:0001c8f6    0133            adds        r3,#0x1                                 
ram:0001c8f8    9bb2            uxth        r3,r3                                   
ram:0001c8fa    2380            strh        r3,[r4,#0x0]                            
ram:0001c8fc    f254            strb        param_3,[r6,r3]                         
ram:0001c8fe    2388            ldrh        r3,[r4,#0x0]                            
ram:0001c900    0133            adds        r3,#0x1                                 
ram:0001c902    2380            strh        r3,[r4,#0x0]                            
                            LAB_0001c904:                 ;XREF[1,0]:   0001c8d6
ram:0001c904    2b89            ldrh        r3,[r5,#0x8]                            
ram:0001c906    002b            cmp         r3,#0x0                                 
ram:0001c908    00d0            beq         LAB_0001c90c                            
ram:0001c90a    e2e0            b           LAB_0001cad2                            
                            LAB_0001c90c:                 ;XREF[2,0]:   0001c908,0001cb00
ram:0001c90c    2b8a            ldrh        r3,[r5,#0x10]                           
ram:0001c90e    002b            cmp         r3,#0x0                                 
ram:0001c910    00d0            beq         LAB_0001c914                            
ram:0001c912    f7e0            b           LAB_0001cb04                            
                            LAB_0001c914:                 ;XREF[2,0]:   0001c910,0001cb34
ram:0001c914    2b8b            ldrh        r3,[r5,#0x18]                           
ram:0001c916    002b            cmp         r3,#0x0                                 
ram:0001c918    00d0            beq         LAB_0001c91c                            
ram:0001c91a    0de1            b           LAB_0001cb38                            
                            LAB_0001c91c:                 ;XREF[2,0]:   0001c918,0001cb68
ram:0001c91c    2b6a            ldr         r3,[r5,#0x20]                           
ram:0001c91e    002b            cmp         r3,#0x0                                 
ram:0001c920    42d0            beq         LAB_0001c9a8                            
ram:0001c922    2088            ldrh        param_1,[r4,#0x0]                       
ram:0001c924    821d            adds        param_3,param_1,#0x6                    
ram:0001c926    ba42            cmp         param_3,r7                              
ram:0001c928    00d9            bls         LAB_0001c92c                            
ram:0001c92a    7ce0            b           LAB_0001ca26                            
                            LAB_0001c92c:                 ;XREF[1,0]:   0001c928
ram:0001c92c    1a88            ldrh        param_3,[r3,#0x0]                       
ram:0001c92e    9046            mov         r8,param_3                              
ram:0001c930    052a            cmp         param_3,#0x5                            
ram:0001c932    00d8            bhi         LAB_0001c936                            
ram:0001c934    cbe0            b           LAB_0001cace                            
                            LAB_0001c936:                 ;XREF[1,0]:   0001c932
ram:0001c936    b44a            ldr         param_3,[DAT_0001cc08]                  ;= FFFFF37Fh
ram:0001c938    b449            ldr         param_2,[DAT_0001cc0c]                  ;= 0000F37Dh
ram:0001c93a    4244            add         param_3,r8                              
ram:0001c93c    92b2            uxth        param_3,param_3                         
ram:0001c93e    8946            mov         r9,param_2                              
ram:0001c940    8a42            cmp         param_3,param_2                         
ram:0001c942    00d8            bhi         LAB_0001c946                            
ram:0001c944    c3e0            b           LAB_0001cace                            
                            LAB_0001c946:                 ;XREF[1,0]:   0001c942
ram:0001c946    5a88            ldrh        param_3,[r3,#0x2]                       
ram:0001c948    052a            cmp         param_3,#0x5                            
ram:0001c94a    00d8            bhi         LAB_0001c94e                            
ram:0001c94c    bfe0            b           LAB_0001cace                            
                            LAB_0001c94e:                 ;XREF[1,0]:   0001c94a
ram:0001c94e    ae49            ldr         param_2,[DAT_0001cc08]                  ;= FFFFF37Fh
ram:0001c950    8c46            mov         r12,param_2                             
ram:0001c952    9444            add         r12,param_3                             
ram:0001c954    6146            mov         param_2,r12                             
ram:0001c956    89b2            uxth        param_2,param_2                         
ram:0001c958    4945            cmp         param_2,r9                              
ram:0001c95a    00d8            bhi         LAB_0001c95e                            
ram:0001c95c    b7e0            b           LAB_0001cace                            
                            LAB_0001c95e:                 ;XREF[1,0]:   0001c95a
ram:0001c95e    ac49            ldr         param_2,[DAT_0001cc10]                  ;= 0000FFFFh
ram:0001c960    8845            cmp         r8,param_2                              
ram:0001c962    04d0            beq         LAB_0001c96e                            
ram:0001c964    8a42            cmp         param_3,param_2                         
ram:0001c966    02d0            beq         LAB_0001c96e                            
ram:0001c968    9045            cmp         r8,param_3                              
ram:0001c96a    00d9            bls         LAB_0001c96e                            
ram:0001c96c    afe0            b           LAB_0001cace                            
                            LAB_0001c96e:                 ;XREF[3,0]:   0001c962,0001c966,0001c96a
ram:0001c96e    0522            movs        param_3,#0x5                            
ram:0001c970    1221            movs        param_2,#0x12                           
ram:0001c972    3254            strb        param_3,[r6,param_1]                    
ram:0001c974    2288            ldrh        param_3,[r4,#0x0]                       
ram:0001c976    0132            adds        param_3,#0x1                            
ram:0001c978    92b2            uxth        param_3,param_3                         
ram:0001c97a    2280            strh        param_3,[r4,#0x0]                       
ram:0001c97c    b154            strb        param_2,[r6,param_3]                    
ram:0001c97e    2288            ldrh        param_3,[r4,#0x0]                       
ram:0001c980    0132            adds        param_3,#0x1                            
ram:0001c982    92b2            uxth        param_3,param_3                         
ram:0001c984    2280            strh        param_3,[r4,#0x0]                       
ram:0001c986    1988            ldrh        param_2,[r3,#0x0]                       
ram:0001c988    b218            adds        param_3,r6,param_3                      
ram:0001c98a    1170            strb        param_2,[param_3,#0x0]                  
ram:0001c98c    090a            lsrs        param_2,param_2,#0x8                    
ram:0001c98e    5170            strb        param_2,[param_3,#0x1]                  
ram:0001c990    2288            ldrh        param_3,[r4,#0x0]                       
ram:0001c992    0232            adds        param_3,#0x2                            
ram:0001c994    92b2            uxth        param_3,param_3                         
ram:0001c996    2280            strh        param_3,[r4,#0x0]                       
ram:0001c998    5988            ldrh        param_2,[r3,#0x2]                       
ram:0001c99a    b218            adds        param_3,r6,param_3                      
ram:0001c99c    1170            strb        param_2,[param_3,#0x0]                  
ram:0001c99e    090a            lsrs        param_2,param_2,#0x8                    
ram:0001c9a0    5170            strb        param_2,[param_3,#0x1]                  
ram:0001c9a2    2388            ldrh        r3,[r4,#0x0]                            
ram:0001c9a4    0233            adds        r3,#0x2                                 
ram:0001c9a6    2380            strh        r3,[r4,#0x0]                            
                            LAB_0001c9a8:                 ;XREF[1,0]:   0001c920
ram:0001c9a8    6b6a            ldr         r3,[r5,#0x24]                           
ram:0001c9aa    9846            mov         r8,r3                                   
ram:0001c9ac    002b            cmp         r3,#0x0                                 
ram:0001c9ae    2ed0            beq         LAB_0001ca0e                            
ram:0001c9b0    9a88            ldrh        param_3,[r3,#0x4]                       
ram:0001c9b2    2088            ldrh        param_1,[r4,#0x0]                       
ram:0001c9b4    911c            adds        param_2,param_3,#0x2                    
ram:0001c9b6    831c            adds        r3,param_1,#0x2                         
ram:0001c9b8    5b18            adds        r3,r3,param_2                           
ram:0001c9ba    bb42            cmp         r3,r7                                   
ram:0001c9bc    33d8            bhi         LAB_0001ca26                            
ram:0001c9be    fe29            cmp         param_2,#0xfe                           
ram:0001c9c0    31d8            bhi         LAB_0001ca26                            
ram:0001c9c2    0332            adds        param_3,#0x3                            
ram:0001c9c4    3254            strb        param_3,[r6,param_1]                    
ram:0001c9c6    ff22            movs        param_3,#0xff                           
ram:0001c9c8    2388            ldrh        r3,[r4,#0x0]                            
ram:0001c9ca    0133            adds        r3,#0x1                                 
ram:0001c9cc    9bb2            uxth        r3,r3                                   
ram:0001c9ce    2380            strh        r3,[r4,#0x0]                            
ram:0001c9d0    f254            strb        param_3,[r6,r3]                         
ram:0001c9d2    4246            mov         param_3,r8                              
ram:0001c9d4    2388            ldrh        r3,[r4,#0x0]                            
ram:0001c9d6    0133            adds        r3,#0x1                                 
ram:0001c9d8    9bb2            uxth        r3,r3                                   
ram:0001c9da    2380            strh        r3,[r4,#0x0]                            
ram:0001c9dc    1288            ldrh        param_3,[param_3,#0x0]                  
ram:0001c9de    f318            adds        r3,r6,r3                                
ram:0001c9e0    1a70            strb        param_3,[r3,#0x0]                       
ram:0001c9e2    120a            lsrs        param_3,param_3,#0x8                    
ram:0001c9e4    5a70            strb        param_3,[r3,#0x1]                       
ram:0001c9e6    4346            mov         r3,r8                                   
ram:0001c9e8    2088            ldrh        param_1,[r4,#0x0]                       
ram:0001c9ea    0230            adds        param_1,#0x2                            
ram:0001c9ec    80b2            uxth        param_1,param_1                         
ram:0001c9ee    2080            strh        param_1,[r4,#0x0]                       
ram:0001c9f0    9a88            ldrh        param_3,[r3,#0x4]                       
ram:0001c9f2    002a            cmp         param_3,#0x0                            
ram:0001c9f4    0bd0            beq         LAB_0001ca0e                            
ram:0001c9f6    9968            ldr         param_2,[r3,#0x8]                       
ram:0001c9f8    0029            cmp         param_2,#0x0                            
ram:0001c9fa    00d1            bne         LAB_0001c9fe                            
ram:0001c9fc    67e0            b           LAB_0001cace                            
                            LAB_0001c9fe:                 ;XREF[1,0]:   0001c9fa
ram:0001c9fe    3018            adds        param_1,r6,param_1                      
ram:0001ca00    02f034fd        bl          FUN_0001f46c                            ;undefined FUN_0001f46c(int param_1, ...
ram:0001ca04    4246            mov         param_3,r8                              
ram:0001ca06    2388            ldrh        r3,[r4,#0x0]                            
ram:0001ca08    9288            ldrh        param_3,[param_3,#0x4]                  
ram:0001ca0a    9b18            adds        r3,r3,param_3                           
ram:0001ca0c    2380            strh        r3,[r4,#0x0]                            
                            LAB_0001ca0e:                 ;XREF[2,0]:   0001c9ae,0001c9f4
ram:0001ca0e    2c23            movs        r3,#0x2c                                
ram:0001ca10    eb5c            ldrb        r3,[r5,r3]                              
ram:0001ca12    002b            cmp         r3,#0x0                                 
ram:0001ca14    00d0            beq         LAB_0001ca18                            
ram:0001ca16    a9e0            b           LAB_0001cb6c                            
                            LAB_0001ca18:                 ;XREF[2,0]:   0001ca14,0001cbea
ram:0001ca18    2b78            ldrb        r3,[r5,#0x0]                            
ram:0001ca1a    002b            cmp         r3,#0x0                                 
ram:0001ca1c    53d1            bne         LAB_0001cac6                            
ram:0001ca1e    0020            movs        param_1,#0x0                            
ram:0001ca20    02e0            b           LAB_0001ca28                            
                            LAB_0001ca22:                 ;XREF[1,0]:   0001c898
ram:0001ca22    082f            cmp         r7,#0x8                                 
ram:0001ca24    28d8            bhi         LAB_0001ca78                            
                            LAB_0001ca26:                 ;XREF[10,0]:  0001c8ae,0001c8de,0001c92a,0001c9bc
                                                          ;             0001c9c0,0001cb7c,0001cc04,0001cc1c
                                                          ;             0001cc2c,0001cc56
ram:0001ca26    0c20            movs        param_1,#0xc                            
                            LAB_0001ca28:                 ;XREF[13,0]:  0001ca20,0001ca3c,0001ca46,0001ca80
                                                          ;             0001cad0,0001caea,0001cb02,0001cb1e
                                                          ;             0001cb36,0001cb52,0001cb6a,0001cc44
                                                          ;             0001cc70
ram:0001ca28    05b0            add         sp,#0x14                                
ram:0001ca2a    3cbc            pop         {param_3,r3,r4,r5}                      
ram:0001ca2c    9046            mov         r8,param_3                              
ram:0001ca2e    9946            mov         r9,r3                                   
ram:0001ca30    a246            mov         r10,r4                                  
ram:0001ca32    ab46            mov         r11,r5                                  
ram:0001ca34    f0bd            pop         {r4,r5,r6,r7,pc}                        
                            LAB_0001ca36:                 ;XREF[1,0]:   0001c8a0
ram:0001ca36    0433            adds        r3,#0x4                                 
ram:0001ca38    0c20            movs        param_1,#0xc                            
ram:0001ca3a    bb42            cmp         r3,r7                                   
ram:0001ca3c    f4d8            bhi         LAB_0001ca28                            
ram:0001ca3e    02a8            add         param_1,sp,#0x8                         
ram:0001ca40    fff790fe        bl          FUN_0001c764                            ;undefined FUN_0001c764(void)
ram:0001ca44    0028            cmp         param_1,#0x0                            
ram:0001ca46    efd1            bne         LAB_0001ca28                            
ram:0001ca48    0322            movs        param_3,#0x3                            
ram:0001ca4a    2388            ldrh        r3,[r4,#0x0]                            
ram:0001ca4c    f254            strb        param_3,[r6,r3]                         
ram:0001ca4e    2388            ldrh        r3,[r4,#0x0]                            
ram:0001ca50    1632            adds        param_3,#0x16                           
ram:0001ca52    0133            adds        r3,#0x1                                 
ram:0001ca54    9bb2            uxth        r3,r3                                   
ram:0001ca56    2380            strh        r3,[r4,#0x0]                            
ram:0001ca58    f254            strb        param_3,[r6,r3]                         
ram:0001ca5a    6a46            mov         param_3,sp                              
ram:0001ca5c    2388            ldrh        r3,[r4,#0x0]                            
ram:0001ca5e    1289            ldrh        param_3,[r2,#local_30+0x38]             
ram:0001ca60    0133            adds        r3,#0x1                                 
ram:0001ca62    9bb2            uxth        r3,r3                                   
ram:0001ca64    2380            strh        r3,[r4,#0x0]                            
ram:0001ca66    f318            adds        r3,r6,r3                                
ram:0001ca68    1a70            strb        param_3,[r3,#0x0]                       
ram:0001ca6a    120a            lsrs        param_3,param_3,#0x8                    
ram:0001ca6c    5a70            strb        param_3,[r3,#0x1]                       
ram:0001ca6e    2388            ldrh        r3,[r4,#0x0]                            
ram:0001ca70    0233            adds        r3,#0x2                                 
ram:0001ca72    9bb2            uxth        r3,r3                                   
ram:0001ca74    2380            strh        r3,[r4,#0x0]                            
ram:0001ca76    14e7            b           LAB_0001c8a2                            
                            LAB_0001ca78:                 ;XREF[1,0]:   0001ca24
ram:0001ca78    02a8            add         param_1,sp,#0x8                         
ram:0001ca7a    fff76ffe        bl          FUN_0001c75c                            ;undefined FUN_0001c75c(void)
ram:0001ca7e    0028            cmp         param_1,#0x0                            
ram:0001ca80    d2d1            bne         LAB_0001ca28                            
ram:0001ca82    0822            movs        param_3,#0x8                            
ram:0001ca84    0921            movs        param_2,#0x9                            
ram:0001ca86    2388            ldrh        r3,[r4,#0x0]                            
ram:0001ca88    6944            add         param_2,sp                              
ram:0001ca8a    f254            strb        param_3,[r6,r3]                         
ram:0001ca8c    2388            ldrh        r3,[r4,#0x0]                            
ram:0001ca8e    1332            adds        param_3,#0x13                           
ram:0001ca90    0133            adds        r3,#0x1                                 
ram:0001ca92    9bb2            uxth        r3,r3                                   
ram:0001ca94    2380            strh        r3,[r4,#0x0]                            
ram:0001ca96    f254            strb        param_3,[r6,r3]                         
ram:0001ca98    2088            ldrh        param_1,[r4,#0x0]                       
ram:0001ca9a    153a            subs        param_3,#0x15                           
ram:0001ca9c    0130            adds        param_1,#0x1                            
ram:0001ca9e    80b2            uxth        param_1,param_1                         
ram:0001caa0    2080            strh        param_1,[r4,#0x0]                       
ram:0001caa2    3018            adds        param_1,r6,param_1                      
ram:0001caa4    02f0e2fc        bl          FUN_0001f46c                            ;undefined FUN_0001f46c(int param_1, ...
ram:0001caa8    6a46            mov         param_3,sp                              
ram:0001caaa    2388            ldrh        r3,[r4,#0x0]                            
ram:0001caac    127a            ldrb        param_3,[r2,#local_30+0x38]             
ram:0001caae    0633            adds        r3,#0x6                                 
ram:0001cab0    9bb2            uxth        r3,r3                                   
ram:0001cab2    2380            strh        r3,[r4,#0x0]                            
ram:0001cab4    002a            cmp         param_3,#0x0                            
ram:0001cab6    00d0            beq         LAB_0001caba                            
ram:0001cab8    dbe0            b           LAB_0001cc72                            
                            LAB_0001caba:                 ;XREF[2,0]:   0001cab6,0001cc74
ram:0001caba    f254            strb        param_3,[r6,r3]                         
ram:0001cabc    2388            ldrh        r3,[r4,#0x0]                            
ram:0001cabe    0133            adds        r3,#0x1                                 
ram:0001cac0    9bb2            uxth        r3,r3                                   
ram:0001cac2    2380            strh        r3,[r4,#0x0]                            
ram:0001cac4    e9e6            b           LAB_0001c89a                            
                            LAB_0001cac6:                 ;XREF[1,0]:   0001ca1c
ram:0001cac6    2a88            ldrh        param_3,[r5,#0x0]                       
ram:0001cac8    012a            cmp         param_3,#0x1                            
ram:0001caca    00d0            beq         LAB_0001cace                            
ram:0001cacc    a2e0            b           LAB_0001cc14                            
                            LAB_0001cace:                 ;XREF[9,0]:   0001c934,0001c944,0001c94c,0001c95c
                                                          ;             0001c96c,0001c9fc,0001caca,0001cb72
                                                          ;             0001cbc6
ram:0001cace    0720            movs        param_1,#0x7                            
ram:0001cad0    aae7            b           LAB_0001ca28                            
                            LAB_0001cad2:                 ;XREF[1,0]:   0001c90a
ram:0001cad2    0823            movs        r3,#0x8                                 
ram:0001cad4    9846            mov         r8,r3                                   
ram:0001cad6    a844            add         r8,r5                                   
ram:0001cad8    0197            str         r7,[sp,#local_34+0x38]                  
ram:0001cada    0094            str         r4,[sp,#0x0]=>local_38                  
ram:0001cadc    3300            movs        r3,r6                                   
ram:0001cade    0222            movs        param_3,#0x2                            
ram:0001cae0    0221            movs        param_2,#0x2                            
ram:0001cae2    4046            mov         param_1,r8                              
ram:0001cae4    fff744fe        bl          FUN_0001c770                            ;int FUN_0001c770(ushort * param_1, u...
ram:0001cae8    0028            cmp         param_1,#0x0                            
ram:0001caea    9dd1            bne         LAB_0001ca28                            
ram:0001caec    0197            str         r7,[sp,#local_34+0x38]                  
ram:0001caee    0094            str         r4,[sp,#0x0]=>local_38                  
ram:0001caf0    3300            movs        r3,r6                                   
ram:0001caf2    1022            movs        param_3,#0x10                           
ram:0001caf4    0621            movs        param_2,#0x6                            
ram:0001caf6    4046            mov         param_1,r8                              
ram:0001caf8    fff73afe        bl          FUN_0001c770                            ;int FUN_0001c770(ushort * param_1, u...
ram:0001cafc    0028            cmp         param_1,#0x0                            
ram:0001cafe    00d1            bne         LAB_0001cb02                            
ram:0001cb00    04e7            b           LAB_0001c90c                            
                            LAB_0001cb02:                 ;XREF[1,0]:   0001cafe
ram:0001cb02    91e7            b           LAB_0001ca28                            
                            LAB_0001cb04:                 ;XREF[1,0]:   0001c912
ram:0001cb04    1023            movs        r3,#0x10                                
ram:0001cb06    9846            mov         r8,r3                                   
ram:0001cb08    a844            add         r8,r5                                   
ram:0001cb0a    0197            str         r7,[sp,#local_34+0x38]                  
ram:0001cb0c    0094            str         r4,[sp,#0x0]=>local_38                  
ram:0001cb0e    3300            movs        r3,r6                                   
ram:0001cb10    0222            movs        param_3,#0x2                            
ram:0001cb12    0321            movs        param_2,#0x3                            
ram:0001cb14    4046            mov         param_1,r8                              
ram:0001cb16    fff72bfe        bl          FUN_0001c770                            ;int FUN_0001c770(ushort * param_1, u...
ram:0001cb1a    0028            cmp         param_1,#0x0                            
ram:0001cb1c    00d0            beq         LAB_0001cb20                            
ram:0001cb1e    83e7            b           LAB_0001ca28                            
                            LAB_0001cb20:                 ;XREF[1,0]:   0001cb1c
ram:0001cb20    0197            str         r7,[sp,#local_34+0x38]                  
ram:0001cb22    0094            str         r4,[sp,#0x0]=>local_38                  
ram:0001cb24    3300            movs        r3,r6                                   
ram:0001cb26    1022            movs        param_3,#0x10                           
ram:0001cb28    0721            movs        param_2,#0x7                            
ram:0001cb2a    4046            mov         param_1,r8                              
ram:0001cb2c    fff720fe        bl          FUN_0001c770                            ;int FUN_0001c770(ushort * param_1, u...
ram:0001cb30    0028            cmp         param_1,#0x0                            
ram:0001cb32    00d1            bne         LAB_0001cb36                            
ram:0001cb34    eee6            b           LAB_0001c914                            
                            LAB_0001cb36:                 ;XREF[1,0]:   0001cb32
ram:0001cb36    77e7            b           LAB_0001ca28                            
                            LAB_0001cb38:                 ;XREF[1,0]:   0001c91a
ram:0001cb38    1823            movs        r3,#0x18                                
ram:0001cb3a    9846            mov         r8,r3                                   
ram:0001cb3c    a844            add         r8,r5                                   
ram:0001cb3e    0197            str         r7,[sp,#local_34+0x38]                  
ram:0001cb40    0094            str         r4,[sp,#0x0]=>local_38                  
ram:0001cb42    3300            movs        r3,r6                                   
ram:0001cb44    0222            movs        param_3,#0x2                            
ram:0001cb46    1421            movs        param_2,#0x14                           
ram:0001cb48    4046            mov         param_1,r8                              
ram:0001cb4a    fff711fe        bl          FUN_0001c770                            ;int FUN_0001c770(ushort * param_1, u...
ram:0001cb4e    0028            cmp         param_1,#0x0                            
ram:0001cb50    00d0            beq         LAB_0001cb54                            
ram:0001cb52    69e7            b           LAB_0001ca28                            
                            LAB_0001cb54:                 ;XREF[1,0]:   0001cb50
ram:0001cb54    0197            str         r7,[sp,#local_34+0x38]                  
ram:0001cb56    0094            str         r4,[sp,#0x0]=>local_38                  
ram:0001cb58    3300            movs        r3,r6                                   
ram:0001cb5a    1022            movs        param_3,#0x10                           
ram:0001cb5c    1521            movs        param_2,#0x15                           
ram:0001cb5e    4046            mov         param_1,r8                              
ram:0001cb60    fff706fe        bl          FUN_0001c770                            ;int FUN_0001c770(ushort * param_1, u...
ram:0001cb64    0028            cmp         param_1,#0x0                            
ram:0001cb66    00d1            bne         LAB_0001cb6a                            
ram:0001cb68    d8e6            b           LAB_0001c91c                            
                            LAB_0001cb6a:                 ;XREF[1,0]:   0001cb66
ram:0001cb6a    5de7            b           LAB_0001ca28                            
                            LAB_0001cb6c:                 ;XREF[1,0]:   0001ca16
ram:0001cb6c    ab6a            ldr         r3,[r5,#0x28]                           
ram:0001cb6e    9846            mov         r8,r3                                   
ram:0001cb70    002b            cmp         r3,#0x0                                 
ram:0001cb72    acd0            beq         LAB_0001cace                            
ram:0001cb74    9b88            ldrh        r3,[r3,#0x4]                            
ram:0001cb76    0233            adds        r3,#0x2                                 
ram:0001cb78    fe2b            cmp         r3,#0xfe                                
ram:0001cb7a    00d9            bls         LAB_0001cb7e                            
ram:0001cb7c    53e7            b           LAB_0001ca26                            
                            LAB_0001cb7e:                 ;XREF[1,0]:   0001cb7a
ram:0001cb7e    0022            movs        param_3,#0x0                            
ram:0001cb80    9146            mov         r9,param_3                              
ram:0001cb82    1632            adds        param_3,#0x16                           
ram:0001cb84    9246            mov         r10,param_3                             
ram:0001cb86    1632            adds        param_3,#0x16                           
ram:0001cb88    9346            mov         r11,param_3                             
ram:0001cb8a    2088            ldrh        param_1,[r4,#0x0]                       
                            LAB_0001cb8c:                 ;XREF[1,0]:   0001cc02
ram:0001cb8c    5246            mov         param_3,r10                             
ram:0001cb8e    0133            adds        r3,#0x1                                 
ram:0001cb90    3354            strb        r3,[r6,param_1]                         
ram:0001cb92    2388            ldrh        r3,[r4,#0x0]                            
ram:0001cb94    0133            adds        r3,#0x1                                 
ram:0001cb96    9bb2            uxth        r3,r3                                   
ram:0001cb98    2380            strh        r3,[r4,#0x0]                            
ram:0001cb9a    f254            strb        param_3,[r6,r3]                         
ram:0001cb9c    4246            mov         param_3,r8                              
ram:0001cb9e    2388            ldrh        r3,[r4,#0x0]                            
ram:0001cba0    0133            adds        r3,#0x1                                 
ram:0001cba2    9bb2            uxth        r3,r3                                   
ram:0001cba4    2380            strh        r3,[r4,#0x0]                            
ram:0001cba6    1288            ldrh        param_3,[param_3,#0x0]                  
ram:0001cba8    f318            adds        r3,r6,r3                                
ram:0001cbaa    1a70            strb        param_3,[r3,#0x0]                       
ram:0001cbac    120a            lsrs        param_3,param_3,#0x8                    
ram:0001cbae    5a70            strb        param_3,[r3,#0x1]                       
ram:0001cbb0    4346            mov         r3,r8                                   
ram:0001cbb2    2088            ldrh        param_1,[r4,#0x0]                       
ram:0001cbb4    0230            adds        param_1,#0x2                            
ram:0001cbb6    80b2            uxth        param_1,param_1                         
ram:0001cbb8    2080            strh        param_1,[r4,#0x0]                       
ram:0001cbba    9a88            ldrh        param_3,[r3,#0x4]                       
ram:0001cbbc    002a            cmp         param_3,#0x0                            
ram:0001cbbe    0cd0            beq         LAB_0001cbda                            
ram:0001cbc0    9968            ldr         param_2,[r3,#0x8]                       
ram:0001cbc2    0029            cmp         param_2,#0x0                            
ram:0001cbc4    00d1            bne         LAB_0001cbc8                            
ram:0001cbc6    82e7            b           LAB_0001cace                            
                            LAB_0001cbc8:                 ;XREF[1,0]:   0001cbc4
ram:0001cbc8    3018            adds        param_1,r6,param_1                      
ram:0001cbca    02f04ffc        bl          FUN_0001f46c                            ;undefined FUN_0001f46c(int param_1, ...
ram:0001cbce    4346            mov         r3,r8                                   
ram:0001cbd0    2088            ldrh        param_1,[r4,#0x0]                       
ram:0001cbd2    9b88            ldrh        r3,[r3,#0x4]                            
ram:0001cbd4    c018            adds        param_1,param_1,r3                      
ram:0001cbd6    80b2            uxth        param_1,param_1                         
ram:0001cbd8    2080            strh        param_1,[r4,#0x0]                       
                            LAB_0001cbda:                 ;XREF[1,0]:   0001cbbe
ram:0001cbda    4b46            mov         r3,r9                                   
ram:0001cbdc    0133            adds        r3,#0x1                                 
ram:0001cbde    dbb2            uxtb        r3,r3                                   
ram:0001cbe0    9946            mov         r9,r3                                   
ram:0001cbe2    5b46            mov         r3,r11                                  
ram:0001cbe4    eb5c            ldrb        r3,[r5,r3]                              
ram:0001cbe6    4b45            cmp         r3,r9                                   
ram:0001cbe8    00d8            bhi         LAB_0001cbec                            
ram:0001cbea    15e7            b           LAB_0001ca18                            
                            LAB_0001cbec:                 ;XREF[1,0]:   0001cbe8
ram:0001cbec    4b46            mov         r3,r9                                   
ram:0001cbee    aa6a            ldr         param_3,[r5,#0x28]                      
ram:0001cbf0    5b00            lsls        r3,r3,#0x1                              
ram:0001cbf2    9046            mov         r8,param_3                              
ram:0001cbf4    4b44            add         r3,r9                                   
ram:0001cbf6    9b00            lsls        r3,r3,#0x2                              
ram:0001cbf8    9844            add         r8,r3                                   
ram:0001cbfa    4346            mov         r3,r8                                   
ram:0001cbfc    9b88            ldrh        r3,[r3,#0x4]                            
ram:0001cbfe    0233            adds        r3,#0x2                                 
ram:0001cc00    fe2b            cmp         r3,#0xfe                                
ram:0001cc02    c3d9            bls         LAB_0001cb8c                            
ram:0001cc04    0fe7            b           LAB_0001ca26                            
ram:0001cc06    c046            mov         r8,r8                                   
                            DAT_0001cc08:                 ;XREF[2,0]:   0001c936,0001c94e
ram:0001cc08    7ff3ffff        undefined4  FFFFF37Fh                               
                            DAT_0001cc0c:                 ;XREF[1,0]:   0001c938
ram:0001cc0c    7df30000        undefined4  0000F37Dh                               
                            DAT_0001cc10:                 ;XREF[1,0]:   0001c95e
ram:0001cc10    ffff0000        undefined4  0000FFFFh                               
                            LAB_0001cc14:                 ;XREF[1,0]:   0001cacc
ram:0001cc14    2288            ldrh        param_3,[r4,#0x0]                       
ram:0001cc16    901c            adds        param_1,param_3,#0x2                    
ram:0001cc18    b842            cmp         param_1,r7                              
ram:0001cc1a    00d9            bls         LAB_0001cc1e                            
ram:0001cc1c    03e7            b           LAB_0001ca26                            
                            LAB_0001cc1e:                 ;XREF[1,0]:   0001cc1a
ram:0001cc1e    012b            cmp         r3,#0x1                                 
ram:0001cc20    05d1            bne         LAB_0001cc2e                            
ram:0001cc22    6b78            ldrb        r3,[r5,#0x1]                            
ram:0001cc24    0233            adds        r3,#0x2                                 
ram:0001cc26    9b18            adds        r3,r3,param_3                           
ram:0001cc28    9f42            cmp         r7,r3                                   
ram:0001cc2a    00d2            bcs         LAB_0001cc2e                            
ram:0001cc2c    fbe6            b           LAB_0001ca26                            
                            LAB_0001cc2e:                 ;XREF[2,0]:   0001cc20,0001cc2a
ram:0001cc2e    6b46            mov         r3,sp                                   
ram:0001cc30    023f            subs        r7,#0x2                                 
ram:0001cc32    bf1a            subs        r7,r7,param_3                           
ram:0001cc34    bfb2            uxth        r7,r7                                   
ram:0001cc36    3018            adds        param_1,r6,param_1                      
ram:0001cc38    02a9            add         param_2,sp,#0x8                         
ram:0001cc3a    1f81            strh        r7,[r3,#local_30+0x38]                  
ram:0001cc3c    fff794fd        bl          FUN_0001c768                            ;undefined FUN_0001c768(void)
ram:0001cc40    0028            cmp         param_1,#0x0                            
ram:0001cc42    00d0            beq         LAB_0001cc46                            
ram:0001cc44    f0e6            b           LAB_0001ca28                            
                            LAB_0001cc46:                 ;XREF[1,0]:   0001cc42
ram:0001cc46    2b78            ldrb        r3,[r5,#0x0]                            
ram:0001cc48    022b            cmp         r3,#0x2                                 
ram:0001cc4a    1ad0            beq         LAB_0001cc82                            
ram:0001cc4c    012b            cmp         r3,#0x1                                 
ram:0001cc4e    12d0            beq         LAB_0001cc76                            
                            LAB_0001cc50:                 ;XREF[2,0]:   0001cc7a,0001cc88
ram:0001cc50    0822            movs        param_3,#0x8                            
                            LAB_0001cc52:                 ;XREF[2,0]:   0001cc80,0001cc8e
ram:0001cc52    fe2f            cmp         r7,#0xfe                                
ram:0001cc54    00d9            bls         LAB_0001cc58                            
ram:0001cc56    e6e6            b           LAB_0001ca26                            
                            LAB_0001cc58:                 ;XREF[1,0]:   0001cc54
ram:0001cc58    2388            ldrh        r3,[r4,#0x0]                            
ram:0001cc5a    791c            adds        param_2,r7,#0x1                         
ram:0001cc5c    f154            strb        param_2,[r6,r3]                         
ram:0001cc5e    2388            ldrh        r3,[r4,#0x0]                            
ram:0001cc60    0133            adds        r3,#0x1                                 
ram:0001cc62    9bb2            uxth        r3,r3                                   
ram:0001cc64    2380            strh        r3,[r4,#0x0]                            
ram:0001cc66    f254            strb        param_3,[r6,r3]                         
ram:0001cc68    2388            ldrh        r3,[r4,#0x0]                            
ram:0001cc6a    0133            adds        r3,#0x1                                 
ram:0001cc6c    ff18            adds        r7,r7,r3                                
ram:0001cc6e    2780            strh        r7,[r4,#0x0]                            
ram:0001cc70    dae6            b           LAB_0001ca28                            
                            LAB_0001cc72:                 ;XREF[1,0]:   0001cab8
ram:0001cc72    0122            movs        param_3,#0x1                            
ram:0001cc74    21e7            b           LAB_0001caba                            
                            LAB_0001cc76:                 ;XREF[1,0]:   0001cc4e
ram:0001cc76    6b78            ldrb        r3,[r5,#0x1]                            
ram:0001cc78    9f42            cmp         r7,r3                                   
ram:0001cc7a    e9d3            bcc         LAB_0001cc50                            
ram:0001cc7c    1f00            movs        r7,r3                                   
ram:0001cc7e    0822            movs        param_3,#0x8                            
ram:0001cc80    e7e7            b           LAB_0001cc52                            
                            LAB_0001cc82:                 ;XREF[1,0]:   0001cc4a
ram:0001cc82    6b46            mov         r3,sp                                   
ram:0001cc84    1b89            ldrh        r3,[r3,#local_30+0x38]                  
ram:0001cc86    9f42            cmp         r7,r3                                   
ram:0001cc88    e2d3            bcc         LAB_0001cc50                            
ram:0001cc8a    1f00            movs        r7,r3                                   
ram:0001cc8c    0922            movs        param_3,#0x9                            
ram:0001cc8e    e0e7            b           LAB_0001cc52                            
                            ;************************************************************************************************
                            ;*                                           FUNCTION                                           *
                            ;************************************************************************************************
                            ;int FUN_0001cc90(short * param_1, short * param_2)
          ;param_1       short *             r0                      
          ;param_2       short *             r1                      
          ;local_48      undefined2         -48                      ;XREF[6,0]:   0001cd5c,0001cee8,0001cf08,0001cf68,0001d0e4
                                                                     ;             0001d0fe
          ;local_68      undefined1         -68                      ;XREF[1,0]:   0001ccd4
          ;local_6a      undefined2         -6a                      ;XREF[3,0]:   0001cca8,0001cd2e,0001cf2c
          ;local_6c      undefined2         -6c                      ;XREF[28,0]:  0001ccb6,0001cce8,0001ccfc,0001cd32,0001cd4e
                                                                     ;             0001cd70,0001cd86,0001cdc2,0001ce20,0001ce3c
                                                                     ;             0001ce48,0001ce6e,0001ce84,0001ce9c,0001cea2
                                                                     ;             0001cebe,0001cf14,0001cf24,0001cf46,0001cf58
                                                                     ;             0001cf66,0001cf6e,0001cf80,0001cfec,0001d01e
                                                                     ;             0001d030,0001d048,0001d054
          ;local_74      undefined4         -74                      ;XREF[6,0]:   0001cf9e,0001cfb8,0001d06e,0001d088,0001d0a8
                                                                     ;             0001d0c2
          ;local_78      undefined4         -78                      ;XREF[6,0]:   0001cfa0,0001cfb6,0001d070,0001d086,0001d0aa
                                                                     ;             0001d0c0
                                                          ;XREF[3,0]:   0001c3e6,0001c436,0001c610
ram:0001cc90    f0b5            push        {r4,r5,r6,r7,lr}                        
ram:0001cc92    5746            mov         r7,r10                                  
ram:0001cc94    4546            mov         r5,r8                                   
ram:0001cc96    de46            mov         lr,r11                                  
ram:0001cc98    4e46            mov         r6,r9                                   
ram:0001cc9a    e0b5            push        {r5,r6,r7,lr}                           
ram:0001cc9c    95b0            sub         sp,#0x54                                
ram:0001cc9e    1f23            movs        r3,#0x1f                                
ram:0001cca0    6a46            mov         r2,sp                                   
ram:0001cca2    0400            movs        r4,param_1                              
ram:0001cca4    0f00            movs        r7,param_2                              
ram:0001cca6    03ad            add         r5,sp,#0xc                              
ram:0001cca8    d381            strh        r3,[r2,#local_6a+0x78]                  
ram:0001ccaa    0028            cmp         param_1,#0x0                            
ram:0001ccac    25d0            beq         LAB_0001ccfa                            
ram:0001ccae    c178            ldrb        param_2,[param_1,#0x3]                  
ram:0001ccb0    4b07            lsls        r3,param_2,#0x1d                        
ram:0001ccb2    2ad5            bpl         LAB_0001cd0a                            
ram:0001ccb4    0023            movs        r3,#0x0                                 
ram:0001ccb6    2b80            strh        r3,[r5,#0x0]=>local_6c                  
ram:0001ccb8    2d33            adds        r3,#0x2d                                
ram:0001ccba    c35c            ldrb        r3,[param_1,r3]                         
ram:0001ccbc    002b            cmp         r3,#0x0                                 
ram:0001ccbe    00d0            beq         LAB_0001ccc2                            
ram:0001ccc0    37e1            b           LAB_0001cf32                            
                            LAB_0001ccc2:                 ;XREF[1,0]:   0001ccbe
ram:0001ccc2    8378            ldrb        r3,[param_1,#0x2]                       
ram:0001ccc4    002b            cmp         r3,#0x0                                 
ram:0001ccc6    39d1            bne         LAB_0001cd3c                            
ram:0001ccc8    0322            movs        r2,#0x3                                 
ram:0001ccca    0023            movs        r3,#0x0                                 
ram:0001cccc    0020            movs        param_1,#0x0                            
ram:0001ccce    9046            mov         r8,r2                                   
ram:0001ccd0    04ae            add         r6,sp,#0x10                             
                            LAB_0001ccd2:                 ;XREF[1,0]:   0001cd7e
ram:0001ccd2    0222            movs        r2,#0x2                                 
ram:0001ccd4    3254            strb        r2,[r6,param_1]=>local_68               
ram:0001ccd6    0122            movs        r2,#0x1                                 
ram:0001ccd8    581c            adds        param_1,r3,#0x1                         
ram:0001ccda    0233            adds        r3,#0x2                                 
ram:0001ccdc    9bb2            uxth        r3,r3                                   
ram:0001ccde    80b2            uxth        param_1,param_1                         
ram:0001cce0    3254            strb        r2,[r6,param_1]                         
ram:0001cce2    f154            strb        param_2,[r6,r3]                         
ram:0001cce4    4346            mov         r3,r8                                   
ram:0001cce6    9bb2            uxth        r3,r3                                   
ram:0001cce8    2b80            strh        r3,[r5,#0x0]=>local_6c                  
                            LAB_0001ccea:                 ;XREF[1,0]:   0001cd74
ram:0001ccea    6268            ldr         r2,[r4,#0x4]                            
ram:0001ccec    002a            cmp         r2,#0x0                                 
ram:0001ccee    59d0            beq         LAB_0001cda4                            
ram:0001ccf0    d91c            adds        param_2,r3,#0x3                         
ram:0001ccf2    1f29            cmp         param_2,#0x1f                           
ram:0001ccf4    46d9            bls         LAB_0001cd84                            
                            LAB_0001ccf6:                 ;XREF[8,0]:   0001cdcc,0001ce56,0001ce5c,0001cec6
                                                          ;             0001ced4,0001cf10,0001cfe0,0001d00a
ram:0001ccf6    0c20            movs        param_1,#0xc                            
ram:0001ccf8    08e0            b           LAB_0001cd0c                            
                            LAB_0001ccfa:                 ;XREF[1,0]:   0001ccac
ram:0001ccfa    0026            movs        r6,#0x0                                 
ram:0001ccfc    2880            strh        param_1,[r5,#0x0]=>local_6c             
                            LAB_0001ccfe:                 ;XREF[2,0]:   0001ceb4,0001cf26
ram:0001ccfe    002f            cmp         r7,#0x0                                 
ram:0001cd00    00d1            bne         LAB_0001cd04                            
ram:0001cd02    11e1            b           LAB_0001cf28                            
                            LAB_0001cd04:                 ;XREF[1,0]:   0001cd00
ram:0001cd04    fb78            ldrb        r3,[r7,#0x3]                            
ram:0001cd06    002b            cmp         r3,#0x0                                 
ram:0001cd08    07d0            beq         LAB_0001cd1a                            
                            LAB_0001cd0a:                 ;XREF[10,0]:  0001ccb2,0001cdd2,0001cde8,0001cdf2
                                                          ;             0001cdfe,0001ce0e,0001ce92,0001cebc
                                                          ;             0001cfd6,0001d03e
ram:0001cd0a    0720            movs        param_1,#0x7                            
                            LAB_0001cd0c:                 ;XREF[14,0]:  0001ccf8,0001cd2a,0001cd3a,0001cd48
                                                          ;             0001cd82,0001cef2,0001cf40,0001cf90
                                                          ;             0001cfb2,0001cfcc,0001d082,0001d09c
                                                          ;             0001d0bc,0001d0d6
ram:0001cd0c    15b0            add         sp,#0x54                                
ram:0001cd0e    3cbc            pop         {r2,r3,r4,r5}                           
ram:0001cd10    9046            mov         r8,r2                                   
ram:0001cd12    9946            mov         r9,r3                                   
ram:0001cd14    a246            mov         r10,r4                                  
ram:0001cd16    ab46            mov         r11,r5                                  
ram:0001cd18    f0bd            pop         {r4,r5,r6,r7,pc}                        
                            LAB_0001cd1a:                 ;XREF[1,0]:   0001cd08
ram:0001cd1a    0e33            adds        r3,#0xe                                 
ram:0001cd1c    6b44            add         r3,sp                                   
ram:0001cd1e    1a00            movs        r2,r3                                   
ram:0001cd20    0ca9            add         param_2,sp,#0x30                        
ram:0001cd22    3800            movs        param_1,r7                              
ram:0001cd24    fff7a6fd        bl          FUN_0001c874                            ;int FUN_0001c874(short * param_1, in...
ram:0001cd28    0028            cmp         param_1,#0x0                            
ram:0001cd2a    efd1            bne         LAB_0001cd0c                            
ram:0001cd2c    6b46            mov         r3,sp                                   
ram:0001cd2e    9b7b            ldrb        r3,[r3,#local_6a+0x78]                  
ram:0001cd30    0caa            add         r2,sp,#0x30                             
                            LAB_0001cd32:                 ;XREF[1,0]:   0001cf30
ram:0001cd32    2978            ldrb        param_2,[r5,#0x0]=>local_6c             
ram:0001cd34    3000            movs        param_1,r6                              
ram:0001cd36    fff713fd        bl          FUN_0001c760                            ;undefined FUN_0001c760(void)
ram:0001cd3a    e7e7            b           LAB_0001cd0c                            
                            LAB_0001cd3c:                 ;XREF[1,0]:   0001ccc6
ram:0001cd3c    0cab            add         r3,sp,#0x30                             
ram:0001cd3e    9846            mov         r8,r3                                   
                            LAB_0001cd40:                 ;XREF[1,0]:   0001cf92
ram:0001cd40    4046            mov         param_1,r8                              
ram:0001cd42    fff70ffd        bl          FUN_0001c764                            ;undefined FUN_0001c764(void)
ram:0001cd46    0028            cmp         param_1,#0x0                            
ram:0001cd48    e0d1            bne         LAB_0001cd0c                            
ram:0001cd4a    0322            movs        r2,#0x3                                 
ram:0001cd4c    1921            movs        param_2,#0x19                           
ram:0001cd4e    2b88            ldrh        r3,[r5,#0x0]=>local_6c                  
ram:0001cd50    04ae            add         r6,sp,#0x10                             
ram:0001cd52    f254            strb        r2,[r6,r3]                              
ram:0001cd54    5a1c            adds        r2,r3,#0x1                              
ram:0001cd56    92b2            uxth        r2,r2                                   
ram:0001cd58    b154            strb        param_2,[r6,r2]                         
ram:0001cd5a    4246            mov         r2,r8                                   
ram:0001cd5c    1188            ldrh        param_2,[r2,#0x0]=>local_48             
ram:0001cd5e    9a1c            adds        r2,r3,#0x2                              
ram:0001cd60    92b2            uxth        r2,r2                                   
ram:0001cd62    b218            adds        r2,r6,r2                                
ram:0001cd64    1170            strb        param_2,[r2,#0x0]                       
ram:0001cd66    090a            lsrs        param_2,param_2,#0x8                    
ram:0001cd68    5170            strb        param_2,[r2,#0x1]                       
ram:0001cd6a    0433            adds        r3,#0x4                                 
ram:0001cd6c    9bb2            uxth        r3,r3                                   
ram:0001cd6e    e178            ldrb        param_2,[r4,#0x3]                       
ram:0001cd70    2b80            strh        r3,[r5,#0x0]=>local_6c                  
                            LAB_0001cd72:                 ;XREF[1,0]:   0001d0da
ram:0001cd72    0029            cmp         param_2,#0x0                            
ram:0001cd74    b9d0            beq         LAB_0001ccea                            
ram:0001cd76    da1c            adds        r2,r3,#0x3                              
ram:0001cd78    1800            movs        param_1,r3                              
ram:0001cd7a    9046            mov         r8,r2                                   
ram:0001cd7c    1f2a            cmp         r2,#0x1f                                
ram:0001cd7e    a8d9            bls         LAB_0001ccd2                            
ram:0001cd80    0c20            movs        param_1,#0xc                            
ram:0001cd82    c3e7            b           LAB_0001cd0c                            
                            LAB_0001cd84:                 ;XREF[1,0]:   0001ccf4
ram:0001cd84    1278            ldrb        r2,[r2,#0x0]                            
ram:0001cd86    2980            strh        param_2,[r5,#0x0]=>local_6c             
ram:0001cd88    52b2            sxtb        r2,r2                                   
ram:0001cd8a    9146            mov         r9,r2                                   
ram:0001cd8c    0222            movs        r2,#0x2                                 
ram:0001cd8e    f254            strb        r2,[r6,r3]                              
ram:0001cd90    5a1c            adds        r2,r3,#0x1                              
ram:0001cd92    92b2            uxth        r2,r2                                   
ram:0001cd94    9046            mov         r8,r2                                   
ram:0001cd96    0a22            movs        r2,#0xa                                 
ram:0001cd98    4046            mov         param_1,r8                              
ram:0001cd9a    3254            strb        r2,[r6,param_1]                         
ram:0001cd9c    4a46            mov         r2,r9                                   
ram:0001cd9e    0233            adds        r3,#0x2                                 
ram:0001cda0    9bb2            uxth        r3,r3                                   
ram:0001cda2    f254            strb        r2,[r6,r3]                              
                            LAB_0001cda4:                 ;XREF[1,0]:   0001ccee
ram:0001cda4    2389            ldrh        r3,[r4,#0x8]                            
ram:0001cda6    002b            cmp         r3,#0x0                                 
ram:0001cda8    00d0            beq         LAB_0001cdac                            
ram:0001cdaa    f3e0            b           LAB_0001cf94                            
                            LAB_0001cdac:                 ;XREF[2,0]:   0001cda8,0001cfca
ram:0001cdac    238a            ldrh        r3,[r4,#0x10]                           
ram:0001cdae    002b            cmp         r3,#0x0                                 
ram:0001cdb0    00d0            beq         LAB_0001cdb4                            
ram:0001cdb2    57e1            b           LAB_0001d064                            
                            LAB_0001cdb4:                 ;XREF[2,0]:   0001cdb0,0001d09a
ram:0001cdb4    238b            ldrh        r3,[r4,#0x18]                           
ram:0001cdb6    002b            cmp         r3,#0x0                                 
ram:0001cdb8    00d0            beq         LAB_0001cdbc                            
ram:0001cdba    70e1            b           LAB_0001d09e                            
                            LAB_0001cdbc:                 ;XREF[2,0]:   0001cdb8,0001d0d4
ram:0001cdbc    236a            ldr         r3,[r4,#0x20]                           
ram:0001cdbe    002b            cmp         r3,#0x0                                 
ram:0001cdc0    3dd0            beq         LAB_0001ce3e                            
ram:0001cdc2    2a88            ldrh        r2,[r5,#0x0]=>local_6c                  
ram:0001cdc4    911d            adds        param_2,r2,#0x6                         
ram:0001cdc6    8a46            mov         r10,param_2                             
ram:0001cdc8    1f29            cmp         param_2,#0x1f                           
ram:0001cdca    00d9            bls         LAB_0001cdce                            
ram:0001cdcc    93e7            b           LAB_0001ccf6                            
                            LAB_0001cdce:                 ;XREF[1,0]:   0001cdca
ram:0001cdce    1888            ldrh        param_1,[r3,#0x0]                       
ram:0001cdd0    0528            cmp         param_1,#0x5                            
ram:0001cdd2    9ad9            bls         LAB_0001cd0a                            
ram:0001cdd4    cb49            ldr         param_2,[DAT_0001d104]                  ;= FFFFF37Fh
ram:0001cdd6    8c46            mov         r12,param_2                             
ram:0001cdd8    8444            add         r12,param_1                             
ram:0001cdda    6146            mov         param_2,r12                             
ram:0001cddc    89b2            uxth        param_2,param_2                         
ram:0001cdde    8c46            mov         r12,param_2                             
ram:0001cde0    c949            ldr         param_2,[DAT_0001d108]                  ;= 0000F37Dh
ram:0001cde2    8846            mov         r8,param_2                              
ram:0001cde4    8c45            cmp         r12,param_2                             
ram:0001cde6    00d8            bhi         LAB_0001cdea                            
ram:0001cde8    8fe7            b           LAB_0001cd0a                            
                            LAB_0001cdea:                 ;XREF[1,0]:   0001cde6
ram:0001cdea    5988            ldrh        param_2,[r3,#0x2]                       
ram:0001cdec    8c46            mov         r12,param_2                             
ram:0001cdee    0529            cmp         param_2,#0x5                            
ram:0001cdf0    00d8            bhi         LAB_0001cdf4                            
ram:0001cdf2    8ae7            b           LAB_0001cd0a                            
                            LAB_0001cdf4:                 ;XREF[1,0]:   0001cdf0
ram:0001cdf4    c349            ldr         param_2,[DAT_0001d104]                  ;= FFFFF37Fh
ram:0001cdf6    6144            add         param_2,r12                             
ram:0001cdf8    89b2            uxth        param_2,param_2                         
ram:0001cdfa    4145            cmp         param_2,r8                              
ram:0001cdfc    00d8            bhi         LAB_0001ce00                            
ram:0001cdfe    84e7            b           LAB_0001cd0a                            
                            LAB_0001ce00:                 ;XREF[1,0]:   0001cdfc
ram:0001ce00    c249            ldr         param_2,[DAT_0001d10c]                  ;= 0000FFFFh
ram:0001ce02    8842            cmp         param_1,param_2                         
ram:0001ce04    04d0            beq         LAB_0001ce10                            
ram:0001ce06    8c45            cmp         r12,param_2                             
ram:0001ce08    02d0            beq         LAB_0001ce10                            
ram:0001ce0a    6045            cmp         param_1,r12                             
ram:0001ce0c    00d9            bls         LAB_0001ce10                            
ram:0001ce0e    7ce7            b           LAB_0001cd0a                            
                            LAB_0001ce10:                 ;XREF[3,0]:   0001ce04,0001ce08,0001ce0c
ram:0001ce10    0520            movs        param_1,#0x5                            
ram:0001ce12    1221            movs        param_2,#0x12                           
ram:0001ce14    b054            strb        param_1,[r6,r2]                         
ram:0001ce16    501c            adds        param_1,r2,#0x1                         
ram:0001ce18    80b2            uxth        param_1,param_1                         
ram:0001ce1a    3154            strb        param_2,[r6,param_1]                    
ram:0001ce1c    901c            adds        param_1,r2,#0x2                         
ram:0001ce1e    80b2            uxth        param_1,param_1                         
ram:0001ce20    2880            strh        param_1,[r5,#0x0]=>local_6c             
ram:0001ce22    1988            ldrh        param_2,[r3,#0x0]                       
ram:0001ce24    3018            adds        param_1,r6,param_1                      
ram:0001ce26    0170            strb        param_2,[param_1,#0x0]                  
ram:0001ce28    090a            lsrs        param_2,param_2,#0x8                    
ram:0001ce2a    4170            strb        param_2,[param_1,#0x1]                  
ram:0001ce2c    0432            adds        r2,#0x4                                 
ram:0001ce2e    5b88            ldrh        r3,[r3,#0x2]                            
ram:0001ce30    92b2            uxth        r2,r2                                   
ram:0001ce32    b218            adds        r2,r6,r2                                
ram:0001ce34    1370            strb        r3,[r2,#0x0]                            
ram:0001ce36    1b0a            lsrs        r3,r3,#0x8                              
ram:0001ce38    5370            strb        r3,[r2,#0x1]                            
ram:0001ce3a    5346            mov         r3,r10                                  
ram:0001ce3c    2b80            strh        r3,[r5,#0x0]=>local_6c                  
                            LAB_0001ce3e:                 ;XREF[1,0]:   0001cdc0
ram:0001ce3e    636a            ldr         r3,[r4,#0x24]                           
ram:0001ce40    9846            mov         r8,r3                                   
ram:0001ce42    002b            cmp         r3,#0x0                                 
ram:0001ce44    2ed0            beq         LAB_0001cea4                            
ram:0001ce46    9b88            ldrh        r3,[r3,#0x4]                            
ram:0001ce48    2a88            ldrh        r2,[r5,#0x0]=>local_6c                  
ram:0001ce4a    981c            adds        param_1,r3,#0x2                         
ram:0001ce4c    9946            mov         r9,r3                                   
ram:0001ce4e    931c            adds        r3,r2,#0x2                              
ram:0001ce50    c118            adds        param_2,param_1,r3                      
ram:0001ce52    1f29            cmp         param_2,#0x1f                           
ram:0001ce54    00d9            bls         LAB_0001ce58                            
ram:0001ce56    4ee7            b           LAB_0001ccf6                            
                            LAB_0001ce58:                 ;XREF[1,0]:   0001ce54
ram:0001ce58    fe28            cmp         param_1,#0xfe                           
ram:0001ce5a    00d9            bls         LAB_0001ce5e                            
ram:0001ce5c    4be7            b           LAB_0001ccf6                            
                            LAB_0001ce5e:                 ;XREF[1,0]:   0001ce5a
ram:0001ce5e    4946            mov         param_2,r9                              
ram:0001ce60    ff20            movs        param_1,#0xff                           
ram:0001ce62    0331            adds        param_2,#0x3                            
ram:0001ce64    b154            strb        param_2,[r6,r2]                         
ram:0001ce66    511c            adds        param_2,r2,#0x1                         
ram:0001ce68    89b2            uxth        param_2,param_2                         
ram:0001ce6a    7054            strb        param_1,[r6,param_2]                    
ram:0001ce6c    4146            mov         param_2,r8                              
ram:0001ce6e    2b80            strh        r3,[r5,#0x0]=>local_6c                  
ram:0001ce70    1b04            lsls        r3,r3,#0x10                             
ram:0001ce72    0988            ldrh        param_2,[param_2,#0x0]                  
ram:0001ce74    1b0c            lsrs        r3,r3,#0x10                             
ram:0001ce76    f318            adds        r3,r6,r3                                
ram:0001ce78    1970            strb        param_2,[r3,#0x0]                       
ram:0001ce7a    090a            lsrs        param_2,param_2,#0x8                    
ram:0001ce7c    5970            strb        param_2,[r3,#0x1]                       
ram:0001ce7e    4346            mov         r3,r8                                   
ram:0001ce80    0432            adds        r2,#0x4                                 
ram:0001ce82    90b2            uxth        param_1,r2                              
ram:0001ce84    2880            strh        param_1,[r5,#0x0]=>local_6c             
ram:0001ce86    9a88            ldrh        r2,[r3,#0x4]                            
ram:0001ce88    002a            cmp         r2,#0x0                                 
ram:0001ce8a    0bd0            beq         LAB_0001cea4                            
ram:0001ce8c    9968            ldr         param_2,[r3,#0x8]                       
ram:0001ce8e    0029            cmp         param_2,#0x0                            
ram:0001ce90    00d1            bne         LAB_0001ce94                            
ram:0001ce92    3ae7            b           LAB_0001cd0a                            
                            LAB_0001ce94:                 ;XREF[1,0]:   0001ce90
ram:0001ce94    3018            adds        param_1,r6,param_1                      
ram:0001ce96    02f0e9fa        bl          FUN_0001f46c                            ;undefined FUN_0001f46c(int param_1, ...
ram:0001ce9a    4246            mov         r2,r8                                   
ram:0001ce9c    2b88            ldrh        r3,[r5,#0x0]=>local_6c                  
ram:0001ce9e    9288            ldrh        r2,[r2,#0x4]                            
ram:0001cea0    9b18            adds        r3,r3,r2                                
ram:0001cea2    2b80            strh        r3,[r5,#0x0]=>local_6c                  
                            LAB_0001cea4:                 ;XREF[2,0]:   0001ce44,0001ce8a
ram:0001cea4    2c23            movs        r3,#0x2c                                
ram:0001cea6    e15c            ldrb        param_2,[r4,r3]                         
ram:0001cea8    0029            cmp         param_2,#0x0                            
ram:0001ceaa    00d0            beq         LAB_0001ceae                            
ram:0001ceac    8fe0            b           LAB_0001cfce                            
                            LAB_0001ceae:                 ;XREF[2,0]:   0001ceaa,0001d062
ram:0001ceae    2378            ldrb        r3,[r4,#0x0]                            
ram:0001ceb0    002b            cmp         r3,#0x0                                 
ram:0001ceb2    00d1            bne         LAB_0001ceb6                            
ram:0001ceb4    23e7            b           LAB_0001ccfe                            
                            LAB_0001ceb6:                 ;XREF[1,0]:   0001ceb2
ram:0001ceb6    2288            ldrh        r2,[r4,#0x0]                            
ram:0001ceb8    012a            cmp         r2,#0x1                                 
ram:0001ceba    00d1            bne         LAB_0001cebe                            
ram:0001cebc    25e7            b           LAB_0001cd0a                            
                            LAB_0001cebe:                 ;XREF[1,0]:   0001ceba
ram:0001cebe    2a88            ldrh        r2,[r5,#0x0]=>local_6c                  
ram:0001cec0    901c            adds        param_1,r2,#0x2                         
ram:0001cec2    1f28            cmp         param_1,#0x1f                           
ram:0001cec4    00d9            bls         LAB_0001cec8                            
ram:0001cec6    16e7            b           LAB_0001ccf6                            
                            LAB_0001cec8:                 ;XREF[1,0]:   0001cec4
ram:0001cec8    012b            cmp         r3,#0x1                                 
ram:0001ceca    04d1            bne         LAB_0001ced6                            
ram:0001cecc    6378            ldrb        r3,[r4,#0x1]                            
ram:0001cece    1b18            adds        r3,r3,param_1                           
ram:0001ced0    1f2b            cmp         r3,#0x1f                                
ram:0001ced2    00d9            bls         LAB_0001ced6                            
ram:0001ced4    0fe7            b           LAB_0001ccf6                            
                            LAB_0001ced6:                 ;XREF[2,0]:   0001ceca,0001ced2
ram:0001ced6    1d23            movs        r3,#0x1d                                
ram:0001ced8    9a1a            subs        r2,r3,r2                                
ram:0001ceda    93b2            uxth        r3,r2                                   
ram:0001cedc    9946            mov         r9,r3                                   
ram:0001cede    4a46            mov         r2,r9                                   
ram:0001cee0    0cab            add         r3,sp,#0x30                             
ram:0001cee2    3018            adds        param_1,r6,param_1                      
ram:0001cee4    1900            movs        param_2,r3                              
ram:0001cee6    9846            mov         r8,r3                                   
ram:0001cee8    1a80            strh        r2,[r3,#0x0]=>local_48                  
ram:0001ceea    fff73dfc        bl          FUN_0001c768                            ;undefined FUN_0001c768(void)
ram:0001ceee    0028            cmp         param_1,#0x0                            
ram:0001cef0    00d0            beq         LAB_0001cef4                            
ram:0001cef2    0be7            b           LAB_0001cd0c                            
                            LAB_0001cef4:                 ;XREF[1,0]:   0001cef0
ram:0001cef4    2378            ldrb        r3,[r4,#0x0]                            
ram:0001cef6    022b            cmp         r3,#0x2                                 
ram:0001cef8    00d1            bne         LAB_0001cefc                            
ram:0001cefa    f2e0            b           LAB_0001d0e2                            
                            LAB_0001cefc:                 ;XREF[1,0]:   0001cef8
ram:0001cefc    012b            cmp         r3,#0x1                                 
ram:0001cefe    00d1            bne         LAB_0001cf02                            
ram:0001cf00    f7e0            b           LAB_0001d0f2                            
                            LAB_0001cf02:                 ;XREF[3,0]:   0001cefe,0001d0ea,0001d0f8
ram:0001cf02    4346            mov         r3,r8                                   
ram:0001cf04    4a46            mov         r2,r9                                   
ram:0001cf06    0821            movs        param_2,#0x8                            
ram:0001cf08    1a80            strh        r2,[r3,#0x0]=>local_48                  
                            LAB_0001cf0a:                 ;XREF[2,0]:   0001d0f0,0001d102
ram:0001cf0a    4b46            mov         r3,r9                                   
ram:0001cf0c    fe2b            cmp         r3,#0xfe                                
ram:0001cf0e    00d9            bls         LAB_0001cf12                            
ram:0001cf10    f1e6            b           LAB_0001ccf6                            
                            LAB_0001cf12:                 ;XREF[1,0]:   0001cf0e
ram:0001cf12    4a46            mov         r2,r9                                   
ram:0001cf14    2b88            ldrh        r3,[r5,#0x0]=>local_6c                  
ram:0001cf16    0132            adds        r2,#0x1                                 
ram:0001cf18    f254            strb        r2,[r6,r3]                              
ram:0001cf1a    5a1c            adds        r2,r3,#0x1                              
ram:0001cf1c    0233            adds        r3,#0x2                                 
ram:0001cf1e    92b2            uxth        r2,r2                                   
ram:0001cf20    4b44            add         r3,r9                                   
ram:0001cf22    b154            strb        param_2,[r6,r2]                         
ram:0001cf24    2b80            strh        r3,[r5,#0x0]=>local_6c                  
ram:0001cf26    eae6            b           LAB_0001ccfe                            
                            LAB_0001cf28:                 ;XREF[1,0]:   0001cd02
ram:0001cf28    6b46            mov         r3,sp                                   
ram:0001cf2a    0022            movs        r2,#0x0                                 
ram:0001cf2c    df81            strh        r7,[r3,#local_6a+0x78]                  
ram:0001cf2e    0023            movs        r3,#0x0                                 
ram:0001cf30    ffe6            b           LAB_0001cd32                            
                            LAB_0001cf32:                 ;XREF[1,0]:   0001ccc0
ram:0001cf32    0cab            add         r3,sp,#0x30                             
ram:0001cf34    1800            movs        param_1,r3                              
ram:0001cf36    9846            mov         r8,r3                                   
ram:0001cf38    fff710fc        bl          FUN_0001c75c                            ;undefined FUN_0001c75c(void)
ram:0001cf3c    0028            cmp         param_1,#0x0                            
ram:0001cf3e    00d0            beq         LAB_0001cf42                            
ram:0001cf40    e4e6            b           LAB_0001cd0c                            
                            LAB_0001cf42:                 ;XREF[1,0]:   0001cf3e
ram:0001cf42    0822            movs        r2,#0x8                                 
ram:0001cf44    1b21            movs        param_2,#0x1b                           
ram:0001cf46    2b88            ldrh        r3,[r5,#0x0]=>local_6c                  
ram:0001cf48    04ae            add         r6,sp,#0x10                             
ram:0001cf4a    f254            strb        r2,[r6,r3]                              
ram:0001cf4c    5a1c            adds        r2,r3,#0x1                              
ram:0001cf4e    92b2            uxth        r2,r2                                   
ram:0001cf50    0233            adds        r3,#0x2                                 
ram:0001cf52    98b2            uxth        param_1,r3                              
ram:0001cf54    b154            strb        param_2,[r6,r2]                         
ram:0001cf56    1631            adds        param_2,#0x16                           
ram:0001cf58    2880            strh        param_1,[r5,#0x0]=>local_6c             
ram:0001cf5a    0622            movs        r2,#0x6                                 
ram:0001cf5c    6944            add         param_2,sp                              
ram:0001cf5e    3018            adds        param_1,r6,param_1                      
ram:0001cf60    02f084fa        bl          FUN_0001f46c                            ;undefined FUN_0001f46c(int param_1, ...
ram:0001cf64    4146            mov         param_2,r8                              
ram:0001cf66    2b88            ldrh        r3,[r5,#0x0]=>local_6c                  
ram:0001cf68    0978            ldrb        param_2=>local_48,[param_2,#0x0]        
ram:0001cf6a    9a1d            adds        r2,r3,#0x6                              
ram:0001cf6c    92b2            uxth        r2,r2                                   
ram:0001cf6e    2a80            strh        r2,[r5,#0x0]=>local_6c                  
ram:0001cf70    0029            cmp         param_2,#0x0                            
ram:0001cf72    00d0            beq         LAB_0001cf76                            
ram:0001cf74    b2e0            b           LAB_0001d0dc                            
                            LAB_0001cf76:                 ;XREF[1,0]:   0001cf72
ram:0001cf76    b218            adds        r2,r6,r2                                
ram:0001cf78    1170            strb        param_2,[r2,#0x0]                       
                            LAB_0001cf7a:                 ;XREF[1,0]:   0001d0e0
ram:0001cf7a    0733            adds        r3,#0x7                                 
ram:0001cf7c    a278            ldrb        r2,[r4,#0x2]                            
ram:0001cf7e    9bb2            uxth        r3,r3                                   
ram:0001cf80    2b80            strh        r3,[r5,#0x0]=>local_6c                  
ram:0001cf82    002a            cmp         r2,#0x0                                 
ram:0001cf84    00d1            bne         LAB_0001cf88                            
ram:0001cf86    a7e0            b           LAB_0001d0d8                            
                            LAB_0001cf88:                 ;XREF[1,0]:   0001cf84
ram:0001cf88    0433            adds        r3,#0x4                                 
ram:0001cf8a    0c20            movs        param_1,#0xc                            
ram:0001cf8c    1f2b            cmp         r3,#0x1f                                
ram:0001cf8e    00d9            bls         LAB_0001cf92                            
ram:0001cf90    bce6            b           LAB_0001cd0c                            
                            LAB_0001cf92:                 ;XREF[1,0]:   0001cf8e
ram:0001cf92    d5e6            b           LAB_0001cd40                            
                            LAB_0001cf94:                 ;XREF[1,0]:   0001cdaa
ram:0001cf94    0823            movs        r3,#0x8                                 
ram:0001cf96    9846            mov         r8,r3                                   
ram:0001cf98    1733            adds        r3,#0x17                                
ram:0001cf9a    a044            add         r8,r4                                   
ram:0001cf9c    9946            mov         r9,r3                                   
ram:0001cf9e    0193            str         r3,[sp,#local_74+0x78]                  
ram:0001cfa0    0095            str         r5,[sp,#0x0]=>local_78                  
ram:0001cfa2    3300            movs        r3,r6                                   
ram:0001cfa4    0222            movs        r2,#0x2                                 
ram:0001cfa6    0221            movs        param_2,#0x2                            
ram:0001cfa8    4046            mov         param_1,r8                              
ram:0001cfaa    fff7e1fb        bl          FUN_0001c770                            ;int FUN_0001c770(ushort * param_1, u...
ram:0001cfae    0028            cmp         param_1,#0x0                            
ram:0001cfb0    00d0            beq         LAB_0001cfb4                            
ram:0001cfb2    abe6            b           LAB_0001cd0c                            
                            LAB_0001cfb4:                 ;XREF[1,0]:   0001cfb0
ram:0001cfb4    4b46            mov         r3,r9                                   
ram:0001cfb6    0095            str         r5,[sp,#0x0]=>local_78                  
ram:0001cfb8    0193            str         r3,[sp,#local_74+0x78]                  
ram:0001cfba    1022            movs        r2,#0x10                                
ram:0001cfbc    3300            movs        r3,r6                                   
ram:0001cfbe    0621            movs        param_2,#0x6                            
ram:0001cfc0    4046            mov         param_1,r8                              
ram:0001cfc2    fff7d5fb        bl          FUN_0001c770                            ;int FUN_0001c770(ushort * param_1, u...
ram:0001cfc6    0028            cmp         param_1,#0x0                            
ram:0001cfc8    00d1            bne         LAB_0001cfcc                            
ram:0001cfca    efe6            b           LAB_0001cdac                            
                            LAB_0001cfcc:                 ;XREF[1,0]:   0001cfc8
ram:0001cfcc    9ee6            b           LAB_0001cd0c                            
                            LAB_0001cfce:                 ;XREF[1,0]:   0001ceac
ram:0001cfce    a36a            ldr         r3,[r4,#0x28]                           
ram:0001cfd0    9846            mov         r8,r3                                   
ram:0001cfd2    002b            cmp         r3,#0x0                                 
ram:0001cfd4    00d1            bne         LAB_0001cfd8                            
ram:0001cfd6    98e6            b           LAB_0001cd0a                            
                            LAB_0001cfd8:                 ;XREF[1,0]:   0001cfd4
ram:0001cfd8    9b88            ldrh        r3,[r3,#0x4]                            
ram:0001cfda    0233            adds        r3,#0x2                                 
ram:0001cfdc    fe2b            cmp         r3,#0xfe                                
ram:0001cfde    00d9            bls         LAB_0001cfe2                            
ram:0001cfe0    89e6            b           LAB_0001ccf6                            
                            LAB_0001cfe2:                 ;XREF[1,0]:   0001cfde
ram:0001cfe2    0022            movs        r2,#0x0                                 
ram:0001cfe4    9146            mov         r9,r2                                   
ram:0001cfe6    1632            adds        r2,#0x16                                
ram:0001cfe8    9246            mov         r10,r2                                  
ram:0001cfea    1632            adds        r2,#0x16                                
ram:0001cfec    2888            ldrh        param_1,[r5,#0x0]=>local_6c             
ram:0001cfee    9346            mov         r11,r2                                  
ram:0001cff0    0ce0            b           LAB_0001d00c                            
                            LAB_0001cff2:                 ;XREF[1,0]:   0001d060
ram:0001cff2    4b46            mov         r3,r9                                   
ram:0001cff4    a26a            ldr         r2,[r4,#0x28]                           
ram:0001cff6    5b00            lsls        r3,r3,#0x1                              
ram:0001cff8    9046            mov         r8,r2                                   
ram:0001cffa    4b44            add         r3,r9                                   
ram:0001cffc    9b00            lsls        r3,r3,#0x2                              
ram:0001cffe    9844            add         r8,r3                                   
ram:0001d000    4346            mov         r3,r8                                   
ram:0001d002    9b88            ldrh        r3,[r3,#0x4]                            
ram:0001d004    0233            adds        r3,#0x2                                 
ram:0001d006    fe2b            cmp         r3,#0xfe                                
ram:0001d008    00d9            bls         LAB_0001d00c                            
ram:0001d00a    74e6            b           LAB_0001ccf6                            
                            LAB_0001d00c:                 ;XREF[2,0]:   0001cff0,0001d008
ram:0001d00c    5246            mov         r2,r10                                  
ram:0001d00e    0133            adds        r3,#0x1                                 
ram:0001d010    3354            strb        r3,[r6,param_1]                         
ram:0001d012    431c            adds        r3,param_1,#0x1                         
ram:0001d014    9bb2            uxth        r3,r3                                   
ram:0001d016    f254            strb        r2,[r6,r3]                              
ram:0001d018    4246            mov         r2,r8                                   
ram:0001d01a    831c            adds        r3,param_1,#0x2                         
ram:0001d01c    9bb2            uxth        r3,r3                                   
ram:0001d01e    2b80            strh        r3,[r5,#0x0]=>local_6c                  
ram:0001d020    1288            ldrh        r2,[r2,#0x0]                            
ram:0001d022    f318            adds        r3,r6,r3                                
ram:0001d024    1a70            strb        r2,[r3,#0x0]                            
ram:0001d026    120a            lsrs        r2,r2,#0x8                              
ram:0001d028    5a70            strb        r2,[r3,#0x1]                            
ram:0001d02a    4346            mov         r3,r8                                   
ram:0001d02c    0430            adds        param_1,#0x4                            
ram:0001d02e    80b2            uxth        param_1,param_1                         
ram:0001d030    2880            strh        param_1,[r5,#0x0]=>local_6c             
ram:0001d032    9a88            ldrh        r2,[r3,#0x4]                            
ram:0001d034    002a            cmp         r2,#0x0                                 
ram:0001d036    0ed0            beq         LAB_0001d056                            
ram:0001d038    9968            ldr         param_2,[r3,#0x8]                       
ram:0001d03a    0029            cmp         param_2,#0x0                            
ram:0001d03c    00d1            bne         LAB_0001d040                            
ram:0001d03e    64e6            b           LAB_0001cd0a                            
                            LAB_0001d040:                 ;XREF[1,0]:   0001d03c
ram:0001d040    3018            adds        param_1,r6,param_1                      
ram:0001d042    02f013fa        bl          FUN_0001f46c                            ;undefined FUN_0001f46c(int param_1, ...
ram:0001d046    4346            mov         r3,r8                                   
ram:0001d048    2888            ldrh        param_1,[r5,#0x0]=>local_6c             
ram:0001d04a    9b88            ldrh        r3,[r3,#0x4]                            
ram:0001d04c    c018            adds        param_1,param_1,r3                      
ram:0001d04e    5b46            mov         r3,r11                                  
ram:0001d050    80b2            uxth        param_1,param_1                         
ram:0001d052    e15c            ldrb        param_2,[r4,r3]                         
ram:0001d054    2880            strh        param_1,[r5,#0x0]=>local_6c             
                            LAB_0001d056:                 ;XREF[1,0]:   0001d036
ram:0001d056    4b46            mov         r3,r9                                   
ram:0001d058    0133            adds        r3,#0x1                                 
ram:0001d05a    dbb2            uxtb        r3,r3                                   
ram:0001d05c    9946            mov         r9,r3                                   
ram:0001d05e    8b42            cmp         r3,param_2                              
ram:0001d060    c7d3            bcc         LAB_0001cff2                            
ram:0001d062    24e7            b           LAB_0001ceae                            
                            LAB_0001d064:                 ;XREF[1,0]:   0001cdb2
ram:0001d064    1023            movs        r3,#0x10                                
ram:0001d066    9846            mov         r8,r3                                   
ram:0001d068    0f33            adds        r3,#0xf                                 
ram:0001d06a    a044            add         r8,r4                                   
ram:0001d06c    9946            mov         r9,r3                                   
ram:0001d06e    0193            str         r3,[sp,#local_74+0x78]                  
ram:0001d070    0095            str         r5,[sp,#0x0]=>local_78                  
ram:0001d072    3300            movs        r3,r6                                   
ram:0001d074    0222            movs        r2,#0x2                                 
ram:0001d076    0321            movs        param_2,#0x3                            
ram:0001d078    4046            mov         param_1,r8                              
ram:0001d07a    fff779fb        bl          FUN_0001c770                            ;int FUN_0001c770(ushort * param_1, u...
ram:0001d07e    0028            cmp         param_1,#0x0                            
ram:0001d080    00d0            beq         LAB_0001d084                            
ram:0001d082    43e6            b           LAB_0001cd0c                            
                            LAB_0001d084:                 ;XREF[1,0]:   0001d080
ram:0001d084    4b46            mov         r3,r9                                   
ram:0001d086    0095            str         r5,[sp,#0x0]=>local_78                  
ram:0001d088    0193            str         r3,[sp,#local_74+0x78]                  
ram:0001d08a    1022            movs        r2,#0x10                                
ram:0001d08c    3300            movs        r3,r6                                   
ram:0001d08e    0721            movs        param_2,#0x7                            
ram:0001d090    4046            mov         param_1,r8                              
ram:0001d092    fff76dfb        bl          FUN_0001c770                            ;int FUN_0001c770(ushort * param_1, u...
ram:0001d096    0028            cmp         param_1,#0x0                            
ram:0001d098    00d1            bne         LAB_0001d09c                            
ram:0001d09a    8be6            b           LAB_0001cdb4                            
                            LAB_0001d09c:                 ;XREF[1,0]:   0001d098
ram:0001d09c    36e6            b           LAB_0001cd0c                            
                            LAB_0001d09e:                 ;XREF[1,0]:   0001cdba
ram:0001d09e    1823            movs        r3,#0x18                                
ram:0001d0a0    9846            mov         r8,r3                                   
ram:0001d0a2    0733            adds        r3,#0x7                                 
ram:0001d0a4    a044            add         r8,r4                                   
ram:0001d0a6    9946            mov         r9,r3                                   
ram:0001d0a8    0193            str         r3,[sp,#local_74+0x78]                  
ram:0001d0aa    0095            str         r5,[sp,#0x0]=>local_78                  
ram:0001d0ac    3300            movs        r3,r6                                   
ram:0001d0ae    0222            movs        r2,#0x2                                 
ram:0001d0b0    1421            movs        param_2,#0x14                           
ram:0001d0b2    4046            mov         param_1,r8                              
ram:0001d0b4    fff75cfb        bl          FUN_0001c770                            ;int FUN_0001c770(ushort * param_1, u...
ram:0001d0b8    0028            cmp         param_1,#0x0                            
ram:0001d0ba    00d0            beq         LAB_0001d0be                            
ram:0001d0bc    26e6            b           LAB_0001cd0c                            
                            LAB_0001d0be:                 ;XREF[1,0]:   0001d0ba
ram:0001d0be    4b46            mov         r3,r9                                   
ram:0001d0c0    0095            str         r5,[sp,#0x0]=>local_78                  
ram:0001d0c2    0193            str         r3,[sp,#local_74+0x78]                  
ram:0001d0c4    1022            movs        r2,#0x10                                
ram:0001d0c6    3300            movs        r3,r6                                   
ram:0001d0c8    1521            movs        param_2,#0x15                           
ram:0001d0ca    4046            mov         param_1,r8                              
ram:0001d0cc    fff750fb        bl          FUN_0001c770                            ;int FUN_0001c770(ushort * param_1, u...
ram:0001d0d0    0028            cmp         param_1,#0x0                            
ram:0001d0d2    00d1            bne         LAB_0001d0d6                            
ram:0001d0d4    72e6            b           LAB_0001cdbc                            
                            LAB_0001d0d6:                 ;XREF[1,0]:   0001d0d2
ram:0001d0d6    19e6            b           LAB_0001cd0c                            
                            LAB_0001d0d8:                 ;XREF[1,0]:   0001cf86
ram:0001d0d8    e178            ldrb        param_2,[r4,#0x3]                       
ram:0001d0da    4ae6            b           LAB_0001cd72                            
                            LAB_0001d0dc:                 ;XREF[1,0]:   0001cf74
ram:0001d0dc    0121            movs        param_2,#0x1                            
ram:0001d0de    b154            strb        param_2,[r6,r2]                         
ram:0001d0e0    4be7            b           LAB_0001cf7a                            
                            LAB_0001d0e2:                 ;XREF[1,0]:   0001cefa
ram:0001d0e2    4346            mov         r3,r8                                   
ram:0001d0e4    1b88            ldrh        r3=>local_48,[r3,#0x0]                  
ram:0001d0e6    9945            cmp         r9,r3                                   
ram:0001d0e8    00d2            bcs         LAB_0001d0ec                            
ram:0001d0ea    0ae7            b           LAB_0001cf02                            
                            LAB_0001d0ec:                 ;XREF[1,0]:   0001d0e8
ram:0001d0ec    9946            mov         r9,r3                                   
ram:0001d0ee    0921            movs        param_2,#0x9                            
ram:0001d0f0    0be7            b           LAB_0001cf0a                            
                            LAB_0001d0f2:                 ;XREF[1,0]:   0001cf00
ram:0001d0f2    6378            ldrb        r3,[r4,#0x1]                            
ram:0001d0f4    9945            cmp         r9,r3                                   
ram:0001d0f6    00d2            bcs         LAB_0001d0fa                            
ram:0001d0f8    03e7            b           LAB_0001cf02                            
                            LAB_0001d0fa:                 ;XREF[1,0]:   0001d0f6
ram:0001d0fa    4246            mov         r2,r8                                   
ram:0001d0fc    9946            mov         r9,r3                                   
ram:0001d0fe    1380            strh        r3,[r2,#0x0]=>local_48                  
ram:0001d100    0821            movs        param_2,#0x8                            
ram:0001d102    02e7            b           LAB_0001cf0a                            
                            DAT_0001d104:                 ;XREF[2,0]:   0001cdd4,0001cdf4
ram:0001d104    7ff3ffff        undefined4  FFFFF37Fh                               
                            DAT_0001d108:                 ;XREF[1,0]:   0001cde0
ram:0001d108    7df30000        undefined4  0000F37Dh                               
                            DAT_0001d10c:                 ;XREF[1,0]:   0001ce00
ram:0001d10c    ffff0000        undefined4  0000FFFFh                               
                            ;************************************************************************************************
                            ;*                                           FUNCTION                                           *
                            ;************************************************************************************************
                            ;undefined FUN_0001d110(void)
                                                          ;XREF[1,0]:   0001d15e
ram:0001d110    75df            svc         0x75                                    
ram:0001d112    7047            bx          lr                                      
                            ;************************************************************************************************
                            ;*                                           FUNCTION                                           *
                            ;************************************************************************************************
                            ;undefined FUN_0001d114(void)
                                                          ;XREF[1,0]:   0001d172
ram:0001d114    76df            svc         0x76                                    
ram:0001d116    7047            bx          lr                                      
                            ;************************************************************************************************
                            ;*                                           FUNCTION                                           *
                            ;************************************************************************************************
                            ;undefined FUN_0001d118(void)
                                                          ;XREF[1,0]:   0001d24c
ram:0001d118    7adf            svc         0x7a                                    
ram:0001d11a    7047            bx          lr                                      
                            ;************************************************************************************************
                            ;*                                           FUNCTION                                           *
                            ;************************************************************************************************
                            ;undefined FUN_0001d11c(void)
                                                          ;XREF[1,0]:   0001d270
ram:0001d11c    7bdf            svc         0x7b                                    
ram:0001d11e    7047            bx          lr                                      
                            ;************************************************************************************************
                            ;*                                           FUNCTION                                           *
                            ;************************************************************************************************
                            ;undefined FUN_0001d120(void)
          ;local_c       undefined1          -c                      ;XREF[1,0]:   0001d154
ram:0001d120    10b5            push        {r4,lr}                                 
ram:0001d122    184b            ldr         r3,[DAT_0001d184]                       ;= 200027B8h
ram:0001d124    82b0            sub         sp,#0x8                                 
ram:0001d126    1888            ldrh        r0,[r3,#0x0]=>DAT_200027b8              
ram:0001d128    174b            ldr         r3,[DAT_0001d188]                       ;= 0000FFFFh
ram:0001d12a    9842            cmp         r0,r3                                   
ram:0001d12c    14d0            beq         LAB_0001d158                            
ram:0001d12e    174a            ldr         r2=>DAT_20002808,[DAT_0001d18c]         ;= 20002808h
ram:0001d130    174c            ldr         r4,[DAT_0001d190]                       ;= 200027BCh
ram:0001d132    1378            ldrb        r3,[r2,#0x0]=>DAT_20002808              
ram:0001d134    0133            adds        r3,#0x1                                 
ram:0001d136    dbb2            uxtb        r3,r3                                   
ram:0001d138    1370            strb        r3,[r2,#0x0]=>DAT_20002808              
ram:0001d13a    217b            ldrb        r1,[r4,#0xc]=>DAT_200027c8              
ram:0001d13c    9942            cmp         r1,r3                                   
ram:0001d13e    0dd2            bcs         LAB_0001d15c                            
ram:0001d140    0023            movs        r3,#0x0                                 
ram:0001d142    1370            strb        r3,[r2,#0x0]=>DAT_20002808              
ram:0001d144    237c            ldrb        r3,[r4,#0x10]=>DAT_200027cc             
ram:0001d146    002b            cmp         r3,#0x0                                 
ram:0001d148    12d1            bne         LAB_0001d170                            
                            LAB_0001d14a:                 ;XREF[3,0]:   0001d178,0001d17e,0001d182
ram:0001d14a    6369            ldr         r3,[r4,#0x14]=>DAT_200027d0             
ram:0001d14c    002b            cmp         r3,#0x0                                 
ram:0001d14e    03d0            beq         LAB_0001d158                            
ram:0001d150    0022            movs        r2,#0x0                                 
ram:0001d152    01a8            add         r0,sp,#0x4                              
ram:0001d154    0270            strb        r2,[r0,#0x0]=>local_c                   
ram:0001d156    9847            blx         r3                                      
                            LAB_0001d158:                 ;XREF[5,0]:   0001d12c,0001d14e,0001d164,0001d16a
                                                          ;             0001d16e
ram:0001d158    02b0            add         sp,#0x8                                 
ram:0001d15a    10bd            pop         {r4,pc}                                 
                            LAB_0001d15c:                 ;XREF[1,0]:   0001d13e
ram:0001d15c    0d49            ldr         r1=>DAT_20002800,[DAT_0001d194]         ;= 20002800h
ram:0001d15e    fff7d7ff        bl          FUN_0001d110                            ;undefined FUN_0001d110(void)
ram:0001d162    0028            cmp         r0,#0x0                                 
ram:0001d164    f8d0            beq         LAB_0001d158                            
ram:0001d166    a369            ldr         r3,[r4,#0x18]=>DAT_200027d4             
ram:0001d168    002b            cmp         r3,#0x0                                 
ram:0001d16a    f5d0            beq         LAB_0001d158                            
ram:0001d16c    9847            blx         r3                                      
ram:0001d16e    f3e7            b           LAB_0001d158                            
                            LAB_0001d170:                 ;XREF[1,0]:   0001d148
ram:0001d170    3b21            movs        r1,#0x3b                                
ram:0001d172    fff7cfff        bl          FUN_0001d114                            ;undefined FUN_0001d114(void)
ram:0001d176    0028            cmp         r0,#0x0                                 
ram:0001d178    e7d0            beq         LAB_0001d14a                            
ram:0001d17a    a369            ldr         r3,[r4,#0x18]=>DAT_200027d4             
ram:0001d17c    002b            cmp         r3,#0x0                                 
ram:0001d17e    e4d0            beq         LAB_0001d14a                            
ram:0001d180    9847            blx         r3                                      
ram:0001d182    e2e7            b           LAB_0001d14a                            
                            DAT_0001d184:                 ;XREF[1,0]:   0001d122
ram:0001d184    b8270020        undefined4  200027B8h                               
                            DAT_0001d188:                 ;XREF[1,0]:   0001d128
ram:0001d188    ffff0000        undefined4  0000FFFFh                               
                            DAT_0001d18c:                 ;XREF[1,0]:   0001d12e
ram:0001d18c    08280020        undefined4  20002808h                               
                            DAT_0001d190:                 ;XREF[1,0]:   0001d130
ram:0001d190    bc270020        undefined4  200027BCh                               
                            DAT_0001d194:                 ;XREF[1,0]:   0001d15c
ram:0001d194    00280020        undefined4  20002800h                               
                            ;************************************************************************************************
                            ;*                                           FUNCTION                                           *
                            ;************************************************************************************************
                            ;undefined FUN_0001d198(void)
          ;local_14      undefined1         -14                      ;XREF[2,0]:   0001d1ba,0001d1d6
                                                          ;XREF[1,0]:   0001d30c
ram:0001d198    30b5            push        {r4,r5,lr}                              
ram:0001d19a    1b4b            ldr         r3,[DAT_0001d208]                       ;= 200027F8h
ram:0001d19c    1b4a            ldr         r2,[DAT_0001d20c]                       ;= 20002800h
ram:0001d19e    5b88            ldrh        r3,[r3,#0x2]=>DAT_200027fa              
ram:0001d1a0    1188            ldrh        r1,[r2,#0x0]=>DAT_20002800              
ram:0001d1a2    83b0            sub         sp,#0xc                                 
ram:0001d1a4    9942            cmp         r1,r3                                   
ram:0001d1a6    0cd8            bhi         LAB_0001d1c2                            
ram:0001d1a8    5288            ldrh        r2,[r2,#offset DAT_20002802 &0xff]      
ram:0001d1aa    9a42            cmp         r2,r3                                   
ram:0001d1ac    09d3            bcc         LAB_0001d1c2                            
ram:0001d1ae    184b            ldr         r3,[DAT_0001d210]                       ;= 200027BCh
ram:0001d1b0    5b69            ldr         r3,[r3,#0x14]=>DAT_200027d0             
ram:0001d1b2    002b            cmp         r3,#0x0                                 
ram:0001d1b4    03d0            beq         LAB_0001d1be                            
ram:0001d1b6    0122            movs        r2,#0x1                                 
ram:0001d1b8    01a8            add         r0,sp,#0x4                              
ram:0001d1ba    0270            strb        r2,[r0,#0x0]=>local_14                  
ram:0001d1bc    9847            blx         r3                                      
                            LAB_0001d1be:                 ;XREF[1,0]:   0001d1b4
ram:0001d1be    154c            ldr         r4,[DAT_0001d214]                       ;= 200027B6h
ram:0001d1c0    0be0            b           LAB_0001d1da                            
                            LAB_0001d1c2:                 ;XREF[2,0]:   0001d1a6,0001d1ac
ram:0001d1c2    144c            ldr         r4,[DAT_0001d214]                       ;= 200027B6h
ram:0001d1c4    2378            ldrb        r3,[r4,#0x0]=>DAT_200027b6              
ram:0001d1c6    002b            cmp         r3,#0x0                                 
ram:0001d1c8    0bd0            beq         LAB_0001d1e2                            
ram:0001d1ca    114b            ldr         r3,[DAT_0001d210]                       ;= 200027BCh
ram:0001d1cc    5b69            ldr         r3,[r3,#0x14]=>DAT_200027d0             
ram:0001d1ce    002b            cmp         r3,#0x0                                 
ram:0001d1d0    03d0            beq         LAB_0001d1da                            
ram:0001d1d2    0022            movs        r2,#0x0                                 
ram:0001d1d4    01a8            add         r0,sp,#0x4                              
ram:0001d1d6    0270            strb        r2,[r0,#0x0]=>local_14                  
ram:0001d1d8    9847            blx         r3                                      
                            LAB_0001d1da:                 ;XREF[5,0]:   0001d1c0,0001d1d0,0001d1f8,0001d1fe
                                                          ;             0001d202
ram:0001d1da    0023            movs        r3,#0x0                                 
ram:0001d1dc    2370            strb        r3,[r4,#0x0]=>DAT_200027b6              
ram:0001d1de    03b0            add         sp,#0xc                                 
ram:0001d1e0    30bd            pop         {r4,r5,pc}                              
                            LAB_0001d1e2:                 ;XREF[1,0]:   0001d1c8
ram:0001d1e2    0d4b            ldr         r3,[DAT_0001d218]                       ;= 20002808h
ram:0001d1e4    0a4d            ldr         r5,[DAT_0001d210]                       ;= 200027BCh
ram:0001d1e6    1b78            ldrb        r3,[r3,#0x0]=>DAT_20002808              
ram:0001d1e8    002b            cmp         r3,#0x0                                 
ram:0001d1ea    0bd0            beq         LAB_0001d204                            
ram:0001d1ec    a968            ldr         r1,[r5,#0x8]=>DAT_200027c4              
                            LAB_0001d1ee:                 ;XREF[1,0]:   0001d206
ram:0001d1ee    0022            movs        r2,#0x0                                 
ram:0001d1f0    0a48            ldr         r0,[DAT_0001d21c]                       ;= 200027D8h
ram:0001d1f2    01f06bfc        bl          FUN_0001eacc                            ;undefined4 FUN_0001eacc(int param_1,...
ram:0001d1f6    0028            cmp         r0,#0x0                                 
ram:0001d1f8    efd0            beq         LAB_0001d1da                            
ram:0001d1fa    ab69            ldr         r3,[r5,#0x18]=>DAT_200027d4             
ram:0001d1fc    002b            cmp         r3,#0x0                                 
ram:0001d1fe    ecd0            beq         LAB_0001d1da                            
ram:0001d200    9847            blx         r3                                      
ram:0001d202    eae7            b           LAB_0001d1da                            
                            LAB_0001d204:                 ;XREF[1,0]:   0001d1ea
ram:0001d204    6968            ldr         r1,[r5,#0x4]=>DAT_200027c0              
ram:0001d206    f2e7            b           LAB_0001d1ee                            
                            DAT_0001d208:                 ;XREF[1,0]:   0001d19a
ram:0001d208    f8270020        undefined4  200027F8h                               
                            DAT_0001d20c:                 ;XREF[1,0]:   0001d19c
ram:0001d20c    00280020        undefined4  20002800h                               
                            DAT_0001d210:                 ;XREF[3,0]:   0001d1ae,0001d1ca,0001d1e4
ram:0001d210    bc270020        undefined4  200027BCh                               
                            DAT_0001d214:                 ;XREF[2,0]:   0001d1be,0001d1c2
ram:0001d214    b6270020        undefined4  200027B6h                               
                            DAT_0001d218:                 ;XREF[1,0]:   0001d1e2
ram:0001d218    08280020        undefined4  20002808h                               
                            DAT_0001d21c:                 ;XREF[1,0]:   0001d1f0
ram:0001d21c    d8270020        undefined4  200027D8h                               
                            ;************************************************************************************************
                            ;*                                           FUNCTION                                           *
                            ;************************************************************************************************
                            ;undefined FUN_0001d220(int * param_1)
          ;param_1       int *               r0                      
                                                          ;XREF[1,0]:   0001be04
ram:0001d220    1649            ldr         r1,[DAT_0001d27c]                       ;= 200027BCh
ram:0001d222    0200            movs        r2,param_1                              
ram:0001d224    0b00            movs        r3,r1                                   
ram:0001d226    70b5            push        {r4,r5,r6,lr}                           
ram:0001d228    32ca            ldmia       r2!,{r1,r4,r5}                          
                                                          ; FWD[3,0]:   200027bc,200027c0,200027c4
ram:0001d22a    32c3            stmia       r3!=>DAT_200027bc,{r1,r4,r5}=>DAT_200...
ram:0001d22c    32ca            ldmia       r2!,{r1,r4,r5}                          
                                                          ; FWD[3,0]:   200027c8,200027cc,200027d0
ram:0001d22e    32c3            stmia       r3!=>DAT_200027c8,{r1,r4,r5}=>DAT_200...
ram:0001d230    1268            ldr         r2,[r2,#0x0]                            
ram:0001d232    1a60            str         r2,[r3,#0x0]=>DAT_200027d4              
ram:0001d234    0022            movs        r2,#0x0                                 
ram:0001d236    124b            ldr         r3=>DAT_200027b6,[DAT_0001d280]         ;= 200027B6h
ram:0001d238    0168            ldr         r1,[param_1,#0x0]                       
ram:0001d23a    1a70            strb        r2,[r3,#0x0]=>DAT_200027b6              
ram:0001d23c    0029            cmp         r1,#0x0                                 
ram:0001d23e    16d0            beq         LAB_0001d26e                            
ram:0001d240    104c            ldr         r4,[DAT_0001d284]                       ;= 20002800h
ram:0001d242    0832            adds        r2,#0x8                                 
ram:0001d244    2000            movs        param_1=>DAT_20002800,r4                
ram:0001d246    02f011f9        bl          FUN_0001f46c                            ;undefined FUN_0001f46c(int param_1, ...
ram:0001d24a    2000            movs        param_1,r4                              
ram:0001d24c    fff764ff        bl          FUN_0001d118                            ;undefined FUN_0001d118(void)
ram:0001d250    0028            cmp         param_1,#0x0                            
ram:0001d252    0bd1            bne         LAB_0001d26c                            
                            LAB_0001d254:                 ;XREF[1,0]:   0001d276
ram:0001d254    0122            movs        r2,#0x1                                 
ram:0001d256    0c4b            ldr         r3,[DAT_0001d288]                       ;= 200027B8h
ram:0001d258    5242            rsbs        r2,r2                                   
ram:0001d25a    1a80            strh        r2,[r3,#0x0]=>DAT_200027b8              
ram:0001d25c    0022            movs        r2,#0x0                                 
ram:0001d25e    0b4b            ldr         r3=>DAT_20002808,[DAT_0001d28c]         ;= 20002808h
ram:0001d260    0021            movs        r1,#0x0                                 
ram:0001d262    1a70            strb        r2,[r3,#0x0]=>DAT_20002808              
ram:0001d264    0a48            ldr         param_1=>DAT_0001f72c,[PTR_DAT_0001d290];= D8h
                                                                                    ;= 0001f72c
ram:0001d266    0b4a            ldr         r2,[DAT_0001d294]                       ;= 0001D121h
ram:0001d268    01f01afc        bl          FUN_0001eaa0                            ;undefined FUN_0001eaa0(int * param_1...
                            LAB_0001d26c:                 ;XREF[2,0]:   0001d252,0001d278
ram:0001d26c    70bd            pop         {r4,r5,r6,pc}                           
                            LAB_0001d26e:                 ;XREF[1,0]:   0001d23e
ram:0001d26e    0548            ldr         param_1,[DAT_0001d284]                  ;= 20002800h
ram:0001d270    fff754ff        bl          FUN_0001d11c                            ;undefined FUN_0001d11c(void)
ram:0001d274    0028            cmp         param_1,#0x0                            
ram:0001d276    edd0            beq         LAB_0001d254                            
ram:0001d278    f8e7            b           LAB_0001d26c                            
ram:0001d27a    c046            mov         r8,r8                                   
                            DAT_0001d27c:                 ;XREF[1,0]:   0001d220
ram:0001d27c    bc270020        undefined4  200027BCh                               
                            DAT_0001d280:                 ;XREF[1,0]:   0001d236
ram:0001d280    b6270020        undefined4  200027B6h                               
                            DAT_0001d284:                 ;XREF[2,0]:   0001d240,0001d26e
ram:0001d284    00280020        undefined4  20002800h                               
                            DAT_0001d288:                 ;XREF[1,0]:   0001d256
ram:0001d288    b8270020        undefined4  200027B8h                               
                            DAT_0001d28c:                 ;XREF[1,0]:   0001d25e
ram:0001d28c    08280020        undefined4  20002808h                               
                            PTR_DAT_0001d290:             ;XREF[1,0]:   0001d264
ram:0001d290    2cf70100        addr        DAT_0001f72c                            ;= D8h
                            DAT_0001d294:                 ;XREF[1,0]:   0001d266
ram:0001d294    21d10100        undefined4  0001D121h                               ;?  ->  0001d121
                            ;************************************************************************************************
                            ;*                                           FUNCTION                                           *
                            ;************************************************************************************************
                            ;ushort * FUN_0001d298(ushort * param_1)
          ;param_1       ushort *            r0                      
          ;local_14      undefined1         -14                      ;XREF[2,0]:   0001d2e2,0001d348
                                                          ;XREF[1,0]:   0001b190
ram:0001d298    30b5            push        {r4,r5,lr}                              
ram:0001d29a    0388            ldrh        r3,[param_1,#0x0]                       
ram:0001d29c    83b0            sub         sp,#0xc                                 
ram:0001d29e    112b            cmp         r3,#0x11                                
ram:0001d2a0    37d0            beq         LAB_0001d312                            
ram:0001d2a2    23d9            bls         LAB_0001d2ec                            
ram:0001d2a4    122b            cmp         r3,#0x12                                
ram:0001d2a6    08d0            beq         LAB_0001d2ba                            
ram:0001d2a8    502b            cmp         r3,#0x50                                
ram:0001d2aa    04d1            bne         LAB_0001d2b6                            
ram:0001d2ac    3b4c            ldr         r4,[DAT_0001d39c]                       ;= 200027BCh
ram:0001d2ae    c288            ldrh        r2,[param_1,#0x6]                       
ram:0001d2b0    e389            ldrh        r3,[r4,#0xe]=>DAT_200027ca              
ram:0001d2b2    9a42            cmp         r2,r3                                   
ram:0001d2b4    4cd0            beq         LAB_0001d350                            
                            LAB_0001d2b6:                 ;XREF[12,0]:  0001d2aa,0001d2ea,0001d2ee,0001d30a
                                                          ;             0001d310,0001d328,0001d330,0001d334
                                                          ;             0001d354,0001d368,0001d36e,0001d372
ram:0001d2b6    03b0            add         sp,#0xc                                 
ram:0001d2b8    30bd            pop         {r4,r5,pc}                              
                            LAB_0001d2ba:                 ;XREF[1,0]:   0001d2a6
ram:0001d2ba    394b            ldr         r3,[DAT_0001d3a0]                       ;= 200027F8h
ram:0001d2bc    0830            adds        param_1,#0x8                            
ram:0001d2be    1a00            movs        r2,r3                                   
ram:0001d2c0    12c8            ldmia       param_1!,{r1,r4}                        
ram:0001d2c2    12c2            stmia       r2!=>DAT_200027f8,{r1,r4}=>DAT_200027fc 
ram:0001d2c4    374a            ldr         r2,[DAT_0001d3a4]                       ;= 20002800h
ram:0001d2c6    5b88            ldrh        r3,[r3,#0x2]=>DAT_200027fa              
ram:0001d2c8    1188            ldrh        r1,[r2,#0x0]=>DAT_20002800              
ram:0001d2ca    9942            cmp         r1,r3                                   
ram:0001d2cc    33d9            bls         LAB_0001d336                            
                            LAB_0001d2ce:                 ;XREF[1,0]:   0001d33a
ram:0001d2ce    364c            ldr         r4,[DAT_0001d3a8]                       ;= 200027B6h
ram:0001d2d0    2378            ldrb        r3,[r4,#0x0]=>DAT_200027b6              
ram:0001d2d2    002b            cmp         r3,#0x0                                 
ram:0001d2d4    4ed0            beq         LAB_0001d374                            
ram:0001d2d6    314b            ldr         r3,[DAT_0001d39c]                       ;= 200027BCh
ram:0001d2d8    5b69            ldr         r3,[r3,#0x14]=>DAT_200027d0             
ram:0001d2da    002b            cmp         r3,#0x0                                 
ram:0001d2dc    03d0            beq         LAB_0001d2e6                            
ram:0001d2de    0022            movs        r2,#0x0                                 
ram:0001d2e0    01a8            add         param_1,sp,#0x4                         
ram:0001d2e2    0270            strb        r2,[param_1,#0x0]=>local_14             
ram:0001d2e4    9847            blx         r3                                      
                            LAB_0001d2e6:                 ;XREF[5,0]:   0001d2dc,0001d34e,0001d38a,0001d390
                                                          ;             0001d394
ram:0001d2e6    0023            movs        r3,#0x0                                 
ram:0001d2e8    2370            strb        r3,[r4,#0x0]=>DAT_200027b6              
ram:0001d2ea    e4e7            b           LAB_0001d2b6                            
                            LAB_0001d2ec:                 ;XREF[1,0]:   0001d2a2
ram:0001d2ec    102b            cmp         r3,#0x10                                
ram:0001d2ee    e2d1            bne         LAB_0001d2b6                            
ram:0001d2f0    8288            ldrh        r2,[param_1,#0x4]                       
ram:0001d2f2    2e4b            ldr         r3,[DAT_0001d3ac]                       ;= 200027B8h
ram:0001d2f4    1830            adds        param_1,#0x18                           
ram:0001d2f6    1a80            strh        r2,[r3,#0x0]=>DAT_200027b8              
ram:0001d2f8    294b            ldr         r3,[DAT_0001d3a0]                       ;= 200027F8h
ram:0001d2fa    06c8            ldmia       param_1!,{r1,r2}                        
ram:0001d2fc    06c3            stmia       r3!=>DAT_200027f8,{r1,r2}=>DAT_200027fc 
ram:0001d2fe    0022            movs        r2,#0x0                                 
ram:0001d300    2b4b            ldr         r3,[DAT_0001d3b0]                       ;= 20002808h
ram:0001d302    1a70            strb        r2,[r3,#0x0]=>DAT_20002808              
ram:0001d304    254b            ldr         r3,[DAT_0001d39c]                       ;= 200027BCh
ram:0001d306    db89            ldrh        r3,[r3,#0xe]=>DAT_200027ca              
ram:0001d308    002b            cmp         r3,#0x0                                 
ram:0001d30a    d4d1            bne         LAB_0001d2b6                            
                            LAB_0001d30c:                 ;XREF[1,0]:   0001d35e
ram:0001d30c    fff744ff        bl          FUN_0001d198                            ;undefined FUN_0001d198(void)
ram:0001d310    d1e7            b           LAB_0001d2b6                            
                            LAB_0001d312:                 ;XREF[1,0]:   0001d2a0
ram:0001d312    0122            movs        r2,#0x1                                 
ram:0001d314    254b            ldr         r3,[DAT_0001d3ac]                       ;= 200027B8h
ram:0001d316    5242            rsbs        r2,r2                                   
ram:0001d318    1a80            strh        r2,[r3,#0x0]=>DAT_200027b8              
ram:0001d31a    0022            movs        r2,#0x0                                 
ram:0001d31c    244b            ldr         r3=>DAT_20002808,[DAT_0001d3b0]         ;= 20002808h
ram:0001d31e    2548            ldr         param_1,[DAT_0001d3b4]                  ;= 200027D8h
ram:0001d320    1a70            strb        r2,[r3,#0x0]=>DAT_20002808              
ram:0001d322    01f035fc        bl          FUN_0001eb90                            ;undefined4 FUN_0001eb90(int param_1)
ram:0001d326    0028            cmp         param_1,#0x0                            
ram:0001d328    c5d0            beq         LAB_0001d2b6                            
ram:0001d32a    1c4b            ldr         r3,[DAT_0001d39c]                       ;= 200027BCh
ram:0001d32c    9b69            ldr         r3,[r3,#0x18]=>DAT_200027d4             
ram:0001d32e    002b            cmp         r3,#0x0                                 
ram:0001d330    c1d0            beq         LAB_0001d2b6                            
ram:0001d332    9847            blx         r3                                      
ram:0001d334    bfe7            b           LAB_0001d2b6                            
                            LAB_0001d336:                 ;XREF[1,0]:   0001d2cc
ram:0001d336    5288            ldrh        r2,[r2,#offset DAT_20002802 &0xff]      
ram:0001d338    9a42            cmp         r2,r3                                   
ram:0001d33a    c8d3            bcc         LAB_0001d2ce                            
ram:0001d33c    174b            ldr         r3,[DAT_0001d39c]                       ;= 200027BCh
ram:0001d33e    5b69            ldr         r3,[r3,#0x14]=>DAT_200027d0             
ram:0001d340    002b            cmp         r3,#0x0                                 
ram:0001d342    03d0            beq         LAB_0001d34c                            
ram:0001d344    0122            movs        r2,#0x1                                 
ram:0001d346    01a8            add         param_1,sp,#0x4                         
ram:0001d348    0270            strb        r2,[param_1,#0x0]=>local_14             
ram:0001d34a    9847            blx         r3                                      
                            LAB_0001d34c:                 ;XREF[1,0]:   0001d342
ram:0001d34c    164c            ldr         r4,[DAT_0001d3a8]                       ;= 200027B6h
ram:0001d34e    cae7            b           LAB_0001d2e6                            
                            LAB_0001d350:                 ;XREF[1,0]:   0001d2b4
ram:0001d350    038a            ldrh        r3,[param_1,#0x10]                      
ram:0001d352    022b            cmp         r3,#0x2                                 
ram:0001d354    afd1            bne         LAB_0001d2b6                            
ram:0001d356    1230            adds        param_1,#0x12                           
ram:0001d358    00f0cef8        bl          FUN_0001d4f8                            ;byte FUN_0001d4f8(byte * param_1)
ram:0001d35c    0028            cmp         param_1,#0x0                            
ram:0001d35e    d5d1            bne         LAB_0001d30c                            
ram:0001d360    1448            ldr         param_1,[DAT_0001d3b4]                  ;= 200027D8h
ram:0001d362    01f015fc        bl          FUN_0001eb90                            ;undefined4 FUN_0001eb90(int param_1)
ram:0001d366    0028            cmp         param_1,#0x0                            
ram:0001d368    a5d0            beq         LAB_0001d2b6                            
ram:0001d36a    a369            ldr         r3,[r4,#0x18]=>DAT_200027d4             
ram:0001d36c    002b            cmp         r3,#0x0                                 
ram:0001d36e    a2d0            beq         LAB_0001d2b6                            
ram:0001d370    9847            blx         r3                                      
ram:0001d372    a0e7            b           LAB_0001d2b6                            
                            LAB_0001d374:                 ;XREF[1,0]:   0001d2d4
ram:0001d374    0e4b            ldr         r3,[DAT_0001d3b0]                       ;= 20002808h
ram:0001d376    094d            ldr         r5,[DAT_0001d39c]                       ;= 200027BCh
ram:0001d378    1b78            ldrb        r3,[r3,#0x0]=>DAT_20002808              
ram:0001d37a    002b            cmp         r3,#0x0                                 
ram:0001d37c    0bd0            beq         LAB_0001d396                            
ram:0001d37e    a968            ldr         r1,[r5,#0x8]=>DAT_200027c4              
                            LAB_0001d380:                 ;XREF[1,0]:   0001d398
ram:0001d380    0022            movs        r2,#0x0                                 
ram:0001d382    0c48            ldr         param_1,[DAT_0001d3b4]                  ;= 200027D8h
ram:0001d384    01f0a2fb        bl          FUN_0001eacc                            ;undefined4 FUN_0001eacc(int param_1,...
ram:0001d388    0028            cmp         param_1,#0x0                            
ram:0001d38a    acd0            beq         LAB_0001d2e6                            
ram:0001d38c    ab69            ldr         r3,[r5,#0x18]=>DAT_200027d4             
ram:0001d38e    002b            cmp         r3,#0x0                                 
ram:0001d390    a9d0            beq         LAB_0001d2e6                            
ram:0001d392    9847            blx         r3                                      
ram:0001d394    a7e7            b           LAB_0001d2e6                            
                            LAB_0001d396:                 ;XREF[1,0]:   0001d37c
ram:0001d396    6968            ldr         r1,[r5,#0x4]=>DAT_200027c0              
ram:0001d398    f2e7            b           LAB_0001d380                            
ram:0001d39a    c046            mov         r8,r8                                   
                            DAT_0001d39c:                 ;XREF[6,0]:   0001d2ac,0001d2d6,0001d304,0001d32a
                                                          ;             0001d33c,0001d376
ram:0001d39c    bc270020        undefined4  200027BCh                               
                            DAT_0001d3a0:                 ;XREF[2,0]:   0001d2ba,0001d2f8
ram:0001d3a0    f8270020        undefined4  200027F8h                               
                            DAT_0001d3a4:                 ;XREF[1,0]:   0001d2c4
ram:0001d3a4    00280020        undefined4  20002800h                               
                            DAT_0001d3a8:                 ;XREF[2,0]:   0001d2ce,0001d34c
ram:0001d3a8    b6270020        undefined4  200027B6h                               
                            DAT_0001d3ac:                 ;XREF[2,0]:   0001d2f2,0001d314
ram:0001d3ac    b8270020        undefined4  200027B8h                               
                            DAT_0001d3b0:                 ;XREF[3,0]:   0001d300,0001d31c,0001d374
ram:0001d3b0    08280020        undefined4  20002808h                               
                            DAT_0001d3b4:                 ;XREF[3,0]:   0001d31e,0001d360,0001d382
ram:0001d3b4    d8270020        undefined4  200027D8h                               
                            ;************************************************************************************************
                            ;*                                           FUNCTION                                           *
                            ;************************************************************************************************
                            ;undefined FUN_0001d3b8(short * param_1)
          ;param_1       short *             r0                      
          ;local_30      undefined2         -30                      ;XREF[1,0]:   0001d40e
          ;local_34      undefined4         -34                      ;XREF[1,0]:   0001d3f6
          ;local_40      undefined4         -40                      ;XREF[1,0]:   0001d412
                                                          ;XREF[1,0]:   0001b184
ram:0001d3b8    f0b5            push        {r4,r5,r6,r7,lr}                        
ram:0001d3ba    d646            mov         lr,r10                                  
ram:0001d3bc    4f46            mov         r7,r9                                   
ram:0001d3be    4646            mov         r6,r8                                   
ram:0001d3c0    c0b5            push        {r6,r7,lr}                              
ram:0001d3c2    0388            ldrh        r3,[param_1,#0x0]                       
ram:0001d3c4    88b0            sub         sp,#0x20                                
ram:0001d3c6    0500            movs        r5,param_1                              
ram:0001d3c8    112b            cmp         r3,#0x11                                
ram:0001d3ca    00d1            bne         LAB_0001d3ce                            
ram:0001d3cc    6be0            b           LAB_0001d4a6                            
                            LAB_0001d3ce:                 ;XREF[1,0]:   0001d3ca
ram:0001d3ce    1a2b            cmp         r3,#0x1a                                
ram:0001d3d0    4ed0            beq         LAB_0001d470                            
ram:0001d3d2    102b            cmp         r3,#0x10                                
ram:0001d3d4    05d0            beq         LAB_0001d3e2                            
                            LAB_0001d3d6:                 ;XREF[4,0]:   0001d46e,0001d4a4,0001d4b6,0001d4be
ram:0001d3d6    08b0            add         sp,#0x20                                
ram:0001d3d8    1cbc            pop         {r2,r3,r4}                              
ram:0001d3da    9046            mov         r8,r2                                   
ram:0001d3dc    9946            mov         r9,r3                                   
ram:0001d3de    a246            mov         r10,r4                                  
ram:0001d3e0    f0bd            pop         {r4,r5,r6,r7,pc}                        
                            LAB_0001d3e2:                 ;XREF[1,0]:   0001d3d4
ram:0001d3e2    374f            ldr         r7,[DAT_0001d4c0]                       ;= 2000280Ch
ram:0001d3e4    03a8            add         param_1,sp,#0xc                         
ram:0001d3e6    7b7d            ldrb        r3,[r7,#0x15]=>DAT_20002821             
ram:0001d3e8    3a7d            ldrb        r2,[r7,#0x14]=>DAT_20002820             
ram:0001d3ea    9a43            bics        r2,r3                                   
ram:0001d3ec    3b1d            adds        r3,r7,#0x4                              
ram:0001d3ee    1900            movs        r1,r3                                   
ram:0001d3f0    9846            mov         r8,r3                                   
ram:0001d3f2    01f00bfe        bl          FUN_0001f00c                            ;undefined FUN_0001f00c(uint * param_...
ram:0001d3f6    039e            ldr         r6,[sp,#local_34+0x40]                  
ram:0001d3f8    002e            cmp         r6,#0x0                                 
ram:0001d3fa    12d0            beq         LAB_0001d422                            
ram:0001d3fc    1423            movs        r3,#0x14                                
ram:0001d3fe    9946            mov         r9,r3                                   
ram:0001d400    0023            movs        r3,#0x0                                 
ram:0001d402    9a46            mov         r10,r3                                  
ram:0001d404    03ac            add         r4,sp,#0xc                              
ram:0001d406    7600            lsls        r6,r6,#0x1                              
ram:0001d408    a619            adds        r6,r4,r6                                
ram:0001d40a    b944            add         r9,r7                                   
                            LAB_0001d40c:                 ;XREF[1,0]:   0001d420
ram:0001d40c    5246            mov         r2,r10                                  
ram:0001d40e    a388            ldrh        r3,[r4,#local_30+0x34]                  
ram:0001d410    4946            mov         r1=>DAT_20002820,r9                     
ram:0001d412    0092            str         r2,[sp,#0x0]=>local_40                  
ram:0001d414    4046            mov         param_1,r8                              
ram:0001d416    1d22            movs        r2,#0x1d                                
ram:0001d418    0234            adds        r4,#0x2                                 
ram:0001d41a    01f0a7fc        bl          FUN_0001ed6c                            ;undefined FUN_0001ed6c(ushort * para...
ram:0001d41e    b442            cmp         r4,r6                                   
ram:0001d420    f4d1            bne         LAB_0001d40c                            
                            LAB_0001d422:                 ;XREF[1,0]:   0001d3fa
ram:0001d422    387d            ldrb        param_1,[r7,#0x14]=>DAT_20002820        
ram:0001d424    ac88            ldrh        r4,[r5,#0x4]                            
ram:0001d426    c043            mvns        param_1,param_1                         
ram:0001d428    c0b2            uxtb        param_1,param_1                         
ram:0001d42a    01f03bfc        bl          FUN_0001eca4                            ;int FUN_0001eca4(uint param_1)
ram:0001d42e    254b            ldr         r3,[DAT_0001d4c4]                       ;= 0000FFFFh
ram:0001d430    9842            cmp         param_1,r3                              
ram:0001d432    41d0            beq         LAB_0001d4b8                            
ram:0001d434    3900            movs        r1,r7                                   
ram:0001d436    4000            lsls        param_1,param_1,#0x1                    
ram:0001d438    3e1d            adds        r6,r7,#0x4                              
ram:0001d43a    3818            adds        param_1,r7,param_1                      
ram:0001d43c    8480            strh        r4,[param_1,#0x4]                       
ram:0001d43e    2200            movs        r2,r4                                   
ram:0001d440    3000            movs        param_1,r6                              
ram:0001d442    1531            adds        r1=>DAT_20002821,#0x15                  
ram:0001d444    0123            movs        r3,#0x1                                 
ram:0001d446    01f059fc        bl          FUN_0001ecfc                            ;undefined FUN_0001ecfc(ushort * para...
ram:0001d44a    3900            movs        r1,r7                                   
ram:0001d44c    2200            movs        r2,r4                                   
ram:0001d44e    3000            movs        param_1,r6                              
ram:0001d450    1431            adds        r1=>DAT_20002820,#0x14                  
ram:0001d452    0123            movs        r3,#0x1                                 
ram:0001d454    01f052fc        bl          FUN_0001ecfc                            ;undefined FUN_0001ecfc(ushort * para...
ram:0001d458    ab7d            ldrb        r3,[r5,#0x16]                           
ram:0001d45a    3900            movs        r1,r7                                   
ram:0001d45c    023b            subs        r3,#0x2                                 
ram:0001d45e    5a42            rsbs        r2,r3                                   
ram:0001d460    5341            adcs        r3,r2                                   
ram:0001d462    1631            adds        r1=>DAT_20002822,#0x16                  
ram:0001d464    dbb2            uxtb        r3,r3                                   
ram:0001d466    aa88            ldrh        r2,[r5,#0x4]                            
ram:0001d468    3000            movs        param_1,r6                              
ram:0001d46a    01f047fc        bl          FUN_0001ecfc                            ;undefined FUN_0001ecfc(ushort * para...
ram:0001d46e    b2e7            b           LAB_0001d3d6                            
                            LAB_0001d470:                 ;XREF[1,0]:   0001d3d0
ram:0001d470    0123            movs        r3,#0x1                                 
ram:0001d472    027a            ldrb        r2,[param_1,#0x8]                       
ram:0001d474    124c            ldr         r4,[DAT_0001d4c0]                       ;= 2000280Ch
ram:0001d476    1209            lsrs        r2,r2,#0x4                              
ram:0001d478    9342            cmp         r3,r2                                   
ram:0001d47a    9b41            sbcs        r3,r3                                   
ram:0001d47c    2100            movs        r1,r4                                   
ram:0001d47e    261d            adds        r6,r4,#0x4                              
ram:0001d480    8288            ldrh        r2,[param_1,#0x4]                       
ram:0001d482    5b42            rsbs        r3,r3                                   
ram:0001d484    3000            movs        param_1,r6                              
ram:0001d486    1731            adds        r1,#0x17                                
ram:0001d488    01f038fc        bl          FUN_0001ecfc                            ;undefined FUN_0001ecfc(ushort * para...
ram:0001d48c    0223            movs        r3,#0x2                                 
ram:0001d48e    2a7a            ldrb        r2,[r5,#0x8]                            
ram:0001d490    2100            movs        r1,r4                                   
ram:0001d492    1209            lsrs        r2,r2,#0x4                              
ram:0001d494    9342            cmp         r3,r2                                   
ram:0001d496    9b41            sbcs        r3,r3                                   
ram:0001d498    1831            adds        r1,#0x18                                
ram:0001d49a    5b42            rsbs        r3,r3                                   
ram:0001d49c    aa88            ldrh        r2,[r5,#0x4]                            
ram:0001d49e    3000            movs        param_1,r6                              
ram:0001d4a0    01f02cfc        bl          FUN_0001ecfc                            ;undefined FUN_0001ecfc(ushort * para...
ram:0001d4a4    97e7            b           LAB_0001d3d6                            
                            LAB_0001d4a6:                 ;XREF[1,0]:   0001d3cc
ram:0001d4a6    8288            ldrh        r2,[param_1,#0x4]                       
ram:0001d4a8    0548            ldr         param_1,[DAT_0001d4c0]                  ;= 2000280Ch
ram:0001d4aa    0023            movs        r3,#0x0                                 
ram:0001d4ac    0100            movs        r1,param_1                              
ram:0001d4ae    0430            adds        param_1,#0x4                            
ram:0001d4b0    1531            adds        r1=>DAT_20002821,#0x15                  
ram:0001d4b2    01f023fc        bl          FUN_0001ecfc                            ;undefined FUN_0001ecfc(ushort * para...
ram:0001d4b6    8ee7            b           LAB_0001d3d6                            
                            LAB_0001d4b8:                 ;XREF[1,0]:   0001d432
ram:0001d4b8    0420            movs        param_1,#0x4                            
ram:0001d4ba    01f0adfb        bl          FUN_0001ec18                            ;undefined FUN_0001ec18(void)
ram:0001d4be    8ae7            b           LAB_0001d3d6                            
                            DAT_0001d4c0:                 ;XREF[3,0]:   0001d3e2,0001d474,0001d4a8
ram:0001d4c0    0c280020        undefined4  2000280Ch                               
                            DAT_0001d4c4:                 ;XREF[1,0]:   0001d42e
ram:0001d4c4    ffff0000        undefined4  0000FFFFh                               
                            ;************************************************************************************************
                            ;*                                           FUNCTION                                           *
                            ;************************************************************************************************
                            ;int FUN_0001d4c8(uint param_1)
          ;param_1       uint                r0                      
                                                          ;XREF[1,0]:   0001b196
ram:0001d4c8    70b5            push        {r4,r5,r6,lr}                           
ram:0001d4ca    0a4c            ldr         r4,[DAT_0001d4f4]                       ;= 2000280Ch
ram:0001d4cc    0200            movs        r2,param_1                              
ram:0001d4ce    251d            adds        r5,r4,#0x4                              
ram:0001d4d0    0600            movs        r6,param_1                              
ram:0001d4d2    217d            ldrb        r1,[r4,#0x14]=>DAT_20002820             
ram:0001d4d4    2800            movs        param_1,r5                              
ram:0001d4d6    01f067fd        bl          FUN_0001efa8                            ;uint FUN_0001efa8(ushort * param_1, ...
ram:0001d4da    0300            movs        r3,param_1                              
ram:0001d4dc    0020            movs        param_1,#0x0                            
ram:0001d4de    002b            cmp         r3,#0x0                                 
ram:0001d4e0    07d0            beq         LAB_0001d4f2                            
ram:0001d4e2    a17d            ldrb        r1,[r4,#0x16]=>DAT_20002822             
ram:0001d4e4    3200            movs        r2,r6                                   
ram:0001d4e6    2800            movs        param_1,r5                              
ram:0001d4e8    01f05efd        bl          FUN_0001efa8                            ;uint FUN_0001efa8(ushort * param_1, ...
ram:0001d4ec    431e            subs        r3,param_1,#0x1                         
ram:0001d4ee    9841            sbcs        param_1,r3                              
ram:0001d4f0    0130            adds        param_1,#0x1                            
                            LAB_0001d4f2:                 ;XREF[1,0]:   0001d4e0
ram:0001d4f2    70bd            pop         {r4,r5,r6,pc}                           
                            DAT_0001d4f4:                 ;XREF[1,0]:   0001d4ca
ram:0001d4f4    0c280020        undefined4  2000280Ch                               
                            ;************************************************************************************************
                            ;*                                           FUNCTION                                           *
                            ;************************************************************************************************
                            ;byte FUN_0001d4f8(byte * param_1)
          ;param_1       byte *              r0                      
                                                          ;XREF[2,0]:   0001c04c,0001d358
ram:0001d4f8    0123            movs        r3,#0x1                                 
ram:0001d4fa    0078            ldrb        param_1,[param_1,#0x0]                  
ram:0001d4fc    1840            ands        param_1,r3                              
ram:0001d4fe    7047            bx          lr                                      
                            ;************************************************************************************************
                            ;*                                           FUNCTION                                           *
                            ;************************************************************************************************
                            ;undefined FUN_0001d500(void)
                                                          ;XREF[1,0]:   0001d5f2
ram:0001d500    a0df            svc         0xa0                                    
ram:0001d502    7047            bx          lr                                      
                            ;************************************************************************************************
                            ;*                                           FUNCTION                                           *
                            ;************************************************************************************************
                            ;undefined FUN_0001d504(void)
                                                          ;XREF[3,0]:   0001d5b0,0001d6ee,0001d7c0
ram:0001d504    a2df            svc         0xa2                                    
ram:0001d506    7047            bx          lr                                      
                            ;************************************************************************************************
                            ;*                                           FUNCTION                                           *
                            ;************************************************************************************************
                            ;undefined FUN_0001d508(undefined2 param_1, int param_2, int param_3, undefined * param_4)
          ;param_1       undefined2          r0                      
          ;param_2       int                 r1                      
          ;param_3       int                 r2                      
          ;param_4       undefined *         r3                      
          ;local_2c      undefined4         -2c                      ;XREF[1,0]:   0001d560
          ;local_30      undefined4         -30                      ;XREF[1,0]:   0001d55e
          ;local_34      undefined4         -34                      ;XREF[1,0]:   0001d55c
          ;local_38      undefined4         -38                      ;XREF[1,0]:   0001d55a
          ;local_40      undefined4         -40                      ;XREF[1,0]:   0001d558
          ;local_44      undefined1         -44                      ;XREF[2,0]:   0001d53c,0001d542
          ;local_48      undefined4         -48                      ;XREF[1,0]:   0001d5a0
          ;local_4c      undefined2         -4c                      ;XREF[1,0]:   0001d59c
          ;local_4e      undefined2         -4e                      ;XREF[1,0]:   0001d5ae
          ;local_50      undefined2         -50                      ;XREF[1,0]:   0001d59a
          ;local_54      undefined4         -54                      ;XREF[1,0]:   0001d596
          ;local_58      undefined4         -58                      ;XREF[1,0]:   0001d5ac
          ;local_5a      undefined1         -5a                      ;XREF[1,0]:   0001d548
          ;local_5c      undefined2         -5c                      ;XREF[1,0]:   0001d556
          ;local_5e      undefined1         -5e                      ;XREF[2,0]:   0001d576,0001d588
          ;local_5f      undefined1         -5f                      ;XREF[1,0]:   0001d574
          ;local_60      undefined1         -60                      ;XREF[1,0]:   0001d56c
          ;local_64      undefined4         -64                      ;XREF[2,0]:   0001d516,0001d54e
                                                          ;XREF[7,0]:   0001d70c,0001d7e2,0001d7fc,0001d814
                                                          ;             0001d82c,0001d844,0001d85c
ram:0001d508    f0b5            push        {r4,r5,r6,r7,lr}                        
ram:0001d50a    5746            mov         r7,r10                                  
ram:0001d50c    4e46            mov         r6,r9                                   
ram:0001d50e    4546            mov         r5,r8                                   
ram:0001d510    de46            mov         lr,r11                                  
ram:0001d512    e0b5            push        {r5,r6,r7,lr}                           
ram:0001d514    91b0            sub         sp,#0x44                                
ram:0001d516    0190            str         param_1,[sp,#local_64+0x68]             
ram:0001d518    8946            mov         r9,param_2                              
ram:0001d51a    9046            mov         r8,param_3                              
ram:0001d51c    9a46            mov         r10,param_4                             
ram:0001d51e    0029            cmp         param_2,#0x0                            
ram:0001d520    4fd0            beq         LAB_0001d5c2                            
                            LAB_0001d522:                 ;XREF[1,0]:   0001d5c8
ram:0001d522    4346            mov         param_4,r8                              
ram:0001d524    002b            cmp         param_4,#0x0                            
ram:0001d526    02d1            bne         LAB_0001d52e                            
ram:0001d528    0020            movs        param_1,#0x0                            
ram:0001d52a    01f075fb        bl          FUN_0001ec18                            ;undefined FUN_0001ec18(void)
                            LAB_0001d52e:                 ;XREF[1,0]:   0001d526
ram:0001d52e    0225            movs        r5,#0x2                                 
ram:0001d530    09ac            add         r4,sp,#0x24                             
ram:0001d532    1c22            movs        param_3,#0x1c                           
ram:0001d534    0021            movs        param_2,#0x0                            
ram:0001d536    2000            movs        param_1,r4                              
ram:0001d538    01f0a1ff        bl          FUN_0001f47e                            ;undefined FUN_0001f47e(undefined * p...
ram:0001d53c    2378            ldrb        param_4,[r4,#0x0]=>local_44             
ram:0001d53e    03af            add         r7,sp,#0xc                              
ram:0001d540    2b43            orrs        param_4,r5                              
ram:0001d542    2370            strb        param_4,[r4,#0x0]=>local_44             
ram:0001d544    0123            movs        param_4,#0x1                            
ram:0001d546    9b46            mov         r11,param_4                             
ram:0001d548    bb70            strb        param_4,[r7,#local_5a+0x5c]             
ram:0001d54a    6b46            mov         param_4,sp                              
ram:0001d54c    0026            movs        r6,#0x0                                 
ram:0001d54e    9b88            ldrh        param_4,[r3,#local_64+0x68]             
ram:0001d550    0322            movs        param_3,#0x3                            
ram:0001d552    0021            movs        param_2,#0x0                            
ram:0001d554    02a8            add         param_1,sp,#0x8                         
ram:0001d556    3b80            strh        param_4,[r7,#0x0]=>local_5c             
ram:0001d558    6660            str         r6,[r4,#local_40+0x44]                  
ram:0001d55a    e660            str         r6,[r4,#local_38+0x44]                  
ram:0001d55c    2661            str         r6,[r4,#local_34+0x44]                  
ram:0001d55e    6661            str         r6,[r4,#local_30+0x44]                  
ram:0001d560    a661            str         r6,[r4,#local_2c+0x44]                  
ram:0001d562    01f08cff        bl          FUN_0001f47e                            ;undefined FUN_0001f47e(undefined * p...
ram:0001d566    5346            mov         param_4,r10                             
ram:0001d568    1b78            ldrb        param_4,[param_4,#0x0]                  
ram:0001d56a    02aa            add         param_3,sp,#0x8                         
ram:0001d56c    1370            strb        param_4,[param_3,#0x0]=>local_60        
ram:0001d56e    5346            mov         param_4,r10                             
ram:0001d570    5b78            ldrb        param_4,[param_4,#0x1]                  
ram:0001d572    0021            movs        param_2,#0x0                            
ram:0001d574    5370            strb        param_4,[r2,#local_5f+0x60]             
ram:0001d576    9378            ldrb        param_4,[r2,#local_5e+0x60]             
ram:0001d578    0622            movs        param_3,#0x6                            
ram:0001d57a    9343            bics        param_4,param_3                         
ram:0001d57c    1d43            orrs        r5,param_4                              
ram:0001d57e    e723            movs        param_4,#0xe7                           
ram:0001d580    1d40            ands        r5,param_4                              
ram:0001d582    5b46            mov         param_4,r11                             
ram:0001d584    9d43            bics        r5,param_4                              
ram:0001d586    02ab            add         param_4,sp,#0x8                         
ram:0001d588    9d70            strb        r5,[r3,#local_5e+0x60]                  
ram:0001d58a    04ad            add         r5,sp,#0x10                             
ram:0001d58c    0e32            adds        param_3,#0xe                            
ram:0001d58e    2800            movs        param_1,r5                              
ram:0001d590    01f075ff        bl          FUN_0001f47e                            ;undefined FUN_0001f47e(undefined * p...
ram:0001d594    02ab            add         param_4,sp,#0x8                         
ram:0001d596    6b60            str         param_4,[r5,#local_54+0x58]             
ram:0001d598    4346            mov         param_4,r8                              
ram:0001d59a    2b81            strh        param_4,[r5,#local_50+0x58]             
ram:0001d59c    ab81            strh        param_4,[r5,#local_4c+0x58]             
ram:0001d59e    4b46            mov         param_4,r9                              
ram:0001d5a0    2b61            str         param_4,[r5,#local_48+0x58]             
ram:0001d5a2    0a4b            ldr         param_4,[DAT_0001d5cc]                  ;= 20002878h
ram:0001d5a4    2a00            movs        param_3,r5                              
ram:0001d5a6    1888            ldrh        param_1,[param_4,#0x0]=>DAT_20002878    
ram:0001d5a8    2100            movs        param_2,r4                              
ram:0001d5aa    1a9b            ldr         param_4,[sp,#Stack[0x0]+0x68]           
ram:0001d5ac    0497            str         r7,[sp,#local_58+0x68]                  
ram:0001d5ae    6e81            strh        r6,[r5,#local_4e+0x58]                  
ram:0001d5b0    fff7a8ff        bl          FUN_0001d504                            ;undefined FUN_0001d504(void)
ram:0001d5b4    11b0            add         sp,#0x44                                
ram:0001d5b6    3cbc            pop         {param_3,param_4,r4,r5}                 
ram:0001d5b8    9046            mov         r8,param_3                              
ram:0001d5ba    9946            mov         r9,param_4                              
ram:0001d5bc    a246            mov         r10,r4                                  
ram:0001d5be    ab46            mov         r11,r5                                  
ram:0001d5c0    f0bd            pop         {r4,r5,r6,r7,pc}                        
                            LAB_0001d5c2:                 ;XREF[1,0]:   0001d520
ram:0001d5c2    0020            movs        param_1,#0x0                            
ram:0001d5c4    01f028fb        bl          FUN_0001ec18                            ;undefined FUN_0001ec18(void)
ram:0001d5c8    abe7            b           LAB_0001d522                            
ram:0001d5ca    c046            mov         r8,r8                                   
                            DAT_0001d5cc:                 ;XREF[1,0]:   0001d5a2
ram:0001d5cc    78280020        undefined4  20002878h                               
                            ;************************************************************************************************
                            ;*                                           FUNCTION                                           *
                            ;************************************************************************************************
                            ;int FUN_0001d5d0(ushort * param_1)
          ;param_1       ushort *            r0                      
          ;local_2c      undefined4         -2c                      ;XREF[2,0]:   0001d67a,0001d75c
          ;local_30      undefined4         -30                      ;XREF[2,0]:   0001d678,0001d75a
          ;local_34      undefined4         -34                      ;XREF[2,0]:   0001d676,0001d758
          ;local_38      undefined4         -38                      ;XREF[2,0]:   0001d674,0001d756
          ;local_40      undefined4         -40                      ;XREF[2,0]:   0001d672,0001d754
          ;local_44      undefined1         -44                      ;XREF[4,0]:   0001d668,0001d66e,0001d74a,0001d750
          ;local_48      undefined4         -48                      ;XREF[2,0]:   0001d6e2,0001d7be
          ;local_4c      undefined2         -4c                      ;XREF[2,0]:   0001d6e0,0001d7b2
          ;local_50      undefined4         -50                      ;XREF[2,0]:   0001d6dc,0001d7b0
          ;local_54      undefined4         -54                      ;XREF[2,0]:   0001d6d6,0001d7aa
          ;local_58      undefined4         -58                      ;XREF[2,0]:   0001d6d0,0001d7bc
          ;local_59      undefined1         -59                      ;XREF[1,0]:   0001d65c
          ;local_5a      undefined1         -5a                      ;XREF[2,0]:   0001d656,0001d73e
          ;local_5b      undefined1         -5b                      ;XREF[2,0]:   0001d654,0001d738
          ;local_5c      undefined1         -5c                      ;XREF[2,0]:   0001d64e,0001d732
          ;local_5d      undefined1         -5d                      ;XREF[2,0]:   0001d64a,0001d72e
          ;local_5e      undefined1         -5e                      ;XREF[2,0]:   0001d644,0001d728
          ;local_5f      undefined1         -5f                      ;XREF[2,0]:   0001d63e,0001d724
          ;local_60      undefined1         -60                      ;XREF[2,0]:   0001d636,0001d71e
          ;local_62      undefined1         -62                      ;XREF[2,0]:   0001d684,0001d760
          ;local_64      undefined2         -64                      ;XREF[2,0]:   0001d68c,0001d76c
          ;local_66      undefined1         -66                      ;XREF[1,0]:   0001d5e2
          ;local_68      undefined2         -68                      ;XREF[1,0]:   0001d5e8
          ;local_6a      undefined1         -6a                      ;XREF[4,0]:   0001d6a6,0001d6c0,0001d784,0001d798
          ;local_6b      undefined1         -6b                      ;XREF[2,0]:   0001d6a4,0001d782
          ;local_6c      undefined1         -6c                      ;XREF[2,0]:   0001d69c,0001d77a
          ;local_78      undefined4         -78                      ;XREF[7,0]:   0001d706,0001d7da,0001d7f4,0001d80c,0001d824
                                                                     ;             0001d83c,0001d854
                                                          ;XREF[1,0]:   0001b5f6
ram:0001d5d0    f0b5            push        {r4,r5,r6,r7,lr}                        
ram:0001d5d2    5746            mov         r7,r10                                  
ram:0001d5d4    de46            mov         lr,r11                                  
ram:0001d5d6    4e46            mov         r6,r9                                   
ram:0001d5d8    4546            mov         r5,r8                                   
ram:0001d5da    0123            movs        r3,#0x1                                 
ram:0001d5dc    e0b5            push        {r5,r6,r7,lr}                           
ram:0001d5de    95b0            sub         sp,#0x54                                
ram:0001d5e0    04a9            add         r1,sp,#0x10                             
ram:0001d5e2    8b70            strb        r3,[r1,#local_66+0x68]                  
ram:0001d5e4    a14b            ldr         r3,[DAT_0001d86c]                       ;= 0000180Ah
ram:0001d5e6    0600            movs        r6,param_1                              
ram:0001d5e8    0b80            strh        r3,[r1,#0x0]=>local_68                  
ram:0001d5ea    a14b            ldr         r3=>DAT_20002878,[DAT_0001d870]         ;= 20002878h
ram:0001d5ec    0120            movs        param_1,#0x1                            
ram:0001d5ee    1a00            movs        r2=>DAT_20002878,r3                     
ram:0001d5f0    9a46            mov         r10,r3                                  
ram:0001d5f2    fff785ff        bl          FUN_0001d500                            ;undefined FUN_0001d500(void)
ram:0001d5f6    071e            subs        r7,param_1,#0x0                         
ram:0001d5f8    00d0            beq         LAB_0001d5fc                            
ram:0001d5fa    e4e0            b           LAB_0001d7c6                            
                            LAB_0001d5fc:                 ;XREF[1,0]:   0001d5f8
ram:0001d5fc    3288            ldrh        r2,[r6,#0x0]                            
ram:0001d5fe    002a            cmp         r2,#0x0                                 
ram:0001d600    00d0            beq         LAB_0001d604                            
ram:0001d602    e8e0            b           LAB_0001d7d6                            
                            LAB_0001d604:                 ;XREF[2,0]:   0001d600,0001d7ea
ram:0001d604    3289            ldrh        r2,[r6,#0x8]                            
ram:0001d606    002a            cmp         r2,#0x0                                 
ram:0001d608    00d0            beq         LAB_0001d60c                            
ram:0001d60a    09e1            b           LAB_0001d820                            
                            LAB_0001d60c:                 ;XREF[2,0]:   0001d608,0001d834
ram:0001d60c    328a            ldrh        r2,[r6,#0x10]                           
ram:0001d60e    002a            cmp         r2,#0x0                                 
ram:0001d610    00d0            beq         LAB_0001d614                            
ram:0001d612    11e1            b           LAB_0001d838                            
                            LAB_0001d614:                 ;XREF[2,0]:   0001d610,0001d84c
ram:0001d614    328b            ldrh        r2,[r6,#0x18]                           
ram:0001d616    002a            cmp         r2,#0x0                                 
ram:0001d618    00d0            beq         LAB_0001d61c                            
ram:0001d61a    19e1            b           LAB_0001d850                            
                            LAB_0001d61c:                 ;XREF[2,0]:   0001d618,0001d864
ram:0001d61c    328c            ldrh        r2,[r6,#0x20]                           
ram:0001d61e    002a            cmp         r2,#0x0                                 
ram:0001d620    00d0            beq         LAB_0001d624                            
ram:0001d622    e5e0            b           LAB_0001d7f0                            
                            LAB_0001d624:                 ;XREF[2,0]:   0001d620,0001d804
ram:0001d624    328d            ldrh        r2,[r6,#0x28]                           
ram:0001d626    002a            cmp         r2,#0x0                                 
ram:0001d628    00d0            beq         LAB_0001d62c                            
ram:0001d62a    ede0            b           LAB_0001d808                            
                            LAB_0001d62c:                 ;XREF[2,0]:   0001d628,0001d81c
ram:0001d62c    336b            ldr         r3,[r6,#0x30]                           
ram:0001d62e    002b            cmp         r3,#0x0                                 
ram:0001d630    62d0            beq         LAB_0001d6f8                            
ram:0001d632    1a68            ldr         r2,[r3,#0x0]                            
ram:0001d634    06ad            add         r5,sp,#0x18                             
ram:0001d636    2a70            strb        r2,[r5,#0x0]=>local_60                  
ram:0001d638    1a68            ldr         r2,[r3,#0x0]                            
ram:0001d63a    0dac            add         r4,sp,#0x34                             
ram:0001d63c    120a            lsrs        r2,r2,#0x8                              
ram:0001d63e    6a70            strb        r2,[r5,#local_5f+0x60]                  
ram:0001d640    5a88            ldrh        r2,[r3,#0x2]                            
ram:0001d642    0021            movs        r1,#0x0                                 
ram:0001d644    aa70            strb        r2,[r5,#local_5e+0x60]                  
ram:0001d646    da78            ldrb        r2,[r3,#0x3]                            
ram:0001d648    2000            movs        param_1,r4                              
ram:0001d64a    ea70            strb        r2,[r5,#local_5d+0x60]                  
ram:0001d64c    5a68            ldr         r2,[r3,#0x4]                            
ram:0001d64e    2a71            strb        r2,[r5,#local_5c+0x60]                  
ram:0001d650    9b68            ldr         r3,[r3,#0x8]                            
ram:0001d652    1a0a            lsrs        r2,r3,#0x8                              
ram:0001d654    6b71            strb        r3,[r5,#local_5b+0x60]                  
ram:0001d656    aa71            strb        r2,[r5,#local_5a+0x60]                  
ram:0001d658    1b0c            lsrs        r3,r3,#0x10                             
ram:0001d65a    1c22            movs        r2,#0x1c                                
ram:0001d65c    eb71            strb        r3,[r5,#local_59+0x60]                  
ram:0001d65e    01f00eff        bl          FUN_0001f47e                            ;undefined FUN_0001f47e(undefined * p...
ram:0001d662    0222            movs        r2,#0x2                                 
ram:0001d664    9346            mov         r11,r2                                  
ram:0001d666    5a46            mov         r2,r11                                  
ram:0001d668    2378            ldrb        r3,[r4,#0x0]=>local_44                  
ram:0001d66a    0021            movs        r1,#0x0                                 
ram:0001d66c    1343            orrs        r3,r2                                   
ram:0001d66e    2370            strb        r3,[r4,#0x0]=>local_44                  
ram:0001d670    0023            movs        r3,#0x0                                 
ram:0001d672    6360            str         r3,[r4,#local_40+0x44]                  
ram:0001d674    e360            str         r3,[r4,#local_38+0x44]                  
ram:0001d676    2361            str         r3,[r4,#local_34+0x44]                  
ram:0001d678    6361            str         r3,[r4,#local_30+0x44]                  
ram:0001d67a    a361            str         r3,[r4,#local_2c+0x44]                  
ram:0001d67c    0133            adds        r3,#0x1                                 
ram:0001d67e    9946            mov         r9,r3                                   
ram:0001d680    6b46            mov         r3,sp                                   
ram:0001d682    4a46            mov         r2,r9                                   
ram:0001d684    9a75            strb        r2,[r3,#local_62+0x78]                  
ram:0001d686    6a46            mov         r2,sp                                   
ram:0001d688    7a4b            ldr         r3,[DAT_0001d874]                       ;= 00002A23h
ram:0001d68a    03a8            add         param_1,sp,#0xc                         
ram:0001d68c    9382            strh        r3,[r2,#local_64+0x78]                  
ram:0001d68e    0322            movs        r2,#0x3                                 
ram:0001d690    01f0f5fe        bl          FUN_0001f47e                            ;undefined FUN_0001f47e(undefined * p...
ram:0001d694    3c23            movs        r3,#0x3c                                
ram:0001d696    6a46            mov         r2,sp                                   
ram:0001d698    f35c            ldrb        r3,[r6,r3]                              
ram:0001d69a    0021            movs        r1,#0x0                                 
ram:0001d69c    1373            strb        r3,[r2,#local_6c+0x78]                  
ram:0001d69e    3300            movs        r3,r6                                   
ram:0001d6a0    3c33            adds        r3,#0x3c                                
ram:0001d6a2    5b78            ldrb        r3,[r3,#0x1]                            
ram:0001d6a4    5373            strb        r3,[r2,#local_6b+0x78]                  
ram:0001d6a6    937b            ldrb        r3,[r2,#local_6a+0x78]                  
ram:0001d6a8    0622            movs        r2,#0x6                                 
ram:0001d6aa    9343            bics        r3,r2                                   
ram:0001d6ac    5a46            mov         r2,r11                                  
ram:0001d6ae    1343            orrs        r3,r2                                   
ram:0001d6b0    0822            movs        r2,#0x8                                 
ram:0001d6b2    9046            mov         r8,r2                                   
ram:0001d6b4    9343            bics        r3,r2                                   
ram:0001d6b6    0832            adds        r2,#0x8                                 
ram:0001d6b8    9343            bics        r3,r2                                   
ram:0001d6ba    4a46            mov         r2,r9                                   
ram:0001d6bc    9343            bics        r3,r2                                   
ram:0001d6be    6a46            mov         r2,sp                                   
ram:0001d6c0    9373            strb        r3,[r2,#local_6a+0x78]                  
ram:0001d6c2    08ab            add         r3,sp,#0x20                             
ram:0001d6c4    9b46            mov         r11,r3                                  
ram:0001d6c6    1422            movs        r2,#0x14                                
ram:0001d6c8    1800            movs        param_1,r3                              
ram:0001d6ca    01f0d8fe        bl          FUN_0001f47e                            ;undefined FUN_0001f47e(undefined * p...
ram:0001d6ce    05ab            add         r3,sp,#0x14                             
ram:0001d6d0    0893            str         r3,[sp,#local_58+0x78]                  
ram:0001d6d2    5b46            mov         r3,r11                                  
ram:0001d6d4    03aa            add         r2,sp,#0xc                              
ram:0001d6d6    5a60            str         r2,[r3,#local_54+0x58]                  
ram:0001d6d8    4346            mov         r3,r8                                   
ram:0001d6da    4246            mov         r2,r8                                   
ram:0001d6dc    0a93            str         r3,[sp,#local_50+0x78]                  
ram:0001d6de    5b46            mov         r3,r11                                  
ram:0001d6e0    9a81            strh        r2,[r3,#local_4c+0x58]                  
ram:0001d6e2    1d61            str         r5,[r3,#local_48+0x58]                  
ram:0001d6e4    5346            mov         r3,r10                                  
ram:0001d6e6    5a46            mov         r2,r11                                  
ram:0001d6e8    1888            ldrh        param_1,[r3,#0x0]=>DAT_20002878         
ram:0001d6ea    2100            movs        r1,r4                                   
ram:0001d6ec    624b            ldr         r3,[DAT_0001d878]                       ;= 20002884h
ram:0001d6ee    fff709ff        bl          FUN_0001d504                            ;undefined FUN_0001d504(void)
ram:0001d6f2    0028            cmp         param_1,#0x0                            
ram:0001d6f4    00d0            beq         LAB_0001d6f8                            
ram:0001d6f6    79e0            b           LAB_0001d7ec                            
                            LAB_0001d6f8:                 ;XREF[2,0]:   0001d630,0001d6f4
ram:0001d6f8    736b            ldr         r3,[r6,#0x34]                           
ram:0001d6fa    002b            cmp         r3,#0x0                                 
ram:0001d6fc    0ad0            beq         LAB_0001d714                            
ram:0001d6fe    1a79            ldrb        r2,[r3,#0x4]                            
ram:0001d700    1968            ldr         r1,[r3,#0x0]                            
ram:0001d702    5e4b            ldr         r3,[DAT_0001d87c]                       ;= 20002868h
ram:0001d704    5e48            ldr         param_1,[DAT_0001d880]                  ;= 00002A2Ah
ram:0001d706    0093            str         r3,[sp,#0x0]=>local_78                  
ram:0001d708    3300            movs        r3,r6                                   
ram:0001d70a    3c33            adds        r3,#0x3c                                
ram:0001d70c    fff7fcfe        bl          FUN_0001d508                            ;undefined FUN_0001d508(undefined2 pa...
ram:0001d710    0028            cmp         param_1,#0x0                            
ram:0001d712    6bd1            bne         LAB_0001d7ec                            
                            LAB_0001d714:                 ;XREF[1,0]:   0001d6fc
ram:0001d714    b36b            ldr         r3,[r6,#0x38]                           
ram:0001d716    002b            cmp         r3,#0x0                                 
ram:0001d718    55d0            beq         LAB_0001d7c6                            
ram:0001d71a    1a78            ldrb        r2,[r3,#0x0]                            
ram:0001d71c    06ad            add         r5,sp,#0x18                             
ram:0001d71e    2a70            strb        r2,[r5,#0x0]=>local_60                  
ram:0001d720    5a88            ldrh        r2,[r3,#0x2]                            
ram:0001d722    0dac            add         r4,sp,#0x34                             
ram:0001d724    6a70            strb        r2,[r5,#local_5f+0x60]                  
ram:0001d726    120a            lsrs        r2,r2,#0x8                              
ram:0001d728    aa70            strb        r2,[r5,#local_5e+0x60]                  
ram:0001d72a    9a88            ldrh        r2,[r3,#0x4]                            
ram:0001d72c    0021            movs        r1,#0x0                                 
ram:0001d72e    ea70            strb        r2,[r5,#local_5d+0x60]                  
ram:0001d730    120a            lsrs        r2,r2,#0x8                              
ram:0001d732    2a71            strb        r2,[r5,#local_5c+0x60]                  
ram:0001d734    db88            ldrh        r3,[r3,#0x6]                            
ram:0001d736    1c22            movs        r2,#0x1c                                
ram:0001d738    6b71            strb        r3,[r5,#local_5b+0x60]                  
ram:0001d73a    2000            movs        param_1,r4                              
ram:0001d73c    1b0a            lsrs        r3,r3,#0x8                              
ram:0001d73e    ab71            strb        r3,[r5,#local_5a+0x60]                  
ram:0001d740    01f09dfe        bl          FUN_0001f47e                            ;undefined FUN_0001f47e(undefined * p...
ram:0001d744    0222            movs        r2,#0x2                                 
ram:0001d746    9346            mov         r11,r2                                  
ram:0001d748    5a46            mov         r2,r11                                  
ram:0001d74a    2378            ldrb        r3,[r4,#0x0]=>local_44                  
ram:0001d74c    05af            add         r7,sp,#0x14                             
ram:0001d74e    1343            orrs        r3,r2                                   
ram:0001d750    2370            strb        r3,[r4,#0x0]=>local_44                  
ram:0001d752    0023            movs        r3,#0x0                                 
ram:0001d754    6360            str         r3,[r4,#local_40+0x44]                  
ram:0001d756    e360            str         r3,[r4,#local_38+0x44]                  
ram:0001d758    2361            str         r3,[r4,#local_34+0x44]                  
ram:0001d75a    6361            str         r3,[r4,#local_30+0x44]                  
ram:0001d75c    a361            str         r3,[r4,#local_2c+0x44]                  
ram:0001d75e    0133            adds        r3,#0x1                                 
ram:0001d760    bb70            strb        r3,[r7,#local_62+0x64]                  
ram:0001d762    9946            mov         r9,r3                                   
ram:0001d764    474b            ldr         r3,[DAT_0001d884]                       ;= 00002A50h
ram:0001d766    0322            movs        r2,#0x3                                 
ram:0001d768    0021            movs        r1,#0x0                                 
ram:0001d76a    03a8            add         param_1,sp,#0xc                         
ram:0001d76c    3b80            strh        r3,[r7,#0x0]=>local_64                  
ram:0001d76e    01f086fe        bl          FUN_0001f47e                            ;undefined FUN_0001f47e(undefined * p...
ram:0001d772    3c23            movs        r3,#0x3c                                
ram:0001d774    6a46            mov         r2,sp                                   
ram:0001d776    f35c            ldrb        r3,[r6,r3]                              
ram:0001d778    0021            movs        r1,#0x0                                 
ram:0001d77a    1373            strb        r3,[r2,#local_6c+0x78]                  
ram:0001d77c    3300            movs        r3,r6                                   
ram:0001d77e    3c33            adds        r3,#0x3c                                
ram:0001d780    5b78            ldrb        r3,[r3,#0x1]                            
ram:0001d782    5373            strb        r3,[r2,#local_6b+0x78]                  
ram:0001d784    937b            ldrb        r3,[r2,#local_6a+0x78]                  
ram:0001d786    0622            movs        r2,#0x6                                 
ram:0001d788    9343            bics        r3,r2                                   
ram:0001d78a    5a46            mov         r2,r11                                  
ram:0001d78c    1343            orrs        r3,r2                                   
ram:0001d78e    e722            movs        r2,#0xe7                                
ram:0001d790    1340            ands        r3,r2                                   
ram:0001d792    4a46            mov         r2,r9                                   
ram:0001d794    9343            bics        r3,r2                                   
ram:0001d796    6a46            mov         r2,sp                                   
ram:0001d798    9373            strb        r3,[r2,#local_6a+0x78]                  
ram:0001d79a    08ab            add         r3,sp,#0x20                             
ram:0001d79c    9846            mov         r8,r3                                   
ram:0001d79e    1422            movs        r2,#0x14                                
ram:0001d7a0    1800            movs        param_1,r3                              
ram:0001d7a2    01f06cfe        bl          FUN_0001f47e                            ;undefined FUN_0001f47e(undefined * p...
ram:0001d7a6    4346            mov         r3,r8                                   
ram:0001d7a8    03aa            add         r2,sp,#0xc                              
ram:0001d7aa    5a60            str         r2,[r3,#local_54+0x58]                  
ram:0001d7ac    0723            movs        r3,#0x7                                 
ram:0001d7ae    4246            mov         r2,r8                                   
ram:0001d7b0    0a93            str         r3,[sp,#local_50+0x78]                  
ram:0001d7b2    9381            strh        r3,[r2,#local_4c+0x58]                  
ram:0001d7b4    5346            mov         r3,r10                                  
ram:0001d7b6    2100            movs        r1,r4                                   
ram:0001d7b8    1888            ldrh        param_1,[r3,#0x0]=>DAT_20002878         
ram:0001d7ba    334b            ldr         r3,[DAT_0001d888]                       ;= 20002860h
ram:0001d7bc    0897            str         r7,[sp,#local_58+0x78]                  
ram:0001d7be    1561            str         r5,[r2,#local_48+0x58]                  
ram:0001d7c0    fff7a0fe        bl          FUN_0001d504                            ;undefined FUN_0001d504(void)
ram:0001d7c4    0700            movs        r7,param_1                              
                            LAB_0001d7c6:                 ;XREF[4,0]:   0001d5fa,0001d718,0001d7ee,0001d868
ram:0001d7c6    3800            movs        param_1,r7                              
ram:0001d7c8    15b0            add         sp,#0x54                                
ram:0001d7ca    3cbc            pop         {r2,r3,r4,r5}                           
ram:0001d7cc    9046            mov         r8,r2                                   
ram:0001d7ce    9946            mov         r9,r3                                   
ram:0001d7d0    a246            mov         r10,r4                                  
ram:0001d7d2    ab46            mov         r11,r5                                  
ram:0001d7d4    f0bd            pop         {r4,r5,r6,r7,pc}                        
                            LAB_0001d7d6:                 ;XREF[1,0]:   0001d602
ram:0001d7d6    2d4b            ldr         r3,[DAT_0001d88c]                       ;= 20002850h
ram:0001d7d8    7168            ldr         r1,[r6,#0x4]                            
ram:0001d7da    0093            str         r3,[sp,#0x0]=>local_78                  
ram:0001d7dc    3300            movs        r3,r6                                   
ram:0001d7de    2c48            ldr         param_1,[DAT_0001d890]                  ;= 00002A29h
ram:0001d7e0    3c33            adds        r3,#0x3c                                
ram:0001d7e2    fff791fe        bl          FUN_0001d508                            ;undefined FUN_0001d508(undefined2 pa...
ram:0001d7e6    0028            cmp         param_1,#0x0                            
ram:0001d7e8    00d1            bne         LAB_0001d7ec                            
ram:0001d7ea    0be7            b           LAB_0001d604                            
                            LAB_0001d7ec:                 ;XREF[7,0]:   0001d6f6,0001d712,0001d7e8,0001d806
                                                          ;             0001d81e,0001d836,0001d84e
ram:0001d7ec    0700            movs        r7,param_1                              
ram:0001d7ee    eae7            b           LAB_0001d7c6                            
                            LAB_0001d7f0:                 ;XREF[1,0]:   0001d622
ram:0001d7f0    284b            ldr         r3,[DAT_0001d894]                       ;= 20002840h
ram:0001d7f2    716a            ldr         r1,[r6,#0x24]                           
ram:0001d7f4    0093            str         r3,[sp,#0x0]=>local_78                  
ram:0001d7f6    3300            movs        r3,r6                                   
ram:0001d7f8    2748            ldr         param_1,[DAT_0001d898]                  ;= 00002A26h
ram:0001d7fa    3c33            adds        r3,#0x3c                                
ram:0001d7fc    fff784fe        bl          FUN_0001d508                            ;undefined FUN_0001d508(undefined2 pa...
ram:0001d800    0028            cmp         param_1,#0x0                            
ram:0001d802    00d1            bne         LAB_0001d806                            
ram:0001d804    0ee7            b           LAB_0001d624                            
                            LAB_0001d806:                 ;XREF[1,0]:   0001d802
ram:0001d806    f1e7            b           LAB_0001d7ec                            
                            LAB_0001d808:                 ;XREF[1,0]:   0001d62a
ram:0001d808    244b            ldr         r3,[DAT_0001d89c]                       ;= 2000287Ch
ram:0001d80a    f16a            ldr         r1,[r6,#0x2c]                           
ram:0001d80c    0093            str         r3,[sp,#0x0]=>local_78                  
ram:0001d80e    3300            movs        r3,r6                                   
ram:0001d810    2348            ldr         param_1,[DAT_0001d8a0]                  ;= 00002A28h
ram:0001d812    3c33            adds        r3,#0x3c                                
ram:0001d814    fff778fe        bl          FUN_0001d508                            ;undefined FUN_0001d508(undefined2 pa...
ram:0001d818    0028            cmp         param_1,#0x0                            
ram:0001d81a    00d1            bne         LAB_0001d81e                            
ram:0001d81c    06e7            b           LAB_0001d62c                            
                            LAB_0001d81e:                 ;XREF[1,0]:   0001d81a
ram:0001d81e    e5e7            b           LAB_0001d7ec                            
                            LAB_0001d820:                 ;XREF[1,0]:   0001d60a
ram:0001d820    204b            ldr         r3,[DAT_0001d8a4]                       ;= 20002858h
ram:0001d822    f168            ldr         r1,[r6,#0xc]                            
ram:0001d824    0093            str         r3,[sp,#0x0]=>local_78                  
ram:0001d826    3300            movs        r3,r6                                   
ram:0001d828    1f48            ldr         param_1,[DAT_0001d8a8]                  ;= 00002A24h
ram:0001d82a    3c33            adds        r3,#0x3c                                
ram:0001d82c    fff76cfe        bl          FUN_0001d508                            ;undefined FUN_0001d508(undefined2 pa...
ram:0001d830    0028            cmp         param_1,#0x0                            
ram:0001d832    00d1            bne         LAB_0001d836                            
ram:0001d834    eae6            b           LAB_0001d60c                            
                            LAB_0001d836:                 ;XREF[1,0]:   0001d832
ram:0001d836    d9e7            b           LAB_0001d7ec                            
                            LAB_0001d838:                 ;XREF[1,0]:   0001d612
ram:0001d838    1c4b            ldr         r3,[DAT_0001d8ac]                       ;= 20002870h
ram:0001d83a    7169            ldr         r1,[r6,#0x14]                           
ram:0001d83c    0093            str         r3,[sp,#0x0]=>local_78                  
ram:0001d83e    3300            movs        r3,r6                                   
ram:0001d840    1b48            ldr         param_1,[DAT_0001d8b0]                  ;= 00002A25h
ram:0001d842    3c33            adds        r3,#0x3c                                
ram:0001d844    fff760fe        bl          FUN_0001d508                            ;undefined FUN_0001d508(undefined2 pa...
ram:0001d848    0028            cmp         param_1,#0x0                            
ram:0001d84a    00d1            bne         LAB_0001d84e                            
ram:0001d84c    e2e6            b           LAB_0001d614                            
                            LAB_0001d84e:                 ;XREF[1,0]:   0001d84a
ram:0001d84e    cde7            b           LAB_0001d7ec                            
                            LAB_0001d850:                 ;XREF[1,0]:   0001d61a
ram:0001d850    184b            ldr         r3,[DAT_0001d8b4]                       ;= 20002848h
ram:0001d852    f169            ldr         r1,[r6,#0x1c]                           
ram:0001d854    0093            str         r3,[sp,#0x0]=>local_78                  
ram:0001d856    3300            movs        r3,r6                                   
ram:0001d858    1748            ldr         param_1,[DAT_0001d8b8]                  ;= 00002A27h
ram:0001d85a    3c33            adds        r3,#0x3c                                
ram:0001d85c    fff754fe        bl          FUN_0001d508                            ;undefined FUN_0001d508(undefined2 pa...
ram:0001d860    0028            cmp         param_1,#0x0                            
ram:0001d862    00d1            bne         LAB_0001d866                            
ram:0001d864    dae6            b           LAB_0001d61c                            
                            LAB_0001d866:                 ;XREF[1,0]:   0001d862
ram:0001d866    0700            movs        r7,param_1                              
ram:0001d868    ade7            b           LAB_0001d7c6                            
ram:0001d86a    c046            mov         r8,r8                                   
                            DAT_0001d86c:                 ;XREF[1,0]:   0001d5e4
ram:0001d86c    0a180000        undefined4  0000180Ah                               
                            DAT_0001d870:                 ;XREF[1,0]:   0001d5ea
ram:0001d870    78280020        undefined4  20002878h                               
                            DAT_0001d874:                 ;XREF[1,0]:   0001d688
ram:0001d874    232a0000        undefined4  00002A23h                               
                            DAT_0001d878:                 ;XREF[1,0]:   0001d6ec
ram:0001d878    84280020        undefined4  20002884h                               
                            DAT_0001d87c:                 ;XREF[1,0]:   0001d702
ram:0001d87c    68280020        undefined4  20002868h                               
                            DAT_0001d880:                 ;XREF[1,0]:   0001d704
ram:0001d880    2a2a0000        undefined4  00002A2Ah                               
                            DAT_0001d884:                 ;XREF[1,0]:   0001d764
ram:0001d884    502a0000        undefined4  00002A50h                               
                            DAT_0001d888:                 ;XREF[1,0]:   0001d7ba
ram:0001d888    60280020        undefined4  20002860h                               
                            DAT_0001d88c:                 ;XREF[1,0]:   0001d7d6
ram:0001d88c    50280020        undefined4  20002850h                               
                            DAT_0001d890:                 ;XREF[1,0]:   0001d7de
ram:0001d890    292a0000        undefined4  00002A29h                               
                            DAT_0001d894:                 ;XREF[1,0]:   0001d7f0
ram:0001d894    40280020        undefined4  20002840h                               
                            DAT_0001d898:                 ;XREF[1,0]:   0001d7f8
ram:0001d898    262a0000        undefined4  00002A26h                               
                            DAT_0001d89c:                 ;XREF[1,0]:   0001d808
ram:0001d89c    7c280020        undefined4  2000287Ch                               
                            DAT_0001d8a0:                 ;XREF[1,0]:   0001d810
ram:0001d8a0    282a0000        undefined4  00002A28h                               
                            DAT_0001d8a4:                 ;XREF[1,0]:   0001d820
ram:0001d8a4    58280020        undefined4  20002858h                               
                            DAT_0001d8a8:                 ;XREF[1,0]:   0001d828
ram:0001d8a8    242a0000        undefined4  00002A24h                               
                            DAT_0001d8ac:                 ;XREF[1,0]:   0001d838
ram:0001d8ac    70280020        undefined4  20002870h                               
                            DAT_0001d8b0:                 ;XREF[1,0]:   0001d840
ram:0001d8b0    252a0000        undefined4  00002A25h                               
                            DAT_0001d8b4:                 ;XREF[1,0]:   0001d850
ram:0001d8b4    48280020        undefined4  20002848h                               
                            DAT_0001d8b8:                 ;XREF[1,0]:   0001d858
ram:0001d8b8    272a0000        undefined4  00002A27h                               
                            ;************************************************************************************************
                            ;*                                           FUNCTION                                           *
                            ;************************************************************************************************
                            ;undefined FUNC_IRQ_0001d8bc(void)
                                                          ;XREF[0,1]:   0001b040
ram:0001d8bc    10b5            push        {r4,lr}                                 
ram:0001d8be    1a4b            ldr         r3,[DAT_0001d928]                       ;= 40000100h
ram:0001d8c0    1a68            ldr         r2,[r3,#0x0]=>DAT_40000100              
ram:0001d8c2    002a            cmp         r2,#0x0                                 
ram:0001d8c4    14d0            beq         LAB_0001d8f0                            
ram:0001d8c6    0022            movs        r2,#0x0                                 
ram:0001d8c8    8021            movs        r1,#0x80                                
ram:0001d8ca    1a60            str         r2,[r3,#0x0]=>DAT_40000100              
ram:0001d8cc    c222            movs        r2,#0xc2                                
ram:0001d8ce    0123            movs        r3,#0x1                                 
ram:0001d8d0    164c            ldr         r4,[DAT_0001d92c]                       ;= 2000288Ch
ram:0001d8d2    c905            lsls        r1,r1,#0x17                             
ram:0001d8d4    9200            lsls        r2,r2,#0x2                              
ram:0001d8d6    8b50            str         r3,[r1,r2]=>DAT_40000308                
ram:0001d8d8    6370            strb        r3,[r4,#0x1]=>DAT_2000288d              
ram:0001d8da    a368            ldr         r3,[r4,#0x8]=>DAT_20002894              
ram:0001d8dc    002b            cmp         r3,#0x0                                 
ram:0001d8de    07d0            beq         LAB_0001d8f0                            
                            LAB_0001d8e0:                 ;XREF[1,0]:   0001d8ee
ram:0001d8e0    1a68            ldr         r2,[r3,#0x0]                            
ram:0001d8e2    0020            movs        r0,#0x0                                 
ram:0001d8e4    5b68            ldr         r3,[r3,#0x4]                            
ram:0001d8e6    a260            str         r2,[r4,#0x8]=>DAT_20002894              
ram:0001d8e8    9847            blx         r3                                      
ram:0001d8ea    a368            ldr         r3,[r4,#0x8]=>DAT_20002894              
ram:0001d8ec    002b            cmp         r3,#0x0                                 
ram:0001d8ee    f7d1            bne         LAB_0001d8e0                            
                            LAB_0001d8f0:                 ;XREF[2,0]:   0001d8c4,0001d8de
ram:0001d8f0    0f4b            ldr         r3,[DAT_0001d930]                       ;= 40000104h
ram:0001d8f2    1a68            ldr         r2,[r3,#0x0]=>DAT_40000104              
ram:0001d8f4    002a            cmp         r2,#0x0                                 
ram:0001d8f6    15d0            beq         LAB_0001d924                            
ram:0001d8f8    0022            movs        r2,#0x0                                 
ram:0001d8fa    1a60            str         r2,[r3,#0x0]=>DAT_40000104              
ram:0001d8fc    8022            movs        r2,#0x80                                
ram:0001d8fe    c223            movs        r3,#0xc2                                
ram:0001d900    0221            movs        r1,#0x2                                 
ram:0001d902    9b00            lsls        r3,r3,#0x2                              
ram:0001d904    d205            lsls        r2,r2,#0x17                             
ram:0001d906    d150            str         r1,[r2,r3]=>DAT_40000308                
ram:0001d908    0123            movs        r3,#0x1                                 
ram:0001d90a    084c            ldr         r4,[DAT_0001d92c]                       ;= 2000288Ch
ram:0001d90c    a370            strb        r3,[r4,#0x2]=>DAT_2000288e              
ram:0001d90e    2369            ldr         r3,[r4,#0x10]=>DAT_2000289c             
ram:0001d910    002b            cmp         r3,#0x0                                 
ram:0001d912    07d0            beq         LAB_0001d924                            
                            LAB_0001d914:                 ;XREF[1,0]:   0001d922
ram:0001d914    1a68            ldr         r2,[r3,#0x0]                            
ram:0001d916    0120            movs        r0,#0x1                                 
ram:0001d918    5b68            ldr         r3,[r3,#0x4]                            
ram:0001d91a    2261            str         r2,[r4,#0x10]=>DAT_2000289c             
ram:0001d91c    9847            blx         r3                                      
ram:0001d91e    2369            ldr         r3,[r4,#0x10]=>DAT_2000289c             
ram:0001d920    002b            cmp         r3,#0x0                                 
ram:0001d922    f7d1            bne         LAB_0001d914                            
                            LAB_0001d924:                 ;XREF[2,0]:   0001d8f6,0001d912
ram:0001d924    10bd            pop         {r4,pc}                                 
ram:0001d926    c046            mov         r8,r8                                   
                            DAT_0001d928:                 ;XREF[1,0]:   0001d8be
ram:0001d928    00010040        undefined4  40000100h                               
                            DAT_0001d92c:                 ;XREF[2,0]:   0001d8d0,0001d90a
ram:0001d92c    8c280020        undefined4  2000288Ch                               
                            DAT_0001d930:                 ;XREF[1,0]:   0001d8f0
ram:0001d930    04010040        undefined4  40000104h                               
                            ;************************************************************************************************
                            ;*                                           FUNCTION                                           *
                            ;************************************************************************************************
                            ;undefined FUN_0001d934(int param_1)
          ;param_1       int                 r0                      
                                                          ;XREF[1,0]:   0001f270
ram:0001d934    10b5            push        {r4,lr}                                 
ram:0001d936    0028            cmp         param_1,#0x0                            
ram:0001d938    0bd1            bne         LAB_0001d952                            
ram:0001d93a    064c            ldr         r4,[DAT_0001d954]                       ;= 2000288Ch
ram:0001d93c    a368            ldr         r3,[r4,#0x8]=>DAT_20002894              
ram:0001d93e    002b            cmp         r3,#0x0                                 
ram:0001d940    07d0            beq         LAB_0001d952                            
                            LAB_0001d942:                 ;XREF[1,0]:   0001d950
ram:0001d942    1a68            ldr         r2,[r3,#0x0]                            
ram:0001d944    0020            movs        param_1,#0x0                            
ram:0001d946    5b68            ldr         r3,[r3,#0x4]                            
ram:0001d948    a260            str         r2,[r4,#0x8]=>DAT_20002894              
ram:0001d94a    9847            blx         r3                                      
ram:0001d94c    a368            ldr         r3,[r4,#0x8]=>DAT_20002894              
ram:0001d94e    002b            cmp         r3,#0x0                                 
ram:0001d950    f7d1            bne         LAB_0001d942                            
                            LAB_0001d952:                 ;XREF[2,0]:   0001d938,0001d940
ram:0001d952    10bd            pop         {r4,pc}                                 
                            DAT_0001d954:                 ;XREF[1,0]:   0001d93a
ram:0001d954    8c280020        undefined4  2000288Ch                               
                            ;************************************************************************************************
                            ;*                                           FUNCTION                                           *
                            ;************************************************************************************************
                            ;undefined FUN_0001d958(void)
          ;local_11      undefined1         -11                      ;XREF[2,0]:   0001d964,0001d974
                                                          ;XREF[1,0]:   0001f30a
ram:0001d958    30b5            push        {r4,r5,lr}                              
ram:0001d95a    83b0            sub         sp,#0xc                                 
ram:0001d95c    6b46            mov         r3,sp                                   
ram:0001d95e    dd1d            adds        r5,r3,#0x7                              
ram:0001d960    0023            movs        r3,#0x0                                 
ram:0001d962    2800            movs        r0,r5                                   
ram:0001d964    2b70            strb        r3,[r5,#0x0]=>local_11                  
ram:0001d966    01f067f9        bl          FUN_0001ec38                            ;undefined FUN_0001ec38(undefined * p...
ram:0001d96a    144c            ldr         r4,[DAT_0001d9bc]                       ;= 2000288Ch
ram:0001d96c    2378            ldrb        r3,[r4,#0x0]=>DAT_2000288c              
ram:0001d96e    002b            cmp         r3,#0x0                                 
ram:0001d970    09d0            beq         LAB_0001d986                            
                            LAB_0001d972:                 ;XREF[1,0]:   0001d9ae
ram:0001d972    e368            ldr         r3,[r4,#0xc]=>DAT_20002898              
ram:0001d974    2878            ldrb        r0,[r5,#0x0]=>local_11                  
ram:0001d976    0133            adds        r3,#0x1                                 
ram:0001d978    e360            str         r3,[r4,#0xc]=>DAT_20002898              
ram:0001d97a    0123            movs        r3,#0x1                                 
ram:0001d97c    a370            strb        r3,[r4,#0x2]=>DAT_2000288e              
ram:0001d97e    01f07bf9        bl          FUN_0001ec78                            ;undefined FUN_0001ec78(int param_1)
ram:0001d982    03b0            add         sp,#0xc                                 
ram:0001d984    30bd            pop         {r4,r5,pc}                              
                            LAB_0001d986:                 ;XREF[1,0]:   0001d970
ram:0001d986    6360            str         r3,[r4,#0x4]=>DAT_20002890              
ram:0001d988    a360            str         r3,[r4,#0x8]=>DAT_20002894              
ram:0001d98a    2361            str         r3,[r4,#0x10]=>DAT_2000289c             
ram:0001d98c    e360            str         r3,[r4,#0xc]=>DAT_20002898              
ram:0001d98e    0c4b            ldr         r3,[DAT_0001d9c0]                       ;= E000E100h
ram:0001d990    1b68            ldr         r3,[r3,#0x0]=>DAT_e000e100              
ram:0001d992    db07            lsls        r3,r3,#0x1f                             
ram:0001d994    0cd5            bpl         LAB_0001d9b0                            
                            LAB_0001d996:                 ;XREF[1,0]:   0001d9b8
ram:0001d996    01f091fc        bl          FUN_0001f2bc                            ;undefined FUN_0001f2bc(void)
ram:0001d99a    0028            cmp         r0,#0x0                                 
ram:0001d99c    05d1            bne         LAB_0001d9aa                            
ram:0001d99e    8022            movs        r2,#0x80                                
ram:0001d9a0    a323            movs        r3,#0xa3                                
ram:0001d9a2    0121            movs        r1,#0x1                                 
ram:0001d9a4    d205            lsls        r2,r2,#0x17                             
ram:0001d9a6    db00            lsls        r3,r3,#0x3                              
ram:0001d9a8    d150            str         r1,[r2,r3]=>DAT_40000518                
                            LAB_0001d9aa:                 ;XREF[1,0]:   0001d99c
ram:0001d9aa    0123            movs        r3,#0x1                                 
ram:0001d9ac    2370            strb        r3,[r4,#0x0]=>DAT_2000288c              
ram:0001d9ae    e0e7            b           LAB_0001d972                            
                            LAB_0001d9b0:                 ;XREF[1,0]:   0001d994
ram:0001d9b0    0321            movs        r1,#0x3                                 
ram:0001d9b2    0020            movs        r0,#0x0                                 
ram:0001d9b4    00f006f8        bl          FUN_0001d9c4                            ;undefined FUN_0001d9c4(uint param_1,...
ram:0001d9b8    ede7            b           LAB_0001d996                            
ram:0001d9ba    c046            mov         r8,r8                                   
                            DAT_0001d9bc:                 ;XREF[1,0]:   0001d96a
ram:0001d9bc    8c280020        undefined4  2000288Ch                               
                            DAT_0001d9c0:                 ;XREF[1,0]:   0001d98e
ram:0001d9c0    00e100e0        undefined4  E000E100h                               
                            ;************************************************************************************************
                            ;*                                           FUNCTION                                           *
                            ;************************************************************************************************
                            ;undefined FUN_0001d9c4(uint param_1, uint param_2)
          ;param_1       uint                r0                      
          ;param_2       uint                r1                      
                                                          ;XREF[2,0]:   0001d9b4,0001da6c
ram:0001d9c4    ff22            movs        r2,#0xff                                
ram:0001d9c6    0323            movs        r3,#0x3                                 
ram:0001d9c8    30b5            push        {r4,r5,lr}                              
ram:0001d9ca    1400            movs        r4,r2                                   
ram:0001d9cc    c5b2            uxtb        r5,param_1                              
ram:0001d9ce    2b40            ands        r3,r5                                   
ram:0001d9d0    db00            lsls        r3,r3,#0x3                              
ram:0001d9d2    9c40            lsls        r4,r3                                   
ram:0001d9d4    8901            lsls        param_2,param_2,#0x6                    
ram:0001d9d6    0a40            ands        r2,param_2                              
ram:0001d9d8    e443            mvns        r4,r4                                   
ram:0001d9da    9a40            lsls        r2,r3                                   
ram:0001d9dc    0028            cmp         param_1,#0x0                            
ram:0001d9de    14db            blt         LAB_0001da0a                            
ram:0001d9e0    104b            ldr         r3,[DAT_0001da24]                       ;= E000E100h
ram:0001d9e2    8008            lsrs        param_1,param_1,#0x2                    
ram:0001d9e4    9c46            mov         r12,r3                                  
ram:0001d9e6    c023            movs        r3,#0xc0                                
ram:0001d9e8    8000            lsls        param_1,param_1,#0x2                    
ram:0001d9ea    6044            add         param_1,r12                             
ram:0001d9ec    9b00            lsls        r3,r3,#0x2                              
ram:0001d9ee    c158            ldr         param_2,[param_1,r3]                    
ram:0001d9f0    0c40            ands        r4,param_2                              
ram:0001d9f2    2243            orrs        r2,r4                                   
ram:0001d9f4    c250            str         r2,[param_1,r3]                         
                            LAB_0001d9f6:                 ;XREF[1,0]:   0001da22
ram:0001d9f6    1f23            movs        r3,#0x1f                                
ram:0001d9f8    c021            movs        param_2,#0xc0                           
ram:0001d9fa    1d40            ands        r5,r3                                   
ram:0001d9fc    1e3b            subs        r3,#0x1e                                
ram:0001d9fe    ab40            lsls        r3,r5                                   
ram:0001da00    084a            ldr         r2,[DAT_0001da24]                       ;= E000E100h
ram:0001da02    4900            lsls        param_2,param_2,#0x1                    
ram:0001da04    5350            str         r3,[r2,param_2]=>DAT_e000e280           
ram:0001da06    1360            str         r3,[r2,#0x0]=>DAT_e000e100              
ram:0001da08    30bd            pop         {r4,r5,pc}                              
                            LAB_0001da0a:                 ;XREF[1,0]:   0001d9de
ram:0001da0a    0f23            movs        r3,#0xf                                 
ram:0001da0c    0649            ldr         param_2,[DAT_0001da28]                  ;= E000ED00h
ram:0001da0e    2b40            ands        r3,r5                                   
ram:0001da10    8c46            mov         r12,param_2                             
ram:0001da12    083b            subs        r3,#0x8                                 
ram:0001da14    9b08            lsrs        r3,r3,#0x2                              
ram:0001da16    9b00            lsls        r3,r3,#0x2                              
ram:0001da18    6344            add         r3,r12                                  
ram:0001da1a    d969            ldr         param_2,[r3,#0x1c]                      
ram:0001da1c    0c40            ands        r4,param_2                              
ram:0001da1e    2243            orrs        r2,r4                                   
ram:0001da20    da61            str         r2,[r3,#0x1c]                           
ram:0001da22    e8e7            b           LAB_0001d9f6                            
                            DAT_0001da24:                 ;XREF[2,0]:   0001d9e0,0001da00
ram:0001da24    00e100e0        undefined4  E000E100h                               
                            DAT_0001da28:                 ;XREF[1,0]:   0001da0c
ram:0001da28    00ed00e0        undefined4  E000ED00h                               
                            ;************************************************************************************************
                            ;*                                           FUNCTION                                           *
                            ;************************************************************************************************
                            ;undefined4 FUN_0001da2c(void)
                                                          ;XREF[1,0]:   0001b1fe
ram:0001da2c    70b5            push        {r4,r5,r6,lr}                           
ram:0001da2e    5825            movs        r5,#0x58                                
ram:0001da30    164c            ldr         r4,[DAT_0001da8c]                       ;= 200028A0h
ram:0001da32    665d            ldrb        r6,[r4,r5]=>DAT_200028f8                
ram:0001da34    002e            cmp         r6,#0x0                                 
ram:0001da36    27d1            bne         LAB_0001da88                            
ram:0001da38    0123            movs        r3,#0x1                                 
ram:0001da3a    5b42            rsbs        r3,r3                                   
ram:0001da3c    2360            str         r3,[r4,#0x0]=>DAT_200028a0              
ram:0001da3e    6360            str         r3,[r4,#0x4]=>DAT_200028a4              
ram:0001da40    a360            str         r3,[r4,#0x8]=>DAT_200028a8              
ram:0001da42    e360            str         r3,[r4,#0xc]=>DAT_200028ac              
ram:0001da44    2361            str         r3,[r4,#0x10]=>DAT_200028b0             
ram:0001da46    6361            str         r3,[r4,#0x14]=>DAT_200028b4             
ram:0001da48    a361            str         r3,[r4,#0x18]=>DAT_200028b8             
ram:0001da4a    e361            str         r3,[r4,#0x1c]=>DAT_200028bc             
ram:0001da4c    2362            str         r3,[r4,#0x20]=>DAT_200028c0             
ram:0001da4e    6362            str         r3,[r4,#0x24]=>DAT_200028c4             
ram:0001da50    a362            str         r3,[r4,#0x28]=>DAT_200028c8             
ram:0001da52    e362            str         r3,[r4,#0x2c]=>DAT_200028cc             
ram:0001da54    2363            str         r3,[r4,#0x30]=>DAT_200028d0             
ram:0001da56    6363            str         r3,[r4,#0x34]=>DAT_200028d4             
ram:0001da58    a363            str         r3,[r4,#0x38]=>DAT_200028d8             
ram:0001da5a    e363            str         r3,[r4,#0x3c]=>DAT_200028dc             
ram:0001da5c    2364            str         r3,[r4,#0x40]=>DAT_200028e0             
ram:0001da5e    6364            str         r3,[r4,#0x44]=>DAT_200028e4             
ram:0001da60    a364            str         r3,[r4,#0x48]=>DAT_200028e8             
ram:0001da62    e364            str         r3,[r4,#0x4c]=>DAT_200028ec             
ram:0001da64    2365            str         r3,[r4,#0x50]=>DAT_200028f0             
ram:0001da66    6365            str         r3,[r4,#0x54]=>DAT_200028f4             
ram:0001da68    0321            movs        r1,#0x3                                 
ram:0001da6a    0620            movs        r0,#0x6                                 
ram:0001da6c    fff7aaff        bl          FUN_0001d9c4                            ;undefined FUN_0001d9c4(uint param_1,...
ram:0001da70    074b            ldr         r3,[DAT_0001da90]                       ;= 4000617Ch
ram:0001da72    8021            movs        r1,#0x80                                
ram:0001da74    1e60            str         r6,[r3,#0x0]=>DAT_4000617c              
ram:0001da76    c123            movs        r3,#0xc1                                
ram:0001da78    064a            ldr         r2,[DAT_0001da94]                       ;= 40006000h
ram:0001da7a    9b00            lsls        r3,r3,#0x2                              
ram:0001da7c    0906            lsls        r1,r1,#0x18                             
ram:0001da7e    d150            str         r1,[r2,r3]=>DAT_40006304                
ram:0001da80    0123            movs        r3,#0x1                                 
ram:0001da82    0020            movs        r0,#0x0                                 
ram:0001da84    6355            strb        r3,[r4,r5]=>DAT_200028f8                
                            LAB_0001da86:                 ;XREF[1,0]:   0001da8a
ram:0001da86    70bd            pop         {r4,r5,r6,pc}                           
                            LAB_0001da88:                 ;XREF[1,0]:   0001da36
ram:0001da88    0820            movs        r0,#0x8                                 
ram:0001da8a    fce7            b           LAB_0001da86                            
                            DAT_0001da8c:                 ;XREF[1,0]:   0001da30
ram:0001da8c    a0280020        undefined4  200028A0h                               
                            DAT_0001da90:                 ;XREF[1,0]:   0001da70
ram:0001da90    7c610040        undefined4  4000617Ch                               
                            DAT_0001da94:                 ;XREF[1,0]:   0001da78
ram:0001da94    00600040        undefined4  40006000h                               
                            ;************************************************************************************************
                            ;*                                           FUNCTION                                           *
                            ;************************************************************************************************
                            ;bool FUN_0001da98(void)
                                                          ;XREF[1,0]:   0001be76
ram:0001da98    5823            movs        r3,#0x58                                
ram:0001da9a    034a            ldr         r2,[DAT_0001daa8]                       ;= 200028A0h
ram:0001da9c    d05c            ldrb        r0,[r2,r3]=>DAT_200028f8                
ram:0001da9e    431e            subs        r3,r0,#0x1                              
ram:0001daa0    9841            sbcs        r0,r3                                   
ram:0001daa2    c0b2            uxtb        r0,r0                                   
ram:0001daa4    7047            bx          lr                                      
ram:0001daa6    c046            mov         r8,r8                                   
                            DAT_0001daa8:                 ;XREF[1,0]:   0001da9a
ram:0001daa8    a0280020        undefined4  200028A0h                               
                            ;************************************************************************************************
                            ;*                                           FUNCTION                                           *
                            ;************************************************************************************************
                            ;undefined FUN_0001daac(void)
                                                          ;XREF[1,0]:   0001be8c
ram:0001daac    ff22            movs        r2,#0xff                                
ram:0001daae    f0b5            push        {r4,r5,r6,r7,lr}                        
ram:0001dab0    4546            mov         r5,r8                                   
ram:0001dab2    9046            mov         r8,r2                                   
ram:0001dab4    a222            movs        r2,#0xa2                                
ram:0001dab6    d200            lsls        r2,r2,#0x3                              
ram:0001dab8    5746            mov         r7,r10                                  
ram:0001daba    9246            mov         r10,r2                                  
ram:0001dabc    0122            movs        r2,#0x1                                 
ram:0001dabe    de46            mov         lr,r11                                  
ram:0001dac0    9346            mov         r11,r2                                  
ram:0001dac2    a022            movs        r2,#0xa0                                
ram:0001dac4    4e46            mov         r6,r9                                   
ram:0001dac6    d205            lsls        r2,r2,#0x17                             
ram:0001dac8    e0b5            push        {r5,r6,r7,lr}                           
ram:0001daca    0023            movs        r3,#0x0                                 
ram:0001dacc    2e48            ldr         r0=>DAT_200028a0,[DAT_0001db88]         ;= 200028A0h
ram:0001dace    9146            mov         r9,r2                                   
ram:0001dad0    04e0            b           LAB_0001dadc                            
                            LAB_0001dad2:                 ;XREF[1,0]:   0001dae8
ram:0001dad2    0029            cmp         r1,#0x0                                 
ram:0001dad4    1eda            bge         LAB_0001db14                            
                            LAB_0001dad6:                 ;XREF[1,0]:   0001db56
ram:0001dad6    0133            adds        r3,#0x1                                 
ram:0001dad8    202b            cmp         r3,#0x20                                
ram:0001dada    12d0            beq         LAB_0001db02                            
                            LAB_0001dadc:                 ;XREF[2,0]:   0001dad0,0001db00
ram:0001dadc    1a00            movs        r2,r3                                   
ram:0001dade    0021            movs        r1,#0x0                                 
ram:0001dae0    3032            adds        r2,#0x30                                
ram:0001dae2    8218            adds        r2,r0,r2                                
                                                          ; FWD[2,0]:   200028d0,200028d1
ram:0001dae4    5156            ldrsb       r1,[r2,r1]=>DAT_200028d0                
ram:0001dae6    8c1c            adds        r4,r1,#0x2                              
ram:0001dae8    f3d1            bne         LAB_0001dad2                            
ram:0001daea    4146            mov         r1,r8                                   
ram:0001daec    1170            strb        r1,[r2,#0x0]=>DAT_200028d0              
ram:0001daee    1a00            movs        r2,r3                                   
ram:0001daf0    4946            mov         r1,r9                                   
ram:0001daf2    0224            movs        r4,#0x2                                 
ram:0001daf4    c132            adds        r2,#0xc1                                
ram:0001daf6    ff32            adds        r2,#0xff                                
ram:0001daf8    9200            lsls        r2,r2,#0x2                              
ram:0001dafa    0133            adds        r3,#0x1                                 
ram:0001dafc    5450            str         r4,[r2,r1]=>DAT_50000700                
ram:0001dafe    202b            cmp         r3,#0x20                                
ram:0001db00    ecd1            bne         LAB_0001dadc                            
                            LAB_0001db02:                 ;XREF[1,0]:   0001dada
ram:0001db02    0022            movs        r2,#0x0                                 
ram:0001db04    3833            adds        r3,#0x38                                
ram:0001db06    c254            strb        r2,[r0,r3]=>DAT_200028d9                
ram:0001db08    3cbc            pop         {r2,r3,r4,r5}                           
ram:0001db0a    9046            mov         r8,r2                                   
ram:0001db0c    9946            mov         r9,r3                                   
ram:0001db0e    a246            mov         r10,r4                                  
ram:0001db10    ab46            mov         r11,r5                                  
ram:0001db12    f0bd            pop         {r4,r5,r6,r7,pc}                        
                            LAB_0001db14:                 ;XREF[1,0]:   0001dad4
ram:0001db14    0329            cmp         r1,#0x3                                 
ram:0001db16    1fdc            bgt         LAB_0001db58                            
ram:0001db18    5746            mov         r7,r10                                  
ram:0001db1a    1c4c            ldr         r4,[DAT_0001db8c]                       ;= 40006000h
ram:0001db1c    8d00            lsls        r5,r1,#0x2                              
ram:0001db1e    2c19            adds        r4,r5,r4                                
ram:0001db20    e659            ldr         r6,[r4,r7]=>DAT_40006510                
ram:0001db22    5f46            mov         r7,r11                                  
ram:0001db24    be43            bics        r6,r7                                   
ram:0001db26    5746            mov         r7,r10                                  
ram:0001db28    e651            str         r6,[r4,r7]=>DAT_40006510                
ram:0001db2a    5e46            mov         r6,r11                                  
ram:0001db2c    8e40            lsls        r6,r1                                   
ram:0001db2e    c227            movs        r7,#0xc2                                
ram:0001db30    3100            movs        r1,r6                                   
ram:0001db32    164e            ldr         r6,[DAT_0001db8c]                       ;= 40006000h
ram:0001db34    bf00            lsls        r7,r7,#0x2                              
ram:0001db36    f151            str         r1,[r6,r7]=>DAT_40006308                
ram:0001db38    5146            mov         r1,r10                                  
ram:0001db3a    0026            movs        r6,#0x0                                 
ram:0001db3c    6650            str         r6,[r4,r1]=>DAT_40006510                
ram:0001db3e    1900            movs        r1,r3                                   
ram:0001db40    4c46            mov         r4,r9                                   
ram:0001db42    c131            adds        r1,#0xc1                                
ram:0001db44    ff31            adds        r1,#0xff                                
ram:0001db46    8900            lsls        r1,r1,#0x2                              
ram:0001db48    0236            adds        r6,#0x2                                 
ram:0001db4a    0e51            str         r6,[r1,r4]=>DAT_50000700                
ram:0001db4c    0121            movs        r1,#0x1                                 
ram:0001db4e    4942            rsbs        r1,r1                                   
ram:0001db50    4151            str         r1,[r0,r5]=>DAT_200028a0                
                            LAB_0001db52:                 ;XREF[1,0]:   0001db84
ram:0001db52    4146            mov         r1,r8                                   
ram:0001db54    1170            strb        r1,[r2,#0x0]=>DAT_200028d0              
ram:0001db56    bee7            b           LAB_0001dad6                            
                            LAB_0001db58:                 ;XREF[1,0]:   0001db16
ram:0001db58    a025            movs        r5,#0xa0                                
ram:0001db5a    ed05            lsls        r5,r5,#0x17                             
ram:0001db5c    ac46            mov         r12,r5                                  
ram:0001db5e    e025            movs        r5,#0xe0                                
ram:0001db60    9c00            lsls        r4,r3,#0x2                              
ram:0001db62    6444            add         r4,r12                                  
ram:0001db64    ed00            lsls        r5,r5,#0x3                              
ram:0001db66    6659            ldr         r6,[r4,r5]=>DAT_50000700                
ram:0001db68    094f            ldr         r7,[DAT_0001db90]                       ;= FFFCFFFFh
ram:0001db6a    3e40            ands        r6,r7                                   
ram:0001db6c    6651            str         r6,[r4,r5]=>DAT_50000700                
ram:0001db6e    6659            ldr         r6,[r4,r5]=>DAT_50000700                
ram:0001db70    6651            str         r6,[r4,r5]=>DAT_50000700                
ram:0001db72    0226            movs        r6,#0x2                                 
ram:0001db74    6651            str         r6,[r4,r5]=>DAT_50000700                
ram:0001db76    0124            movs        r4,#0x1                                 
ram:0001db78    8d00            lsls        r5,r1,#0x2                              
ram:0001db7a    4118            adds        r1,r0,r1                                
ram:0001db7c    6442            rsbs        r4,r4                                   
ram:0001db7e    4c31            adds        r1,#0x4c                                
ram:0001db80    4451            str         r4,[r0,r5]=>DAT_200028a0                
ram:0001db82    0c70            strb        r4,[r1,#0x0]=>DAT_200028ec              
ram:0001db84    e5e7            b           LAB_0001db52                            
ram:0001db86    c046            mov         r8,r8                                   
                            DAT_0001db88:                 ;XREF[1,0]:   0001dacc
ram:0001db88    a0280020        undefined4  200028A0h                               
                            DAT_0001db8c:                 ;XREF[2,0]:   0001db1a,0001db32
ram:0001db8c    00600040        undefined4  40006000h                               
                            DAT_0001db90:                 ;XREF[1,0]:   0001db68
ram:0001db90    fffffcff        undefined4  FFFCFFFFh                               
                            ;************************************************************************************************
                            ;*                                           FUNCTION                                           *
                            ;************************************************************************************************
                            ;undefined4 FUN_0001db94(uint param_1, byte * param_2, int param_3)
          ;param_1       uint                r0                      
          ;param_2       byte *              r1                      
          ;param_3       int                 r2                      
                                                          ;XREF[6,0]:   0001bbb2,0001bbbc,0001bc3a,0001bc44
                                                          ;             0001bd82,0001bd8c
ram:0001db94    f0b5            push        {r4,r5,r6,r7,lr}                        
ram:0001db96    ce46            mov         lr,r9                                   
ram:0001db98    4746            mov         r7,r8                                   
ram:0001db9a    80b5            push        {r7,lr}                                 
ram:0001db9c    6c4b            ldr         r3,[DAT_0001dd50]                       ;= 200028A0h
ram:0001db9e    9146            mov         r9,param_3                              
ram:0001dba0    1c18            adds        r4,r3,param_1                           
ram:0001dba2    3034            adds        r4,#0x30                                
ram:0001dba4    2678            ldrb        r6,[r4,#0x0]=>DAT_200028d0              
ram:0001dba6    0825            movs        r5,#0x8                                 
ram:0001dba8    7f2e            cmp         r6,#0x7f                                
ram:0001dbaa    65d9            bls         LAB_0001dc78                            
ram:0001dbac    cf78            ldrb        r7,[param_2,#0x3]                       
ram:0001dbae    002f            cmp         r7,#0x0                                 
ram:0001dbb0    67d1            bne         LAB_0001dc82                            
ram:0001dbb2    1a69            ldr         param_3,[r3,#0x10]=>DAT_200028b0        
ram:0001dbb4    0132            adds        param_3,#0x1                            
ram:0001dbb6    00d1            bne         LAB_0001dbba                            
ram:0001dbb8    c1e0            b           LAB_0001dd3e                            
                            LAB_0001dbba:                 ;XREF[1,0]:   0001dbb6
ram:0001dbba    0525            movs        r5,#0x5                                 
ram:0001dbbc    0c26            movs        r6,#0xc                                 
                            LAB_0001dbbe:                 ;XREF[1,0]:   0001dc8a
ram:0001dbbe    ac00            lsls        r4,r5,#0x2                              
                                                          ; FWD[2,0]:   200028a4,200028b4
ram:0001dbc0    1a59            ldr         param_3,[r3,r4]=>DAT_200028b4           
ram:0001dbc2    0132            adds        param_3,#0x1                            
ram:0001dbc4    00d1            bne         LAB_0001dbc8                            
ram:0001dbc6    81e0            b           LAB_0001dccc                            
                            LAB_0001dbc8:                 ;XREF[1,0]:   0001dbc4
ram:0001dbc8    6a1c            adds        param_3,r5,#0x1                         
ram:0001dbca    9400            lsls        r4,param_3,#0x2                         
ram:0001dbcc    9446            mov         r12,param_3                             
ram:0001dbce    1a59            ldr         param_3,[r3,r4]=>DAT_200028b8           
ram:0001dbd0    0132            adds        param_3,#0x1                            
ram:0001dbd2    00d1            bne         LAB_0001dbd6                            
ram:0001dbd4    b1e0            b           LAB_0001dd3a                            
                            LAB_0001dbd6:                 ;XREF[1,0]:   0001dbd2
ram:0001dbd6    aa1c            adds        param_3,r5,#0x2                         
ram:0001dbd8    9446            mov         r12,param_3                             
ram:0001dbda    b242            cmp         param_3,r6                              
ram:0001dbdc    4bd2            bcs         LAB_0001dc76                            
ram:0001dbde    9400            lsls        r4,param_3,#0x2                         
ram:0001dbe0    1a59            ldr         param_3,[r3,r4]=>DAT_200028bc           
ram:0001dbe2    0132            adds        param_3,#0x1                            
ram:0001dbe4    00d1            bne         LAB_0001dbe8                            
ram:0001dbe6    a8e0            b           LAB_0001dd3a                            
                            LAB_0001dbe8:                 ;XREF[1,0]:   0001dbe4
ram:0001dbe8    ea1c            adds        param_3,r5,#0x3                         
ram:0001dbea    9446            mov         r12,param_3                             
ram:0001dbec    b242            cmp         param_3,r6                              
ram:0001dbee    42d2            bcs         LAB_0001dc76                            
ram:0001dbf0    9400            lsls        r4,param_3,#0x2                         
ram:0001dbf2    1a59            ldr         param_3,[r3,r4]=>DAT_200028c0           
ram:0001dbf4    0132            adds        param_3,#0x1                            
ram:0001dbf6    00d1            bne         LAB_0001dbfa                            
ram:0001dbf8    9fe0            b           LAB_0001dd3a                            
                            LAB_0001dbfa:                 ;XREF[1,0]:   0001dbf6
ram:0001dbfa    2a1d            adds        param_3,r5,#0x4                         
ram:0001dbfc    9446            mov         r12,param_3                             
ram:0001dbfe    b242            cmp         param_3,r6                              
ram:0001dc00    39d2            bcs         LAB_0001dc76                            
ram:0001dc02    9400            lsls        r4,param_3,#0x2                         
ram:0001dc04    1a59            ldr         param_3,[r3,r4]=>DAT_200028c4           
ram:0001dc06    0132            adds        param_3,#0x1                            
ram:0001dc08    00d1            bne         LAB_0001dc0c                            
ram:0001dc0a    96e0            b           LAB_0001dd3a                            
                            LAB_0001dc0c:                 ;XREF[1,0]:   0001dc08
ram:0001dc0c    6c1d            adds        r4,r5,#0x5                              
ram:0001dc0e    b442            cmp         r4,r6                                   
ram:0001dc10    31d2            bcs         LAB_0001dc76                            
ram:0001dc12    a200            lsls        param_3,r4,#0x2                         
ram:0001dc14    9a58            ldr         param_3,[r3,param_3]=>DAT_200028c8      
ram:0001dc16    0132            adds        param_3,#0x1                            
ram:0001dc18    00d1            bne         LAB_0001dc1c                            
ram:0001dc1a    96e0            b           LAB_0001dd4a                            
                            LAB_0001dc1c:                 ;XREF[1,0]:   0001dc18
ram:0001dc1c    aa1d            adds        param_3,r5,#0x6                         
ram:0001dc1e    9446            mov         r12,param_3                             
ram:0001dc20    b242            cmp         param_3,r6                              
ram:0001dc22    28d2            bcs         LAB_0001dc76                            
ram:0001dc24    9400            lsls        r4,param_3,#0x2                         
ram:0001dc26    1a59            ldr         param_3,[r3,r4]=>DAT_200028cc           
ram:0001dc28    0132            adds        param_3,#0x1                            
ram:0001dc2a    00d1            bne         LAB_0001dc2e                            
ram:0001dc2c    85e0            b           LAB_0001dd3a                            
                            LAB_0001dc2e:                 ;XREF[1,0]:   0001dc2a
ram:0001dc2e    ea1d            adds        param_3,r5,#0x7                         
ram:0001dc30    9446            mov         r12,param_3                             
ram:0001dc32    b242            cmp         param_3,r6                              
ram:0001dc34    1fd2            bcs         LAB_0001dc76                            
ram:0001dc36    9400            lsls        r4,param_3,#0x2                         
ram:0001dc38    1a59            ldr         param_3,[r3,r4]=>DAT_200028d0           
ram:0001dc3a    0132            adds        param_3,#0x1                            
ram:0001dc3c    00d1            bne         LAB_0001dc40                            
ram:0001dc3e    7ce0            b           LAB_0001dd3a                            
                            LAB_0001dc40:                 ;XREF[1,0]:   0001dc3c
ram:0001dc40    0822            movs        param_3,#0x8                            
ram:0001dc42    9446            mov         r12,param_3                             
ram:0001dc44    ac44            add         r12,r5                                  
ram:0001dc46    b445            cmp         r12,r6                                  
ram:0001dc48    15d2            bcs         LAB_0001dc76                            
ram:0001dc4a    6246            mov         param_3,r12                             
ram:0001dc4c    9400            lsls        r4,param_3,#0x2                         
ram:0001dc4e    1a59            ldr         param_3,[r3,r4]=>DAT_200028d4           
ram:0001dc50    0132            adds        param_3,#0x1                            
ram:0001dc52    00d1            bne         LAB_0001dc56                            
ram:0001dc54    71e0            b           LAB_0001dd3a                            
                            LAB_0001dc56:                 ;XREF[1,0]:   0001dc52
ram:0001dc56    0922            movs        param_3,#0x9                            
ram:0001dc58    9446            mov         r12,param_3                             
ram:0001dc5a    ac44            add         r12,r5                                  
ram:0001dc5c    b445            cmp         r12,r6                                  
ram:0001dc5e    0ad2            bcs         LAB_0001dc76                            
ram:0001dc60    6246            mov         param_3,r12                             
ram:0001dc62    9400            lsls        r4,param_3,#0x2                         
ram:0001dc64    1a59            ldr         param_3,[r3,r4]=>DAT_200028d8           
ram:0001dc66    0132            adds        param_3,#0x1                            
ram:0001dc68    67d0            beq         LAB_0001dd3a                            
ram:0001dc6a    0a35            adds        r5,#0xa                                 
ram:0001dc6c    b542            cmp         r5,r6                                   
ram:0001dc6e    02d2            bcs         LAB_0001dc76                            
ram:0001dc70    da6a            ldr         param_3,[r3,#0x2c]=>DAT_200028cc        
ram:0001dc72    0132            adds        param_3,#0x1                            
ram:0001dc74    28d0            beq         LAB_0001dcc8                            
                            LAB_0001dc76:                 ;XREF[9,0]:   0001dbdc,0001dbee,0001dc00,0001dc10
                                                          ;             0001dc22,0001dc34,0001dc48,0001dc5e
                                                          ;             0001dc6e
ram:0001dc76    0425            movs        r5,#0x4                                 
                            LAB_0001dc78:                 ;XREF[3,0]:   0001dbaa,0001dcc6,0001dd38
ram:0001dc78    2800            movs        param_1,r5                              
ram:0001dc7a    0cbc            pop         {param_3,r3}                            
ram:0001dc7c    9046            mov         r8,param_3                              
ram:0001dc7e    9946            mov         r9,r3                                   
ram:0001dc80    f0bd            pop         {r4,r5,r6,r7,pc}                        
                            LAB_0001dc82:                 ;XREF[1,0]:   0001dbb0
ram:0001dc82    1a68            ldr         param_3,[r3,#0x0]=>DAT_200028a0         
ram:0001dc84    0125            movs        r5,#0x1                                 
ram:0001dc86    0426            movs        r6,#0x4                                 
ram:0001dc88    0132            adds        param_3,#0x1                            
ram:0001dc8a    98d1            bne         LAB_0001dbbe                            
ram:0001dc8c    0026            movs        r6,#0x0                                 
ram:0001dc8e    4a46            mov         param_3,r9                              
ram:0001dc90    2670            strb        r6,[r4,#0x0]=>DAT_200028d0              
ram:0001dc92    1a60            str         param_3,[r3,#0x0]=>DAT_200028a0         
                            LAB_0001dc94:                 ;XREF[1,0]:   0001dce2
ram:0001dc94    8a78            ldrb        param_3,[param_2,#0x2]                  
ram:0001dc96    002a            cmp         param_3,#0x0                            
ram:0001dc98    2ad0            beq         LAB_0001dcf0                            
                            LAB_0001dc9a:                 ;XREF[1,0]:   0001dcee
ram:0001dc9a    a024            movs        r4,#0xa0                                
ram:0001dc9c    e405            lsls        r4,r4,#0x17                             
ram:0001dc9e    a446            mov         r12,r4                                  
ram:0001dca0    e025            movs        r5,#0xe0                                
ram:0001dca2    0227            movs        r7,#0x2                                 
ram:0001dca4    8200            lsls        param_3,param_1,#0x2                    
ram:0001dca6    6244            add         param_3,r12                             
ram:0001dca8    ed00            lsls        r5,r5,#0x3                              
ram:0001dcaa    5459            ldr         r4,[param_3,r5]=>DAT_50000700           
ram:0001dcac    bc43            bics        r4,r7                                   
ram:0001dcae    5451            str         r4,[param_3,r5]=>DAT_50000700           
ram:0001dcb0    0a78            ldrb        param_3,[param_2,#0x0]                  
ram:0001dcb2    c978            ldrb        param_2,[param_2,#0x3]                  
ram:0001dcb4    0029            cmp         param_2,#0x0                            
ram:0001dcb6    28d1            bne         LAB_0001dd0a                            
                            LAB_0001dcb8:                 ;XREF[1,0]:   0001dd08
ram:0001dcb8    9b19            adds        r3,r3,r6                                
ram:0001dcba    4c33            adds        r3,#0x4c                                
ram:0001dcbc    1978            ldrb        param_2,[r3,#0x0]=>DAT_200028f0         
ram:0001dcbe    9201            lsls        param_3,param_3,#0x6                    
ram:0001dcc0    0a43            orrs        param_3,param_2                         
ram:0001dcc2    1a70            strb        param_3,[r3,#0x0]=>DAT_200028f0         
ram:0001dcc4    0025            movs        r5,#0x0                                 
ram:0001dcc6    d7e7            b           LAB_0001dc78                            
                            LAB_0001dcc8:                 ;XREF[1,0]:   0001dc74
ram:0001dcc8    0b25            movs        r5,#0xb                                 
ram:0001dcca    2c24            movs        r4,#0x2c                                
                            LAB_0001dccc:                 ;XREF[3,0]:   0001dbc6,0001dd3c,0001dd4e
ram:0001dccc    1a18            adds        param_3,r3,param_1                      
ram:0001dcce    9446            mov         r12,param_3                             
ram:0001dcd0    3022            movs        param_3,#0x30                           
ram:0001dcd2    9046            mov         r8,param_3                              
ram:0001dcd4    c444            add         r12,r8                                  
ram:0001dcd6    6246            mov         param_3,r12                             
ram:0001dcd8    6eb2            sxtb        r6,r5                                   
ram:0001dcda    1670            strb        r6,[param_3,#0x0]=>DAT_200028d0         
ram:0001dcdc    4a46            mov         param_3,r9                              
                                                          ; FWD[4,0]:   200028b4,200028b8,200028c8,200028cc
ram:0001dcde    1a51            str         param_3,[r3,r4]=>DAT_200028b4           
ram:0001dce0    002f            cmp         r7,#0x0                                 
ram:0001dce2    d7d1            bne         LAB_0001dc94                            
                            LAB_0001dce4:                 ;XREF[1,0]:   0001dd48
ram:0001dce4    5d19            adds        r5,r3,r5                                
ram:0001dce6    4c35            adds        r5,#0x4c                                
                                                          ; FWD[2,0]:   200028f0,200028f1
ram:0001dce8    2870            strb        param_1,[r5,#0x0]=>DAT_200028f0         
ram:0001dcea    8a78            ldrb        param_3,[param_2,#0x2]                  
ram:0001dcec    002a            cmp         param_3,#0x0                            
ram:0001dcee    d4d1            bne         LAB_0001dc9a                            
                            LAB_0001dcf0:                 ;XREF[1,0]:   0001dc98
ram:0001dcf0    0200            movs        param_3,param_1                         
ram:0001dcf2    a025            movs        r5,#0xa0                                
ram:0001dcf4    4c78            ldrb        r4,[param_2,#0x1]                       
ram:0001dcf6    c132            adds        param_3,#0xc1                           
ram:0001dcf8    ff32            adds        param_3,#0xff                           
ram:0001dcfa    9200            lsls        param_3,param_3,#0x2                    
ram:0001dcfc    a400            lsls        r4,r4,#0x2                              
ram:0001dcfe    ed05            lsls        r5,r5,#0x17                             
ram:0001dd00    5451            str         r4,[param_3,r5]                         
ram:0001dd02    0a78            ldrb        param_3,[param_2,#0x0]                  
ram:0001dd04    c978            ldrb        param_2,[param_2,#0x3]                  
ram:0001dd06    0029            cmp         param_2,#0x0                            
ram:0001dd08    d6d0            beq         LAB_0001dcb8                            
                            LAB_0001dd0a:                 ;XREF[1,0]:   0001dcb6
ram:0001dd0a    1249            ldr         param_2,[DAT_0001dd54]                  ;= 40006000h
ram:0001dd0c    b300            lsls        r3,r6,#0x2                              
ram:0001dd0e    8c46            mov         r12,param_2                             
ram:0001dd10    a221            movs        param_2,#0xa2                           
ram:0001dd12    6344            add         r3,r12                                  
ram:0001dd14    c900            lsls        param_2,param_2,#0x3                    
ram:0001dd16    5c58            ldr         r4,[r3,param_2]=>DAT_40006520           
ram:0001dd18    0f4d            ldr         r5,[DAT_0001dd58]                       ;= FFFCE0FFh
ram:0001dd1a    0002            lsls        param_1,param_1,#0x8                    
ram:0001dd1c    2c40            ands        r4,r5                                   
ram:0001dd1e    f825            movs        r5,#0xf8                                
ram:0001dd20    6d01            lsls        r5,r5,#0x5                              
ram:0001dd22    2840            ands        param_1,r5                              
ram:0001dd24    c025            movs        r5,#0xc0                                
ram:0001dd26    5c50            str         r4,[r3,param_2]=>DAT_40006520           
ram:0001dd28    ad02            lsls        r5,r5,#0xa                              
ram:0001dd2a    1204            lsls        param_3,param_3,#0x10                   
ram:0001dd2c    5c58            ldr         r4,[r3,param_2]=>DAT_40006520           
ram:0001dd2e    2a40            ands        param_3,r5                              
ram:0001dd30    1043            orrs        param_1,param_3                         
ram:0001dd32    2043            orrs        param_1,r4                              
ram:0001dd34    5850            str         param_1,[r3,param_2]=>DAT_40006520      
ram:0001dd36    0025            movs        r5,#0x0                                 
ram:0001dd38    9ee7            b           LAB_0001dc78                            
                            LAB_0001dd3a:                 ;XREF[8,0]:   0001dbd4,0001dbe6,0001dbf8,0001dc0a
                                                          ;             0001dc2c,0001dc3e,0001dc54,0001dc68
ram:0001dd3a    6546            mov         r5,r12                                  
ram:0001dd3c    c6e7            b           LAB_0001dccc                            
                            LAB_0001dd3e:                 ;XREF[1,0]:   0001dbb8
ram:0001dd3e    0425            movs        r5,#0x4                                 
ram:0001dd40    4a46            mov         param_3,r9                              
ram:0001dd42    2570            strb        r5,[r4,#0x0]=>DAT_200028d0              
ram:0001dd44    1a61            str         param_3,[r3,#0x10]=>DAT_200028b0        
ram:0001dd46    0426            movs        r6,#0x4                                 
ram:0001dd48    cce7            b           LAB_0001dce4                            
                            LAB_0001dd4a:                 ;XREF[1,0]:   0001dc1a
ram:0001dd4a    2500            movs        r5,r4                                   
ram:0001dd4c    a400            lsls        r4,r4,#0x2                              
ram:0001dd4e    bde7            b           LAB_0001dccc                            
                            DAT_0001dd50:                 ;XREF[1,0]:   0001db9c
ram:0001dd50    a0280020        undefined4  200028A0h                               
                            DAT_0001dd54:                 ;XREF[1,0]:   0001dd0a
ram:0001dd54    00600040        undefined4  40006000h                               
                            DAT_0001dd58:                 ;XREF[1,0]:   0001dd18
ram:0001dd58    ffe0fcff        undefined4  FFFCE0FFh                               
                            ;************************************************************************************************
                            ;*                                           FUNCTION                                           *
                            ;************************************************************************************************
                            ;undefined FUN_0001dd5c(uint param_1, int param_2)
          ;param_1       uint                r0                      
          ;param_2       int                 r1                      
                                                          ;XREF[4,0]:   0001bc4c,0001bc54,0001bca2,0001bd94
ram:0001dd5c    0023            movs        r3,#0x0                                 
ram:0001dd5e    f0b5            push        {r4,r5,r6,r7,lr}                        
ram:0001dd60    2a4c            ldr         r4,[DAT_0001de0c]                       ;= 200028A0h
ram:0001dd62    2218            adds        r2,r4,param_1                           
ram:0001dd64    3032            adds        r2,#0x30                                
ram:0001dd66    d356            ldrsb       r3,[r2,r3]=>DAT_200028d0                
ram:0001dd68    032b            cmp         r3,#0x3                                 
ram:0001dd6a    1fdd            ble         LAB_0001ddac                            
ram:0001dd6c    e318            adds        r3,r4,r3                                
ram:0001dd6e    4c33            adds        r3,#0x4c                                
ram:0001dd70    1b78            ldrb        r3,[r3,#0x0]=>DAT_200028ec              
ram:0001dd72    9b09            lsrs        r3,r3,#0x6                              
ram:0001dd74    032b            cmp         r3,#0x3                                 
ram:0001dd76    3ad0            beq         LAB_0001ddee                            
ram:0001dd78    013b            subs        r3,#0x1                                 
ram:0001dd7a    5a1e            subs        r2,r3,#0x1                              
ram:0001dd7c    9341            sbcs        r3,r2                                   
ram:0001dd7e    8022            movs        r2,#0x80                                
ram:0001dd80    5b42            rsbs        r3,r3                                   
ram:0001dd82    5202            lsls        r2,r2,#0x9                              
ram:0001dd84    1340            ands        r3,r2                                   
ram:0001dd86    8022            movs        r2,#0x80                                
ram:0001dd88    9202            lsls        r2,r2,#0xa                              
ram:0001dd8a    9446            mov         r12,r2                                  
ram:0001dd8c    6344            add         r3,r12                                  
                            LAB_0001dd8e:                 ;XREF[1,0]:   0001de0a
ram:0001dd8e    a022            movs        r2,#0xa0                                
ram:0001dd90    d205            lsls        r2,r2,#0x17                             
ram:0001dd92    9446            mov         r12,r2                                  
ram:0001dd94    e022            movs        r2,#0xe0                                
ram:0001dd96    8000            lsls        param_1,param_1,#0x2                    
ram:0001dd98    6044            add         param_1,r12                             
ram:0001dd9a    d200            lsls        r2,r2,#0x3                              
ram:0001dd9c    8158            ldr         param_2,[param_1,r2]=>DAT_50000700      
ram:0001dd9e    1c4c            ldr         r4,[DAT_0001de10]                       ;= FFFCFFFFh
ram:0001dda0    2140            ands        param_2,r4                              
ram:0001dda2    8150            str         param_2,[param_1,r2]=>DAT_50000700      
ram:0001dda4    8158            ldr         param_2,[param_1,r2]=>DAT_50000700      
ram:0001dda6    0b43            orrs        r3,param_2                              
ram:0001dda8    8350            str         r3,[param_1,r2]=>DAT_50000700           
                            LAB_0001ddaa:                 ;XREF[4,0]:   0001ddb0,0001ddd6,0001dde2,0001ddec
ram:0001ddaa    f0bd            pop         {r4,r5,r6,r7,pc}                        
                            LAB_0001ddac:                 ;XREF[1,0]:   0001dd6a
ram:0001ddac    d8b2            uxtb        param_1,r3                              
ram:0001ddae    0328            cmp         param_1,#0x3                            
ram:0001ddb0    fbd8            bhi         LAB_0001ddaa                            
ram:0001ddb2    184d            ldr         r5,[DAT_0001de14]                       ;= 40006000h
ram:0001ddb4    a227            movs        r7,#0xa2                                
ram:0001ddb6    ac46            mov         r12,r5                                  
ram:0001ddb8    0126            movs        r6,#0x1                                 
ram:0001ddba    9800            lsls        param_1,r3,#0x2                         
ram:0001ddbc    6044            add         param_1,r12                             
ram:0001ddbe    ff00            lsls        r7,r7,#0x3                              
ram:0001ddc0    c559            ldr         r5,[param_1,r7]=>DAT_40006510           
ram:0001ddc2    3543            orrs        r5,r6                                   
ram:0001ddc4    c551            str         r5,[param_1,r7]=>DAT_40006510           
ram:0001ddc6    1800            movs        param_1,r3                              
ram:0001ddc8    6546            mov         r5,r12                                  
ram:0001ddca    0027            movs        r7,#0x0                                 
ram:0001ddcc    4030            adds        param_1,#0x40                           
ram:0001ddce    8000            lsls        param_1,param_1,#0x2                    
ram:0001ddd0    80b2            uxth        param_1,param_1                         
ram:0001ddd2    4751            str         r7,[param_1,r5]                         
ram:0001ddd4    0029            cmp         param_2,#0x0                            
ram:0001ddd6    e8d0            beq         LAB_0001ddaa                            
ram:0001ddd8    1278            ldrb        r2,[r2,#0x0]=>DAT_200028d0              
ram:0001ddda    52b2            sxtb        r2,r2                                   
ram:0001dddc    9200            lsls        r2,r2,#0x2                              
ram:0001ddde    1259            ldr         r2,[r2,r4]=>DAT_200028a0                
ram:0001dde0    002a            cmp         r2,#0x0                                 
ram:0001dde2    e2d0            beq         LAB_0001ddaa                            
ram:0001dde4    9e40            lsls        r6,r3                                   
ram:0001dde6    c123            movs        r3,#0xc1                                
ram:0001dde8    9b00            lsls        r3,r3,#0x2                              
ram:0001ddea    ee50            str         r6,[r5,r3]=>DAT_40006304                
ram:0001ddec    dde7            b           LAB_0001ddaa                            
                            LAB_0001ddee:                 ;XREF[1,0]:   0001dd76
ram:0001ddee    a022            movs        r2,#0xa0                                
ram:0001ddf0    a223            movs        r3,#0xa2                                
ram:0001ddf2    d205            lsls        r2,r2,#0x17                             
ram:0001ddf4    db00            lsls        r3,r3,#0x3                              
ram:0001ddf6    d258            ldr         r2,[r2,r3]=>DAT_50000510                
ram:0001ddf8    0123            movs        r3,#0x1                                 
ram:0001ddfa    c240            lsrs        r2,param_1                              
ram:0001ddfc    1340            ands        r3,r2                                   
ram:0001ddfe    c022            movs        r2,#0xc0                                
ram:0001de00    9202            lsls        r2,r2,#0xa                              
ram:0001de02    9446            mov         r12,r2                                  
ram:0001de04    013b            subs        r3,#0x1                                 
ram:0001de06    1b04            lsls        r3,r3,#0x10                             
ram:0001de08    6344            add         r3,r12                                  
ram:0001de0a    c0e7            b           LAB_0001dd8e                            
                            DAT_0001de0c:                 ;XREF[1,0]:   0001dd60
ram:0001de0c    a0280020        undefined4  200028A0h                               
                            DAT_0001de10:                 ;XREF[1,0]:   0001dd9e
ram:0001de10    fffffcff        undefined4  FFFCFFFFh                               
                            DAT_0001de14:                 ;XREF[1,0]:   0001ddb2
ram:0001de14    00600040        undefined4  40006000h                               
                            ;************************************************************************************************
                            ;*                                           FUNCTION                                           *
                            ;************************************************************************************************
                            ;undefined FUN_0001de18(int param_1)
          ;param_1       int                 r0                      
                                                          ;XREF[1,0]:   0001bb28
ram:0001de18    10b5            push        {r4,lr}                                 
ram:0001de1a    144b            ldr         r3,[DAT_0001de6c]                       ;= 200028A0h
ram:0001de1c    1b18            adds        r3,r3,param_1                           
ram:0001de1e    3033            adds        r3,#0x30                                
ram:0001de20    1b78            ldrb        r3,[r3,#0x0]=>DAT_200028d0              
ram:0001de22    5bb2            sxtb        r3,r3                                   
ram:0001de24    032b            cmp         r3,#0x3                                 
ram:0001de26    12dc            bgt         LAB_0001de4e                            
ram:0001de28    dab2            uxtb        r2,r3                                   
ram:0001de2a    032a            cmp         r2,#0x3                                 
ram:0001de2c    0ed8            bhi         LAB_0001de4c                            
ram:0001de2e    104a            ldr         r2,[DAT_0001de70]                       ;= 40006000h
ram:0001de30    a224            movs        r4,#0xa2                                
ram:0001de32    9446            mov         r12,r2                                  
ram:0001de34    0122            movs        r2,#0x1                                 
ram:0001de36    9900            lsls        r1,r3,#0x2                              
ram:0001de38    6144            add         r1,r12                                  
ram:0001de3a    e400            lsls        r4,r4,#0x3                              
ram:0001de3c    0859            ldr         param_1,[r1,r4]=>DAT_40006510           
ram:0001de3e    9043            bics        param_1,r2                              
ram:0001de40    9a40            lsls        r2,r3                                   
ram:0001de42    c223            movs        r3,#0xc2                                
ram:0001de44    0851            str         param_1,[r1,r4]=>DAT_40006510           
ram:0001de46    6146            mov         r1,r12                                  
ram:0001de48    9b00            lsls        r3,r3,#0x2                              
ram:0001de4a    ca50            str         r2,[r1,r3]=>DAT_40006308                
                            LAB_0001de4c:                 ;XREF[2,0]:   0001de2c,0001de68
ram:0001de4c    10bd            pop         {r4,pc}                                 
                            LAB_0001de4e:                 ;XREF[1,0]:   0001de26
ram:0001de4e    a023            movs        r3,#0xa0                                
ram:0001de50    db05            lsls        r3,r3,#0x17                             
ram:0001de52    9c46            mov         r12,r3                                  
ram:0001de54    e023            movs        r3,#0xe0                                
ram:0001de56    8000            lsls        param_1,param_1,#0x2                    
ram:0001de58    6044            add         param_1,r12                             
ram:0001de5a    db00            lsls        r3,r3,#0x3                              
ram:0001de5c    c258            ldr         r2,[param_1,r3]=>DAT_50000700           
ram:0001de5e    0549            ldr         r1,[DAT_0001de74]                       ;= FFFCFFFFh
ram:0001de60    0a40            ands        r2,r1                                   
ram:0001de62    c250            str         r2,[param_1,r3]=>DAT_50000700           
ram:0001de64    c258            ldr         r2,[param_1,r3]=>DAT_50000700           
ram:0001de66    c250            str         r2,[param_1,r3]=>DAT_50000700           
ram:0001de68    f0e7            b           LAB_0001de4c                            
ram:0001de6a    c046            mov         r8,r8                                   
                            DAT_0001de6c:                 ;XREF[1,0]:   0001de1a
ram:0001de6c    a0280020        undefined4  200028A0h                               
                            DAT_0001de70:                 ;XREF[1,0]:   0001de2e
ram:0001de70    00600040        undefined4  40006000h                               
                            DAT_0001de74:                 ;XREF[1,0]:   0001de5e
ram:0001de74    fffffcff        undefined4  FFFCFFFFh                               
                            ;************************************************************************************************
                            ;*                                           FUNCTION                                           *
                            ;************************************************************************************************
                            ;undefined FUN_0001de78(int param_1)
          ;param_1       int                 r0                      
                                                          ;XREF[6,0]:   0001bbd8,0001bbde,0001bc04,0001bc0a
                                                          ;             0001bcaa,0001bcb0
ram:0001de78    3021            movs        r1,#0x30                                
ram:0001de7a    f0b5            push        {r4,r5,r6,r7,lr}                        
ram:0001de7c    264b            ldr         r3,[DAT_0001df18]                       ;= 200028A0h
ram:0001de7e    1a18            adds        r2,r3,param_1                           
ram:0001de80    5156            ldrsb       r1,[r2,r1]=>DAT_200028d0                
ram:0001de82    cab2            uxtb        r2,r1                                   
ram:0001de84    0329            cmp         r1,#0x3                                 
ram:0001de86    23dc            bgt         LAB_0001ded0                            
ram:0001de88    032a            cmp         r2,#0x3                                 
ram:0001de8a    30d8            bhi         LAB_0001deee                            
ram:0001de8c    234c            ldr         r4,[DAT_0001df1c]                       ;= 40006000h
ram:0001de8e    a227            movs        r7,#0xa2                                
ram:0001de90    a446            mov         r12,r4                                  
ram:0001de92    0124            movs        r4,#0x1                                 
ram:0001de94    8d00            lsls        r5,r1,#0x2                              
ram:0001de96    6544            add         r5,r12                                  
ram:0001de98    ff00            lsls        r7,r7,#0x3                              
ram:0001de9a    ee59            ldr         r6,[r5,r7]=>DAT_40006510                
ram:0001de9c    a643            bics        r6,r4                                   
ram:0001de9e    ee51            str         r6,[r5,r7]=>DAT_40006510                
ram:0001dea0    c225            movs        r5,#0xc2                                
ram:0001dea2    8c40            lsls        r4,r1                                   
ram:0001dea4    6646            mov         r6,r12                                  
ram:0001dea6    ad00            lsls        r5,r5,#0x2                              
ram:0001dea8    7451            str         r4,[r6,r5]=>DAT_40006308                
                            LAB_0001deaa:                 ;XREF[1,0]:   0001deec
ram:0001deaa    0025            movs        r5,#0x0                                 
ram:0001deac    4531            adds        r1,#0x45                                
ram:0001deae    1b4c            ldr         r4,[DAT_0001df1c]                       ;= 40006000h
ram:0001deb0    ff31            adds        r1,#0xff                                
ram:0001deb2    8900            lsls        r1,r1,#0x2                              
ram:0001deb4    0d51            str         r5,[r1,r4]                              
ram:0001deb6    0100            movs        r1,param_1                              
ram:0001deb8    a024            movs        r4,#0xa0                                
ram:0001deba    c131            adds        r1,#0xc1                                
ram:0001debc    ff31            adds        r1,#0xff                                
ram:0001debe    8900            lsls        r1,r1,#0x2                              
ram:0001dec0    e405            lsls        r4,r4,#0x17                             
ram:0001dec2    0235            adds        r5,#0x2                                 
ram:0001dec4    0d51            str         r5,[r1,r4]                              
ram:0001dec6    0121            movs        r1,#0x1                                 
ram:0001dec8    9200            lsls        r2,r2,#0x2                              
ram:0001deca    4942            rsbs        r1,r1                                   
ram:0001decc    9950            str         r1,[r3,r2]=>DAT_200028a0                
ram:0001dece    1de0            b           LAB_0001df0c                            
                            LAB_0001ded0:                 ;XREF[1,0]:   0001de86
ram:0001ded0    a025            movs        r5,#0xa0                                
ram:0001ded2    ed05            lsls        r5,r5,#0x17                             
ram:0001ded4    ac46            mov         r12,r5                                  
ram:0001ded6    e025            movs        r5,#0xe0                                
ram:0001ded8    8400            lsls        r4,param_1,#0x2                         
ram:0001deda    6444            add         r4,r12                                  
ram:0001dedc    ed00            lsls        r5,r5,#0x3                              
ram:0001dede    6659            ldr         r6,[r4,r5]=>DAT_50000700                
ram:0001dee0    0f4f            ldr         r7,[DAT_0001df20]                       ;= FFFCFFFFh
ram:0001dee2    3e40            ands        r6,r7                                   
ram:0001dee4    6651            str         r6,[r4,r5]=>DAT_50000700                
ram:0001dee6    6659            ldr         r6,[r4,r5]=>DAT_50000700                
ram:0001dee8    6651            str         r6,[r4,r5]=>DAT_50000700                
ram:0001deea    032a            cmp         r2,#0x3                                 
ram:0001deec    ddd9            bls         LAB_0001deaa                            
                            LAB_0001deee:                 ;XREF[1,0]:   0001de8a
ram:0001deee    0100            movs        r1,param_1                              
ram:0001def0    a024            movs        r4,#0xa0                                
ram:0001def2    0225            movs        r5,#0x2                                 
ram:0001def4    c131            adds        r1,#0xc1                                
ram:0001def6    ff31            adds        r1,#0xff                                
ram:0001def8    8900            lsls        r1,r1,#0x2                              
ram:0001defa    e405            lsls        r4,r4,#0x17                             
ram:0001defc    0d51            str         r5,[r1,r4]                              
ram:0001defe    0121            movs        r1,#0x1                                 
ram:0001df00    9400            lsls        r4,r2,#0x2                              
ram:0001df02    9a18            adds        r2,r3,r2                                
ram:0001df04    4942            rsbs        r1,r1                                   
ram:0001df06    4c32            adds        r2,#0x4c                                
ram:0001df08    1951            str         r1,[r3,r4]=>DAT_200028a0                
ram:0001df0a    1170            strb        r1,[r2,#0x0]=>DAT_200028ec              
                            LAB_0001df0c:                 ;XREF[1,0]:   0001dece
ram:0001df0c    ff22            movs        r2,#0xff                                
ram:0001df0e    1b18            adds        r3,r3,param_1                           
ram:0001df10    3033            adds        r3,#0x30                                
ram:0001df12    1a70            strb        r2,[r3,#0x0]=>DAT_200028d0              
ram:0001df14    f0bd            pop         {r4,r5,r6,r7,pc}                        
ram:0001df16    c046            mov         r8,r8                                   
                            DAT_0001df18:                 ;XREF[1,0]:   0001de7c
ram:0001df18    a0280020        undefined4  200028A0h                               
                            DAT_0001df1c:                 ;XREF[2,0]:   0001de8c,0001deae
ram:0001df1c    00600040        undefined4  40006000h                               
                            DAT_0001df20:                 ;XREF[1,0]:   0001dee0
ram:0001df20    fffffcff        undefined4  FFFCFFFFh                               
                            ;************************************************************************************************
                            ;*                                           FUNCTION                                           *
                            ;************************************************************************************************
                            ;undefined FUNC_VT_0001df24(void)
          ;local_2c      undefined4         -2c                      ;XREF[2,0]:   0001dfe0,0001e0a0
          ;local_30      undefined4         -30                      ;XREF[2,0]:   0001dfdc,0001e09e
          ;local_34      undefined4         -34                      ;XREF[4,0]:   0001df36,0001e094,0001e09c,0001e10c
          ;local_3c      undefined4         -3c                      ;XREF[4,0]:   0001dfec,0001e082,0001e150,0001e156
                                                          ;XREF[0,1]:   0001b058
ram:0001df24    f0b5            push        {r4,r5,r6,r7,lr}                        
ram:0001df26    de46            mov         lr,r11                                  
ram:0001df28    5746            mov         r7,r10                                  
ram:0001df2a    4e46            mov         r6,r9                                   
ram:0001df2c    4546            mov         r5,r8                                   
ram:0001df2e    0021            movs        r1,#0x0                                 
ram:0001df30    e0b5            push        {r5,r6,r7,lr}                           
ram:0001df32    8c4a            ldr         r2,[DAT_0001e164]                       ;= 40006100h
ram:0001df34    87b0            sub         sp,#0x1c                                
ram:0001df36    0391            str         r1,[sp,#local_34+0x40]                  
ram:0001df38    1368            ldr         r3,[r2,#0x0]=>DAT_40006100              
ram:0001df3a    0024            movs        r4,#0x0                                 
ram:0001df3c    012b            cmp         r3,#0x1                                 
ram:0001df3e    00d1            bne         LAB_0001df42                            
ram:0001df40    b0e0            b           LAB_0001e0a4                            
                            LAB_0001df42:                 ;XREF[2,0]:   0001df3e,0001e0b0
ram:0001df42    894b            ldr         r3,[DAT_0001e168]                       ;= 40006104h
ram:0001df44    1a68            ldr         r2,[r3,#0x0]=>DAT_40006104              
ram:0001df46    012a            cmp         r2,#0x1                                 
ram:0001df48    00d1            bne         LAB_0001df4c                            
ram:0001df4a    b8e0            b           LAB_0001e0be                            
                            LAB_0001df4c:                 ;XREF[3,0]:   0001df48,0001e0bc,0001e0cc
ram:0001df4c    874b            ldr         r3,[DAT_0001e16c]                       ;= 40006108h
ram:0001df4e    1a68            ldr         r2,[r3,#0x0]=>DAT_40006108              
ram:0001df50    012a            cmp         r2,#0x1                                 
ram:0001df52    00d1            bne         LAB_0001df56                            
ram:0001df54    c3e0            b           LAB_0001e0de                            
                            LAB_0001df56:                 ;XREF[4,0]:   0001df52,0001e0dc,0001e0ec,0001e0f4
ram:0001df56    864b            ldr         r3,[DAT_0001e170]                       ;= 4000610Ch
ram:0001df58    1a68            ldr         r2,[r3,#0x0]=>DAT_4000610c              
ram:0001df5a    012a            cmp         r2,#0x1                                 
ram:0001df5c    0fd0            beq         LAB_0001df7e                            
                            LAB_0001df5e:                 ;XREF[1,0]:   0001df8a
ram:0001df5e    854b            ldr         r3,[DAT_0001e174]                       ;= 4000617Ch
ram:0001df60    1b68            ldr         r3,[r3,#0x0]=>DAT_4000617c              
ram:0001df62    012b            cmp         r3,#0x1                                 
ram:0001df64    00d1            bne         LAB_0001df68                            
ram:0001df66    c6e0            b           LAB_0001e0f6                            
                            LAB_0001df68:                 ;XREF[2,0]:   0001df64,0001e10e
ram:0001df68    2307            lsls        r3,r4,#0x1c                             
ram:0001df6a    17d1            bne         LAB_0001df9c                            
ram:0001df6c    002c            cmp         r4,#0x0                                 
ram:0001df6e    34db            blt         LAB_0001dfda                            
                            LAB_0001df70:                 ;XREF[3,0]:   0001dfd8,0001e088,0001e09a
ram:0001df70    07b0            add         sp,#0x1c                                
ram:0001df72    3cbc            pop         {r2,r3,r4,r5}                           
ram:0001df74    9046            mov         r8,r2                                   
ram:0001df76    9946            mov         r9,r3                                   
ram:0001df78    a246            mov         r10,r4                                  
ram:0001df7a    ab46            mov         r11,r5                                  
ram:0001df7c    f0bd            pop         {r4,r5,r6,r7,pc}                        
                            LAB_0001df7e:                 ;XREF[1,0]:   0001df5c
ram:0001df7e    c122            movs        r2,#0xc1                                
ram:0001df80    7d49            ldr         r1,[DAT_0001e178]                       ;= 40006000h
ram:0001df82    9200            lsls        r2,r2,#0x2                              
ram:0001df84    8958            ldr         r1,[r1,r2]=>DAT_40006304                
ram:0001df86    0822            movs        r2,#0x8                                 
ram:0001df88    0a42            tst         r2,r1                                   
ram:0001df8a    e8d0            beq         LAB_0001df5e                            
ram:0001df8c    0021            movs        r1,#0x0                                 
ram:0001df8e    1960            str         r1,[r3,#0x0]=>DAT_4000610c              
ram:0001df90    784b            ldr         r3,[DAT_0001e174]                       ;= 4000617Ch
ram:0001df92    1443            orrs        r4,r2                                   
ram:0001df94    1b68            ldr         r3,[r3,#0x0]=>DAT_4000617c              
ram:0001df96    012b            cmp         r3,#0x1                                 
ram:0001df98    00d1            bne         LAB_0001df9c                            
ram:0001df9a    ace0            b           LAB_0001e0f6                            
                            LAB_0001df9c:                 ;XREF[2,0]:   0001df6a,0001df98
ram:0001df9c    1f23            movs        r3,#0x1f                                
ram:0001df9e    9946            mov         r9,r3                                   
ram:0001dfa0    764b            ldr         r3,[DAT_0001e17c]                       ;= 200028A0h
ram:0001dfa2    a227            movs        r7,#0xa2                                
ram:0001dfa4    0126            movs        r6,#0x1                                 
ram:0001dfa6    0025            movs        r5,#0x0                                 
ram:0001dfa8    9846            mov         r8,r3                                   
ram:0001dfaa    ff00            lsls        r7,r7,#0x3                              
                            LAB_0001dfac:                 ;XREF[1,0]:   0001dfd4
ram:0001dfac    3442            tst         r4,r6                                   
ram:0001dfae    0ed0            beq         LAB_0001dfce                            
ram:0001dfb0    4946            mov         r1,r9                                   
ram:0001dfb2    714a            ldr         r2,[DAT_0001e178]                       ;= 40006000h
ram:0001dfb4    ab00            lsls        r3,r5,#0x2                              
ram:0001dfb6    9a18            adds        r2,r3,r2                                
ram:0001dfb8    d059            ldr         r0,[r2,r7]=>DAT_40006510                
ram:0001dfba    000a            lsrs        r0,r0,#0x8                              
ram:0001dfbc    0840            ands        r0,r1                                   
ram:0001dfbe    d159            ldr         r1,[r2,r7]=>DAT_40006510                
ram:0001dfc0    4246            mov         r2=>DAT_200028a0,r8                     
ram:0001dfc2    d358            ldr         r3,[r2,r3]=>DAT_200028a0                
ram:0001dfc4    8903            lsls        r1,r1,#0xe                              
ram:0001dfc6    890f            lsrs        r1,r1,#0x1e                             
ram:0001dfc8    002b            cmp         r3,#0x0                                 
ram:0001dfca    00d0            beq         LAB_0001dfce                            
ram:0001dfcc    9847            blx         r3                                      
                            LAB_0001dfce:                 ;XREF[2,0]:   0001dfae,0001dfca
ram:0001dfce    0135            adds        r5,#0x1                                 
ram:0001dfd0    7600            lsls        r6,r6,#0x1                              
ram:0001dfd2    042d            cmp         r5,#0x4                                 
ram:0001dfd4    ead1            bne         LAB_0001dfac                            
ram:0001dfd6    002c            cmp         r4,#0x0                                 
ram:0001dfd8    cada            bge         LAB_0001df70                            
                            LAB_0001dfda:                 ;XREF[1,0]:   0001df6e
ram:0001dfda    0023            movs        r3,#0x0                                 
ram:0001dfdc    0493            str         r3,[sp,#local_30+0x40]                  
ram:0001dfde    013b            subs        r3,#0x1                                 
ram:0001dfe0    0593            str         r3,[sp,#local_2c+0x40]                  
ram:0001dfe2    c133            adds        r3,#0xc1                                
ram:0001dfe4    9846            mov         r8,r3                                   
ram:0001dfe6    654d            ldr         r5,[DAT_0001e17c]                       ;= 200028A0h
                            LAB_0001dfe8:                 ;XREF[1,0]:   0001e0a2
ram:0001dfe8    0023            movs        r3,#0x0                                 
ram:0001dfea    0024            movs        r4,#0x0                                 
ram:0001dfec    0193            str         r3,[sp,#local_3c+0x40]                  
ram:0001dfee    06e0            b           LAB_0001dffe                            
                            LAB_0001dff0:                 ;XREF[1,0]:   0001e068
ram:0001dff0    6346            mov         r3,r12                                  
ram:0001dff2    032b            cmp         r3,#0x3                                 
ram:0001dff4    00d1            bne         LAB_0001dff8                            
ram:0001dff6    99e0            b           LAB_0001e12c                            
                            LAB_0001dff8:                 ;XREF[6,0]:   0001dff4,0001e006,0001e022,0001e06e
                                                          ;             0001e078,0001e114
ram:0001dff8    0134            adds        r4,#0x1                                 
ram:0001dffa    082c            cmp         r4,#0x8                                 
ram:0001dffc    41d0            beq         LAB_0001e082                            
                            LAB_0001dffe:                 ;XREF[2,0]:   0001dfee,0001e080
ram:0001dffe    2300            movs        r3,r4                                   
ram:0001e000    5033            adds        r3,#0x50                                
                                                          ; FWD[2,0]:   200028f0,200028f1
ram:0001e002    e956            ldrsb       r1,[r5,r3]=>DAT_200028f0                
ram:0001e004    4b1c            adds        r3,r1,#0x1                              
ram:0001e006    f7d0            beq         LAB_0001dff8                            
ram:0001e008    c9b2            uxtb        r1,r1                                   
ram:0001e00a    4346            mov         r3,r8                                   
ram:0001e00c    0800            movs        r0,r1                                   
ram:0001e00e    9843            bics        r0,r3                                   
ram:0001e010    0723            movs        r3,#0x7                                 
ram:0001e012    0127            movs        r7,#0x1                                 
ram:0001e014    0b40            ands        r3,r1                                   
ram:0001e016    9f40            lsls        r7,r3                                   
ram:0001e018    3b00            movs        r3,r7                                   
ram:0001e01a    c208            lsrs        r2,r0,#0x3                              
ram:0001e01c    05af            add         r7,sp,#0x14                             
ram:0001e01e    bf5c            ldrb        r7,[r7,r2]                              
ram:0001e020    3b42            tst         r3,r7                                   
ram:0001e022    e9d0            beq         LAB_0001dff8                            
ram:0001e024    2f18            adds        r7,r5,r0                                
ram:0001e026    bc46            mov         r12,r7                                  
ram:0001e028    3027            movs        r7,#0x30                                
ram:0001e02a    b946            mov         r9,r7                                   
ram:0001e02c    cc44            add         r12,r9                                  
ram:0001e02e    6746            mov         r7,r12                                  
ram:0001e030    3f78            ldrb        r7,[r7,#0x0]=>DAT_200028d0              
ram:0001e032    8909            lsrs        r1,r1,#0x6                              
ram:0001e034    7fb2            sxtb        r7,r7                                   
ram:0001e036    bf00            lsls        r7,r7,#0x2                              
ram:0001e038    ef59            ldr         r7,[r5,r7]=>DAT_200028a0                
ram:0001e03a    b946            mov         r9,r7                                   
ram:0001e03c    002f            cmp         r7,#0x0                                 
ram:0001e03e    67d0            beq         LAB_0001e110                            
ram:0001e040    0329            cmp         r1,#0x3                                 
ram:0001e042    68d0            beq         LAB_0001e116                            
                            LAB_0001e044:                 ;XREF[1,0]:   0001e12a
ram:0001e044    8700            lsls        r7,r0,#0x2                              
ram:0001e046    ba46            mov         r10,r7                                  
ram:0001e048    a027            movs        r7,#0xa0                                
ram:0001e04a    ff05            lsls        r7,r7,#0x17                             
ram:0001e04c    bc46            mov         r12,r7                                  
ram:0001e04e    e027            movs        r7,#0xe0                                
ram:0001e050    ff00            lsls        r7,r7,#0x3                              
ram:0001e052    e244            add         r10,r12                                 
ram:0001e054    bc46            mov         r12,r7                                  
ram:0001e056    5746            mov         r7,r10                                  
ram:0001e058    6646            mov         r6,r12                                  
ram:0001e05a    be59            ldr         r6,[r7,r6]=>DAT_50000700                
ram:0001e05c    b603            lsls        r6,r6,#0xe                              
ram:0001e05e    b60f            lsrs        r6,r6,#0x1e                             
ram:0001e060    b446            mov         r12,r6                                  
ram:0001e062    03ae            add         r6,sp,#0xc                              
ram:0001e064    b25c            ldrb        r2,[r6,r2]                              
ram:0001e066    1342            tst         r3,r2                                   
ram:0001e068    c2d0            beq         LAB_0001dff0                            
ram:0001e06a    6346            mov         r3,r12                                  
ram:0001e06c    022b            cmp         r3,#0x2                                 
ram:0001e06e    c3d1            bne         LAB_0001dff8                            
ram:0001e070    0329            cmp         r1,#0x3                                 
ram:0001e072    72d0            beq         LAB_0001e15a                            
                            LAB_0001e074:                 ;XREF[2,0]:   0001e12e,0001e158
ram:0001e074    4b46            mov         r3,r9                                   
ram:0001e076    002b            cmp         r3,#0x0                                 
ram:0001e078    bed0            beq         LAB_0001dff8                            
ram:0001e07a    0134            adds        r4,#0x1                                 
ram:0001e07c    c847            blx         r9                                      
ram:0001e07e    082c            cmp         r4,#0x8                                 
ram:0001e080    bdd1            bne         LAB_0001dffe                            
                            LAB_0001e082:                 ;XREF[1,0]:   0001dffc
ram:0001e082    019b            ldr         r3,[sp,#local_3c+0x40]                  
ram:0001e084    002b            cmp         r3,#0x0                                 
ram:0001e086    00d1            bne         LAB_0001e08a                            
ram:0001e088    72e7            b           LAB_0001df70                            
                            LAB_0001e08a:                 ;XREF[1,0]:   0001e086
ram:0001e08a    a022            movs        r2,#0xa0                                
ram:0001e08c    a223            movs        r3,#0xa2                                
ram:0001e08e    d205            lsls        r2,r2,#0x17                             
ram:0001e090    db00            lsls        r3,r3,#0x3                              
ram:0001e092    d358            ldr         r3,[r2,r3]=>DAT_50000510                
ram:0001e094    039a            ldr         r2,[sp,#local_34+0x40]                  
ram:0001e096    9342            cmp         r3,r2                                   
ram:0001e098    00d1            bne         LAB_0001e09c                            
ram:0001e09a    69e7            b           LAB_0001df70                            
                            LAB_0001e09c:                 ;XREF[1,0]:   0001e098
ram:0001e09c    0393            str         r3,[sp,#local_34+0x40]                  
ram:0001e09e    049b            ldr         r3,[sp,#local_30+0x40]                  
ram:0001e0a0    0593            str         r3,[sp,#local_2c+0x40]                  
ram:0001e0a2    a1e7            b           LAB_0001dfe8                            
                            LAB_0001e0a4:                 ;XREF[1,0]:   0001df40
ram:0001e0a4    c120            movs        r0,#0xc1                                
ram:0001e0a6    344c            ldr         r4,[DAT_0001e178]                       ;= 40006000h
ram:0001e0a8    8000            lsls        r0,r0,#0x2                              
ram:0001e0aa    2458            ldr         r4,[r4,r0]=>DAT_40006304                
ram:0001e0ac    1c40            ands        r4,r3                                   
ram:0001e0ae    00d1            bne         LAB_0001e0b2                            
ram:0001e0b0    47e7            b           LAB_0001df42                            
                            LAB_0001e0b2:                 ;XREF[1,0]:   0001e0ae
ram:0001e0b2    2d4b            ldr         r3,[DAT_0001e168]                       ;= 40006104h
ram:0001e0b4    1160            str         r1,[r2,#0x0]=>DAT_40006100              
ram:0001e0b6    1a68            ldr         r2,[r3,#0x0]=>DAT_40006104              
ram:0001e0b8    012a            cmp         r2,#0x1                                 
ram:0001e0ba    00d0            beq         LAB_0001e0be                            
ram:0001e0bc    46e7            b           LAB_0001df4c                            
                            LAB_0001e0be:                 ;XREF[2,0]:   0001df4a,0001e0ba
ram:0001e0be    c122            movs        r2,#0xc1                                
ram:0001e0c0    2d49            ldr         r1,[DAT_0001e178]                       ;= 40006000h
ram:0001e0c2    9200            lsls        r2,r2,#0x2                              
ram:0001e0c4    8958            ldr         r1,[r1,r2]=>DAT_40006304                
ram:0001e0c6    0222            movs        r2,#0x2                                 
ram:0001e0c8    0a42            tst         r2,r1                                   
ram:0001e0ca    00d1            bne         LAB_0001e0ce                            
ram:0001e0cc    3ee7            b           LAB_0001df4c                            
                            LAB_0001e0ce:                 ;XREF[1,0]:   0001e0ca
ram:0001e0ce    0021            movs        r1,#0x0                                 
ram:0001e0d0    1960            str         r1,[r3,#0x0]=>DAT_40006104              
ram:0001e0d2    264b            ldr         r3,[DAT_0001e16c]                       ;= 40006108h
ram:0001e0d4    1443            orrs        r4,r2                                   
ram:0001e0d6    1a68            ldr         r2,[r3,#0x0]=>DAT_40006108              
ram:0001e0d8    012a            cmp         r2,#0x1                                 
ram:0001e0da    00d0            beq         LAB_0001e0de                            
ram:0001e0dc    3be7            b           LAB_0001df56                            
                            LAB_0001e0de:                 ;XREF[2,0]:   0001df54,0001e0da
ram:0001e0de    c122            movs        r2,#0xc1                                
ram:0001e0e0    2549            ldr         r1,[DAT_0001e178]                       ;= 40006000h
ram:0001e0e2    9200            lsls        r2,r2,#0x2                              
ram:0001e0e4    8958            ldr         r1,[r1,r2]=>DAT_40006304                
ram:0001e0e6    0422            movs        r2,#0x4                                 
ram:0001e0e8    0a42            tst         r2,r1                                   
ram:0001e0ea    00d1            bne         LAB_0001e0ee                            
ram:0001e0ec    33e7            b           LAB_0001df56                            
                            LAB_0001e0ee:                 ;XREF[1,0]:   0001e0ea
ram:0001e0ee    0021            movs        r1,#0x0                                 
ram:0001e0f0    1443            orrs        r4,r2                                   
ram:0001e0f2    1960            str         r1,[r3,#0x0]=>DAT_40006108              
ram:0001e0f4    2fe7            b           LAB_0001df56                            
                            LAB_0001e0f6:                 ;XREF[2,0]:   0001df66,0001df9a
ram:0001e0f6    0022            movs        r2,#0x0                                 
ram:0001e0f8    1e4b            ldr         r3,[DAT_0001e174]                       ;= 4000617Ch
ram:0001e0fa    1a60            str         r2,[r3,#0x0]=>DAT_4000617c              
ram:0001e0fc    8023            movs        r3,#0x80                                
ram:0001e0fe    1b06            lsls        r3,r3,#0x18                             
ram:0001e100    1c43            orrs        r4,r3                                   
ram:0001e102    a022            movs        r2,#0xa0                                
ram:0001e104    a223            movs        r3,#0xa2                                
ram:0001e106    d205            lsls        r2,r2,#0x17                             
ram:0001e108    db00            lsls        r3,r3,#0x3                              
ram:0001e10a    d358            ldr         r3,[r2,r3]=>DAT_50000510                
ram:0001e10c    0393            str         r3,[sp,#local_34+0x40]                  
ram:0001e10e    2be7            b           LAB_0001df68                            
                            LAB_0001e110:                 ;XREF[1,0]:   0001e03e
ram:0001e110    0329            cmp         r1,#0x3                                 
ram:0001e112    00d0            beq         LAB_0001e116                            
ram:0001e114    70e7            b           LAB_0001dff8                            
                            LAB_0001e116:                 ;XREF[2,0]:   0001e042,0001e112
ram:0001e116    04ae            add         r6,sp,#0x10                             
ram:0001e118    b446            mov         r12,r6                                  
ram:0001e11a    9444            add         r12,r2                                  
ram:0001e11c    6646            mov         r6,r12                                  
ram:0001e11e    3678            ldrb        r6,[r6,#0x0]                            
ram:0001e120    1e43            orrs        r6,r3                                   
ram:0001e122    b246            mov         r10,r6                                  
ram:0001e124    6646            mov         r6,r12                                  
ram:0001e126    5746            mov         r7,r10                                  
ram:0001e128    3770            strb        r7,[r6,#0x0]                            
ram:0001e12a    8be7            b           LAB_0001e044                            
                            LAB_0001e12c:                 ;XREF[1,0]:   0001dff6
ram:0001e12c    0329            cmp         r1,#0x3                                 
ram:0001e12e    a1d1            bne         LAB_0001e074                            
ram:0001e130    8023            movs        r3,#0x80                                
ram:0001e132    9b02            lsls        r3,r3,#0xa                              
ram:0001e134    9c46            mov         r12,r3                                  
                            LAB_0001e136:                 ;XREF[1,0]:   0001e160
ram:0001e136    e023            movs        r3,#0xe0                                
ram:0001e138    5246            mov         r2,r10                                  
ram:0001e13a    db00            lsls        r3,r3,#0x3                              
ram:0001e13c    d258            ldr         r2,[r2,r3]=>DAT_50000700                
ram:0001e13e    104e            ldr         r6,[DAT_0001e180]                       ;= FFFCFFFFh
ram:0001e140    3240            ands        r2,r6                                   
ram:0001e142    5646            mov         r6,r10                                  
ram:0001e144    f250            str         r2,[r6,r3]=>DAT_50000700                
ram:0001e146    f258            ldr         r2,[r6,r3]=>DAT_50000700                
ram:0001e148    6646            mov         r6,r12                                  
ram:0001e14a    3243            orrs        r2,r6                                   
ram:0001e14c    5646            mov         r6,r10                                  
ram:0001e14e    f250            str         r2,[r6,r3]=>DAT_50000700                
ram:0001e150    019b            ldr         r3,[sp,#local_3c+0x40]                  
ram:0001e152    0133            adds        r3,#0x1                                 
ram:0001e154    dbb2            uxtb        r3,r3                                   
ram:0001e156    0193            str         r3,[sp,#local_3c+0x40]                  
ram:0001e158    8ce7            b           LAB_0001e074                            
                            LAB_0001e15a:                 ;XREF[1,0]:   0001e072
ram:0001e15a    c023            movs        r3,#0xc0                                
ram:0001e15c    9b02            lsls        r3,r3,#0xa                              
ram:0001e15e    9c46            mov         r12,r3                                  
ram:0001e160    e9e7            b           LAB_0001e136                            
ram:0001e162    c046            mov         r8,r8                                   
                            DAT_0001e164:                 ;XREF[1,0]:   0001df32
ram:0001e164    00610040        undefined4  40006100h                               
                            DAT_0001e168:                 ;XREF[2,0]:   0001df42,0001e0b2
ram:0001e168    04610040        undefined4  40006104h                               
                            DAT_0001e16c:                 ;XREF[2,0]:   0001df4c,0001e0d2
ram:0001e16c    08610040        undefined4  40006108h                               
                            DAT_0001e170:                 ;XREF[1,0]:   0001df56
ram:0001e170    0c610040        undefined4  4000610Ch                               
                            DAT_0001e174:                 ;XREF[3,0]:   0001df5e,0001df90,0001e0f8
ram:0001e174    7c610040        undefined4  4000617Ch                               
                            DAT_0001e178:                 ;XREF[5,0]:   0001df80,0001dfb2,0001e0a6,0001e0c0
                                                          ;             0001e0e0
ram:0001e178    00600040        undefined4  40006000h                               
                            DAT_0001e17c:                 ;XREF[2,0]:   0001dfa0,0001dfe6
ram:0001e17c    a0280020        undefined4  200028A0h                               
                            DAT_0001e180:                 ;XREF[1,0]:   0001e13e
ram:0001e180    fffffcff        undefined4  FFFCFFFFh                               
                            ;************************************************************************************************
                            ;*                                           FUNCTION                                           *
                            ;************************************************************************************************
                            ;undefined FUNC_VT_0001e184(void)
          ;local_14      undefined4         -14                      ;XREF[1,0]:   0001e1ca
          ;local_18      undefined1         -18                      ;XREF[5,0]:   0001e1d0,0001e202,0001e242,0001e29e,0001e300
          ;local_1c      undefined4         -1c                      ;XREF[5,0]:   0001e1d6,0001e20c,0001e248,0001e29a,0001e306
          ;local_20      undefined1         -20                      ;XREF[5,0]:   0001e1bc,0001e204,0001e240,0001e29c,0001e2fe
                                                          ;XREF[0,1]:   0001b048
ram:0001e184    c123            movs        r3,#0xc1                                
ram:0001e186    30b5            push        {r4,r5,lr}                              
ram:0001e188    614a            ldr         r2,[DAT_0001e310]                       ;= 40002000h
ram:0001e18a    9b00            lsls        r3,r3,#0x2                              
ram:0001e18c    d358            ldr         r3,[r2,r3]=>DAT_40002304                
ram:0001e18e    85b0            sub         sp,#0x14                                
ram:0001e190    9b05            lsls        r3,r3,#0x16                             
ram:0001e192    5ed5            bpl         LAB_0001e252                            
ram:0001e194    9223            movs        r3,#0x92                                
ram:0001e196    5b00            lsls        r3,r3,#0x1                              
ram:0001e198    d158            ldr         r1,[r2,r3]=>DAT_40002124                
ram:0001e19a    0029            cmp         r1,#0x0                                 
ram:0001e19c    59d0            beq         LAB_0001e252                            
ram:0001e19e    0021            movs        r1,#0x0                                 
ram:0001e1a0    d150            str         r1,[r2,r3]=>DAT_40002124                
ram:0001e1a2    8121            movs        r1,#0x81                                
ram:0001e1a4    e533            adds        r3,#0xe5                                
ram:0001e1a6    ff33            adds        r3,#0xff                                
ram:0001e1a8    8900            lsls        r1,r1,#0x2                              
ram:0001e1aa    d150            str         r1,[r2,r3]=>DAT_40002308                
ram:0001e1ac    594b            ldr         r3,[DAT_0001e314]                       ;= 200028FCh
ram:0001e1ae    997e            ldrb        r1,[r3,#0x1a]=>DAT_20002916             
ram:0001e1b0    0029            cmp         r1,#0x0                                 
ram:0001e1b2    01d1            bne         LAB_0001e1b8                            
ram:0001e1b4    0131            adds        r1,#0x1                                 
ram:0001e1b6    5160            str         r1,[r2,#offset DAT_40002004 &0xff]      
                            LAB_0001e1b8:                 ;XREF[1,0]:   0001e1b2
ram:0001e1b8    0222            movs        r2,#0x2                                 
ram:0001e1ba    6946            mov         r1,sp                                   
ram:0001e1bc    0a70            strb        r2,[r1,#0x0]=>local_20                  
ram:0001e1be    9021            movs        r1,#0x90                                
ram:0001e1c0    5348            ldr         r0,[DAT_0001e310]                       ;= 40002000h
ram:0001e1c2    c900            lsls        r1,r1,#0x3                              
ram:0001e1c4    4258            ldr         r2,[r0,r1]=>DAT_40002480                
ram:0001e1c6    4250            str         r2,[r0,r1]=>DAT_40002480                
ram:0001e1c8    6946            mov         r1,sp                                   
ram:0001e1ca    0392            str         r2,[sp,#local_14+0x20]                  
ram:0001e1cc    da7d            ldrb        r2,[r3,#0x17]=>DAT_20002913             
ram:0001e1ce    6846            mov         r0,sp                                   
ram:0001e1d0    0a72            strb        r2,[r1,#local_18+0x20]                  
ram:0001e1d2    da68            ldr         r2,[r3,#0xc]=>DAT_20002908              
ram:0001e1d4    1968            ldr         r1,[r3,#0x0]=>DAT_200028fc              
ram:0001e1d6    0192            str         r2,[sp,#local_1c+0x20]                  
ram:0001e1d8    0022            movs        r2,#0x0                                 
ram:0001e1da    da75            strb        r2,[r3,#0x17]=>DAT_20002913             
ram:0001e1dc    1a76            strb        r2,[r3,#0x18]=>DAT_20002914             
ram:0001e1de    5b68            ldr         r3,[r3,#0x4]=>DAT_20002900              
ram:0001e1e0    9847            blx         r3                                      
                            LAB_0001e1e2:                 ;XREF[5,0]:   0001e25c,0001e266,0001e27c,0001e2a6
                                                          ;             0001e30c
ram:0001e1e2    8e21            movs        r1,#0x8e                                
ram:0001e1e4    4a4a            ldr         r2,[DAT_0001e310]                       ;= 40002000h
ram:0001e1e6    4900            lsls        r1,r1,#0x1                              
ram:0001e1e8    5358            ldr         r3,[r2,r1]=>DAT_4000211c                
ram:0001e1ea    002b            cmp         r3,#0x0                                 
ram:0001e1ec    12d0            beq         LAB_0001e214                            
ram:0001e1ee    494b            ldr         r3,[DAT_0001e314]                       ;= 200028FCh
ram:0001e1f0    9c8a            ldrh        r4,[r3,#0x14]=>DAT_20002910             
ram:0001e1f2    987d            ldrb        r0,[r3,#0x16]=>DAT_20002912             
ram:0001e1f4    8442            cmp         r4,r0                                   
ram:0001e1f6    57d3            bcc         LAB_0001e2a8                            
ram:0001e1f8    0024            movs        r4,#0x0                                 
ram:0001e1fa    5450            str         r4,[r2,r1]=>DAT_4000211c                
ram:0001e1fc    0028            cmp         r0,#0x0                                 
ram:0001e1fe    09d0            beq         LAB_0001e214                            
ram:0001e200    6a46            mov         r2,sp                                   
ram:0001e202    1072            strb        r0,[r2,#local_18+0x20]                  
ram:0001e204    1470            strb        r4,[r2,#0x0]=>local_20                  
ram:0001e206    9a68            ldr         r2,[r3,#0x8]=>DAT_20002904              
ram:0001e208    9c75            strb        r4,[r3,#0x16]=>DAT_20002912             
ram:0001e20a    1968            ldr         r1,[r3,#0x0]=>DAT_200028fc              
ram:0001e20c    0192            str         r2,[sp,#local_1c+0x20]                  
ram:0001e20e    5b68            ldr         r3,[r3,#0x4]=>DAT_20002900              
ram:0001e210    6846            mov         r0,sp                                   
ram:0001e212    9847            blx         r3                                      
                            LAB_0001e214:                 ;XREF[3,0]:   0001e1ec,0001e1fe,0001e2be
ram:0001e214    a223            movs        r3,#0xa2                                
ram:0001e216    3e4a            ldr         r2,[DAT_0001e310]                       ;= 40002000h
ram:0001e218    5b00            lsls        r3,r3,#0x1                              
ram:0001e21a    d158            ldr         r1,[r2,r3]=>DAT_40002144                
ram:0001e21c    0029            cmp         r1,#0x0                                 
ram:0001e21e    16d0            beq         LAB_0001e24e                            
ram:0001e220    0021            movs        r1,#0x0                                 
ram:0001e222    d150            str         r1,[r2,r3]=>DAT_40002144                
ram:0001e224    3b4b            ldr         r3,[DAT_0001e314]                       ;= 200028FCh
ram:0001e226    997e            ldrb        r1,[r3,#0x1a]=>DAT_20002916             
ram:0001e228    0029            cmp         r1,#0x0                                 
ram:0001e22a    01d0            beq         LAB_0001e230                            
ram:0001e22c    0121            movs        r1,#0x1                                 
ram:0001e22e    1160            str         r1,[r2,#0x0]=>DAT_40002000              
                            LAB_0001e230:                 ;XREF[1,0]:   0001e22a
ram:0001e230    da7d            ldrb        r2,[r3,#0x17]=>DAT_20002913             
ram:0001e232    002a            cmp         r2,#0x0                                 
ram:0001e234    0bd0            beq         LAB_0001e24e                            
ram:0001e236    0022            movs        r2,#0x0                                 
ram:0001e238    6846            mov         r0,sp                                   
ram:0001e23a    0121            movs        r1,#0x1                                 
ram:0001e23c    da75            strb        r2,[r3,#0x17]=>DAT_20002913             
ram:0001e23e    5a7e            ldrb        r2,[r3,#0x19]=>DAT_20002915             
ram:0001e240    0170            strb        r1,[r0,#0x0]=>local_20                  
ram:0001e242    0272            strb        r2,[r0,#local_18+0x20]                  
ram:0001e244    da68            ldr         r2,[r3,#0xc]=>DAT_20002908              
ram:0001e246    1968            ldr         r1,[r3,#0x0]=>DAT_200028fc              
ram:0001e248    0192            str         r2,[sp,#local_1c+0x20]                  
ram:0001e24a    5b68            ldr         r3,[r3,#0x4]=>DAT_20002900              
ram:0001e24c    9847            blx         r3                                      
                            LAB_0001e24e:                 ;XREF[2,0]:   0001e21e,0001e234
ram:0001e24e    05b0            add         sp,#0x14                                
ram:0001e250    30bd            pop         {r4,r5,pc}                              
                            LAB_0001e252:                 ;XREF[2,0]:   0001e192,0001e19c
ram:0001e252    c123            movs        r3,#0xc1                                
ram:0001e254    2e4a            ldr         r2,[DAT_0001e310]                       ;= 40002000h
ram:0001e256    9b00            lsls        r3,r3,#0x2                              
ram:0001e258    d358            ldr         r3,[r2,r3]=>DAT_40002304                
ram:0001e25a    5b07            lsls        r3,r3,#0x1d                             
ram:0001e25c    c1d5            bpl         LAB_0001e1e2                            
ram:0001e25e    8421            movs        r1,#0x84                                
ram:0001e260    4900            lsls        r1,r1,#0x1                              
ram:0001e262    5358            ldr         r3,[r2,r1]=>DAT_40002108                
ram:0001e264    002b            cmp         r3,#0x0                                 
ram:0001e266    bcd0            beq         LAB_0001e1e2                            
ram:0001e268    2a4b            ldr         r3,[DAT_0001e314]                       ;= 200028FCh
ram:0001e26a    d87d            ldrb        r0,[r3,#0x17]=>DAT_20002913             
ram:0001e26c    0028            cmp         r0,#0x0                                 
ram:0001e26e    27d1            bne         LAB_0001e2c0                            
ram:0001e270    5050            str         r0,[r2,r1]=>DAT_40002108                
ram:0001e272    a321            movs        r1,#0xa3                                
ram:0001e274    c900            lsls        r1,r1,#0x3                              
ram:0001e276    5258            ldr         r2,[r2,r1]=>DAT_40002518                
                            LAB_0001e278:                 ;XREF[1,0]:   0001e2da
ram:0001e278    5a7e            ldrb        r2,[r3,#0x19]=>DAT_20002915             
ram:0001e27a    8242            cmp         r2,r0                                   
ram:0001e27c    b1d1            bne         LAB_0001e1e2                            
ram:0001e27e    1a7e            ldrb        r2,[r3,#0x18]=>DAT_20002914             
ram:0001e280    1968            ldr         r1,[r3,#0x0]=>DAT_200028fc              
ram:0001e282    002a            cmp         r2,#0x0                                 
ram:0001e284    2ad0            beq         LAB_0001e2dc                            
ram:0001e286    da75            strb        r2,[r3,#0x17]=>DAT_20002913             
ram:0001e288    1a69            ldr         r2,[r3,#0x10]=>DAT_2000290c             
ram:0001e28a    d868            ldr         r0,[r3,#0xc]=>DAT_20002908              
ram:0001e28c    da60            str         r2,[r3,#0xc]=>DAT_20002908              
ram:0001e28e    0022            movs        r2,#0x0                                 
ram:0001e290    6d46            mov         r5,sp                                   
ram:0001e292    5c7e            ldrb        r4,[r3,#0x19]=>DAT_20002915             
ram:0001e294    1a76            strb        r2,[r3,#0x18]=>DAT_20002914             
ram:0001e296    5a76            strb        r2,[r3,#0x19]=>DAT_20002915             
ram:0001e298    0132            adds        r2,#0x1                                 
ram:0001e29a    0190            str         r0,[sp,#local_1c+0x20]                  
ram:0001e29c    2a70            strb        r2,[r5,#0x0]=>local_20                  
ram:0001e29e    2c72            strb        r4,[r5,#local_18+0x20]                  
ram:0001e2a0    5b68            ldr         r3,[r3,#0x4]=>DAT_20002900              
ram:0001e2a2    6846            mov         r0,sp                                   
ram:0001e2a4    9847            blx         r3                                      
ram:0001e2a6    9ce7            b           LAB_0001e1e2                            
                            LAB_0001e2a8:                 ;XREF[1,0]:   0001e1f6
ram:0001e2a8    0020            movs        r0,#0x0                                 
ram:0001e2aa    5050            str         r0,[r2,r1]=>DAT_4000211c                
ram:0001e2ac    998a            ldrh        r1,[r3,#0x14]=>DAT_20002910             
ram:0001e2ae    9868            ldr         r0,[r3,#0x8]=>DAT_20002904              
ram:0001e2b0    405c            ldrb        r0,[r0,r1]                              
ram:0001e2b2    998a            ldrh        r1,[r3,#0x14]=>DAT_20002910             
ram:0001e2b4    0131            adds        r1,#0x1                                 
ram:0001e2b6    89b2            uxth        r1,r1                                   
ram:0001e2b8    9982            strh        r1,[r3,#0x14]=>DAT_20002910             
ram:0001e2ba    174b            ldr         r3,[DAT_0001e318]                       ;= 0000051Ch
ram:0001e2bc    d050            str         r0,[r2,r3]=>DAT_4000251c                
ram:0001e2be    a9e7            b           LAB_0001e214                            
                            LAB_0001e2c0:                 ;XREF[1,0]:   0001e26e
ram:0001e2c0    0020            movs        r0,#0x0                                 
ram:0001e2c2    5050            str         r0,[r2,r1]=>DAT_40002108                
ram:0001e2c4    a320            movs        r0,#0xa3                                
ram:0001e2c6    c000            lsls        r0,r0,#0x3                              
ram:0001e2c8    597e            ldrb        r1,[r3,#0x19]=>DAT_20002915             
ram:0001e2ca    1258            ldr         r2,[r2,r0]=>DAT_40002518                
ram:0001e2cc    d868            ldr         r0,[r3,#0xc]=>DAT_20002908              
ram:0001e2ce    4254            strb        r2,[r0,r1]                              
ram:0001e2d0    5a7e            ldrb        r2,[r3,#0x19]=>DAT_20002915             
ram:0001e2d2    d87d            ldrb        r0,[r3,#0x17]=>DAT_20002913             
ram:0001e2d4    0132            adds        r2,#0x1                                 
ram:0001e2d6    d2b2            uxtb        r2,r2                                   
ram:0001e2d8    5a76            strb        r2,[r3,#0x19]=>DAT_20002915             
ram:0001e2da    cde7            b           LAB_0001e278                            
                            LAB_0001e2dc:                 ;XREF[1,0]:   0001e284
ram:0001e2dc    9a7e            ldrb        r2,[r3,#0x1a]=>DAT_20002916             
ram:0001e2de    002a            cmp         r2,#0x0                                 
ram:0001e2e0    02d1            bne         LAB_0001e2e8                            
ram:0001e2e2    0120            movs        r0,#0x1                                 
ram:0001e2e4    0a4a            ldr         r2,[DAT_0001e310]                       ;= 40002000h
ram:0001e2e6    5060            str         r0,[r2,#offset DAT_40002004 &0xff]      
                            LAB_0001e2e8:                 ;XREF[1,0]:   0001e2e0
ram:0001e2e8    c222            movs        r2,#0xc2                                
ram:0001e2ea    8124            movs        r4,#0x81                                
ram:0001e2ec    0848            ldr         r0,[DAT_0001e310]                       ;= 40002000h
ram:0001e2ee    9200            lsls        r2,r2,#0x2                              
ram:0001e2f0    a400            lsls        r4,r4,#0x2                              
ram:0001e2f2    8450            str         r4,[r0,r2]=>DAT_40002308                
ram:0001e2f4    0022            movs        r2,#0x0                                 
ram:0001e2f6    6c46            mov         r4,sp                                   
ram:0001e2f8    0120            movs        r0,#0x1                                 
ram:0001e2fa    da75            strb        r2,[r3,#0x17]=>DAT_20002913             
ram:0001e2fc    5a7e            ldrb        r2,[r3,#0x19]=>DAT_20002915             
ram:0001e2fe    2070            strb        r0,[r4,#0x0]=>local_20                  
ram:0001e300    2272            strb        r2,[r4,#local_18+0x20]                  
ram:0001e302    da68            ldr         r2,[r3,#0xc]=>DAT_20002908              
ram:0001e304    6846            mov         r0,sp                                   
ram:0001e306    0192            str         r2,[sp,#local_1c+0x20]                  
ram:0001e308    5b68            ldr         r3,[r3,#0x4]=>DAT_20002900              
ram:0001e30a    9847            blx         r3                                      
ram:0001e30c    69e7            b           LAB_0001e1e2                            
ram:0001e30e    c046            mov         r8,r8                                   
                            DAT_0001e310:                 ;XREF[7,0]:   0001e188,0001e1c0,0001e1e4,0001e216
                                                          ;             0001e254,0001e2e4,0001e2ec
ram:0001e310    00200040        undefined4  40002000h                               
                            DAT_0001e314:                 ;XREF[4,0]:   0001e1ac,0001e1ee,0001e224,0001e268
ram:0001e314    fc280020        undefined4  200028FCh                               
                            DAT_0001e318:                 ;XREF[1,0]:   0001e2ba
ram:0001e318    1c050000        undefined4  0000051Ch                               
                            ;************************************************************************************************
                            ;*                                           FUNCTION                                           *
                            ;************************************************************************************************
                            ;undefined FUN_0001e31c(byte * param_1)
          ;param_1       byte *              r0                      
                                                          ;XREF[1,0]:   0001bb16
ram:0001e31c    f0b5            push        {r4,r5,r6,r7,lr}                        
ram:0001e31e    0326            movs        r6,#0x3                                 
ram:0001e320    1c25            movs        r5,#0x1c                                
ram:0001e322    0378            ldrb        r3,[param_1,#0x0]                       
ram:0001e324    4468            ldr         r4,[param_1,#0x4]                       
ram:0001e326    1e40            ands        r6,r3                                   
ram:0001e328    4378            ldrb        r3,[param_1,#0x1]                       
ram:0001e32a    0e49            ldr         r1,[DAT_0001e364]                       ;= 40007000h
ram:0001e32c    0e48            ldr         param_1,[DAT_0001e368]                  ;= 00000504h
ram:0001e32e    9b00            lsls        r3,r3,#0x2                              
ram:0001e330    1d40            ands        r5,r3                                   
ram:0001e332    0e4a            ldr         r2,[DAT_0001e36c]                       ;= FFFF00FFh
ram:0001e334    0b58            ldr         r3,[r1,param_1]=>DAT_40007504           
ram:0001e336    ff27            movs        r7,#0xff                                
ram:0001e338    1340            ands        r3,r2                                   
ram:0001e33a    0b50            str         r3,[r1,param_1]=>DAT_40007504           
ram:0001e33c    a023            movs        r3,#0xa0                                
ram:0001e33e    0022            movs        r2,#0x0                                 
ram:0001e340    db00            lsls        r3,r3,#0x3                              
ram:0001e342    ca50            str         r2,[r1,r3]=>DAT_40007500                
ram:0001e344    c022            movs        r2,#0xc0                                
ram:0001e346    0b58            ldr         r3,[r1,param_1]=>DAT_40007504           
ram:0001e348    3f02            lsls        r7,r7,#0x8                              
ram:0001e34a    9202            lsls        r2,r2,#0xa                              
ram:0001e34c    2240            ands        r2,r4                                   
ram:0001e34e    3b40            ands        r3,r7                                   
ram:0001e350    1343            orrs        r3,r2                                   
ram:0001e352    6022            movs        r2,#0x60                                
ram:0001e354    6401            lsls        r4,r4,#0x5                              
ram:0001e356    3343            orrs        r3,r6                                   
ram:0001e358    1440            ands        r4,r2                                   
ram:0001e35a    2343            orrs        r3,r4                                   
ram:0001e35c    2b43            orrs        r3,r5                                   
ram:0001e35e    0b50            str         r3,[r1,param_1]=>DAT_40007504           
ram:0001e360    f0bd            pop         {r4,r5,r6,r7,pc}                        
ram:0001e362    c046            mov         r8,r8                                   
                            DAT_0001e364:                 ;XREF[1,0]:   0001e32a
ram:0001e364    00700040        undefined4  40007000h                               
                            DAT_0001e368:                 ;XREF[1,0]:   0001e32c
ram:0001e368    04050000        undefined4  00000504h                               
                            DAT_0001e36c:                 ;XREF[1,0]:   0001e332
ram:0001e36c    ff00ffff        undefined4  FFFF00FFh                               
                            ;************************************************************************************************
                            ;*                                           FUNCTION                                           *
                            ;************************************************************************************************
                            ;undefined4 FUN_0001e370(int param_1)
          ;param_1       int                 r0                      
                                                          ;XREF[1,0]:   0001badc
ram:0001e370    30b5            push        {r4,r5,lr}                              
ram:0001e372    104b            ldr         r3,[DAT_0001e3b4]                       ;= 40007000h
ram:0001e374    104c            ldr         r4,[DAT_0001e3b8]                       ;= 00000504h
ram:0001e376    114d            ldr         r5,[DAT_0001e3bc]                       ;= FFFF00FFh
ram:0001e378    1959            ldr         r1,[r3,r4]=>DAT_40007504                
ram:0001e37a    0202            lsls        r2,param_1,#0x8                         
ram:0001e37c    2940            ands        r1,r5                                   
ram:0001e37e    0a43            orrs        r2,r1                                   
ram:0001e380    1a51            str         r2,[r3,r4]=>DAT_40007504                
ram:0001e382    a022            movs        r2,#0xa0                                
ram:0001e384    d200            lsls        r2,r2,#0x3                              
ram:0001e386    0028            cmp         param_1,#0x0                            
ram:0001e388    11d0            beq         LAB_0001e3ae                            
ram:0001e38a    0121            movs        r1,#0x1                                 
ram:0001e38c    9950            str         r1,[r3,r2]=>DAT_40007500                
                            LAB_0001e38e:                 ;XREF[1,0]:   0001e3b0
ram:0001e38e    0122            movs        r2,#0x1                                 
ram:0001e390    8021            movs        r1,#0x80                                
ram:0001e392    084b            ldr         r3,[DAT_0001e3b4]                       ;= 40007000h
ram:0001e394    4900            lsls        r1,r1,#0x1                              
ram:0001e396    1a60            str         r2,[r3,#0x0]=>DAT_40007000              
                            LAB_0001e398:                 ;XREF[1,0]:   0001e39c
ram:0001e398    5a58            ldr         r2,[r3,r1]=>DAT_40007100                
ram:0001e39a    002a            cmp         r2,#0x0                                 
ram:0001e39c    fcd0            beq         LAB_0001e398                            
ram:0001e39e    0022            movs        r2,#0x0                                 
ram:0001e3a0    5a50            str         r2,[r3,r1]=>DAT_40007100                
ram:0001e3a2    a122            movs        r2,#0xa1                                
ram:0001e3a4    d200            lsls        r2,r2,#0x3                              
ram:0001e3a6    9858            ldr         param_1,[r3,r2]=>DAT_40007508           
ram:0001e3a8    0122            movs        r2,#0x1                                 
ram:0001e3aa    5a60            str         r2,[r3,#offset DAT_40007004 &0xff]      
ram:0001e3ac    30bd            pop         {r4,r5,pc}                              
                            LAB_0001e3ae:                 ;XREF[1,0]:   0001e388
ram:0001e3ae    9850            str         param_1,[r3,r2]=>DAT_40007500           
ram:0001e3b0    ede7            b           LAB_0001e38e                            
ram:0001e3b2    c046            mov         r8,r8                                   
                            DAT_0001e3b4:                 ;XREF[2,0]:   0001e372,0001e392
ram:0001e3b4    00700040        undefined4  40007000h                               
                            DAT_0001e3b8:                 ;XREF[1,0]:   0001e374
ram:0001e3b8    04050000        undefined4  00000504h                               
                            DAT_0001e3bc:                 ;XREF[1,0]:   0001e376
ram:0001e3bc    ff00ffff        undefined4  FFFF00FFh                               
                            ;************************************************************************************************
                            ;*                                           FUNCTION                                           *
                            ;************************************************************************************************
                            ;undefined FUNC_VT_0001e3c0(void)
                                                          ;XREF[0,1]:   0001b084
ram:0001e3c0    a021            movs        r1,#0xa0                                
ram:0001e3c2    f0b5            push        {r4,r5,r6,r7,lr}                        
ram:0001e3c4    0023            movs        r3,#0x0                                 
ram:0001e3c6    c646            mov         lr,r8                                   
ram:0001e3c8    2b4a            ldr         r2,[DAT_0001e478]                       ;= 40011000h
ram:0001e3ca    4900            lsls        r1,r1,#0x1                              
ram:0001e3cc    00b5            push        {lr}                                    
ram:0001e3ce    5350            str         r3,[r2,r1]=>DAT_40011140                
ram:0001e3d0    0431            adds        r1,#0x4                                 
ram:0001e3d2    5350            str         r3,[r2,r1]=>DAT_40011144                
ram:0001e3d4    0431            adds        r1,#0x4                                 
ram:0001e3d6    5350            str         r3,[r2,r1]=>DAT_40011148                
ram:0001e3d8    0431            adds        r1,#0x4                                 
ram:0001e3da    5350            str         r3,[r2,r1]=>DAT_4001114c                
ram:0001e3dc    4c39            subs        r1,#0x4c                                
ram:0001e3de    5350            str         r3,[r2,r1]=>DAT_40011100                
ram:0001e3e0    0431            adds        r1,#0x4                                 
ram:0001e3e2    5350            str         r3,[r2,r1]=>DAT_40011104                
ram:0001e3e4    254b            ldr         r3,[DAT_0001e47c]                       ;= 20002938h
ram:0001e3e6    1b68            ldr         r3,[r3,#0x0]=>DAT_20002938              
ram:0001e3e8    002b            cmp         r3,#0x0                                 
ram:0001e3ea    35d0            beq         LAB_0001e458                            
ram:0001e3ec    2449            ldr         r1,[DAT_0001e480]                       ;= 00000504h
ram:0001e3ee    0026            movs        r6,#0x0                                 
ram:0001e3f0    5458            ldr         r4,[r2,r1]=>DAT_40011504                
ram:0001e3f2    244a            ldr         r2,[DAT_0001e484]                       ;= 20002934h
ram:0001e3f4    244f            ldr         r7,[DAT_0001e488]                       ;= 20002918h
ram:0001e3f6    1268            ldr         r2,[r2,#0x0]=>DAT_20002934              
ram:0001e3f8    a41a            subs        r4,r4,r2                                
ram:0001e3fa    0022            movs        r2,#0x0                                 
ram:0001e3fc    2402            lsls        r4,r4,#0x8                              
ram:0001e3fe    240a            lsrs        r4,r4,#0x8                              
ram:0001e400    9046            mov         r8,r2                                   
ram:0001e402    02e0            b           LAB_0001e40a                            
                            LAB_0001e404:                 ;XREF[3,0]:   0001e41a,0001e430,0001e46e
ram:0001e404    002d            cmp         r5,#0x0                                 
ram:0001e406    18d0            beq         LAB_0001e43a                            
                            LAB_0001e408:                 ;XREF[1,0]:   0001e438
ram:0001e408    2b00            movs        r3,r5                                   
                            LAB_0001e40a:                 ;XREF[1,0]:   0001e402
ram:0001e40a    1a68            ldr         r2,[r3,#0x0]                            
ram:0001e40c    a242            cmp         r2,r4                                   
ram:0001e40e    14d8            bhi         LAB_0001e43a                            
ram:0001e410    a41a            subs        r4,r4,r2                                
ram:0001e412    b618            adds        r6,r6,r2                                
ram:0001e414    1a7c            ldrb        r2,[r3,#0x10]                           
ram:0001e416    dd69            ldr         r5,[r3,#0x1c]                           
ram:0001e418    002a            cmp         r2,#0x0                                 
ram:0001e41a    f3d0            beq         LAB_0001e404                            
ram:0001e41c    4246            mov         r2,r8                                   
ram:0001e41e    9969            ldr         r1,[r3,#0x18]                           
ram:0001e420    1a74            strb        r2,[r3,#0x10]                           
ram:0001e422    5a69            ldr         r2,[r3,#0x14]                           
ram:0001e424    3b68            ldr         r3,[r7,#0x0]=>DAT_20002918              
ram:0001e426    002b            cmp         r3,#0x0                                 
ram:0001e428    1fd0            beq         LAB_0001e46a                            
ram:0001e42a    1000            movs        r0,r2                                   
ram:0001e42c    9847            blx         r3                                      
ram:0001e42e    0028            cmp         r0,#0x0                                 
ram:0001e430    e8d0            beq         LAB_0001e404                            
ram:0001e432    00f0f1fb        bl          FUN_0001ec18                            ;undefined FUN_0001ec18(void)
ram:0001e436    002d            cmp         r5,#0x0                                 
ram:0001e438    e6d1            bne         LAB_0001e408                            
                            LAB_0001e43a:                 ;XREF[2,0]:   0001e406,0001e40e
ram:0001e43a    1449            ldr         r1,[DAT_0001e48c]                       ;= 20002931h
ram:0001e43c    144a            ldr         r2,[DAT_0001e490]                       ;= 20002930h
ram:0001e43e    0b78            ldrb        r3,[r1,#0x0]=>DAT_20002931              
ram:0001e440    1278            ldrb        r2,[r2,#0x0]=>DAT_20002930              
ram:0001e442    9a42            cmp         r2,r3                                   
ram:0001e444    0bd0            beq         LAB_0001e45e                            
                            LAB_0001e446:                 ;XREF[2,0]:   0001e468,0001e474
ram:0001e446    134a            ldr         r2,[DAT_0001e494]                       ;= 20002928h
ram:0001e448    9b00            lsls        r3,r3,#0x2                              
ram:0001e44a    9e50            str         r6,[r3,r2]=>DAT_20002928                
ram:0001e44c    8021            movs        r1,#0x80                                
ram:0001e44e    8023            movs        r3,#0x80                                
ram:0001e450    114a            ldr         r2,[DAT_0001e498]                       ;= E000E100h
ram:0001e452    5b00            lsls        r3,r3,#0x1                              
ram:0001e454    4903            lsls        r1,r1,#0xd                              
ram:0001e456    d150            str         r1,[r2,r3]=>DAT_e000e200                
                            LAB_0001e458:                 ;XREF[1,0]:   0001e3ea
ram:0001e458    04bc            pop         {r2}                                    
ram:0001e45a    9046            mov         r8,r2                                   
ram:0001e45c    f0bd            pop         {r4,r5,r6,r7,pc}                        
                            LAB_0001e45e:                 ;XREF[1,0]:   0001e444
ram:0001e45e    0132            adds        r2,#0x1                                 
ram:0001e460    d3b2            uxtb        r3,r2                                   
ram:0001e462    022b            cmp         r3,#0x2                                 
ram:0001e464    04d0            beq         LAB_0001e470                            
ram:0001e466    0b70            strb        r3,[r1,#0x0]=>DAT_20002931              
ram:0001e468    ede7            b           LAB_0001e446                            
                            LAB_0001e46a:                 ;XREF[1,0]:   0001e428
ram:0001e46a    0800            movs        r0,r1                                   
ram:0001e46c    9047            blx         r2                                      
ram:0001e46e    c9e7            b           LAB_0001e404                            
                            LAB_0001e470:                 ;XREF[1,0]:   0001e464
ram:0001e470    0023            movs        r3,#0x0                                 
ram:0001e472    0b70            strb        r3,[r1,#0x0]=>DAT_20002931              
ram:0001e474    e7e7            b           LAB_0001e446                            
ram:0001e476    c046            mov         r8,r8                                   
                            DAT_0001e478:                 ;XREF[1,0]:   0001e3c8
ram:0001e478    00100140        undefined4  40011000h                               
                            DAT_0001e47c:                 ;XREF[1,0]:   0001e3e4
ram:0001e47c    38290020        undefined4  20002938h                               
                            DAT_0001e480:                 ;XREF[1,0]:   0001e3ec
ram:0001e480    04050000        undefined4  00000504h                               
                            DAT_0001e484:                 ;XREF[1,0]:   0001e3f2
ram:0001e484    34290020        undefined4  20002934h                               
                            DAT_0001e488:                 ;XREF[1,0]:   0001e3f4
ram:0001e488    18290020        undefined4  20002918h                               
                            DAT_0001e48c:                 ;XREF[1,0]:   0001e43a
ram:0001e48c    31290020        undefined4  20002931h                               
                            DAT_0001e490:                 ;XREF[1,0]:   0001e43c
ram:0001e490    30290020        undefined4  20002930h                               
                            DAT_0001e494:                 ;XREF[1,0]:   0001e446
ram:0001e494    28290020        undefined4  20002928h                               
                            DAT_0001e498:                 ;XREF[1,0]:   0001e450
ram:0001e498    00e100e0        undefined4  E000E100h                               
                            ;************************************************************************************************
                            ;*                                           FUNCTION                                           *
                            ;************************************************************************************************
                            ;undefined FUNC_VT_0001e49c(void)
          ;local_2c      undefined4         -2c                      ;XREF[3,0]:   0001e508,0001e7a8,0001e934
          ;local_30      undefined4         -30                      ;XREF[3,0]:   0001e50c,0001e64c,0001e93c
          ;local_34      undefined4         -34                      ;XREF[9,0]:   0001e4da,0001e56e,0001e58c,0001e716,0001e7a2
                                                                     ;             0001e7ae,0001e830,0001e936,0001e952
          ;local_38      undefined4         -38                      ;XREF[6,0]:   0001e4e0,0001e56a,0001e582,0001e71e,0001e7b4
                                                                     ;             0001e81e
          ;local_3c      undefined4         -3c                      ;XREF[7,0]:   0001e592,0001e6a0,0001e6ac,0001e6e2,0001e6ec
                                                                     ;             0001e70c,0001e78c
          ;local_40      undefined4         -40                      ;XREF[3,0]:   0001e500,0001e522,0001e616
          ;local_44      undefined4         -44                      ;XREF[3,0]:   0001e4fa,0001e518,0001e60c
          ;local_48      undefined4         -48                      ;XREF[13,0]:  0001e512,0001e54e,0001e554,0001e586,0001e5d6
                                                                     ;             0001e5f6,0001e606,0001e63c,0001e684,0001e69a
                                                                     ;             0001e6a2,0001e6f0,0001e792
                                                          ;XREF[0,1]:   0001b090
ram:0001e49c    f0b5            push        {r4,r5,r6,r7,lr}                        
ram:0001e49e    4e46            mov         r6,r9                                   
ram:0001e4a0    de46            mov         lr,r11                                  
ram:0001e4a2    5746            mov         r7,r10                                  
ram:0001e4a4    4546            mov         r5,r8                                   
ram:0001e4a6    e0b5            push        {r5,r6,r7,lr}                           
ram:0001e4a8    c74b            ldr         r3,[DAT_0001e7c8]                       ;= 20002934h
ram:0001e4aa    c84a            ldr         r2,[DAT_0001e7cc]                       ;= 20002930h
ram:0001e4ac    1b68            ldr         r3,[r3,#0x0]=>DAT_20002934              
ram:0001e4ae    c849            ldr         r1,[DAT_0001e7d0]                       ;= 20002931h
ram:0001e4b0    9946            mov         r9,r3                                   
ram:0001e4b2    0978            ldrb        r1,[r1,#0x0]=>DAT_20002931              
ram:0001e4b4    1378            ldrb        r3,[r2,#0x0]=>DAT_20002930              
ram:0001e4b6    89b0            sub         sp,#0x24                                
ram:0001e4b8    9942            cmp         r1,r3                                   
ram:0001e4ba    00d1            bne         LAB_0001e4be                            
ram:0001e4bc    76e1            b           LAB_0001e7ac                            
                            LAB_0001e4be:                 ;XREF[1,0]:   0001e4ba
ram:0001e4be    0133            adds        r3,#0x1                                 
ram:0001e4c0    dbb2            uxtb        r3,r3                                   
ram:0001e4c2    022b            cmp         r3,#0x2                                 
ram:0001e4c4    00d1            bne         LAB_0001e4c8                            
ram:0001e4c6    5ee1            b           LAB_0001e786                            
                            LAB_0001e4c8:                 ;XREF[2,0]:   0001e4c4,0001e788
ram:0001e4c8    1370            strb        r3,[r2,#0x0]=>DAT_20002930              
ram:0001e4ca    c24a            ldr         r2,[DAT_0001e7d4]                       ;= 20002928h
ram:0001e4cc    9b00            lsls        r3,r3,#0x2                              
ram:0001e4ce    9d58            ldr         r5,[r3,r2]=>DAT_20002928                
ram:0001e4d0    4b46            mov         r3,r9                                   
ram:0001e4d2    5b19            adds        r3,r3,r5                                
ram:0001e4d4    1b02            lsls        r3,r3,#0x8                              
ram:0001e4d6    bc4a            ldr         r2,[DAT_0001e7c8]                       ;= 20002934h
ram:0001e4d8    1b0a            lsrs        r3,r3,#0x8                              
ram:0001e4da    0593            str         r3,[sp,#local_34+0x48]                  
ram:0001e4dc    1360            str         r3,[r2,#0x0]=>DAT_20002934              
ram:0001e4de    0123            movs        r3,#0x1                                 
ram:0001e4e0    0493            str         r3,[sp,#local_38+0x48]                  
                            LAB_0001e4e2:                 ;XREF[1,0]:   0001e7b6
ram:0001e4e2    bd4b            ldr         r3,[DAT_0001e7d8]                       ;= 2000291Ch
ram:0001e4e4    0020            movs        r0,#0x0                                 
ram:0001e4e6    1e78            ldrb        r6,[r3,#0x0]=>DAT_2000291c              
ram:0001e4e8    bc4b            ldr         r3,[DAT_0001e7dc]                       ;= 20002938h
ram:0001e4ea    3700            movs        r7,r6                                   
ram:0001e4ec    1b68            ldr         r3,[r3,#0x0]=>DAT_20002938              
ram:0001e4ee    9a46            mov         r10,r3                                  
ram:0001e4f0    b94b            ldr         r3,[DAT_0001e7d8]                       ;= 2000291Ch
ram:0001e4f2    5b78            ldrb        r3,[r3,#0x1]=>DAT_2000291d              
ram:0001e4f4    9846            mov         r8,r3                                   
ram:0001e4f6    b84b            ldr         r3,[DAT_0001e7d8]                       ;= 2000291Ch
ram:0001e4f8    5b68            ldr         r3,[r3,#0x4]=>DAT_20002920              
ram:0001e4fa    0193            str         r3,[sp,#local_44+0x48]                  
ram:0001e4fc    b64b            ldr         r3,[DAT_0001e7d8]                       ;= 2000291Ch
ram:0001e4fe    9b78            ldrb        r3,[r3,#0x2]=>DAT_2000291e              
ram:0001e500    0293            str         r3,[sp,#local_40+0x48]                  
ram:0001e502    b74b            ldr         r3,[DAT_0001e7e0]                       ;= 20002924h
ram:0001e504    1b78            ldrb        r3,[r3,#0x0]=>DAT_20002924              
ram:0001e506    1a00            movs        r2,r3                                   
ram:0001e508    0792            str         r2,[sp,#local_2c+0x48]                  
ram:0001e50a    0022            movs        r2,#0x0                                 
ram:0001e50c    0693            str         r3,[sp,#local_30+0x48]                  
ram:0001e50e    9346            mov         r11,r2                                  
ram:0001e510    5346            mov         r3,r10                                  
ram:0001e512    0092            str         r2,[sp,#0x0]=>local_48                  
                            LAB_0001e514:                 ;XREF[6,0]:   0001e53e,0001e542,0001e67c,0001e69c
                                                          ;             0001e6b6,0001e6c0
ram:0001e514    4745            cmp         r7,r8                                   
ram:0001e516    1dd0            beq         LAB_0001e554                            
                            LAB_0001e518:                 ;XREF[1,0]:   0001e552
ram:0001e518    0199            ldr         r1,[sp,#local_44+0x48]                  
ram:0001e51a    7a00            lsls        r2,r7,#0x1                              
ram:0001e51c    d219            adds        r2,r2,r7                                
ram:0001e51e    8c46            mov         r12,r1                                  
ram:0001e520    0137            adds        r7,#0x1                                 
ram:0001e522    0299            ldr         r1,[sp,#local_40+0x48]                  
ram:0001e524    ffb2            uxtb        r7,r7                                   
ram:0001e526    791a            subs        r1,r7,r1                                
ram:0001e528    4c1e            subs        r4,r1,#0x1                              
ram:0001e52a    a141            sbcs        r1,r4                                   
ram:0001e52c    d200            lsls        r2,r2,#0x3                              
ram:0001e52e    4942            rsbs        r1,r1                                   
ram:0001e530    6244            add         r2,r12                                  
ram:0001e532    0f40            ands        r7,r1                                   
ram:0001e534    1178            ldrb        r1,[r2,#0x0]                            
ram:0001e536    0229            cmp         r1,#0x2                                 
ram:0001e538    00d1            bne         LAB_0001e53c                            
ram:0001e53a    9ce0            b           LAB_0001e676                            
                            LAB_0001e53c:                 ;XREF[1,0]:   0001e538
ram:0001e53c    0329            cmp         r1,#0x3                                 
ram:0001e53e    e9d1            bne         LAB_0001e514                            
ram:0001e540    002b            cmp         r3,#0x0                                 
ram:0001e542    e7d0            beq         LAB_0001e514                            
                            LAB_0001e544:                 ;XREF[1,0]:   0001e54a
ram:0001e544    1874            strb        r0,[r3,#0x10]                           
ram:0001e546    db69            ldr         r3,[r3,#0x1c]                           
ram:0001e548    002b            cmp         r3,#0x0                                 
ram:0001e54a    fbd1            bne         LAB_0001e544                            
ram:0001e54c    0122            movs        r2,#0x1                                 
ram:0001e54e    0092            str         r2,[sp,#0x0]=>local_48                  
ram:0001e550    4745            cmp         r7,r8                                   
ram:0001e552    e1d1            bne         LAB_0001e518                            
                            LAB_0001e554:                 ;XREF[1,0]:   0001e516
ram:0001e554    009a            ldr         r2,[sp,#0x0]=>local_48                  
ram:0001e556    9446            mov         r12,r2                                  
ram:0001e558    5a46            mov         r2,r11                                  
ram:0001e55a    002a            cmp         r2,#0x0                                 
ram:0001e55c    00d0            beq         LAB_0001e560                            
ram:0001e55e    e8e1            b           LAB_0001e932                            
                            LAB_0001e560:                 ;XREF[2,0]:   0001e55c,0001e940
ram:0001e560    6246            mov         r2,r12                                  
ram:0001e562    002a            cmp         r2,#0x0                                 
ram:0001e564    00d0            beq         LAB_0001e568                            
ram:0001e566    e1e1            b           LAB_0001e92c                            
                            LAB_0001e568:                 ;XREF[2,0]:   0001e564,0001e930
ram:0001e568    9c4b            ldr         r3,[DAT_0001e7dc]                       ;= 20002938h
ram:0001e56a    049a            ldr         r2,[sp,#local_38+0x48]                  
ram:0001e56c    1b68            ldr         r3,[r3,#0x0]=>DAT_20002938              
ram:0001e56e    0593            str         r3,[sp,#local_34+0x48]                  
ram:0001e570    002a            cmp         r2,#0x0                                 
ram:0001e572    00d0            beq         LAB_0001e576                            
ram:0001e574    20e1            b           LAB_0001e7b8                            
                            LAB_0001e576:                 ;XREF[1,0]:   0001e572
ram:0001e576    5246            mov         r2,r10                                  
ram:0001e578    d31a            subs        r3,r2,r3                                
ram:0001e57a    5a1e            subs        r2,r3,#0x1                              
ram:0001e57c    9341            sbcs        r3,r2                                   
ram:0001e57e    0024            movs        r4,#0x0                                 
ram:0001e580    dbb2            uxtb        r3,r3                                   
ram:0001e582    0493            str         r3,[sp,#local_38+0x48]                  
                            LAB_0001e584:                 ;XREF[3,0]:   0001e82c,0001e834,0001e8c2
ram:0001e584    904b            ldr         r3,[DAT_0001e7c8]                       ;= 20002934h
ram:0001e586    0096            str         r6,[sp,#0x0]=>local_48                  
ram:0001e588    1b68            ldr         r3,[r3,#0x0]=>DAT_20002934              
ram:0001e58a    9946            mov         r9,r3                                   
ram:0001e58c    059b            ldr         r3,[sp,#local_34+0x48]                  
ram:0001e58e    9c46            mov         r12,r3                                  
ram:0001e590    0023            movs        r3,#0x0                                 
ram:0001e592    0393            str         r3,[sp,#local_3c+0x48]                  
ram:0001e594    9a46            mov         r10,r3                                  
ram:0001e596    9846            mov         r8,r3                                   
ram:0001e598    924b            ldr         r3,[DAT_0001e7e4]                       ;= 007FFFFEh
ram:0001e59a    6546            mov         r5,r12                                  
ram:0001e59c    9b46            mov         r11,r3                                  
                            LAB_0001e59e:                 ;XREF[2,0]:   0001e6e6,0001e6ee
ram:0001e59e    002c            cmp         r4,#0x0                                 
ram:0001e5a0    30d0            beq         LAB_0001e604                            
                            LAB_0001e5a2:                 ;XREF[1,0]:   0001e602
ram:0001e5a2    6268            ldr         r2,[r4,#DAT_00000004]                   
ram:0001e5a4    a168            ldr         r1,[r4,#DAT_00000008]                   
ram:0001e5a6    2000            movs        r0,r4                                   
ram:0001e5a8    e469            ldr         r4,[r4,#DAT_0000001c]                   
                            LAB_0001e5aa:                 ;XREF[1,0]:   0001e702
ram:0001e5aa    4b46            mov         r3,r9                                   
ram:0001e5ac    d31a            subs        r3,r2,r3                                
ram:0001e5ae    1b02            lsls        r3,r3,#0x8                              
ram:0001e5b0    1b0a            lsrs        r3,r3,#0x8                              
ram:0001e5b2    5b45            cmp         r3,r11                                  
ram:0001e5b4    56d8            bhi         LAB_0001e664                            
                            LAB_0001e5b6:                 ;XREF[1,0]:   0001e662
ram:0001e5b6    5b18            adds        r3,r3,r1                                
ram:0001e5b8    0360            str         r3,[r0,#0x0]                            
                            LAB_0001e5ba:                 ;XREF[1,0]:   0001e674
ram:0001e5ba    4246            mov         r2,r8                                   
ram:0001e5bc    4260            str         r2,[r0,#DAT_00000004]                   
ram:0001e5be    8260            str         r2,[r0,#DAT_00000008]                   
ram:0001e5c0    0122            movs        r2,#0x1                                 
ram:0001e5c2    0274            strb        r2,[r0,#DAT_00000010]                   
ram:0001e5c4    4246            mov         r2,r8                                   
ram:0001e5c6    c261            str         r2,[r0,#DAT_0000001c]                   
ram:0001e5c8    002d            cmp         r5,#0x0                                 
ram:0001e5ca    00d1            bne         LAB_0001e5ce                            
ram:0001e5cc    8ce0            b           LAB_0001e6e8                            
                            LAB_0001e5ce:                 ;XREF[1,0]:   0001e5ca
ram:0001e5ce    2a68            ldr         r2,[r5,#0x0]                            
ram:0001e5d0    9a42            cmp         r2,r3                                   
ram:0001e5d2    00d3            bcc         LAB_0001e5d6                            
ram:0001e5d4    81e0            b           LAB_0001e6da                            
                            LAB_0001e5d6:                 ;XREF[1,0]:   0001e5d2
ram:0001e5d6    009e            ldr         r6,[sp,#0x0]=>local_48                  
ram:0001e5d8    2900            movs        r1,r5                                   
ram:0001e5da    8446            mov         r12,r0                                  
ram:0001e5dc    03e0            b           LAB_0001e5e6                            
                            LAB_0001e5de:                 ;XREF[1,0]:   0001e5ee
ram:0001e5de    0a68            ldr         r2,[r1,#0x0]                            
ram:0001e5e0    9a42            cmp         r2,r3                                   
ram:0001e5e2    00d3            bcc         LAB_0001e5e6                            
ram:0001e5e4    84e0            b           LAB_0001e6f0                            
                            LAB_0001e5e6:                 ;XREF[2,0]:   0001e5dc,0001e5e2
ram:0001e5e6    0800            movs        r0,r1                                   
ram:0001e5e8    c969            ldr         r1,[r1,#0x1c]                           
ram:0001e5ea    9b1a            subs        r3,r3,r2                                
ram:0001e5ec    0029            cmp         r1,#0x0                                 
ram:0001e5ee    f6d1            bne         LAB_0001e5de                            
ram:0001e5f0    0200            movs        r2,r0                                   
ram:0001e5f2    6046            mov         r0,r12                                  
ram:0001e5f4    9446            mov         r12,r2                                  
ram:0001e5f6    0096            str         r6,[sp,#0x0]=>local_48                  
                            LAB_0001e5f8:                 ;XREF[1,0]:   0001e6fc
ram:0001e5f8    0360            str         r3,[r0,#0x0]                            
ram:0001e5fa    6346            mov         r3,r12                                  
ram:0001e5fc    c161            str         r1,[r0,#DAT_0000001c]                   
ram:0001e5fe    d861            str         r0,[r3,#0x1c]                           
ram:0001e600    002c            cmp         r4,#0x0                                 
ram:0001e602    ced1            bne         LAB_0001e5a2                            
                            LAB_0001e604:                 ;XREF[1,0]:   0001e5a0
ram:0001e604    5246            mov         r2,r10                                  
ram:0001e606    009e            ldr         r6,[sp,#0x0]=>local_48                  
                            LAB_0001e608:                 ;XREF[2,0]:   0001e62e,0001e636
ram:0001e608    b742            cmp         r7,r6                                   
ram:0001e60a    7bd0            beq         LAB_0001e704                            
ram:0001e60c    019a            ldr         r2,[sp,#local_44+0x48]                  
ram:0001e60e    7300            lsls        r3,r6,#0x1                              
ram:0001e610    9b19            adds        r3,r3,r6                                
ram:0001e612    9446            mov         r12,r2                                  
ram:0001e614    0136            adds        r6,#0x1                                 
ram:0001e616    029a            ldr         r2,[sp,#local_40+0x48]                  
ram:0001e618    f6b2            uxtb        r6,r6                                   
ram:0001e61a    921b            subs        r2,r2,r6                                
ram:0001e61c    511e            subs        r1,r2,#0x1                              
ram:0001e61e    8a41            sbcs        r2,r1                                   
ram:0001e620    db00            lsls        r3,r3,#0x3                              
ram:0001e622    6344            add         r3,r12                                  
ram:0001e624    1978            ldrb        r1,[r3,#0x0]                            
ram:0001e626    5242            rsbs        r2,r2                                   
ram:0001e628    1640            ands        r6,r2                                   
ram:0001e62a    0122            movs        r2,#0x1                                 
ram:0001e62c    0129            cmp         r1,#0x1                                 
ram:0001e62e    ebd1            bne         LAB_0001e608                            
ram:0001e630    5868            ldr         r0,[r3,#0x4]                            
ram:0001e632    027c            ldrb        r2,[r0,#0x10]                           
ram:0001e634    002a            cmp         r2,#0x0                                 
ram:0001e636    e7d1            bne         LAB_0001e608                            
ram:0001e638    9246            mov         r10,r2                                  
ram:0001e63a    9a68            ldr         r2,[r3,#0x8]                            
ram:0001e63c    0096            str         r6,[sp,#0x0]=>local_48                  
ram:0001e63e    4260            str         r2,[r0,#0x4]                            
ram:0001e640    d968            ldr         r1,[r3,#0xc]                            
ram:0001e642    8160            str         r1,[r0,#0x8]                            
ram:0001e644    1e69            ldr         r6,[r3,#0x10]                           
ram:0001e646    c660            str         r6,[r0,#0xc]                            
ram:0001e648    5b69            ldr         r3,[r3,#0x14]                           
ram:0001e64a    8361            str         r3,[r0,#0x18]                           
ram:0001e64c    069b            ldr         r3,[sp,#local_30+0x48]                  
ram:0001e64e    002b            cmp         r3,#0x0                                 
ram:0001e650    55d0            beq         LAB_0001e6fe                            
ram:0001e652    5246            mov         r2,r10                                  
ram:0001e654    9a46            mov         r10,r3                                  
ram:0001e656    4b46            mov         r3,r9                                   
ram:0001e658    d31a            subs        r3,r2,r3                                
ram:0001e65a    1b02            lsls        r3,r3,#0x8                              
ram:0001e65c    4260            str         r2,[r0,#0x4]                            
ram:0001e65e    1b0a            lsrs        r3,r3,#0x8                              
ram:0001e660    5b45            cmp         r3,r11                                  
ram:0001e662    a8d9            bls         LAB_0001e5b6                            
                            LAB_0001e664:                 ;XREF[1,0]:   0001e5b4
ram:0001e664    4b46            mov         r3,r9                                   
ram:0001e666    9a1a            subs        r2,r3,r2                                
ram:0001e668    1202            lsls        r2,r2,#0x8                              
ram:0001e66a    120a            lsrs        r2,r2,#0x8                              
ram:0001e66c    8a42            cmp         r2,r1                                   
ram:0001e66e    28d2            bcs         LAB_0001e6c2                            
ram:0001e670    8b1a            subs        r3,r1,r2                                
ram:0001e672    0360            str         r3,[r0,#0x0]                            
ram:0001e674    a1e7            b           LAB_0001e5ba                            
                            LAB_0001e676:                 ;XREF[1,0]:   0001e53a
ram:0001e676    5468            ldr         r4,[r2,#0x4]                            
ram:0001e678    002b            cmp         r3,#0x0                                 
ram:0001e67a    00d1            bne         LAB_0001e67e                            
ram:0001e67c    4ae7            b           LAB_0001e514                            
                            LAB_0001e67e:                 ;XREF[1,0]:   0001e67a
ram:0001e67e    9c42            cmp         r4,r3                                   
ram:0001e680    00d1            bne         LAB_0001e684                            
ram:0001e682    82e0            b           LAB_0001e78a                            
                            LAB_0001e684:                 ;XREF[1,0]:   0001e680
ram:0001e684    009a            ldr         r2,[sp,#0x0]=>local_48                  
ram:0001e686    1900            movs        r1,r3                                   
ram:0001e688    9446            mov         r12,r2                                  
ram:0001e68a    02e0            b           LAB_0001e692                            
                            LAB_0001e68c:                 ;XREF[1,0]:   0001e696
ram:0001e68c    9442            cmp         r4,r2                                   
ram:0001e68e    06d0            beq         LAB_0001e69e                            
ram:0001e690    1100            movs        r1,r2                                   
                            LAB_0001e692:                 ;XREF[1,0]:   0001e68a
ram:0001e692    ca69            ldr         r2,[r1,#0x1c]                           
ram:0001e694    002a            cmp         r2,#0x0                                 
ram:0001e696    f9d1            bne         LAB_0001e68c                            
ram:0001e698    6246            mov         r2,r12                                  
ram:0001e69a    0092            str         r2,[sp,#0x0]=>local_48                  
ram:0001e69c    3ae7            b           LAB_0001e514                            
                            LAB_0001e69e:                 ;XREF[1,0]:   0001e68e
ram:0001e69e    6246            mov         r2,r12                                  
ram:0001e6a0    0391            str         r1,[sp,#local_3c+0x48]                  
ram:0001e6a2    0092            str         r2,[sp,#0x0]=>local_48                  
ram:0001e6a4    8c42            cmp         r4,r1                                   
ram:0001e6a6    00d1            bne         LAB_0001e6aa                            
ram:0001e6a8    71e0            b           LAB_0001e78e                            
                            LAB_0001e6aa:                 ;XREF[3,0]:   0001e6a6,0001e798,0001e7aa
ram:0001e6aa    2268            ldr         r2,[r4,#0x0]                            
ram:0001e6ac    0399            ldr         r1,[sp,#local_3c+0x48]                  
ram:0001e6ae    e469            ldr         r4,[r4,#0x1c]                           
ram:0001e6b0    cc61            str         r4,[r1,#0x1c]                           
ram:0001e6b2    002c            cmp         r4,#0x0                                 
ram:0001e6b4    00d1            bne         LAB_0001e6b8                            
ram:0001e6b6    2de7            b           LAB_0001e514                            
                            LAB_0001e6b8:                 ;XREF[1,0]:   0001e6b4
ram:0001e6b8    2168            ldr         r1,[r4,#0x0]                            
ram:0001e6ba    8c46            mov         r12,r1                                  
ram:0001e6bc    6244            add         r2,r12                                  
ram:0001e6be    2260            str         r2,[r4,#0x0]                            
ram:0001e6c0    28e7            b           LAB_0001e514                            
                            LAB_0001e6c2:                 ;XREF[1,0]:   0001e66e
ram:0001e6c2    4346            mov         r3,r8                                   
ram:0001e6c4    0360            str         r3,[r0,#0x0]                            
ram:0001e6c6    4360            str         r3,[r0,#0x4]                            
ram:0001e6c8    8360            str         r3,[r0,#0x8]                            
ram:0001e6ca    0123            movs        r3,#0x1                                 
ram:0001e6cc    0374            strb        r3,[r0,#0x10]                           
ram:0001e6ce    4346            mov         r3,r8                                   
ram:0001e6d0    c361            str         r3,[r0,#0x1c]                           
ram:0001e6d2    002d            cmp         r5,#0x0                                 
ram:0001e6d4    08d0            beq         LAB_0001e6e8                            
ram:0001e6d6    0023            movs        r3,#0x0                                 
ram:0001e6d8    2a68            ldr         r2,[r5,#0x0]                            
                            LAB_0001e6da:                 ;XREF[1,0]:   0001e5d4
ram:0001e6da    d31a            subs        r3,r2,r3                                
ram:0001e6dc    2b60            str         r3,[r5,#0x0]                            
ram:0001e6de    0123            movs        r3,#0x1                                 
ram:0001e6e0    c561            str         r5,[r0,#DAT_0000001c]                   
ram:0001e6e2    0393            str         r3,[sp,#local_3c+0x48]                  
ram:0001e6e4    0500            movs        r5,r0                                   
ram:0001e6e6    5ae7            b           LAB_0001e59e                            
                            LAB_0001e6e8:                 ;XREF[2,0]:   0001e5cc,0001e6d4
ram:0001e6e8    0123            movs        r3,#0x1                                 
ram:0001e6ea    0500            movs        r5,r0                                   
ram:0001e6ec    0393            str         r3,[sp,#local_3c+0x48]                  
ram:0001e6ee    56e7            b           LAB_0001e59e                            
                            LAB_0001e6f0:                 ;XREF[1,0]:   0001e5e4
ram:0001e6f0    0096            str         r6,[sp,#0x0]=>local_48                  
ram:0001e6f2    0600            movs        r6,r0                                   
ram:0001e6f4    d21a            subs        r2,r2,r3                                
ram:0001e6f6    6046            mov         r0,r12                                  
ram:0001e6f8    0a60            str         r2,[r1,#0x0]                            
ram:0001e6fa    b446            mov         r12,r6                                  
ram:0001e6fc    7ce7            b           LAB_0001e5f8                            
                            LAB_0001e6fe:                 ;XREF[1,0]:   0001e650
ram:0001e6fe    0123            movs        r3,#0x1                                 
ram:0001e700    9a46            mov         r10,r3                                  
ram:0001e702    52e7            b           LAB_0001e5aa                            
                            LAB_0001e704:                 ;XREF[1,0]:   0001e60a
ram:0001e704    ac46            mov         r12,r5                                  
ram:0001e706    002a            cmp         r2,#0x0                                 
ram:0001e708    00d0            beq         LAB_0001e70c                            
ram:0001e70a    1ee1            b           LAB_0001e94a                            
                            LAB_0001e70c:                 ;XREF[2,0]:   0001e708,0001e94e
ram:0001e70c    039b            ldr         r3,[sp,#local_3c+0x48]                  
ram:0001e70e    002b            cmp         r3,#0x0                                 
ram:0001e710    00d0            beq         LAB_0001e714                            
ram:0001e712    16e1            b           LAB_0001e942                            
                            LAB_0001e714:                 ;XREF[2,0]:   0001e710,0001e948
ram:0001e714    314b            ldr         r3,[DAT_0001e7dc]                       ;= 20002938h
ram:0001e716    059a            ldr         r2,[sp,#local_34+0x48]                  
ram:0001e718    1b68            ldr         r3,[r3,#0x0]=>DAT_20002938              
ram:0001e71a    9342            cmp         r3,r2                                   
ram:0001e71c    02d1            bne         LAB_0001e724                            
ram:0001e71e    049a            ldr         r2,[sp,#local_38+0x48]                  
ram:0001e720    002a            cmp         r2,#0x0                                 
ram:0001e722    24d0            beq         LAB_0001e76e                            
                            LAB_0001e724:                 ;XREF[1,0]:   0001e71c
ram:0001e724    002b            cmp         r3,#0x0                                 
ram:0001e726    00d1            bne         LAB_0001e72a                            
ram:0001e728    cce0            b           LAB_0001e8c4                            
                            LAB_0001e72a:                 ;XREF[1,0]:   0001e726
ram:0001e72a    2f4a            ldr         r2,[DAT_0001e7e8]                       ;= 00000504h
ram:0001e72c    2f48            ldr         r0=>DAT_40011000,[DAT_0001e7ec]         ;= 40011000h
ram:0001e72e    304c            ldr         r4,[DAT_0001e7f0]                       ;= 20002925h
ram:0001e730    8158            ldr         r1,[r0,r2]=>DAT_40011504                
ram:0001e732    4a46            mov         r2,r9                                   
ram:0001e734    8a1a            subs        r2,r1,r2                                
ram:0001e736    1202            lsls        r2,r2,#0x8                              
ram:0001e738    2578            ldrb        r5,[r4,#0x0]=>DAT_20002925              
ram:0001e73a    120a            lsrs        r2,r2,#0x8                              
ram:0001e73c    1b68            ldr         r3,[r3,#0x0]                            
ram:0001e73e    0332            adds        r2,#0x3                                 
ram:0001e740    002d            cmp         r5,#0x0                                 
ram:0001e742    00d1            bne         LAB_0001e746                            
ram:0001e744    91e0            b           LAB_0001e86a                            
                            LAB_0001e746:                 ;XREF[1,0]:   0001e742
ram:0001e746    9342            cmp         r3,r2                                   
ram:0001e748    1bd3            bcc         LAB_0001e782                            
                            LAB_0001e74a:                 ;XREF[2,0]:   0001e784,0001e8b2
ram:0001e74a    a824            movs        r4,#0xa8                                
ram:0001e74c    4b44            add         r3,r9                                   
ram:0001e74e    2748            ldr         r0=>DAT_40011000,[DAT_0001e7ec]         ;= 40011000h
ram:0001e750    1b02            lsls        r3,r3,#0x8                              
ram:0001e752    1b0a            lsrs        r3,r3,#0x8                              
ram:0001e754    e400            lsls        r4,r4,#0x3                              
ram:0001e756    244d            ldr         r5,[DAT_0001e7e8]                       ;= 00000504h
ram:0001e758    0351            str         r3,[r0,r4]=>DAT_40011540                
ram:0001e75a    4259            ldr         r2,[r0,r5]=>DAT_40011504                
ram:0001e75c    5b1a            subs        r3,r3,r1                                
ram:0001e75e    521a            subs        r2,r2,r1                                
ram:0001e760    1202            lsls        r2,r2,#0x8                              
ram:0001e762    120a            lsrs        r2,r2,#0x8                              
ram:0001e764    1b02            lsls        r3,r3,#0x8                              
ram:0001e766    0332            adds        r2,#0x3                                 
ram:0001e768    1b0a            lsrs        r3,r3,#0x8                              
ram:0001e76a    9a42            cmp         r2,r3                                   
ram:0001e76c    63d8            bhi         LAB_0001e836                            
                            LAB_0001e76e:                 ;XREF[3,0]:   0001e722,0001e868,0001e92a
ram:0001e76e    0023            movs        r3,#0x0                                 
ram:0001e770    1b4a            ldr         r2,[DAT_0001e7e0]                       ;= 20002924h
ram:0001e772    1370            strb        r3,[r2,#0x0]=>DAT_20002924              
ram:0001e774    09b0            add         sp,#0x24                                
ram:0001e776    3cbc            pop         {r2,r3,r4,r5}                           
ram:0001e778    9046            mov         r8,r2                                   
ram:0001e77a    9946            mov         r9,r3                                   
ram:0001e77c    a246            mov         r10,r4                                  
ram:0001e77e    ab46            mov         r11,r5                                  
ram:0001e780    f0bd            pop         {r4,r5,r6,r7,pc}                        
                            LAB_0001e782:                 ;XREF[2,0]:   0001e748,0001e8b4
ram:0001e782    1300            movs        r3,r2                                   
ram:0001e784    e1e7            b           LAB_0001e74a                            
                            LAB_0001e786:                 ;XREF[1,0]:   0001e4c6
ram:0001e786    0023            movs        r3,#0x0                                 
ram:0001e788    9ee6            b           LAB_0001e4c8                            
                            LAB_0001e78a:                 ;XREF[1,0]:   0001e682
ram:0001e78a    1c00            movs        r4,r3                                   
ram:0001e78c    0393            str         r3,[sp,#local_3c+0x48]                  
                            LAB_0001e78e:                 ;XREF[1,0]:   0001e6a8
ram:0001e78e    0122            movs        r2,#0x1                                 
ram:0001e790    db69            ldr         r3,[r3,#0x1c]                           
ram:0001e792    0092            str         r2,[sp,#0x0]=>local_48                  
ram:0001e794    002b            cmp         r3,#0x0                                 
ram:0001e796    00d0            beq         LAB_0001e79a                            
ram:0001e798    87e7            b           LAB_0001e6aa                            
                            LAB_0001e79a:                 ;XREF[1,0]:   0001e796
ram:0001e79a    0121            movs        r1,#0x1                                 
ram:0001e79c    134a            ldr         r2,[DAT_0001e7ec]                       ;= 40011000h
ram:0001e79e    9160            str         r1,[r2,#offset DAT_40011008 &0xff]      
ram:0001e7a0    0022            movs        r2,#0x0                                 
ram:0001e7a2    0592            str         r2,[sp,#local_34+0x48]                  
ram:0001e7a4    0132            adds        r2,#0x1                                 
ram:0001e7a6    9346            mov         r11,r2                                  
ram:0001e7a8    0792            str         r2,[sp,#local_2c+0x48]                  
ram:0001e7aa    7ee7            b           LAB_0001e6aa                            
                            LAB_0001e7ac:                 ;XREF[1,0]:   0001e4bc
ram:0001e7ac    4b46            mov         r3,r9                                   
ram:0001e7ae    0593            str         r3,[sp,#local_34+0x48]                  
ram:0001e7b0    0023            movs        r3,#0x0                                 
ram:0001e7b2    0025            movs        r5,#0x0                                 
ram:0001e7b4    0493            str         r3,[sp,#local_38+0x48]                  
ram:0001e7b6    94e6            b           LAB_0001e4e2                            
                            LAB_0001e7b8:                 ;XREF[1,0]:   0001e574
ram:0001e7b8    0024            movs        r4,#0x0                                 
ram:0001e7ba    0020            movs        r0,#0x0                                 
ram:0001e7bc    b446            mov         r12,r6                                  
ram:0001e7be    0022            movs        r2,#0x0                                 
ram:0001e7c0    0021            movs        r1,#0x0                                 
ram:0001e7c2    8046            mov         r8,r0                                   
ram:0001e7c4    2600            movs        r6,r4                                   
ram:0001e7c6    2be0            b           LAB_0001e820                            
                            DAT_0001e7c8:                 ;XREF[3,0]:   0001e4a8,0001e4d6,0001e584
ram:0001e7c8    34290020        undefined4  20002934h                               
                            DAT_0001e7cc:                 ;XREF[1,0]:   0001e4aa
ram:0001e7cc    30290020        undefined4  20002930h                               
                            DAT_0001e7d0:                 ;XREF[1,0]:   0001e4ae
ram:0001e7d0    31290020        undefined4  20002931h                               
                            DAT_0001e7d4:                 ;XREF[1,0]:   0001e4ca
ram:0001e7d4    28290020        undefined4  20002928h                               
                            DAT_0001e7d8:                 ;XREF[4,0]:   0001e4e2,0001e4f0,0001e4f6,0001e4fc
ram:0001e7d8    1c290020        undefined4  2000291Ch                               
                            DAT_0001e7dc:                 ;XREF[3,0]:   0001e4e8,0001e568,0001e714
ram:0001e7dc    38290020        undefined4  20002938h                               
                            DAT_0001e7e0:                 ;XREF[2,0]:   0001e502,0001e770
ram:0001e7e0    24290020        undefined4  20002924h                               
                            DAT_0001e7e4:                 ;XREF[1,0]:   0001e598
ram:0001e7e4    feff7f00        undefined4  007FFFFEh                               
                            DAT_0001e7e8:                 ;XREF[2,0]:   0001e72a,0001e756
ram:0001e7e8    04050000        undefined4  00000504h                               
                            DAT_0001e7ec:                 ;XREF[3,0]:   0001e72c,0001e74e,0001e79c
ram:0001e7ec    00100140        undefined4  40011000h                               
                            DAT_0001e7f0:                 ;XREF[1,0]:   0001e72e
ram:0001e7f0    25290020        undefined4  20002925h                               
                            LAB_0001e7f4:                 ;XREF[1,0]:   0001e822
ram:0001e7f4    1868            ldr         r0,[r3,#0x0]                            
ram:0001e7f6    a842            cmp         r0,r5                                   
ram:0001e7f8    00d9            bls         LAB_0001e7fc                            
ram:0001e7fa    5ce0            b           LAB_0001e8b6                            
                            LAB_0001e7fc:                 ;XREF[1,0]:   0001e7f8
ram:0001e7fc    4246            mov         r2,r8                                   
ram:0001e7fe    2d1a            subs        r5,r5,r0                                
ram:0001e800    0918            adds        r1,r1,r0                                
ram:0001e802    d868            ldr         r0,[r3,#0xc]                            
ram:0001e804    1a60            str         r2,[r3,#0x0]                            
ram:0001e806    dc69            ldr         r4,[r3,#0x1c]                           
ram:0001e808    0028            cmp         r0,#0x0                                 
ram:0001e80a    07d0            beq         LAB_0001e81c                            
ram:0001e80c    4a46            mov         r2,r9                                   
ram:0001e80e    de61            str         r6,[r3,#0x1c]                           
ram:0001e810    1e00            movs        r6,r3                                   
ram:0001e812    5218            adds        r2,r2,r1                                
ram:0001e814    1202            lsls        r2,r2,#0x8                              
ram:0001e816    120a            lsrs        r2,r2,#0x8                              
ram:0001e818    5a60            str         r2,[r3,#0x4]                            
ram:0001e81a    9860            str         r0,[r3,#0x8]                            
                            LAB_0001e81c:                 ;XREF[1,0]:   0001e80a
ram:0001e81c    2300            movs        r3,r4                                   
ram:0001e81e    049a            ldr         r2,[sp,#local_38+0x48]                  
                            LAB_0001e820:                 ;XREF[1,0]:   0001e7c6
ram:0001e820    002b            cmp         r3,#0x0                                 
ram:0001e822    e7d1            bne         LAB_0001e7f4                            
ram:0001e824    3400            movs        r4,r6                                   
ram:0001e826    6646            mov         r6,r12                                  
ram:0001e828    002a            cmp         r2,#0x0                                 
ram:0001e82a    00d1            bne         LAB_0001e82e                            
ram:0001e82c    aae6            b           LAB_0001e584                            
                            LAB_0001e82e:                 ;XREF[1,0]:   0001e82a
ram:0001e82e    4a4a            ldr         r2,[DAT_0001e958]                       ;= 20002938h
ram:0001e830    0593            str         r3,[sp,#local_34+0x48]                  
ram:0001e832    1360            str         r3,[r2,#0x0]=>DAT_20002938              
ram:0001e834    a6e6            b           LAB_0001e584                            
                            LAB_0001e836:                 ;XREF[1,0]:   0001e76c
ram:0001e836    4359            ldr         r3,[r0,r5]=>DAT_40011504                
ram:0001e838    4849            ldr         r1,[DAT_0001e95c]                       ;= 00F42400h
ram:0001e83a    0351            str         r3,[r0,r4]=>DAT_40011540                
ram:0001e83c    484b            ldr         r3,[DAT_0001e960]                       ;= 2000203Ch
ram:0001e83e    1a68            ldr         r2,[r3,#0x0]=>DAT_2000203c              
ram:0001e840    2f23            movs        r3,#0x2f                                
                            LAB_0001e842:                 ;XREF[1,0]:   0001e85a
ram:0001e842    c046            mov         r8,r8                                   
ram:0001e844    c046            mov         r8,r8                                   
ram:0001e846    c046            mov         r8,r8                                   
ram:0001e848    c046            mov         r8,r8                                   
ram:0001e84a    c046            mov         r8,r8                                   
ram:0001e84c    c046            mov         r8,r8                                   
ram:0001e84e    c046            mov         r8,r8                                   
ram:0001e850    c046            mov         r8,r8                                   
ram:0001e852    8a42            cmp         r2,r1                                   
ram:0001e854    00d0            beq         LAB_0001e858                            
ram:0001e856    c046            mov         r8,r8                                   
                            LAB_0001e858:                 ;XREF[1,0]:   0001e854
ram:0001e858    013b            subs        r3,#0x1                                 
ram:0001e85a    f2d1            bne         LAB_0001e842                            
ram:0001e85c    8023            movs        r3,#0x80                                
ram:0001e85e    8021            movs        r1,#0x80                                
ram:0001e860    404a            ldr         r2,[DAT_0001e964]                       ;= E000E100h
ram:0001e862    5b00            lsls        r3,r3,#0x1                              
ram:0001e864    8902            lsls        r1,r1,#0xa                              
ram:0001e866    d150            str         r1,[r2,r3]=>DAT_e000e200                
ram:0001e868    81e7            b           LAB_0001e76e                            
                            LAB_0001e86a:                 ;XREF[1,0]:   0001e744
ram:0001e86a    8025            movs        r5,#0x80                                
ram:0001e86c    d126            movs        r6,#0xd1                                
ram:0001e86e    6d02            lsls        r5,r5,#0x9                              
ram:0001e870    b600            lsls        r6,r6,#0x2                              
ram:0001e872    8551            str         r5,[r0,r6]=>DAT_40011344                
ram:0001e874    403e            subs        r6,#0x40                                
ram:0001e876    8551            str         r5,[r0,r6]=>DAT_40011304                
ram:0001e878    c027            movs        r7,#0xc0                                
ram:0001e87a    8026            movs        r6,#0x80                                
ram:0001e87c    394d            ldr         r5,[DAT_0001e964]                       ;= E000E100h
ram:0001e87e    b602            lsls        r6,r6,#0xa                              
ram:0001e880    7f00            lsls        r7,r7,#0x1                              
ram:0001e882    ee51            str         r6,[r5,r7]=>DAT_e000e280                
ram:0001e884    2e60            str         r6,[r5,#0x0]=>DAT_e000e100              
ram:0001e886    0125            movs        r5,#0x1                                 
ram:0001e888    0560            str         r5,[r0,#0x0]=>DAT_40011000              
ram:0001e88a    3548            ldr         r0,[DAT_0001e960]                       ;= 2000203Ch
ram:0001e88c    334f            ldr         r7,[DAT_0001e95c]                       ;= 00F42400h
ram:0001e88e    0668            ldr         r6,[r0,#0x0]=>DAT_2000203c              
ram:0001e890    2f20            movs        r0,#0x2f                                
                            LAB_0001e892:                 ;XREF[1,0]:   0001e8aa
ram:0001e892    c046            mov         r8,r8                                   
ram:0001e894    c046            mov         r8,r8                                   
ram:0001e896    c046            mov         r8,r8                                   
ram:0001e898    c046            mov         r8,r8                                   
ram:0001e89a    c046            mov         r8,r8                                   
ram:0001e89c    c046            mov         r8,r8                                   
ram:0001e89e    c046            mov         r8,r8                                   
ram:0001e8a0    c046            mov         r8,r8                                   
ram:0001e8a2    be42            cmp         r6,r7                                   
ram:0001e8a4    00d0            beq         LAB_0001e8a8                            
ram:0001e8a6    c046            mov         r8,r8                                   
                            LAB_0001e8a8:                 ;XREF[1,0]:   0001e8a4
ram:0001e8a8    0138            subs        r0,#0x1                                 
ram:0001e8aa    f2d1            bne         LAB_0001e892                            
ram:0001e8ac    2570            strb        r5,[r4,#0x0]=>DAT_20002925              
ram:0001e8ae    9342            cmp         r3,r2                                   
ram:0001e8b0    00d3            bcc         LAB_0001e8b4                            
ram:0001e8b2    4ae7            b           LAB_0001e74a                            
                            LAB_0001e8b4:                 ;XREF[1,0]:   0001e8b0
ram:0001e8b4    65e7            b           LAB_0001e782                            
                            LAB_0001e8b6:                 ;XREF[1,0]:   0001e7fa
ram:0001e8b6    3400            movs        r4,r6                                   
ram:0001e8b8    6646            mov         r6,r12                                  
ram:0001e8ba    002a            cmp         r2,#0x0                                 
ram:0001e8bc    48d1            bne         LAB_0001e950                            
                            LAB_0001e8be:                 ;XREF[1,0]:   0001e956
ram:0001e8be    451b            subs        r5,r0,r5                                
ram:0001e8c0    1d60            str         r5,[r3,#0x0]                            
ram:0001e8c2    5fe6            b           LAB_0001e584                            
                            LAB_0001e8c4:                 ;XREF[1,0]:   0001e728
ram:0001e8c4    8020            movs        r0,#0x80                                
ram:0001e8c6    8022            movs        r2,#0x80                                
ram:0001e8c8    2649            ldr         r1,[DAT_0001e964]                       ;= E000E100h
ram:0001e8ca    8002            lsls        r0,r0,#0xa                              
ram:0001e8cc    8850            str         r0,[r1,r2]=>DAT_e000e180                
ram:0001e8ce    8022            movs        r2,#0x80                                
ram:0001e8d0    d220            movs        r0,#0xd2                                
ram:0001e8d2    0125            movs        r5,#0x1                                 
ram:0001e8d4    2449            ldr         r1,[DAT_0001e968]                       ;= 40011000h
ram:0001e8d6    5202            lsls        r2,r2,#0x9                              
ram:0001e8d8    8000            lsls        r0,r0,#0x2                              
ram:0001e8da    0a50            str         r2,[r1,r0]=>DAT_40011348                
ram:0001e8dc    4038            subs        r0,#0x40                                
ram:0001e8de    0a50            str         r2,[r1,r0]=>DAT_40011308                
ram:0001e8e0    1f4a            ldr         r2,[DAT_0001e960]                       ;= 2000203Ch
ram:0001e8e2    4d60            str         r5,[r1,#offset DAT_40011004 &0xff]      
ram:0001e8e4    1068            ldr         r0,[r2,#0x0]=>DAT_2000203c              
ram:0001e8e6    2f22            movs        r2,#0x2f                                
ram:0001e8e8    1c4c            ldr         r4,[DAT_0001e95c]                       ;= 00F42400h
ram:0001e8ea    1600            movs        r6,r2                                   
                            LAB_0001e8ec:                 ;XREF[1,0]:   0001e904
ram:0001e8ec    c046            mov         r8,r8                                   
ram:0001e8ee    c046            mov         r8,r8                                   
ram:0001e8f0    c046            mov         r8,r8                                   
ram:0001e8f2    c046            mov         r8,r8                                   
ram:0001e8f4    c046            mov         r8,r8                                   
ram:0001e8f6    c046            mov         r8,r8                                   
ram:0001e8f8    c046            mov         r8,r8                                   
ram:0001e8fa    c046            mov         r8,r8                                   
ram:0001e8fc    a042            cmp         r0,r4                                   
ram:0001e8fe    00d0            beq         LAB_0001e902                            
ram:0001e900    c046            mov         r8,r8                                   
                            LAB_0001e902:                 ;XREF[1,0]:   0001e8fe
ram:0001e902    013e            subs        r6,#0x1                                 
ram:0001e904    f2d1            bne         LAB_0001e8ec                            
ram:0001e906    8d60            str         r5,[r1,#offset DAT_40011008 &0xff]      
ram:0001e908    1849            ldr         r1,[DAT_0001e96c]                       ;= 20002934h
ram:0001e90a    0b60            str         r3,[r1,#0x0]=>DAT_20002934              
                            LAB_0001e90c:                 ;XREF[1,0]:   0001e924
ram:0001e90c    c046            mov         r8,r8                                   
ram:0001e90e    c046            mov         r8,r8                                   
ram:0001e910    c046            mov         r8,r8                                   
ram:0001e912    c046            mov         r8,r8                                   
ram:0001e914    c046            mov         r8,r8                                   
ram:0001e916    c046            mov         r8,r8                                   
ram:0001e918    c046            mov         r8,r8                                   
ram:0001e91a    c046            mov         r8,r8                                   
ram:0001e91c    a042            cmp         r0,r4                                   
ram:0001e91e    00d0            beq         LAB_0001e922                            
ram:0001e920    c046            mov         r8,r8                                   
                            LAB_0001e922:                 ;XREF[1,0]:   0001e91e
ram:0001e922    013a            subs        r2,#0x1                                 
ram:0001e924    f2d1            bne         LAB_0001e90c                            
ram:0001e926    124a            ldr         r2,[DAT_0001e970]                       ;= 20002925h
ram:0001e928    1370            strb        r3,[r2,#0x0]=>DAT_20002925              
ram:0001e92a    20e7            b           LAB_0001e76e                            
                            LAB_0001e92c:                 ;XREF[1,0]:   0001e566
ram:0001e92c    0a4a            ldr         r2,[DAT_0001e958]                       ;= 20002938h
ram:0001e92e    1360            str         r3,[r2,#0x0]=>DAT_20002938              
ram:0001e930    1ae6            b           LAB_0001e568                            
                            LAB_0001e932:                 ;XREF[1,0]:   0001e55e
ram:0001e932    104a            ldr         r2,[DAT_0001e974]                       ;= 20002924h
ram:0001e934    0798            ldr         r0,[sp,#local_2c+0x48]                  
ram:0001e936    0599            ldr         r1,[sp,#local_34+0x48]                  
ram:0001e938    1070            strb        r0,[r2,#0x0]=>DAT_20002924              
ram:0001e93a    0c4a            ldr         r2,[DAT_0001e96c]                       ;= 20002934h
ram:0001e93c    0690            str         r0,[sp,#local_30+0x48]                  
ram:0001e93e    1160            str         r1,[r2,#0x0]=>DAT_20002934              
ram:0001e940    0ee6            b           LAB_0001e560                            
                            LAB_0001e942:                 ;XREF[1,0]:   0001e712
ram:0001e942    6246            mov         r2,r12                                  
ram:0001e944    044b            ldr         r3,[DAT_0001e958]                       ;= 20002938h
ram:0001e946    1a60            str         r2,[r3,#0x0]=>DAT_20002938              
ram:0001e948    e4e6            b           LAB_0001e714                            
                            LAB_0001e94a:                 ;XREF[1,0]:   0001e70a
ram:0001e94a    0b4b            ldr         r3,[DAT_0001e978]                       ;= 2000291Ch
ram:0001e94c    1f70            strb        r7,[r3,#0x0]=>DAT_2000291c              
ram:0001e94e    dde6            b           LAB_0001e70c                            
                            LAB_0001e950:                 ;XREF[1,0]:   0001e8bc
ram:0001e950    014a            ldr         r2,[DAT_0001e958]                       ;= 20002938h
ram:0001e952    0593            str         r3,[sp,#local_34+0x48]                  
ram:0001e954    1360            str         r3,[r2,#0x0]=>DAT_20002938              
ram:0001e956    b2e7            b           LAB_0001e8be                            
                            DAT_0001e958:                 ;XREF[4,0]:   0001e82e,0001e92c,0001e944,0001e950
ram:0001e958    38290020        undefined4  20002938h                               
                            DAT_0001e95c:                 ;XREF[3,0]:   0001e838,0001e88c,0001e8e8
ram:0001e95c    0024f400        undefined4  00F42400h                               
                            DAT_0001e960:                 ;XREF[3,0]:   0001e83c,0001e88a,0001e8e0
ram:0001e960    3c200020        undefined4  2000203Ch                               
                            DAT_0001e964:                 ;XREF[3,0]:   0001e860,0001e87c,0001e8c8
ram:0001e964    00e100e0        undefined4  E000E100h                               
                            DAT_0001e968:                 ;XREF[1,0]:   0001e8d4
ram:0001e968    00100140        undefined4  40011000h                               
                            DAT_0001e96c:                 ;XREF[2,0]:   0001e908,0001e93a
ram:0001e96c    34290020        undefined4  20002934h                               
                            DAT_0001e970:                 ;XREF[1,0]:   0001e926
ram:0001e970    25290020        undefined4  20002925h                               
                            DAT_0001e974:                 ;XREF[1,0]:   0001e932
ram:0001e974    24290020        undefined4  20002924h                               
                            DAT_0001e978:                 ;XREF[1,0]:   0001e94a
ram:0001e978    1c290020        undefined4  2000291Ch                               
                            ;************************************************************************************************
                            ;*                                           FUNCTION                                           *
                            ;************************************************************************************************
                            ;undefined4 FUN_0001e97c(undefined4 param_1, undefined param_2, uint param_3, undefined4 param_4)
          ;param_1       undefined4          r0                      
          ;param_2       undefined           r1                      
          ;param_3       uint                r2                      
          ;param_4       undefined4          r3                      
                                                          ;XREF[1,0]:   0001b1f0
ram:0001e97c    f0b5            push        {r4,r5,r6,r7,lr}                        
ram:0001e97e    de46            mov         lr,r11                                  
ram:0001e980    5746            mov         r7,r10                                  
ram:0001e982    4e46            mov         r6,r9                                   
ram:0001e984    4546            mov         r5,r8                                   
ram:0001e986    0324            movs        r4,#0x3                                 
ram:0001e988    e0b5            push        {r5,r6,r7,lr}                           
ram:0001e98a    9b46            mov         r11,param_4                             
ram:0001e98c    1440            ands        r4,param_3                              
ram:0001e98e    00d0            beq         LAB_0001e992                            
ram:0001e990    64e0            b           LAB_0001ea5c                            
                            LAB_0001e992:                 ;XREF[1,0]:   0001e98e
ram:0001e992    002a            cmp         param_3,#0x0                            
ram:0001e994    00d1            bne         LAB_0001e998                            
ram:0001e996    61e0            b           LAB_0001ea5c                            
                            LAB_0001e998:                 ;XREF[1,0]:   0001e994
ram:0001e998    8027            movs        r7,#0x80                                
ram:0001e99a    8025            movs        r5,#0x80                                
ram:0001e99c    334e            ldr         r6,[DAT_0001ea6c]                       ;= E000E100h
ram:0001e99e    bf02            lsls        r7,r7,#0xa                              
ram:0001e9a0    7751            str         r7,[r6,r5]=>DAT_e000e180                
ram:0001e9a2    d223            movs        param_4,#0xd2                           
ram:0001e9a4    8025            movs        r5,#0x80                                
ram:0001e9a6    324f            ldr         r7,[DAT_0001ea70]                       ;= 40011000h
ram:0001e9a8    6d02            lsls        r5,r5,#0x9                              
ram:0001e9aa    9b00            lsls        param_4,param_4,#0x2                    
ram:0001e9ac    fd50            str         r5,[r7,param_4]=>DAT_40011348           
ram:0001e9ae    403b            subs        param_4,#0x40                           
ram:0001e9b0    fd50            str         r5,[r7,param_4]=>DAT_40011308           
ram:0001e9b2    0123            movs        param_4,#0x1                            
ram:0001e9b4    2f4d            ldr         r5,[DAT_0001ea74]                       ;= 2000203Ch
ram:0001e9b6    7b60            str         param_4,[r7,#offset DAT_40011004 &0xff] 
ram:0001e9b8    9946            mov         r9,param_4                              
ram:0001e9ba    2b68            ldr         param_4,[r5,#0x0]=>DAT_2000203c         
ram:0001e9bc    2f25            movs        r5,#0x2f                                
ram:0001e9be    9c46            mov         r12,param_4                             
ram:0001e9c0    2d4b            ldr         param_4,[DAT_0001ea78]                  ;= 00F42400h
ram:0001e9c2    9846            mov         r8,param_4                              
ram:0001e9c4    2b00            movs        param_4,r5                              
                            LAB_0001e9c6:                 ;XREF[1,0]:   0001e9de
ram:0001e9c6    c046            mov         r8,r8                                   
ram:0001e9c8    c046            mov         r8,r8                                   
ram:0001e9ca    c046            mov         r8,r8                                   
ram:0001e9cc    c046            mov         r8,r8                                   
ram:0001e9ce    c046            mov         r8,r8                                   
ram:0001e9d0    c046            mov         r8,r8                                   
ram:0001e9d2    c046            mov         r8,r8                                   
ram:0001e9d4    c046            mov         r8,r8                                   
ram:0001e9d6    c445            cmp         r12,r8                                  
ram:0001e9d8    00d0            beq         LAB_0001e9dc                            
ram:0001e9da    c046            mov         r8,r8                                   
                            LAB_0001e9dc:                 ;XREF[1,0]:   0001e9d8
ram:0001e9dc    013b            subs        param_4,#0x1                            
ram:0001e9de    f2d1            bne         LAB_0001e9c6                            
ram:0001e9e0    4b46            mov         param_4,r9                              
ram:0001e9e2    bb60            str         param_4,[r7,#offset DAT_40011008 &0xff] 
                            LAB_0001e9e4:                 ;XREF[1,0]:   0001e9fc
ram:0001e9e4    c046            mov         r8,r8                                   
ram:0001e9e6    c046            mov         r8,r8                                   
ram:0001e9e8    c046            mov         r8,r8                                   
ram:0001e9ea    c046            mov         r8,r8                                   
ram:0001e9ec    c046            mov         r8,r8                                   
ram:0001e9ee    c046            mov         r8,r8                                   
ram:0001e9f0    c046            mov         r8,r8                                   
ram:0001e9f2    c046            mov         r8,r8                                   
ram:0001e9f4    c445            cmp         r12,r8                                  
ram:0001e9f6    00d0            beq         LAB_0001e9fa                            
ram:0001e9f8    c046            mov         r8,r8                                   
                            LAB_0001e9fa:                 ;XREF[1,0]:   0001e9f6
ram:0001e9fa    013d            subs        r5,#0x1                                 
ram:0001e9fc    f2d1            bne         LAB_0001e9e4                            
ram:0001e9fe    5b46            mov         param_4,r11                             
ram:0001ea00    1e4d            ldr         r5,[DAT_0001ea7c]                       ;= 20002925h
ram:0001ea02    2c70            strb        r4,[r5,#0x0]=>DAT_20002925              
ram:0001ea04    1e4d            ldr         r5,[DAT_0001ea80]                       ;= 20002918h
ram:0001ea06    2b60            str         param_4,[r5,#0x0]=>DAT_20002918         
ram:0001ea08    0025            movs        r5,#0x0                                 
ram:0001ea0a    1e4b            ldr         param_4,[DAT_0001ea84]                  ;= 2000291Ch
ram:0001ea0c    1c80            strh        r4,[param_4,#0x0]=>DAT_2000291c         
ram:0001ea0e    9970            strb        param_2,[param_4,#0x2]=>DAT_2000291e    
ram:0001ea10    5a60            str         param_3,[param_4,#0x4]=>DAT_20002920    
ram:0001ea12    1d4b            ldr         param_4,[DAT_0001ea88]                  ;= 20002938h
ram:0001ea14    8022            movs        param_3,#0x80                           
ram:0001ea16    1c60            str         r4,[param_4,#0x0]=>DAT_20002938         
ram:0001ea18    1c4b            ldr         param_4,[DAT_0001ea8c]                  ;= 20002930h
ram:0001ea1a    c521            movs        param_2,#0xc5                           
ram:0001ea1c    1d70            strb        r5,[param_4,#0x0]=>DAT_20002930         
ram:0001ea1e    1c4b            ldr         param_4,[DAT_0001ea90]                  ;= 20002931h
ram:0001ea20    5203            lsls        param_3,param_3,#0xd                    
ram:0001ea22    1d70            strb        r5,[param_4,#0x0]=>DAT_20002931         
ram:0001ea24    c023            movs        param_4,#0xc0                           
ram:0001ea26    5b00            lsls        param_4,param_4,#0x1                    
ram:0001ea28    f250            str         param_3,[r6,param_4]=>DAT_e000e280      
ram:0001ea2a    8900            lsls        param_2,param_2,#0x2                    
ram:0001ea2c    7358            ldr         param_4,[r6,param_2]=>DAT_e000e414      
ram:0001ea2e    ff34            adds        r4,#0xff                                
ram:0001ea30    a343            bics        param_4,r4                              
ram:0001ea32    3f3c            subs        r4,#0x3f                                
ram:0001ea34    2343            orrs        param_4,r4                              
ram:0001ea36    7350            str         param_4,[r6,param_2]=>DAT_e000e414      
ram:0001ea38    a123            movs        param_4,#0xa1                           
ram:0001ea3a    db00            lsls        param_4,param_4,#0x3                    
ram:0001ea3c    3260            str         param_3,[r6,#0x0]=>DAT_e000e100         
ram:0001ea3e    0439            subs        param_2,#0x4                            
ram:0001ea40    f850            str         param_1,[r7,param_4]=>DAT_40011508      
ram:0001ea42    7358            ldr         param_4,[r6,param_2]=>DAT_e000e410      
ram:0001ea44    134a            ldr         param_3,[DAT_0001ea94]                  ;= FFFF00FFh
ram:0001ea46    0020            movs        param_1,#0x0                            
ram:0001ea48    1a40            ands        param_3,param_4                         
ram:0001ea4a    c023            movs        param_4,#0xc0                           
ram:0001ea4c    1b02            lsls        param_4,param_4,#0x8                    
ram:0001ea4e    1343            orrs        param_4,param_3                         
ram:0001ea50    7350            str         param_4,[r6,param_2]=>DAT_e000e410      
ram:0001ea52    114b            ldr         param_4,[DAT_0001ea98]                  ;= 00000504h
ram:0001ea54    fa58            ldr         param_3,[r7,param_4]=>DAT_40011504      
ram:0001ea56    114b            ldr         param_4,[DAT_0001ea9c]                  ;= 20002934h
ram:0001ea58    1a60            str         param_3,[param_4,#0x0]=>DAT_20002934    
ram:0001ea5a    00e0            b           LAB_0001ea5e                            
                            LAB_0001ea5c:                 ;XREF[2,0]:   0001e990,0001e996
ram:0001ea5c    0720            movs        param_1,#0x7                            
                            LAB_0001ea5e:                 ;XREF[1,0]:   0001ea5a
ram:0001ea5e    3cbc            pop         {param_3,param_4,r4,r5}                 
ram:0001ea60    9046            mov         r8,param_3                              
ram:0001ea62    9946            mov         r9,param_4                              
ram:0001ea64    a246            mov         r10,r4                                  
ram:0001ea66    ab46            mov         r11,r5                                  
ram:0001ea68    f0bd            pop         {r4,r5,r6,r7,pc}                        
ram:0001ea6a    c046            mov         r8,r8                                   
                            DAT_0001ea6c:                 ;XREF[1,0]:   0001e99c
ram:0001ea6c    00e100e0        undefined4  E000E100h                               
                            DAT_0001ea70:                 ;XREF[1,0]:   0001e9a6
ram:0001ea70    00100140        undefined4  40011000h                               
                            DAT_0001ea74:                 ;XREF[1,0]:   0001e9b4
ram:0001ea74    3c200020        undefined4  2000203Ch                               
                            DAT_0001ea78:                 ;XREF[1,0]:   0001e9c0
ram:0001ea78    0024f400        undefined4  00F42400h                               
                            DAT_0001ea7c:                 ;XREF[1,0]:   0001ea00
ram:0001ea7c    25290020        undefined4  20002925h                               
                            DAT_0001ea80:                 ;XREF[1,0]:   0001ea04
ram:0001ea80    18290020        undefined4  20002918h                               
                            DAT_0001ea84:                 ;XREF[1,0]:   0001ea0a
ram:0001ea84    1c290020        undefined4  2000291Ch                               
                            DAT_0001ea88:                 ;XREF[1,0]:   0001ea12
ram:0001ea88    38290020        undefined4  20002938h                               
                            DAT_0001ea8c:                 ;XREF[1,0]:   0001ea18
ram:0001ea8c    30290020        undefined4  20002930h                               
                            DAT_0001ea90:                 ;XREF[1,0]:   0001ea1e
ram:0001ea90    31290020        undefined4  20002931h                               
                            DAT_0001ea94:                 ;XREF[1,0]:   0001ea44
ram:0001ea94    ff00ffff        undefined4  FFFF00FFh                               
                            DAT_0001ea98:                 ;XREF[1,0]:   0001ea52
ram:0001ea98    04050000        undefined4  00000504h                               
                            DAT_0001ea9c:                 ;XREF[1,0]:   0001ea56
ram:0001ea9c    34290020        undefined4  20002934h                               
                            ;************************************************************************************************
                            ;*                                           FUNCTION                                           *
                            ;************************************************************************************************
                            ;undefined FUN_0001eaa0(int * param_1, undefined param_2, int param_3)
          ;param_1       int *               r0                      
          ;param_2       undefined           r1                      
          ;param_3       int                 r2                      
                                                          ;XREF[7,0]:   0001b89e,0001b8ac,0001b8ba,0001bd40
                                                          ;             0001bd4e,0001bee4,0001d268
ram:0001eaa0    094b            ldr         r3,[DAT_0001eac8]                       ;= 2000291Ch
ram:0001eaa2    5b68            ldr         r3,[r3,#0x4]=>DAT_20002920              
ram:0001eaa4    002b            cmp         r3,#0x0                                 
ram:0001eaa6    0ad0            beq         LAB_0001eabe                            
ram:0001eaa8    002a            cmp         param_3,#0x0                            
ram:0001eaaa    0ad0            beq         LAB_0001eac2                            
ram:0001eaac    0028            cmp         param_1,#0x0                            
ram:0001eaae    08d0            beq         LAB_0001eac2                            
ram:0001eab0    0368            ldr         r3,[param_1,#0x0]                       
ram:0001eab2    187c            ldrb        param_1,[r3,#0x10]                      
ram:0001eab4    0028            cmp         param_1,#0x0                            
ram:0001eab6    02d1            bne         LAB_0001eabe                            
ram:0001eab8    5974            strb        param_2,[r3,#0x11]                      
ram:0001eaba    5a61            str         param_3,[r3,#0x14]                      
                            LAB_0001eabc:                 ;XREF[2,0]:   0001eac0,0001eac4
ram:0001eabc    7047            bx          lr                                      
                            LAB_0001eabe:                 ;XREF[2,0]:   0001eaa6,0001eab6
ram:0001eabe    0820            movs        param_1,#0x8                            
ram:0001eac0    fce7            b           LAB_0001eabc                            
                            LAB_0001eac2:                 ;XREF[2,0]:   0001eaaa,0001eaae
ram:0001eac2    0720            movs        param_1,#0x7                            
ram:0001eac4    fae7            b           LAB_0001eabc                            
ram:0001eac6    c046            mov         r8,r8                                   
                            DAT_0001eac8:                 ;XREF[1,0]:   0001eaa0
ram:0001eac8    1c290020        undefined4  2000291Ch                               
                            ;************************************************************************************************
                            ;*                                           FUNCTION                                           *
                            ;************************************************************************************************
                            ;undefined4 FUN_0001eacc(int param_1, uint param_2, undefined4 param_3)
          ;param_1       int                 r0                      
          ;param_2       uint                r1                      
          ;param_3       undefined4          r2                      
          ;local_21      undefined1         -21                      ;XREF[3,0]:   0001eb04,0001eb48,0001eb76
                                                          ;XREF[18,0]:  0001b7b4,0001b806,0001b820,0001b970
                                                          ;             0001b98a,0001ba00,0001ba0c,0001ba6c
                                                          ;             0001ba78,0001bab2,0001babe,0001bb32
                                                          ;             0001bbf4,0001bc24,0001bcc2,0001bef8
                                                          ;             0001d1f2,0001d384
ram:0001eacc    f0b5            push        {r4,r5,r6,r7,lr}                        
ram:0001eace    4746            mov         r7,r8                                   
ram:0001ead0    ce46            mov         lr,r9                                   
ram:0001ead2    80b5            push        {r7,lr}                                 
ram:0001ead4    2a4c            ldr         r4,[DAT_0001eb80]                       ;= 2000291Ch
ram:0001ead6    83b0            sub         sp,#0xc                                 
ram:0001ead8    6368            ldr         r3,[r4,#0x4]=>DAT_20002920              
ram:0001eada    0600            movs        r6,param_1                              
ram:0001eadc    0f00            movs        r7,param_2                              
ram:0001eade    9046            mov         r8,param_3                              
ram:0001eae0    002b            cmp         r3,#0x0                                 
ram:0001eae2    44d0            beq         LAB_0001eb6e                            
ram:0001eae4    0028            cmp         param_1,#0x0                            
ram:0001eae6    42d0            beq         LAB_0001eb6e                            
ram:0001eae8    0429            cmp         param_2,#0x4                            
ram:0001eaea    3ed9            bls         LAB_0001eb6a                            
ram:0001eaec    4369            ldr         r3,[param_1,#0x14]                      
ram:0001eaee    002b            cmp         r3,#0x0                                 
ram:0001eaf0    3dd0            beq         LAB_0001eb6e                            
ram:0001eaf2    437c            ldrb        r3,[param_1,#0x11]                      
ram:0001eaf4    012b            cmp         r3,#0x1                                 
ram:0001eaf6    3cd0            beq         LAB_0001eb72                            
ram:0001eaf8    0023            movs        r3,#0x0                                 
ram:0001eafa    9946            mov         r9,r3                                   
                            LAB_0001eafc:                 ;XREF[1,0]:   0001eb74
ram:0001eafc    6b46            mov         r3,sp                                   
ram:0001eafe    dd1d            adds        r5,r3,#0x7                              
ram:0001eb00    0023            movs        r3,#0x0                                 
ram:0001eb02    2800            movs        param_1,r5                              
ram:0001eb04    2b70            strb        r3,[r5,#0x0]=>local_21                  
ram:0001eb06    00f097f8        bl          FUN_0001ec38                            ;undefined FUN_0001ec38(undefined * p...
ram:0001eb0a    6178            ldrb        param_2,[r4,#0x1]=>DAT_2000291d         
ram:0001eb0c    a378            ldrb        r3,[r4,#0x2]=>DAT_2000291e              
ram:0001eb0e    4a1c            adds        param_3,param_2,#0x1                    
ram:0001eb10    d2b2            uxtb        param_3,param_3                         
ram:0001eb12    9b1a            subs        r3,r3,param_3                           
ram:0001eb14    581e            subs        param_1,r3,#0x1                         
ram:0001eb16    8341            sbcs        r3,param_1                              
ram:0001eb18    5b42            rsbs        r3,r3                                   
ram:0001eb1a    1a40            ands        param_3,r3                              
ram:0001eb1c    2378            ldrb        r3,[r4,#0x0]=>DAT_2000291c              
ram:0001eb1e    9342            cmp         r3,param_3                              
ram:0001eb20    29d0            beq         LAB_0001eb76                            
ram:0001eb22    4b00            lsls        r3,param_2,#0x1                         
ram:0001eb24    5b18            adds        r3,r3,param_2                           
ram:0001eb26    6168            ldr         param_2,[r4,#0x4]=>DAT_20002920         
ram:0001eb28    db00            lsls        r3,r3,#0x3                              
ram:0001eb2a    8c46            mov         r12,param_2                             
ram:0001eb2c    6344            add         r3,r12                                  
ram:0001eb2e    002b            cmp         r3,#0x0                                 
ram:0001eb30    21d0            beq         LAB_0001eb76                            
ram:0001eb32    0121            movs        param_2,#0x1                            
ram:0001eb34    1348            ldr         param_1,[DAT_0001eb84]                  ;= 40011000h
ram:0001eb36    1970            strb        param_2,[r3,#0x0]                       
ram:0001eb38    1349            ldr         param_2,[DAT_0001eb88]                  ;= 00000504h
ram:0001eb3a    5e60            str         r6,[r3,#0x4]                            
ram:0001eb3c    4158            ldr         param_2,[param_1,param_2]=>DAT_40011504 
ram:0001eb3e    df60            str         r7,[r3,#0xc]                            
ram:0001eb40    9960            str         param_2,[r3,#0x8]                       
ram:0001eb42    4946            mov         param_2,r9                              
ram:0001eb44    1961            str         param_2,[r3,#0x10]                      
ram:0001eb46    4146            mov         param_2,r8                              
ram:0001eb48    2878            ldrb        param_1,[r5,#0x0]=>local_21             
ram:0001eb4a    5961            str         param_2,[r3,#0x14]                      
ram:0001eb4c    6270            strb        param_3,[r4,#0x1]=>DAT_2000291d         
ram:0001eb4e    00f093f8        bl          FUN_0001ec78                            ;undefined FUN_0001ec78(int param_1)
ram:0001eb52    8023            movs        r3,#0x80                                
ram:0001eb54    8021            movs        param_2,#0x80                           
ram:0001eb56    0020            movs        param_1,#0x0                            
ram:0001eb58    0c4a            ldr         param_3,[DAT_0001eb8c]                  ;= E000E100h
ram:0001eb5a    5b00            lsls        r3,r3,#0x1                              
ram:0001eb5c    4903            lsls        param_2,param_2,#0xd                    
ram:0001eb5e    d150            str         param_2,[param_3,r3]=>DAT_e000e200      
                            LAB_0001eb60:                 ;XREF[3,0]:   0001eb6c,0001eb70,0001eb7e
ram:0001eb60    03b0            add         sp,#0xc                                 
ram:0001eb62    0cbc            pop         {param_3,r3}                            
ram:0001eb64    9046            mov         r8,param_3                              
ram:0001eb66    9946            mov         r9,r3                                   
ram:0001eb68    f0bd            pop         {r4,r5,r6,r7,pc}                        
                            LAB_0001eb6a:                 ;XREF[1,0]:   0001eaea
ram:0001eb6a    0720            movs        param_1,#0x7                            
ram:0001eb6c    f8e7            b           LAB_0001eb60                            
                            LAB_0001eb6e:                 ;XREF[3,0]:   0001eae2,0001eae6,0001eaf0
ram:0001eb6e    0820            movs        param_1,#0x8                            
ram:0001eb70    f6e7            b           LAB_0001eb60                            
                            LAB_0001eb72:                 ;XREF[1,0]:   0001eaf6
ram:0001eb72    8946            mov         r9,param_2                              
ram:0001eb74    c2e7            b           LAB_0001eafc                            
                            LAB_0001eb76:                 ;XREF[2,0]:   0001eb20,0001eb30
ram:0001eb76    2878            ldrb        param_1,[r5,#0x0]=>local_21             
ram:0001eb78    00f07ef8        bl          FUN_0001ec78                            ;undefined FUN_0001ec78(int param_1)
ram:0001eb7c    0420            movs        param_1,#0x4                            
ram:0001eb7e    efe7            b           LAB_0001eb60                            
                            DAT_0001eb80:                 ;XREF[1,0]:   0001ead4
ram:0001eb80    1c290020        undefined4  2000291Ch                               
                            DAT_0001eb84:                 ;XREF[1,0]:   0001eb34
ram:0001eb84    00100140        undefined4  40011000h                               
                            DAT_0001eb88:                 ;XREF[1,0]:   0001eb38
ram:0001eb88    04050000        undefined4  00000504h                               
                            DAT_0001eb8c:                 ;XREF[1,0]:   0001eb58
ram:0001eb8c    00e100e0        undefined4  E000E100h                               
                            ;************************************************************************************************
                            ;*                                           FUNCTION                                           *
                            ;************************************************************************************************
                            ;undefined4 FUN_0001eb90(int param_1)
          ;param_1       int                 r0                      
          ;local_11      undefined1         -11                      ;XREF[3,0]:   0001ebb2,0001ebe6,0001ec04
                                                          ;XREF[15,0]:  0001b79e,0001b828,0001b82e,0001b834
                                                          ;             0001b908,0001b90e,0001b914,0001b992
                                                          ;             0001b998,0001b99e,0001ba14,0001ba1c
                                                          ;             0001ba22,0001d322,0001d362
ram:0001eb90    70b5            push        {r4,r5,r6,lr}                           
ram:0001eb92    1f4c            ldr         r4,[DAT_0001ec10]                       ;= 2000291Ch
ram:0001eb94    82b0            sub         sp,#0x8                                 
ram:0001eb96    6368            ldr         r3,[r4,#0x4]=>DAT_20002920              
ram:0001eb98    0600            movs        r6,param_1                              
ram:0001eb9a    002b            cmp         r3,#0x0                                 
ram:0001eb9c    30d0            beq         LAB_0001ec00                            
ram:0001eb9e    0028            cmp         param_1,#0x0                            
ram:0001eba0    2ed0            beq         LAB_0001ec00                            
ram:0001eba2    4369            ldr         r3,[param_1,#0x14]                      
ram:0001eba4    002b            cmp         r3,#0x0                                 
ram:0001eba6    2bd0            beq         LAB_0001ec00                            
ram:0001eba8    6a46            mov         r2,sp                                   
ram:0001ebaa    0023            movs        r3,#0x0                                 
ram:0001ebac    d51d            adds        r5,r2,#0x7                              
ram:0001ebae    0374            strb        r3,[param_1,#0x10]                      
ram:0001ebb0    2800            movs        param_1,r5                              
ram:0001ebb2    2b70            strb        r3,[r5,#0x0]=>local_11                  
ram:0001ebb4    00f040f8        bl          FUN_0001ec38                            ;undefined FUN_0001ec38(undefined * p...
ram:0001ebb8    6178            ldrb        r1,[r4,#0x1]=>DAT_2000291d              
ram:0001ebba    a378            ldrb        r3,[r4,#0x2]=>DAT_2000291e              
ram:0001ebbc    4a1c            adds        r2,r1,#0x1                              
ram:0001ebbe    d2b2            uxtb        r2,r2                                   
ram:0001ebc0    9b1a            subs        r3,r3,r2                                
ram:0001ebc2    581e            subs        param_1,r3,#0x1                         
ram:0001ebc4    8341            sbcs        r3,param_1                              
ram:0001ebc6    5b42            rsbs        r3,r3                                   
ram:0001ebc8    1a40            ands        r2,r3                                   
ram:0001ebca    2378            ldrb        r3,[r4,#0x0]=>DAT_2000291c              
ram:0001ebcc    9342            cmp         r3,r2                                   
ram:0001ebce    19d0            beq         LAB_0001ec04                            
ram:0001ebd0    4b00            lsls        r3,r1,#0x1                              
ram:0001ebd2    5b18            adds        r3,r3,r1                                
ram:0001ebd4    6168            ldr         r1,[r4,#0x4]=>DAT_20002920              
ram:0001ebd6    db00            lsls        r3,r3,#0x3                              
ram:0001ebd8    8c46            mov         r12,r1                                  
ram:0001ebda    6344            add         r3,r12                                  
ram:0001ebdc    002b            cmp         r3,#0x0                                 
ram:0001ebde    11d0            beq         LAB_0001ec04                            
ram:0001ebe0    0221            movs        r1,#0x2                                 
ram:0001ebe2    1970            strb        r1,[r3,#0x0]                            
ram:0001ebe4    5e60            str         r6,[r3,#0x4]                            
ram:0001ebe6    2878            ldrb        param_1,[r5,#0x0]=>local_11             
ram:0001ebe8    6270            strb        r2,[r4,#0x1]=>DAT_2000291d              
ram:0001ebea    00f045f8        bl          FUN_0001ec78                            ;undefined FUN_0001ec78(int param_1)
ram:0001ebee    8023            movs        r3,#0x80                                
ram:0001ebf0    8021            movs        r1,#0x80                                
ram:0001ebf2    0020            movs        param_1,#0x0                            
ram:0001ebf4    074a            ldr         r2,[DAT_0001ec14]                       ;= E000E100h
ram:0001ebf6    5b00            lsls        r3,r3,#0x1                              
ram:0001ebf8    4903            lsls        r1,r1,#0xd                              
ram:0001ebfa    d150            str         r1,[r2,r3]=>DAT_e000e200                
                            LAB_0001ebfc:                 ;XREF[2,0]:   0001ec02,0001ec0c
ram:0001ebfc    02b0            add         sp,#0x8                                 
ram:0001ebfe    70bd            pop         {r4,r5,r6,pc}                           
                            LAB_0001ec00:                 ;XREF[3,0]:   0001eb9c,0001eba0,0001eba6
ram:0001ec00    0820            movs        param_1,#0x8                            
ram:0001ec02    fbe7            b           LAB_0001ebfc                            
                            LAB_0001ec04:                 ;XREF[2,0]:   0001ebce,0001ebde
ram:0001ec04    2878            ldrb        param_1,[r5,#0x0]=>local_11             
ram:0001ec06    00f037f8        bl          FUN_0001ec78                            ;undefined FUN_0001ec78(int param_1)
ram:0001ec0a    0420            movs        param_1,#0x4                            
ram:0001ec0c    f6e7            b           LAB_0001ebfc                            
ram:0001ec0e    c046            mov         r8,r8                                   
                            DAT_0001ec10:                 ;XREF[1,0]:   0001eb92
ram:0001ec10    1c290020        undefined4  2000291Ch                               
                            DAT_0001ec14:                 ;XREF[1,0]:   0001ebf4
ram:0001ec14    00e100e0        undefined4  E000E100h                               
                            ;************************************************************************************************
                            ;*                                           FUNCTION                                           *
                            ;************************************************************************************************
                            ;undefined FUN_0001ec18(void)
          ;local_c       undefined4          -c                      ;XREF[1,0]:   0001ec20
          ;local_10      undefined4         -10                      ;XREF[1,0]:   0001ec28
          ;local_14      undefined2         -14                      ;XREF[1,0]:   0001ec26
                                                          ;XREF[29,0]:  0001b246,0001b24c,0001b252,0001b258
                                                          ;             0001b25e,0001b5bc,0001b8c2,0001b8c8
                                                          ;             0001b8ce,0001bd56,0001bdb8,0001be0c
                                                          ;             0001be86,0001bea0,0001bebe,0001bec4
                                                          ;             0001bed6,0001beec,0001bf38,0001bf46
                                                          ;             0001bf7c,0001bfdc,0001d4ba,0001d52a
                                                          ;             0001d5c4,0001e432,0001f220,0001f296
                                                          ;             0001f38e
ram:0001ec18    0023            movs        r3,#0x0                                 
ram:0001ec1a    00b5            push        {lr}                                    
ram:0001ec1c    85b0            sub         sp,#0x14                                
ram:0001ec1e    01aa            add         r2,sp,#0x4                              
ram:0001ec20    9060            str         r0,[r2,#local_c+0x14]                   
ram:0001ec22    0021            movs        r1,#0x0                                 
ram:0001ec24    0348            ldr         r0,[DAT_0001ec34]                       ;= 00004001h
ram:0001ec26    1380            strh        r3,[r2,#0x0]=>local_14                  
ram:0001ec28    5360            str         r3,[r2,#local_10+0x14]                  
ram:0001ec2a    fcf7bdfa        bl          FUN_0001b1a8                            ;undefined FUN_0001b1a8(void)
ram:0001ec2e    05b0            add         sp,#0x14                                
ram:0001ec30    00bd            pop         {pc}                                    
ram:0001ec32    c046            mov         r8,r8                                   
                            DAT_0001ec34:                 ;XREF[1,0]:   0001ec24
ram:0001ec34    01400000        undefined4  00004001h                               
                            ;************************************************************************************************
                            ;*                                           FUNCTION                                           *
                            ;************************************************************************************************
                            ;undefined FUN_0001ec38(undefined * param_1)
          ;param_1       undefined *         r0                      
                                                          ;XREF[3,0]:   0001d966,0001eb06,0001ebb4
ram:0001ec38    f0b5            push        {r4,r5,r6,r7,lr}                        
ram:0001ec3a    eff31081        mrs         r1,primask                              
ram:0001ec3e    72b6            cpsid       i                                       
ram:0001ec40    0a4b            ldr         r3,[DAT_0001ec6c]                       ;= 200029BCh
ram:0001ec42    5a68            ldr         r2,[r3,#0x4]=>DAT_200029c0              
ram:0001ec44    002a            cmp         r2,#0x0                                 
ram:0001ec46    0dd1            bne         LAB_0001ec64                            
ram:0001ec48    0124            movs        r4,#0x1                                 
ram:0001ec4a    8025            movs        r5,#0x80                                
ram:0001ec4c    084e            ldr         r6,[DAT_0001ec70]                       ;= E000E100h
ram:0001ec4e    5c60            str         r4,[r3,#0x4]=>DAT_200029c0              
ram:0001ec50    7459            ldr         r4,[r6,r5]=>DAT_e000e180                
ram:0001ec52    084f            ldr         r7,[DAT_0001ec74]                       ;= BCFF06FCh
ram:0001ec54    3c40            ands        r4,r7                                   
ram:0001ec56    1c60            str         r4,[r3,#0x0]=>DAT_200029bc              
ram:0001ec58    7751            str         r7,[r6,r5]=>DAT_e000e180                
ram:0001ec5a    0270            strb        r2,[param_1,#0x0]                       
                            LAB_0001ec5c:                 ;XREF[1,0]:   0001ec68
ram:0001ec5c    0029            cmp         r1,#0x0                                 
ram:0001ec5e    00d1            bne         LAB_0001ec62                            
ram:0001ec60    62b6            cpsie       i                                       
                            LAB_0001ec62:                 ;XREF[1,0]:   0001ec5e
ram:0001ec62    f0bd            pop         {r4,r5,r6,r7,pc}                        
                            LAB_0001ec64:                 ;XREF[1,0]:   0001ec46
ram:0001ec64    0123            movs        r3,#0x1                                 
ram:0001ec66    0370            strb        r3,[param_1,#0x0]                       
ram:0001ec68    f8e7            b           LAB_0001ec5c                            
ram:0001ec6a    c046            mov         r8,r8                                   
                            DAT_0001ec6c:                 ;XREF[1,0]:   0001ec40
ram:0001ec6c    bc290020        undefined4  200029BCh                               
                            DAT_0001ec70:                 ;XREF[1,0]:   0001ec4c
ram:0001ec70    00e100e0        undefined4  E000E100h                               
                            DAT_0001ec74:                 ;XREF[1,0]:   0001ec52
ram:0001ec74    fc06ffbc        undefined4  BCFF06FCh                               
                            ;************************************************************************************************
                            ;*                                           FUNCTION                                           *
                            ;************************************************************************************************
                            ;undefined FUN_0001ec78(int param_1)
          ;param_1       int                 r0                      
                                                          ;XREF[5,0]:   0001d97e,0001eb4e,0001eb78,0001ebea
                                                          ;             0001ec06
ram:0001ec78    10b5            push        {r4,lr}                                 
ram:0001ec7a    084b            ldr         r3,[DAT_0001ec9c]                       ;= 200029BCh
ram:0001ec7c    5a68            ldr         r2,[r3,#0x4]=>DAT_200029c0              
ram:0001ec7e    002a            cmp         r2,#0x0                                 
ram:0001ec80    0bd0            beq         LAB_0001ec9a                            
ram:0001ec82    0028            cmp         param_1,#0x0                            
ram:0001ec84    09d1            bne         LAB_0001ec9a                            
ram:0001ec86    eff31082        mrs         r2,primask                              
ram:0001ec8a    72b6            cpsid       i                                       
ram:0001ec8c    0449            ldr         r1,[DAT_0001eca0]                       ;= E000E100h
ram:0001ec8e    1c68            ldr         r4,[r3,#0x0]=>DAT_200029bc              
ram:0001ec90    0c60            str         r4,[r1,#0x0]=>DAT_e000e100              
ram:0001ec92    5860            str         param_1,[r3,#0x4]=>DAT_200029c0         
ram:0001ec94    002a            cmp         r2,#0x0                                 
ram:0001ec96    00d1            bne         LAB_0001ec9a                            
ram:0001ec98    62b6            cpsie       i                                       
                            LAB_0001ec9a:                 ;XREF[3,0]:   0001ec80,0001ec84,0001ec96
ram:0001ec9a    10bd            pop         {r4,pc}                                 
                            DAT_0001ec9c:                 ;XREF[1,0]:   0001ec7a
ram:0001ec9c    bc290020        undefined4  200029BCh                               
                            DAT_0001eca0:                 ;XREF[1,0]:   0001ec8c
ram:0001eca0    00e100e0        undefined4  E000E100h                               
                            ;************************************************************************************************
                            ;*                                           FUNCTION                                           *
                            ;************************************************************************************************
                            ;int FUN_0001eca4(uint param_1)
          ;param_1       uint                r0                      
                                                          ;XREF[1,0]:   0001d42a
ram:0001eca4    0123            movs        r3,#0x1                                 
ram:0001eca6    0342            tst         r3,param_1                              
ram:0001eca8    17d1            bne         LAB_0001ecda                            
ram:0001ecaa    4210            asrs        r2,param_1,#0x1                         
ram:0001ecac    1342            tst         r3,r2                                   
ram:0001ecae    16d1            bne         LAB_0001ecde                            
ram:0001ecb0    8210            asrs        r2,param_1,#0x2                         
ram:0001ecb2    1342            tst         r3,r2                                   
ram:0001ecb4    15d1            bne         LAB_0001ece2                            
ram:0001ecb6    c210            asrs        r2,param_1,#0x3                         
ram:0001ecb8    1342            tst         r3,r2                                   
ram:0001ecba    14d1            bne         LAB_0001ece6                            
ram:0001ecbc    0211            asrs        r2,param_1,#0x4                         
ram:0001ecbe    1342            tst         r3,r2                                   
ram:0001ecc0    13d1            bne         LAB_0001ecea                            
ram:0001ecc2    4211            asrs        r2,param_1,#0x5                         
ram:0001ecc4    1342            tst         r3,r2                                   
ram:0001ecc6    12d1            bne         LAB_0001ecee                            
ram:0001ecc8    8211            asrs        r2,param_1,#0x6                         
ram:0001ecca    1342            tst         r3,r2                                   
ram:0001eccc    11d1            bne         LAB_0001ecf2                            
ram:0001ecce    c011            asrs        param_1,param_1,#0x7                    
ram:0001ecd0    094b            ldr         r3,[DAT_0001ecf8]                       ;= 0000FFF8h
ram:0001ecd2    0138            subs        param_1,#0x1                            
ram:0001ecd4    1840            ands        param_1,r3                              
ram:0001ecd6    0730            adds        param_1,#0x7                            
                            LAB_0001ecd8:                 ;XREF[7,0]:   0001ecdc,0001ece0,0001ece4,0001ece8
                                                          ;             0001ecec,0001ecf0,0001ecf4
ram:0001ecd8    7047            bx          lr                                      
                            LAB_0001ecda:                 ;XREF[1,0]:   0001eca8
ram:0001ecda    0020            movs        param_1,#0x0                            
ram:0001ecdc    fce7            b           LAB_0001ecd8                            
                            LAB_0001ecde:                 ;XREF[1,0]:   0001ecae
ram:0001ecde    0120            movs        param_1,#0x1                            
ram:0001ece0    fae7            b           LAB_0001ecd8                            
                            LAB_0001ece2:                 ;XREF[1,0]:   0001ecb4
ram:0001ece2    0220            movs        param_1,#0x2                            
ram:0001ece4    f8e7            b           LAB_0001ecd8                            
                            LAB_0001ece6:                 ;XREF[1,0]:   0001ecba
ram:0001ece6    0320            movs        param_1,#0x3                            
ram:0001ece8    f6e7            b           LAB_0001ecd8                            
                            LAB_0001ecea:                 ;XREF[1,0]:   0001ecc0
ram:0001ecea    0420            movs        param_1,#0x4                            
ram:0001ecec    f4e7            b           LAB_0001ecd8                            
                            LAB_0001ecee:                 ;XREF[1,0]:   0001ecc6
ram:0001ecee    0520            movs        param_1,#0x5                            
ram:0001ecf0    f2e7            b           LAB_0001ecd8                            
                            LAB_0001ecf2:                 ;XREF[1,0]:   0001eccc
ram:0001ecf2    0620            movs        param_1,#0x6                            
ram:0001ecf4    f0e7            b           LAB_0001ecd8                            
ram:0001ecf6    c046            mov         r8,r8                                   
                            DAT_0001ecf8:                 ;XREF[1,0]:   0001ecd0
ram:0001ecf8    f8ff0000        undefined4  0000FFF8h                               
                            ;************************************************************************************************
                            ;*                                           FUNCTION                                           *
                            ;************************************************************************************************
                            ;undefined FUN_0001ecfc(ushort * param_1, byte * param_2, uint param_3, int param_4)
          ;param_1       ushort *            r0                      
          ;param_2       byte *              r1                      
          ;param_3       uint                r2                      
          ;param_4       int                 r3                      
                                                          ;XREF[6,0]:   0001d446,0001d454,0001d46a,0001d488
                                                          ;             0001d4a0,0001d4b2
ram:0001ecfc    10b5            push        {r4,lr}                                 
ram:0001ecfe    0028            cmp         param_1,#0x0                            
ram:0001ed00    1ad0            beq         LAB_0001ed38                            
ram:0001ed02    0029            cmp         param_2,#0x0                            
ram:0001ed04    18d0            beq         LAB_0001ed38                            
ram:0001ed06    0488            ldrh        r4,[param_1,#0x0]                       
ram:0001ed08    9442            cmp         r4,param_3                              
ram:0001ed0a    23d0            beq         LAB_0001ed54                            
ram:0001ed0c    4488            ldrh        r4,[param_1,#0x2]                       
ram:0001ed0e    9442            cmp         r4,param_3                              
ram:0001ed10    22d0            beq         LAB_0001ed58                            
ram:0001ed12    8488            ldrh        r4,[param_1,#0x4]                       
ram:0001ed14    9442            cmp         r4,param_3                              
ram:0001ed16    21d0            beq         LAB_0001ed5c                            
ram:0001ed18    c488            ldrh        r4,[param_1,#0x6]                       
ram:0001ed1a    9442            cmp         r4,param_3                              
ram:0001ed1c    20d0            beq         LAB_0001ed60                            
ram:0001ed1e    0489            ldrh        r4,[param_1,#0x8]                       
ram:0001ed20    9442            cmp         r4,param_3                              
ram:0001ed22    1fd0            beq         LAB_0001ed64                            
ram:0001ed24    4489            ldrh        r4,[param_1,#0xa]                       
ram:0001ed26    9442            cmp         r4,param_3                              
ram:0001ed28    1ed0            beq         LAB_0001ed68                            
ram:0001ed2a    8489            ldrh        r4,[param_1,#0xc]                       
ram:0001ed2c    9442            cmp         r4,param_3                              
ram:0001ed2e    04d0            beq         LAB_0001ed3a                            
ram:0001ed30    c089            ldrh        param_1,[param_1,#0xe]                  
ram:0001ed32    0724            movs        r4,#0x7                                 
ram:0001ed34    9042            cmp         param_1,param_3                         
ram:0001ed36    01d0            beq         LAB_0001ed3c                            
                            LAB_0001ed38:                 ;XREF[4,0]:   0001ed00,0001ed04,0001ed4c,0001ed52
ram:0001ed38    10bd            pop         {r4,pc}                                 
                            LAB_0001ed3a:                 ;XREF[1,0]:   0001ed2e
ram:0001ed3a    0624            movs        r4,#0x6                                 
                            LAB_0001ed3c:                 ;XREF[7,0]:   0001ed36,0001ed56,0001ed5a,0001ed5e
                                                          ;             0001ed62,0001ed66,0001ed6a
ram:0001ed3c    0122            movs        param_3,#0x1                            
ram:0001ed3e    a240            lsls        param_3,r4                              
ram:0001ed40    0878            ldrb        param_1,[param_2,#0x0]                  
ram:0001ed42    d2b2            uxtb        param_3,param_3                         
ram:0001ed44    002b            cmp         param_4,#0x0                            
ram:0001ed46    02d0            beq         LAB_0001ed4e                            
ram:0001ed48    0243            orrs        param_3,param_1                         
ram:0001ed4a    0a70            strb        param_3,[param_2,#0x0]                  
ram:0001ed4c    f4e7            b           LAB_0001ed38                            
                            LAB_0001ed4e:                 ;XREF[1,0]:   0001ed46
ram:0001ed4e    9043            bics        param_1,param_3                         
ram:0001ed50    0870            strb        param_1,[param_2,#0x0]                  
ram:0001ed52    f1e7            b           LAB_0001ed38                            
                            LAB_0001ed54:                 ;XREF[1,0]:   0001ed0a
ram:0001ed54    0024            movs        r4,#0x0                                 
ram:0001ed56    f1e7            b           LAB_0001ed3c                            
                            LAB_0001ed58:                 ;XREF[1,0]:   0001ed10
ram:0001ed58    0124            movs        r4,#0x1                                 
ram:0001ed5a    efe7            b           LAB_0001ed3c                            
                            LAB_0001ed5c:                 ;XREF[1,0]:   0001ed16
ram:0001ed5c    0224            movs        r4,#0x2                                 
ram:0001ed5e    ede7            b           LAB_0001ed3c                            
                            LAB_0001ed60:                 ;XREF[1,0]:   0001ed1c
ram:0001ed60    0324            movs        r4,#0x3                                 
ram:0001ed62    ebe7            b           LAB_0001ed3c                            
                            LAB_0001ed64:                 ;XREF[1,0]:   0001ed22
ram:0001ed64    0424            movs        r4,#0x4                                 
ram:0001ed66    e9e7            b           LAB_0001ed3c                            
                            LAB_0001ed68:                 ;XREF[1,0]:   0001ed28
ram:0001ed68    0524            movs        r4,#0x5                                 
ram:0001ed6a    e7e7            b           LAB_0001ed3c                            
                            ;************************************************************************************************
                            ;*                                           FUNCTION                                           *
                            ;************************************************************************************************
                            ;undefined FUN_0001ed6c(ushort * param_1, byte * param_2, uint param_3, uint param_4, char param_5)
          ;param_1       ushort *            r0                      
          ;param_2       byte *              r1                      
          ;param_3       uint                r2                      
          ;param_4       uint                r3                      
          ;param_5       char                 0                      ;XREF[1,0]:   0001ed76
                                                          ;XREF[1,0]:   0001d41a
ram:0001ed6c    f0b5            push        {r4,r5,r6,r7,lr}                        
ram:0001ed6e    ce46            mov         lr,r9                                   
ram:0001ed70    4746            mov         r7,r8                                   
ram:0001ed72    80b5            push        {r7,lr}                                 
ram:0001ed74    07ac            add         r4,sp,#0x1c                             
ram:0001ed76    2578            ldrb        r5,[r4,#0x0]=>param_5                   
ram:0001ed78    0028            cmp         param_1,#0x0                            
ram:0001ed7a    21d0            beq         LAB_0001edc0                            
ram:0001ed7c    0029            cmp         param_2,#0x0                            
ram:0001ed7e    1fd0            beq         LAB_0001edc0                            
ram:0001ed80    002a            cmp         param_3,#0x0                            
ram:0001ed82    1dd0            beq         LAB_0001edc0                            
ram:0001ed84    0488            ldrh        r4,[param_1,#0x0]                       
ram:0001ed86    9c42            cmp         r4,param_4                              
ram:0001ed88    00d1            bne         LAB_0001ed8c                            
ram:0001ed8a    eae0            b           LAB_0001ef62                            
                            LAB_0001ed8c:                 ;XREF[1,0]:   0001ed88
ram:0001ed8c    4488            ldrh        r4,[param_1,#0x2]                       
ram:0001ed8e    9c42            cmp         r4,param_4                              
ram:0001ed90    00d1            bne         LAB_0001ed94                            
ram:0001ed92    e8e0            b           LAB_0001ef66                            
                            LAB_0001ed94:                 ;XREF[1,0]:   0001ed90
ram:0001ed94    8488            ldrh        r4,[param_1,#0x4]                       
ram:0001ed96    9c42            cmp         r4,param_4                              
ram:0001ed98    00d1            bne         LAB_0001ed9c                            
ram:0001ed9a    e6e0            b           LAB_0001ef6a                            
                            LAB_0001ed9c:                 ;XREF[1,0]:   0001ed98
ram:0001ed9c    c488            ldrh        r4,[param_1,#0x6]                       
ram:0001ed9e    9c42            cmp         r4,param_4                              
ram:0001eda0    00d1            bne         LAB_0001eda4                            
ram:0001eda2    e4e0            b           LAB_0001ef6e                            
                            LAB_0001eda4:                 ;XREF[1,0]:   0001eda0
ram:0001eda4    0489            ldrh        r4,[param_1,#0x8]                       
ram:0001eda6    9c42            cmp         r4,param_4                              
ram:0001eda8    0ed0            beq         LAB_0001edc8                            
ram:0001edaa    4489            ldrh        r4,[param_1,#0xa]                       
ram:0001edac    9c42            cmp         r4,param_4                              
ram:0001edae    00d1            bne         LAB_0001edb2                            
ram:0001edb0    dfe0            b           LAB_0001ef72                            
                            LAB_0001edb2:                 ;XREF[1,0]:   0001edae
ram:0001edb2    8489            ldrh        r4,[param_1,#0xc]                       
ram:0001edb4    9c42            cmp         r4,param_4                              
ram:0001edb6    00d1            bne         LAB_0001edba                            
ram:0001edb8    dde0            b           LAB_0001ef76                            
                            LAB_0001edba:                 ;XREF[1,0]:   0001edb6
ram:0001edba    c089            ldrh        param_1,[param_1,#0xe]                  
ram:0001edbc    9842            cmp         param_1,param_4                         
ram:0001edbe    6cd0            beq         LAB_0001ee9a                            
                            LAB_0001edc0:                 ;XREF[17,0]:  0001ed7a,0001ed7e,0001ed82,0001ee48
                                                          ;             0001ee56,0001ee64,0001ee72,0001ee80
                                                          ;             0001ee8e,0001ee98,0001ef06,0001ef16
                                                          ;             0001ef26,0001ef36,0001ef46,0001ef56
                                                          ;             0001ef60
ram:0001edc0    0cbc            pop         {param_3,param_4}                       
ram:0001edc2    9046            mov         r8,param_3                              
ram:0001edc4    9946            mov         r9,param_4                              
ram:0001edc6    f0bd            pop         {r4,r5,r6,r7,pc}                        
                            LAB_0001edc8:                 ;XREF[1,0]:   0001eda8
ram:0001edc8    0423            movs        param_4,#0x4                            
                            LAB_0001edca:                 ;XREF[7,0]:   0001ee9c,0001ef64,0001ef68,0001ef6c
                                                          ;             0001ef70,0001ef74,0001ef78
ram:0001edca    0124            movs        r4,#0x1                                 
ram:0001edcc    9c40            lsls        r4,param_4                              
ram:0001edce    e4b2            uxtb        r4,r4                                   
ram:0001edd0    e643            mvns        r6,r4                                   
ram:0001edd2    4b42            rsbs        param_4,param_2                         
ram:0001edd4    f6b2            uxtb        r6,r6                                   
ram:0001edd6    002d            cmp         r5,#0x0                                 
ram:0001edd8    61d1            bne         LAB_0001ee9e                            
ram:0001edda    0324            movs        r4,#0x3                                 
ram:0001eddc    1c40            ands        r4,param_4                              
ram:0001edde    e01c            adds        param_1,r4,#0x3                         
ram:0001ede0    531e            subs        param_4,param_3,#0x1                    
ram:0001ede2    8342            cmp         param_4,param_1                         
ram:0001ede4    00d2            bcs         LAB_0001ede8                            
ram:0001ede6    dae0            b           LAB_0001ef9e                            
                            LAB_0001ede8:                 ;XREF[1,0]:   0001ede4
ram:0001ede8    002c            cmp         r4,#0x0                                 
ram:0001edea    00d1            bne         LAB_0001edee                            
ram:0001edec    cee0            b           LAB_0001ef8c                            
                            LAB_0001edee:                 ;XREF[1,0]:   0001edea
ram:0001edee    0b78            ldrb        param_4,[param_2,#0x0]                  
ram:0001edf0    3340            ands        param_4,r6                              
ram:0001edf2    0b70            strb        param_4,[param_2,#0x0]                  
ram:0001edf4    012c            cmp         r4,#0x1                                 
ram:0001edf6    00d1            bne         LAB_0001edfa                            
ram:0001edf8    c5e0            b           LAB_0001ef86                            
                            LAB_0001edfa:                 ;XREF[1,0]:   0001edf6
ram:0001edfa    4b78            ldrb        param_4,[param_2,#0x1]                  
ram:0001edfc    3340            ands        param_4,r6                              
ram:0001edfe    4b70            strb        param_4,[param_2,#0x1]                  
ram:0001ee00    032c            cmp         r4,#0x3                                 
ram:0001ee02    00d0            beq         LAB_0001ee06                            
ram:0001ee04    c5e0            b           LAB_0001ef92                            
                            LAB_0001ee06:                 ;XREF[1,0]:   0001ee02
ram:0001ee06    8b78            ldrb        param_4,[param_2,#0x2]                  
ram:0001ee08    3340            ands        param_4,r6                              
ram:0001ee0a    8b70            strb        param_4,[param_2,#0x2]                  
ram:0001ee0c    0323            movs        param_4,#0x3                            
ram:0001ee0e    9946            mov         r9,param_4                              
                            LAB_0001ee10:                 ;XREF[3,0]:   0001ef8a,0001ef90,0001ef96
ram:0001ee10    131b            subs        param_4,param_3,r4                      
ram:0001ee12    9846            mov         r8,param_4                              
ram:0001ee14    9b08            lsrs        param_4,param_4,#0x2                    
ram:0001ee16    9c46            mov         r12,param_4                             
ram:0001ee18    3302            lsls        param_4,r6,#0x8                         
ram:0001ee1a    3343            orrs        param_4,r6                              
ram:0001ee1c    3004            lsls        param_1,r6,#0x10                        
ram:0001ee1e    3506            lsls        r5,r6,#0x18                             
ram:0001ee20    1843            orrs        param_1,param_4                         
ram:0001ee22    2843            orrs        param_1,r5                              
ram:0001ee24    0700            movs        r7,param_1                              
ram:0001ee26    0023            movs        param_4,#0x0                            
ram:0001ee28    0025            movs        r5,#0x0                                 
ram:0001ee2a    0c19            adds        r4,param_2,r4                           
                            LAB_0001ee2c:                 ;XREF[1,0]:   0001ee38
ram:0001ee2c    e058            ldr         param_1,[r4,param_4]                    
ram:0001ee2e    0135            adds        r5,#0x1                                 
ram:0001ee30    3840            ands        param_1,r7                              
ram:0001ee32    e050            str         param_1,[r4,param_4]                    
ram:0001ee34    0433            adds        param_4,#0x4                            
ram:0001ee36    6545            cmp         r5,r12                                  
ram:0001ee38    f8d3            bcc         LAB_0001ee2c                            
ram:0001ee3a    0323            movs        param_4,#0x3                            
ram:0001ee3c    4046            mov         param_1,r8                              
ram:0001ee3e    9843            bics        param_1,param_4                         
ram:0001ee40    0300            movs        param_4,param_1                         
ram:0001ee42    4846            mov         param_1,r9                              
ram:0001ee44    c718            adds        r7,param_1,param_4                      
ram:0001ee46    9845            cmp         r8,param_4                              
ram:0001ee48    bad0            beq         LAB_0001edc0                            
                            LAB_0001ee4a:                 ;XREF[1,0]:   0001efa0
ram:0001ee4a    c819            adds        param_1,param_2,r7                      
ram:0001ee4c    0378            ldrb        param_4,[param_1,#0x0]                  
ram:0001ee4e    3340            ands        param_4,r6                              
ram:0001ee50    0370            strb        param_4,[param_1,#0x0]                  
ram:0001ee52    7b1c            adds        param_4,r7,#0x1                         
ram:0001ee54    9a42            cmp         param_3,param_4                         
ram:0001ee56    b3d9            bls         LAB_0001edc0                            
ram:0001ee58    cb18            adds        param_4,param_2,param_4                 
ram:0001ee5a    1878            ldrb        param_1,[param_4,#0x0]                  
ram:0001ee5c    3040            ands        param_1,r6                              
ram:0001ee5e    1870            strb        param_1,[param_4,#0x0]                  
ram:0001ee60    bb1c            adds        param_4,r7,#0x2                         
ram:0001ee62    9342            cmp         param_4,param_3                         
ram:0001ee64    acd2            bcs         LAB_0001edc0                            
ram:0001ee66    cb18            adds        param_4,param_2,param_4                 
ram:0001ee68    1878            ldrb        param_1,[param_4,#0x0]                  
ram:0001ee6a    3040            ands        param_1,r6                              
ram:0001ee6c    1870            strb        param_1,[param_4,#0x0]                  
ram:0001ee6e    fb1c            adds        param_4,r7,#0x3                         
ram:0001ee70    9a42            cmp         param_3,param_4                         
ram:0001ee72    a5d9            bls         LAB_0001edc0                            
ram:0001ee74    cb18            adds        param_4,param_2,param_4                 
ram:0001ee76    1878            ldrb        param_1,[param_4,#0x0]                  
ram:0001ee78    3040            ands        param_1,r6                              
ram:0001ee7a    1870            strb        param_1,[param_4,#0x0]                  
ram:0001ee7c    3b1d            adds        param_4,r7,#0x4                         
ram:0001ee7e    9a42            cmp         param_3,param_4                         
ram:0001ee80    9ed9            bls         LAB_0001edc0                            
ram:0001ee82    cb18            adds        param_4,param_2,param_4                 
ram:0001ee84    1878            ldrb        param_1,[param_4,#0x0]                  
ram:0001ee86    0537            adds        r7,#0x5                                 
ram:0001ee88    3040            ands        param_1,r6                              
ram:0001ee8a    1870            strb        param_1,[param_4,#0x0]                  
ram:0001ee8c    ba42            cmp         param_3,r7                              
ram:0001ee8e    97d9            bls         LAB_0001edc0                            
ram:0001ee90    cf19            adds        r7,param_2,r7                           
ram:0001ee92    3b78            ldrb        param_4,[r7,#0x0]                       
ram:0001ee94    1e40            ands        r6,param_4                              
ram:0001ee96    3e70            strb        r6,[r7,#0x0]                            
ram:0001ee98    92e7            b           LAB_0001edc0                            
                            LAB_0001ee9a:                 ;XREF[1,0]:   0001edbe
ram:0001ee9a    0723            movs        param_4,#0x7                            
ram:0001ee9c    95e7            b           LAB_0001edca                            
                            LAB_0001ee9e:                 ;XREF[1,0]:   0001edd8
ram:0001ee9e    0325            movs        r5,#0x3                                 
ram:0001eea0    1d40            ands        r5,param_4                              
ram:0001eea2    e81c            adds        param_1,r5,#0x3                         
ram:0001eea4    531e            subs        param_4,param_3,#0x1                    
ram:0001eea6    8342            cmp         param_4,param_1                         
ram:0001eea8    7bd3            bcc         LAB_0001efa2                            
ram:0001eeaa    002d            cmp         r5,#0x0                                 
ram:0001eeac    68d0            beq         LAB_0001ef80                            
ram:0001eeae    0b78            ldrb        param_4,[param_2,#0x0]                  
ram:0001eeb0    2343            orrs        param_4,r4                              
ram:0001eeb2    0b70            strb        param_4,[param_2,#0x0]                  
ram:0001eeb4    012d            cmp         r5,#0x1                                 
ram:0001eeb6    60d0            beq         LAB_0001ef7a                            
ram:0001eeb8    4b78            ldrb        param_4,[param_2,#0x1]                  
ram:0001eeba    2343            orrs        param_4,r4                              
ram:0001eebc    4b70            strb        param_4,[param_2,#0x1]                  
ram:0001eebe    032d            cmp         r5,#0x3                                 
ram:0001eec0    6ad1            bne         LAB_0001ef98                            
ram:0001eec2    8b78            ldrb        param_4,[param_2,#0x2]                  
ram:0001eec4    2343            orrs        param_4,r4                              
ram:0001eec6    8b70            strb        param_4,[param_2,#0x2]                  
ram:0001eec8    0323            movs        param_4,#0x3                            
ram:0001eeca    9946            mov         r9,param_4                              
                            LAB_0001eecc:                 ;XREF[3,0]:   0001ef7e,0001ef84,0001ef9c
ram:0001eecc    531b            subs        param_4,param_3,r5                      
ram:0001eece    9846            mov         r8,param_4                              
ram:0001eed0    9b08            lsrs        param_4,param_4,#0x2                    
ram:0001eed2    9c46            mov         r12,param_4                             
ram:0001eed4    2302            lsls        param_4,r4,#0x8                         
ram:0001eed6    2343            orrs        param_4,r4                              
ram:0001eed8    2004            lsls        param_1,r4,#0x10                        
ram:0001eeda    2606            lsls        r6,r4,#0x18                             
ram:0001eedc    1843            orrs        param_1,param_4                         
ram:0001eede    3043            orrs        param_1,r6                              
ram:0001eee0    0700            movs        r7,param_1                              
ram:0001eee2    0023            movs        param_4,#0x0                            
ram:0001eee4    0026            movs        r6,#0x0                                 
ram:0001eee6    4d19            adds        r5,param_2,r5                           
                            LAB_0001eee8:                 ;XREF[1,0]:   0001eef4
ram:0001eee8    e858            ldr         param_1,[r5,param_4]                    
ram:0001eeea    0136            adds        r6,#0x1                                 
ram:0001eeec    3843            orrs        param_1,r7                              
ram:0001eeee    e850            str         param_1,[r5,param_4]                    
ram:0001eef0    0433            adds        param_4,#0x4                            
ram:0001eef2    b445            cmp         r12,r6                                  
ram:0001eef4    f8d8            bhi         LAB_0001eee8                            
ram:0001eef6    0323            movs        param_4,#0x3                            
ram:0001eef8    4046            mov         param_1,r8                              
ram:0001eefa    9843            bics        param_1,param_4                         
ram:0001eefc    0300            movs        param_4,param_1                         
ram:0001eefe    4846            mov         param_1,r9                              
ram:0001ef00    c718            adds        r7,param_1,param_4                      
ram:0001ef02    9845            cmp         r8,param_4                              
ram:0001ef04    00d1            bne         LAB_0001ef08                            
ram:0001ef06    5be7            b           LAB_0001edc0                            
                            LAB_0001ef08:                 ;XREF[2,0]:   0001ef04,0001efa4
ram:0001ef08    c819            adds        param_1,param_2,r7                      
ram:0001ef0a    0378            ldrb        param_4,[param_1,#0x0]                  
ram:0001ef0c    2343            orrs        param_4,r4                              
ram:0001ef0e    0370            strb        param_4,[param_1,#0x0]                  
ram:0001ef10    7b1c            adds        param_4,r7,#0x1                         
ram:0001ef12    9a42            cmp         param_3,param_4                         
ram:0001ef14    00d8            bhi         LAB_0001ef18                            
ram:0001ef16    53e7            b           LAB_0001edc0                            
                            LAB_0001ef18:                 ;XREF[1,0]:   0001ef14
ram:0001ef18    cb18            adds        param_4,param_2,param_4                 
ram:0001ef1a    1878            ldrb        param_1,[param_4,#0x0]                  
ram:0001ef1c    2043            orrs        param_1,r4                              
ram:0001ef1e    1870            strb        param_1,[param_4,#0x0]                  
ram:0001ef20    bb1c            adds        param_4,r7,#0x2                         
ram:0001ef22    9a42            cmp         param_3,param_4                         
ram:0001ef24    00d8            bhi         LAB_0001ef28                            
ram:0001ef26    4be7            b           LAB_0001edc0                            
                            LAB_0001ef28:                 ;XREF[1,0]:   0001ef24
ram:0001ef28    cb18            adds        param_4,param_2,param_4                 
ram:0001ef2a    1878            ldrb        param_1,[param_4,#0x0]                  
ram:0001ef2c    2043            orrs        param_1,r4                              
ram:0001ef2e    1870            strb        param_1,[param_4,#0x0]                  
ram:0001ef30    fb1c            adds        param_4,r7,#0x3                         
ram:0001ef32    9a42            cmp         param_3,param_4                         
ram:0001ef34    00d8            bhi         LAB_0001ef38                            
ram:0001ef36    43e7            b           LAB_0001edc0                            
                            LAB_0001ef38:                 ;XREF[1,0]:   0001ef34
ram:0001ef38    cb18            adds        param_4,param_2,param_4                 
ram:0001ef3a    1878            ldrb        param_1,[param_4,#0x0]                  
ram:0001ef3c    2043            orrs        param_1,r4                              
ram:0001ef3e    1870            strb        param_1,[param_4,#0x0]                  
ram:0001ef40    3b1d            adds        param_4,r7,#0x4                         
ram:0001ef42    9a42            cmp         param_3,param_4                         
ram:0001ef44    00d8            bhi         LAB_0001ef48                            
ram:0001ef46    3be7            b           LAB_0001edc0                            
                            LAB_0001ef48:                 ;XREF[1,0]:   0001ef44
ram:0001ef48    cb18            adds        param_4,param_2,param_4                 
ram:0001ef4a    1878            ldrb        param_1,[param_4,#0x0]                  
ram:0001ef4c    0537            adds        r7,#0x5                                 
ram:0001ef4e    2043            orrs        param_1,r4                              
ram:0001ef50    1870            strb        param_1,[param_4,#0x0]                  
ram:0001ef52    ba42            cmp         param_3,r7                              
ram:0001ef54    00d8            bhi         LAB_0001ef58                            
ram:0001ef56    33e7            b           LAB_0001edc0                            
                            LAB_0001ef58:                 ;XREF[1,0]:   0001ef54
ram:0001ef58    c919            adds        param_2,param_2,r7                      
ram:0001ef5a    0b78            ldrb        param_4,[param_2,#0x0]                  
ram:0001ef5c    1c43            orrs        r4,param_4                              
ram:0001ef5e    0c70            strb        r4,[param_2,#0x0]                       
ram:0001ef60    2ee7            b           LAB_0001edc0                            
                            LAB_0001ef62:                 ;XREF[1,0]:   0001ed8a
ram:0001ef62    0023            movs        param_4,#0x0                            
ram:0001ef64    31e7            b           LAB_0001edca                            
                            LAB_0001ef66:                 ;XREF[1,0]:   0001ed92
ram:0001ef66    0123            movs        param_4,#0x1                            
ram:0001ef68    2fe7            b           LAB_0001edca                            
                            LAB_0001ef6a:                 ;XREF[1,0]:   0001ed9a
ram:0001ef6a    0223            movs        param_4,#0x2                            
ram:0001ef6c    2de7            b           LAB_0001edca                            
                            LAB_0001ef6e:                 ;XREF[1,0]:   0001eda2
ram:0001ef6e    0323            movs        param_4,#0x3                            
ram:0001ef70    2be7            b           LAB_0001edca                            
                            LAB_0001ef72:                 ;XREF[1,0]:   0001edb0
ram:0001ef72    0523            movs        param_4,#0x5                            
ram:0001ef74    29e7            b           LAB_0001edca                            
                            LAB_0001ef76:                 ;XREF[1,0]:   0001edb8
ram:0001ef76    0623            movs        param_4,#0x6                            
ram:0001ef78    27e7            b           LAB_0001edca                            
                            LAB_0001ef7a:                 ;XREF[1,0]:   0001eeb6
ram:0001ef7a    0123            movs        param_4,#0x1                            
ram:0001ef7c    9946            mov         r9,param_4                              
ram:0001ef7e    a5e7            b           LAB_0001eecc                            
                            LAB_0001ef80:                 ;XREF[1,0]:   0001eeac
ram:0001ef80    0023            movs        param_4,#0x0                            
ram:0001ef82    9946            mov         r9,param_4                              
ram:0001ef84    a2e7            b           LAB_0001eecc                            
                            LAB_0001ef86:                 ;XREF[1,0]:   0001edf8
ram:0001ef86    0123            movs        param_4,#0x1                            
ram:0001ef88    9946            mov         r9,param_4                              
ram:0001ef8a    41e7            b           LAB_0001ee10                            
                            LAB_0001ef8c:                 ;XREF[1,0]:   0001edec
ram:0001ef8c    0023            movs        param_4,#0x0                            
ram:0001ef8e    9946            mov         r9,param_4                              
ram:0001ef90    3ee7            b           LAB_0001ee10                            
                            LAB_0001ef92:                 ;XREF[1,0]:   0001ee04
ram:0001ef92    0223            movs        param_4,#0x2                            
ram:0001ef94    9946            mov         r9,param_4                              
ram:0001ef96    3be7            b           LAB_0001ee10                            
                            LAB_0001ef98:                 ;XREF[1,0]:   0001eec0
ram:0001ef98    0223            movs        param_4,#0x2                            
ram:0001ef9a    9946            mov         r9,param_4                              
ram:0001ef9c    96e7            b           LAB_0001eecc                            
                            LAB_0001ef9e:                 ;XREF[1,0]:   0001ede6
ram:0001ef9e    0027            movs        r7,#0x0                                 
ram:0001efa0    53e7            b           LAB_0001ee4a                            
                            LAB_0001efa2:                 ;XREF[1,0]:   0001eea8
ram:0001efa2    0027            movs        r7,#0x0                                 
ram:0001efa4    b0e7            b           LAB_0001ef08                            
ram:0001efa6    c046            mov         r8,r8                                   
                            ;************************************************************************************************
                            ;*                                           FUNCTION                                           *
                            ;************************************************************************************************
                            ;uint FUN_0001efa8(ushort * param_1, int param_2, uint param_3)
          ;param_1       ushort *            r0                      
          ;param_2       int                 r1                      
          ;param_3       uint                r2                      
                                                          ;XREF[2,0]:   0001d4d6,0001d4e8
ram:0001efa8    0028            cmp         param_1,#0x0                            
ram:0001efaa    19d0            beq         LAB_0001efe0                            
ram:0001efac    0388            ldrh        r3,[param_1,#0x0]                       
ram:0001efae    9342            cmp         r3,param_3                              
ram:0001efb0    18d0            beq         LAB_0001efe4                            
ram:0001efb2    4388            ldrh        r3,[param_1,#0x2]                       
ram:0001efb4    9342            cmp         r3,param_3                              
ram:0001efb6    1ad0            beq         LAB_0001efee                            
ram:0001efb8    8388            ldrh        r3,[param_1,#0x4]                       
ram:0001efba    9342            cmp         r3,param_3                              
ram:0001efbc    1bd0            beq         LAB_0001eff6                            
ram:0001efbe    c388            ldrh        r3,[param_1,#0x6]                       
ram:0001efc0    9342            cmp         r3,param_3                              
ram:0001efc2    1ad0            beq         LAB_0001effa                            
ram:0001efc4    0389            ldrh        r3,[param_1,#0x8]                       
ram:0001efc6    9342            cmp         r3,param_3                              
ram:0001efc8    13d0            beq         LAB_0001eff2                            
ram:0001efca    4389            ldrh        r3,[param_1,#0xa]                       
ram:0001efcc    9342            cmp         r3,param_3                              
ram:0001efce    16d0            beq         LAB_0001effe                            
ram:0001efd0    8389            ldrh        r3,[param_1,#0xc]                       
ram:0001efd2    9342            cmp         r3,param_3                              
ram:0001efd4    15d0            beq         LAB_0001f002                            
ram:0001efd6    c389            ldrh        r3,[param_1,#0xe]                       
ram:0001efd8    0020            movs        param_1,#0x0                            
ram:0001efda    9342            cmp         r3,param_3                              
ram:0001efdc    13d0            beq         LAB_0001f006                            
                            LAB_0001efde:                 ;XREF[2,0]:   0001efe2,0001efec
ram:0001efde    7047            bx          lr                                      
                            LAB_0001efe0:                 ;XREF[1,0]:   0001efaa
ram:0001efe0    0020            movs        param_1,#0x0                            
ram:0001efe2    fce7            b           LAB_0001efde                            
                            LAB_0001efe4:                 ;XREF[1,0]:   0001efb0
ram:0001efe4    0023            movs        r3,#0x0                                 
                            LAB_0001efe6:                 ;XREF[7,0]:   0001eff0,0001eff4,0001eff8,0001effc
                                                          ;             0001f000,0001f004,0001f008
ram:0001efe6    1941            asrs        param_2,r3                              
ram:0001efe8    0120            movs        param_1,#0x1                            
ram:0001efea    0840            ands        param_1,param_2                         
ram:0001efec    f7e7            b           LAB_0001efde                            
                            LAB_0001efee:                 ;XREF[1,0]:   0001efb6
ram:0001efee    0123            movs        r3,#0x1                                 
ram:0001eff0    f9e7            b           LAB_0001efe6                            
                            LAB_0001eff2:                 ;XREF[1,0]:   0001efc8
ram:0001eff2    0423            movs        r3,#0x4                                 
ram:0001eff4    f7e7            b           LAB_0001efe6                            
                            LAB_0001eff6:                 ;XREF[1,0]:   0001efbc
ram:0001eff6    0223            movs        r3,#0x2                                 
ram:0001eff8    f5e7            b           LAB_0001efe6                            
                            LAB_0001effa:                 ;XREF[1,0]:   0001efc2
ram:0001effa    0323            movs        r3,#0x3                                 
ram:0001effc    f3e7            b           LAB_0001efe6                            
                            LAB_0001effe:                 ;XREF[1,0]:   0001efce
ram:0001effe    0523            movs        r3,#0x5                                 
ram:0001f000    f1e7            b           LAB_0001efe6                            
                            LAB_0001f002:                 ;XREF[1,0]:   0001efd4
ram:0001f002    0623            movs        r3,#0x6                                 
ram:0001f004    efe7            b           LAB_0001efe6                            
                            LAB_0001f006:                 ;XREF[1,0]:   0001efdc
ram:0001f006    0723            movs        r3,#0x7                                 
ram:0001f008    ede7            b           LAB_0001efe6                            
ram:0001f00a    c046            mov         r8,r8                                   
                            ;************************************************************************************************
                            ;*                                           FUNCTION                                           *
                            ;************************************************************************************************
                            ;undefined FUN_0001f00c(uint * param_1, undefined2 * param_2, int param_3)
          ;param_1       uint *              r0                      
          ;param_2       undefined2 *        r1                      
          ;param_3       int                 r2                      
                                                          ;XREF[1,0]:   0001d3f2
ram:0001f00c    30b5            push        {r4,r5,lr}                              
ram:0001f00e    0023            movs        r3,#0x0                                 
ram:0001f010    0029            cmp         param_2,#0x0                            
ram:0001f012    35d0            beq         LAB_0001f080                            
ram:0001f014    d407            lsls        r4,param_3,#0x1f                        
ram:0001f016    02d5            bpl         LAB_0001f01e                            
ram:0001f018    0b88            ldrh        r3,[param_2,#0x0]                       
ram:0001f01a    8380            strh        r3,[param_1,#0x4]                       
ram:0001f01c    0123            movs        r3,#0x1                                 
                            LAB_0001f01e:                 ;XREF[1,0]:   0001f016
ram:0001f01e    9407            lsls        r4,param_3,#0x1e                        
ram:0001f020    04d5            bpl         LAB_0001f02c                            
ram:0001f022    5c00            lsls        r4,r3,#0x1                              
ram:0001f024    4d88            ldrh        r5,[param_2,#0x2]                       
ram:0001f026    0419            adds        r4,param_1,r4                           
ram:0001f028    a580            strh        r5,[r4,#0x4]                            
ram:0001f02a    0133            adds        r3,#0x1                                 
                            LAB_0001f02c:                 ;XREF[1,0]:   0001f020
ram:0001f02c    5407            lsls        r4,param_3,#0x1d                        
ram:0001f02e    04d5            bpl         LAB_0001f03a                            
ram:0001f030    5c00            lsls        r4,r3,#0x1                              
ram:0001f032    8d88            ldrh        r5,[param_2,#0x4]                       
ram:0001f034    0419            adds        r4,param_1,r4                           
ram:0001f036    a580            strh        r5,[r4,#0x4]                            
ram:0001f038    0133            adds        r3,#0x1                                 
                            LAB_0001f03a:                 ;XREF[1,0]:   0001f02e
ram:0001f03a    1407            lsls        r4,param_3,#0x1c                        
ram:0001f03c    04d5            bpl         LAB_0001f048                            
ram:0001f03e    5c00            lsls        r4,r3,#0x1                              
ram:0001f040    cd88            ldrh        r5,[param_2,#0x6]                       
ram:0001f042    0419            adds        r4,param_1,r4                           
ram:0001f044    a580            strh        r5,[r4,#0x4]                            
ram:0001f046    0133            adds        r3,#0x1                                 
                            LAB_0001f048:                 ;XREF[1,0]:   0001f03c
ram:0001f048    d406            lsls        r4,param_3,#0x1b                        
ram:0001f04a    04d5            bpl         LAB_0001f056                            
ram:0001f04c    5c00            lsls        r4,r3,#0x1                              
ram:0001f04e    0d89            ldrh        r5,[param_2,#0x8]                       
ram:0001f050    0419            adds        r4,param_1,r4                           
ram:0001f052    a580            strh        r5,[r4,#0x4]                            
ram:0001f054    0133            adds        r3,#0x1                                 
                            LAB_0001f056:                 ;XREF[1,0]:   0001f04a
ram:0001f056    9406            lsls        r4,param_3,#0x1a                        
ram:0001f058    04d5            bpl         LAB_0001f064                            
ram:0001f05a    5c00            lsls        r4,r3,#0x1                              
ram:0001f05c    4d89            ldrh        r5,[param_2,#0xa]                       
ram:0001f05e    0419            adds        r4,param_1,r4                           
ram:0001f060    a580            strh        r5,[r4,#0x4]                            
ram:0001f062    0133            adds        r3,#0x1                                 
                            LAB_0001f064:                 ;XREF[1,0]:   0001f058
ram:0001f064    5406            lsls        r4,param_3,#0x19                        
ram:0001f066    04d5            bpl         LAB_0001f072                            
ram:0001f068    5c00            lsls        r4,r3,#0x1                              
ram:0001f06a    8d89            ldrh        r5,[param_2,#0xc]                       
ram:0001f06c    0419            adds        r4,param_1,r4                           
ram:0001f06e    a580            strh        r5,[r4,#0x4]                            
ram:0001f070    0133            adds        r3,#0x1                                 
                            LAB_0001f072:                 ;XREF[1,0]:   0001f066
ram:0001f072    d211            asrs        param_3,param_3,#0x7                    
ram:0001f074    04d0            beq         LAB_0001f080                            
ram:0001f076    5a00            lsls        param_3,r3,#0x1                         
ram:0001f078    c989            ldrh        param_2,[param_2,#0xe]                  
ram:0001f07a    8218            adds        param_3,param_1,param_3                 
ram:0001f07c    9180            strh        param_2,[param_3,#0x4]                  
ram:0001f07e    0133            adds        r3,#0x1                                 
                            LAB_0001f080:                 ;XREF[2,0]:   0001f012,0001f074
ram:0001f080    0360            str         r3,[param_1,#0x0]                       
ram:0001f082    30bd            pop         {r4,r5,pc}                              
                            ;************************************************************************************************
                            ;*                                           FUNCTION                                           *
                            ;************************************************************************************************
                            ;undefined4 FUN_0001f084(undefined4 * param_1)
          ;param_1       undefined4 *        r0                      
                                                          ;XREF[3,0]:   0001c672,0001c6e0,0001c712
ram:0001f084    0028            cmp         param_1,#0x0                            
ram:0001f086    04d0            beq         LAB_0001f092                            
ram:0001f088    034b            ldr         r3,[DAT_0001f098]                       ;= 2000293Ch
ram:0001f08a    5b6e            ldr         r3,[r3,#0x64]=>DAT_200029a0             
ram:0001f08c    0360            str         r3,[param_1,#0x0]                       
ram:0001f08e    0020            movs        param_1,#0x0                            
                            LAB_0001f090:                 ;XREF[1,0]:   0001f094
ram:0001f090    7047            bx          lr                                      
                            LAB_0001f092:                 ;XREF[1,0]:   0001f086
ram:0001f092    0320            movs        param_1,#0x3                            
ram:0001f094    fce7            b           LAB_0001f090                            
ram:0001f096    c046            mov         r8,r8                                   
                            DAT_0001f098:                 ;XREF[1,0]:   0001f088
ram:0001f098    3c290020        undefined4  2000293Ch                               
                            ;************************************************************************************************
                            ;*                                           FUNCTION                                           *
                            ;************************************************************************************************
                            ;undefined FUN_0001f09c(void)
                                                          ;XREF[1,0]:   0001f1a4
ram:0001f09c    2e4b            ldr         r3,[DAT_0001f158]                       ;= F0000FE0h
ram:0001f09e    1b78            ldrb        r3,[r3,#0x0]=>DAT_f0000fe0              
ram:0001f0a0    012b            cmp         r3,#0x1                                 
ram:0001f0a2    00d0            beq         LAB_0001f0a6                            
                            LAB_0001f0a4:                 ;XREF[8,0]:   0001f0ac,0001f0c6,0001f0e2,0001f0ec
                                                          ;             0001f106,0001f12e,0001f14a,0001f154
ram:0001f0a4    7047            bx          lr                                      
                            LAB_0001f0a6:                 ;XREF[1,0]:   0001f0a2
ram:0001f0a6    2d4b            ldr         r3,[DAT_0001f15c]                       ;= F0000FE4h
ram:0001f0a8    1b68            ldr         r3,[r3,#0x0]=>DAT_f0000fe4              
ram:0001f0aa    1b07            lsls        r3,r3,#0x1c                             
ram:0001f0ac    fad1            bne         LAB_0001f0a4                            
ram:0001f0ae    f022            movs        r2,#0xf0                                
ram:0001f0b0    2b4b            ldr         r3,[DAT_0001f160]                       ;= F0000FE8h
ram:0001f0b2    1b68            ldr         r3,[r3,#0x0]=>DAT_f0000fe8              
ram:0001f0b4    1340            ands        r3,r2                                   
ram:0001f0b6    27d1            bne         LAB_0001f108                            
ram:0001f0b8    2a4b            ldr         r3,[DAT_0001f164]                       ;= F0000FECh
ram:0001f0ba    1b68            ldr         r3,[r3,#0x0]=>DAT_f0000fec              
ram:0001f0bc    1342            tst         r3,r2                                   
ram:0001f0be    2bd0            beq         LAB_0001f118                            
                            LAB_0001f0c0:                 ;XREF[1,0]:   0001f12c
ram:0001f0c0    264b            ldr         r3,[DAT_0001f15c]                       ;= F0000FE4h
ram:0001f0c2    1b68            ldr         r3,[r3,#0x0]=>DAT_f0000fe4              
ram:0001f0c4    1b07            lsls        r3,r3,#0x1c                             
ram:0001f0c6    edd1            bne         LAB_0001f0a4                            
                            LAB_0001f0c8:                 ;XREF[2,0]:   0001f10e,0001f116
ram:0001f0c8    f022            movs        r2,#0xf0                                
ram:0001f0ca    254b            ldr         r3,[DAT_0001f160]                       ;= F0000FE8h
ram:0001f0cc    1b68            ldr         r3,[r3,#0x0]=>DAT_f0000fe8              
ram:0001f0ce    1340            ands        r3,r2                                   
ram:0001f0d0    402b            cmp         r3,#0x40                                
ram:0001f0d2    2dd0            beq         LAB_0001f130                            
                            LAB_0001f0d4:                 ;XREF[2,0]:   0001f136,0001f152
ram:0001f0d4    f022            movs        r2,#0xf0                                
ram:0001f0d6    224b            ldr         r3,[DAT_0001f160]                       ;= F0000FE8h
ram:0001f0d8    1b68            ldr         r3,[r3,#0x0]=>DAT_f0000fe8              
ram:0001f0da    1340            ands        r3,r2                                   
ram:0001f0dc    a02b            cmp         r3,#0xa0                                
ram:0001f0de    01d0            beq         LAB_0001f0e4                            
ram:0001f0e0    d02b            cmp         r3,#0xd0                                
ram:0001f0e2    dfd1            bne         LAB_0001f0a4                            
                            LAB_0001f0e4:                 ;XREF[1,0]:   0001f0de
ram:0001f0e4    f023            movs        r3,#0xf0                                
ram:0001f0e6    1f4a            ldr         r2,[DAT_0001f164]                       ;= F0000FECh
ram:0001f0e8    1268            ldr         r2,[r2,#0x0]=>DAT_f0000fec              
ram:0001f0ea    1a42            tst         r2,r3                                   
ram:0001f0ec    dad1            bne         LAB_0001f0a4                            
ram:0001f0ee    1e4a            ldr         r2,[DAT_0001f168]                       ;= 4006EC00h
ram:0001f0f0    1368            ldr         r3,[r2,#0x0]=>DAT_4006ec00              
ram:0001f0f2    012b            cmp         r3,#0x1                                 
ram:0001f0f4    04d0            beq         LAB_0001f100                            
ram:0001f0f6    1d4b            ldr         r3,[DAT_0001f16c]                       ;= 00009375h
ram:0001f0f8    1360            str         r3,[r2,#0x0]=>DAT_4006ec00              
                            LAB_0001f0fa:                 ;XREF[1,0]:   0001f0fe
ram:0001f0fa    1368            ldr         r3,[r2,#0x0]=>DAT_4006ec00              
ram:0001f0fc    012b            cmp         r3,#0x1                                 
ram:0001f0fe    fcd1            bne         LAB_0001f0fa                            
                            LAB_0001f100:                 ;XREF[1,0]:   0001f0f4
ram:0001f100    c022            movs        r2,#0xc0                                
ram:0001f102    1b4b            ldr         r3,[DAT_0001f170]                       ;= 4006EC14h
ram:0001f104    1a60            str         r2,[r3,#0x0]=>DAT_4006ec14              
ram:0001f106    cde7            b           LAB_0001f0a4                            
                            LAB_0001f108:                 ;XREF[1,0]:   0001f0b6
ram:0001f108    102b            cmp         r3,#0x10                                
ram:0001f10a    01d0            beq         LAB_0001f110                            
ram:0001f10c    302b            cmp         r3,#0x30                                
ram:0001f10e    dbd1            bne         LAB_0001f0c8                            
                            LAB_0001f110:                 ;XREF[1,0]:   0001f10a
ram:0001f110    144b            ldr         r3,[DAT_0001f164]                       ;= F0000FECh
ram:0001f112    1b68            ldr         r3,[r3,#0x0]=>DAT_f0000fec              
ram:0001f114    1342            tst         r3,r2                                   
ram:0001f116    d7d1            bne         LAB_0001f0c8                            
                            LAB_0001f118:                 ;XREF[1,0]:   0001f0be
ram:0001f118    164b            ldr         r3,[DAT_0001f174]                       ;= 40000504h
ram:0001f11a    174a            ldr         r2,[DAT_0001f178]                       ;= C007FFDFh
ram:0001f11c    1a60            str         r2,[r3,#0x0]=>DAT_40000504              
ram:0001f11e    8022            movs        r2,#0x80                                
ram:0001f120    164b            ldr         r3,[DAT_0001f17c]                       ;= 40006C18h
ram:0001f122    1202            lsls        r2,r2,#0x8                              
ram:0001f124    1a60            str         r2,[r3,#0x0]=>DAT_40006c18              
ram:0001f126    0c4b            ldr         r3,[DAT_0001f158]                       ;= F0000FE0h
ram:0001f128    1b78            ldrb        r3,[r3,#0x0]=>DAT_f0000fe0              
ram:0001f12a    012b            cmp         r3,#0x1                                 
ram:0001f12c    c8d0            beq         LAB_0001f0c0                            
ram:0001f12e    b9e7            b           LAB_0001f0a4                            
                            LAB_0001f130:                 ;XREF[1,0]:   0001f0d2
ram:0001f130    0c4b            ldr         r3,[DAT_0001f164]                       ;= F0000FECh
ram:0001f132    1b68            ldr         r3,[r3,#0x0]=>DAT_f0000fec              
ram:0001f134    1342            tst         r3,r2                                   
ram:0001f136    cdd1            bne         LAB_0001f0d4                            
ram:0001f138    8022            movs        r2,#0x80                                
ram:0001f13a    c123            movs        r3,#0xc1                                
ram:0001f13c    0121            movs        r1,#0x1                                 
ram:0001f13e    db00            lsls        r3,r3,#0x3                              
ram:0001f140    d205            lsls        r2,r2,#0x17                             
ram:0001f142    d150            str         r1,[r2,r3]=>DAT_40000608                
ram:0001f144    044b            ldr         r3,[DAT_0001f158]                       ;= F0000FE0h
ram:0001f146    1b78            ldrb        r3,[r3,#0x0]=>DAT_f0000fe0              
ram:0001f148    012b            cmp         r3,#0x1                                 
ram:0001f14a    abd1            bne         LAB_0001f0a4                            
ram:0001f14c    034b            ldr         r3,[DAT_0001f15c]                       ;= F0000FE4h
ram:0001f14e    1b68            ldr         r3,[r3,#0x0]=>DAT_f0000fe4              
ram:0001f150    1b07            lsls        r3,r3,#0x1c                             
ram:0001f152    bfd0            beq         LAB_0001f0d4                            
ram:0001f154    a6e7            b           LAB_0001f0a4                            
ram:0001f156    c046            mov         r8,r8                                   
                            DAT_0001f158:                 ;XREF[3,0]:   0001f09c,0001f126,0001f144
ram:0001f158    e00f00f0        undefined4  F0000FE0h                               
                            DAT_0001f15c:                 ;XREF[3,0]:   0001f0a6,0001f0c0,0001f14c
ram:0001f15c    e40f00f0        undefined4  F0000FE4h                               
                            DAT_0001f160:                 ;XREF[3,0]:   0001f0b0,0001f0ca,0001f0d6
ram:0001f160    e80f00f0        undefined4  F0000FE8h                               
                            DAT_0001f164:                 ;XREF[4,0]:   0001f0b8,0001f0e6,0001f110,0001f130
ram:0001f164    ec0f00f0        undefined4  F0000FECh                               
                            DAT_0001f168:                 ;XREF[1,0]:   0001f0ee
ram:0001f168    00ec0640        undefined4  4006EC00h                               
                            DAT_0001f16c:                 ;XREF[1,0]:   0001f0f6
ram:0001f16c    75930000        undefined4  00009375h                               
                            DAT_0001f170:                 ;XREF[1,0]:   0001f102
ram:0001f170    14ec0640        undefined4  4006EC14h                               
                            DAT_0001f174:                 ;XREF[1,0]:   0001f118
ram:0001f174    04050040        undefined4  40000504h                               
                            DAT_0001f178:                 ;XREF[1,0]:   0001f11a
ram:0001f178    dfff07c0        undefined4  C007FFDFh                               
                            DAT_0001f17c:                 ;XREF[1,0]:   0001f120
ram:0001f17c    186c0040        undefined4  40006C18h                               
                            ;************************************************************************************************
                            ;*                                           FUNCTION                                           *
                            ;************************************************************************************************
                            ;undefined FUNC_Reset_0001f180(void)
                                                          ;XREF[0,1]:   0001b004
ram:0001f180    0321            movs        r1,#0x3                                 
ram:0001f182    0a48            ldr         r0,[LAB_0001f1ac]                       
ram:0001f184    0268            ldr         r2,[r0,#0x0]=>DAT_40000524              
ram:0001f186    0a43            orrs        r2,r1                                   
ram:0001f188    0260            str         r2,[r0,#0x0]=>DAT_40000524              
ram:0001f18a    0948            ldr         r0=>DAT_40000554,[LAB_0001f1b0]         
ram:0001f18c    0268            ldr         r2,[r0,#0x0]=>DAT_40000554              
ram:0001f18e    0a43            orrs        r2,r1                                   
ram:0001f190    0260            str         r2,[r0,#0x0]=>DAT_40000554              
ram:0001f192    0849            ldr         r1=>DAT_0001f740,[PTR_DAT_0001f1b4]     ;= FFh
                                                                                    ;= 0001f740
ram:0001f194    084a            ldr         r2=>DAT_20001ff8,[DAT_0001f1b8]         ;= 20001FF8h
ram:0001f196    094b            ldr         r3,[DAT_0001f1bc]                       ;= 200020A8h
ram:0001f198    9b1a            subs        r3,r3,r2                                
ram:0001f19a    03dd            ble         LAB_0001f1a4                            
                            LAB_0001f19c:                 ;XREF[1,0]:   0001f1a2
ram:0001f19c    043b            subs        r3,#0x4                                 
                                                          ; FWD[2,0]:   0001f7e8,0001f7ec
ram:0001f19e    c858            ldr         r0,[r1,r3]=>PTR_LAB_0001b0c0+1+1_0001...;= 0001b0e9
                                                                                    ;= 0001b0c1
                                                          ; FWD[2,0]:   200020a0,200020a4
ram:0001f1a0    d050            str         r0,[r2,r3]=>DAT_200020a4                
ram:0001f1a2    fbdc            bgt         LAB_0001f19c                            
                            LAB_0001f1a4:                 ;XREF[1,0]:   0001f19a
ram:0001f1a4    fff77aff        bl          FUN_0001f09c                            ;undefined FUN_0001f09c(void)
ram:0001f1a8    fbf7aeff        bl          FUN_0001b108                            ;undefined FUN_0001b108(void)
                            LAB_0001f1ac:                 ;XREF[1,0]:   0001f182
ram:0001f1ac    2405            lsls        r4,r4,#0x14                             
ram:0001f1ae    0040            ands        r0,r0                                   
                            LAB_0001f1b0:                 ;XREF[1,0]:   0001f18a
ram:0001f1b0    5405            lsls        r4,r2,#0x15                             
ram:0001f1b2    0040            ands        r0,r0                                   
                            PTR_DAT_0001f1b4:             ;XREF[1,0]:   0001f192
ram:0001f1b4    40f70100        addr        DAT_0001f740                            ;= FFh
                            DAT_0001f1b8:                 ;XREF[1,0]:   0001f194
ram:0001f1b8    f81f0020        undefined4  20001FF8h                               
                            DAT_0001f1bc:                 ;XREF[1,0]:   0001f196
ram:0001f1bc    a8200020        undefined4  200020A8h                               
                            ;************************************************************************************************
                            ;*                                           FUNCTION                                           *
                            ;************************************************************************************************
                            ;undefined FUNC_NMI_0001f1c0(void)
                                                          ;XREF[1,1]:   0001f1c0,0001b008
ram:0001f1c0    fee7            b           FUNC_NMI_0001f1c0                       
                            ;************************************************************************************************
                            ;*                                           FUNCTION                                           *
                            ;************************************************************************************************
                            ;undefined FUN_0001f1c2(void)
                                                          ;XREF[1,0]:   0001f1c2
ram:0001f1c2    fee7            b           FUN_0001f1c2                            
                            ;************************************************************************************************
                            ;*                                           FUNCTION                                           *
                            ;************************************************************************************************
                            ;undefined FUNC_SVCall_0001f1c4(void)
                                                          ;XREF[1,1]:   0001f1c4,0001b02c
ram:0001f1c4    fee7            b           FUNC_SVCall_0001f1c4                    
                            ;************************************************************************************************
                            ;*                                           FUNCTION                                           *
                            ;************************************************************************************************
                            ;undefined FUNC_PendSV_0001f1c6(void)
                                                          ;XREF[1,1]:   0001f1c6,0001b038
ram:0001f1c6    fee7            b           FUNC_PendSV_0001f1c6                    
                            ;************************************************************************************************
                            ;*                                           FUNCTION                                           *
                            ;************************************************************************************************
                            ;undefined FUNC_SysTick_0001f1c8(void)
                                                          ;XREF[1,1]:   0001f1c8,0001b03c
ram:0001f1c8    fee7            b           FUNC_SysTick_0001f1c8                   
                            ;************************************************************************************************
                            ;*                                           FUNCTION                                           *
                            ;************************************************************************************************
                            ;undefined FUNC_VT_0001f1ca(void)
                                                          ;XREF[1,19]:  0001f1ca,0001b044,0001b04c,0001b050
                                                          ;             0001b05c,0001b060,0001b064,0001b068
                                                          ;             0001b06c,0001b070,0001b074,0001b078
                                                          ;             0001b07c,0001b080,0001b088,0001b08c
                                                          ;             0001b094,0001b09c,0001b0a0,0001b0a4
ram:0001f1ca    fee7            b           FUNC_VT_0001f1ca                        
                            ;************************************************************************************************
                            ;*                                           FUNCTION                                           *
                            ;************************************************************************************************
                            ;undefined FUN_0001f1cc(void)
                                                          ;XREF[1,0]:   0001f214
ram:0001f1cc    52df            svc         0x52                                    
ram:0001f1ce    7047            bx          lr                                      
                            ;************************************************************************************************
                            ;*                                           FUNCTION                                           *
                            ;************************************************************************************************
                            ;undefined FUN_0001f1d0(void)
                                                          ;XREF[2,0]:   0001f2f0,0001f2fe
ram:0001f1d0    10df            svc         0x10                                    
ram:0001f1d2    7047            bx          lr                                      
                            ;************************************************************************************************
                            ;*                                           FUNCTION                                           *
                            ;************************************************************************************************
                            ;undefined FUN_0001f1d4(void)
                                                          ;XREF[1,0]:   0001f3ea
ram:0001f1d4    60df            svc         0x60                                    
ram:0001f1d6    7047            bx          lr                                      
                            ;************************************************************************************************
                            ;*                                           FUNCTION                                           *
                            ;************************************************************************************************
                            ;undefined FUN_0001f1d8(void)
                                                          ;XREF[1,0]:   0001f240
ram:0001f1d8    61df            svc         0x61                                    
ram:0001f1da    7047            bx          lr                                      
                            ;************************************************************************************************
                            ;*                                           FUNCTION                                           *
                            ;************************************************************************************************
                            ;undefined LAB_0001f1dc+1(void)
                                                          ;XREF[0,3]:   0001f2ec,0001f2fc,0001f358
ram:0001f1dc    10b5            push        {r4,lr}                                 
ram:0001f1de    fbf7e3ff        bl          FUN_0001b1a8                            ;undefined FUN_0001b1a8(void)
ram:0001f1e2    10bd            pop         {r4,pc}                                 
                            ;************************************************************************************************
                            ;*                                           FUNCTION                                           *
                            ;************************************************************************************************
                            ;undefined FUN_0001f1e4(void)
          ;local_2c      undefined4         -2c                      ;XREF[3,0]:   0001f238,0001f26e,0001f27c
                                                          ;XREF[1,0]:   0001f39c
ram:0001f1e4    f0b5            push        {r4,r5,r6,r7,lr}                        
ram:0001f1e6    5746            mov         r7,r10                                  
ram:0001f1e8    4e46            mov         r6,r9                                   
ram:0001f1ea    4546            mov         r5,r8                                   
ram:0001f1ec    de46            mov         lr,r11                                  
ram:0001f1ee    e0b5            push        {r5,r6,r7,lr}                           
ram:0001f1f0    2d4b            ldr         r3,[DAT_0001f2a8]                       ;= 200029A8h
ram:0001f1f2    2e4e            ldr         r6,[DAT_0001f2ac]                       ;= 200029B1h
ram:0001f1f4    1d68            ldr         r5,[r3,#0x0]=>DAT_200029a8              
ram:0001f1f6    9946            mov         r9,r3                                   
ram:0001f1f8    6b42            rsbs        r3,r5                                   
ram:0001f1fa    5d41            adcs        r5,r3                                   
ram:0001f1fc    2c4b            ldr         r3,[DAT_0001f2b0]                       ;= 200029A4h
ram:0001f1fe    2d4f            ldr         r7,[DAT_0001f2b4]                       ;= 200029B8h
ram:0001f200    9846            mov         r8,r3                                   
ram:0001f202    2d4b            ldr         r3,[DAT_0001f2b8]                       ;= 200029B4h
ram:0001f204    83b0            sub         sp,#0xc                                 
ram:0001f206    9a46            mov         r10,r3                                  
ram:0001f208    edb2            uxtb        r5,r5                                   
                            LAB_0001f20a:                 ;XREF[4,0]:   0001f256,0001f286,0001f29e,0001f2a6
ram:0001f20a    3478            ldrb        r4,[r6,#0x0]=>DAT_200029b1              
ram:0001f20c    e4b2            uxtb        r4,r4                                   
ram:0001f20e    002c            cmp         r4,#0x0                                 
ram:0001f210    26d1            bne         LAB_0001f260                            
ram:0001f212    01a8            add         r0,sp,#0x4                              
ram:0001f214    fff7daff        bl          FUN_0001f1cc                            ;undefined FUN_0001f1cc(void)
ram:0001f218    0528            cmp         r0,#0x5                                 
ram:0001f21a    35d0            beq         LAB_0001f288                            
ram:0001f21c    0028            cmp         r0,#0x0                                 
ram:0001f21e    26d0            beq         LAB_0001f26e                            
ram:0001f220    fff7fafc        bl          FUN_0001ec18                            ;undefined FUN_0001ec18(void)
ram:0001f224    002d            cmp         r5,#0x0                                 
ram:0001f226    2dd1            bne         LAB_0001f284                            
                            LAB_0001f228:                 ;XREF[3,0]:   0001f282,0001f28e,0001f2a2
ram:0001f228    3578            ldrb        r5,[r6,#0x0]=>DAT_200029b1              
ram:0001f22a    edb2            uxtb        r5,r5                                   
ram:0001f22c    002d            cmp         r5,#0x0                                 
ram:0001f22e    17d1            bne         LAB_0001f260                            
                            LAB_0001f230:                 ;XREF[1,0]:   0001f25e
ram:0001f230    4346            mov         r3,r8                                   
ram:0001f232    6a46            mov         r2,sp                                   
ram:0001f234    1b88            ldrh        r3,[r3,#0x0]=>DAT_200029a4              
ram:0001f236    01a9            add         r1,sp,#0x4                              
ram:0001f238    9380            strh        r3,[r2,#local_2c+0x30]                  
ram:0001f23a    3b68            ldr         r3,[r7,#0x0]=>DAT_200029b8              
ram:0001f23c    1800            movs        r0,r3                                   
ram:0001f23e    9b46            mov         r11,r3                                  
ram:0001f240    fff7caff        bl          FUN_0001f1d8                            ;undefined FUN_0001f1d8(void)
ram:0001f244    0528            cmp         r0,#0x5                                 
ram:0001f246    23d0            beq         LAB_0001f290                            
ram:0001f248    0028            cmp         r0,#0x0                                 
ram:0001f24a    24d1            bne         LAB_0001f296                            
ram:0001f24c    4b46            mov         r3,r9                                   
ram:0001f24e    5846            mov         r0,r11                                  
ram:0001f250    1b68            ldr         r3,[r3,#0x0]=>DAT_200029a8              
ram:0001f252    9847            blx         r3                                      
ram:0001f254    002c            cmp         r4,#0x0                                 
ram:0001f256    d8d0            beq         LAB_0001f20a                            
                            LAB_0001f258:                 ;XREF[1,0]:   0001f29c
ram:0001f258    3378            ldrb        r3,[r6,#0x0]=>DAT_200029b1              
ram:0001f25a    0124            movs        r4,#0x1                                 
ram:0001f25c    002b            cmp         r3,#0x0                                 
ram:0001f25e    e7d0            beq         LAB_0001f230                            
                            LAB_0001f260:                 ;XREF[4,0]:   0001f210,0001f22e,0001f28a,0001f294
ram:0001f260    03b0            add         sp,#0xc                                 
ram:0001f262    3cbc            pop         {r2,r3,r4,r5}                           
ram:0001f264    9046            mov         r8,r2                                   
ram:0001f266    9946            mov         r9,r3                                   
ram:0001f268    a246            mov         r10,r4                                  
ram:0001f26a    ab46            mov         r11,r5                                  
ram:0001f26c    f0bd            pop         {r4,r5,r6,r7,pc}                        
                            LAB_0001f26e:                 ;XREF[1,0]:   0001f21e
ram:0001f26e    0198            ldr         r0,[sp,#local_2c+0x30]                  
ram:0001f270    fef760fb        bl          FUN_0001d934                            ;undefined FUN_0001d934(int param_1)
ram:0001f274    5346            mov         r3,r10                                  
ram:0001f276    1b68            ldr         r3,[r3,#0x0]=>DAT_200029b4              
ram:0001f278    002b            cmp         r3,#0x0                                 
ram:0001f27a    11d0            beq         LAB_0001f2a0                            
ram:0001f27c    0198            ldr         r0,[sp,#local_2c+0x30]                  
ram:0001f27e    9847            blx         r3                                      
ram:0001f280    002d            cmp         r5,#0x0                                 
ram:0001f282    d1d0            beq         LAB_0001f228                            
                            LAB_0001f284:                 ;XREF[2,0]:   0001f226,0001f292
ram:0001f284    0125            movs        r5,#0x1                                 
ram:0001f286    c0e7            b           LAB_0001f20a                            
                            LAB_0001f288:                 ;XREF[1,0]:   0001f21a
ram:0001f288    002d            cmp         r5,#0x0                                 
ram:0001f28a    e9d1            bne         LAB_0001f260                            
ram:0001f28c    0124            movs        r4,#0x1                                 
ram:0001f28e    cbe7            b           LAB_0001f228                            
                            LAB_0001f290:                 ;XREF[1,0]:   0001f246
ram:0001f290    002c            cmp         r4,#0x0                                 
ram:0001f292    f7d0            beq         LAB_0001f284                            
ram:0001f294    e4e7            b           LAB_0001f260                            
                            LAB_0001f296:                 ;XREF[1,0]:   0001f24a
ram:0001f296    fff7bffc        bl          FUN_0001ec18                            ;undefined FUN_0001ec18(void)
ram:0001f29a    002c            cmp         r4,#0x0                                 
ram:0001f29c    dcd1            bne         LAB_0001f258                            
ram:0001f29e    b4e7            b           LAB_0001f20a                            
                            LAB_0001f2a0:                 ;XREF[1,0]:   0001f27a
ram:0001f2a0    002d            cmp         r5,#0x0                                 
ram:0001f2a2    c1d0            beq         LAB_0001f228                            
ram:0001f2a4    0125            movs        r5,#0x1                                 
ram:0001f2a6    b0e7            b           LAB_0001f20a                            
                            DAT_0001f2a8:                 ;XREF[1,0]:   0001f1f0
ram:0001f2a8    a8290020        undefined4  200029A8h                               
                            DAT_0001f2ac:                 ;XREF[1,0]:   0001f1f2
ram:0001f2ac    b1290020        undefined4  200029B1h                               
                            DAT_0001f2b0:                 ;XREF[1,0]:   0001f1fc
ram:0001f2b0    a4290020        undefined4  200029A4h                               
                            DAT_0001f2b4:                 ;XREF[1,0]:   0001f1fe
ram:0001f2b4    b8290020        undefined4  200029B8h                               
                            DAT_0001f2b8:                 ;XREF[1,0]:   0001f202
ram:0001f2b8    b4290020        undefined4  200029B4h                               
                            ;************************************************************************************************
                            ;*                                           FUNCTION                                           *
                            ;************************************************************************************************
                            ;undefined FUN_0001f2bc(void)
                                                          ;XREF[1,0]:   0001d996
ram:0001f2bc    014b            ldr         r3,[DAT_0001f2c4]                       ;= 200029B0h
ram:0001f2be    1878            ldrb        r0,[r3,#0x0]=>DAT_200029b0              
ram:0001f2c0    c0b2            uxtb        r0,r0                                   
ram:0001f2c2    7047            bx          lr                                      
                            DAT_0001f2c4:                 ;XREF[1,0]:   0001f2bc
ram:0001f2c4    b0290020        undefined4  200029B0h                               
                            ;************************************************************************************************
                            ;*                                           FUNCTION                                           *
                            ;************************************************************************************************
                            ;int FUN_0001f2c8(undefined4 param_1, uint param_2, undefined2 param_3, undefined4 param_4)
          ;param_1       undefined4          r0                      
          ;param_2       uint                r1                      
          ;param_3       undefined2          r2                      
          ;param_4       undefined4          r3                      
                                                          ;XREF[1,0]:   0001b1e0
ram:0001f2c8    70b5            push        {r4,r5,r6,lr}                           
ram:0001f2ca    0029            cmp         param_2,#0x0                            
ram:0001f2cc    30d0            beq         LAB_0001f330                            
ram:0001f2ce    0324            movs        r4,#0x3                                 
ram:0001f2d0    2142            tst         param_2,r4                              
ram:0001f2d2    2dd1            bne         LAB_0001f330                            
ram:0001f2d4    0126            movs        r6,#0x1                                 
ram:0001f2d6    1c4d            ldr         r5,[DAT_0001f348]                       ;= 200029B8h
ram:0001f2d8    2960            str         param_2,[r5,#0x0]=>DAT_200029b8         
ram:0001f2da    1c49            ldr         param_2,[DAT_0001f34c]                  ;= 200029A4h
ram:0001f2dc    1c4d            ldr         r5,[DAT_0001f350]                       ;= E000E100h
ram:0001f2de    0a80            strh        param_3,[param_2,#0x0]=>DAT_200029a4    
ram:0001f2e0    1c4a            ldr         param_3=>DAT_200029ac,[DAT_0001f354]    ;= 200029ACh
ram:0001f2e2    1360            str         param_4,[param_3,#0x0]=>DAT_200029ac    
ram:0001f2e4    2b68            ldr         param_4,[r5,#0x0]=>DAT_e000e100         
ram:0001f2e6    1e42            tst         r6,param_4                              
ram:0001f2e8    08d0            beq         LAB_0001f2fc                            
ram:0001f2ea    8023            movs        param_4,#0x80                           
ram:0001f2ec    1a49            ldr         param_2=>LAB_000...,[PTR_LAB_0001f1dc...;= 0001f1dd
ram:0001f2ee    ee50            str         r6,[r5,param_4]=>DAT_e000e180           
ram:0001f2f0    fff76eff        bl          FUN_0001f1d0                            ;undefined FUN_0001f1d0(void)
ram:0001f2f4    0028            cmp         param_1,#0x0                            
ram:0001f2f6    06d0            beq         LAB_0001f306                            
ram:0001f2f8    2e60            str         r6,[r5,#0x0]=>DAT_e000e100              
                            LAB_0001f2fa:                 ;XREF[5,0]:   0001f304,0001f32e,0001f332,0001f340
                                                          ;             0001f344
ram:0001f2fa    70bd            pop         {r4,r5,r6,pc}                           
                            LAB_0001f2fc:                 ;XREF[1,0]:   0001f2e8
ram:0001f2fc    1649            ldr         param_2=>LAB_000...,[PTR_LAB_0001f1dc...;= 0001f1dd
ram:0001f2fe    fff767ff        bl          FUN_0001f1d0                            ;undefined FUN_0001f1d0(void)
ram:0001f302    0028            cmp         param_1,#0x0                            
ram:0001f304    f9d1            bne         LAB_0001f2fa                            
                            LAB_0001f306:                 ;XREF[1,0]:   0001f2f6
ram:0001f306    154b            ldr         param_4=>DAT_200029b0,[DAT_0001f35c]    ;= 200029B0h
ram:0001f308    1e70            strb        r6,[param_4,#0x0]=>DAT_200029b0         
ram:0001f30a    fef725fb        bl          FUN_0001d958                            ;undefined FUN_0001d958(void)
ram:0001f30e    c523            movs        param_4,#0xc5                           
ram:0001f310    9b00            lsls        param_4,param_4,#0x2                    
ram:0001f312    eb58            ldr         param_4,[r5,param_4]=>DAT_e000e414      
ram:0001f314    9b0d            lsrs        param_4,param_4,#0x16                   
ram:0001f316    1c40            ands        r4,param_4                              
ram:0001f318    e307            lsls        param_4,r4,#0x1f                        
ram:0001f31a    12d5            bpl         LAB_0001f342                            
ram:0001f31c    104b            ldr         param_4,[DAT_0001f360]                  ;= 200029BCh
ram:0001f31e    5a68            ldr         param_3,[param_4,#0x4]=>DAT_200029c0    
ram:0001f320    002a            cmp         param_3,#0x0                            
ram:0001f322    07d1            bne         LAB_0001f334                            
ram:0001f324    8022            movs        param_3,#0x80                           
ram:0001f326    0a4b            ldr         param_4,[DAT_0001f350]                  ;= E000E100h
ram:0001f328    d203            lsls        param_3,param_3,#0xf                    
ram:0001f32a    1a60            str         param_3,[param_4,#0x0]=>DAT_e000e100    
ram:0001f32c    0020            movs        param_1,#0x0                            
ram:0001f32e    e4e7            b           LAB_0001f2fa                            
                            LAB_0001f330:                 ;XREF[2,0]:   0001f2cc,0001f2d2
ram:0001f330    0720            movs        param_1,#0x7                            
ram:0001f332    e2e7            b           LAB_0001f2fa                            
                            LAB_0001f334:                 ;XREF[1,0]:   0001f322
ram:0001f334    8022            movs        param_3,#0x80                           
ram:0001f336    1968            ldr         param_2,[param_4,#0x0]=>DAT_200029bc    
ram:0001f338    d203            lsls        param_3,param_3,#0xf                    
ram:0001f33a    0a43            orrs        param_3,param_2                         
ram:0001f33c    1a60            str         param_3,[param_4,#0x0]=>DAT_200029bc    
ram:0001f33e    0020            movs        param_1,#0x0                            
ram:0001f340    dbe7            b           LAB_0001f2fa                            
                            LAB_0001f342:                 ;XREF[1,0]:   0001f31a
ram:0001f342    0848            ldr         param_1,[DAT_0001f364]                  ;= 00002002h
ram:0001f344    d9e7            b           LAB_0001f2fa                            
ram:0001f346    c046            mov         r8,r8                                   
                            DAT_0001f348:                 ;XREF[1,0]:   0001f2d6
ram:0001f348    b8290020        undefined4  200029B8h                               
                            DAT_0001f34c:                 ;XREF[1,0]:   0001f2da
ram:0001f34c    a4290020        undefined4  200029A4h                               
                            DAT_0001f350:                 ;XREF[2,0]:   0001f2dc,0001f326
ram:0001f350    00e100e0        undefined4  E000E100h                               
                            DAT_0001f354:                 ;XREF[1,0]:   0001f2e0
ram:0001f354    ac290020        undefined4  200029ACh                               
                            PTR_LAB_0001f1dc+1+1_0001f358:;XREF[2,0]:   0001f2ec,0001f2fc
ram:0001f358    ddf10100        addr        LAB_0001f1dc+1+1                        
                            DAT_0001f35c:                 ;XREF[1,0]:   0001f306
ram:0001f35c    b0290020        undefined4  200029B0h                               
                            DAT_0001f360:                 ;XREF[1,0]:   0001f31c
ram:0001f360    bc290020        undefined4  200029BCh                               
                            DAT_0001f364:                 ;XREF[1,0]:   0001f342
ram:0001f364    02200000        undefined4  00002002h                               
                            ;************************************************************************************************
                            ;*                                           FUNCTION                                           *
                            ;************************************************************************************************
                            ;undefined4 FUN_0001f368(int param_1)
          ;param_1       int                 r0                      
                                                          ;XREF[1,0]:   0001b220
ram:0001f368    0028            cmp         param_1,#0x0                            
ram:0001f36a    03d0            beq         LAB_0001f374                            
ram:0001f36c    024b            ldr         r3,[DAT_0001f378]                       ;= 200029A8h
ram:0001f36e    1860            str         param_1,[r3,#0x0]=>DAT_200029a8         
ram:0001f370    0020            movs        param_1,#0x0                            
                            LAB_0001f372:                 ;XREF[1,0]:   0001f376
ram:0001f372    7047            bx          lr                                      
                            LAB_0001f374:                 ;XREF[1,0]:   0001f36a
ram:0001f374    0e20            movs        param_1,#0xe                            
ram:0001f376    fce7            b           LAB_0001f372                            
                            DAT_0001f378:                 ;XREF[1,0]:   0001f36c
ram:0001f378    a8290020        undefined4  200029A8h                               
                            ;************************************************************************************************
                            ;*                                           FUNCTION                                           *
                            ;************************************************************************************************
                            ;undefined FUNC_VT_0001f37c(void)
                                                          ;XREF[0,1]:   0001b098
ram:0001f37c    10b5            push        {r4,lr}                                 
ram:0001f37e    094b            ldr         r3,[DAT_0001f3a4]                       ;= 200029ACh
ram:0001f380    1b68            ldr         r3,[r3,#0x0]=>DAT_200029ac              
ram:0001f382    002b            cmp         r3,#0x0                                 
ram:0001f384    06d0            beq         LAB_0001f394                            
ram:0001f386    9847            blx         r3                                      
ram:0001f388    0028            cmp         r0,#0x0                                 
ram:0001f38a    00d1            bne         LAB_0001f38e                            
                            LAB_0001f38c:                 ;XREF[3,0]:   0001f392,0001f39a,0001f3a0
ram:0001f38c    10bd            pop         {r4,pc}                                 
                            LAB_0001f38e:                 ;XREF[1,0]:   0001f38a
ram:0001f38e    fff743fc        bl          FUN_0001ec18                            ;undefined FUN_0001ec18(void)
ram:0001f392    fbe7            b           LAB_0001f38c                            
                            LAB_0001f394:                 ;XREF[1,0]:   0001f384
ram:0001f394    044b            ldr         r3,[DAT_0001f3a8]                       ;= 200029B0h
ram:0001f396    1b78            ldrb        r3,[r3,#0x0]=>DAT_200029b0              
ram:0001f398    002b            cmp         r3,#0x0                                 
ram:0001f39a    f7d0            beq         LAB_0001f38c                            
ram:0001f39c    fff722ff        bl          FUN_0001f1e4                            ;undefined FUN_0001f1e4(void)
ram:0001f3a0    f4e7            b           LAB_0001f38c                            
ram:0001f3a2    c046            mov         r8,r8                                   
                            DAT_0001f3a4:                 ;XREF[1,0]:   0001f37e
ram:0001f3a4    ac290020        undefined4  200029ACh                               
                            DAT_0001f3a8:                 ;XREF[1,0]:   0001f394
ram:0001f3a8    b0290020        undefined4  200029B0h                               
                            ;************************************************************************************************
                            ;*                                           FUNCTION                                           *
                            ;************************************************************************************************
                            ;undefined4 FUN_0001f3ac(int param_1, undefined param_2, undefined2 * param_3)
          ;param_1       int                 r0                      
          ;param_2       undefined           r1                      
          ;param_3       undefined2 *        r2                      
                                                          ;XREF[1,0]:   0001b208
ram:0001f3ac    70b5            push        {r4,r5,r6,lr}                           
ram:0001f3ae    1400            movs        r4,param_3                              
ram:0001f3b0    0500            movs        r5,param_1                              
ram:0001f3b2    0e00            movs        r6,param_2                              
ram:0001f3b4    1422            movs        param_3,#0x14                           
ram:0001f3b6    0021            movs        param_2,#0x0                            
ram:0001f3b8    2000            movs        param_1,r4                              
ram:0001f3ba    00f060f8        bl          FUN_0001f47e                            ;undefined FUN_0001f47e(undefined * p...
ram:0001f3be    0023            movs        r3,#0x0                                 
ram:0001f3c0    0122            movs        param_3,#0x1                            
ram:0001f3c2    2361            str         r3,[r4,#0x10]                           
ram:0001f3c4    237b            ldrb        r3,[r4,#0xc]                            
ram:0001f3c6    2280            strh        param_3,[r4,#0x0]                       
ram:0001f3c8    9343            bics        r3,param_3                              
ram:0001f3ca    2373            strb        r3,[r4,#0xc]                            
ram:0001f3cc    2672            strb        r6,[r4,#0x8]                            
ram:0001f3ce    6572            strb        r5,[r4,#0x9]                            
ram:0001f3d0    002d            cmp         r5,#0x0                                 
ram:0001f3d2    01d0            beq         LAB_0001f3d8                            
ram:0001f3d4    0123            movs        r3,#0x1                                 
ram:0001f3d6    a372            strb        r3,[r4,#0xa]                            
                            LAB_0001f3d8:                 ;XREF[1,0]:   0001f3d2
ram:0001f3d8    0020            movs        param_1,#0x0                            
ram:0001f3da    70bd            pop         {r4,r5,r6,pc}                           
                            ;************************************************************************************************
                            ;*                                           FUNCTION                                           *
                            ;************************************************************************************************
                            ;undefined FUN_0001f3dc(void)
          ;local_c       undefined4          -c                      ;XREF[3,0]:   0001f3e2,0001f3e4,0001f3ee
          ;local_10      undefined4         -10                      ;XREF[1,0]:   0001f3e8
                                                          ;XREF[1,0]:   0001b216
ram:0001f3dc    00b5            push        {lr}                                    
ram:0001f3de    054b            ldr         r3,[DAT_0001f3f4]                       ;= 20001FF8h
ram:0001f3e0    83b0            sub         sp,#0xc                                 
ram:0001f3e2    0193            str         r3=>DAT_20001ff8,[sp,#local_c+0x10]     
ram:0001f3e4    019b            ldr         r3,[sp,#local_c+0x10]                   
ram:0001f3e6    6946            mov         r1,sp                                   
ram:0001f3e8    0093            str         r3=>DAT_20001ff8,[sp,#0x0]=>local_10    
ram:0001f3ea    fff7f3fe        bl          FUN_0001f1d4                            ;undefined FUN_0001f1d4(void)
ram:0001f3ee    019b            ldr         r3,[sp,#local_c+0x10]                   
ram:0001f3f0    03b0            add         sp,#0xc                                 
ram:0001f3f2    00bd            pop         {pc}                                    
                            DAT_0001f3f4:                 ;XREF[1,0]:   0001f3de
ram:0001f3f4    f81f0020        undefined4  20001FF8h                               
                            ;************************************************************************************************
                            ;*                                           FUNCTION                                           *
                            ;************************************************************************************************
                            ;undefined FUN_0001f3f8(undefined4 param_1, undefined4 param_2)
          ;param_1       undefined4          r0                      
          ;param_2       undefined4          r1                      
                                                          ;XREF[1,0]:   0001b15a
ram:0001f3f8    084b            ldr         r3,[LAB_0001f41c]                       
ram:0001f3fa    10b5            push        {r4,lr}                                 
ram:0001f3fc    0400            movs        r4,param_1                              
ram:0001f3fe    002b            cmp         r3,#0x0                                 
ram:0001f400    02d0            beq         LAB_0001f408                            
ram:0001f402    0021            movs        param_2,#0x0                            
ram:0001f404    00e0            b           LAB_0001f408                            
ram:0001f406    00bf            nop                                                  
                            LAB_0001f408:                 ;XREF[2,0]:   0001f400,0001f404
ram:0001f408    054b            ldr         r3,[PTR_DAT_0001f420]                   ;= 0001f730
ram:0001f40a    1868            ldr         param_1,[r3,#0x0]=>DAT_0001f730         ;= 20002040h
ram:0001f40c    836a            ldr         r3,[param_1,#0x28]=>DAT_20002068        
ram:0001f40e    002b            cmp         r3,#0x0                                 
ram:0001f410    00d0            beq         LAB_0001f414                            
ram:0001f412    9847            blx         r3                                      
                            LAB_0001f414:                 ;XREF[1,0]:   0001f410
ram:0001f414    2000            movs        param_1,r4                              
ram:0001f416    00f041f8        bl          FUN_0001f49c                            ;undefined FUN_0001f49c(void)
ram:0001f41a    c046            mov         r8,r8                                   
                            LAB_0001f41c:                 ;XREF[1,0]:   0001f3f8
ram:0001f41c    0000            movs        param_1,param_1                         
ram:0001f41e    0000            movs        param_1,param_1                         
                            PTR_DAT_0001f420:             ;XREF[1,0]:   0001f408
ram:0001f420    30f70100        addr        DAT_0001f730                            ;= 20002040h
                            ;************************************************************************************************
                            ;*                                           FUNCTION                                           *
                            ;************************************************************************************************
                            ;undefined FUN_0001f424(void)
                                                          ;XREF[1,0]:   0001b14e
ram:0001f424    70b5            push        {r4,r5,r6,lr}                           
ram:0001f426    0026            movs        r6,#0x0                                 
ram:0001f428    0c4d            ldr         r5,[DAT_0001f45c]                       ;= 200020A0h
ram:0001f42a    0d4c            ldr         r4,[DAT_0001f460]                       ;= 200020A0h
ram:0001f42c    641b            subs        r4,r4,r5                                
ram:0001f42e    a410            asrs        r4,r4,#0x2                              
                            LAB_0001f430:                 ;XREF[1,0]:   0001f450
ram:0001f430    a642            cmp         r6,r4                                   
ram:0001f432    09d1            bne         LAB_0001f448                            
ram:0001f434    0026            movs        r6,#0x0                                 
ram:0001f436    00f01ff9        bl          FUN_0001f678                            ;undefined FUN_0001f678(void)
ram:0001f43a    0a4d            ldr         r5,[DAT_0001f464]                       ;= 200020A0h
ram:0001f43c    0a4c            ldr         r4,[DAT_0001f468]                       ;= 200020A4h
ram:0001f43e    641b            subs        r4,r4,r5                                
ram:0001f440    a410            asrs        r4,r4,#0x2                              
                            LAB_0001f442:                 ;XREF[1,0]:   0001f45a
ram:0001f442    a642            cmp         r6,r4                                   
ram:0001f444    05d1            bne         LAB_0001f452                            
ram:0001f446    70bd            pop         {r4,r5,r6,pc}                           
                            LAB_0001f448:                 ;XREF[1,0]:   0001f432
ram:0001f448    b300            lsls        r3,r6,#0x2                              
ram:0001f44a    eb58            ldr         r3,[r5,r3]=>DAT_200020a0                
ram:0001f44c    9847            blx         r3                                      
ram:0001f44e    0136            adds        r6,#0x1                                 
ram:0001f450    eee7            b           LAB_0001f430                            
                            LAB_0001f452:                 ;XREF[1,0]:   0001f444
ram:0001f452    b300            lsls        r3,r6,#0x2                              
ram:0001f454    eb58            ldr         r3,[r5,r3]=>DAT_200020a0                
ram:0001f456    9847            blx         r3                                      
ram:0001f458    0136            adds        r6,#0x1                                 
ram:0001f45a    f2e7            b           LAB_0001f442                            
                            DAT_0001f45c:                 ;XREF[1,0]:   0001f428
ram:0001f45c    a0200020        undefined4  200020A0h                               
                            DAT_0001f460:                 ;XREF[1,0]:   0001f42a
ram:0001f460    a0200020        undefined4  200020A0h                               
                            DAT_0001f464:                 ;XREF[1,0]:   0001f43a
ram:0001f464    a0200020        undefined4  200020A0h                               
                            DAT_0001f468:                 ;XREF[1,0]:   0001f43c
ram:0001f468    a4200020        undefined4  200020A4h                               
                            ;************************************************************************************************
                            ;*                                           FUNCTION                                           *
                            ;************************************************************************************************
                            ;undefined FUN_0001f46c(int param_1, int param_2, int param_3)
          ;param_1       int                 r0                      
          ;param_2       int                 r1                      
          ;param_3       int                 r2                      
                                                          ;XREF[8,0]:   0001c7bc,0001ca00,0001caa4,0001cbca
                                                          ;             0001ce96,0001cf60,0001d042,0001d246
ram:0001f46c    0023            movs        r3,#0x0                                 
ram:0001f46e    10b5            push        {r4,lr}                                 
                            LAB_0001f470:                 ;XREF[1,0]:   0001f47c
ram:0001f470    9a42            cmp         param_3,r3                              
ram:0001f472    00d1            bne         LAB_0001f476                            
ram:0001f474    10bd            pop         {r4,pc}                                 
                            LAB_0001f476:                 ;XREF[1,0]:   0001f472
ram:0001f476    cc5c            ldrb        r4,[param_2,r3]                         
ram:0001f478    c454            strb        r4,[param_1,r3]                         
ram:0001f47a    0133            adds        r3,#0x1                                 
ram:0001f47c    f8e7            b           LAB_0001f470                            
                            ;************************************************************************************************
                            ;*                                           FUNCTION                                           *
                            ;************************************************************************************************
                            ;undefined FUN_0001f47e(undefined * param_1, undefined param_2, int param_3)
          ;param_1       undefined *         r0                      
          ;param_2       undefined           r1                      
          ;param_3       int                 r2                      
                                                          ;XREF[27,0]:  0001b126,0001b5c8,0001bf92,0001bfa6
                                                          ;             0001bfb8,0001c0cc,0001c0f2,0001c120
                                                          ;             0001c154,0001c180,0001c1ac,0001c1ee
                                                          ;             0001c24c,0001c28a,0001c2f2,0001c4f2
                                                          ;             0001c4fe,0001d538,0001d562,0001d590
                                                          ;             0001d65e,0001d690,0001d6ca,0001d740
                                                          ;             0001d76e,0001d7a2,0001f3ba
ram:0001f47e    0300            movs        r3,param_1                              
ram:0001f480    1218            adds        param_3,param_3,param_1                 
                            LAB_0001f482:                 ;XREF[1,0]:   0001f48c
ram:0001f482    9342            cmp         r3,param_3                              
ram:0001f484    00d1            bne         LAB_0001f488                            
ram:0001f486    7047            bx          lr                                      
                            LAB_0001f488:                 ;XREF[1,0]:   0001f484
ram:0001f488    1970            strb        param_2,[r3,#0x0]                       
ram:0001f48a    0133            adds        r3,#0x1                                 
ram:0001f48c    f9e7            b           LAB_0001f482                            
                            ;************************************************************************************************
                            ;*                                           FUNCTION                                           *
                            ;************************************************************************************************
                            ;int FUN_0001f48e(int param_1)
          ;param_1       int                 r0                      
                                                          ;XREF[4,0]:   0001b5d0,0001b5dc,0001b5e8,0001bf4e
ram:0001f48e    0023            movs        r3,#0x0                                 
                            LAB_0001f490:                 ;XREF[1,0]:   0001f496
ram:0001f490    c25c            ldrb        r2,[param_1,r3]                         
ram:0001f492    0133            adds        r3,#0x1                                 
ram:0001f494    002a            cmp         r2,#0x0                                 
ram:0001f496    fbd1            bne         LAB_0001f490                            
ram:0001f498    581e            subs        param_1,r3,#0x1                         
ram:0001f49a    7047            bx          lr                                      
                            ;************************************************************************************************
                            ;*                                           FUNCTION                                           *
                            ;************************************************************************************************
                            ;undefined FUN_0001f49c(void)
                                                          ;XREF[2,0]:   0001f416,0001f49c
ram:0001f49c    fee7            b           FUN_0001f49c                            
ram:0001f49e    c046            mov         r8,r8                                   
                            ;************************************************************************************************
                            ;*                                           FUNCTION                                           *
                            ;************************************************************************************************
                            ;undefined8 FUN_0001f4a0(uint param_1, uint param_2)
          ;param_1       uint                r0                      
          ;param_2       uint                r1                      
                                                          ;XREF[3,0]:   0001b3f0,0001baf2,0001f670
ram:0001f4a0    0346            mov         r3,param_1                              
ram:0001f4a2    0b43            orrs        r3,param_2                              
ram:0001f4a4    7fd4            bmi         LAB_0001f5a6                            
ram:0001f4a6    0022            movs        r2,#0x0                                 
ram:0001f4a8    4308            lsrs        r3,param_1,#0x1                         
ram:0001f4aa    8b42            cmp         r3,param_2                              
ram:0001f4ac    74d3            bcc         LAB_0001f598                            
ram:0001f4ae    0309            lsrs        r3,param_1,#0x4                         
ram:0001f4b0    8b42            cmp         r3,param_2                              
ram:0001f4b2    5fd3            bcc         LAB_0001f574                            
ram:0001f4b4    030a            lsrs        r3,param_1,#0x8                         
ram:0001f4b6    8b42            cmp         r3,param_2                              
ram:0001f4b8    44d3            bcc         LAB_0001f544                            
ram:0001f4ba    030b            lsrs        r3,param_1,#0xc                         
ram:0001f4bc    8b42            cmp         r3,param_2                              
ram:0001f4be    28d3            bcc         LAB_0001f512                            
ram:0001f4c0    030c            lsrs        r3,param_1,#0x10                        
ram:0001f4c2    8b42            cmp         r3,param_2                              
ram:0001f4c4    0dd3            bcc         LAB_0001f4e2                            
ram:0001f4c6    ff22            movs        r2,#0xff                                
ram:0001f4c8    0902            lsls        param_2,param_2,#0x8                    
ram:0001f4ca    12ba            rev         r2,r2                                   
ram:0001f4cc    030c            lsrs        r3,param_1,#0x10                        
ram:0001f4ce    8b42            cmp         r3,param_2                              
ram:0001f4d0    02d3            bcc         LAB_0001f4d8                            
ram:0001f4d2    1212            asrs        r2,r2,#0x8                              
ram:0001f4d4    0902            lsls        param_2,param_2,#0x8                    
ram:0001f4d6    65d0            beq         LAB_0001f5a4                            
                            LAB_0001f4d8:                 ;XREF[1,0]:   0001f4d0
ram:0001f4d8    030b            lsrs        r3,param_1,#0xc                         
ram:0001f4da    8b42            cmp         r3,param_2                              
ram:0001f4dc    19d3            bcc         LAB_0001f512                            
ram:0001f4de    00e0            b           LAB_0001f4e2                            
                            LAB_0001f4e0:                 ;XREF[1,0]:   0001f542
ram:0001f4e0    090a            lsrs        param_2,param_2,#0x8                    
                            LAB_0001f4e2:                 ;XREF[2,0]:   0001f4c4,0001f4de
ram:0001f4e2    c30b            lsrs        r3,param_1,#0xf                         
ram:0001f4e4    8b42            cmp         r3,param_2                              
ram:0001f4e6    01d3            bcc         LAB_0001f4ec                            
ram:0001f4e8    cb03            lsls        r3,param_2,#0xf                         
ram:0001f4ea    c01a            subs        param_1,param_1,r3                      
                            LAB_0001f4ec:                 ;XREF[1,0]:   0001f4e6
ram:0001f4ec    5241            adcs        r2,r2                                   
ram:0001f4ee    830b            lsrs        r3,param_1,#0xe                         
ram:0001f4f0    8b42            cmp         r3,param_2                              
ram:0001f4f2    01d3            bcc         LAB_0001f4f8                            
ram:0001f4f4    8b03            lsls        r3,param_2,#0xe                         
ram:0001f4f6    c01a            subs        param_1,param_1,r3                      
                            LAB_0001f4f8:                 ;XREF[1,0]:   0001f4f2
ram:0001f4f8    5241            adcs        r2,r2                                   
ram:0001f4fa    430b            lsrs        r3,param_1,#0xd                         
ram:0001f4fc    8b42            cmp         r3,param_2                              
ram:0001f4fe    01d3            bcc         LAB_0001f504                            
ram:0001f500    4b03            lsls        r3,param_2,#0xd                         
ram:0001f502    c01a            subs        param_1,param_1,r3                      
                            LAB_0001f504:                 ;XREF[1,0]:   0001f4fe
ram:0001f504    5241            adcs        r2,r2                                   
ram:0001f506    030b            lsrs        r3,param_1,#0xc                         
ram:0001f508    8b42            cmp         r3,param_2                              
ram:0001f50a    01d3            bcc         LAB_0001f510                            
ram:0001f50c    0b03            lsls        r3,param_2,#0xc                         
ram:0001f50e    c01a            subs        param_1,param_1,r3                      
                            LAB_0001f510:                 ;XREF[1,0]:   0001f50a
ram:0001f510    5241            adcs        r2,r2                                   
                            LAB_0001f512:                 ;XREF[2,0]:   0001f4be,0001f4dc
ram:0001f512    c30a            lsrs        r3,param_1,#0xb                         
ram:0001f514    8b42            cmp         r3,param_2                              
ram:0001f516    01d3            bcc         LAB_0001f51c                            
ram:0001f518    cb02            lsls        r3,param_2,#0xb                         
ram:0001f51a    c01a            subs        param_1,param_1,r3                      
                            LAB_0001f51c:                 ;XREF[1,0]:   0001f516
ram:0001f51c    5241            adcs        r2,r2                                   
ram:0001f51e    830a            lsrs        r3,param_1,#0xa                         
ram:0001f520    8b42            cmp         r3,param_2                              
ram:0001f522    01d3            bcc         LAB_0001f528                            
ram:0001f524    8b02            lsls        r3,param_2,#0xa                         
ram:0001f526    c01a            subs        param_1,param_1,r3                      
                            LAB_0001f528:                 ;XREF[1,0]:   0001f522
ram:0001f528    5241            adcs        r2,r2                                   
ram:0001f52a    430a            lsrs        r3,param_1,#0x9                         
ram:0001f52c    8b42            cmp         r3,param_2                              
ram:0001f52e    01d3            bcc         LAB_0001f534                            
ram:0001f530    4b02            lsls        r3,param_2,#0x9                         
ram:0001f532    c01a            subs        param_1,param_1,r3                      
                            LAB_0001f534:                 ;XREF[1,0]:   0001f52e
ram:0001f534    5241            adcs        r2,r2                                   
ram:0001f536    030a            lsrs        r3,param_1,#0x8                         
ram:0001f538    8b42            cmp         r3,param_2                              
ram:0001f53a    01d3            bcc         LAB_0001f540                            
ram:0001f53c    0b02            lsls        r3,param_2,#0x8                         
ram:0001f53e    c01a            subs        param_1,param_1,r3                      
                            LAB_0001f540:                 ;XREF[1,0]:   0001f53a
ram:0001f540    5241            adcs        r2,r2                                   
ram:0001f542    cdd2            bcs         LAB_0001f4e0                            
                            LAB_0001f544:                 ;XREF[1,0]:   0001f4b8
ram:0001f544    c309            lsrs        r3,param_1,#0x7                         
ram:0001f546    8b42            cmp         r3,param_2                              
ram:0001f548    01d3            bcc         LAB_0001f54e                            
ram:0001f54a    cb01            lsls        r3,param_2,#0x7                         
ram:0001f54c    c01a            subs        param_1,param_1,r3                      
                            LAB_0001f54e:                 ;XREF[1,0]:   0001f548
ram:0001f54e    5241            adcs        r2,r2                                   
ram:0001f550    8309            lsrs        r3,param_1,#0x6                         
ram:0001f552    8b42            cmp         r3,param_2                              
ram:0001f554    01d3            bcc         LAB_0001f55a                            
ram:0001f556    8b01            lsls        r3,param_2,#0x6                         
ram:0001f558    c01a            subs        param_1,param_1,r3                      
                            LAB_0001f55a:                 ;XREF[1,0]:   0001f554
ram:0001f55a    5241            adcs        r2,r2                                   
ram:0001f55c    4309            lsrs        r3,param_1,#0x5                         
ram:0001f55e    8b42            cmp         r3,param_2                              
ram:0001f560    01d3            bcc         LAB_0001f566                            
ram:0001f562    4b01            lsls        r3,param_2,#0x5                         
ram:0001f564    c01a            subs        param_1,param_1,r3                      
                            LAB_0001f566:                 ;XREF[1,0]:   0001f560
ram:0001f566    5241            adcs        r2,r2                                   
ram:0001f568    0309            lsrs        r3,param_1,#0x4                         
ram:0001f56a    8b42            cmp         r3,param_2                              
ram:0001f56c    01d3            bcc         LAB_0001f572                            
ram:0001f56e    0b01            lsls        r3,param_2,#0x4                         
ram:0001f570    c01a            subs        param_1,param_1,r3                      
                            LAB_0001f572:                 ;XREF[1,0]:   0001f56c
ram:0001f572    5241            adcs        r2,r2                                   
                            LAB_0001f574:                 ;XREF[1,0]:   0001f4b2
ram:0001f574    c308            lsrs        r3,param_1,#0x3                         
ram:0001f576    8b42            cmp         r3,param_2                              
ram:0001f578    01d3            bcc         LAB_0001f57e                            
ram:0001f57a    cb00            lsls        r3,param_2,#0x3                         
ram:0001f57c    c01a            subs        param_1,param_1,r3                      
                            LAB_0001f57e:                 ;XREF[1,0]:   0001f578
ram:0001f57e    5241            adcs        r2,r2                                   
ram:0001f580    8308            lsrs        r3,param_1,#0x2                         
ram:0001f582    8b42            cmp         r3,param_2                              
ram:0001f584    01d3            bcc         LAB_0001f58a                            
ram:0001f586    8b00            lsls        r3,param_2,#0x2                         
ram:0001f588    c01a            subs        param_1,param_1,r3                      
                            LAB_0001f58a:                 ;XREF[1,0]:   0001f584
ram:0001f58a    5241            adcs        r2,r2                                   
ram:0001f58c    4308            lsrs        r3,param_1,#0x1                         
ram:0001f58e    8b42            cmp         r3,param_2                              
ram:0001f590    01d3            bcc         LAB_0001f596                            
ram:0001f592    4b00            lsls        r3,param_2,#0x1                         
ram:0001f594    c01a            subs        param_1,param_1,r3                      
                            LAB_0001f596:                 ;XREF[1,0]:   0001f590
ram:0001f596    5241            adcs        r2,r2                                   
                            LAB_0001f598:                 ;XREF[1,0]:   0001f4ac
ram:0001f598    411a            subs        param_2,param_1,param_2                 
ram:0001f59a    00d2            bcs         LAB_0001f59e                            
ram:0001f59c    0146            mov         param_2,param_1                         
                            LAB_0001f59e:                 ;XREF[1,0]:   0001f59a
ram:0001f59e    5241            adcs        r2,r2                                   
ram:0001f5a0    1046            mov         param_1,r2                              
ram:0001f5a2    7047            bx          lr                                      
                            LAB_0001f5a4:                 ;XREF[1,0]:   0001f4d6
ram:0001f5a4    5de0            b           LAB_0001f662                            
                            LAB_0001f5a6:                 ;XREF[1,0]:   0001f4a4
ram:0001f5a6    ca0f            lsrs        r2,param_2,#0x1f                        
ram:0001f5a8    00d0            beq         LAB_0001f5ac                            
ram:0001f5aa    4942            rsbs        param_2,param_2                         
                            LAB_0001f5ac:                 ;XREF[1,0]:   0001f5a8
ram:0001f5ac    0310            asrs        r3,param_1                              
ram:0001f5ae    00d3            bcc         LAB_0001f5b2                            
ram:0001f5b0    4042            rsbs        param_1,param_1                         
                            LAB_0001f5b2:                 ;XREF[1,0]:   0001f5ae
ram:0001f5b2    5340            eors        r3,r2                                   
ram:0001f5b4    0022            movs        r2,#0x0                                 
ram:0001f5b6    9c46            mov         r12,r3                                  
ram:0001f5b8    0309            lsrs        r3,param_1,#0x4                         
ram:0001f5ba    8b42            cmp         r3,param_2                              
ram:0001f5bc    2dd3            bcc         LAB_0001f61a                            
ram:0001f5be    030a            lsrs        r3,param_1,#0x8                         
ram:0001f5c0    8b42            cmp         r3,param_2                              
ram:0001f5c2    12d3            bcc         LAB_0001f5ea                            
ram:0001f5c4    fc22            movs        r2,#0xfc                                
ram:0001f5c6    8901            lsls        param_2,param_2,#0x6                    
ram:0001f5c8    12ba            rev         r2,r2                                   
ram:0001f5ca    030a            lsrs        r3,param_1,#0x8                         
ram:0001f5cc    8b42            cmp         r3,param_2                              
ram:0001f5ce    0cd3            bcc         LAB_0001f5ea                            
ram:0001f5d0    8901            lsls        param_2,param_2,#0x6                    
ram:0001f5d2    9211            asrs        r2,r2,#0x6                              
ram:0001f5d4    8b42            cmp         r3,param_2                              
ram:0001f5d6    08d3            bcc         LAB_0001f5ea                            
ram:0001f5d8    8901            lsls        param_2,param_2,#0x6                    
ram:0001f5da    9211            asrs        r2,r2,#0x6                              
ram:0001f5dc    8b42            cmp         r3,param_2                              
ram:0001f5de    04d3            bcc         LAB_0001f5ea                            
ram:0001f5e0    8901            lsls        param_2,param_2,#0x6                    
ram:0001f5e2    3ad0            beq         LAB_0001f65a                            
ram:0001f5e4    9211            asrs        r2,r2,#0x6                              
ram:0001f5e6    00e0            b           LAB_0001f5ea                            
                            LAB_0001f5e8:                 ;XREF[1,0]:   0001f632
ram:0001f5e8    8909            lsrs        param_2,param_2,#0x6                    
                            LAB_0001f5ea:                 ;XREF[5,0]:   0001f5c2,0001f5ce,0001f5d6,0001f5de
                                                          ;             0001f5e6
ram:0001f5ea    c309            lsrs        r3,param_1,#0x7                         
ram:0001f5ec    8b42            cmp         r3,param_2                              
ram:0001f5ee    01d3            bcc         LAB_0001f5f4                            
ram:0001f5f0    cb01            lsls        r3,param_2,#0x7                         
ram:0001f5f2    c01a            subs        param_1,param_1,r3                      
                            LAB_0001f5f4:                 ;XREF[1,0]:   0001f5ee
ram:0001f5f4    5241            adcs        r2,r2                                   
ram:0001f5f6    8309            lsrs        r3,param_1,#0x6                         
ram:0001f5f8    8b42            cmp         r3,param_2                              
ram:0001f5fa    01d3            bcc         LAB_0001f600                            
ram:0001f5fc    8b01            lsls        r3,param_2,#0x6                         
ram:0001f5fe    c01a            subs        param_1,param_1,r3                      
                            LAB_0001f600:                 ;XREF[1,0]:   0001f5fa
ram:0001f600    5241            adcs        r2,r2                                   
ram:0001f602    4309            lsrs        r3,param_1,#0x5                         
ram:0001f604    8b42            cmp         r3,param_2                              
ram:0001f606    01d3            bcc         LAB_0001f60c                            
ram:0001f608    4b01            lsls        r3,param_2,#0x5                         
ram:0001f60a    c01a            subs        param_1,param_1,r3                      
                            LAB_0001f60c:                 ;XREF[1,0]:   0001f606
ram:0001f60c    5241            adcs        r2,r2                                   
ram:0001f60e    0309            lsrs        r3,param_1,#0x4                         
ram:0001f610    8b42            cmp         r3,param_2                              
ram:0001f612    01d3            bcc         LAB_0001f618                            
ram:0001f614    0b01            lsls        r3,param_2,#0x4                         
ram:0001f616    c01a            subs        param_1,param_1,r3                      
                            LAB_0001f618:                 ;XREF[1,0]:   0001f612
ram:0001f618    5241            adcs        r2,r2                                   
                            LAB_0001f61a:                 ;XREF[1,0]:   0001f5bc
ram:0001f61a    c308            lsrs        r3,param_1,#0x3                         
ram:0001f61c    8b42            cmp         r3,param_2                              
ram:0001f61e    01d3            bcc         LAB_0001f624                            
ram:0001f620    cb00            lsls        r3,param_2,#0x3                         
ram:0001f622    c01a            subs        param_1,param_1,r3                      
                            LAB_0001f624:                 ;XREF[1,0]:   0001f61e
ram:0001f624    5241            adcs        r2,r2                                   
ram:0001f626    8308            lsrs        r3,param_1,#0x2                         
ram:0001f628    8b42            cmp         r3,param_2                              
ram:0001f62a    01d3            bcc         LAB_0001f630                            
ram:0001f62c    8b00            lsls        r3,param_2,#0x2                         
ram:0001f62e    c01a            subs        param_1,param_1,r3                      
                            LAB_0001f630:                 ;XREF[1,0]:   0001f62a
ram:0001f630    5241            adcs        r2,r2                                   
ram:0001f632    d9d2            bcs         LAB_0001f5e8                            
ram:0001f634    4308            lsrs        r3,param_1,#0x1                         
ram:0001f636    8b42            cmp         r3,param_2                              
ram:0001f638    01d3            bcc         LAB_0001f63e                            
ram:0001f63a    4b00            lsls        r3,param_2,#0x1                         
ram:0001f63c    c01a            subs        param_1,param_1,r3                      
                            LAB_0001f63e:                 ;XREF[1,0]:   0001f638
ram:0001f63e    5241            adcs        r2,r2                                   
ram:0001f640    411a            subs        param_2,param_1,param_2                 
ram:0001f642    00d2            bcs         LAB_0001f646                            
ram:0001f644    0146            mov         param_2,param_1                         
                            LAB_0001f646:                 ;XREF[1,0]:   0001f642
ram:0001f646    6346            mov         r3,r12                                  
ram:0001f648    5241            adcs        r2,r2                                   
ram:0001f64a    5b10            asrs        r3,r3,#0x1                              
ram:0001f64c    1046            mov         param_1,r2                              
ram:0001f64e    01d3            bcc         LAB_0001f654                            
ram:0001f650    4042            rsbs        param_1,param_1                         
ram:0001f652    002b            cmp         r3,#0x0                                 
                            LAB_0001f654:                 ;XREF[1,0]:   0001f64e
ram:0001f654    00d5            bpl         LAB_0001f658                            
ram:0001f656    4942            rsbs        param_2,param_2                         
                            LAB_0001f658:                 ;XREF[1,0]:   0001f654
ram:0001f658    7047            bx          lr                                      
                            LAB_0001f65a:                 ;XREF[1,0]:   0001f5e2
ram:0001f65a    6346            mov         r3,r12                                  
ram:0001f65c    5b10            asrs        r3,r3,#0x1                              
ram:0001f65e    00d3            bcc         LAB_0001f662                            
ram:0001f660    4042            rsbs        param_1,param_1                         
                            LAB_0001f662:                 ;XREF[3,0]:   0001f5a4,0001f65e,0001f66e
ram:0001f662    01b5            push        {param_1,lr}                            
ram:0001f664    0020            movs        param_1,#0x0                            
ram:0001f666    00f005f8        bl          FUN_0001f674                            ;undefined FUN_0001f674(void)
ram:0001f66a    02bd            pop         {param_2,pc}                            
                            ;************************************************************************************************
                            ;*                                           FUNCTION                                           *
                            ;************************************************************************************************
                            ;undefined8 FUN_0001f66c(uint param_1, uint param_2)
          ;param_1       uint                r0                      
          ;param_2       uint                r1                      
                                                          ;XREF[1,0]:   0001c6d6
ram:0001f66c    0029            cmp         param_2,#0x0                            
ram:0001f66e    f8d0            beq         LAB_0001f662                            
ram:0001f670    16e7            b           FUN_0001f4a0                            ;undefined8 FUN_0001f4a0(uint param_1...
ram:0001f672    7047            bx          lr                                      
                            ;************************************************************************************************
                            ;*                                           FUNCTION                                           *
                            ;************************************************************************************************
                            ;undefined FUN_0001f674(void)
                                                          ;XREF[1,0]:   0001f666
ram:0001f674    7047            bx          lr                                      
ram:0001f676    c046            mov         r8,r8                                   
                            ;************************************************************************************************
                            ;*                                           FUNCTION                                           *
                            ;************************************************************************************************
                            ;undefined FUN_0001f678(void)
                                                          ;XREF[1,0]:   0001f436
ram:0001f678    f8b5            push        {r3,r4,r5,r6,r7,lr}                     
ram:0001f67a    c046            mov         r8,r8                                   
ram:0001f67c    f8bc            pop         {r3,r4,r5,r6,r7}                        
ram:0001f67e    08bc            pop         {r3}                                    
ram:0001f680    9e46            mov         lr,r3                                   
ram:0001f682    7047            bx          lr                                      
                            ;************************************************************************************************
                            ;*                                           FUNCTION                                           *
                            ;************************************************************************************************
                            ;undefined FUN_0001f684(void)
ram:0001f684    f8b5            push        {r3,r4,r5,r6,r7,lr}                     
ram:0001f686    c046            mov         r8,r8                                   
ram:0001f688    f8bc            pop         {r3,r4,r5,r6,r7}                        
ram:0001f68a    08bc            pop         {r3}                                    
ram:0001f68c    9e46            mov         lr,r3                                   
ram:0001f68e    7047            bx          lr                                      
                            DAT_0001f690:                 ;XREF[2,0]:   0001b1d2,0001b264
ram:0001f690    01000007        undefined4  07000001h                               
                            PTR_FUN_0001f694:             ;XREF[2,0]:   0001b3ba,0001b544
ram:0001f694    f4b40100        addr        FUN_0001b4f4                            
ram:0001f698    64b40100        addr        FUN_0001b464                            
ram:0001f69c    5ab40100        addr        FUN_0001b45a                            
ram:0001f6a0    54b40100        addr        FUN_0001b454                            
ram:0001f6a4    68              ??          68h    h                                ;?  ->  0001b368
ram:0001f6a5    b3              ??          B3h                                     
ram:0001f6a6    01              ??          01h                                     
ram:0001f6a7    00              ??          00h                                     
ram:0001f6a8    d8b30100        addr        FUN_0001b3d8                            
ram:0001f6ac    d2b30100        addr        FUN_0001b3d2                            
ram:0001f6b0    20b40100        addr        FUN_0001b420                            
                            s_GOBackpack_0001f6b4:        ;XREF[2,0]:   0001b5a6,0001b618
ram:0001f6b4    474f42616...    ds          "GOBackpack"                            
ram:0001f6bf    00              ??          00h                                     
                            s_Genius_Objects_0001f6c0:    ;XREF[3,0]:   0001b5ce,0001b5d4,0001b624
ram:0001f6c0    47656e697...    ds          "Genius Objects"                        
ram:0001f6cf    00              ??          00h                                     
                            DAT_0001f6d0:                 ;XREF[3,0]:   0001b5da,0001b5e0,0001b628
ram:0001f6d0    32              ??          32h    2                                
ram:0001f6d1    2e              ??          2Eh    .                                
ram:0001f6d2    32              ??          32h    2                                
ram:0001f6d3    00              ??          00h                                     
                            DAT_0001f6d4:                 ;XREF[3,0]:   0001b5e6,0001b5f4,0001b62c
ram:0001f6d4    31              ??          31h    1                                
ram:0001f6d5    2e              ??          2Eh    .                                
ram:0001f6d6    32              ??          32h    2                                
ram:0001f6d7    00              ??          00h                                     
                            DAT_0001f6d8:                 ;XREF[2,0]:   0001b7ae,0001b7d8
ram:0001f6d8    00              ??          00h                                     
ram:0001f6d9    08              ??          08h                                     
ram:0001f6da    00              ??          00h                                     
ram:0001f6db    00              ??          00h                                     
ram:0001f6dc    00              ??          00h                                     
ram:0001f6dd    08              ??          08h                                     
ram:0001f6de    00              ??          00h                                     
ram:0001f6df    00              ??          00h                                     
ram:0001f6e0    00              ??          00h                                     
ram:0001f6e1    10              ??          10h                                     
ram:0001f6e2    00              ??          00h                                     
ram:0001f6e3    00              ??          00h                                     
ram:0001f6e4    00              ??          00h                                     
ram:0001f6e5    80              ??          80h                                     
ram:0001f6e6    01              ??          01h                                     
ram:0001f6e7    00              ??          00h                                     
                            DAT_0001f6e8:                 ;XREF[2,0]:   0001b8b8,0001b8f8
ram:0001f6e8    4c              ??          4Ch    L                                
ram:0001f6e9    24              ??          24h    $                                
ram:0001f6ea    00              ??          00h                                     
ram:0001f6eb    20              ??          20h                                     
                            DAT_0001f6ec:                 ;XREF[2,0]:   0001b8aa,0001b8f0
ram:0001f6ec    6c              ??          6Ch    l                                
ram:0001f6ed    24              ??          24h    $                                
ram:0001f6ee    00              ??          00h                                     
ram:0001f6ef    20              ??          20h                                     
                            DAT_0001f6f0:                 ;XREF[2,0]:   0001b87e,0001b8dc
ram:0001f6f0    8c              ??          8Ch                                     
ram:0001f6f1    24              ??          24h    $                                
ram:0001f6f2    00              ??          00h                                     
ram:0001f6f3    20              ??          20h                                     
                            DAT_0001f6f4:                 ;XREF[2,0]:   0001bb12,0001bb20
ram:0001f6f4    02060000        undefined4  00000602h                               
                            DAT_0001f6f8:                 ;XREF[1,0]:   0001bb12
ram:0001f6f8    00000000        undefined4  00000000h                               
                            DAT_0001f6fc:                 ;XREF[3,0]:   0001bb12,0001bd3c,0001bdcc
ram:0001f6fc    7c              ??          7Ch    |                                
ram:0001f6fd    25              ??          25h    %                                
ram:0001f6fe    00              ??          00h                                     
ram:0001f6ff    20              ??          20h                                     
                            DAT_0001f700:                 ;XREF[2,0]:   0001bd4c,0001bdd4
ram:0001f700    9c              ??          9Ch                                     
ram:0001f701    25              ??          25h    %                                
ram:0001f702    00              ??          00h                                     
ram:0001f703    20              ??          20h                                     
                            DAT_0001f704:                 ;XREF[2,0]:   0001bee2,0001bf04
ram:0001f704    c4              ??          C4h                                     
ram:0001f705    25              ??          25h    %                                
ram:0001f706    00              ??          00h                                     
ram:0001f707    20              ??          20h                                     
                            DAT_0001f708:                 ;XREF[2,0]:   0001c076,0001c214
ram:0001f708    5f9c9c26        undefined4  269C9C5Fh                               
                            DAT_0001f70c:                 ;XREF[1,0]:   0001c076
ram:0001f70c    69e9bf96        undefined4  96BFE969h                               
                            DAT_0001f710:                 ;XREF[1,0]:   0001c076
ram:0001f710    a7b468ff        undefined4  FF68B4A7h                               
                            DAT_0001f714:                 ;XREF[1,0]:   0001c07a
ram:0001f714    0b413e17        undefined4  173E410Bh                               
                            PTR_FUN_0001f718:             ;XREF[3,0]:   0001c304,0001c308,0001c490
ram:0001f718    f8c30100        addr        FUN_0001c3f8                            
ram:0001f71c    4ec40100        addr        FUN_0001c44e                            
ram:0001f720    40c30100        addr        FUN_0001c340                            
ram:0001f724    b0c30100        addr        FUN_0001c3b0                            
ram:0001f728    00c40100        addr        FUN_0001c400                            
                            DAT_0001f72c:                 ;XREF[2,0]:   0001d264,0001d290
ram:0001f72c    d8              ??          D8h                                     
ram:0001f72d    27              ??          27h    '                                
ram:0001f72e    00              ??          00h                                     
ram:0001f72f    20              ??          20h                                     
                            DAT_0001f730:                 ;XREF[2,0]:   0001f40a,0001f420
ram:0001f730    40200020        undefined4  20002040h                               
                            DAT_0001f734:                 ;XREF[4,0]:   0001b0d0,0001b0e4,0001b0f2,0001b104
ram:0001f734    00              ??          00h                                     
ram:0001f735    00              ??          00h                                     
ram:0001f736    00              ??          00h                                     
ram:0001f737    00              ??          00h                                     
ram:0001f738    d0              ??          D0h                                     
ram:0001f739    b9              ??          B9h                                     
ram:0001f73a    ff              ??          FFh                                     
ram:0001f73b    7f              ??          7Fh                                    
ram:0001f73c    01              ??          01h                                     
ram:0001f73d    00              ??          00h                                     
ram:0001f73e    00              ??          00h                                     
ram:0001f73f    00              ??          00h                                     
                            DAT_0001f740:                 ;XREF[2,0]:   0001f192,0001f1b4
ram:0001f740    ff              ??          FFh                                     
ram:0001f741    ff              ??          FFh                                     
ram:0001f742    00              ??          00h                                     
ram:0001f743    00              ??          00h                                     
ram:0001f744    00              ??          00h                                     
ram:0001f745    00              ??          00h                                     
ram:0001f746    02              ??          02h                                     
ram:0001f747    00              ??          00h                                     
ram:0001f748    01              ??          01h                                     
ram:0001f749    00              ??          00h                                     
ram:0001f74a    00              ??          00h                                     
ram:0001f74b    00              ??          00h                                     
ram:0001f74c    03              ??          03h                                     
ram:0001f74d    00              ??          00h                                     
ram:0001f74e    00              ??          00h                                     
ram:0001f74f    00              ??          00h                                     
ram:0001f750    24              ??          24h    $                                
ram:0001f751    20              ??          20h                                     
ram:0001f752    00              ??          00h                                     
ram:0001f753    20              ??          20h                                     
ram:0001f754    00              ??          00h                                     
ram:0001f755    80              ??          80h                                     
ram:0001f756    00              ??          00h                                     
ram:0001f757    00              ??          00h                                     
ram:0001f758    00              ??          00h                                     
ram:0001f759    00              ??          00h                                     
ram:0001f75a    01              ??          01h                                     
ram:0001f75b    00              ??          00h                                     
ram:0001f75c    05              ??          05h                                     
ram:0001f75d    00              ??          00h                                     
ram:0001f75e    00              ??          00h                                     
ram:0001f75f    00              ??          00h                                     
ram:0001f760    00              ??          00h                                     
ram:0001f761    00              ??          00h                                     
ram:0001f762    00              ??          00h                                     
ram:0001f763    00              ??          00h                                     
ram:0001f764    fd              ??          FDh                                     ;?  ->  0001bdfd
ram:0001f765    bd              ??          BDh                                     
ram:0001f766    01              ??          01h                                     
ram:0001f767    00              ??          00h                                     
ram:0001f768    00              ??          00h                                     
ram:0001f769    00              ??          00h                                     
ram:0001f76a    00              ??          00h                                     
ram:0001f76b    00              ??          00h                                     
ram:0001f76c    a8              ??          A8h                                     
ram:0001f76d    00              ??          00h                                     
ram:0001f76e    b8              ??          B8h                                     
ram:0001f76f    00              ??          00h                                     
ram:0001f770    04              ??          04h                                     
ram:0001f771    00              ??          00h                                     
ram:0001f772    58              ??          58h    X                                
ram:0001f773    02              ??          02h                                     
ram:0001f774    80              ??          80h                                     
ram:0001f775    26              ??          26h    &                                
ram:0001f776    00              ??          00h                                     
ram:0001f777    20              ??          20h                                     
ram:0001f778    00              ??          00h                                     
ram:0001f779    00              ??          00h                                     
ram:0001f77a    00              ??          00h                                     
ram:0001f77b    00              ??          00h                                     
ram:0001f77c    a0              ??          A0h                                     
ram:0001f77d    26              ??          26h    &                                
ram:0001f77e    00              ??          00h                                     
ram:0001f77f    20              ??          20h                                     
ram:0001f780    00              ??          00h                                     
ram:0001f781    00              ??          00h                                     
ram:0001f782    00              ??          00h                                     
ram:0001f783    00              ??          00h                                     
ram:0001f784    00              ??          00h                                     
ram:0001f785    24              ??          24h    $                                
ram:0001f786    f4              ??          F4h                                     
ram:0001f787    00              ??          00h                                     
ram:0001f788    00              ??          00h                                     
ram:0001f789    00              ??          00h                                     
ram:0001f78a    00              ??          00h                                     
ram:0001f78b    00              ??          00h                                     
ram:0001f78c    00              ??          00h                                     
ram:0001f78d    00              ??          00h                                     
ram:0001f78e    00              ??          00h                                     
ram:0001f78f    00              ??          00h                                     
ram:0001f790    00              ??          00h                                     
ram:0001f791    00              ??          00h                                     
ram:0001f792    00              ??          00h                                     
ram:0001f793    00              ??          00h                                     
ram:0001f794    00              ??          00h                                     
ram:0001f795    00              ??          00h                                     
ram:0001f796    00              ??          00h                                     
ram:0001f797    00              ??          00h                                     
ram:0001f798    00              ??          00h                                     
ram:0001f799    00              ??          00h                                     
ram:0001f79a    00              ??          00h                                     
ram:0001f79b    00              ??          00h                                     
ram:0001f79c    00              ??          00h                                     
ram:0001f79d    00              ??          00h                                     
ram:0001f79e    00              ??          00h                                     
ram:0001f79f    00              ??          00h                                     
ram:0001f7a0    00              ??          00h                                     
ram:0001f7a1    00              ??          00h                                     
ram:0001f7a2    00              ??          00h                                     
ram:0001f7a3    00              ??          00h                                     
ram:0001f7a4    00              ??          00h                                     
ram:0001f7a5    00              ??          00h                                     
ram:0001f7a6    00              ??          00h                                     
ram:0001f7a7    00              ??          00h                                     
ram:0001f7a8    00              ??          00h                                     
ram:0001f7a9    00              ??          00h                                     
ram:0001f7aa    00              ??          00h                                     
ram:0001f7ab    00              ??          00h                                     
ram:0001f7ac    00              ??          00h                                     
ram:0001f7ad    00              ??          00h                                     
ram:0001f7ae    00              ??          00h                                     
ram:0001f7af    00              ??          00h                                     
ram:0001f7b0    00              ??          00h                                     
ram:0001f7b1    00              ??          00h                                     
ram:0001f7b2    00              ??          00h                                     
ram:0001f7b3    00              ??          00h                                     
ram:0001f7b4    00              ??          00h                                     
ram:0001f7b5    00              ??          00h                                     
ram:0001f7b6    00              ??          00h                                     
ram:0001f7b7    00              ??          00h                                     
ram:0001f7b8    00              ??          00h                                     
ram:0001f7b9    00              ??          00h                                     
ram:0001f7ba    00              ??          00h                                     
ram:0001f7bb    00              ??          00h                                     
ram:0001f7bc    00              ??          00h                                     
ram:0001f7bd    00              ??          00h                                     
ram:0001f7be    00              ??          00h                                     
ram:0001f7bf    00              ??          00h                                     
ram:0001f7c0    00              ??          00h                                     
ram:0001f7c1    00              ??          00h                                     
ram:0001f7c2    00              ??          00h                                     
ram:0001f7c3    00              ??          00h                                     
ram:0001f7c4    00              ??          00h                                     
ram:0001f7c5    00              ??          00h                                     
ram:0001f7c6    00              ??          00h                                     
ram:0001f7c7    00              ??          00h                                     
ram:0001f7c8    00              ??          00h                                     
ram:0001f7c9    00              ??          00h                                     
ram:0001f7ca    00              ??          00h                                     
ram:0001f7cb    00              ??          00h                                     
ram:0001f7cc    00              ??          00h                                     
ram:0001f7cd    00              ??          00h                                     
ram:0001f7ce    00              ??          00h                                     
ram:0001f7cf    00              ??          00h                                     
ram:0001f7d0    00              ??          00h                                     
ram:0001f7d1    00              ??          00h                                     
ram:0001f7d2    00              ??          00h                                     
ram:0001f7d3    00              ??          00h                                     
ram:0001f7d4    00              ??          00h                                     
ram:0001f7d5    00              ??          00h                                     
ram:0001f7d6    00              ??          00h                                     
ram:0001f7d7    00              ??          00h                                     
ram:0001f7d8    00              ??          00h                                     
ram:0001f7d9    00              ??          00h                                     
ram:0001f7da    00              ??          00h                                     
ram:0001f7db    00              ??          00h                                     
ram:0001f7dc    00              ??          00h                                     
ram:0001f7dd    00              ??          00h                                     
ram:0001f7de    00              ??          00h                                     
ram:0001f7df    00              ??          00h                                     
ram:0001f7e0    00              ??          00h                                     
ram:0001f7e1    00              ??          00h                                     
ram:0001f7e2    00              ??          00h                                     
ram:0001f7e3    00              ??          00h                                     
ram:0001f7e4    00              ??          00h                                     
ram:0001f7e5    00              ??          00h                                     
ram:0001f7e6    00              ??          00h                                     
ram:0001f7e7    00              ??          00h                                     
                            PTR_LAB_0001b0e8+1+1_0001f7e8:;XREF[1,0]:   0001f19e
ram:0001f7e8    e9b00100        addr        LAB_0001b0e8+1+1                        
                            PTR_LAB_0001b0c0+1+1_0001f7ec:;XREF[1,0]:   0001f19e
ram:0001f7ec    c1b00100        addr        LAB_0001b0c0+1+1                        
