                            MasterStackPointer:           
ram:00016000    302e0020        addr        DAT_20002e30                            
                            Reset:                        ;XREF[1,0]:   Entry Point
ram:00016004    39610100        addr        FUNC_Reset_00016138+1                   
                            NMI:                          ;XREF[1,0]:   Entry Point
ram:00016008    53610100        addr        FUNC_NMI_00016152+1                     
                            HardFault:                    ;XREF[1,0]:   Entry Point
ram:0001600c    55610100        addr        FUNC_HardFault_00016154+1               
                            MemManage:                    ;XREF[1,0]:   Entry Point
ram:00016010    00000000        addr        00000000                                
                            BusFault:                     ;XREF[1,0]:   Entry Point
ram:00016014    00000000        addr        00000000                                
                            UsageFault:                   ;XREF[1,0]:   Entry Point
ram:00016018    00000000        addr        00000000                                
                            Reserved1:                    ;XREF[1,0]:   Entry Point
ram:0001601c    00000000        addr        00000000                                
                            Reserved2:                    ;XREF[1,0]:   Entry Point
ram:00016020    00000000        addr        00000000                                
                            Reserved3:                    ;XREF[1,0]:   Entry Point
ram:00016024    00000000        addr        00000000                                
                            Reserved5:                    ;XREF[1,0]:   Entry Point
                            Reserved6:                    
                            Reserved4:                    
ram:00016028    00000000        addr        00000000                                
                            SVCall:                       ;XREF[1,0]:   Entry Point
ram:0001602c    57610100        addr        FUNC_SVCall_00016156+1                  
ram:00016030    00000000        addr        00000000                                
ram:00016034    00000000        addr        00000000                                
                            PendSV:                       ;XREF[1,0]:   Entry Point
ram:00016038    59610100        addr        FUNC_PendSV_00016158+1                  
                            SysTick:                      ;XREF[1,0]:   Entry Point
ram:0001603c    5b610100        addr        FUNC_SysTick_0001615a+1                 
                            IRQ:                          ;XREF[1,0]:   Entry Point
ram:00016040    5d610100        addr        FUNC_IRQ_0001615c+1                     
ram:00016044    5d610100        addr        FUNC_IRQ_0001615c+1                     
ram:00016048    81640100        addr        FUNC_VT_00016480+1                      
ram:0001604c    5d610100        addr        FUNC_IRQ_0001615c+1                     
ram:00016050    5d610100        addr        FUNC_IRQ_0001615c+1                     
ram:00016054    00000000        addr        00000000                                
ram:00016058    ad620100        addr        FUNC_VT_000162ac+1                      
ram:0001605c    5d610100        addr        FUNC_IRQ_0001615c+1                     
ram:00016060    5d610100        addr        FUNC_IRQ_0001615c+1                     
ram:00016064    5d610100        addr        FUNC_IRQ_0001615c+1                     
ram:00016068    5d610100        addr        FUNC_IRQ_0001615c+1                     
ram:0001606c    5d610100        addr        FUNC_IRQ_0001615c+1                     
ram:00016070    5d610100        addr        FUNC_IRQ_0001615c+1                     
ram:00016074    5d610100        addr        FUNC_IRQ_0001615c+1                     
ram:00016078    5d610100        addr        FUNC_IRQ_0001615c+1                     
ram:0001607c    5d610100        addr        FUNC_IRQ_0001615c+1                     
ram:00016080    5d610100        addr        FUNC_IRQ_0001615c+1                     
ram:00016084    95630100        addr        FUNC_VT_00016394+1                      
ram:00016088    5d610100        addr        FUNC_IRQ_0001615c+1                     
ram:0001608c    5d610100        addr        FUNC_IRQ_0001615c+1                     
ram:00016090    b5630100        addr        FUNC_VT_000163b4+1                      
ram:00016094    5d610100        addr        FUNC_IRQ_0001615c+1                     
ram:00016098    09640100        addr        FUNC_VT_00016408+1                      
ram:0001609c    5d610100        addr        FUNC_IRQ_0001615c+1                     
ram:000160a0    5d610100        addr        FUNC_IRQ_0001615c+1                     
ram:000160a4    5d610100        addr        FUNC_IRQ_0001615c+1                     
ram:000160a8    00000000        addr        00000000                                
ram:000160ac    00000000        addr        00000000                                
ram:000160b0    00000000        addr        00000000                                
ram:000160b4    00000000        addr        00000000                                
ram:000160b8    00000000        addr        00000000                                
ram:000160bc    00              ??          00h                                     
ram:000160bd    00              ??          00h                                     
ram:000160be    00              ??          00h                                     
ram:000160bf    00              ??          00h                                     
                            ;************************************************************************************************
                            ;*                                           FUNCTION                                           *
                            ;************************************************************************************************
                            ;undefined LAB_000160c0+1(void)
                                                          ;XREF[1,1]:   00016150,0001616c
ram:000160c0    0348            ldr         r0,[DAT_000160d0]                       ;= 20002E30h
ram:000160c2    8546            mov         sp,r0                                   
ram:000160c4    00f0e0f8        bl          FUN_00016288                            ;undefined FUN_00016288(void)
                            ;************************************************************************************************
                            ;*                                           FUNCTION                                           *
                            ;************************************************************************************************
                            ;undefined thunk_FUN_00018478(void)
                                                          ;XREF[1,0]:   000162a0
ram:000160c8    0048            ldr         r0,[DAT_000160cc]                       ;= 00018479h
ram:000160ca    0047            bx          r0=>FUN_00018478                        ;undefined FUN_00018478(void)
                            DAT_000160cc:                 ;XREF[1,0]:   000160c8
ram:000160cc    79840100        undefined4  00018479h                               ;?  ->  00018479
                            DAT_000160d0:                 ;XREF[1,0]:   000160c0
ram:000160d0    302e0020        undefined4  20002E30h                               
                            ;************************************************************************************************
                            ;*                                           FUNCTION                                           *
                            ;************************************************************************************************
                            ;undefined FUN_000160d4(undefined4 * param_1)
          ;param_1       undefined4 *        r0                      
                                                          ;XREF[1,0]:   00017912
ram:000160d4    0568            ldr         r5,[param_1,#0x0]                       
ram:000160d6    85f30888        msr         msp,r5                                  
ram:000160da    4668            ldr         r6,[param_1,#0x4]                       
ram:000160dc    0a4a            ldr         r2,[DAT_00016108]                       
ram:000160de    eff30583        mrs         r3,ipsr                                 
ram:000160e2    9a42            cmp         r2,r3                                   
ram:000160e4    3046            mov         param_1,r6                              
ram:000160e6    02d1            bne         LAB_000160ee                            
ram:000160e8    084c            ldr         r4,[DAT_0001610c]                       ;= FFFFFFFFh
ram:000160ea    a646            mov         lr,r4                                   
ram:000160ec    3047            bx          r6                                      
                            LAB_000160ee:                 ;XREF[1,0]:   000160e6
ram:000160ee    074c            ldr         r4,[DAT_0001610c]                       ;= FFFFFFFFh
ram:000160f0    064d            ldr         r5,[DAT_0001610c]                       ;= FFFFFFFFh
ram:000160f2    0646            mov         r6,param_1                              
ram:000160f4    064f            ldr         r7,[DAT_00016110]                       ;= 21000000h
ram:000160f6    f0b4            push        {r4,r5,r6,r7}                           
ram:000160f8    034c            ldr         r4,[DAT_00016108]                       
ram:000160fa    034d            ldr         r5,[DAT_00016108]                       
ram:000160fc    024e            ldr         r6,[DAT_00016108]                       
ram:000160fe    024f            ldr         r7,[DAT_00016108]                       
ram:00016100    f0b4            push        {r4,r5,r6,r7}                           
ram:00016102    0448            ldr         param_1,[DAT_00016114]                  ;= FFFFFFF9h
ram:00016104    0047            bx          param_1=>LAB_fffffff8                   
ram:00016106    0000            movs        r0,r0                                   
                            DAT_00016108:                 ;XREF[5,0]:   000160dc,000160f8,000160fa,000160fc
                                                          ;             000160fe
ram:00016108    00000000        undefined4  00000000h                               
                            DAT_0001610c:                 ;XREF[3,0]:   000160e8,000160ee,000160f0
ram:0001610c    ffffffff        undefined4  FFFFFFFFh                               
                            DAT_00016110:                 ;XREF[1,0]:   000160f4
ram:00016110    00000021        undefined4  21000000h                               
                            DAT_00016114:                 ;XREF[1,0]:   00016102
ram:00016114    f9ffffff        undefined4  FFFFFFF9h                               
                            ;************************************************************************************************
                            ;*                                           FUNCTION                                           *
                            ;************************************************************************************************
                            ;undefined FUN_00016118(int param_1)
          ;param_1       int                 r0                      
                                                          ;XREF[4,0]:   00016132,00017b44,00018d04,00018d12
ram:00016118    401e            subs        param_1,param_1,#0x1                    
ram:0001611a    00bf            nop                                                  
ram:0001611c    00bf            nop                                                  
ram:0001611e    00bf            nop                                                  
ram:00016120    00bf            nop                                                  
ram:00016122    00bf            nop                                                  
ram:00016124    00bf            nop                                                  
ram:00016126    00bf            nop                                                  
ram:00016128    00bf            nop                                                  
ram:0001612a    00bf            nop                                                  
ram:0001612c    00bf            nop                                                  
ram:0001612e    00bf            nop                                                  
ram:00016130    00bf            nop                                                  
ram:00016132    f1d1            bne         FUN_00016118                            
ram:00016134    7047            bx          lr                                      
ram:00016136    0000            movs        r0,r0                                   
                            ;************************************************************************************************
                            ;*                                           FUNCTION                                           *
                            ;************************************************************************************************
                            ;undefined FUNC_Reset_00016138(void)
                                                          ;XREF[0,1]:   00016004
ram:00016138    0321            movs        r1,#0x3                                 
ram:0001613a    0948            ldr         r0,[DAT_00016160]                       ;= 40000524h
ram:0001613c    0268            ldr         r2,[r0,#0x0]=>DAT_40000524              
ram:0001613e    0a43            orrs        r2,r1                                   
ram:00016140    0260            str         r2,[r0,#0x0]=>DAT_40000524              
ram:00016142    0848            ldr         r0,[DAT_00016164]                       ;= 40000554h
ram:00016144    0268            ldr         r2,[r0,#0x0]=>DAT_40000554              
ram:00016146    0a43            orrs        r2,r1                                   
ram:00016148    0260            str         r2,[r0,#0x0]=>DAT_40000554              
ram:0001614a    0748            ldr         r0,[PTR_FUN_0001642c+1_00016168]        ;= 0001642d
ram:0001614c    8047            blx         r0=>FUN_0001642c                        ;undefined FUN_0001642c(void)
ram:0001614e    0748            ldr         r0,[PTR_LAB_000160c0+1+1_0001616c]      ;= 000160c1
ram:00016150    0047            bx          r0=>LAB_000160c0+1                      ;undefined LAB_000160c0+1(void)
                            ;************************************************************************************************
                            ;*                                           FUNCTION                                           *
                            ;************************************************************************************************
                            ;undefined FUNC_NMI_00016152(void)
                                                          ;XREF[1,1]:   00016152,00016008
ram:00016152    fee7            b           FUNC_NMI_00016152                       
                            ;************************************************************************************************
                            ;*                                           FUNCTION                                           *
                            ;************************************************************************************************
                            ;undefined FUNC_HardFault_00016154(void)
                                                          ;XREF[1,1]:   00016154,0001600c
ram:00016154    fee7            b           FUNC_HardFault_00016154                 
                            ;************************************************************************************************
                            ;*                                           FUNCTION                                           *
                            ;************************************************************************************************
                            ;undefined FUNC_SVCall_00016156(void)
                                                          ;XREF[1,1]:   00016156,0001602c
ram:00016156    fee7            b           FUNC_SVCall_00016156                    
                            ;************************************************************************************************
                            ;*                                           FUNCTION                                           *
                            ;************************************************************************************************
                            ;undefined FUNC_PendSV_00016158(void)
                                                          ;XREF[1,1]:   00016158,00016038
ram:00016158    fee7            b           FUNC_PendSV_00016158                    
                            ;************************************************************************************************
                            ;*                                           FUNCTION                                           *
                            ;************************************************************************************************
                            ;undefined FUNC_SysTick_0001615a(void)
                                                          ;XREF[1,1]:   0001615a,0001603c
ram:0001615a    fee7            b           FUNC_SysTick_0001615a                   
                            ;************************************************************************************************
                            ;*                                           FUNCTION                                           *
                            ;************************************************************************************************
                            ;undefined FUNC_IRQ_0001615c(void)
                                                          ;XREF[1,20]:  0001615c,00016040,00016044,0001604c
                                                          ;             00016050,0001605c,00016060,00016064
                                                          ;             00016068,0001606c,00016070,00016074
                                                          ;             00016078,0001607c,00016080,00016088
                                                          ;             0001608c,00016094,0001609c,000160a0
                                                          ;             000160a4
ram:0001615c    fee7            b           FUNC_IRQ_0001615c                       
ram:0001615e    0000            movs        r0,r0                                   
                            DAT_00016160:                 ;XREF[1,0]:   0001613a
ram:00016160    24050040        undefined4  40000524h                               
                            DAT_00016164:                 ;XREF[1,0]:   00016142
ram:00016164    54050040        undefined4  40000554h                               
                            PTR_FUN_0001642c+1_00016168:  ;XREF[1,0]:   0001614a
ram:00016168    2d640100        addr        FUN_0001642c+1                          
                            PTR_LAB_000160c0+1+1_0001616c:;XREF[1,0]:   0001614e
ram:0001616c    c1600100        addr        LAB_000160c0+1+1                        
                            ;************************************************************************************************
                            ;*                                           FUNCTION                                           *
                            ;************************************************************************************************
                            ;int FUN_00016170(uint param_1, uint param_2)
          ;param_1       uint                r0                      
          ;param_2       uint                r1                      
                                                          ;XREF[15,0]:  000167a6,000179a6,00017a18,00017a46
                                                          ;             00018986,000189e2,00018a12,00018a26
                                                          ;             00018a9c,00018ad8,00018f74,00018fce
                                                          ;             0001900e,0001906c,00019080
ram:00016170    30b5            push        {r4,r5,lr}                              
ram:00016172    0b46            mov         r3,param_2                              
ram:00016174    0146            mov         param_2,param_1                         
ram:00016176    0020            movs        param_1,#0x0                            
ram:00016178    2022            movs        r2,#0x20                                
ram:0001617a    0124            movs        r4,#0x1                                 
ram:0001617c    09e0            b           LAB_00016192                            
                            LAB_0001617e:                 ;XREF[1,0]:   00016198
ram:0001617e    0d46            mov         r5,param_2                              
ram:00016180    d540            lsrs        r5,r2                                   
ram:00016182    9d42            cmp         r5,r3                                   
ram:00016184    05d3            bcc         LAB_00016192                            
ram:00016186    1d46            mov         r5,r3                                   
ram:00016188    9540            lsls        r5,r2                                   
ram:0001618a    491b            subs        param_2,param_2,r5                      
ram:0001618c    2546            mov         r5,r4                                   
ram:0001618e    9540            lsls        r5,r2                                   
ram:00016190    4019            adds        param_1,param_1,r5                      
                            LAB_00016192:                 ;XREF[2,0]:   0001617c,00016184
ram:00016192    1546            mov         r5,r2                                   
ram:00016194    521e            subs        r2,r2,#0x1                              
ram:00016196    002d            cmp         r5,#0x0                                 
ram:00016198    f1dc            bgt         LAB_0001617e                            
ram:0001619a    30bd            pop         {r4,r5,pc}                              
                            ;************************************************************************************************
                            ;*                                           FUNCTION                                           *
                            ;************************************************************************************************
                            ;longlong FUN_0001619c(uint param_1, uint param_2, uint param_3, uint param_4)
          ;param_1       uint                r0                      
          ;param_2       uint                r1                      
          ;param_3       uint                r2                      
          ;param_4       uint                r3                      
          ;local_1c      undefined4         -1c                      ;XREF[1,0]:   000161be
          ;local_20      undefined4         -20                      ;XREF[1,0]:   000161bc
          ;local_2c      undefined4         -2c                      ;XREF[4,0]:   000161aa,000161b0,000161d4,000161f0
          ;local_30      undefined4         -30                      ;XREF[4,0]:   000161ac,000161dc,000161e6,000161f2
                                                          ;XREF[1,0]:   000181e6
ram:0001619c    f0b5            push        {r4,r5,r6,r7,lr}                        
ram:0001619e    1fb4            push        {param_1,param_2,param_3,param_4,r4}    
ram:000161a0    0646            mov         r6,param_1                              
ram:000161a2    0020            movs        param_1,#0x0                            
ram:000161a4    82b0            sub         sp,#0x8                                 
ram:000161a6    0546            mov         r5,param_1                              
ram:000161a8    4024            movs        r4,#0x40                                
ram:000161aa    0191            str         param_2,[sp,#local_2c+0x30]             
ram:000161ac    0090            str         param_1,[sp,#0x0]=>local_30             
ram:000161ae    1be0            b           LAB_000161e8                            
                            LAB_000161b0:                 ;XREF[1,0]:   000161ee
ram:000161b0    0199            ldr         param_2,[sp,#local_2c+0x30]             
ram:000161b2    2246            mov         param_3,r4                              
ram:000161b4    0f46            mov         r7,param_2                              
ram:000161b6    3046            mov         param_1,r6                              
ram:000161b8    00f054f8        bl          FUN_00016264                            ;ulonglong FUN_00016264(uint param_1,...
ram:000161bc    049a            ldr         param_3,[sp,#local_20+0x30]             
ram:000161be    059b            ldr         param_4,[sp,#local_1c+0x30]             
ram:000161c0    801a            subs        param_1,param_1,param_3                 
ram:000161c2    9941            sbcs        param_2,param_4                         
ram:000161c4    10d3            bcc         LAB_000161e8                            
ram:000161c6    1046            mov         param_1,param_3                         
ram:000161c8    1946            mov         param_2,param_4                         
ram:000161ca    2246            mov         param_3,r4                              
ram:000161cc    00f03af8        bl          FUN_00016244                            ;longlong FUN_00016244(uint param_1, ...
ram:000161d0    361a            subs        r6,r6,param_1                           
ram:000161d2    8f41            sbcs        r7,param_2                              
ram:000161d4    0197            str         r7,[sp,#local_2c+0x30]                  
ram:000161d6    2246            mov         param_3,r4                              
ram:000161d8    0120            movs        param_1,#0x1                            
ram:000161da    0021            movs        param_2,#0x0                            
ram:000161dc    009f            ldr         r7,[sp,#0x0]=>local_30                  
ram:000161de    00f031f8        bl          FUN_00016244                            ;longlong FUN_00016244(uint param_1, ...
ram:000161e2    3818            adds        param_1,r7,param_1                      
ram:000161e4    4d41            adcs        r5,param_2                              
ram:000161e6    0090            str         param_1,[sp,#0x0]=>local_30             
                            LAB_000161e8:                 ;XREF[2,0]:   000161ae,000161c4
ram:000161e8    2046            mov         param_1,r4                              
ram:000161ea    641e            subs        r4,r4,#0x1                              
ram:000161ec    0028            cmp         param_1,#0x0                            
ram:000161ee    dfdc            bgt         LAB_000161b0                            
ram:000161f0    019b            ldr         param_4,[sp,#local_2c+0x30]             
ram:000161f2    0098            ldr         param_1,[sp,#0x0]=>local_30             
ram:000161f4    2946            mov         param_2,r5                              
ram:000161f6    3246            mov         param_3,r6                              
ram:000161f8    07b0            add         sp,#0x1c                                
ram:000161fa    f0bd            pop         {r4,r5,r6,r7,pc}                        
                            ;************************************************************************************************
                            ;*                                           FUNCTION                                           *
                            ;************************************************************************************************
                            ;undefined FUN_000161fc(undefined4 * param_1, undefined4 * param_2, uint param_3)
          ;param_1       undefined4 *        r0                      
          ;param_2       undefined4 *        r1                      
          ;param_3       uint                r2                      
                                                          ;XREF[13,0]:  00016666,00016c44,0001723a,00017276
                                                          ;             00017406,000175ce,000175e2,00017664
                                                          ;             00017698,000180fa,00018594,00018664
                                                          ;             00018df2
ram:000161fc    0346            mov         r3,param_1                              
ram:000161fe    0b43            orrs        r3,param_2                              
ram:00016200    9b07            lsls        r3,r3,#0x1e                             
ram:00016202    03d0            beq         LAB_0001620c                            
ram:00016204    09e0            b           LAB_0001621a                            
                            LAB_00016206:                 ;XREF[1,0]:   0001620e
ram:00016206    08c9            ldmia       param_2!,{r3}                           
ram:00016208    121f            subs        param_3,param_3,#0x4                    
ram:0001620a    08c0            stmia       param_1!,{r3}                           
                            LAB_0001620c:                 ;XREF[1,0]:   00016202
ram:0001620c    042a            cmp         param_3,#0x4                            
ram:0001620e    fad2            bcs         LAB_00016206                            
ram:00016210    03e0            b           LAB_0001621a                            
                            LAB_00016212:                 ;XREF[1,0]:   0001621c
ram:00016212    0b78            ldrb        r3,[param_2,#0x0]                       
ram:00016214    0370            strb        r3,[param_1,#0x0]                       
ram:00016216    401c            adds        param_1,param_1,#0x1                    
ram:00016218    491c            adds        param_2,param_2,#0x1                    
                            LAB_0001621a:                 ;XREF[2,0]:   00016204,00016210
ram:0001621a    521e            subs        param_3,param_3,#0x1                    
ram:0001621c    f9d2            bcs         LAB_00016212                            
ram:0001621e    7047            bx          lr                                      
                            ;************************************************************************************************
                            ;*                                           FUNCTION                                           *
                            ;************************************************************************************************
                            ;undefined FUN_00016220(undefined * param_1, int param_2, undefined param_3)
          ;param_1       undefined *         r0                      
          ;param_2       int                 r1                      
          ;param_3       undefined           r2                      
                                                          ;XREF[2,0]:   00016230,0001623c
ram:00016220    d2b2            uxtb        param_3,param_3                         
ram:00016222    01e0            b           LAB_00016228                            
                            LAB_00016224:                 ;XREF[1,0]:   0001622a
ram:00016224    0270            strb        param_3,[param_1,#0x0]                  
ram:00016226    401c            adds        param_1,param_1,#0x1                    
                            LAB_00016228:                 ;XREF[1,0]:   00016222
ram:00016228    491e            subs        param_2,param_2,#0x1                    
ram:0001622a    fbd2            bcs         LAB_00016224                            
ram:0001622c    7047            bx          lr                                      
                            ;************************************************************************************************
                            ;*                                           FUNCTION                                           *
                            ;************************************************************************************************
                            ;undefined FUN_0001622e(undefined * param_1, int param_2)
          ;param_1       undefined *         r0                      
          ;param_2       int                 r1                      
                                                          ;XREF[26,0]:  00016764,0001678e,000167cc,000167e2
                                                          ;             000167fe,000169b8,00016ea8,00016f0a
                                                          ;             00016f54,00016fa6,00016fe4,00017046
                                                          ;             00017090,000170e2,00017120,00017172
                                                          ;             000171b0,00017202,00017358,00017d36
                                                          ;             00017d8a,00017dbe,00017e0e,00017e84
                                                          ;             00017edc,000180ee
ram:0001622e    0022            movs        r2,#0x0                                 
ram:00016230    f6e7            b           FUN_00016220                            ;undefined FUN_00016220(undefined * p...
                            ;************************************************************************************************
                            ;*                                           FUNCTION                                           *
                            ;************************************************************************************************
                            ;undefined * FUN_00016232(undefined * param_1, undefined param_2, int param_3)
          ;param_1       undefined *         r0                      
          ;param_2       undefined           r1                      
          ;param_3       int                 r2                      
ram:00016232    10b5            push        {r4,lr}                                 
ram:00016234    1346            mov         r3,param_3                              
ram:00016236    0a46            mov         param_3,param_2                         
ram:00016238    0446            mov         r4,param_1                              
ram:0001623a    1946            mov         param_2,r3                              
ram:0001623c    fff7f0ff        bl          FUN_00016220                            ;undefined FUN_00016220(undefined * p...
ram:00016240    2046            mov         param_1,r4                              
ram:00016242    10bd            pop         {r4,pc}                                 
                            ;************************************************************************************************
                            ;*                                           FUNCTION                                           *
                            ;************************************************************************************************
                            ;longlong FUN_00016244(uint param_1, int param_2, uint param_3)
          ;param_1       uint                r0                      
          ;param_2       int                 r1                      
          ;param_3       uint                r2                      
                                                          ;XREF[2,0]:   000161cc,000161de
ram:00016244    10b5            push        {r4,lr}                                 
ram:00016246    202a            cmp         param_3,#0x20                           
ram:00016248    04db            blt         LAB_00016254                            
ram:0001624a    0146            mov         param_2,param_1                         
ram:0001624c    203a            subs        param_3,#0x20                           
ram:0001624e    9140            lsls        param_2,param_3                         
ram:00016250    0020            movs        param_1,#0x0                            
ram:00016252    10bd            pop         {r4,pc}                                 
                            LAB_00016254:                 ;XREF[1,0]:   00016248
ram:00016254    9140            lsls        param_2,param_3                         
ram:00016256    2023            movs        r3,#0x20                                
ram:00016258    9c1a            subs        r4,r3,param_3                           
ram:0001625a    0346            mov         r3,param_1                              
ram:0001625c    e340            lsrs        r3,r4                                   
ram:0001625e    1943            orrs        param_2,r3                              
ram:00016260    9040            lsls        param_1,param_3                         
ram:00016262    10bd            pop         {r4,pc}                                 
                            ;************************************************************************************************
                            ;*                                           FUNCTION                                           *
                            ;************************************************************************************************
                            ;ulonglong FUN_00016264(uint param_1, uint param_2, uint param_3)
          ;param_1       uint                r0                      
          ;param_2       uint                r1                      
          ;param_3       uint                r2                      
                                                          ;XREF[1,0]:   000161b8
ram:00016264    10b5            push        {r4,lr}                                 
ram:00016266    202a            cmp         param_3,#0x20                           
ram:00016268    04db            blt         LAB_00016274                            
ram:0001626a    0846            mov         param_1,param_2                         
ram:0001626c    203a            subs        param_3,#0x20                           
ram:0001626e    d040            lsrs        param_1,param_3                         
ram:00016270    0021            movs        param_2,#0x0                            
ram:00016272    10bd            pop         {r4,pc}                                 
                            LAB_00016274:                 ;XREF[1,0]:   00016268
ram:00016274    0b46            mov         r3,param_2                              
ram:00016276    d340            lsrs        r3,param_3                              
ram:00016278    d040            lsrs        param_1,param_3                         
ram:0001627a    2024            movs        r4,#0x20                                
ram:0001627c    a21a            subs        param_3,r4,param_3                      
ram:0001627e    9140            lsls        param_2,param_3                         
ram:00016280    0843            orrs        param_1,param_2                         
ram:00016282    1946            mov         param_2,r3                              
ram:00016284    10bd            pop         {r4,pc}                                 
ram:00016286    0000            movs        r0,r0                                   
                            ;************************************************************************************************
                            ;*                                           FUNCTION                                           *
                            ;************************************************************************************************
                            ;undefined FUN_00016288(void)
          ;local_18      undefined4         -18                      
                                                          ;XREF[1,0]:   000160c4
ram:00016288    064c            ldr         r4,[FUN_000162a4]                       
ram:0001628a    0125            movs        r5,#0x1                                 
ram:0001628c    064e            ldr         r6,[LAB_000162a8]                       
ram:0001628e    05e0            b           LAB_0001629c                            
                            LAB_00016290:                 ;XREF[1,0]:   0001629e
ram:00016290    e368            ldr         r3,[r4,#offset ->thunk_FUN_00016522 &...;= 0001651a
                                                          ; FWD[5,0]:   00019400,00019404,00019408,00019420
                                                          ;             20002000
ram:00016292    07cc            ldmia       r4!,{r0,r1,r2}=>PTR_DAT_00019400        ;= 00019420
                                                                                    ;= 20002000h
                                                                                    ;= 000000DCh
ram:00016294    2b43            orrs        r3,r5                                   
ram:00016296    0c3c            subs        r4,#0xc                                 
ram:00016298    9847            blx         r3=>thunk_FUN_00016522                  ;undefined thunk_FUN_00016522(undefin...
ram:0001629a    1034            adds        r4,#0x10                                
                            LAB_0001629c:                 ;XREF[1,0]:   0001628e
ram:0001629c    b442            cmp         r4,r6                                   
ram:0001629e    f7d3            bcc         LAB_00016290                            
ram:000162a0    fff712ff        bl          thunk_FUN_00018478                      ;undefined thunk_FUN_00018478(void)
                            ;************************************************************************************************
                            ;*                                           FUNCTION                                           *
                            ;************************************************************************************************
                            ;undefined FUN_000162a4(undefined param_1, undefined param_2, undefined param_3, undefined param_4, undefined4 param_5, undefined param_6, undefined param_7, undefined param_8, undefined param_9, undefined param_10, undefined4 param_11)
          ;param_1       undefined           r0                      
          ;param_2       undefined           r1                      
          ;param_3       undefined           r2                      
          ;param_4       undefined           r3                      
          ;param_5       undefined4           0                      ;XREF[1,0]:   000162a4
          ;param_6       undefined            4                      
          ;param_7       undefined            8                      
          ;param_8       undefined            c                      
          ;param_9       undefined           10                      
          ;param_10      undefined           14                      
          ;param_11      undefined4          80                      ;XREF[1,0]:   000162a8
                                                          ;XREF[2,0]:   00016288,0001632a
ram:000162a4    0094            str         r4=>PTR_DAT_00019400,[sp,#0x0]=>param_5 ;= 00019420
ram:000162a6    0100            movs        param_2,param_1                         
                            LAB_000162a8:                 ;XREF[1,0]:   0001628c
ram:000162a8    2094            str         r4=>PTR_DAT_00019400,[sp,#param_11]     ;= 00019420
ram:000162aa    0100            movs        param_2,param_1                         
                            ;************************************************************************************************
                            ;*                                           FUNCTION                                           *
                            ;************************************************************************************************
                            ;undefined FUNC_VT_000162ac(void)
          ;local_18      undefined4         -18                      ;XREF[2,0]:   000162f8,00016300
                                                          ;XREF[0,1]:   00016058
                                                          ; FWD[2,0]:   00019400,00019420
ram:000162ac    f8b5            push        {r3,r4,r5,r6,r7,lr}=>DAT_00019420       ;= 00019420
ram:000162ae    1f48            ldr         r0,[DAT_0001632c]                       ;= 50000500h
ram:000162b0    0569            ldr         r5,[r0,#offset DAT_50000510 &0xff]      
ram:000162b2    1f49            ldr         r1,[DAT_00016330]                       ;= 40006140h
ram:000162b4    0020            movs        r0,#0x0                                 
ram:000162b6    c863            str         r0,[r1,#0x3c]=>DAT_4000617c             
ram:000162b8    0746            mov         r7,r0                                   
ram:000162ba    32e0            b           LAB_00016322                            
                            LAB_000162bc:                 ;XREF[1,0]:   00016328
ram:000162bc    1421            movs        r1,#0x14                                
ram:000162be    3a46            mov         r2,r7                                   
ram:000162c0    4a43            muls        r2,r1                                   
ram:000162c2    4168            ldr         r1,[r0,#0x4]=>DAT_20002084              
ram:000162c4    8068            ldr         r0,[r0,#0x8]=>DAT_20002088              
ram:000162c6    5418            adds        r4,r2,r1                                
ram:000162c8    0121            movs        r1,#0x1                                 
ram:000162ca    b940            lsls        r1,r7                                   
ram:000162cc    0142            tst         r1,r0                                   
ram:000162ce    26d0            beq         LAB_0001631e                            
ram:000162d0    e068            ldr         r0,[r4,#0xc]                            
ram:000162d2    c643            mvns        r6,r0                                   
ram:000162d4    2068            ldr         r0,[r4,#0x0]                            
ram:000162d6    6e40            eors        r6,r5                                   
ram:000162d8    0640            ands        r6,r0                                   
ram:000162da    3146            mov         r1,r6                                   
ram:000162dc    2046            mov         r0,r4                                   
ram:000162de    02f039fd        bl          FUN_00018d54                            ;undefined FUN_00018d54(int param_1, ...
ram:000162e2    1248            ldr         r0,[DAT_0001632c]                       ;= 50000500h
ram:000162e4    0069            ldr         r0,[r0,#offset DAT_50000510 &0xff]      
ram:000162e6    6840            eors        r0,r5                                   
ram:000162e8    0cd0            beq         LAB_00016304                            
ram:000162ea    0543            orrs        r5,r0                                   
ram:000162ec    e068            ldr         r0,[r4,#0xc]                            
ram:000162ee    2168            ldr         r1,[r4,#0x0]                            
ram:000162f0    c043            mvns        r0,r0                                   
ram:000162f2    6840            eors        r0,r5                                   
ram:000162f4    0840            ands        r0,r1                                   
ram:000162f6    0146            mov         r1,r0                                   
ram:000162f8    0090            str         r0,[sp,#0x0]=>local_18                  
ram:000162fa    2046            mov         r0,r4                                   
ram:000162fc    02f02afd        bl          FUN_00018d54                            ;undefined FUN_00018d54(int param_1, ...
ram:00016300    0098            ldr         r0,[sp,#0x0]=>local_18                  
ram:00016302    0643            orrs        r6,r0                                   
                            LAB_00016304:                 ;XREF[1,0]:   000162e8
ram:00016304    3046            mov         r0,r6                                   
ram:00016306    a168            ldr         r1,[r4,#0x8]                            
ram:00016308    a843            bics        r0,r5                                   
ram:0001630a    0140            ands        r1,r0                                   
ram:0001630c    2a46            mov         r2,r5                                   
ram:0001630e    6068            ldr         r0,[r4,#0x4]                            
ram:00016310    3240            ands        r2,r6                                   
ram:00016312    1040            ands        r0,r2                                   
ram:00016314    0246            mov         r2,r0                                   
ram:00016316    0a43            orrs        r2,r1                                   
ram:00016318    01d0            beq         LAB_0001631e                            
ram:0001631a    2269            ldr         r2,[r4,#0x10]                           
ram:0001631c    9047            blx         r2                                      
                            LAB_0001631e:                 ;XREF[2,0]:   000162ce,00016318
ram:0001631e    7f1c            adds        r7,r7,#0x1                              
ram:00016320    ffb2            uxtb        r7,r7                                   
                            LAB_00016322:                 ;XREF[1,0]:   000162ba
ram:00016322    0448            ldr         r0=>DAT_20002080,[DAT_00016334]         ;= 20002080h
ram:00016324    4178            ldrb        r1,[r0,#0x1]=>DAT_20002081              
ram:00016326    8f42            cmp         r7,r1                                   
ram:00016328    c8d3            bcc         LAB_000162bc                            
ram:0001632a    f8bd            pop         {r3,r4,r5,r6,r7,pc}=>FUN_000162a4       
                            DAT_0001632c:                 ;XREF[2,0]:   000162ae,000162e2
ram:0001632c    00050050        undefined4  50000500h                               
                            DAT_00016330:                 ;XREF[1,0]:   000162b2
ram:00016330    40610040        undefined4  40006140h                               
                            DAT_00016334:                 ;XREF[1,0]:   00016322
ram:00016334    80200020        undefined4  20002080h                               
                            ;************************************************************************************************
                            ;*                                           FUNCTION                                           *
                            ;************************************************************************************************
                            ;undefined FUN_00016338(uint param_1, int param_2)
          ;param_1       uint                r0                      
          ;param_2       int                 r1                      
                                                          ;XREF[2,0]:   00016d92,00016da4
ram:00016338    8307            lsls        r3,param_1,#0x1e                        
ram:0001633a    ff22            movs        r2,#0xff                                
ram:0001633c    db0e            lsrs        r3,r3,#0x1b                             
ram:0001633e    9a40            lsls        r2,r3                                   
ram:00016340    8907            lsls        param_2,param_2,#0x1e                   
ram:00016342    090e            lsrs        param_2,param_2,#0x18                   
ram:00016344    9940            lsls        param_2,r3                              
ram:00016346    0028            cmp         param_1,#0x0                            
ram:00016348    0bda            bge         LAB_00016362                            
ram:0001634a    0007            lsls        param_1,param_1,#0x1c                   
ram:0001634c    000f            lsrs        param_1,param_1,#0x1c                   
ram:0001634e    0838            subs        param_1,#0x8                            
ram:00016350    8308            lsrs        r3,param_1,#0x2                         
ram:00016352    0848            ldr         param_1,[DAT_00016374]                  ;= E000ED00h
ram:00016354    9b00            lsls        r3,r3,#0x2                              
ram:00016356    1818            adds        param_1,r3,param_1                      
ram:00016358    c369            ldr         r3,[param_1,#0x1c]                      
ram:0001635a    9343            bics        r3,r2                                   
ram:0001635c    0b43            orrs        r3,param_2                              
ram:0001635e    c361            str         r3,[param_1,#0x1c]                      
ram:00016360    7047            bx          lr                                      
                            LAB_00016362:                 ;XREF[1,0]:   00016348
ram:00016362    8308            lsrs        r3,param_1,#0x2                         
ram:00016364    0448            ldr         param_1,[DAT_00016378]                  ;= E000E400h
ram:00016366    9b00            lsls        r3,r3,#0x2                              
ram:00016368    1b18            adds        r3,r3,param_1                           
ram:0001636a    1868            ldr         param_1,[r3,#0x0]                       
ram:0001636c    9043            bics        param_1,r2                              
ram:0001636e    0843            orrs        param_1,param_2                         
ram:00016370    1860            str         param_1,[r3,#0x0]                       
ram:00016372    7047            bx          lr                                      
                            DAT_00016374:                 ;XREF[1,0]:   00016352
ram:00016374    00ed00e0        undefined4  E000ED00h                               
                            DAT_00016378:                 ;XREF[1,0]:   00016364
ram:00016378    00e400e0        undefined4  E000E400h                               
                            ;************************************************************************************************
                            ;*                                           FUNCTION                                           *
                            ;************************************************************************************************
                            ;undefined FUN_0001637c(void)
                                                          ;XREF[2,0]:   00016948,000172ee
ram:0001637c    bff34f8f        dsb         0xf                                     
ram:00016380    0349            ldr         r1,[DAT_00016390]                       ;= E000ED00h
ram:00016382    0248            ldr         r0,[DAT_0001638c]                       ;= 05FA0004h
ram:00016384    c860            str         r0,[r1,#offset DAT_e000ed0c &0xff]      
ram:00016386    bff34f8f        dsb         0xf                                     
                            LAB_0001638a:                 ;XREF[1,0]:   0001638a
ram:0001638a    fee7            b           LAB_0001638a                            
                            DAT_0001638c:                 ;XREF[1,0]:   00016382
ram:0001638c    0400fa05        undefined4  05FA0004h                               
                            DAT_00016390:                 ;XREF[1,0]:   00016380
ram:00016390    00ed00e0        undefined4  E000ED00h                               
                            ;************************************************************************************************
                            ;*                                           FUNCTION                                           *
                            ;************************************************************************************************
                            ;undefined FUNC_VT_00016394(void)
                                                          ;XREF[0,1]:   00016084
ram:00016394    10b5            push        {r4,lr}                                 
ram:00016396    0649            ldr         r1,[DAT_000163b0]                       ;= 40011140h
ram:00016398    0020            movs        r0,#0x0                                 
ram:0001639a    0860            str         r0,[r1,#0x0]=>DAT_40011140              
ram:0001639c    4860            str         r0,[r1,#0x4]=>DAT_40011144              
ram:0001639e    8860            str         r0,[r1,#0x8]=>DAT_40011148              
ram:000163a0    c860            str         r0,[r1,#0xc]=>DAT_4001114c              
ram:000163a2    0349            ldr         r1,[DAT_000163b0]                       ;= 40011140h
ram:000163a4    4039            subs        r1=>DAT_40011100,#0x40                  
ram:000163a6    0860            str         r0,[r1,#0x0]=>DAT_40011100              
ram:000163a8    4860            str         r0,[r1,#offset DAT_40011104 &0xff]      
ram:000163aa    02f0fffe        bl          FUN_000191ac                            ;undefined FUN_000191ac(void)
ram:000163ae    10bd            pop         {r4,pc}                                 
                            DAT_000163b0:                 ;XREF[2,0]:   00016396,000163a2
ram:000163b0    40110140        undefined4  40011140h                               
                            ;************************************************************************************************
                            ;*                                           FUNCTION                                           *
                            ;************************************************************************************************
                            ;undefined FUNC_VT_000163b4(undefined4 param_1, uint param_2)
          ;param_1       undefined4          r0                      
          ;param_2       uint                r1                      
          ;local_18      undefined4         -18                      ;XREF[3,0]:   000163bc,000163e0,000163e8
          ;local_1c      undefined4         -1c                      ;XREF[2,0]:   000163c0,000163d8
          ;local_20      undefined4         -20                      ;XREF[1,0]:   000163da
                                                          ;XREF[0,1]:   00016090
ram:000163b4    feb5            push        {param_2,r2,r3,r4,r5,r6,r7,lr}          
ram:000163b6    0020            movs        param_1,#0x0                            
ram:000163b8    c043            mvns        param_1,param_1                         
ram:000163ba    124d            ldr         r5,[DAT_00016404]                       ;= 2000209Ch
ram:000163bc    0290            str         param_1,[sp,#local_18+0x20]             
ram:000163be    6869            ldr         param_1,[r5,#0x14]=>DAT_200020b0        
ram:000163c0    0190            str         param_1,[sp,#local_1c+0x20]             
ram:000163c2    6846            mov         param_1,sp                              
ram:000163c4    2e69            ldr         r6,[r5,#0x10]=>DAT_200020ac             
ram:000163c6    01f09ffd        bl          FUN_00017f08                            ;undefined4 FUN_00017f08(int * param_1)
ram:000163ca    0746            mov         r7,param_1                              
ram:000163cc    01f092ff        bl          FUN_000182f4                            ;undefined4 FUN_000182f4(void)
ram:000163d0    0446            mov         r4,param_1                              
ram:000163d2    002f            cmp         r7,#0x0                                 
ram:000163d4    08d0            beq         LAB_000163e8                            
ram:000163d6    02aa            add         r2,sp,#0x8                              
ram:000163d8    0199            ldr         param_2,[sp,#local_1c+0x20]             
ram:000163da    0098            ldr         param_1,[sp,#0x0]=>local_20             
ram:000163dc    01f0b4fd        bl          FUN_00017f48                            ;undefined FUN_00017f48(uint param_1,...
ram:000163e0    0298            ldr         param_1,[sp,#local_18+0x20]             
ram:000163e2    01f0d1ff        bl          FUN_00018388                            ;undefined4 FUN_00018388(int param_1)
ram:000163e6    06e0            b           LAB_000163f6                            
                            LAB_000163e8:                 ;XREF[1,0]:   000163d4
ram:000163e8    0298            ldr         param_1,[sp,#local_18+0x20]             
ram:000163ea    01f0cdff        bl          FUN_00018388                            ;undefined4 FUN_00018388(int param_1)
ram:000163ee    0028            cmp         param_1,#0x0                            
ram:000163f0    01d1            bne         LAB_000163f6                            
ram:000163f2    002c            cmp         r4,#0x0                                 
ram:000163f4    02d0            beq         LAB_000163fc                            
                            LAB_000163f6:                 ;XREF[2,0]:   000163e6,000163f0
ram:000163f6    3046            mov         param_1,r6                              
ram:000163f8    01f080fb        bl          FUN_00017afc                            ;undefined FUN_00017afc(void)
                            LAB_000163fc:                 ;XREF[1,0]:   000163f4
ram:000163fc    0020            movs        param_1,#0x0                            
ram:000163fe    6871            strb        param_1,[r5,#0x5]=>DAT_200020a1         
ram:00016400    febd            pop         {param_2,r2,r3,r4,r5,r6,r7,pc}          
ram:00016402    0000            movs        r0,r0                                   
                            DAT_00016404:                 ;XREF[1,0]:   000163ba
ram:00016404    9c200020        undefined4  2000209Ch                               
                            ;************************************************************************************************
                            ;*                                           FUNCTION                                           *
                            ;************************************************************************************************
                            ;undefined FUNC_VT_00016408(void)
                                                          ;XREF[0,1]:   00016098
ram:00016408    10b5            push        {r4,lr}                                 
ram:0001640a    0748            ldr         r0,[DAT_00016428]                       ;= 200020C0h
ram:0001640c    4068            ldr         r0,[r0,#0x4]=>DAT_200020c4              
ram:0001640e    0028            cmp         r0,#0x0                                 
ram:00016410    07d0            beq         LAB_00016422                            
ram:00016412    8047            blx         r0                                      
ram:00016414    0028            cmp         r0,#0x0                                 
ram:00016416    03d0            beq         LAB_00016420                            
ram:00016418    0022            movs        r2,#0x0                                 
ram:0001641a    1146            mov         r1,r2                                   
ram:0001641c    00f090fa        bl          FUN_00016940                            ;undefined FUN_00016940(void)
                            LAB_00016420:                 ;XREF[1,0]:   00016416
ram:00016420    10bd            pop         {r4,pc}                                 
                            LAB_00016422:                 ;XREF[1,0]:   00016410
ram:00016422    01f0d3fd        bl          FUN_00017fcc                            ;undefined FUN_00017fcc(void)
ram:00016426    10bd            pop         {r4,pc}                                 
                            DAT_00016428:                 ;XREF[1,0]:   0001640a
ram:00016428    c0200020        undefined4  200020C0h                               
                            ;************************************************************************************************
                            ;*                                           FUNCTION                                           *
                            ;************************************************************************************************
                            ;undefined FUN_0001642c(void)
                                                          ;XREF[1,1]:   0001614c,00016168
ram:0001642c    10b5            push        {r4,lr}                                 
ram:0001642e    01f01bfe        bl          FUN_00018068                            ;undefined4 FUN_00018068(void)
ram:00016432    0028            cmp         r0,#0x0                                 
ram:00016434    05d0            beq         LAB_00016442                            
ram:00016436    0e49            ldr         r1,[DAT_00016470]                       ;= 40000500h
ram:00016438    0c48            ldr         r0,[DAT_0001646c]                       ;= C007FFDFh
ram:0001643a    4860            str         r0,[r1,#offset DAT_40000504 &0xff]      
ram:0001643c    c813            asrs        r0,r1,#0xf                              
ram:0001643e    0d49            ldr         r1,[DAT_00016474]                       ;= 40006C00h
ram:00016440    8861            str         r0,[r1,#offset DAT_40006c18 &0xff]      
                            LAB_00016442:                 ;XREF[1,0]:   00016434
ram:00016442    0d48            ldr         r0,[DAT_00016478]                       ;= F0000FC0h
ram:00016444    018c            ldrh        r1,[r0,#0x20]=>DAT_f0000fe0             
ram:00016446    c9b2            uxtb        r1,r1                                   
ram:00016448    0129            cmp         r1,#0x1                                 
ram:0001644a    0ed1            bne         LAB_0001646a                            
ram:0001644c    818c            ldrh        r1,[r0,#0x24]=>DAT_f0000fe4             
ram:0001644e    0907            lsls        r1,r1,#0x1c                             
ram:00016450    0bd1            bne         LAB_0001646a                            
ram:00016452    018d            ldrh        r1,[r0,#0x28]=>DAT_f0000fe8             
ram:00016454    0906            lsls        r1,r1,#0x18                             
ram:00016456    090f            lsrs        r1,r1,#0x1c                             
ram:00016458    0429            cmp         r1,#0x4                                 
ram:0001645a    06d1            bne         LAB_0001646a                            
ram:0001645c    808d            ldrh        r0,[r0,#0x2c]=>DAT_f0000fec             
ram:0001645e    0006            lsls        r0,r0,#0x18                             
ram:00016460    000f            lsrs        r0,r0,#0x1c                             
ram:00016462    02d1            bne         LAB_0001646a                            
ram:00016464    0549            ldr         r1,[DAT_0001647c]                       ;= 40000600h
ram:00016466    0120            movs        r0,#0x1                                 
ram:00016468    8860            str         r0,[r1,#offset DAT_40000608 &0xff]      
                            LAB_0001646a:                 ;XREF[4,0]:   0001644a,00016450,0001645a,00016462
ram:0001646a    10bd            pop         {r4,pc}                                 
                            DAT_0001646c:                 ;XREF[1,0]:   00016438
ram:0001646c    dfff07c0        undefined4  C007FFDFh                               
                            DAT_00016470:                 ;XREF[1,0]:   00016436
ram:00016470    00050040        undefined4  40000500h                               
                            DAT_00016474:                 ;XREF[1,0]:   0001643e
ram:00016474    006c0040        undefined4  40006C00h                               
                            DAT_00016478:                 ;XREF[1,0]:   00016442
ram:00016478    c00f00f0        undefined4  F0000FC0h                               
                            DAT_0001647c:                 ;XREF[1,0]:   00016464
ram:0001647c    00060040        undefined4  40000600h                               
                            ;************************************************************************************************
                            ;*                                           FUNCTION                                           *
                            ;************************************************************************************************
                            ;undefined FUNC_VT_00016480(undefined4 param_1, undefined4 param_2, int param_3, int param_4)
          ;param_1       undefined4          r0                      
          ;param_2       undefined4          r1                      
          ;param_3       int                 r2                      
          ;param_4       int                 r3                      
          ;local_14      undefined4         -14                      ;XREF[2,0]:   000164a6,000164e4
          ;local_18      undefined1         -18                      ;XREF[3,0]:   000164a4,000164ba,000164e2
                                                          ;XREF[0,1]:   00016048
ram:00016480    7cb5            push        {param_3,param_4,r4,r5,r6,lr}           
ram:00016482    1b4c            ldr         r4,[DAT_000164f0]                       ;= 40002100h
ram:00016484    a068            ldr         param_1,[r4,#offset DAT_40002108 &0xff] 
ram:00016486    1b4e            ldr         r6,[DAT_000164f4]                       ;= 20002048h
ram:00016488    0025            movs        r5,#0x0                                 
ram:0001648a    0028            cmp         param_1,#0x0                            
ram:0001648c    18d0            beq         LAB_000164c0                            
ram:0001648e    a560            str         r5,[r4,#offset DAT_40002108 &0xff]      
ram:00016490    1948            ldr         param_1,[DAT_000164f8]                  ;= 40002500h
ram:00016492    8069            ldr         param_1,[param_1,#offset DAT_40002518...
ram:00016494    c1b2            uxtb        param_2,param_1                         
ram:00016496    1948            ldr         param_1,[DAT_000164fc]                  ;= 20002530h
ram:00016498    00f06bfa        bl          FUN_00016972                            ;undefined4 FUN_00016972(int * param_...
ram:0001649c    0028            cmp         param_1,#0x0                            
ram:0001649e    05d0            beq         LAB_000164ac                            
ram:000164a0    0121            movs        param_2,#0x1                            
ram:000164a2    6a46            mov         param_3,sp                              
ram:000164a4    1170            strb        param_2,[param_3,#0x0]=>local_18        
ram:000164a6    0190            str         param_1,[sp,#local_14+0x18]             
ram:000164a8    6846            mov         param_1,sp                              
ram:000164aa    07e0            b           LAB_000164bc                            
                            LAB_000164ac:                 ;XREF[1,0]:   0001649e
ram:000164ac    1348            ldr         param_1,[DAT_000164fc]                  ;= 20002530h
ram:000164ae    c168            ldr         param_2,[param_1,#0xc]=>DAT_2000253c    
ram:000164b0    8068            ldr         param_1,[param_1,#0x8]=>DAT_20002538    
ram:000164b2    081a            subs        param_1,param_2,param_1                 
ram:000164b4    0128            cmp         param_1,#0x1                            
ram:000164b6    03d1            bne         LAB_000164c0                            
ram:000164b8    6846            mov         param_1,sp                              
ram:000164ba    0570            strb        r5,[param_1,#0x0]=>local_18             
                            LAB_000164bc:                 ;XREF[1,0]:   000164aa
ram:000164bc    b168            ldr         param_2,[r6,#0x8]=>DAT_20002050         
ram:000164be    8847            blx         param_2                                 
                            LAB_000164c0:                 ;XREF[2,0]:   0001648c,000164b6
ram:000164c0    e069            ldr         param_1,[r4,#offset DAT_4000211c &0xff] 
ram:000164c2    0028            cmp         param_1,#0x0                            
ram:000164c4    03d0            beq         LAB_000164ce                            
ram:000164c6    e561            str         r5,[r4,#offset DAT_4000211c &0xff]      
ram:000164c8    0320            movs        param_1,#0x3                            
ram:000164ca    02f06df9        bl          FUN_000187a8                            ;undefined FUN_000187a8(uint param_1)
                            LAB_000164ce:                 ;XREF[1,0]:   000164c4
ram:000164ce    606a            ldr         param_1,[r4,#offset DAT_40002124 &0xff] 
ram:000164d0    0028            cmp         param_1,#0x0                            
ram:000164d2    0bd0            beq         LAB_000164ec                            
ram:000164d4    6562            str         r5,[r4,#offset DAT_40002124 &0xff]      
ram:000164d6    0849            ldr         param_2,[DAT_000164f8]                  ;= 40002500h
ram:000164d8    8039            subs        param_2,#0x80                           
ram:000164da    0868            ldr         param_1,[param_2,#0x0]=>DAT_40002480    
ram:000164dc    0860            str         param_1,[param_2,#0x0]=>DAT_40002480    
ram:000164de    0221            movs        param_2,#0x2                            
ram:000164e0    6a46            mov         param_3,sp                              
ram:000164e2    1170            strb        param_2,[param_3,#0x0]=>local_18        
ram:000164e4    0190            str         param_1,[sp,#local_14+0x18]             
ram:000164e6    b168            ldr         param_2,[r6,#0x8]=>DAT_20002050         
ram:000164e8    6846            mov         param_1,sp                              
ram:000164ea    8847            blx         param_2                                 
                            LAB_000164ec:                 ;XREF[1,0]:   000164d2
ram:000164ec    7cbd            pop         {param_3,param_4,r4,r5,r6,pc}           
ram:000164ee    0000            movs        r0,r0                                   
                            DAT_000164f0:                 ;XREF[1,0]:   00016482
ram:000164f0    00210040        undefined4  40002100h                               
                            DAT_000164f4:                 ;XREF[1,0]:   00016486
ram:000164f4    48200020        undefined4  20002048h                               
                            DAT_000164f8:                 ;XREF[2,0]:   00016490,000164d6
ram:000164f8    00250040        undefined4  40002500h                               
                            DAT_000164fc:                 ;XREF[2,0]:   00016496,000164ac
ram:000164fc    30250020        undefined4  20002530h                               
                            ;************************************************************************************************
                            ;*                                           FUNCTION                                           *
                            ;************************************************************************************************
                            ;undefined __ARM_common_switch8(void)
                                                          ;XREF[4,0]:   00017412,00018718,000187b0,00018f54
ram:00016500    30b4            push        {r4,r5}                                 
ram:00016502    7446            mov         r4,lr                                   
ram:00016504    641e            subs        r4,r4,#0x1                              
ram:00016506    2578            ldrb        r5,[r4,#0x0]                            
ram:00016508    641c            adds        r4,r4,#0x1                              
ram:0001650a    ab42            cmp         r3,r5                                   
ram:0001650c    00d2            bcs         FUN_00016510                            
ram:0001650e    1d46            mov         r5,r3                                   
                            ;************************************************************************************************
                            ;*                                           FUNCTION                                           *
                            ;************************************************************************************************
                            ;undefined FUN_00016510(void)
                                                          ;XREF[1,0]:   0001650c
ram:00016510    635d            ldrb        r3,[r4,r5]                              
ram:00016512    5b00            lsls        r3,r3,#0x1                              
ram:00016514    e318            adds        r3,r4,r3                                
ram:00016516    30bc            pop         {r4,r5}                                 
ram:00016518    1847            bx          r3                                      
                            ;************************************************************************************************
                            ;*                                           FUNCTION                                           *
                            ;************************************************************************************************
                            ;undefined thunk_FUN_00016522(undefined4 * param_1, undefined4 * param_2, int param_3)
          ;param_1       undefined4 *        r0                      
          ;param_2       undefined4 *        r1                      
          ;param_3       int                 r2                      
                                                          ;XREF[2,0]:   00016298,0001940c
ram:0001651a    02e0            b           FUN_00016522                            
                            LAB_0001651c:                 ;XREF[1,0]:   00016524
ram:0001651c    08c8            ldmia       param_1!,{r3}                           
ram:0001651e    121f            subs        param_3,param_3,#0x4                    
ram:00016520    08c1            stmia       param_2!,{r3}                           
                            ;************************************************************************************************
                            ;*                                           FUNCTION                                           *
                            ;************************************************************************************************
                            ;undefined FUN_00016522(undefined4 * param_1, undefined4 * param_2, int param_3)
          ;param_1       undefined4 *        r0                      
          ;param_2       undefined4 *        r1                      
          ;param_3       int                 r2                      
                                                          ;XREF[1,0]:   0001651a
ram:00016522    002a            cmp         param_3,#0x0                            
ram:00016524    fad1            bne         LAB_0001651c                            
ram:00016526    7047            bx          lr                                      
ram:00016528    7047            bx          lr                                      
ram:0001652a    0020            movs        r0,#0x0                                 
ram:0001652c    01e0            b           LAB_00016532                            
                            LAB_0001652e:                 ;XREF[1,0]:   00016534
ram:0001652e    01c1            stmia       r1!,{r0}                                
ram:00016530    121f            subs        r2,r2,#0x4                              
                            LAB_00016532:                 ;XREF[1,0]:   0001652c
ram:00016532    002a            cmp         r2,#0x0                                 
ram:00016534    fbd1            bne         LAB_0001652e                            
ram:00016536    7047            bx          lr                                      
ram:00016538    38b5            push        {r3,r4,r5,lr}                           
ram:0001653a    0d4c            ldr         r4,[DAT_00016570]                       ;= 20002048h
ram:0001653c    6078            ldrb        r0,[r4,#0x1]=>DAT_20002049              
ram:0001653e    0228            cmp         r0,#0x2                                 
ram:00016540    02d0            beq         LAB_00016548                            
ram:00016542    0c49            ldr         r1,[DAT_00016574]                       ;= 40002000h
ram:00016544    0120            movs        r0,#0x1                                 
ram:00016546    8860            str         r0,[r1,#offset DAT_40002008 &0xff]      
                            LAB_00016548:                 ;XREF[1,0]:   00016540
ram:00016548    6946            mov         r1,sp                                   
ram:0001654a    0b48            ldr         r0,[DAT_00016578]                       ;= 20002540h
ram:0001654c    00f000fa        bl          FUN_00016950                            ;undefined FUN_00016950(int * param_1...
ram:00016550    0028            cmp         r0,#0x0                                 
ram:00016552    02d0            beq         LAB_0001655a                            
ram:00016554    00f016f8        bl          FUN_00016584                            ;undefined FUN_00016584(undefined4 pa...
ram:00016558    38bd            pop         {r3,r4,r5,pc}                           
                            LAB_0001655a:                 ;XREF[1,0]:   00016552
ram:0001655a    0848            ldr         r0,[DAT_0001657c]                       ;= 40002300h
ram:0001655c    8021            movs        r1,#0x80                                
ram:0001655e    8160            str         r1,[r0,#offset DAT_40002308 &0xff]      
ram:00016560    6a46            mov         r2,sp                                   
ram:00016562    074b            ldr         r3,[DAT_00016580]                       ;= 40002500h
ram:00016564    1278            ldrb        r2,[r2,#0x0]                            
ram:00016566    da61            str         r2,[r3,#offset DAT_4000251c &0xff]      
ram:00016568    0222            movs        r2,#0x2                                 
ram:0001656a    6270            strb        r2,[r4,#0x1]=>DAT_20002049              
ram:0001656c    4160            str         r1,[r0,#offset DAT_40002304 &0xff]      
ram:0001656e    38bd            pop         {r3,r4,r5,pc}                           
                            DAT_00016570:                 ;XREF[1,0]:   0001653a
ram:00016570    48200020        undefined4  20002048h                               
                            DAT_00016574:                 ;XREF[1,0]:   00016542
ram:00016574    00200040        undefined4  40002000h                               
                            DAT_00016578:                 ;XREF[1,0]:   0001654a
ram:00016578    40250020        undefined4  20002540h                               
                            DAT_0001657c:                 ;XREF[1,0]:   0001655a
ram:0001657c    00230040        undefined4  40002300h                               
                            DAT_00016580:                 ;XREF[1,0]:   00016562
ram:00016580    00250040        undefined4  40002500h                               
                            ;************************************************************************************************
                            ;*                                           FUNCTION                                           *
                            ;************************************************************************************************
                            ;undefined FUN_00016584(undefined4 param_1, undefined4 param_2, undefined4 param_3, undefined4 param_4)
          ;param_1       undefined4          r0                      
          ;param_2       undefined4          r1                      
          ;param_3       undefined4          r2                      
          ;param_4       undefined4          r3                      
          ;local_10      undefined1         -10                      ;XREF[1,0]:   00016594
                                                          ;XREF[1,0]:   00016554
ram:00016584    1cb5            push        {param_3,param_4,r4,lr}                 
ram:00016586    0649            ldr         param_2,[DAT_000165a0]                  ;= 40002000h
ram:00016588    0120            movs        param_1,#0x1                            
ram:0001658a    c860            str         param_1,[param_2,#offset DAT_4000200c...
ram:0001658c    0549            ldr         param_2,[DAT_000165a4]                  ;= 20002048h
ram:0001658e    4870            strb        param_1,[param_2,#0x1]=>DAT_20002049    
ram:00016590    0320            movs        param_1,#0x3                            
ram:00016592    6a46            mov         param_3,sp                              
ram:00016594    1070            strb        param_1,[param_3,#0x0]=>local_10        
ram:00016596    8968            ldr         param_2,[param_2,#0x8]=>DAT_20002050    
ram:00016598    6846            mov         param_1,sp                              
ram:0001659a    8847            blx         param_2                                 
ram:0001659c    1cbd            pop         {param_3,param_4,r4,pc}                 
ram:0001659e    0000            movs        r0,r0                                   
                            DAT_000165a0:                 ;XREF[1,0]:   00016586
ram:000165a0    00200040        undefined4  40002000h                               
                            DAT_000165a4:                 ;XREF[1,0]:   0001658c
ram:000165a4    48200020        undefined4  20002048h                               
ram:000165a8    04              ??          04h                                     
ram:000165a9    49              ??          49h    I                                
ram:000165aa    00              ??          00h                                     
ram:000165ab    20              ??          20h                                     
ram:000165ac    48              ??          48h    H                                
ram:000165ad    70              ??          70h    p                                
ram:000165ae    04              ??          04h                                     
ram:000165af    49              ??          49h    I                                
ram:000165b0    01              ??          01h                                     
ram:000165b1    22              ??          22h    "                                
ram:000165b2    ca              ??          CAh                                     
ram:000165b3    60              ??          60h    `                                
ram:000165b4    4a              ??          4Ah    J                                
ram:000165b5    60              ??          60h    `                                
ram:000165b6    03              ??          03h                                     
ram:000165b7    49              ??          49h    I                                
ram:000165b8    08              ??          08h                                     
ram:000165b9    60              ??          60h    `                                
ram:000165ba    70              ??          70h    p                                
ram:000165bb    47              ??          47h    G                                
ram:000165bc    48              ??          48h    H                                
ram:000165bd    20              ??          20h                                     
ram:000165be    00              ??          00h                                     
ram:000165bf    20              ??          20h                                     
ram:000165c0    00              ??          00h                                     
ram:000165c1    20              ??          20h                                     
ram:000165c2    00              ??          00h                                     
ram:000165c3    40              ??          40h    @                                
ram:000165c4    00              ??          00h                                     
ram:000165c5    25              ??          25h    %                                
ram:000165c6    00              ??          00h                                     
ram:000165c7    40              ??          40h    @                                
                            ;************************************************************************************************
                            ;*                                           FUNCTION                                           *
                            ;************************************************************************************************
                            ;undefined * FUN_000165c8(char * param_1, undefined * param_2, byte * param_3)
          ;param_1       char *              r0                      
          ;param_2       undefined *         r1                      
          ;param_3       byte *              r2                      
          ;local_1c      undefined4         -1c                      ;XREF[10,0]:  000165dc,000165ee,00016630,00016682,000166b4
                                                                     ;             000166ce,000166ea,000166fc,0001670e,00016722
          ;local_28      undefined4         -28                      ;XREF[4,0]:   00016618,000166ac,000166c6,000166e2
                                                          ;XREF[2,0]:   000174d6,000174f4
ram:000165c8    f7b5            push        {param_1,param_2,param_3,r4,r5,r6,r7,lr}
ram:000165ca    82b0            sub         sp,#0x8                                 
ram:000165cc    0026            movs        r6,#0x0                                 
ram:000165ce    0546            mov         r5,param_1                              
ram:000165d0    1670            strb        r6,[param_3,#0x0]                       
ram:000165d2    0078            ldrb        param_1,[param_1,#0x0]                  
ram:000165d4    1446            mov         r4,param_3                              
ram:000165d6    0028            cmp         param_1,#0x0                            
ram:000165d8    05d0            beq         LAB_000165e6                            
ram:000165da    2846            mov         param_1,r5                              
ram:000165dc    0399            ldr         param_2,[sp,#local_1c+0x28]             
ram:000165de    01f0e3ff        bl          FUN_000185a8                            ;int FUN_000185a8(char * param_1, int...
ram:000165e2    0600            movs        r6,param_1                              
ram:000165e4    2dd1            bne         LAB_00016642                            
                            LAB_000165e6:                 ;XREF[1,0]:   000165d8
ram:000165e6    a878            ldrb        param_1,[r5,#0x2]                       
ram:000165e8    0028            cmp         param_1,#0x0                            
ram:000165ea    1bd0            beq         LAB_00016624                            
ram:000165ec    2078            ldrb        param_1,[r4,#0x0]                       
ram:000165ee    039f            ldr         r7,[sp,#local_1c+0x28]                  
ram:000165f0    001d            adds        param_1,param_1,#0x4                    
ram:000165f2    1f28            cmp         param_1,#0x1f                           
ram:000165f4    24d8            bhi         LAB_00016640                            
ram:000165f6    6846            mov         param_1,sp                              
ram:000165f8    79df            svc         0x79                                    
ram:000165fa    0028            cmp         param_1,#0x0                            
ram:000165fc    21d1            bne         LAB_00016642                            
ram:000165fe    2178            ldrb        param_2,[r4,#0x0]                       
ram:00016600    0322            movs        param_3,#0x3                            
ram:00016602    481c            adds        param_1,param_2,#0x1                    
ram:00016604    2070            strb        param_1,[r4,#0x0]                       
ram:00016606    7a54            strb        param_3,[r7,param_2]                    
ram:00016608    2178            ldrb        param_2,[r4,#0x0]                       
ram:0001660a    1922            movs        param_3,#0x19                           
ram:0001660c    481c            adds        param_1,param_2,#0x1                    
ram:0001660e    2070            strb        param_1,[r4,#0x0]                       
ram:00016610    7a54            strb        param_3,[r7,param_2]                    
ram:00016612    2078            ldrb        param_1,[r4,#0x0]                       
ram:00016614    c119            adds        param_2,param_1,r7                      
ram:00016616    6846            mov         param_1,sp                              
ram:00016618    0088            ldrh        param_1=>local_28,[param_1,#0x0]        
ram:0001661a    02f007fe        bl          FUN_0001922c                            ;undefined4 FUN_0001922c(undefined4 p...
ram:0001661e    2178            ldrb        param_2,[r4,#0x0]                       
ram:00016620    4018            adds        param_1,param_1,param_2                 
ram:00016622    2070            strb        param_1,[r4,#0x0]                       
                            LAB_00016624:                 ;XREF[1,0]:   000165ea
ram:00016624    a988            ldrh        param_2,[r5,#0x4]                       
ram:00016626    0029            cmp         param_2,#0x0                            
ram:00016628    23d0            beq         LAB_00016672                            
ram:0001662a    0120            movs        param_1,#0x1                            
ram:0001662c    8446            mov         r12,param_1                             
ram:0001662e    aa68            ldr         param_3,[r5,#0x8]                       
ram:00016630    0398            ldr         param_1,[sp,#local_1c+0x28]             
ram:00016632    002a            cmp         param_3,#0x0                            
ram:00016634    07d0            beq         LAB_00016646                            
ram:00016636    2278            ldrb        param_3,[r4,#0x0]                       
ram:00016638    5318            adds        r3,param_3,param_2                      
ram:0001663a    9b1c            adds        r3,r3,#0x2                              
ram:0001663c    1f2b            cmp         r3,#0x1f                                
ram:0001663e    04d9            bls         LAB_0001664a                            
                            LAB_00016640:                 ;XREF[2,0]:   000165f4,00016686
ram:00016640    0c20            movs        param_1,#0xc                            
                            LAB_00016642:                 ;XREF[10,0]:  000165e4,000165fc,00016648,000166bc
                                                          ;             000166d6,000166f2,00016704,00016716
                                                          ;             0001672a,0001672e
ram:00016642    05b0            add         sp,#0x14                                
ram:00016644    f0bd            pop         {r4,r5,r6,r7,pc}                        
                            LAB_00016646:                 ;XREF[1,0]:   00016634
ram:00016646    0720            movs        param_1,#0x7                            
ram:00016648    fbe7            b           LAB_00016642                            
                            LAB_0001664a:                 ;XREF[1,0]:   0001663e
ram:0001664a    1346            mov         r3,param_3                              
ram:0001664c    521c            adds        param_3,param_3,#0x1                    
ram:0001664e    2270            strb        param_3,[r4,#0x0]                       
ram:00016650    491c            adds        param_2,param_2,#0x1                    
ram:00016652    c154            strb        param_2,[param_1,r3]                    
ram:00016654    2278            ldrb        param_3,[r4,#0x0]                       
ram:00016656    6746            mov         r7,r12                                  
ram:00016658    511c            adds        param_2,param_3,#0x1                    
ram:0001665a    2170            strb        param_2,[r4,#0x0]                       
ram:0001665c    8754            strb        r7,[param_1,param_3]                    
ram:0001665e    2378            ldrb        r3,[r4,#0x0]                            
ram:00016660    aa88            ldrh        param_3,[r5,#0x4]                       
ram:00016662    1818            adds        param_1,r3,param_1                      
ram:00016664    a968            ldr         param_2,[r5,#0x8]                       
ram:00016666    fff7c9fd        bl          FUN_000161fc                            ;undefined FUN_000161fc(undefined4 * ...
ram:0001666a    2078            ldrb        param_1,[r4,#0x0]                       
ram:0001666c    2979            ldrb        param_2,[r5,#0x4]                       
ram:0001666e    4018            adds        param_1,param_1,param_2                 
ram:00016670    2070            strb        param_1,[r4,#0x0]                       
                            LAB_00016672:                 ;XREF[1,0]:   00016628
ram:00016672    e868            ldr         param_1,[r5,#0xc]                       
ram:00016674    0028            cmp         param_1,#0x0                            
ram:00016676    15d0            beq         LAB_000166a4                            
ram:00016678    0021            movs        param_2,#0x0                            
ram:0001667a    4156            ldrsb       param_2,[param_1,param_2]               
ram:0001667c    2278            ldrb        param_3,[r4,#0x0]                       
ram:0001667e    8c46            mov         r12,param_2                             
ram:00016680    d01c            adds        param_1,param_3,#0x3                    
ram:00016682    0399            ldr         param_2,[sp,#local_1c+0x28]             
ram:00016684    1f28            cmp         param_1,#0x1f                           
ram:00016686    dbd8            bhi         LAB_00016640                            
ram:00016688    501c            adds        param_1,param_3,#0x1                    
ram:0001668a    0223            movs        r3,#0x2                                 
ram:0001668c    2070            strb        param_1,[r4,#0x0]                       
ram:0001668e    8b54            strb        r3,[param_2,param_3]                    
ram:00016690    2278            ldrb        param_3,[r4,#0x0]                       
ram:00016692    0a23            movs        r3,#0xa                                 
ram:00016694    501c            adds        param_1,param_3,#0x1                    
ram:00016696    2070            strb        param_1,[r4,#0x0]                       
ram:00016698    8b54            strb        r3,[param_2,param_3]                    
ram:0001669a    2078            ldrb        param_1,[r4,#0x0]                       
ram:0001669c    6246            mov         param_3,r12                             
ram:0001669e    431c            adds        r3,param_1,#0x1                         
ram:000166a0    2370            strb        r3,[r4,#0x0]                            
ram:000166a2    0a54            strb        param_3,[param_2,param_1]               
                            LAB_000166a4:                 ;XREF[1,0]:   00016676
ram:000166a4    288a            ldrh        param_1,[r5,#0x10]                      
ram:000166a6    0028            cmp         param_1,#0x0                            
ram:000166a8    09d0            beq         LAB_000166be                            
ram:000166aa    2846            mov         param_1,r5                              
ram:000166ac    0094            str         r4,[sp,#0x0]=>local_28                  
ram:000166ae    0622            movs        param_3,#0x6                            
ram:000166b0    0221            movs        param_2,#0x2                            
ram:000166b2    1030            adds        param_1,#0x10                           
ram:000166b4    039b            ldr         r3,[sp,#local_1c+0x28]                  
ram:000166b6    02f02dfe        bl          FUN_00019314                            ;undefined8 FUN_00019314(ushort * par...
ram:000166ba    0600            movs        r6,param_1                              
ram:000166bc    c1d1            bne         LAB_00016642                            
                            LAB_000166be:                 ;XREF[1,0]:   000166a8
ram:000166be    288b            ldrh        param_1,[r5,#0x18]                      
ram:000166c0    0028            cmp         param_1,#0x0                            
ram:000166c2    09d0            beq         LAB_000166d8                            
ram:000166c4    2846            mov         param_1,r5                              
ram:000166c6    0094            str         r4,[sp,#0x0]=>local_28                  
ram:000166c8    0722            movs        param_3,#0x7                            
ram:000166ca    0321            movs        param_2,#0x3                            
ram:000166cc    1830            adds        param_1,#0x18                           
ram:000166ce    039b            ldr         r3,[sp,#local_1c+0x28]                  
ram:000166d0    02f020fe        bl          FUN_00019314                            ;undefined8 FUN_00019314(ushort * par...
ram:000166d4    0600            movs        r6,param_1                              
ram:000166d6    b4d1            bne         LAB_00016642                            
                            LAB_000166d8:                 ;XREF[1,0]:   000166c2
ram:000166d8    288c            ldrh        param_1,[r5,#0x20]                      
ram:000166da    2f46            mov         r7,r5                                   
ram:000166dc    2037            adds        r7,#0x20                                
ram:000166de    0028            cmp         param_1,#0x0                            
ram:000166e0    08d0            beq         LAB_000166f4                            
ram:000166e2    0094            str         r4,[sp,#0x0]=>local_28                  
ram:000166e4    1522            movs        param_3,#0x15                           
ram:000166e6    1421            movs        param_2,#0x14                           
ram:000166e8    3846            mov         param_1,r7                              
ram:000166ea    039b            ldr         r3,[sp,#local_1c+0x28]                  
ram:000166ec    02f012fe        bl          FUN_00019314                            ;undefined8 FUN_00019314(ushort * par...
ram:000166f0    0600            movs        r6,param_1                              
ram:000166f2    a6d1            bne         LAB_00016642                            
                            LAB_000166f4:                 ;XREF[1,0]:   000166e0
ram:000166f4    a86a            ldr         param_1,[r5,#0x28]                      
ram:000166f6    0028            cmp         param_1,#0x0                            
ram:000166f8    05d0            beq         LAB_00016706                            
ram:000166fa    2246            mov         param_3,r4                              
ram:000166fc    0399            ldr         param_2,[sp,#local_1c+0x28]             
ram:000166fe    01f04ffa        bl          FUN_00017ba0                            ;undefined4 FUN_00017ba0(ushort * par...
ram:00016702    0600            movs        r6,param_1                              
ram:00016704    9dd1            bne         LAB_00016642                            
                            LAB_00016706:                 ;XREF[1,0]:   000166f8
ram:00016706    e86a            ldr         param_1,[r5,#0x2c]                      
ram:00016708    0028            cmp         param_1,#0x0                            
ram:0001670a    05d0            beq         LAB_00016718                            
ram:0001670c    2246            mov         param_3,r4                              
ram:0001670e    0399            ldr         param_2,[sp,#local_1c+0x28]             
ram:00016710    01f018ff        bl          FUN_00018544                            ;undefined4 FUN_00018544(ushort * par...
ram:00016714    0600            movs        r6,param_1                              
ram:00016716    94d1            bne         LAB_00016642                            
                            LAB_00016718:                 ;XREF[1,0]:   0001670a
ram:00016718    387d            ldrb        param_1,[r7,#0x14]                      
ram:0001671a    0028            cmp         param_1,#0x0                            
ram:0001671c    06d0            beq         LAB_0001672c                            
ram:0001671e    2246            mov         param_3,r4                              
ram:00016720    2846            mov         param_1,r5                              
ram:00016722    0399            ldr         param_2,[sp,#local_1c+0x28]             
ram:00016724    02f038fb        bl          FUN_00018d98                            ;undefined4 FUN_00018d98(int param_1,...
ram:00016728    0600            movs        r6,param_1                              
ram:0001672a    8ad1            bne         LAB_00016642                            
                            LAB_0001672c:                 ;XREF[1,0]:   0001671c
ram:0001672c    3046            mov         param_1,r6                              
ram:0001672e    88e7            b           LAB_00016642                            
                            ;************************************************************************************************
                            ;*                                           FUNCTION                                           *
                            ;************************************************************************************************
                            ;undefined FUN_00016730(int param_1)
          ;param_1       int                 r0                      
          ;local_1c      undefined1         -1c                      ;XREF[1,0]:   000167b6
          ;local_20      undefined4         -20                      ;XREF[1,1]:   000167bc,000167c6
          ;local_3c      undefined4         -3c                      ;XREF[1,0]:   000167ec
          ;local_40      undefined2         -40                      ;XREF[1,0]:   000167e8
          ;local_54      undefined4         -54                      ;XREF[1,0]:   00016774
          ;local_78      undefined4         -78                      ;XREF[1,0]:   00016770
          ;local_7c      undefined2         -7c                      ;XREF[1,0]:   0001676c
          ;local_80      undefined1         -80                      ;XREF[1,0]:   0001676a
          ;local_84      undefined1         -84                      ;XREF[1,0]:   00016750
          ;local_88      undefined4         -88                      ;XREF[2,0]:   0001675a,000167dc
          ;local_8c      undefined2         -8c                      ;XREF[2,0]:   0001675e,000167d8
          ;local_8e      undefined1         -8e                      ;XREF[1,0]:   000167d6
          ;local_90      undefined2         -90                      ;XREF[2,0]:   00016756,000167d4
                                                          ;XREF[2,0]:   00017300,00017350
ram:00016730    f0b5            push        {r4,r5,r6,r7,lr}                        
ram:00016732    0127            movs        r7,#0x1                                 
ram:00016734    374d            ldr         r5,[DAT_00016814]                       ;= 200024DCh
ram:00016736    0024            movs        r4,#0x0                                 
ram:00016738    9fb0            sub         sp,#0x7c                                
ram:0001673a    0128            cmp         param_1,#0x1                            
ram:0001673c    05d0            beq         LAB_0001674a                            
ram:0001673e    0028            cmp         param_1,#0x0                            
ram:00016740    37d0            beq         LAB_000167b2                            
ram:00016742    0022            movs        r2,#0x0                                 
ram:00016744    1146            mov         r1,r2                                   
ram:00016746    1046            mov         param_1,r2                              
ram:00016748    1de0            b           LAB_00016786                            
                            LAB_0001674a:                 ;XREF[1,0]:   0001673c
ram:0001674a    0421            movs        r1,#0x4                                 
ram:0001674c    6846            mov         param_1,sp                              
ram:0001674e    324e            ldr         r6,[DAT_00016818]                       ;= 20002000h
ram:00016750    0173            strb        r1,[r0,#local_84+0x90]                  
ram:00016752    b168            ldr         r1,[r6,#offset DAT_20002008 &0xff]      
ram:00016754    0a8b            ldrh        r2,[r1,#0x18]                           
ram:00016756    0280            strh        r2,[param_1,#0x0]=>local_90             
ram:00016758    491c            adds        r1,r1,#0x1                              
ram:0001675a    0291            str         r1,[sp,#local_88+0x90]                  
ram:0001675c    1721            movs        r1,#0x17                                
ram:0001675e    8180            strh        r1,[r0,#local_8c+0x90]                  
ram:00016760    3821            movs        r1,#0x38                                
ram:00016762    04a8            add         param_1,sp,#0x10                        
ram:00016764    fff763fd        bl          FUN_0001622e                            ;undefined FUN_0001622e(undefined * p...
ram:00016768    6846            mov         param_1,sp                              
ram:0001676a    0474            strb        r4,[r0,#local_80+0x90]                  
ram:0001676c    8782            strh        r7,[r0,#local_7c+0x90]                  
ram:0001676e    03a8            add         param_1,sp,#0xc                         
ram:00016770    0690            str         param_1,[sp,#local_78+0x90]             
ram:00016772    6846            mov         param_1,sp                              
ram:00016774    0f90            str         param_1,[sp,#local_54+0x90]             
ram:00016776    0021            movs        r1,#0x0                                 
ram:00016778    04a8            add         param_1,sp,#0x10                        
ram:0001677a    00f095fe        bl          FUN_000174a8                            ;undefined * FUN_000174a8(char * para...
ram:0001677e    0028            cmp         param_1,#0x0                            
ram:00016780    03d0            beq         LAB_0001678a                            
                            LAB_00016782:                 ;XREF[1,0]:   000167f8
ram:00016782    0022            movs        r2,#0x0                                 
ram:00016784    1146            mov         r1,r2                                   
                            LAB_00016786:                 ;XREF[1,0]:   00016748
ram:00016786    00f0dbf8        bl          FUN_00016940                            ;undefined FUN_00016940(void)
                            LAB_0001678a:                 ;XREF[1,0]:   00016780
ram:0001678a    1421            movs        r1,#0x14                                
ram:0001678c    2148            ldr         param_1=>DAT_200024dc,[DAT_00016814]    ;= 200024DCh
ram:0001678e    fff74efd        bl          FUN_0001622e                            ;undefined FUN_0001622e(undefined * p...
ram:00016792    0320            movs        param_1,#0x3                            
ram:00016794    2870            strb        param_1,[r5,#0x0]=>DAT_200024dc         
ram:00016796    6c60            str         r4,[r5,#0x4]=>DAT_200024e0              
ram:00016798    2c72            strb        r4,[r5,#0x8]=>DAT_200024e4              
ram:0001679a    b068            ldr         param_1,[r6,#offset DAT_20002008 &0xff] 
ram:0001679c    7d21            movs        r1,#0x7d                                
ram:0001679e    408b            ldrh        param_1,[param_1,#0x1a]                 
ram:000167a0    c900            lsls        r1,r1,#0x3                              
ram:000167a2    4843            muls        param_1,r1                              
ram:000167a4    1d49            ldr         r1,[DAT_0001681c]                       ;= 00000271h
ram:000167a6    fff7e3fc        bl          FUN_00016170                            ;int FUN_00016170(uint param_1, uint ...
ram:000167aa    2882            strh        param_1,[r5,#0x10]=>DAT_200024ec        
ram:000167ac    6c82            strh        r4,[r5,#0x12]=>DAT_200024ee             
                            LAB_000167ae:                 ;XREF[1,0]:   00016810
ram:000167ae    1fb0            add         sp,#0x7c                                
ram:000167b0    f0bd            pop         {r4,r5,r6,r7,pc}                        
                            LAB_000167b2:                 ;XREF[1,0]:   00016740
ram:000167b2    0521            movs        r1,#0x5                                 
ram:000167b4    18a8            add         param_1,sp,#0x60                        
ram:000167b6    0175            strb        r1,[r0,#local_1c+0x30]                  
ram:000167b8    1948            ldr         param_1,[PTR_DAT_00016820]              ;= 000193dc
ram:000167ba    0068            ldr         param_1,[param_1,#0x0]=>DAT_000193dc    ;= 00001523h
ram:000167bc    1c90            str         param_1,[sp,#local_20+0x90]             
ram:000167be    1548            ldr         param_1,[DAT_00016814]                  ;= 200024DCh
ram:000167c0    4c38            subs        param_1,#0x4c                           
ram:000167c2    817c            ldrb        r1,[param_1,#0x12]=>DAT_200024a2        
ram:000167c4    18a8            add         param_1,sp,#0x60                        
ram:000167c6    8174            strb        r1,[r0,#local_20+0x32]                  
ram:000167c8    3821            movs        r1,#0x38                                
ram:000167ca    6846            mov         param_1,sp                              
ram:000167cc    fff72ffd        bl          FUN_0001622e                            ;undefined FUN_0001622e(undefined * p...
ram:000167d0    0221            movs        r1,#0x2                                 
ram:000167d2    6846            mov         param_1,sp                              
ram:000167d4    0170            strb        r1,[param_1,#0x0]=>local_90             
ram:000167d6    8770            strb        r7,[r0,#local_8e+0x90]                  
ram:000167d8    8780            strh        r7,[r0,#local_8c+0x90]                  
ram:000167da    1da8            add         param_1,sp,#0x74                        
ram:000167dc    0290            str         param_1,[sp,#local_88+0x90]             
ram:000167de    3821            movs        r1,#0x38                                
ram:000167e0    0ea8            add         param_1,sp,#0x38                        
ram:000167e2    fff724fd        bl          FUN_0001622e                            ;undefined FUN_0001622e(undefined * p...
ram:000167e6    10a8            add         param_1,sp,#0x40                        
ram:000167e8    0782            strh        r7,[r0,#local_40+0x50]                  
ram:000167ea    1ca8            add         param_1,sp,#0x70                        
ram:000167ec    1590            str         param_1,[sp,#local_3c+0x90]             
ram:000167ee    0ea9            add         r1,sp,#0x38                             
ram:000167f0    6846            mov         param_1,sp                              
ram:000167f2    00f059fe        bl          FUN_000174a8                            ;undefined * FUN_000174a8(char * para...
ram:000167f6    0028            cmp         param_1,#0x0                            
ram:000167f8    c3d1            bne         LAB_00016782                            
ram:000167fa    1421            movs        r1,#0x14                                
ram:000167fc    0548            ldr         param_1=>DAT_200024dc,[DAT_00016814]    ;= 200024DCh
ram:000167fe    fff716fd        bl          FUN_0001622e                            ;undefined FUN_0001622e(undefined * p...
ram:00016802    2c70            strb        r4,[r5,#0x0]=>DAT_200024dc              
ram:00016804    6c60            str         r4,[r5,#0x4]=>DAT_200024e0              
ram:00016806    2c72            strb        r4,[r5,#0x8]=>DAT_200024e4              
ram:00016808    a020            movs        param_1,#0xa0                           
ram:0001680a    2882            strh        param_1,[r5,#0x10]=>DAT_200024ec        
ram:0001680c    1e20            movs        param_1,#0x1e                           
ram:0001680e    6882            strh        param_1,[r5,#0x12]=>DAT_200024ee        
ram:00016810    cde7            b           LAB_000167ae                            
ram:00016812    0000            movs        r0,r0                                   
                            DAT_00016814:                 ;XREF[4,0]:   00016734,0001678c,000167be,000167fc
ram:00016814    dc240020        undefined4  200024DCh                               
                            DAT_00016818:                 ;XREF[1,0]:   0001674e
ram:00016818    00200020        undefined4  20002000h                               
                            DAT_0001681c:                 ;XREF[1,0]:   000167a4
ram:0001681c    71020000        undefined4  00000271h                               
                            PTR_DAT_00016820:             ;XREF[1,0]:   000167b8
ram:00016820    dc930100        addr        DAT_000193dc                            ;= 00001523h
                            ;************************************************************************************************
                            ;*                                           FUNCTION                                           *
                            ;************************************************************************************************
                            ;undefined4 FUN_00016824(void)
                                                          ;XREF[1,0]:   000184b6
ram:00016824    10b5            push        {r4,lr}                                 
ram:00016826    0548            ldr         r0,[DAT_0001683c]                       ;= 20002064h
ram:00016828    4168            ldr         r1,[r0,#0x4]=>DAT_20002068              
ram:0001682a    0029            cmp         r1,#0x0                                 
ram:0001682c    03d0            beq         LAB_00016836                            
ram:0001682e    4078            ldrb        r0,[r0,#0x1]=>DAT_20002065              
ram:00016830    00f0fcf8        bl          FUN_00016a2c                            ;undefined4 FUN_00016a2c(uint param_1)
ram:00016834    10bd            pop         {r4,pc}                                 
                            LAB_00016836:                 ;XREF[1,0]:   0001682c
ram:00016836    0820            movs        r0,#0x8                                 
ram:00016838    10bd            pop         {r4,pc}                                 
ram:0001683a    0000            movs        r0,r0                                   
                            DAT_0001683c:                 ;XREF[1,0]:   00016826
ram:0001683c    64200020        undefined4  20002064h                               
                            ;************************************************************************************************
                            ;*                                           FUNCTION                                           *
                            ;************************************************************************************************
                            ;undefined FUN_00016840(undefined * * param_1, int param_2)
          ;param_1       undefined * *       r0                      
          ;param_2       int                 r1                      
                                                          ;XREF[0,2]:   00016866,00016870
ram:00016840    10b5            push        {r4,lr}                                 
ram:00016842    0246            mov         r2,param_1                              
ram:00016844    0829            cmp         param_2,#0x8                            
ram:00016846    04d0            beq         LAB_00016852                            
ram:00016848    0022            movs        r2,#0x0                                 
ram:0001684a    1146            mov         param_2,r2                              
ram:0001684c    1046            mov         param_1,r2                              
ram:0001684e    00f077f8        bl          FUN_00016940                            ;undefined FUN_00016940(void)
                            LAB_00016852:                 ;XREF[1,0]:   00016846
ram:00016852    5179            ldrb        param_2,[r2,#0x5]                       
ram:00016854    1079            ldrb        param_1,[r2,#0x4]                       
ram:00016856    1268            ldr         r2,[r2,#0x0]                            
ram:00016858    9047            blx         r2                                      
ram:0001685a    10bd            pop         {r4,pc}                                 
                            ;************************************************************************************************
                            ;*                                           FUNCTION                                           *
                            ;************************************************************************************************
                            ;undefined FUN_0001685c(undefined4 param_1, undefined param_2, undefined param_3, uint param_4)
          ;param_1       undefined4          r0                      
          ;param_2       undefined           r1                      
          ;param_3       undefined           r2                      
          ;param_4       uint                r3                      
          ;local_b       undefined1          -b                      ;XREF[1,0]:   00016864
          ;local_c       undefined1          -c                      ;XREF[1,0]:   00016862
          ;local_10      undefined4         -10                      ;XREF[1,0]:   0001685e
                                                          ;XREF[0,2]:   000184a6,00018534
ram:0001685c    1cb5            push        {param_3,param_4,r4,lr}                 
ram:0001685e    0090            str         param_1,[sp,#0x0]=>local_10             
ram:00016860    6846            mov         param_1,sp                              
ram:00016862    0171            strb        param_2,[r0,#local_c+0x10]              
ram:00016864    4271            strb        param_3,[r0,#local_b+0x10]              
ram:00016866    024a            ldr         param_3=>FUN_000...,[PTR_FUN_00016840...;= 00016841
ram:00016868    0821            movs        param_2,#0x8                            
ram:0001686a    00f083f9        bl          FUN_00016b74                            ;undefined4 FUN_00016b74(undefined4 *...
ram:0001686e    1cbd            pop         {param_3,param_4,r4,pc}                 
                            PTR_FUN_00016840+1_00016870:  ;XREF[1,0]:   00016866
ram:00016870    41680100        addr        FUN_00016840+1                          
                            ;************************************************************************************************
                            ;*                                           FUNCTION                                           *
                            ;************************************************************************************************
                            ;int FUN_00016874(int param_1, uint param_2, uint param_3, undefined4 param_4)
          ;param_1       int                 r0                      
          ;param_2       uint                r1                      
          ;param_3       uint                r2                      
          ;param_4       undefined4          r3                      
                                                          ;XREF[1,0]:   000184ae
ram:00016874    f8b5            push        {param_4,r4,r5,r6,r7,lr}                
ram:00016876    0c46            mov         r4,param_2                              
ram:00016878    052a            cmp         param_3,#0x5                            
ram:0001687a    01d2            bcs         LAB_00016880                            
ram:0001687c    0720            movs        param_1,#0x7                            
                            LAB_0001687e:                 ;XREF[1,0]:   000168c2
ram:0001687e    f8bd            pop         {param_4,r4,r5,r6,r7,pc}                
                            LAB_00016880:                 ;XREF[1,0]:   0001687a
ram:00016880    1449            ldr         param_2,[DAT_000168d4]                  ;= 20002064h
ram:00016882    154d            ldr         r5,[DAT_000168d8]                       ;= 50000700h
ram:00016884    4860            str         param_1,[param_2,#0x4]=>DAT_20002068    
ram:00016886    0c70            strb        r4,[param_2,#0x0]=>DAT_20002064         
ram:00016888    cb60            str         param_4,[param_2,#0xc]=>DAT_20002070    
ram:0001688a    8a60            str         param_3,[param_2,#0x8]=>DAT_2000206c    
ram:0001688c    0021            movs        param_2,#0x0                            
ram:0001688e    0123            movs        param_4,#0x1                            
ram:00016890    0be0            b           LAB_000168aa                            
                            LAB_00016892:                 ;XREF[1,0]:   000168b2
ram:00016892    e200            lsls        param_3,r4,#0x3                         
ram:00016894    1218            adds        param_3,param_3,param_1                 
ram:00016896    1678            ldrb        r6,[param_3,#0x0]                       
ram:00016898    9778            ldrb        r7,[param_3,#0x2]                       
ram:0001689a    b600            lsls        r6,r6,#0x2                              
ram:0001689c    bf00            lsls        r7,r7,#0x2                              
ram:0001689e    7619            adds        r6,r6,r5                                
ram:000168a0    3760            str         r7,[r6,#0x0]=>DAT_50000700              
ram:000168a2    1678            ldrb        r6,[param_3,#0x0]                       
ram:000168a4    1a46            mov         param_3,param_4                         
ram:000168a6    b240            lsls        param_3,r6                              
ram:000168a8    1143            orrs        param_2,param_3                         
                            LAB_000168aa:                 ;XREF[1,0]:   00016890
ram:000168aa    2246            mov         param_3,r4                              
ram:000168ac    641e            subs        r4,r4,#0x1                              
ram:000168ae    e4b2            uxtb        r4,r4                                   
ram:000168b0    002a            cmp         param_3,#0x0                            
ram:000168b2    eed1            bne         LAB_00016892                            
ram:000168b4    0748            ldr         param_1,[DAT_000168d4]                  ;= 20002064h
ram:000168b6    094b            ldr         param_4,[DAT_000168dc]                  ;= 00017FA1h
ram:000168b8    0a46            mov         param_3,param_2                         
ram:000168ba    401c            adds        param_1=>DAT_20002065,param_1,#0x1      
ram:000168bc    00f000f9        bl          FUN_00016ac0                            ;undefined4 FUN_00016ac0(byte * param...
ram:000168c0    0028            cmp         param_1,#0x0                            
ram:000168c2    dcd1            bne         LAB_0001687e                            
ram:000168c4    0348            ldr         param_1,[DAT_000168d4]                  ;= 20002064h
ram:000168c6    064a            ldr         param_3=>LAB_000...,[PTR_LAB_00017c90...;= 00017c91
ram:000168c8    0021            movs        param_2,#0x0                            
ram:000168ca    1030            adds        param_1=>DAT_20002074,#0x10             
ram:000168cc    00f0f8f9        bl          FUN_00016cc0                            ;undefined4 FUN_00016cc0(int * param_...
ram:000168d0    f8bd            pop         {param_4,r4,r5,r6,r7,pc}                
ram:000168d2    0000            movs        r0,r0                                   
                            DAT_000168d4:                 ;XREF[3,0]:   00016880,000168b4,000168c4
ram:000168d4    64200020        undefined4  20002064h                               
                            DAT_000168d8:                 ;XREF[1,0]:   00016882
ram:000168d8    00070050        undefined4  50000700h                               
                            DAT_000168dc:                 ;XREF[1,0]:   000168b6
ram:000168dc    a17f0100        undefined4  00017FA1h                               ;?  ->  00017fa1
                            PTR_LAB_00017c90+1+1_000168e0:;XREF[1,0]:   000168c6
ram:000168e0    917c0100        addr        LAB_00017c90+1+1                        
                            ;************************************************************************************************
                            ;*                                           FUNCTION                                           *
                            ;************************************************************************************************
                            ;int FUN_000168e4(uint param_1, undefined * param_2, undefined4 param_3, uint param_4)
          ;param_1       uint                r0                      
          ;param_2       undefined *         r1                      
          ;param_3       undefined4          r2                      
          ;param_4       uint                r3                      
          ;local_10      undefined4         -10                      ;XREF[2,0]:   0001691e,0001692a
                                                          ;XREF[1,0]:   000184d0
ram:000168e4    38b5            push        {param_4,r4,r5,lr}                      
ram:000168e6    154a            ldr         param_3=>DAT_20002064,[DAT_0001693c]    ;= 20002064h
ram:000168e8    0c46            mov         r4,param_2                              
ram:000168ea    1178            ldrb        param_2,[param_3,#0x0]=>DAT_20002064    
ram:000168ec    8842            cmp         param_1,param_2                         
ram:000168ee    01d9            bls         LAB_000168f4                            
ram:000168f0    0720            movs        param_1,#0x7                            
                            LAB_000168f2:                 ;XREF[1,0]:   00016908
ram:000168f2    38bd            pop         {param_4,r4,r5,pc}                      
                            LAB_000168f4:                 ;XREF[1,0]:   000168ee
ram:000168f4    c100            lsls        param_2,param_1,#0x3                    
ram:000168f6    5068            ldr         param_1,[param_3,#0x4]=>DAT_20002068    
ram:000168f8    0d18            adds        r5,param_2,param_1                      
ram:000168fa    0028            cmp         param_1,#0x0                            
ram:000168fc    0cd0            beq         LAB_00016918                            
ram:000168fe    6946            mov         param_2,sp                              
ram:00016900    5078            ldrb        param_1,[param_3,#0x1]=>DAT_20002065    
ram:00016902    00f079f8        bl          FUN_000169f8                            ;undefined4 FUN_000169f8(uint param_1...
ram:00016906    0028            cmp         param_1,#0x0                            
ram:00016908    f3d1            bne         LAB_000168f2                            
ram:0001690a    6a78            ldrb        param_3,[r5,#0x1]                       
ram:0001690c    0121            movs        param_2,#0x1                            
ram:0001690e    002a            cmp         param_3,#0x0                            
ram:00016910    04d0            beq         LAB_0001691c                            
ram:00016912    012a            cmp         param_3,#0x1                            
ram:00016914    08d0            beq         LAB_00016928                            
ram:00016916    0fe0            b           LAB_00016938                            
                            LAB_00016918:                 ;XREF[1,0]:   000168fc
ram:00016918    0820            movs        param_1,#0x8                            
ram:0001691a    38bd            pop         {param_4,r4,r5,pc}                      
                            LAB_0001691c:                 ;XREF[1,0]:   00016910
ram:0001691c    2b78            ldrb        param_4,[r5,#0x0]                       
ram:0001691e    009a            ldr         param_3,[sp,#0x0]=>local_10             
ram:00016920    da40            lsrs        param_3,param_4                         
ram:00016922    d207            lsls        param_3,param_3,#0x1f                   
ram:00016924    07d1            bne         LAB_00016936                            
ram:00016926    04e0            b           LAB_00016932                            
                            LAB_00016928:                 ;XREF[1,0]:   00016914
ram:00016928    2b78            ldrb        param_4,[r5,#0x0]                       
ram:0001692a    009a            ldr         param_3,[sp,#0x0]=>local_10             
ram:0001692c    da40            lsrs        param_3,param_4                         
ram:0001692e    d207            lsls        param_3,param_3,#0x1f                   
ram:00016930    01d0            beq         LAB_00016936                            
                            LAB_00016932:                 ;XREF[1,0]:   00016926
ram:00016932    2170            strb        param_2,[r4,#0x0]                       
ram:00016934    00e0            b           LAB_00016938                            
                            LAB_00016936:                 ;XREF[2,0]:   00016924,00016930
ram:00016936    2070            strb        param_1,[r4,#0x0]                       
                            LAB_00016938:                 ;XREF[2,0]:   00016916,00016934
ram:00016938    0020            movs        param_1,#0x0                            
ram:0001693a    38bd            pop         {param_4,r4,r5,pc}                      
                            DAT_0001693c:                 ;XREF[1,0]:   000168e6
ram:0001693c    64200020        undefined4  20002064h                               
                            ;************************************************************************************************
                            ;*                                           FUNCTION                                           *
                            ;************************************************************************************************
                            ;undefined FUN_00016940(void)
                                                          ;XREF[30,0]:  0001641c,00016786,0001684e,00016bd8
                                                          ;             00016c1e,0001729a,000172d8,00017388
                                                          ;             000173ec,0001787e,000178a8,000178b6
                                                          ;             000178c8,0001792c,00017952,00017c28
                                                          ;             00017d16,00017e6a,00018004,0001802e
                                                          ;             00018216,000182e4,00018526,0001868e
                                                          ;             000186c0,00018a52,00018e54,00018e9c
                                                          ;             000190bc,000191ee
ram:00016940    0120            movs        r0,#0x1                                 
ram:00016942    0249            ldr         r1=>DAT_50000500,[LAB_0001694c]         
ram:00016944    0004            lsls        r0,r0,#0x10                             
ram:00016946    c860            str         r0,[r1,#offset DAT_5000050c &0xff]      
ram:00016948    fff718fd        bl          FUN_0001637c                            ;undefined FUN_0001637c(void)
                            LAB_0001694c:                 ;XREF[3,0]:   00016942,0001696c,00016970
ram:0001694c    0005            lsls        param_1,param_1,#0x14                   
ram:0001694e    0050            str         param_1,[r0,r0]=>DAT_00a00000           
                            ;************************************************************************************************
                            ;*                                           FUNCTION                                           *
                            ;************************************************************************************************
                            ;undefined FUN_00016950(int * param_1, undefined * param_2)
          ;param_1       int *               r0                      
          ;param_2       undefined *         r1                      
                                                          ;XREF[1,0]:   0001654c
                                                          ; FWD[2,0]:   0000000c,0050000c
ram:00016950    c268            ldr         r2,[param_1,#DAT_0000000c]              
                                                          ; FWD[2,0]:   00000008,00500008
ram:00016952    8368            ldr         r3,[param_1,#DAT_00000008]              
ram:00016954    9a42            cmp         r2,r3                                   
ram:00016956    0ad0            beq         LAB_0001696e                            
ram:00016958    8268            ldr         r2,[param_1,#0x8]                       
ram:0001695a    8388            ldrh        r3,[param_1,#0x4]                       
ram:0001695c    1a40            ands        r2,r3                                   
ram:0001695e    0368            ldr         r3,[param_1,#0x0]                       
ram:00016960    9a5c            ldrb        r2,[r3,r2]                              
ram:00016962    0a70            strb        r2,[param_2,#0x0]=>DAT_50000500         
ram:00016964    8168            ldr         param_2,[param_1,#0x8]                  
ram:00016966    491c            adds        param_2,param_2,#0x1                    
ram:00016968    8160            str         param_2,[param_1,#0x8]                  
ram:0001696a    0020            movs        param_1,#0x0                            
ram:0001696c    7047            bx          lr=>LAB_0001694c                        
                            LAB_0001696e:                 ;XREF[1,0]:   00016956
ram:0001696e    0520            movs        param_1,#0x5                            
ram:00016970    7047            bx          lr=>LAB_0001694c                        
                            ;************************************************************************************************
                            ;*                                           FUNCTION                                           *
                            ;************************************************************************************************
                            ;undefined4 FUN_00016972(int * param_1, undefined param_2)
          ;param_1       int *               r0                      
          ;param_2       undefined           r1                      
                                                          ;XREF[1,0]:   00016498
ram:00016972    c268            ldr         r2,[param_1,#0xc]                       
ram:00016974    8368            ldr         r3,[param_1,#0x8]                       
ram:00016976    d31a            subs        r3,r2,r3                                
ram:00016978    8288            ldrh        r2,[param_1,#0x4]                       
ram:0001697a    9342            cmp         r3,r2                                   
ram:0001697c    08d8            bhi         LAB_00016990                            
ram:0001697e    c368            ldr         r3,[param_1,#0xc]                       
ram:00016980    1340            ands        r3,r2                                   
ram:00016982    0268            ldr         r2,[param_1,#0x0]                       
ram:00016984    d154            strb        param_2,[r2,r3]                         
ram:00016986    c168            ldr         param_2,[param_1,#0xc]                  
ram:00016988    491c            adds        param_2,param_2,#0x1                    
ram:0001698a    c160            str         param_2,[param_1,#0xc]                  
ram:0001698c    0020            movs        param_1,#0x0                            
ram:0001698e    7047            bx          lr                                      
                            LAB_00016990:                 ;XREF[1,0]:   0001697c
ram:00016990    0420            movs        param_1,#0x4                            
ram:00016992    7047            bx          lr                                      
                            ;************************************************************************************************
                            ;*                                           FUNCTION                                           *
                            ;************************************************************************************************
                            ;undefined4 FUN_00016994(int param_1, undefined * param_2)
          ;param_1       int                 r0                      
          ;param_2       undefined *         r1                      
                                                          ;XREF[1,0]:   0001849e
ram:00016994    10b5            push        {r4,lr}                                 
ram:00016996    0029            cmp         param_2,#0x0                            
ram:00016998    03d0            beq         LAB_000169a2                            
ram:0001699a    8a07            lsls        r2,param_2,#0x1e                        
ram:0001699c    0024            movs        r4,#0x0                                 
ram:0001699e    002a            cmp         r2,#0x0                                 
ram:000169a0    01d0            beq         LAB_000169a6                            
                            LAB_000169a2:                 ;XREF[1,0]:   00016998
ram:000169a2    0720            movs        param_1,#0x7                            
ram:000169a4    10bd            pop         {r4,pc}                                 
                            LAB_000169a6:                 ;XREF[1,0]:   000169a0
ram:000169a6    0f4a            ldr         r2=>DAT_20002080,[DAT_000169e4]         ;= 20002080h
ram:000169a8    0b46            mov         r3,param_2                              
ram:000169aa    5160            str         param_2,[r2,#0x4]=>DAT_20002084         
ram:000169ac    1070            strb        param_1,[r2,#0x0]=>DAT_20002080         
ram:000169ae    1421            movs        param_2,#0x14                           
ram:000169b0    5470            strb        r4,[r2,#0x1]=>DAT_20002081              
ram:000169b2    4143            muls        param_2,param_1                         
ram:000169b4    1846            mov         param_1,r3                              
ram:000169b6    9460            str         r4,[r2,#0x8]=>DAT_20002088              
ram:000169b8    fff739fc        bl          FUN_0001622e                            ;undefined FUN_0001622e(undefined * p...
ram:000169bc    0020            movs        param_1,#0x0                            
ram:000169be    0a49            ldr         param_2,[DAT_000169e8]                  ;= 40006300h
ram:000169c0    c043            mvns        param_1,param_1                         
ram:000169c2    8860            str         param_1,[param_2,#offset DAT_40006308...
ram:000169c4    0948            ldr         param_1,[DAT_000169ec]                  ;= E000E280h
ram:000169c6    4021            movs        param_2,#0x40                           
ram:000169c8    0160            str         param_2,[param_1,#0x0]=>DAT_e000e280    
ram:000169ca    094a            ldr         r2,[DAT_000169f0]                       ;= E000E404h
ram:000169cc    1068            ldr         param_1,[r2,#0x0]=>DAT_e000e404         
ram:000169ce    ff23            movs        r3,#0xff                                
ram:000169d0    1b04            lsls        r3,r3,#0x10                             
ram:000169d2    9843            bics        param_1,r3                              
ram:000169d4    0b04            lsls        r3,param_2,#0x10                        
ram:000169d6    1843            orrs        param_1,r3                              
ram:000169d8    1060            str         param_1,[r2,#0x0]=>DAT_e000e404         
ram:000169da    0648            ldr         param_1,[DAT_000169f4]                  ;= E000E100h
ram:000169dc    0160            str         param_2,[param_1,#0x0]=>DAT_e000e100    
ram:000169de    0020            movs        param_1,#0x0                            
ram:000169e0    10bd            pop         {r4,pc}                                 
ram:000169e2    0000            movs        r0,r0                                   
                            DAT_000169e4:                 ;XREF[1,0]:   000169a6
ram:000169e4    80200020        undefined4  20002080h                               
                            DAT_000169e8:                 ;XREF[1,0]:   000169be
ram:000169e8    00630040        undefined4  40006300h                               
                            DAT_000169ec:                 ;XREF[1,0]:   000169c4
ram:000169ec    80e200e0        undefined4  E000E280h                               
                            DAT_000169f0:                 ;XREF[1,0]:   000169ca
ram:000169f0    04e400e0        undefined4  E000E404h                               
                            DAT_000169f4:                 ;XREF[1,0]:   000169da
ram:000169f4    00e100e0        undefined4  E000E100h                               
                            ;************************************************************************************************
                            ;*                                           FUNCTION                                           *
                            ;************************************************************************************************
                            ;undefined4 FUN_000169f8(uint param_1, uint * param_2)
          ;param_1       uint                r0                      
          ;param_2       uint *              r1                      
                                                          ;XREF[2,0]:   00016902,00017c98
ram:000169f8    0a4b            ldr         r3,[DAT_00016a24]                       ;= 20002080h
ram:000169fa    5a68            ldr         r2,[r3,#0x4]=>DAT_20002084              
ram:000169fc    002a            cmp         r2,#0x0                                 
ram:000169fe    04d0            beq         LAB_00016a0a                            
ram:00016a00    5b78            ldrb        r3,[r3,#0x1]=>DAT_20002081              
ram:00016a02    9842            cmp         param_1,r3                              
ram:00016a04    03d3            bcc         LAB_00016a0e                            
ram:00016a06    0720            movs        param_1,#0x7                            
ram:00016a08    7047            bx          lr                                      
                            LAB_00016a0a:                 ;XREF[1,0]:   000169fe
ram:00016a0a    0820            movs        param_1,#0x8                            
ram:00016a0c    7047            bx          lr                                      
                            LAB_00016a0e:                 ;XREF[1,0]:   00016a04
ram:00016a0e    1423            movs        r3,#0x14                                
ram:00016a10    5843            muls        param_1,r3                              
ram:00016a12    8018            adds        param_1,param_1,r2                      
ram:00016a14    044a            ldr         r2,[DAT_00016a28]                       ;= 50000500h
ram:00016a16    1269            ldr         r2,[r2,#offset DAT_50000510 &0xff]      
ram:00016a18    0068            ldr         param_1,[param_1,#0x0]                  
ram:00016a1a    0240            ands        r2,param_1                              
ram:00016a1c    0020            movs        param_1,#0x0                            
ram:00016a1e    0a60            str         r2,[param_2,#0x0]                       
ram:00016a20    7047            bx          lr                                      
ram:00016a22    0000            movs        r0,r0                                   
                            DAT_00016a24:                 ;XREF[1,0]:   000169f8
ram:00016a24    80200020        undefined4  20002080h                               
                            DAT_00016a28:                 ;XREF[1,0]:   00016a14
ram:00016a28    00050050        undefined4  50000500h                               
                            ;************************************************************************************************
                            ;*                                           FUNCTION                                           *
                            ;************************************************************************************************
                            ;undefined4 FUN_00016a2c(uint param_1)
          ;param_1       uint                r0                      
                                                          ;XREF[1,0]:   00016830
ram:00016a2c    f0b5            push        {r4,r5,r6,r7,lr}                        
ram:00016a2e    1f4a            ldr         r2,[DAT_00016aac]                       ;= 20002080h
ram:00016a30    5168            ldr         r1,[r2,#0x4]=>DAT_20002084              
ram:00016a32    0029            cmp         r1,#0x0                                 
ram:00016a34    04d0            beq         LAB_00016a40                            
ram:00016a36    5378            ldrb        r3,[r2,#0x1]=>DAT_20002081              
ram:00016a38    9842            cmp         param_1,r3                              
ram:00016a3a    03d3            bcc         LAB_00016a44                            
ram:00016a3c    0720            movs        param_1,#0x7                            
ram:00016a3e    f0bd            pop         {r4,r5,r6,r7,pc}                        
                            LAB_00016a40:                 ;XREF[1,0]:   00016a34
ram:00016a40    0820            movs        param_1,#0x8                            
ram:00016a42    f0bd            pop         {r4,r5,r6,r7,pc}                        
                            LAB_00016a44:                 ;XREF[1,0]:   00016a3a
ram:00016a44    1a4b            ldr         r3,[DAT_00016ab0]                       ;= 40006140h
ram:00016a46    0025            movs        r5,#0x0                                 
ram:00016a48    dd63            str         r5,[r3,#0x3c]=>DAT_4000617c             
ram:00016a4a    1a4b            ldr         r3,[DAT_00016ab4]                       ;= 50000500h
ram:00016a4c    1c69            ldr         r4,[r3,#offset DAT_50000510 &0xff]      
ram:00016a4e    9768            ldr         r7,[r2,#0x8]=>DAT_20002088              
ram:00016a50    002f            cmp         r7,#0x0                                 
ram:00016a52    02d1            bne         LAB_00016a5a                            
ram:00016a54    184e            ldr         r6,[DAT_00016ab8]                       ;= 40006300h
ram:00016a56    db05            lsls        r3,r3,#0x17                             
ram:00016a58    7360            str         r3,[r6,#offset DAT_40006304 &0xff]      
                            LAB_00016a5a:                 ;XREF[1,0]:   00016a52
ram:00016a5a    0126            movs        r6,#0x1                                 
ram:00016a5c    8640            lsls        r6,param_1                              
ram:00016a5e    3e43            orrs        r6,r7                                   
ram:00016a60    9660            str         r6,[r2,#0x8]=>DAT_20002088              
ram:00016a62    1422            movs        r2,#0x14                                
ram:00016a64    5043            muls        param_1,r2                              
ram:00016a66    4218            adds        r2,param_1,r1                           
ram:00016a68    d560            str         r5,[r2,#0xc]                            
ram:00016a6a    0022            movs        r2,#0x0                                 
                            LAB_00016a6c:                 ;XREF[1,0]:   00016aa6
ram:00016a6c    0123            movs        r3,#0x1                                 
ram:00016a6e    0d58            ldr         r5,[r1,param_1]                         
ram:00016a70    9340            lsls        r3,r2                                   
ram:00016a72    1d42            tst         r5,r3                                   
ram:00016a74    15d0            beq         LAB_00016aa2                            
ram:00016a76    1c42            tst         r4,r3                                   
ram:00016a78    02d0            beq         LAB_00016a80                            
ram:00016a7a    0325            movs        r5,#0x3                                 
ram:00016a7c    2d04            lsls        r5,r5,#0x10                             
ram:00016a7e    05e0            b           LAB_00016a8c                            
                            LAB_00016a80:                 ;XREF[1,0]:   00016a78
ram:00016a80    0125            movs        r5,#0x1                                 
ram:00016a82    6d04            lsls        r5,r5,#0x11                             
ram:00016a84    4618            adds        r6,param_1,r1                           
ram:00016a86    f768            ldr         r7,[r6,#0xc]                            
ram:00016a88    1f43            orrs        r7,r3                                   
ram:00016a8a    f760            str         r7,[r6,#0xc]                            
                            LAB_00016a8c:                 ;XREF[1,0]:   00016a7e
ram:00016a8c    0b4b            ldr         r3,[DAT_00016abc]                       ;= 50000700h
ram:00016a8e    9600            lsls        r6,r2,#0x2                              
ram:00016a90    f318            adds        r3,r6,r3                                
ram:00016a92    1e68            ldr         r6,[r3,#0x0]=>DAT_50000700              
ram:00016a94    0327            movs        r7,#0x3                                 
ram:00016a96    3f04            lsls        r7,r7,#0x10                             
ram:00016a98    be43            bics        r6,r7                                   
ram:00016a9a    1e60            str         r6,[r3,#0x0]=>DAT_50000700              
ram:00016a9c    1e68            ldr         r6,[r3,#0x0]=>DAT_50000700              
ram:00016a9e    2e43            orrs        r6,r5                                   
ram:00016aa0    1e60            str         r6,[r3,#0x0]=>DAT_50000700              
                            LAB_00016aa2:                 ;XREF[1,0]:   00016a74
ram:00016aa2    521c            adds        r2,r2,#0x1                              
ram:00016aa4    202a            cmp         r2,#0x20                                
ram:00016aa6    e1d3            bcc         LAB_00016a6c                            
ram:00016aa8    0020            movs        param_1,#0x0                            
ram:00016aaa    f0bd            pop         {r4,r5,r6,r7,pc}                        
                            DAT_00016aac:                 ;XREF[1,0]:   00016a2e
ram:00016aac    80200020        undefined4  20002080h                               
                            DAT_00016ab0:                 ;XREF[1,0]:   00016a44
ram:00016ab0    40610040        undefined4  40006140h                               
                            DAT_00016ab4:                 ;XREF[1,0]:   00016a4a
ram:00016ab4    00050050        undefined4  50000500h                               
                            DAT_00016ab8:                 ;XREF[1,0]:   00016a54
ram:00016ab8    00630040        undefined4  40006300h                               
                            DAT_00016abc:                 ;XREF[1,0]:   00016a8c
ram:00016abc    00070050        undefined4  50000700h                               
                            ;************************************************************************************************
                            ;*                                           FUNCTION                                           *
                            ;************************************************************************************************
                            ;undefined4 FUN_00016ac0(byte * param_1, uint param_2, uint param_3, int param_4)
          ;param_1       byte *              r0                      
          ;param_2       uint                r1                      
          ;param_3       uint                r2                      
          ;param_4       int                 r3                      
                                                          ;XREF[1,0]:   000168bc
ram:00016ac0    f8b5            push        {param_4,r4,r5,r6,r7,lr}                
ram:00016ac2    114f            ldr         r7,[DAT_00016b08]                       ;= 20002080h
ram:00016ac4    8446            mov         r12,param_1                             
ram:00016ac6    7d68            ldr         r5,[r7,#0x4]=>DAT_20002084              
ram:00016ac8    002d            cmp         r5,#0x0                                 
ram:00016aca    07d0            beq         LAB_00016adc                            
ram:00016acc    002b            cmp         param_4,#0x0                            
ram:00016ace    07d0            beq         LAB_00016ae0                            
ram:00016ad0    7878            ldrb        param_1,[r7,#0x1]=>DAT_20002081         
ram:00016ad2    3c78            ldrb        r4,[r7,#0x0]=>DAT_20002080              
ram:00016ad4    a042            cmp         param_1,r4                              
ram:00016ad6    05d3            bcc         LAB_00016ae4                            
ram:00016ad8    0420            movs        param_1,#0x4                            
ram:00016ada    f8bd            pop         {param_4,r4,r5,r6,r7,pc}                
                            LAB_00016adc:                 ;XREF[1,0]:   00016aca
ram:00016adc    0820            movs        param_1,#0x8                            
ram:00016ade    f8bd            pop         {param_4,r4,r5,r6,r7,pc}                
                            LAB_00016ae0:                 ;XREF[1,0]:   00016ace
ram:00016ae0    0720            movs        param_1,#0x7                            
ram:00016ae2    f8bd            pop         {param_4,r4,r5,r6,r7,pc}                
                            LAB_00016ae4:                 ;XREF[1,0]:   00016ad6
ram:00016ae4    0e46            mov         r6,param_2                              
ram:00016ae6    1424            movs        r4,#0x14                                
ram:00016ae8    1643            orrs        r6,param_3                              
ram:00016aea    4443            muls        r4,param_1                              
ram:00016aec    2e51            str         r6,[r5,r4]                              
ram:00016aee    6419            adds        r4,r4,r5                                
ram:00016af0    2361            str         param_4,[r4,#0x10]                      
ram:00016af2    a260            str         param_3,[r4,#0x8]                       
ram:00016af4    6160            str         param_2,[r4,#0x4]                       
ram:00016af6    6146            mov         param_2,r12                             
ram:00016af8    0870            strb        param_1,[param_2,#0x0]                  
ram:00016afa    411c            adds        param_2,param_1,#0x1                    
ram:00016afc    7970            strb        param_2,[r7,#0x1]=>DAT_20002081         
ram:00016afe    01f0e7fe        bl          FUN_000188d0                            ;undefined FUN_000188d0(int param_1)
ram:00016b02    0020            movs        param_1,#0x0                            
ram:00016b04    f8bd            pop         {param_4,r4,r5,r6,r7,pc}                
ram:00016b06    0000            movs        r0,r0                                   
                            DAT_00016b08:                 ;XREF[1,0]:   00016ac2
ram:00016b08    80200020        undefined4  20002080h                               
                            ;************************************************************************************************
                            ;*                                           FUNCTION                                           *
                            ;************************************************************************************************
                            ;undefined FUN_00016b0c(undefined4 param_1, undefined * param_2)
          ;param_1       undefined4          r0                      
          ;param_2       undefined *         r1                      
          ;local_10      undefined4         -10                      ;XREF[1,0]:   00016b1c
                                                          ;XREF[2,0]:   00018c16,00018cbc
ram:00016b0c    38b5            push        {r3,r4,r5,lr}                           
ram:00016b0e    0c46            mov         r4,param_2                              
ram:00016b10    a268            ldr         r2,[r4,#0x8]                            
ram:00016b12    064b            ldr         r3,[DAT_00016b2c]                       ;= 2000261Ch
ram:00016b14    1201            lsls        r2,r2,#0x4                              
ram:00016b16    9d58            ldr         r5,[r3,r2]=>DAT_2000261c                
ram:00016b18    0978            ldrb        param_2,[param_2,#0x0]                  
ram:00016b1a    6288            ldrh        r2,[r4,#0x2]                            
ram:00016b1c    0092            str         r2,[sp,#0x0]=>local_10                  
ram:00016b1e    0246            mov         r2,param_1                              
ram:00016b20    2046            mov         param_1,r4                              
ram:00016b22    0830            adds        param_1,#0x8                            
ram:00016b24    2369            ldr         r3,[r4,#0x10]                           
ram:00016b26    a847            blx         r5                                      
ram:00016b28    38bd            pop         {r3,r4,r5,pc}                           
ram:00016b2a    0000            movs        r0,r0                                   
                            DAT_00016b2c:                 ;XREF[1,0]:   00016b12
ram:00016b2c    1c260020        undefined4  2000261Ch                               
                            ;************************************************************************************************
                            ;*                                           FUNCTION                                           *
                            ;************************************************************************************************
                            ;undefined4 FUN_00016b30(int * param_1, undefined2 * param_2, undefined4 * param_3)
          ;param_1       int *               r0                      
          ;param_2       undefined2 *        r1                      
          ;param_3       undefined4 *        r2                      
                                                          ;XREF[1,0]:   00016c88
ram:00016b30    70b5            push        {r4,r5,r6,lr}                           
ram:00016b32    0f4b            ldr         r3,[DAT_00016b70]                       ;= 2000208Ch
ram:00016b34    0524            movs        r4,#0x5                                 
ram:00016b36    5d78            ldrb        r5,[r3,#0x1]=>DAT_2000208d              
ram:00016b38    1e78            ldrb        r6,[r3,#0x0]=>DAT_2000208c              
ram:00016b3a    b542            cmp         r5,r6                                   
ram:00016b3c    15d0            beq         LAB_00016b6a                            
ram:00016b3e    1d78            ldrb        r5,[r3,#0x0]=>DAT_2000208c              
ram:00016b40    1c78            ldrb        r4,[r3,#0x0]=>DAT_2000208c              
ram:00016b42    9e88            ldrh        r6,[r3,#0x4]=>DAT_20002090              
ram:00016b44    b442            cmp         r4,r6                                   
ram:00016b46    01da            bge         LAB_00016b4c                            
ram:00016b48    641c            adds        r4,r4,#0x1                              
ram:00016b4a    00e0            b           LAB_00016b4e                            
                            LAB_00016b4c:                 ;XREF[1,0]:   00016b46
ram:00016b4c    0024            movs        r4,#0x0                                 
                            LAB_00016b4e:                 ;XREF[1,0]:   00016b4a
ram:00016b4e    1c70            strb        r4,[r3,#0x0]=>DAT_2000208c              
ram:00016b50    5c88            ldrh        r4,[r3,#0x2]=>DAT_2000208e              
ram:00016b52    de68            ldr         r6,[r3,#0xc]=>DAT_20002098              
ram:00016b54    6c43            muls        r4,r5                                   
ram:00016b56    a419            adds        r4,r4,r6                                
ram:00016b58    0460            str         r4,[param_1,#0x0]                       
ram:00016b5a    9b68            ldr         r3,[r3,#0x8]=>DAT_20002094              
ram:00016b5c    e800            lsls        param_1,r5,#0x3                         
ram:00016b5e    c418            adds        r4,param_1,r3                           
ram:00016b60    a488            ldrh        r4,[r4,#0x4]                            
ram:00016b62    0c80            strh        r4,[param_2,#0x0]                       
ram:00016b64    1858            ldr         param_1,[r3,param_1]                    
ram:00016b66    0024            movs        r4,#0x0                                 
ram:00016b68    1060            str         param_1,[param_3,#0x0]                  
                            LAB_00016b6a:                 ;XREF[1,0]:   00016b3c
ram:00016b6a    2046            mov         param_1,r4                              
ram:00016b6c    70bd            pop         {r4,r5,r6,pc}                           
ram:00016b6e    0000            movs        r0,r0                                   
                            DAT_00016b70:                 ;XREF[1,0]:   00016b32
ram:00016b70    8c200020        undefined4  2000208Ch                               
                            ;************************************************************************************************
                            ;*                                           FUNCTION                                           *
                            ;************************************************************************************************
                            ;undefined4 FUN_00016b74(undefined4 * param_1, uint param_2, undefined4 param_3)
          ;param_1       undefined4 *        r0                      
          ;param_2       uint                r1                      
          ;param_3       undefined4          r2                      
          ;local_18      undefined4         -18                      ;XREF[1,0]:   00016c2c
          ;local_20      undefined4         -20                      ;XREF[1,0]:   00016c30
          ;local_28      undefined1         -28                      ;XREF[2,0]:   00016b86,00016c0e
                                                          ;XREF[3,0]:   0001686a,00018eb0,000190b0
ram:00016b74    f7b5            push        {param_1,param_2,param_3,r4,r5,r6,r7,lr}
ram:00016b76    3b4c            ldr         r4,[DAT_00016c64]                       ;= 2000208Ch
ram:00016b78    82b0            sub         sp,#0x8                                 
ram:00016b7a    6088            ldrh        param_1,[r4,#0x2]=>DAT_2000208e         
ram:00016b7c    0f46            mov         r7,param_2                              
ram:00016b7e    8142            cmp         param_2,param_1                         
ram:00016b80    6ed8            bhi         LAB_00016c60                            
ram:00016b82    0020            movs        param_1,#0x0                            
ram:00016b84    6946            mov         param_2,sp                              
ram:00016b86    0870            strb        param_1,[param_2,#0x0]=>local_28        
ram:00016b88    3849            ldr         param_2,[DAT_00016c6c]                  ;= E000ED00h
ram:00016b8a    374e            ldr         r6,[DAT_00016c68]                       ;= 0000FFFFh
ram:00016b8c    4868            ldr         param_1,[param_2,#offset DAT_e000ed04...
ram:00016b8e    c005            lsls        param_1,param_1,#0x17                   
ram:00016b90    c00d            lsrs        param_1,param_1,#0x17                   
ram:00016b92    18d0            beq         LAB_00016bc6                            
ram:00016b94    1038            subs        param_1,#0x10                           
ram:00016b96    40b2            sxtb        param_1,param_1                         
ram:00016b98    0028            cmp         param_1,#0x0                            
ram:00016b9a    07da            bge         LAB_00016bac                            
ram:00016b9c    0207            lsls        param_3,param_1,#0x1c                   
ram:00016b9e    120f            lsrs        param_3,param_3,#0x1c                   
ram:00016ba0    083a            subs        param_3,#0x8                            
ram:00016ba2    9208            lsrs        param_3,param_3,#0x2                    
ram:00016ba4    9200            lsls        param_3,param_3,#0x2                    
ram:00016ba6    5118            adds        param_2,param_3,param_2                 
ram:00016ba8    c969            ldr         param_2,[param_2,#0x1c]                 
ram:00016baa    04e0            b           LAB_00016bb6                            
                            LAB_00016bac:                 ;XREF[1,0]:   00016b9a
ram:00016bac    8108            lsrs        param_2,param_1,#0x2                    
ram:00016bae    304a            ldr         param_3,[DAT_00016c70]                  ;= E000E400h
ram:00016bb0    8900            lsls        param_2,param_2,#0x2                    
ram:00016bb2    8918            adds        param_2,param_2,param_3                 
ram:00016bb4    0968            ldr         param_2,[param_2,#0x0]                  
                            LAB_00016bb6:                 ;XREF[1,0]:   00016baa
ram:00016bb6    8007            lsls        param_1,param_1,#0x1e                   
ram:00016bb8    c00e            lsrs        param_1,param_1,#0x1b                   
ram:00016bba    c140            lsrs        param_2,param_1                         
ram:00016bbc    0806            lsls        param_1,param_2,#0x18                   
ram:00016bbe    850f            lsrs        r5,param_1,#0x1e                        
ram:00016bc0    012d            cmp         r5,#0x1                                 
ram:00016bc2    01d1            bne         LAB_00016bc8                            
ram:00016bc4    0ae0            b           LAB_00016bdc                            
                            LAB_00016bc6:                 ;XREF[1,0]:   00016b92
ram:00016bc6    0425            movs        r5,#0x4                                 
                            LAB_00016bc8:                 ;XREF[1,0]:   00016bc2
ram:00016bc8    6846            mov         param_1,sp                              
ram:00016bca    2edf            svc         0x2e                                    
ram:00016bcc    0228            cmp         param_1,#0x2                            
ram:00016bce    0bd0            beq         LAB_00016be8                            
ram:00016bd0    0028            cmp         param_1,#0x0                            
ram:00016bd2    03d0            beq         LAB_00016bdc                            
ram:00016bd4    0022            movs        param_3,#0x0                            
ram:00016bd6    1146            mov         param_2,param_3                         
ram:00016bd8    fff7b2fe        bl          FUN_00016940                            ;undefined FUN_00016940(void)
                            LAB_00016bdc:                 ;XREF[3,0]:   00016bc4,00016bd2,00016bea
ram:00016bdc    6178            ldrb        param_2,[r4,#0x1]=>DAT_2000208d         
ram:00016bde    a088            ldrh        param_1,[r4,#0x4]=>DAT_20002090         
ram:00016be0    8142            cmp         param_2,param_1                         
ram:00016be2    03d2            bcs         LAB_00016bec                            
ram:00016be4    491c            adds        param_2,param_2,#0x1                    
ram:00016be6    02e0            b           LAB_00016bee                            
                            LAB_00016be8:                 ;XREF[1,0]:   00016bce
ram:00016be8    72b6            cpsid       i                                       
ram:00016bea    f7e7            b           LAB_00016bdc                            
                            LAB_00016bec:                 ;XREF[1,0]:   00016be2
ram:00016bec    0021            movs        param_2,#0x0                            
                            LAB_00016bee:                 ;XREF[1,0]:   00016be6
ram:00016bee    2278            ldrb        param_3,[r4,#0x0]=>DAT_2000208c         
ram:00016bf0    c9b2            uxtb        param_2,param_2                         
ram:00016bf2    9142            cmp         param_2,param_3                         
ram:00016bf4    07d0            beq         LAB_00016c06                            
ram:00016bf6    6678            ldrb        r6,[r4,#0x1]=>DAT_2000208d              
ram:00016bf8    6178            ldrb        param_2,[r4,#0x1]=>DAT_2000208d         
ram:00016bfa    8142            cmp         param_2,param_1                         
ram:00016bfc    01da            bge         LAB_00016c02                            
ram:00016bfe    491c            adds        param_2,param_2,#0x1                    
ram:00016c00    00e0            b           LAB_00016c04                            
                            LAB_00016c02:                 ;XREF[1,0]:   00016bfc
ram:00016c02    0021            movs        param_2,#0x0                            
                            LAB_00016c04:                 ;XREF[1,0]:   00016c00
ram:00016c04    6170            strb        param_2,[r4,#0x1]=>DAT_2000208d         
                            LAB_00016c06:                 ;XREF[1,0]:   00016bf4
ram:00016c06    012d            cmp         r5,#0x1                                 
ram:00016c08    0bd0            beq         LAB_00016c22                            
ram:00016c0a    62b6            cpsie       i                                       
ram:00016c0c    6846            mov         param_1,sp                              
ram:00016c0e    0078            ldrb        param_1=>local_28,[param_1,#0x0]        
ram:00016c10    2fdf            svc         0x2f                                    
ram:00016c12    0228            cmp         param_1,#0x2                            
ram:00016c14    05d0            beq         LAB_00016c22                            
ram:00016c16    0028            cmp         param_1,#0x0                            
ram:00016c18    03d0            beq         LAB_00016c22                            
ram:00016c1a    0022            movs        param_3,#0x0                            
ram:00016c1c    1146            mov         param_2,param_3                         
ram:00016c1e    fff78ffe        bl          FUN_00016940                            ;undefined FUN_00016940(void)
                            LAB_00016c22:                 ;XREF[3,0]:   00016c08,00016c14,00016c18
ram:00016c22    1148            ldr         param_1,[DAT_00016c68]                  ;= 0000FFFFh
ram:00016c24    8642            cmp         r6,param_1                              
ram:00016c26    19d0            beq         LAB_00016c5c                            
ram:00016c28    a068            ldr         param_1,[r4,#0x8]=>DAT_20002094         
ram:00016c2a    f500            lsls        r5,r6,#0x3                              
ram:00016c2c    0499            ldr         param_2,[sp,#local_18+0x28]             
ram:00016c2e    4151            str         param_2,[param_1,r5]                    
ram:00016c30    0299            ldr         param_2,[sp,#local_20+0x28]             
ram:00016c32    0029            cmp         param_2,#0x0                            
ram:00016c34    0cd0            beq         LAB_00016c50                            
ram:00016c36    002f            cmp         r7,#0x0                                 
ram:00016c38    0ad0            beq         LAB_00016c50                            
ram:00016c3a    6088            ldrh        param_1,[r4,#0x2]=>DAT_2000208e         
ram:00016c3c    3a46            mov         param_3,r7                              
ram:00016c3e    4643            muls        r6,param_1                              
ram:00016c40    e068            ldr         param_1,[r4,#0xc]=>DAT_20002098         
ram:00016c42    3018            adds        param_1,r6,param_1                      
ram:00016c44    fff7dafa        bl          FUN_000161fc                            ;undefined FUN_000161fc(undefined4 * ...
ram:00016c48    a068            ldr         param_1,[r4,#0x8]=>DAT_20002094         
ram:00016c4a    2818            adds        param_1,r5,param_1                      
ram:00016c4c    8780            strh        r7,[param_1,#0x4]                       
ram:00016c4e    02e0            b           LAB_00016c56                            
                            LAB_00016c50:                 ;XREF[2,0]:   00016c34,00016c38
ram:00016c50    0021            movs        param_2,#0x0                            
ram:00016c52    2818            adds        param_1,r5,param_1                      
ram:00016c54    8180            strh        param_2,[param_1,#0x4]                  
                            LAB_00016c56:                 ;XREF[1,0]:   00016c4e
ram:00016c56    0020            movs        param_1,#0x0                            
                            LAB_00016c58:                 ;XREF[2,0]:   00016c5e,00016c62
ram:00016c58    05b0            add         sp,#0x14                                
ram:00016c5a    f0bd            pop         {r4,r5,r6,r7,pc}                        
                            LAB_00016c5c:                 ;XREF[1,0]:   00016c26
ram:00016c5c    0420            movs        param_1,#0x4                            
ram:00016c5e    fbe7            b           LAB_00016c58                            
                            LAB_00016c60:                 ;XREF[1,0]:   00016b80
ram:00016c60    0920            movs        param_1,#0x9                            
ram:00016c62    f9e7            b           LAB_00016c58                            
                            DAT_00016c64:                 ;XREF[1,0]:   00016b76
ram:00016c64    8c200020        undefined4  2000208Ch                               
                            DAT_00016c68:                 ;XREF[2,0]:   00016b8a,00016c22
ram:00016c68    ffff0000        undefined4  0000FFFFh                               
                            DAT_00016c6c:                 ;XREF[1,0]:   00016b88
ram:00016c6c    00ed00e0        undefined4  E000ED00h                               
                            DAT_00016c70:                 ;XREF[1,0]:   00016bae
ram:00016c70    00e400e0        undefined4  E000E400h                               
                            ;************************************************************************************************
                            ;*                                           FUNCTION                                           *
                            ;************************************************************************************************
                            ;undefined FUN_00016c74(undefined4 param_1, int param_2, uint param_3, undefined * param_4)
          ;param_1       undefined4          r0                      
          ;param_2       int                 r1                      
          ;param_3       uint                r2                      
          ;param_4       undefined *         r3                      
          ;local_8       undefined4          -8                      ;XREF[1,0]:   00016c7c
          ;local_c       undefined2          -c                      ;XREF[1,0]:   00016c7a
          ;local_10      undefined4         -10                      ;XREF[1,0]:   00016c7e
                                                          ;XREF[1,0]:   00018518
ram:00016c74    0eb5            push        {param_2,param_3,param_4,lr}            
ram:00016c76    04e0            b           LAB_00016c82                            
                            LAB_00016c78:                 ;XREF[1,0]:   00016c8e
ram:00016c78    6846            mov         param_1,sp                              
ram:00016c7a    8188            ldrh        param_2=>local_c,[param_1,#0x4]         
ram:00016c7c    029a            ldr         param_3=>local_8,[sp,#0x8]              
ram:00016c7e    0098            ldr         param_1=>local_10,[sp,#0x0]             
ram:00016c80    9047            blx         param_3                                 
                            LAB_00016c82:                 ;XREF[1,0]:   00016c76
ram:00016c82    02aa            add         param_3,sp,#0x8                         
ram:00016c84    01a9            add         param_2,sp,#0x4                         
ram:00016c86    6846            mov         param_1,sp                              
ram:00016c88    fff752ff        bl          FUN_00016b30                            ;undefined4 FUN_00016b30(int * param_...
ram:00016c8c    0028            cmp         param_1,#0x0                            
ram:00016c8e    f3d0            beq         LAB_00016c78                            
ram:00016c90    0ebd            pop         {param_2,param_3,param_4,pc}            
ram:00016c92    0000            movs        r0,r0                                   
                            ;************************************************************************************************
                            ;*                                           FUNCTION                                           *
                            ;************************************************************************************************
                            ;undefined4 FUN_00016c94(undefined2 param_1, short param_2, uint param_3)
          ;param_1       undefined2          r0                      
          ;param_2       short               r1                      
          ;param_3       uint                r2                      
                                                          ;XREF[1,0]:   00018480
ram:00016c94    30b5            push        {r4,r5,lr}                              
ram:00016c96    cb00            lsls        r3,param_2,#0x3                         
ram:00016c98    0833            adds        r3,#0x8                                 
ram:00016c9a    9db2            uxth        r5,r3                                   
ram:00016c9c    9307            lsls        r3,param_3,#0x1e                        
ram:00016c9e    0024            movs        r4,#0x0                                 
ram:00016ca0    002b            cmp         r3,#0x0                                 
ram:00016ca2    01d0            beq         LAB_00016ca8                            
ram:00016ca4    0720            movs        param_1,#0x7                            
ram:00016ca6    30bd            pop         {r4,r5,pc}                              
                            LAB_00016ca8:                 ;XREF[1,0]:   00016ca2
ram:00016ca8    044b            ldr         r3,[DAT_00016cbc]                       ;= 2000208Ch
ram:00016caa    9a60            str         param_3,[r3,#0x8]=>DAT_20002094         
ram:00016cac    5219            adds        param_3,param_3,r5                      
ram:00016cae    da60            str         param_3,[r3,#0xc]=>DAT_20002098         
ram:00016cb0    5c70            strb        r4,[r3,#0x1]=>DAT_2000208d              
ram:00016cb2    1c70            strb        r4,[r3,#0x0]=>DAT_2000208c              
ram:00016cb4    5880            strh        param_1,[r3,#0x2]=>DAT_2000208e         
ram:00016cb6    9980            strh        param_2,[r3,#0x4]=>DAT_20002090         
ram:00016cb8    0020            movs        param_1,#0x0                            
ram:00016cba    30bd            pop         {r4,r5,pc}                              
                            DAT_00016cbc:                 ;XREF[1,0]:   00016ca8
ram:00016cbc    8c200020        undefined4  2000208Ch                               
                            ;************************************************************************************************
                            ;*                                           FUNCTION                                           *
                            ;************************************************************************************************
                            ;undefined4 FUN_00016cc0(int * param_1, undefined param_2, int param_3)
          ;param_1       int *               r0                      
          ;param_2       undefined           r1                      
          ;param_3       int                 r2                      
                                                          ;XREF[3,0]:   000168cc,00017606,00018146
ram:00016cc0    70b5            push        {r4,r5,r6,lr}                           
ram:00016cc2    114c            ldr         r4,[DAT_00016d08]                       ;= 2000209Ch
ram:00016cc4    a568            ldr         r5,[r4,#0x8]=>DAT_200020a4              
ram:00016cc6    002d            cmp         r5,#0x0                                 
ram:00016cc8    06d0            beq         LAB_00016cd8                            
ram:00016cca    002a            cmp         param_3,#0x0                            
ram:00016ccc    06d0            beq         LAB_00016cdc                            
ram:00016cce    0028            cmp         param_1,#0x0                            
ram:00016cd0    04d0            beq         LAB_00016cdc                            
ram:00016cd2    0023            movs        r3,#0x0                                 
ram:00016cd4    2478            ldrb        r4,[r4,#0x0]=>DAT_2000209c              
ram:00016cd6    09e0            b           LAB_00016cec                            
                            LAB_00016cd8:                 ;XREF[1,0]:   00016cc8
ram:00016cd8    0820            movs        param_1,#0x8                            
ram:00016cda    70bd            pop         {r4,r5,r6,pc}                           
                            LAB_00016cdc:                 ;XREF[2,0]:   00016ccc,00016cd0
ram:00016cdc    0720            movs        param_1,#0x7                            
ram:00016cde    70bd            pop         {r4,r5,r6,pc}                           
                            LAB_00016ce0:                 ;XREF[1,0]:   00016cee
ram:00016ce0    2426            movs        r6,#0x24                                
ram:00016ce2    5e43            muls        r6,r3                                   
ram:00016ce4    ae5d            ldrb        r6,[r5,r6]                              
ram:00016ce6    002e            cmp         r6,#0x0                                 
ram:00016ce8    04d0            beq         LAB_00016cf4                            
ram:00016cea    5b1c            adds        r3,r3,#0x1                              
                            LAB_00016cec:                 ;XREF[1,0]:   00016cd6
ram:00016cec    a342            cmp         r3,r4                                   
ram:00016cee    f7db            blt         LAB_00016ce0                            
ram:00016cf0    0420            movs        param_1,#0x4                            
ram:00016cf2    70bd            pop         {r4,r5,r6,pc}                           
                            LAB_00016cf4:                 ;XREF[1,0]:   00016ce8
ram:00016cf4    2424            movs        r4,#0x24                                
ram:00016cf6    0126            movs        r6,#0x1                                 
ram:00016cf8    5c43            muls        r4,r3                                   
ram:00016cfa    2e55            strb        r6,[r5,r4]                              
ram:00016cfc    6419            adds        r4,r4,r5                                
ram:00016cfe    6170            strb        param_2,[r4,#0x1]                       
ram:00016d00    a261            str         param_3,[r4,#0x18]                      
ram:00016d02    0360            str         r3,[param_1,#0x0]                       
ram:00016d04    0020            movs        param_1,#0x0                            
ram:00016d06    70bd            pop         {r4,r5,r6,pc}                           
                            DAT_00016d08:                 ;XREF[1,0]:   00016cc2
ram:00016d08    9c200020        undefined4  2000209Ch                               
                            ;************************************************************************************************
                            ;*                                           FUNCTION                                           *
                            ;************************************************************************************************
                            ;undefined4 FUN_00016d0c(undefined4 param_1, int param_2, int param_3, uint param_4, undefined4 param_5)
          ;param_1       undefined4          r0                      
          ;param_2       int                 r1                      
          ;param_3       int                 r2                      
          ;param_4       uint                r3                      
          ;param_5       undefined4           0                      ;XREF[1,0]:   00016d28
          ;local_24      undefined4         -24                      ;XREF[1,0]:   00016d9c
                                                          ;XREF[1,0]:   00018492
ram:00016d0c    ffb5            push        {param_1,param_2,param_3,param_4,r4,r...
ram:00016d0e    9807            lsls        param_1,param_4,#0x1e                   
ram:00016d10    0024            movs        r4,#0x0                                 
ram:00016d12    81b0            sub         sp,#0x4                                 
ram:00016d14    1e46            mov         r6,param_4                              
ram:00016d16    1546            mov         r5,param_3                              
ram:00016d18    0f46            mov         r7,param_2                              
ram:00016d1a    0028            cmp         param_1,#0x0                            
ram:00016d1c    0bd1            bne         LAB_00016d36                            
ram:00016d1e    002e            cmp         r6,#0x0                                 
ram:00016d20    09d0            beq         LAB_00016d36                            
ram:00016d22    01f0e1ff        bl          FUN_00018ce8                            ;undefined FUN_00018ce8(void)
ram:00016d26    2249            ldr         param_2,[DAT_00016db0]                  ;= 2000209Ch
ram:00016d28    0a98            ldr         param_1,[sp,#param_5+0x28]              
ram:00016d2a    8861            str         param_1,[param_2,#0x18]=>DAT_200020b4   
ram:00016d2c    0f70            strb        r7,[param_2,#0x0]=>DAT_2000209c         
ram:00016d2e    3246            mov         param_3,r6                              
ram:00016d30    0020            movs        param_1,#0x0                            
ram:00016d32    8e60            str         r6,[param_2,#0x8]=>DAT_200020a4         
ram:00016d34    08e0            b           LAB_00016d48                            
                            LAB_00016d36:                 ;XREF[2,0]:   00016d1c,00016d20
ram:00016d36    0720            movs        param_1,#0x7                            
                            LAB_00016d38:                 ;XREF[1,0]:   00016dae
ram:00016d38    05b0            add         sp,#0x14                                
ram:00016d3a    f0bd            pop         {r4,r5,r6,r7,pc}                        
                            LAB_00016d3c:                 ;XREF[1,0]:   00016d4a
ram:00016d3c    2423            movs        param_4,#0x24                           
ram:00016d3e    4343            muls        param_4,param_1                         
ram:00016d40    d454            strb        r4,[param_3,param_4]                    
ram:00016d42    9b18            adds        param_4,param_4,param_3                 
ram:00016d44    1c75            strb        r4,[param_4,#0x14]                      
ram:00016d46    401c            adds        param_1,param_1,#0x1                    
                            LAB_00016d48:                 ;XREF[1,0]:   00016d34
ram:00016d48    b842            cmp         param_1,r7                              
ram:00016d4a    f7db            blt         LAB_00016d3c                            
ram:00016d4c    2420            movs        param_1,#0x24                           
ram:00016d4e    4743            muls        r7,param_1                              
ram:00016d50    bb19            adds        param_4,r7,r6                           
ram:00016d52    0320            movs        param_1,#0x3                            
ram:00016d54    4870            strb        param_1,[param_2,#0x1]=>DAT_2000209d    
ram:00016d56    0f46            mov         r7,param_2                              
ram:00016d58    1846            mov         param_1,param_4                         
ram:00016d5a    cb60            str         param_4,[param_2,#0xc]=>DAT_200020a8    
ram:00016d5c    1946            mov         param_2,param_4                         
ram:00016d5e    1830            adds        param_1,#0x18                           
ram:00016d60    0022            movs        param_3,#0x0                            
ram:00016d62    1823            movs        param_4,#0x18                           
ram:00016d64    2e46            mov         r6,r5                                   
ram:00016d66    5e43            muls        r6,param_4                              
                            LAB_00016d68:                 ;XREF[1,0]:   00016d7a
ram:00016d68    d300            lsls        param_4,param_3,#0x3                    
ram:00016d6a    5b18            adds        param_4,param_4,param_2                 
ram:00016d6c    1c70            strb        r4,[param_4,#0x0]                       
ram:00016d6e    5c70            strb        r4,[param_4,#0x1]                       
ram:00016d70    9d70            strb        r5,[param_4,#0x2]                       
ram:00016d72    5860            str         param_1,[param_4,#0x4]                  
ram:00016d74    3018            adds        param_1,r6,param_1                      
ram:00016d76    521c            adds        param_3,param_3,#0x1                    
ram:00016d78    032a            cmp         param_3,#0x3                            
ram:00016d7a    f5db            blt         LAB_00016d68                            
ram:00016d7c    0020            movs        param_1,#0x0                            
ram:00016d7e    c043            mvns        param_1,param_1                         
ram:00016d80    3861            str         param_1,[r7,#0x10]=>DAT_200020ac        
ram:00016d82    bc70            strb        r4,[r7,#0x2]=>DAT_2000209e              
ram:00016d84    fc70            strb        r4,[r7,#0x3]=>DAT_2000209f              
ram:00016d86    0124            movs        r4,#0x1                                 
ram:00016d88    0a48            ldr         param_1,[DAT_00016db4]                  ;= E000E280h
ram:00016d8a    2405            lsls        r4,r4,#0x14                             
ram:00016d8c    0460            str         r4,[param_1,#0x0]=>DAT_e000e280         
ram:00016d8e    0321            movs        param_2,#0x3                            
ram:00016d90    1420            movs        param_1,#0x14                           
ram:00016d92    fff7d1fa        bl          FUN_00016338                            ;undefined FUN_00016338(uint param_1,...
ram:00016d96    0848            ldr         param_1,[DAT_00016db8]                  ;= E000E100h
ram:00016d98    0460            str         r4,[param_1,#0x0]=>DAT_e000e100         
ram:00016d9a    084c            ldr         r4,[DAT_00016dbc]                       ;= 40011500h
ram:00016d9c    0198            ldr         param_1,[sp,#local_24+0x28]             
ram:00016d9e    a060            str         param_1,[r4,#offset DAT_40011508 &0xff] 
ram:00016da0    0321            movs        param_2,#0x3                            
ram:00016da2    1120            movs        param_1,#0x11                           
ram:00016da4    fff7c8fa        bl          FUN_00016338                            ;undefined FUN_00016338(uint param_1,...
ram:00016da8    6068            ldr         param_1,[r4,#offset DAT_40011504 &0xff] 
ram:00016daa    7861            str         param_1,[r7,#0x14]=>DAT_200020b0        
ram:00016dac    0020            movs        param_1,#0x0                            
ram:00016dae    c3e7            b           LAB_00016d38                            
                            DAT_00016db0:                 ;XREF[1,0]:   00016d26
ram:00016db0    9c200020        undefined4  2000209Ch                               
                            DAT_00016db4:                 ;XREF[1,0]:   00016d88
ram:00016db4    80e200e0        undefined4  E000E280h                               
                            DAT_00016db8:                 ;XREF[1,0]:   00016d96
ram:00016db8    00e100e0        undefined4  E000E100h                               
                            DAT_00016dbc:                 ;XREF[1,0]:   00016d9a
ram:00016dbc    00150140        undefined4  40011500h                               
                            ;************************************************************************************************
                            ;*                                           FUNCTION                                           *
                            ;************************************************************************************************
                            ;longlong FUN_00016dc0(uint param_1, uint param_2, undefined4 param_3, undefined4 param_4)
          ;param_1       uint                r0                      
          ;param_2       uint                r1                      
          ;param_3       undefined4          r2                      
          ;param_4       undefined4          r3                      
          ;local_1c      undefined4         -1c                      ;XREF[2,0]:   00016e00,00016e20
          ;local_20      undefined4         -20                      ;XREF[1,0]:   00016e26
                                                          ;XREF[4,0]:   00017c6e,00017fc2,0001820a,00018246
ram:00016dc0    feb5            push        {param_2,param_3,param_4,r4,r5,r6,r7,lr}
ram:00016dc2    0446            mov         r4,param_1                              
ram:00016dc4    1d48            ldr         param_1,[DAT_00016e3c]                  ;= 2000209Ch
ram:00016dc6    1746            mov         r7,param_3                              
ram:00016dc8    8268            ldr         param_3,[param_1,#0x8]=>DAT_200020a4    
ram:00016dca    0d46            mov         r5,param_2                              
ram:00016dcc    002a            cmp         param_3,#0x0                            
ram:00016dce    0cd0            beq         LAB_00016dea                            
ram:00016dd0    0178            ldrb        param_2,[param_1,#0x0]=>DAT_2000209c    
ram:00016dd2    8c42            cmp         r4,param_2                              
ram:00016dd4    01d2            bcs         LAB_00016dda                            
ram:00016dd6    052d            cmp         r5,#0x5                                 
ram:00016dd8    01d2            bcs         LAB_00016dde                            
                            LAB_00016dda:                 ;XREF[1,0]:   00016dd4
ram:00016dda    0720            movs        param_1,#0x7                            
ram:00016ddc    febd            pop         {param_2,param_3,param_4,r4,r5,r6,r7,pc}
                            LAB_00016dde:                 ;XREF[1,0]:   00016dd8
ram:00016dde    2146            mov         param_2,r4                              
ram:00016de0    2423            movs        param_4,#0x24                           
ram:00016de2    5943            muls        param_2,param_4                         
ram:00016de4    535c            ldrb        param_4,[param_3,param_2]               
ram:00016de6    012b            cmp         param_4,#0x1                            
ram:00016de8    01d0            beq         LAB_00016dee                            
                            LAB_00016dea:                 ;XREF[1,0]:   00016dce
ram:00016dea    0820            movs        param_1,#0x8                            
ram:00016dec    febd            pop         {param_2,param_3,param_4,r4,r5,r6,r7,pc}
                            LAB_00016dee:                 ;XREF[1,0]:   00016de8
ram:00016dee    8818            adds        param_1,param_2,param_3                 
ram:00016df0    4078            ldrb        param_1,[param_1,#0x1]                  
ram:00016df2    0128            cmp         param_1,#0x1                            
ram:00016df4    1dd0            beq         LAB_00016e32                            
ram:00016df6    0026            movs        r6,#0x0                                 
                            LAB_00016df8:                 ;XREF[1,0]:   00016e34
ram:00016df8    02f050fa        bl          FUN_0001929c                            ;undefined4 FUN_0001929c(void)
ram:00016dfc    c000            lsls        param_1,param_1,#0x3                    
ram:00016dfe    0f49            ldr         param_2,[DAT_00016e3c]                  ;= 2000209Ch
ram:00016e00    0190            str         param_1,[sp,#local_1c+0x20]             
ram:00016e02    c968            ldr         param_2,[param_2,#0xc]=>DAT_200020a8    
ram:00016e04    4018            adds        param_1,param_1,param_2                 
ram:00016e06    6946            mov         param_2,sp                              
ram:00016e08    02f072fa        bl          FUN_000192f0                            ;int FUN_000192f0(byte * param_1, uin...
ram:00016e0c    0028            cmp         param_1,#0x0                            
ram:00016e0e    12d0            beq         LAB_00016e36                            
ram:00016e10    0121            movs        param_2,#0x1                            
ram:00016e12    0170            strb        param_2,[param_1,#0x0]                  
ram:00016e14    0a49            ldr         param_2,[DAT_00016e40]                  ;= 40011500h
ram:00016e16    4460            str         r4,[param_1,#0x4]                       
ram:00016e18    4968            ldr         param_2,[param_2,#offset DAT_40011504...
ram:00016e1a    0830            adds        param_1,#0x8                            
ram:00016e1c    e2c0            stmia       param_1!,{param_2,r5,r6,r7}             
ram:00016e1e    0749            ldr         param_2,[DAT_00016e3c]                  ;= 2000209Ch
ram:00016e20    0198            ldr         param_1,[sp,#local_1c+0x20]             
ram:00016e22    c968            ldr         param_2,[param_2,#0xc]=>DAT_200020a8    
ram:00016e24    4118            adds        param_2,param_1,param_2                 
ram:00016e26    0098            ldr         param_1,[sp,#0x0]=>local_20             
ram:00016e28    4870            strb        param_1,[param_2,#0x1]                  
ram:00016e2a    02f04df9        bl          FUN_000190c8                            ;undefined FUN_000190c8(void)
ram:00016e2e    0020            movs        param_1,#0x0                            
ram:00016e30    febd            pop         {param_2,param_3,param_4,r4,r5,r6,r7,pc}
                            LAB_00016e32:                 ;XREF[1,0]:   00016df4
ram:00016e32    2e46            mov         r6,r5                                   
ram:00016e34    e0e7            b           LAB_00016df8                            
                            LAB_00016e36:                 ;XREF[1,0]:   00016e0e
ram:00016e36    0420            movs        param_1,#0x4                            
ram:00016e38    febd            pop         {param_2,param_3,param_4,r4,r5,r6,r7,pc}
ram:00016e3a    0000            movs        r0,r0                                   
                            DAT_00016e3c:                 ;XREF[3,0]:   00016dc4,00016dfe,00016e1e
ram:00016e3c    9c200020        undefined4  2000209Ch                               
                            DAT_00016e40:                 ;XREF[1,0]:   00016e14
ram:00016e40    00150140        undefined4  40011500h                               
                            ;************************************************************************************************
                            ;*                                           FUNCTION                                           *
                            ;************************************************************************************************
                            ;undefined4 FUN_00016e44(uint param_1, undefined4 param_2, undefined4 param_3, uint param_4)
          ;param_1       uint                r0                      
          ;param_2       undefined4          r1                      
          ;param_3       undefined4          r2                      
          ;param_4       uint                r3                      
          ;local_18      undefined4         -18                      ;XREF[1,0]:   00016e86
                                                          ;XREF[4,0]:   0001767e,000176ae,00017faa,00018282
ram:00016e44    f8b5            push        {param_4,r4,r5,r6,r7,lr}                
ram:00016e46    144d            ldr         r5,[DAT_00016e98]                       ;= 2000209Ch
ram:00016e48    0446            mov         r4,param_1                              
ram:00016e4a    a868            ldr         param_1,[r5,#0x8]=>DAT_200020a4         
ram:00016e4c    0028            cmp         param_1,#0x0                            
ram:00016e4e    09d0            beq         LAB_00016e64                            
ram:00016e50    2978            ldrb        param_2,[r5,#0x0]=>DAT_2000209c         
ram:00016e52    8c42            cmp         r4,param_2                              
ram:00016e54    01d3            bcc         LAB_00016e5a                            
ram:00016e56    0720            movs        param_1,#0x7                            
ram:00016e58    f8bd            pop         {param_4,r4,r5,r6,r7,pc}                
                            LAB_00016e5a:                 ;XREF[1,0]:   00016e54
ram:00016e5a    2421            movs        param_2,#0x24                           
ram:00016e5c    6143            muls        param_2,r4                              
ram:00016e5e    405c            ldrb        param_1,[param_1,param_2]               
ram:00016e60    0128            cmp         param_1,#0x1                            
ram:00016e62    01d0            beq         LAB_00016e68                            
                            LAB_00016e64:                 ;XREF[1,0]:   00016e4e
ram:00016e64    0820            movs        param_1,#0x8                            
ram:00016e66    f8bd            pop         {param_4,r4,r5,r6,r7,pc}                
                            LAB_00016e68:                 ;XREF[1,0]:   00016e62
ram:00016e68    02f018fa        bl          FUN_0001929c                            ;undefined4 FUN_0001929c(void)
ram:00016e6c    c600            lsls        r6,param_1,#0x3                         
ram:00016e6e    e868            ldr         param_1,[r5,#0xc]=>DAT_200020a8         
ram:00016e70    6946            mov         param_2,sp                              
ram:00016e72    3018            adds        param_1,r6,param_1                      
ram:00016e74    02f03cfa        bl          FUN_000192f0                            ;int FUN_000192f0(byte * param_1, uin...
ram:00016e78    0028            cmp         param_1,#0x0                            
ram:00016e7a    0ad0            beq         LAB_00016e92                            
ram:00016e7c    0221            movs        param_2,#0x2                            
ram:00016e7e    0170            strb        param_2,[param_1,#0x0]                  
ram:00016e80    4460            str         r4,[param_1,#0x4]                       
ram:00016e82    e868            ldr         param_1,[r5,#0xc]=>DAT_200020a8         
ram:00016e84    3118            adds        param_2,r6,param_1                      
ram:00016e86    0098            ldr         param_1,[sp,#0x0]=>local_18             
ram:00016e88    4870            strb        param_1,[param_2,#0x1]                  
ram:00016e8a    02f01df9        bl          FUN_000190c8                            ;undefined FUN_000190c8(void)
ram:00016e8e    0020            movs        param_1,#0x0                            
ram:00016e90    f8bd            pop         {param_4,r4,r5,r6,r7,pc}                
                            LAB_00016e92:                 ;XREF[1,0]:   00016e7a
ram:00016e92    0420            movs        param_1,#0x4                            
ram:00016e94    f8bd            pop         {param_4,r4,r5,r6,r7,pc}                
ram:00016e96    0000            movs        r0,r0                                   
                            DAT_00016e98:                 ;XREF[1,0]:   00016e46
ram:00016e98    9c200020        undefined4  2000209Ch                               
                            ;************************************************************************************************
                            ;*                                           FUNCTION                                           *
                            ;************************************************************************************************
                            ;undefined8 FUN_00016e9c(ushort * param_1)
          ;param_1       ushort *            r0                      
          ;local_18      undefined4         -18                      ;XREF[1,0]:   00016f38
          ;local_1c      undefined2         -1c                      ;XREF[1,0]:   00016f1c
          ;local_1e      undefined2         -1e                      ;XREF[1,0]:   00016f1a
          ;local_20      undefined2         -20                      ;XREF[1,0]:   00016f18
          ;local_24      undefined4         -24                      ;XREF[1,0]:   00016f14
          ;local_28      undefined4         -28                      ;XREF[1,0]:   00016f10
          ;local_2b      undefined1         -2b                      ;XREF[1,0]:   00016f2a
          ;local_2c      undefined1         -2c                      ;XREF[1,0]:   00016f34
          ;local_2e      undefined1         -2e                      ;XREF[1,0]:   00016ece
          ;local_30      undefined2         -30                      ;XREF[1,0]:   00016ed4
          ;local_34      undefined4         -34                      ;XREF[2,3]:   00016ee0,00016ee2,00016eec,00016eee,00016f04
          ;local_38      undefined4         -38                      ;XREF[1,0]:   00016ec8
          ;local_3c      undefined4         -3c                      ;XREF[1,0]:   00016ec4
          ;local_40      undefined4         -40                      ;XREF[1,0]:   00016ec2
          ;local_44      undefined4         -44                      ;XREF[1,0]:   00016ec0
          ;local_4c      undefined4         -4c                      ;XREF[1,0]:   00016ebe
          ;local_50      undefined1         -50                      ;XREF[2,0]:   00016eae,00016eba
                                                          ;XREF[1,0]:   00017584
ram:00016e9c    f0b5            push        {r4,r5,r6,r7,lr}                        
ram:00016e9e    8fb0            sub         sp,#0x3c                                
ram:00016ea0    0f46            mov         r7,r1                                   
ram:00016ea2    0546            mov         r5,param_1                              
ram:00016ea4    1c21            movs        r1,#0x1c                                
ram:00016ea6    6846            mov         param_1,sp                              
ram:00016ea8    fff7c1f9        bl          FUN_0001622e                            ;undefined FUN_0001622e(undefined * p...
ram:00016eac    6846            mov         param_1,sp                              
ram:00016eae    0178            ldrb        r1,[param_1,#0x0]=>local_50             
ram:00016eb0    0226            movs        r6,#0x2                                 
ram:00016eb2    3143            orrs        r1,r6                                   
ram:00016eb4    0820            movs        param_1,#0x8                            
ram:00016eb6    0143            orrs        r1,param_1                              
ram:00016eb8    6846            mov         param_1,sp                              
ram:00016eba    0170            strb        r1,[param_1,#0x0]=>local_50             
ram:00016ebc    0024            movs        r4,#0x0                                 
ram:00016ebe    0194            str         r4,[sp,#local_4c+0x50]                  
ram:00016ec0    0394            str         r4,[sp,#local_44+0x50]                  
ram:00016ec2    0494            str         r4,[sp,#local_40+0x50]                  
ram:00016ec4    0594            str         r4,[sp,#local_3c+0x50]                  
ram:00016ec6    3220            movs        param_1,#0x32                           
ram:00016ec8    0694            str         r4,[sp,#local_38+0x50]                  
ram:00016eca    415d            ldrb        r1,[param_1,r5]                         
ram:00016ecc    08a8            add         param_1,sp,#0x20                        
ram:00016ece    8170            strb        r1,[r0,#local_2e+0x30]                  
ram:00016ed0    1c49            ldr         r1,[DAT_00016f44]                       ;= 00001528h
ram:00016ed2    6846            mov         param_1,sp                              
ram:00016ed4    0184            strh        r1,[r0,#local_30+0x50]                  
ram:00016ed6    601c            adds        param_1,r4,#0x1                         
ram:00016ed8    0107            lsls        r1,param_1,#0x1c                        
ram:00016eda    090f            lsrs        r1,r1,#0x1c                             
ram:00016edc    6846            mov         param_1,sp                              
ram:00016ede    1031            adds        r1,#0x10                                
ram:00016ee0    0794            str         r4,[sp,#local_34+0x50]                  
ram:00016ee2    0177            strb        r1,[r0,#local_34+0x50]                  
ram:00016ee4    0120            movs        param_1,#0x1                            
ram:00016ee6    0146            mov         r1,param_1                              
ram:00016ee8    6846            mov         param_1,sp                              
ram:00016eea    1031            adds        r1,#0x10                                
ram:00016eec    4177            strb        r1,[r0,#local_34+0x51]                  
ram:00016eee    807f            ldrb        param_1,[r0,#local_34+0x52]             
ram:00016ef0    f921            movs        r1,#0xf9                                
ram:00016ef2    0840            ands        param_1,r1                              
ram:00016ef4    f721            movs        r1,#0xf7                                
ram:00016ef6    801c            adds        param_1,param_1,#0x2                    
ram:00016ef8    0840            ands        param_1,r1                              
ram:00016efa    ef21            movs        r1,#0xef                                
ram:00016efc    0840            ands        param_1,r1                              
ram:00016efe    4108            lsrs        r1,param_1,#0x1                         
ram:00016f00    4900            lsls        r1,r1,#0x1                              
ram:00016f02    6846            mov         param_1,sp                              
ram:00016f04    8177            strb        r1,[r0,#local_34+0x52]                  
ram:00016f06    1421            movs        r1,#0x14                                
ram:00016f08    0aa8            add         param_1,sp,#0x28                        
ram:00016f0a    fff790f9        bl          FUN_0001622e                            ;undefined FUN_0001622e(undefined * p...
ram:00016f0e    08a8            add         param_1,sp,#0x20                        
ram:00016f10    0a90            str         param_1,[sp,#local_28+0x50]             
ram:00016f12    07a8            add         param_1,sp,#0x1c                        
ram:00016f14    0b90            str         param_1,[sp,#local_24+0x50]             
ram:00016f16    6846            mov         param_1,sp                              
ram:00016f18    0686            strh        r6,[r0,#local_20+0x50]                  
ram:00016f1a    4486            strh        r4,[r0,#local_1e+0x50]                  
ram:00016f1c    8686            strh        r6,[r0,#local_1c+0x50]                  
ram:00016f1e    7868            ldr         param_1,[r7,#0x4]                       
ram:00016f20    2b46            mov         r3,r5                                   
ram:00016f22    408b            ldrh        param_1,[param_1,#0x1a]                 
ram:00016f24    0aaa            add         r2,sp,#0x28                             
ram:00016f26    010a            lsrs        r1,param_1,#0x8                         
ram:00016f28    08a8            add         param_1,sp,#0x20                        
ram:00016f2a    4171            strb        r1,[r0,#local_2b+0x30]                  
ram:00016f2c    7868            ldr         param_1,[r7,#0x4]                       
ram:00016f2e    2233            adds        r3,#0x22                                
ram:00016f30    817e            ldrb        r1,[param_1,#0x1a]                      
ram:00016f32    08a8            add         param_1,sp,#0x20                        
ram:00016f34    0171            strb        r1,[r0,#local_2c+0x30]                  
ram:00016f36    09a8            add         param_1,sp,#0x24                        
ram:00016f38    0e90            str         param_1,[sp,#local_18+0x50]             
ram:00016f3a    2888            ldrh        param_1,[r5,#0x0]                       
ram:00016f3c    6946            mov         r1,sp                                   
ram:00016f3e    a2df            svc         0xa2                                    
ram:00016f40    0fb0            add         sp,#0x3c                                
ram:00016f42    f0bd            pop         {r4,r5,r6,r7,pc}                        
                            DAT_00016f44:                 ;XREF[1,0]:   00016ed0
ram:00016f44    28150000        undefined4  00001528h                               
                            ;************************************************************************************************
                            ;*                                           FUNCTION                                           *
                            ;************************************************************************************************
                            ;undefined8 FUN_00016f48(ushort * param_1)
          ;param_1       ushort *            r0                      
          ;local_14      undefined4         -14                      ;XREF[1,0]:   00016fc2
          ;local_18      undefined2         -18                      ;XREF[1,0]:   00016fba
          ;local_1a      undefined2         -1a                      ;XREF[1,0]:   00016fb8
          ;local_1c      undefined2         -1c                      ;XREF[1,0]:   00016fb6
          ;local_20      undefined4         -20                      ;XREF[1,0]:   00016fb0
          ;local_24      undefined4         -24                      ;XREF[1,0]:   00016fac
          ;local_26      undefined1         -26                      ;XREF[1,0]:   00016f74
          ;local_28      undefined2         -28                      ;XREF[1,0]:   00016f7a
          ;local_2c      undefined4         -2c                      ;XREF[2,3]:   00016f84,00016f86,00016f8a,00016f8c,00016fa0
          ;local_30      undefined4         -30                      ;XREF[1,0]:   00016f6e
          ;local_34      undefined4         -34                      ;XREF[1,0]:   00016f6a
          ;local_38      undefined4         -38                      ;XREF[1,0]:   00016f68
          ;local_3c      undefined4         -3c                      ;XREF[1,0]:   00016f66
          ;local_44      undefined4         -44                      ;XREF[1,0]:   00016f64
          ;local_48      undefined1         -48                      ;XREF[2,0]:   00016f5a,00016f60
                                                          ;XREF[1,0]:   00017560
ram:00016f48    70b5            push        {r4,r5,r6,lr}                           
ram:00016f4a    8eb0            sub         sp,#0x38                                
ram:00016f4c    0e46            mov         r6,r1                                   
ram:00016f4e    0546            mov         r5,param_1                              
ram:00016f50    1c21            movs        r1,#0x1c                                
ram:00016f52    6846            mov         param_1,sp                              
ram:00016f54    fff76bf9        bl          FUN_0001622e                            ;undefined FUN_0001622e(undefined * p...
ram:00016f58    6a46            mov         r2,sp                                   
ram:00016f5a    1078            ldrb        param_1,[r2,#0x0]=>local_48             
ram:00016f5c    0a21            movs        r1,#0xa                                 
ram:00016f5e    0843            orrs        param_1,r1                              
ram:00016f60    1070            strb        param_1,[r2,#0x0]=>local_48             
ram:00016f62    0024            movs        r4,#0x0                                 
ram:00016f64    0194            str         r4,[sp,#local_44+0x48]                  
ram:00016f66    0394            str         r4,[sp,#local_3c+0x48]                  
ram:00016f68    0494            str         r4,[sp,#local_38+0x48]                  
ram:00016f6a    0594            str         r4,[sp,#local_34+0x48]                  
ram:00016f6c    3220            movs        param_1,#0x32                           
ram:00016f6e    0694            str         r4,[sp,#local_30+0x48]                  
ram:00016f70    405d            ldrb        param_1,[param_1,r5]                    
ram:00016f72    08aa            add         r2,sp,#0x20                             
ram:00016f74    9070            strb        param_1,[r2,#local_26+0x28]             
ram:00016f76    1748            ldr         param_1,[DAT_00016fd4]                  ;= 00001525h
ram:00016f78    6a46            mov         r2,sp                                   
ram:00016f7a    1084            strh        param_1,[r2,#local_28+0x48]             
ram:00016f7c    601c            adds        param_1,r4,#0x1                         
ram:00016f7e    0007            lsls        param_1,param_1,#0x1c                   
ram:00016f80    000f            lsrs        param_1,param_1,#0x1c                   
ram:00016f82    1030            adds        param_1,#0x10                           
ram:00016f84    0794            str         r4,[sp,#local_2c+0x48]                  
ram:00016f86    1077            strb        param_1,[r2,#local_2c+0x48]             
ram:00016f88    1120            movs        param_1,#0x11                           
ram:00016f8a    5077            strb        param_1,[r2,#local_2c+0x49]             
ram:00016f8c    907f            ldrb        param_1,[r2,#local_2c+0x4a]             
ram:00016f8e    f921            movs        r1,#0xf9                                
ram:00016f90    0840            ands        param_1,r1                              
ram:00016f92    f721            movs        r1,#0xf7                                
ram:00016f94    801c            adds        param_1,param_1,#0x2                    
ram:00016f96    0840            ands        param_1,r1                              
ram:00016f98    ef21            movs        r1,#0xef                                
ram:00016f9a    0840            ands        param_1,r1                              
ram:00016f9c    4008            lsrs        param_1,param_1,#0x1                    
ram:00016f9e    4000            lsls        param_1,param_1,#0x1                    
ram:00016fa0    9077            strb        param_1,[r2,#local_2c+0x4a]             
ram:00016fa2    1421            movs        r1,#0x14                                
ram:00016fa4    09a8            add         param_1,sp,#0x24                        
ram:00016fa6    fff742f9        bl          FUN_0001622e                            ;undefined FUN_0001622e(undefined * p...
ram:00016faa    08a8            add         param_1,sp,#0x20                        
ram:00016fac    0990            str         param_1,[sp,#local_24+0x48]             
ram:00016fae    07a8            add         param_1,sp,#0x1c                        
ram:00016fb0    0a90            str         param_1,[sp,#local_20+0x48]             
ram:00016fb2    0120            movs        param_1,#0x1                            
ram:00016fb4    6a46            mov         r2,sp                                   
ram:00016fb6    9085            strh        param_1,[r2,#local_1c+0x48]             
ram:00016fb8    d485            strh        r4,[r2,#local_1a+0x48]                  
ram:00016fba    1086            strh        param_1,[r2,#local_18+0x48]             
ram:00016fbc    7068            ldr         param_1,[r6,#0x4]                       
ram:00016fbe    2b46            mov         r3,r5                                   
ram:00016fc0    1730            adds        param_1,#0x17                           
ram:00016fc2    0d90            str         param_1,[sp,#local_14+0x48]             
ram:00016fc4    2888            ldrh        param_1,[r5,#0x0]                       
ram:00016fc6    0a33            adds        r3,#0xa                                 
ram:00016fc8    09aa            add         r2,sp,#0x24                             
ram:00016fca    6946            mov         r1,sp                                   
ram:00016fcc    a2df            svc         0xa2                                    
ram:00016fce    0eb0            add         sp,#0x38                                
ram:00016fd0    70bd            pop         {r4,r5,r6,pc}                           
ram:00016fd2    0000            movs        r0,r0                                   
                            DAT_00016fd4:                 ;XREF[1,0]:   00016f76
ram:00016fd4    25150000        undefined4  00001525h                               
                            ;************************************************************************************************
                            ;*                                           FUNCTION                                           *
                            ;************************************************************************************************
                            ;undefined8 FUN_00016fd8(ushort * param_1)
          ;param_1       ushort *            r0                      
          ;local_18      undefined4         -18                      ;XREF[1,0]:   00017074
          ;local_1c      undefined2         -1c                      ;XREF[1,0]:   00017058
          ;local_1e      undefined2         -1e                      ;XREF[1,0]:   00017056
          ;local_20      undefined2         -20                      ;XREF[1,0]:   00017054
          ;local_24      undefined4         -24                      ;XREF[1,0]:   00017050
          ;local_28      undefined4         -28                      ;XREF[1,0]:   0001704c
          ;local_2b      undefined1         -2b                      ;XREF[1,0]:   00017066
          ;local_2c      undefined1         -2c                      ;XREF[1,0]:   00017070
          ;local_2e      undefined1         -2e                      ;XREF[1,0]:   0001700a
          ;local_30      undefined2         -30                      ;XREF[1,0]:   00017010
          ;local_34      undefined4         -34                      ;XREF[2,3]:   0001701c,0001701e,00017028,0001702a,00017040
          ;local_38      undefined4         -38                      ;XREF[1,0]:   00017004
          ;local_3c      undefined4         -3c                      ;XREF[1,0]:   00017000
          ;local_40      undefined4         -40                      ;XREF[1,0]:   00016ffe
          ;local_44      undefined4         -44                      ;XREF[1,0]:   00016ffc
          ;local_4c      undefined4         -4c                      ;XREF[1,0]:   00016ffa
          ;local_50      undefined1         -50                      ;XREF[2,0]:   00016fea,00016ff6
                                                          ;XREF[1,0]:   00017578
ram:00016fd8    f0b5            push        {r4,r5,r6,r7,lr}                        
ram:00016fda    8fb0            sub         sp,#0x3c                                
ram:00016fdc    0f46            mov         r7,r1                                   
ram:00016fde    0546            mov         r5,param_1                              
ram:00016fe0    1c21            movs        r1,#0x1c                                
ram:00016fe2    6846            mov         param_1,sp                              
ram:00016fe4    fff723f9        bl          FUN_0001622e                            ;undefined FUN_0001622e(undefined * p...
ram:00016fe8    6846            mov         param_1,sp                              
ram:00016fea    0178            ldrb        r1,[param_1,#0x0]=>local_50             
ram:00016fec    0226            movs        r6,#0x2                                 
ram:00016fee    3143            orrs        r1,r6                                   
ram:00016ff0    0820            movs        param_1,#0x8                            
ram:00016ff2    0143            orrs        r1,param_1                              
ram:00016ff4    6846            mov         param_1,sp                              
ram:00016ff6    0170            strb        r1,[param_1,#0x0]=>local_50             
ram:00016ff8    0024            movs        r4,#0x0                                 
ram:00016ffa    0194            str         r4,[sp,#local_4c+0x50]                  
ram:00016ffc    0394            str         r4,[sp,#local_44+0x50]                  
ram:00016ffe    0494            str         r4,[sp,#local_40+0x50]                  
ram:00017000    0594            str         r4,[sp,#local_3c+0x50]                  
ram:00017002    3220            movs        param_1,#0x32                           
ram:00017004    0694            str         r4,[sp,#local_38+0x50]                  
ram:00017006    415d            ldrb        r1,[param_1,r5]                         
ram:00017008    08a8            add         param_1,sp,#0x20                        
ram:0001700a    8170            strb        r1,[r0,#local_2e+0x30]                  
ram:0001700c    1c49            ldr         r1,[DAT_00017080]                       ;= 00001527h
ram:0001700e    6846            mov         param_1,sp                              
ram:00017010    0184            strh        r1,[r0,#local_30+0x50]                  
ram:00017012    601c            adds        param_1,r4,#0x1                         
ram:00017014    0107            lsls        r1,param_1,#0x1c                        
ram:00017016    090f            lsrs        r1,r1,#0x1c                             
ram:00017018    6846            mov         param_1,sp                              
ram:0001701a    1031            adds        r1,#0x10                                
ram:0001701c    0794            str         r4,[sp,#local_34+0x50]                  
ram:0001701e    0177            strb        r1,[r0,#local_34+0x50]                  
ram:00017020    0120            movs        param_1,#0x1                            
ram:00017022    0146            mov         r1,param_1                              
ram:00017024    6846            mov         param_1,sp                              
ram:00017026    1031            adds        r1,#0x10                                
ram:00017028    4177            strb        r1,[r0,#local_34+0x51]                  
ram:0001702a    807f            ldrb        param_1,[r0,#local_34+0x52]             
ram:0001702c    f921            movs        r1,#0xf9                                
ram:0001702e    0840            ands        param_1,r1                              
ram:00017030    f721            movs        r1,#0xf7                                
ram:00017032    801c            adds        param_1,param_1,#0x2                    
ram:00017034    0840            ands        param_1,r1                              
ram:00017036    ef21            movs        r1,#0xef                                
ram:00017038    0840            ands        param_1,r1                              
ram:0001703a    4108            lsrs        r1,param_1,#0x1                         
ram:0001703c    4900            lsls        r1,r1,#0x1                              
ram:0001703e    6846            mov         param_1,sp                              
ram:00017040    8177            strb        r1,[r0,#local_34+0x52]                  
ram:00017042    1421            movs        r1,#0x14                                
ram:00017044    0aa8            add         param_1,sp,#0x28                        
ram:00017046    fff7f2f8        bl          FUN_0001622e                            ;undefined FUN_0001622e(undefined * p...
ram:0001704a    08a8            add         param_1,sp,#0x20                        
ram:0001704c    0a90            str         param_1,[sp,#local_28+0x50]             
ram:0001704e    07a8            add         param_1,sp,#0x1c                        
ram:00017050    0b90            str         param_1,[sp,#local_24+0x50]             
ram:00017052    6846            mov         param_1,sp                              
ram:00017054    0686            strh        r6,[r0,#local_20+0x50]                  
ram:00017056    4486            strh        r4,[r0,#local_1e+0x50]                  
ram:00017058    8686            strh        r6,[r0,#local_1c+0x50]                  
ram:0001705a    7868            ldr         param_1,[r7,#0x4]                       
ram:0001705c    2b46            mov         r3,r5                                   
ram:0001705e    008b            ldrh        param_1,[param_1,#0x18]                 
ram:00017060    0aaa            add         r2,sp,#0x28                             
ram:00017062    010a            lsrs        r1,param_1,#0x8                         
ram:00017064    08a8            add         param_1,sp,#0x20                        
ram:00017066    4171            strb        r1,[r0,#local_2b+0x30]                  
ram:00017068    7868            ldr         param_1,[r7,#0x4]                       
ram:0001706a    1a33            adds        r3,#0x1a                                
ram:0001706c    017e            ldrb        r1,[param_1,#0x18]                      
ram:0001706e    08a8            add         param_1,sp,#0x20                        
ram:00017070    0171            strb        r1,[r0,#local_2c+0x30]                  
ram:00017072    09a8            add         param_1,sp,#0x24                        
ram:00017074    0e90            str         param_1,[sp,#local_18+0x50]             
ram:00017076    2888            ldrh        param_1,[r5,#0x0]                       
ram:00017078    6946            mov         r1,sp                                   
ram:0001707a    a2df            svc         0xa2                                    
ram:0001707c    0fb0            add         sp,#0x3c                                
ram:0001707e    f0bd            pop         {r4,r5,r6,r7,pc}                        
                            DAT_00017080:                 ;XREF[1,0]:   0001700c
ram:00017080    27150000        undefined4  00001527h                               
                            ;************************************************************************************************
                            ;*                                           FUNCTION                                           *
                            ;************************************************************************************************
                            ;undefined8 FUN_00017084(ushort * param_1)
          ;param_1       ushort *            r0                      
          ;local_14      undefined4         -14                      ;XREF[1,0]:   000170fe
          ;local_18      undefined2         -18                      ;XREF[1,0]:   000170f6
          ;local_1a      undefined2         -1a                      ;XREF[1,0]:   000170f4
          ;local_1c      undefined2         -1c                      ;XREF[1,0]:   000170f2
          ;local_20      undefined4         -20                      ;XREF[1,0]:   000170ec
          ;local_24      undefined4         -24                      ;XREF[1,0]:   000170e8
          ;local_26      undefined1         -26                      ;XREF[1,0]:   000170b0
          ;local_28      undefined2         -28                      ;XREF[1,0]:   000170b6
          ;local_2c      undefined4         -2c                      ;XREF[2,3]:   000170c0,000170c2,000170c6,000170c8,000170dc
          ;local_30      undefined4         -30                      ;XREF[1,0]:   000170aa
          ;local_34      undefined4         -34                      ;XREF[1,0]:   000170a6
          ;local_38      undefined4         -38                      ;XREF[1,0]:   000170a4
          ;local_3c      undefined4         -3c                      ;XREF[1,0]:   000170a2
          ;local_44      undefined4         -44                      ;XREF[1,0]:   000170a0
          ;local_48      undefined1         -48                      ;XREF[2,0]:   00017096,0001709c
                                                          ;XREF[1,0]:   0001756c
ram:00017084    70b5            push        {r4,r5,r6,lr}                           
ram:00017086    8eb0            sub         sp,#0x38                                
ram:00017088    0e46            mov         r6,r1                                   
ram:0001708a    0546            mov         r5,param_1                              
ram:0001708c    1c21            movs        r1,#0x1c                                
ram:0001708e    6846            mov         param_1,sp                              
ram:00017090    fff7cdf8        bl          FUN_0001622e                            ;undefined FUN_0001622e(undefined * p...
ram:00017094    6a46            mov         r2,sp                                   
ram:00017096    1078            ldrb        param_1,[r2,#0x0]=>local_48             
ram:00017098    0a21            movs        r1,#0xa                                 
ram:0001709a    0843            orrs        param_1,r1                              
ram:0001709c    1070            strb        param_1,[r2,#0x0]=>local_48             
ram:0001709e    0024            movs        r4,#0x0                                 
ram:000170a0    0194            str         r4,[sp,#local_44+0x48]                  
ram:000170a2    0394            str         r4,[sp,#local_3c+0x48]                  
ram:000170a4    0494            str         r4,[sp,#local_38+0x48]                  
ram:000170a6    0594            str         r4,[sp,#local_34+0x48]                  
ram:000170a8    3220            movs        param_1,#0x32                           
ram:000170aa    0694            str         r4,[sp,#local_30+0x48]                  
ram:000170ac    405d            ldrb        param_1,[param_1,r5]                    
ram:000170ae    08aa            add         r2,sp,#0x20                             
ram:000170b0    9070            strb        param_1,[r2,#local_26+0x28]             
ram:000170b2    1748            ldr         param_1,[DAT_00017110]                  ;= 00001524h
ram:000170b4    6a46            mov         r2,sp                                   
ram:000170b6    1084            strh        param_1,[r2,#local_28+0x48]             
ram:000170b8    601c            adds        param_1,r4,#0x1                         
ram:000170ba    0007            lsls        param_1,param_1,#0x1c                   
ram:000170bc    000f            lsrs        param_1,param_1,#0x1c                   
ram:000170be    1030            adds        param_1,#0x10                           
ram:000170c0    0794            str         r4,[sp,#local_2c+0x48]                  
ram:000170c2    1077            strb        param_1,[r2,#local_2c+0x48]             
ram:000170c4    1120            movs        param_1,#0x11                           
ram:000170c6    5077            strb        param_1,[r2,#local_2c+0x49]             
ram:000170c8    907f            ldrb        param_1,[r2,#local_2c+0x4a]             
ram:000170ca    f921            movs        r1,#0xf9                                
ram:000170cc    0840            ands        param_1,r1                              
ram:000170ce    f721            movs        r1,#0xf7                                
ram:000170d0    801c            adds        param_1,param_1,#0x2                    
ram:000170d2    0840            ands        param_1,r1                              
ram:000170d4    ef21            movs        r1,#0xef                                
ram:000170d6    0840            ands        param_1,r1                              
ram:000170d8    4008            lsrs        param_1,param_1,#0x1                    
ram:000170da    4000            lsls        param_1,param_1,#0x1                    
ram:000170dc    9077            strb        param_1,[r2,#local_2c+0x4a]             
ram:000170de    1421            movs        r1,#0x14                                
ram:000170e0    09a8            add         param_1,sp,#0x24                        
ram:000170e2    fff7a4f8        bl          FUN_0001622e                            ;undefined FUN_0001622e(undefined * p...
ram:000170e6    08a8            add         param_1,sp,#0x20                        
ram:000170e8    0990            str         param_1,[sp,#local_24+0x48]             
ram:000170ea    07a8            add         param_1,sp,#0x1c                        
ram:000170ec    0a90            str         param_1,[sp,#local_20+0x48]             
ram:000170ee    1020            movs        param_1,#0x10                           
ram:000170f0    6a46            mov         r2,sp                                   
ram:000170f2    9085            strh        param_1,[r2,#local_1c+0x48]             
ram:000170f4    d485            strh        r4,[r2,#local_1a+0x48]                  
ram:000170f6    1086            strh        param_1,[r2,#local_18+0x48]             
ram:000170f8    7068            ldr         param_1,[r6,#0x4]                       
ram:000170fa    2b46            mov         r3,r5                                   
ram:000170fc    c01c            adds        param_1,param_1,#0x3                    
ram:000170fe    0d90            str         param_1,[sp,#local_14+0x48]             
ram:00017100    2888            ldrh        param_1,[r5,#0x0]                       
ram:00017102    1233            adds        r3,#0x12                                
ram:00017104    09aa            add         r2,sp,#0x24                             
ram:00017106    6946            mov         r1,sp                                   
ram:00017108    a2df            svc         0xa2                                    
ram:0001710a    0eb0            add         sp,#0x38                                
ram:0001710c    70bd            pop         {r4,r5,r6,pc}                           
ram:0001710e    0000            movs        r0,r0                                   
                            DAT_00017110:                 ;XREF[1,0]:   000170b2
ram:00017110    24150000        undefined4  00001524h                               
                            ;************************************************************************************************
                            ;*                                           FUNCTION                                           *
                            ;************************************************************************************************
                            ;undefined8 FUN_00017114(ushort * param_1)
          ;param_1       ushort *            r0                      
          ;local_14      undefined4         -14                      ;XREF[1,0]:   0001718e
          ;local_18      undefined2         -18                      ;XREF[1,0]:   00017186
          ;local_1a      undefined2         -1a                      ;XREF[1,0]:   00017184
          ;local_1c      undefined2         -1c                      ;XREF[1,0]:   00017182
          ;local_20      undefined4         -20                      ;XREF[1,0]:   0001717c
          ;local_24      undefined4         -24                      ;XREF[1,0]:   00017178
          ;local_26      undefined1         -26                      ;XREF[1,0]:   00017140
          ;local_28      undefined2         -28                      ;XREF[1,0]:   00017146
          ;local_2c      undefined4         -2c                      ;XREF[2,3]:   00017150,00017152,00017156,00017158,0001716c
          ;local_30      undefined4         -30                      ;XREF[1,0]:   0001713a
          ;local_34      undefined4         -34                      ;XREF[1,0]:   00017136
          ;local_38      undefined4         -38                      ;XREF[1,0]:   00017134
          ;local_3c      undefined4         -3c                      ;XREF[1,0]:   00017132
          ;local_44      undefined4         -44                      ;XREF[1,0]:   00017130
          ;local_48      undefined1         -48                      ;XREF[2,0]:   00017126,0001712c
                                                          ;XREF[1,0]:   00017590
ram:00017114    70b5            push        {r4,r5,r6,lr}                           
ram:00017116    8eb0            sub         sp,#0x38                                
ram:00017118    0e46            mov         r6,r1                                   
ram:0001711a    0546            mov         r5,param_1                              
ram:0001711c    1c21            movs        r1,#0x1c                                
ram:0001711e    6846            mov         param_1,sp                              
ram:00017120    fff785f8        bl          FUN_0001622e                            ;undefined FUN_0001622e(undefined * p...
ram:00017124    6a46            mov         r2,sp                                   
ram:00017126    1078            ldrb        param_1,[r2,#0x0]=>local_48             
ram:00017128    0a21            movs        r1,#0xa                                 
ram:0001712a    0843            orrs        param_1,r1                              
ram:0001712c    1070            strb        param_1,[r2,#0x0]=>local_48             
ram:0001712e    0024            movs        r4,#0x0                                 
ram:00017130    0194            str         r4,[sp,#local_44+0x48]                  
ram:00017132    0394            str         r4,[sp,#local_3c+0x48]                  
ram:00017134    0494            str         r4,[sp,#local_38+0x48]                  
ram:00017136    0594            str         r4,[sp,#local_34+0x48]                  
ram:00017138    3220            movs        param_1,#0x32                           
ram:0001713a    0694            str         r4,[sp,#local_30+0x48]                  
ram:0001713c    405d            ldrb        param_1,[param_1,r5]                    
ram:0001713e    08aa            add         r2,sp,#0x20                             
ram:00017140    9070            strb        param_1,[r2,#local_26+0x28]             
ram:00017142    1748            ldr         param_1,[DAT_000171a0]                  ;= 00001529h
ram:00017144    6a46            mov         r2,sp                                   
ram:00017146    1084            strh        param_1,[r2,#local_28+0x48]             
ram:00017148    601c            adds        param_1,r4,#0x1                         
ram:0001714a    0007            lsls        param_1,param_1,#0x1c                   
ram:0001714c    000f            lsrs        param_1,param_1,#0x1c                   
ram:0001714e    1030            adds        param_1,#0x10                           
ram:00017150    0794            str         r4,[sp,#local_2c+0x48]                  
ram:00017152    1077            strb        param_1,[r2,#local_2c+0x48]             
ram:00017154    1120            movs        param_1,#0x11                           
ram:00017156    5077            strb        param_1,[r2,#local_2c+0x49]             
ram:00017158    907f            ldrb        param_1,[r2,#local_2c+0x4a]             
ram:0001715a    f921            movs        r1,#0xf9                                
ram:0001715c    0840            ands        param_1,r1                              
ram:0001715e    f721            movs        r1,#0xf7                                
ram:00017160    801c            adds        param_1,param_1,#0x2                    
ram:00017162    0840            ands        param_1,r1                              
ram:00017164    ef21            movs        r1,#0xef                                
ram:00017166    0840            ands        param_1,r1                              
ram:00017168    4008            lsrs        param_1,param_1,#0x1                    
ram:0001716a    4000            lsls        param_1,param_1,#0x1                    
ram:0001716c    9077            strb        param_1,[r2,#local_2c+0x4a]             
ram:0001716e    1421            movs        r1,#0x14                                
ram:00017170    09a8            add         param_1,sp,#0x24                        
ram:00017172    fff75cf8        bl          FUN_0001622e                            ;undefined FUN_0001622e(undefined * p...
ram:00017176    08a8            add         param_1,sp,#0x20                        
ram:00017178    0990            str         param_1,[sp,#local_24+0x48]             
ram:0001717a    07a8            add         param_1,sp,#0x1c                        
ram:0001717c    0a90            str         param_1,[sp,#local_20+0x48]             
ram:0001717e    0120            movs        param_1,#0x1                            
ram:00017180    6a46            mov         r2,sp                                   
ram:00017182    9085            strh        param_1,[r2,#local_1c+0x48]             
ram:00017184    d485            strh        r4,[r2,#local_1a+0x48]                  
ram:00017186    1086            strh        param_1,[r2,#local_18+0x48]             
ram:00017188    7068            ldr         param_1,[r6,#0x4]                       
ram:0001718a    2b46            mov         r3,r5                                   
ram:0001718c    1c30            adds        param_1,#0x1c                           
ram:0001718e    0d90            str         param_1,[sp,#local_14+0x48]             
ram:00017190    2888            ldrh        param_1,[r5,#0x0]                       
ram:00017192    2a33            adds        r3,#0x2a                                
ram:00017194    09aa            add         r2,sp,#0x24                             
ram:00017196    6946            mov         r1,sp                                   
ram:00017198    a2df            svc         0xa2                                    
ram:0001719a    0eb0            add         sp,#0x38                                
ram:0001719c    70bd            pop         {r4,r5,r6,pc}                           
ram:0001719e    0000            movs        r0,r0                                   
                            DAT_000171a0:                 ;XREF[1,0]:   00017142
ram:000171a0    29150000        undefined4  00001529h                               
                            ;************************************************************************************************
                            ;*                                           FUNCTION                                           *
                            ;************************************************************************************************
                            ;undefined8 FUN_000171a4(ushort * param_1)
          ;param_1       ushort *            r0                      
          ;local_14      undefined4         -14                      ;XREF[1,0]:   0001721e
          ;local_18      undefined2         -18                      ;XREF[1,0]:   00017216
          ;local_1a      undefined2         -1a                      ;XREF[1,0]:   00017214
          ;local_1c      undefined2         -1c                      ;XREF[1,0]:   00017212
          ;local_20      undefined4         -20                      ;XREF[1,0]:   0001720c
          ;local_24      undefined4         -24                      ;XREF[1,0]:   00017208
          ;local_26      undefined1         -26                      ;XREF[1,0]:   000171d0
          ;local_28      undefined2         -28                      ;XREF[1,0]:   000171d6
          ;local_2c      undefined4         -2c                      ;XREF[2,3]:   000171e0,000171e2,000171e6,000171e8,000171fc
          ;local_30      undefined4         -30                      ;XREF[1,0]:   000171ca
          ;local_34      undefined4         -34                      ;XREF[1,0]:   000171c6
          ;local_38      undefined4         -38                      ;XREF[1,0]:   000171c4
          ;local_3c      undefined4         -3c                      ;XREF[1,0]:   000171c2
          ;local_44      undefined4         -44                      ;XREF[1,0]:   000171c0
          ;local_48      undefined1         -48                      ;XREF[2,0]:   000171b6,000171bc
                                                          ;XREF[1,0]:   00017554
ram:000171a4    70b5            push        {r4,r5,r6,lr}                           
ram:000171a6    8eb0            sub         sp,#0x38                                
ram:000171a8    0e46            mov         r6,r1                                   
ram:000171aa    0546            mov         r5,param_1                              
ram:000171ac    1c21            movs        r1,#0x1c                                
ram:000171ae    6846            mov         param_1,sp                              
ram:000171b0    fff73df8        bl          FUN_0001622e                            ;undefined FUN_0001622e(undefined * p...
ram:000171b4    6a46            mov         r2,sp                                   
ram:000171b6    1078            ldrb        param_1,[r2,#0x0]=>local_48             
ram:000171b8    0a21            movs        r1,#0xa                                 
ram:000171ba    0843            orrs        param_1,r1                              
ram:000171bc    1070            strb        param_1,[r2,#0x0]=>local_48             
ram:000171be    0024            movs        r4,#0x0                                 
ram:000171c0    0194            str         r4,[sp,#local_44+0x48]                  
ram:000171c2    0394            str         r4,[sp,#local_3c+0x48]                  
ram:000171c4    0494            str         r4,[sp,#local_38+0x48]                  
ram:000171c6    0594            str         r4,[sp,#local_34+0x48]                  
ram:000171c8    3220            movs        param_1,#0x32                           
ram:000171ca    0694            str         r4,[sp,#local_30+0x48]                  
ram:000171cc    405d            ldrb        param_1,[param_1,r5]                    
ram:000171ce    08aa            add         r2,sp,#0x20                             
ram:000171d0    9070            strb        param_1,[r2,#local_26+0x28]             
ram:000171d2    1648            ldr         param_1,[DAT_0001722c]                  ;= 00001526h
ram:000171d4    6a46            mov         r2,sp                                   
ram:000171d6    1084            strh        param_1,[r2,#local_28+0x48]             
ram:000171d8    601c            adds        param_1,r4,#0x1                         
ram:000171da    0007            lsls        param_1,param_1,#0x1c                   
ram:000171dc    000f            lsrs        param_1,param_1,#0x1c                   
ram:000171de    1030            adds        param_1,#0x10                           
ram:000171e0    0794            str         r4,[sp,#local_2c+0x48]                  
ram:000171e2    1077            strb        param_1,[r2,#local_2c+0x48]             
ram:000171e4    1120            movs        param_1,#0x11                           
ram:000171e6    5077            strb        param_1,[r2,#local_2c+0x49]             
ram:000171e8    907f            ldrb        param_1,[r2,#local_2c+0x4a]             
ram:000171ea    f921            movs        r1,#0xf9                                
ram:000171ec    0840            ands        param_1,r1                              
ram:000171ee    f721            movs        r1,#0xf7                                
ram:000171f0    801c            adds        param_1,param_1,#0x2                    
ram:000171f2    0840            ands        param_1,r1                              
ram:000171f4    ef21            movs        r1,#0xef                                
ram:000171f6    0840            ands        param_1,r1                              
ram:000171f8    4008            lsrs        param_1,param_1,#0x1                    
ram:000171fa    4000            lsls        param_1,param_1,#0x1                    
ram:000171fc    9077            strb        param_1,[r2,#local_2c+0x4a]             
ram:000171fe    1421            movs        r1,#0x14                                
ram:00017200    09a8            add         param_1,sp,#0x24                        
ram:00017202    fff714f8        bl          FUN_0001622e                            ;undefined FUN_0001622e(undefined * p...
ram:00017206    08a8            add         param_1,sp,#0x20                        
ram:00017208    0990            str         param_1,[sp,#local_24+0x48]             
ram:0001720a    07a8            add         param_1,sp,#0x1c                        
ram:0001720c    0a90            str         param_1,[sp,#local_20+0x48]             
ram:0001720e    0420            movs        param_1,#0x4                            
ram:00017210    6a46            mov         r2,sp                                   
ram:00017212    9085            strh        param_1,[r2,#local_1c+0x48]             
ram:00017214    d485            strh        r4,[r2,#local_1a+0x48]                  
ram:00017216    1086            strh        param_1,[r2,#local_18+0x48]             
ram:00017218    7068            ldr         param_1,[r6,#0x4]                       
ram:0001721a    09aa            add         r2,sp,#0x24                             
ram:0001721c    1330            adds        param_1,#0x13                           
ram:0001721e    0d90            str         param_1,[sp,#local_14+0x48]             
ram:00017220    2888            ldrh        param_1,[r5,#0x0]                       
ram:00017222    ab1c            adds        r3,r5,#0x2                              
ram:00017224    6946            mov         r1,sp                                   
ram:00017226    a2df            svc         0xa2                                    
ram:00017228    0eb0            add         sp,#0x38                                
ram:0001722a    70bd            pop         {r4,r5,r6,pc}                           
                            DAT_0001722c:                 ;XREF[1,0]:   000171d2
ram:0001722c    26150000        undefined4  00001526h                               
                            ;************************************************************************************************
                            ;*                                           FUNCTION                                           *
                            ;************************************************************************************************
                            ;undefined FUN_00017230(void)
          ;local_b       undefined1          -b                      ;XREF[1,0]:   00017258
          ;local_c       undefined1          -c                      ;XREF[1,0]:   00017260
          ;local_d       undefined1          -d                      ;XREF[1,0]:   00017268
          ;local_e       undefined1          -e                      ;XREF[1,0]:   00017270
                                                          ;XREF[1,0]:   0001850e
ram:00017230    00b5            push        {lr}                                    
ram:00017232    87b0            sub         sp,#0x1c                                
ram:00017234    1822            movs        r2,#0x18                                
ram:00017236    1ba1            adr         r1=>FUN_000172a4,[FUN_000172a4]         
ram:00017238    6846            mov         r0,sp                                   
ram:0001723a    fef7dfff        bl          FUN_000161fc                            ;undefined FUN_000161fc(undefined4 * ...
ram:0001723e    1f48            ldr         r0,[DAT_000172bc]                       ;= 20002180h
ram:00017240    4221            movs        r1,#0x42                                
ram:00017242    0170            strb        r1,[r0,#0x0]=>DAT_20002180              
ram:00017244    5f21            movs        r1,#0x5f                                
ram:00017246    c900            lsls        r1,r1,#0x3                              
ram:00017248    4183            strh        r1,[r0,#0x1a]=>DAT_2000219a             
ram:0001724a    5921            movs        r1,#0x59                                
ram:0001724c    0183            strh        r1,[r0,#0x18]=>DAT_20002198             
ram:0001724e    0121            movs        r1,#0x1                                 
ram:00017250    0177            strb        r1,[r0,#0x1c]=>DAT_2000219c             
ram:00017252    1b49            ldr         r1,[DAT_000172c0]                       ;= 10000080h
ram:00017254    4b6a            ldr         r3,[r1,#0x24]=>DAT_100000a4             
ram:00017256    6a46            mov         r2,sp                                   
ram:00017258    5375            strb        r3,[r2,#local_b+0x20]                   
ram:0001725a    4a6a            ldr         r2,[r1,#0x24]=>DAT_100000a4             
ram:0001725c    130a            lsrs        r3,r2,#0x8                              
ram:0001725e    6a46            mov         r2,sp                                   
ram:00017260    1375            strb        r3,[r2,#local_c+0x20]                   
ram:00017262    4a6a            ldr         r2,[r1,#0x24]=>DAT_100000a4             
ram:00017264    130c            lsrs        r3,r2,#0x10                             
ram:00017266    6a46            mov         r2,sp                                   
ram:00017268    d374            strb        r3,[r2,#local_d+0x20]                   
ram:0001726a    496a            ldr         r1,[r1,#0x24]=>DAT_100000a4             
ram:0001726c    401c            adds        r0,r0,#0x1                              
ram:0001726e    090e            lsrs        r1,r1,#0x18                             
ram:00017270    9174            strb        r1,[r2,#local_e+0x20]                   
ram:00017272    1722            movs        r2,#0x17                                
ram:00017274    6946            mov         r1,sp                                   
ram:00017276    fef7c1ff        bl          FUN_000161fc                            ;undefined FUN_000161fc(undefined4 * ...
ram:0001727a    2021            movs        r1,#0x20                                
ram:0001727c    1148            ldr         r0,[DAT_000172c4]                       ;= 20002014h
ram:0001727e    01f059fb        bl          FUN_00018934                            ;int FUN_00018934(int * param_1, unde...
ram:00017282    0028            cmp         r0,#0x0                                 
ram:00017284    07d1            bne         LAB_00017296                            
ram:00017286    0023            movs        r3,#0x0                                 
ram:00017288    2022            movs        r2,#0x20                                
ram:0001728a    0c49            ldr         r1=>DAT_20002180,[DAT_000172bc]         ;= 20002180h
ram:0001728c    0d48            ldr         r0,[DAT_000172c4]                       ;= 20002014h
ram:0001728e    01f061fc        bl          FUN_00018b54                            ;int FUN_00018b54(int * param_1, uint...
ram:00017292    0028            cmp         r0,#0x0                                 
ram:00017294    03d0            beq         LAB_0001729e                            
                            LAB_00017296:                 ;XREF[1,0]:   00017284
ram:00017296    0022            movs        r2,#0x0                                 
ram:00017298    1146            mov         r1,r2                                   
ram:0001729a    fff751fb        bl          FUN_00016940                            ;undefined FUN_00016940(void)
                            LAB_0001729e:                 ;XREF[1,0]:   00017294
ram:0001729e    07b0            add         sp,#0x1c                                
ram:000172a0    00bd            pop         {pc}                                    
ram:000172a2    0000            movs        r0,r0                                   
                            ;************************************************************************************************
                            ;*                                           FUNCTION                                           *
                            ;************************************************************************************************
                            ;undefined FUN_000172a4(undefined param_1, undefined param_2, undefined param_3, undefined param_4, undefined param_5, undefined param_6, undefined param_7, undefined param_8, undefined param_9, undefined param_10, undefined4 param_11)
          ;param_1       undefined           r0                      
          ;param_2       undefined           r1                      
          ;param_3       undefined           r2                      
          ;param_4       undefined           r3                      
          ;param_5       undefined            0                      
          ;param_6       undefined            4                      
          ;param_7       undefined            8                      
          ;param_8       undefined            c                      
          ;param_9       undefined           10                      
          ;param_10      undefined           14                      
          ;param_11      undefined4         224                      ;XREF[1,0]:   000172ae
                                                          ;XREF[2,0]:   00017236,00017236
ram:000172a4    0215            asrs        param_3,param_1,#0x14                   
ram:000172a6    0112            asrs        param_2,param_1,#0x8                    
ram:000172a8    2334            adds        r4,#0x23                                
ram:000172aa    4556            ldrsb       r5,[param_1,param_2]                    
ram:000172ac    6778            ldrb        r7,[r4,#0x1]                            
ram:000172ae    899a            ldr         param_3,[sp,#param_11]                  
ram:000172b0    abbc            pop         {param_1,param_2,param_4,r5,r7}         
ram:000172b2    cdde            udf         0xcd                                    
ram:000172b4    ef              ??          EFh                                     
ram:000172b5    f0              ??          F0h                                     
ram:000172b6    00              ??          00h                                     
ram:000172b7    01              ??          01h                                     
ram:000172b8    00              ??          00h                                     
ram:000172b9    00              ??          00h                                     
ram:000172ba    bb              ??          BBh                                     
ram:000172bb    00              ??          00h                                     
                            DAT_000172bc:                 ;XREF[2,0]:   0001723e,0001728a
ram:000172bc    80210020        undefined4  20002180h                               
                            DAT_000172c0:                 ;XREF[1,0]:   00017252
ram:000172c0    80000010        undefined4  10000080h                               
                            DAT_000172c4:                 ;XREF[2,0]:   0001727c,0001728c
ram:000172c4    14200020        undefined4  20002014h                               
                            ;************************************************************************************************
                            ;*                                           FUNCTION                                           *
                            ;************************************************************************************************
                            ;undefined FUN_000172c8(void)
          ;local_8       undefined4          -8                      ;XREF[1,0]:   000172dc
                                                          ;XREF[3,0]:   00017930,00018698,00018f0a
ram:000172c8    08b5            push        {r3,lr}                                 
ram:000172ca    6846            mov         r0,sp                                   
ram:000172cc    01f01efb        bl          FUN_0001890c                            ;undefined4 FUN_0001890c(uint * param_1)
ram:000172d0    0028            cmp         r0,#0x0                                 
ram:000172d2    03d0            beq         LAB_000172dc                            
ram:000172d4    0022            movs        r2,#0x0                                 
ram:000172d6    1146            mov         r1,r2                                   
ram:000172d8    fff732fb        bl          FUN_00016940                            ;undefined FUN_00016940(void)
                            LAB_000172dc:                 ;XREF[1,0]:   000172d2
ram:000172dc    0099            ldr         r1,[sp,#0x0]=>local_8                   
ram:000172de    0548            ldr         r0=>DAT_20002000,[LAB_000172f4]         
ram:000172e0    0029            cmp         r1,#0x0                                 
ram:000172e2    02d0            beq         LAB_000172ea                            
ram:000172e4    0121            movs        r1,#0x1                                 
ram:000172e6    0170            strb        r1,[r0,#0x0]=>DAT_20002000              
ram:000172e8    08bd            pop         {r3,pc}                                 
                            LAB_000172ea:                 ;XREF[1,0]:   000172e2
ram:000172ea    0021            movs        r1,#0x0                                 
ram:000172ec    0170            strb        r1,[r0,#0x0]=>DAT_20002000              
ram:000172ee    fff745f8        bl          FUN_0001637c                            ;undefined FUN_0001637c(void)
ram:000172f2    0000            movs        r0,r0                                   
                            LAB_000172f4:                 ;XREF[1,0]:   000172de
ram:000172f4    0020            movs        r0,#0x0                                 
ram:000172f6    0020            movs        r0,#0x0                                 
                            ;************************************************************************************************
                            ;*                                           FUNCTION                                           *
                            ;************************************************************************************************
                            ;undefined4 FUN_000172f8(int param_1, undefined4 param_2, undefined4 param_3, undefined4 param_4)
          ;param_1       int                 r0                      
          ;param_2       undefined4          r1                      
          ;param_3       undefined4          r2                      
          ;param_4       undefined4          r3                      
          ;local_10      undefined4         -10                      ;XREF[1,0]:   00017378
          ;local_14      undefined4         -14                      ;XREF[1,0]:   00017374
          ;local_18      undefined1         -18                      ;XREF[1,0]:   00017370
          ;local_1a      undefined2         -1a                      ;XREF[1,0]:   0001736e
          ;local_1c      undefined1         -1c                      ;XREF[1,0]:   0001736c
          ;local_20      undefined4         -20                      ;XREF[2,0]:   0001731e,00017364
          ;local_24      undefined4         -24                      ;XREF[3,1]:   00017336,0001733e,00017360,00017340
          ;local_28      undefined4         -28                      ;XREF[3,1]:   00017332,00017338,00017366,0001733c
                                                          ;XREF[1,0]:   000173dc
ram:000172f8    30b5            push        {r4,r5,lr}                              
ram:000172fa    87b0            sub         sp,#0x1c                                
ram:000172fc    0500            movs        r5,param_1                              
ram:000172fe    0cd0            beq         LAB_0001731a                            
ram:00017300    fff716fa        bl          FUN_00016730                            ;undefined FUN_00016730(int param_1)
ram:00017304    2648            ldr         param_1,[FUN_000173a0]                  
ram:00017306    8068            ldr         param_1,[param_1,#offset DAT_20002008...
ram:00017308    007f            ldrb        param_1,[param_1,#0x1c]                 
ram:0001730a    0028            cmp         param_1,#0x0                            
ram:0001730c    03d0            beq         LAB_00017316                            
ram:0001730e    0320            movs        param_1,#0x3                            
ram:00017310    c003            lsls        param_1,param_1,#0xf                    
                            LAB_00017312:                 ;XREF[1,0]:   0001739c
ram:00017312    00f087ff        bl          FUN_00018224                            ;longlong FUN_00018224(uint param_1, ...
                            LAB_00017316:                 ;XREF[1,0]:   0001730c
ram:00017316    07b0            add         sp,#0x1c                                
ram:00017318    30bd            pop         {r4,r5,pc}                              
                            LAB_0001731a:                 ;XREF[1,0]:   000172fe
ram:0001731a    1120            movs        param_1,#0x11                           
ram:0001731c    6946            mov         param_2,sp                              
ram:0001731e    0872            strb        param_1,[r1,#local_20+0x28]             
ram:00017320    0c22            movs        param_3,#0xc                            
ram:00017322    20a1            adr         param_2,[s_BeaconConfig_000173a3+1]     ;= "BeaconConfig"
ram:00017324    02a8            add         param_1,sp,#0x8                         
ram:00017326    7cdf            svc         0x7c                                    
ram:00017328    0028            cmp         param_1,#0x0                            
ram:0001732a    2bd1            bne         LAB_00017384                            
ram:0001732c    0024            movs        r4,#0x0                                 
ram:0001732e    ff20            movs        param_1,#0xff                           
ram:00017330    9130            adds        param_1,#0x91                           
ram:00017332    0094            str         r4,[sp,#0x0]=>local_28                  
ram:00017334    6946            mov         param_2,sp                              
ram:00017336    0194            str         r4,[sp,#local_24+0x28]                  
ram:00017338    0880            strh        param_1,[param_2,#0x0]=>local_28        
ram:0001733a    4200            lsls        param_3,param_1,#0x1                    
ram:0001733c    4a80            strh        param_3,[r1,#local_28+0x2a]             
ram:0001733e    8c80            strh        r4,[r1,#local_24+0x28]                  
ram:00017340    c880            strh        param_1,[r1,#local_24+0x2a]             
ram:00017342    6846            mov         param_1,sp                              
ram:00017344    7adf            svc         0x7a                                    
ram:00017346    0028            cmp         param_1,#0x0                            
ram:00017348    1cd1            bne         LAB_00017384                            
ram:0001734a    01f063fd        bl          FUN_00018e14                            ;undefined FUN_00018e14(void)
ram:0001734e    2846            mov         param_1,r5                              
ram:00017350    fff7eef9        bl          FUN_00016730                            ;undefined FUN_00016730(int param_1)
ram:00017354    1c21            movs        param_2,#0x1c                           
ram:00017356    6846            mov         param_1,sp                              
ram:00017358    fef769ff        bl          FUN_0001622e                            ;undefined FUN_0001622e(undefined * p...
ram:0001735c    0520            movs        param_1,#0x5                            
ram:0001735e    4004            lsls        param_1,param_1,#0x11                   
ram:00017360    0190            str         param_1,[sp,#local_24+0x28]             
ram:00017362    8010            asrs        param_1,param_1,#0x2                    
ram:00017364    0290            str         param_1,[sp,#local_20+0x28]             
ram:00017366    0094            str         r4,[sp,#0x0]=>local_28                  
ram:00017368    0321            movs        param_2,#0x3                            
ram:0001736a    6846            mov         param_1,sp                              
ram:0001736c    0173            strb        param_2,[r0,#local_1c+0x28]             
ram:0001736e    c481            strh        r4,[r0,#local_1a+0x28]                  
ram:00017370    0474            strb        r4,[r0,#local_18+0x28]                  
ram:00017372    1048            ldr         param_1,[PTR_LAB_000186a8+1+1_000173b4] ;= 000186a9
ram:00017374    0590            str         param_1=>LAB_000...,[sp,#local_14+0x28] 
ram:00017376    1048            ldr         param_1,[PTR_LAB_00017c24+1+1_000173b8] ;= 00017c25
ram:00017378    0690            str         param_1=>LAB_000...,[sp,#local_10+0x28] 
ram:0001737a    6846            mov         param_1,sp                              
ram:0001737c    00f022f9        bl          FUN_000175c4                            ;undefined FUN_000175c4(undefined4 * ...
ram:00017380    0028            cmp         param_1,#0x0                            
ram:00017382    03d0            beq         LAB_0001738c                            
                            LAB_00017384:                 ;XREF[2,0]:   0001732a,00017348
ram:00017384    0022            movs        param_3,#0x0                            
ram:00017386    1146            mov         param_2,param_3                         
ram:00017388    fff7dafa        bl          FUN_00016940                            ;undefined FUN_00016940(void)
                            LAB_0001738c:                 ;XREF[1,0]:   00017382
ram:0001738c    01f0cefc        bl          FUN_00018d2c                            ;undefined FUN_00018d2c(void)
ram:00017390    7d20            movs        param_1,#0x7d                           
ram:00017392    0001            lsls        param_1,param_1,#0x4                    
ram:00017394    00f0e2fe        bl          FUN_0001815c                            ;undefined4 FUN_0001815c(undefined4 p...
ram:00017398    1120            movs        param_1,#0x11                           
ram:0001739a    0003            lsls        param_1,param_1,#0xc                    
ram:0001739c    b9e7            b           LAB_00017312                            
ram:0001739e    0000            movs        r0,r0                                   
                            ;************************************************************************************************
                            ;*                                           FUNCTION                                           *
                            ;************************************************************************************************
                            ;undefined FUN_000173a0(undefined4 param_1, undefined4 param_2, undefined4 param_3)
          ;param_1       undefined4          r0                      
          ;param_2       undefined4          r1                      
          ;param_3       undefined4          r2                      
                                                          ;XREF[1,0]:   00017304
ram:000173a0    0020            movs        param_1,#0x0                            
ram:000173a2    00              ??          00h                                     
                                                          ;XREF[0,1]:   00017322
ram:000173a3    204265616...    ds          " BeaconConfig"                         
                            PTR_LAB_000186a8+1+1_000173b4:;XREF[1,0]:   00017372
ram:000173b4    a9860100        addr        LAB_000186a8+1+1                        
                            PTR_LAB_00017c24+1+1_000173b8:;XREF[1,0]:   00017376
ram:000173b8    257c0100        addr        LAB_00017c24+1+1                        
                            ;************************************************************************************************
                            ;*                                           FUNCTION                                           *
                            ;************************************************************************************************
                            ;undefined FUN_000173bc(undefined4 param_1, undefined4 param_2, undefined4 param_3, uint param_4)
          ;param_1       undefined4          r0                      
          ;param_2       undefined4          r1                      
          ;param_3       undefined4          r2                      
          ;param_4       uint                r3                      
          ;local_8       undefined4          -8                      ;XREF[1,0]:   000173c8
                                                          ;XREF[2,0]:   00018514,00018f18
ram:000173bc    08b5            push        {param_4,lr}                            
ram:000173be    6846            mov         param_1,sp                              
ram:000173c0    01f0a4fa        bl          FUN_0001890c                            ;undefined4 FUN_0001890c(uint * param_1)
ram:000173c4    0028            cmp         param_1,#0x0                            
ram:000173c6    0fd1            bne         LAB_000173e8                            
ram:000173c8    0099            ldr         param_2,[sp,#0x0]=>local_8              
ram:000173ca    0948            ldr         param_1=>DAT_20002000,[DAT_000173f0]    ;= 20002000h
ram:000173cc    0029            cmp         param_2,#0x0                            
ram:000173ce    02d0            beq         LAB_000173d6                            
ram:000173d0    0121            movs        param_2,#0x1                            
ram:000173d2    4170            strb        param_2,[param_1,#offset DAT_20002001...
                            LAB_000173d4:                 ;XREF[1,0]:   000173e6
ram:000173d4    08bd            pop         {param_4,pc}                            
                            LAB_000173d6:                 ;XREF[1,0]:   000173ce
ram:000173d6    0021            movs        param_2,#0x0                            
ram:000173d8    4170            strb        param_2,[param_1,#offset DAT_20002001...
ram:000173da    8078            ldrb        param_1,[param_1,#offset DAT_20002002...
ram:000173dc    fff78cff        bl          FUN_000172f8                            ;undefined4 FUN_000172f8(int param_1,...
ram:000173e0    0448            ldr         param_1=>DAT_200024dc,[DAT_000173f4]    ;= 200024DCh
ram:000173e2    73df            svc         0x73                                    
ram:000173e4    0028            cmp         param_1,#0x0                            
ram:000173e6    f5d0            beq         LAB_000173d4                            
                            LAB_000173e8:                 ;XREF[1,0]:   000173c6
ram:000173e8    0022            movs        param_3,#0x0                            
ram:000173ea    1146            mov         param_2,param_3                         
ram:000173ec    fff7a8fa        bl          FUN_00016940                            ;undefined FUN_00016940(void)
                            DAT_000173f0:                 ;XREF[1,0]:   000173ca
ram:000173f0    00200020        undefined4  20002000h                               
                            DAT_000173f4:                 ;XREF[1,0]:   000173e0
ram:000173f4    dc240020        undefined4  200024DCh                               
                            ;************************************************************************************************
                            ;*                                           FUNCTION                                           *
                            ;************************************************************************************************
                            ;undefined FUN_000173f8(undefined4 param_1, uint param_2)
          ;param_1       undefined4          r0                      
          ;param_2       uint                r1                      
                                                          ;XREF[0,1]:   00018e3a
ram:000173f8    70b5            push        {r4,r5,r6,lr}                           
ram:000173fa    2948            ldr         param_1,[DAT_000174a0]                  ;= 20002000h
ram:000173fc    0d46            mov         r5,param_2                              
ram:000173fe    1446            mov         r4,r2                                   
ram:00017400    8168            ldr         param_2,[param_1,#offset DAT_20002008...
ram:00017402    2022            movs        r2,#0x20                                
ram:00017404    2748            ldr         param_1=>DAT_200020dc,[DAT_000174a4]    ;= 200020DCh
ram:00017406    fef7f9fe        bl          FUN_000161fc                            ;undefined FUN_000161fc(undefined4 * ...
ram:0001740a    2648            ldr         param_1=>DAT_200020dc,[DAT_000174a4]    ;= 200020DCh
ram:0001740c    4221            movs        param_2,#0x42                           
ram:0001740e    0170            strb        param_2,[param_1,#0x0]=>DAT_200020dc    
ram:00017410    2b00            movs        r3,r5                                   
                                                          ; FWD[2,0]:   00016500,00017416
ram:00017412    fff775f8        bl          __ARM_common_switch8                    ;undefined __ARM_common_switch8(void)
                                                                                    ;= 06h
                            DAT_00017416:                 ;XREF[1,0]:   00017412
ram:00017416    06              undefined1  06h                                     
ram:00017417    04              ??          04h                                     
ram:00017418    0d              ??          0Dh                                     
ram:00017419    10              ??          10h                                     
ram:0001741a    16              ??          16h                                     
ram:0001741b    1c              ??          1Ch                                     
ram:0001741c    2d              ??          2Dh    -                                
ram:0001741d    2f              ??          2Fh    /                                
ram:0001741e    21              ??          21h    !                                
ram:0001741f    78              ??          78h    x                                
ram:00017420    c1              ??          C1h                                     
ram:00017421    74              ??          74h    t                                
ram:00017422    61              ??          61h    a                                
ram:00017423    78              ??          78h    x                                
ram:00017424    01              ??          01h                                     
ram:00017425    75              ??          75h    u                                
ram:00017426    a1              ??          A1h                                     
ram:00017427    78              ??          78h    x                                
ram:00017428    41              ??          41h    A                                
ram:00017429    75              ??          75h    u                                
ram:0001742a    e1              ??          E1h                                     
ram:0001742b    78              ??          78h    x                                
ram:0001742c    81              ??          81h                                     
ram:0001742d    75              ??          75h    u                                
ram:0001742e    21              ??          21h    !                                
ram:0001742f    e0              ??          E0h                                     
ram:00017430    21              ??          21h    !                                
ram:00017431    78              ??          78h    x                                
ram:00017432    c1              ??          C1h                                     
ram:00017433    75              ??          75h    u                                
ram:00017434    1e              ??          1Eh                                     
ram:00017435    e0              ??          E0h                                     
ram:00017436    10              ??          10h                                     
ram:00017437    22              ??          22h    "                                
ram:00017438    21              ??          21h    !                                
ram:00017439    46              ??          46h    F                                
ram:0001743a    c0              ??          C0h                                     
ram:0001743b    1c              ??          1Ch                                     
ram:0001743c    fe              ??          FEh                                     
ram:0001743d    f7              ??          F7h                                     
ram:0001743e    de              ??          DEh                                     
ram:0001743f    fe              ??          FEh                                     
ram:00017440    18              ??          18h                                     
ram:00017441    e0              ??          E0h                                     
ram:00017442    61              ??          61h    a                                
ram:00017443    78              ??          78h    x                                
ram:00017444    22              ??          22h    "                                
ram:00017445    78              ??          78h    x                                
ram:00017446    09              ??          09h                                     
ram:00017447    02              ??          02h                                     
ram:00017448    89              ??          89h                                     
ram:00017449    18              ??          18h                                     
ram:0001744a    01              ??          01h                                     
ram:0001744b    83              ??          83h                                     
ram:0001744c    12              ??          12h                                     
ram:0001744d    e0              ??          E0h                                     
ram:0001744e    61              ??          61h    a                                
ram:0001744f    78              ??          78h    x                                
ram:00017450    22              ??          22h    "                                
ram:00017451    78              ??          78h    x                                
ram:00017452    09              ??          09h                                     
ram:00017453    02              ??          02h                                     
ram:00017454    89              ??          89h                                     
ram:00017455    18              ??          18h                                     
ram:00017456    89              ??          89h                                     
ram:00017457    b2              ??          B2h                                     
ram:00017458    41              ??          41h    A                                
ram:00017459    83              ??          83h                                     
ram:0001745a    64              ??          64h    d                                
ram:0001745b    29              ??          29h    )                                
ram:0001745c    02              ??          02h                                     
ram:0001745d    d2              ??          D2h                                     
ram:0001745e    64              ??          64h    d                                
ram:0001745f    21              ??          21h    !                                
ram:00017460    41              ??          41h    A                                
ram:00017461    83              ??          83h                                     
ram:00017462    07              ??          07h                                     
ram:00017463    e0              ??          E0h                                     
ram:00017464    05              ??          05h                                     
ram:00017465    22              ??          22h    "                                
ram:00017466    d2              ??          D2h                                     
ram:00017467    02              ??          02h                                     
ram:00017468    91              ??          91h                                     
ram:00017469    42              ??          42h    B                                
ram:0001746a    03              ??          03h                                     
ram:0001746b    d9              ??          D9h                                     
ram:0001746c    42              ??          42h    B                                
ram:0001746d    83              ??          83h                                     
ram:0001746e    01              ??          01h                                     
ram:0001746f    e0              ??          E0h                                     
ram:00017470    21              ??          21h    !                                
ram:00017471    78              ??          78h    x                                
ram:00017472    01              ??          01h                                     
ram:00017473    77              ??          77h    w                                
ram:00017474    0a              ??          0Ah                                     
ram:00017475    48              ??          48h    H                                
ram:00017476    20              ??          20h                                     
ram:00017477    21              ??          21h    !                                
ram:00017478    14              ??          14h                                     
ram:00017479    30              ??          30h    0                                
ram:0001747a    01              ??          01h                                     
ram:0001747b    f0              ??          F0h                                     
ram:0001747c    5b              ??          5Bh    [                                
ram:0001747d    fa              ??          FAh                                     
ram:0001747e    00              ??          00h                                     
ram:0001747f    28              ??          28h    (                                
ram:00017480    08              ??          08h                                     
ram:00017481    d1              ??          D1h                                     
ram:00017482    07              ??          07h                                     
ram:00017483    48              ??          48h    H                                
ram:00017484    00              ??          00h                                     
ram:00017485    23              ??          23h    #                                
ram:00017486    20              ??          20h                                     
ram:00017487    22              ??          22h    "                                
ram:00017488    06              ??          06h                                     
ram:00017489    49              ??          49h    I                                
ram:0001748a    14              ??          14h                                     
ram:0001748b    30              ??          30h    0                                
ram:0001748c    01              ??          01h                                     
ram:0001748d    f0              ??          F0h                                     
ram:0001748e    62              ??          62h    b                                
ram:0001748f    fb              ??          FBh                                     
ram:00017490    00              ??          00h                                     
ram:00017491    28              ??          28h    (                                
ram:00017492    03              ??          03h                                     
ram:00017493    d0              ??          D0h                                     
ram:00017494    00              ??          00h                                     
ram:00017495    22              ??          22h    "                                
ram:00017496    11              ??          11h                                     
ram:00017497    46              ??          46h    F                                
ram:00017498    ff              ??          FFh                                     
ram:00017499    f7              ??          F7h                                     
ram:0001749a    52              ??          52h    R                                
ram:0001749b    fa              ??          FAh                                     
ram:0001749c    70              ??          70h    p                                
ram:0001749d    bd              ??          BDh                                     
ram:0001749e    00              ??          00h                                     
ram:0001749f    00              ??          00h                                     
                            DAT_000174a0:                 ;XREF[1,0]:   000173fa
ram:000174a0    00200020        undefined4  20002000h                               
                            DAT_000174a4:                 ;XREF[2,0]:   00017404,0001740a
ram:000174a4    dc200020        undefined4  200020DCh                               
                            ;************************************************************************************************
                            ;*                                           FUNCTION                                           *
                            ;************************************************************************************************
                            ;undefined * FUN_000174a8(char * param_1, char * param_2)
          ;param_1       char *              r0                      
          ;param_2       char *              r1                      
          ;local_54      undefined1         -54                      ;XREF[2,0]:   000174b6,00017504
          ;local_58      undefined1         -58                      ;XREF[2,0]:   000174b2,00017506
                                                          ;XREF[2,0]:   0001677a,000167f2
ram:000174a8    70b5            push        {r4,r5,r6,lr}                           
ram:000174aa    0d46            mov         r5,param_2                              
ram:000174ac    92b0            sub         sp,#0x48                                
ram:000174ae    0021            movs        param_2,#0x0                            
ram:000174b0    6a46            mov         r2,sp                                   
ram:000174b2    1170            strb        param_2,[r2,#0x0]=>local_58             
ram:000174b4    0724            movs        r4,#0x7                                 
ram:000174b6    1171            strb        param_2,[r2,#local_54+0x58]             
ram:000174b8    0028            cmp         param_1,#0x0                            
ram:000174ba    12d0            beq         LAB_000174e2                            
ram:000174bc    8188            ldrh        param_2,[param_1,#0x4]                  
ram:000174be    0029            cmp         param_2,#0x0                            
ram:000174c0    05d0            beq         LAB_000174ce                            
ram:000174c2    8168            ldr         param_2,[param_1,#0x8]                  
ram:000174c4    0029            cmp         param_2,#0x0                            
ram:000174c6    02d0            beq         LAB_000174ce                            
ram:000174c8    0978            ldrb        param_2,[param_2,#0x0]                  
ram:000174ca    4907            lsls        param_2,param_2,#0x1d                   
ram:000174cc    02d4            bmi         LAB_000174d4                            
                            LAB_000174ce:                 ;XREF[3,0]:   000174c0,000174c6,000174ec
ram:000174ce    2046            mov         param_1,r4                              
                            LAB_000174d0:                 ;XREF[3,0]:   000174dc,000174fa,0001750c
ram:000174d0    12b0            add         sp,#0x48                                
ram:000174d2    70bd            pop         {r4,r5,r6,pc}                           
                            LAB_000174d4:                 ;XREF[1,0]:   000174cc
ram:000174d4    02a9            add         param_2,sp,#0x8                         
ram:000174d6    fff777f8        bl          FUN_000165c8                            ;undefined * FUN_000165c8(char * para...
ram:000174da    0028            cmp         param_1,#0x0                            
ram:000174dc    f8d1            bne         LAB_000174d0                            
ram:000174de    02ae            add         r6,sp,#0x8                              
ram:000174e0    00e0            b           LAB_000174e4                            
                            LAB_000174e2:                 ;XREF[1,0]:   000174ba
ram:000174e2    0026            movs        r6,#0x0                                 
                            LAB_000174e4:                 ;XREF[1,0]:   000174e0
ram:000174e4    002d            cmp         r5,#0x0                                 
ram:000174e6    0bd0            beq         LAB_00017500                            
ram:000174e8    a888            ldrh        param_1,[r5,#0x4]                       
ram:000174ea    0028            cmp         param_1,#0x0                            
ram:000174ec    efd1            bne         LAB_000174ce                            
ram:000174ee    01aa            add         r2,sp,#0x4                              
ram:000174f0    0aa9            add         param_2,sp,#0x28                        
ram:000174f2    2846            mov         param_1,r5                              
ram:000174f4    fff768f8        bl          FUN_000165c8                            ;undefined * FUN_000165c8(char * para...
ram:000174f8    0028            cmp         param_1,#0x0                            
ram:000174fa    e9d1            bne         LAB_000174d0                            
ram:000174fc    0aaa            add         r2,sp,#0x28                             
ram:000174fe    00e0            b           LAB_00017502                            
                            LAB_00017500:                 ;XREF[1,0]:   000174e6
ram:00017500    0022            movs        r2,#0x0                                 
                            LAB_00017502:                 ;XREF[1,0]:   000174fe
ram:00017502    6846            mov         param_1,sp                              
ram:00017504    0379            ldrb        r3,[r0,#local_54+0x58]                  
ram:00017506    0178            ldrb        param_2,[param_1,#0x0]=>local_58        
ram:00017508    3046            mov         param_1,r6                              
ram:0001750a    72df            svc         0x72                                    
ram:0001750c    e0e7            b           LAB_000174d0                            
ram:0001750e    0000            movs        r0,r0                                   
                            ;************************************************************************************************
                            ;*                                           FUNCTION                                           *
                            ;************************************************************************************************
                            ;undefined8 FUN_00017510(ushort * param_1, undefined4 * param_2)
          ;param_1       ushort *            r0                      
          ;param_2       undefined4 *        r1                      
          ;local_e       undefined1          -e                      ;XREF[1,0]:   0001753e
          ;local_10      undefined2         -10                      ;XREF[1,0]:   00017542
          ;local_14      undefined4         -14                      ;XREF[1,0]:   00017526
          ;local_20      undefined4         -20                      ;XREF[1,0]:   0001752a
                                                          ;XREF[1,0]:   00018e48
ram:00017510    30b5            push        {r4,r5,lr}                              
ram:00017512    0446            mov         r4,param_1                              
ram:00017514    0020            movs        param_1,#0x0                            
ram:00017516    85b0            sub         sp,#0x14                                
ram:00017518    c043            mvns        param_1,param_1                         
ram:0001751a    a086            strh        param_1,[r4,#0x34]                      
ram:0001751c    0868            ldr         param_1,[param_2,#0x0]                  
ram:0001751e    1e4b            ldr         r3,[PTR_DAT_00017598]                   ;= 000193e0
ram:00017520    0d46            mov         r5,param_2                              
ram:00017522    a063            str         param_1,[r4,#0x38]                      
                                                          ; FWD[4,0]:   000193e0,000193e4,000193e8,000193ec
ram:00017524    0fcb            ldmia       r3,{param_1,param_2,r2,r3}=>DAT_000193e0;= D4F3E8ADh
                                                                                    ;= A09484B8h
                                                                                    ;= 0FE2F5AAh
                                                                                    ;= 955A0000h
ram:00017526    0393            str         r3,[sp,#local_14+0x20]                  
ram:00017528    6b46            mov         r3,sp                                   
ram:0001752a    07c3            stmia       r3!=>local_20,{param_1,param_2,r2}      
ram:0001752c    2146            mov         param_2,r4                              
ram:0001752e    3231            adds        param_2,#0x32                           
ram:00017530    6846            mov         param_1,sp                              
ram:00017532    63df            svc         0x63                                    
ram:00017534    0028            cmp         param_1,#0x0                            
ram:00017536    2dd1            bne         LAB_00017594                            
ram:00017538    3220            movs        param_1,#0x32                           
ram:0001753a    015d            ldrb        param_2,[param_1,r4]                    
ram:0001753c    6846            mov         param_1,sp                              
ram:0001753e    8174            strb        param_2,[r0,#local_e+0x20]              
ram:00017540    1649            ldr         param_2,[DAT_0001759c]                  ;= 00001523h
ram:00017542    0182            strh        param_2,[r0,#local_10+0x20]             
ram:00017544    2246            mov         r2,r4                                   
ram:00017546    04a9            add         param_2,sp,#0x10                        
ram:00017548    0120            movs        param_1,#0x1                            
ram:0001754a    a0df            svc         0xa0                                    
ram:0001754c    0028            cmp         param_1,#0x0                            
ram:0001754e    21d1            bne         LAB_00017594                            
ram:00017550    2946            mov         param_2,r5                              
ram:00017552    2046            mov         param_1,r4                              
ram:00017554    fff726fe        bl          FUN_000171a4                            ;undefined8 FUN_000171a4(ushort * par...
ram:00017558    0028            cmp         param_1,#0x0                            
ram:0001755a    1bd1            bne         LAB_00017594                            
ram:0001755c    2946            mov         param_2,r5                              
ram:0001755e    2046            mov         param_1,r4                              
ram:00017560    fff7f2fc        bl          FUN_00016f48                            ;undefined8 FUN_00016f48(ushort * par...
ram:00017564    0028            cmp         param_1,#0x0                            
ram:00017566    15d1            bne         LAB_00017594                            
ram:00017568    2946            mov         param_2,r5                              
ram:0001756a    2046            mov         param_1,r4                              
ram:0001756c    fff78afd        bl          FUN_00017084                            ;undefined8 FUN_00017084(ushort * par...
ram:00017570    0028            cmp         param_1,#0x0                            
ram:00017572    0fd1            bne         LAB_00017594                            
ram:00017574    2946            mov         param_2,r5                              
ram:00017576    2046            mov         param_1,r4                              
ram:00017578    fff72efd        bl          FUN_00016fd8                            ;undefined8 FUN_00016fd8(ushort * par...
ram:0001757c    0028            cmp         param_1,#0x0                            
ram:0001757e    09d1            bne         LAB_00017594                            
ram:00017580    2946            mov         param_2,r5                              
ram:00017582    2046            mov         param_1,r4                              
ram:00017584    fff78afc        bl          FUN_00016e9c                            ;undefined8 FUN_00016e9c(ushort * par...
ram:00017588    0028            cmp         param_1,#0x0                            
ram:0001758a    03d1            bne         LAB_00017594                            
ram:0001758c    2946            mov         param_2,r5                              
ram:0001758e    2046            mov         param_1,r4                              
ram:00017590    fff7c0fd        bl          FUN_00017114                            ;undefined8 FUN_00017114(ushort * par...
                            LAB_00017594:                 ;XREF[7,0]:   00017536,0001754e,0001755a,00017566
                                                          ;             00017572,0001757e,0001758a
ram:00017594    05b0            add         sp,#0x14                                
ram:00017596    30bd            pop         {r4,r5,pc}                              
                            PTR_DAT_00017598:             ;XREF[1,0]:   0001751e
ram:00017598    e0930100        addr        DAT_000193e0                            ;= D4F3E8ADh
                            DAT_0001759c:                 ;XREF[1,0]:   00017540
ram:0001759c    23150000        undefined4  00001523h                               
                            ;************************************************************************************************
                            ;*                                           FUNCTION                                           *
                            ;************************************************************************************************
                            ;undefined FUN_000175a0(int param_1, short * param_2)
          ;param_1       int                 r0                      
          ;param_2       short *             r1                      
                                                          ;XREF[1,0]:   00017828
ram:000175a0    10b5            push        {r4,lr}                                 
ram:000175a2    0a88            ldrh        r2,[param_2,#0x0]                       
ram:000175a4    102a            cmp         r2,#0x10                                
ram:000175a6    06d0            beq         LAB_000175b6                            
ram:000175a8    112a            cmp         r2,#0x11                                
ram:000175aa    06d0            beq         LAB_000175ba                            
ram:000175ac    502a            cmp         r2,#0x50                                
ram:000175ae    01d1            bne         LAB_000175b4                            
ram:000175b0    01f03ef9        bl          FUN_00018830                            ;undefined FUN_00018830(int param_1, ...
                            LAB_000175b4:                 ;XREF[1,0]:   000175ae
ram:000175b4    10bd            pop         {r4,pc}                                 
                            LAB_000175b6:                 ;XREF[1,0]:   000175a6
ram:000175b6    8988            ldrh        param_2,[param_2,#0x4]                  
ram:000175b8    01e0            b           LAB_000175be                            
                            LAB_000175ba:                 ;XREF[1,0]:   000175aa
ram:000175ba    0021            movs        param_2,#0x0                            
ram:000175bc    c943            mvns        param_2,param_2                         
                            LAB_000175be:                 ;XREF[1,0]:   000175b8
ram:000175be    8186            strh        param_2,[param_1,#0x34]                 
ram:000175c0    10bd            pop         {r4,pc}                                 
ram:000175c2    0000            movs        r0,r0                                   
                            ;************************************************************************************************
                            ;*                                           FUNCTION                                           *
                            ;************************************************************************************************
                            ;undefined FUN_000175c4(undefined4 * param_1)
          ;param_1       undefined4 *        r0                      
                                                          ;XREF[1,0]:   0001737c
ram:000175c4    70b5            push        {r4,r5,r6,lr}                           
ram:000175c6    0546            mov         r5,param_1                              
ram:000175c8    0146            mov         r1,param_1                              
ram:000175ca    1c22            movs        r2,#0x1c                                
ram:000175cc    0f48            ldr         param_1,[DAT_0001760c]                  ;= 20002514h
ram:000175ce    fef715fe        bl          FUN_000161fc                            ;undefined FUN_000161fc(undefined4 * ...
ram:000175d2    0f4c            ldr         r4,[DAT_00017610]                       ;= 20002030h
ram:000175d4    0026            movs        r6,#0x0                                 
ram:000175d6    2670            strb        r6,[r4,#0x0]=>DAT_20002030              
ram:000175d8    2968            ldr         r1,[r5,#0x0]                            
ram:000175da    0029            cmp         r1,#0x0                                 
ram:000175dc    07d0            beq         LAB_000175ee                            
ram:000175de    0822            movs        r2,#0x8                                 
ram:000175e0    a018            adds        param_1=>DAT_20002038,r4,r2             
ram:000175e2    fef70bfe        bl          FUN_000161fc                            ;undefined FUN_000161fc(undefined4 * ...
ram:000175e6    2046            mov         param_1,r4                              
ram:000175e8    0830            adds        param_1,#0x8                            
ram:000175ea    7adf            svc         0x7a                                    
ram:000175ec    02e0            b           LAB_000175f4                            
                            LAB_000175ee:                 ;XREF[1,0]:   000175dc
ram:000175ee    0848            ldr         param_1,[DAT_00017610]                  ;= 20002030h
ram:000175f0    0830            adds        param_1,#0x8                            
ram:000175f2    7bdf            svc         0x7b                                    
                            LAB_000175f4:                 ;XREF[1,0]:   000175ec
ram:000175f4    0028            cmp         param_1,#0x0                            
ram:000175f6    08d1            bne         LAB_0001760a                            
ram:000175f8    401e            subs        param_1,param_1,#0x1                    
ram:000175fa    6080            strh        param_1,[r4,#0x2]=>DAT_20002032         
ram:000175fc    0448            ldr         param_1,[DAT_00017610]                  ;= 20002030h
ram:000175fe    6670            strb        r6,[r4,#0x1]=>DAT_20002031              
ram:00017600    044a            ldr         r2=>LAB_00019238...,[PTR_LAB_00019238...;= 00019239
ram:00017602    0021            movs        r1,#0x0                                 
ram:00017604    001d            adds        param_1=>DAT_20002034,param_1,#0x4      
ram:00017606    fff75bfb        bl          FUN_00016cc0                            ;undefined4 FUN_00016cc0(int * param_...
                            LAB_0001760a:                 ;XREF[1,0]:   000175f6
ram:0001760a    70bd            pop         {r4,r5,r6,pc}                           
                            DAT_0001760c:                 ;XREF[1,0]:   000175cc
ram:0001760c    14250020        undefined4  20002514h                               
                            DAT_00017610:                 ;XREF[3,0]:   000175d2,000175ee,000175fc
ram:00017610    30200020        undefined4  20002030h                               
                            PTR_LAB_00019238+1+1_00017614:;XREF[1,0]:   00017600
ram:00017614    39920100        addr        LAB_00019238+1+1                        
                            ;************************************************************************************************
                            ;*                                           FUNCTION                                           *
                            ;************************************************************************************************
                            ;undefined FUN_00017618(ushort * param_1, undefined4 param_2, undefined4 param_3, uint param_4)
          ;param_1       ushort *            r0                      
          ;param_2       undefined4          r1                      
          ;param_3       undefined4          r2                      
          ;param_4       uint                r3                      
                                                          ;XREF[1,0]:   00017820
ram:00017618    f8b5            push        {param_4,r4,r5,r6,r7,lr}                
ram:0001761a    224c            ldr         r4,[DAT_000176a4]                       ;= 20002514h
ram:0001761c    0288            ldrh        param_3,[param_1,#0x0]                  
ram:0001761e    0027            movs        r7,#0x0                                 
ram:00017620    1f4d            ldr         r5,[DAT_000176a0]                       ;= 20002030h
ram:00017622    e689            ldrh        r6,[r4,#0xe]=>DAT_20002522              
ram:00017624    102a            cmp         param_3,#0x10                           
ram:00017626    16d0            beq         LAB_00017656                            
ram:00017628    2946            mov         param_2,r5                              
ram:0001762a    4968            ldr         param_2,[param_2,#0x4]=>DAT_20002034    
ram:0001762c    112a            cmp         param_3,#0x11                           
ram:0001762e    21d0            beq         LAB_00017674                            
ram:00017630    122a            cmp         param_3,#0x12                           
ram:00017632    2dd0            beq         LAB_00017690                            
ram:00017634    502a            cmp         param_3,#0x50                           
ram:00017636    1cd1            bne         LAB_00017672                            
ram:00017638    c288            ldrh        param_3,[param_1,#0x6]                  
ram:0001763a    801d            adds        param_1,param_1,#0x6                    
ram:0001763c    b242            cmp         param_3,r6                              
ram:0001763e    18d1            bne         LAB_00017672                            
ram:00017640    028b            ldrh        param_3,[param_1,#0x18]                 
ram:00017642    022a            cmp         param_3,#0x2                            
ram:00017644    15d1            bne         LAB_00017672                            
ram:00017646    c27e            ldrb        param_3,[param_1,#0x1b]                 
ram:00017648    837e            ldrb        param_4,[param_1,#0x1a]                 
ram:0001764a    1002            lsls        param_1,param_3,#0x8                    
ram:0001764c    1843            orrs        param_1,param_4                         
ram:0001764e    c007            lsls        param_1,param_1,#0x1f                   
ram:00017650    c00f            lsrs        param_1,param_1,#0x1f                   
ram:00017652    0cd1            bne         LAB_0001766e                            
ram:00017654    12e0            b           LAB_0001767c                            
                            LAB_00017656:                 ;XREF[1,0]:   00017626
ram:00017656    8188            ldrh        param_2,[param_1,#0x4]                  
ram:00017658    6980            strh        param_2,[r5,#0x2]=>DAT_20002032         
ram:0001765a    0146            mov         param_2,param_1                         
ram:0001765c    1048            ldr         param_1,[DAT_000176a0]                  ;= 20002030h
ram:0001765e    0822            movs        param_3,#0x8                            
ram:00017660    0e31            adds        param_2,#0xe                            
ram:00017662    1030            adds        param_1,#0x10                           
ram:00017664    fef7cafd        bl          FUN_000161fc                            ;undefined FUN_000161fc(undefined4 * ...
ram:00017668    6f70            strb        r7,[r5,#0x1]=>DAT_20002031              
ram:0001766a    002e            cmp         r6,#0x0                                 
ram:0001766c    01d1            bne         LAB_00017672                            
                            LAB_0001766e:                 ;XREF[2,0]:   00017652,0001769c
ram:0001766e    00f0ddfa        bl          FUN_00017c2c                            ;undefined FUN_00017c2c(void)
                            LAB_00017672:                 ;XREF[6,0]:   00017636,0001763e,00017644,0001766c
                                                          ;             00017684,0001768a
ram:00017672    f8bd            pop         {param_4,r4,r5,r6,r7,pc}                
                            LAB_00017674:                 ;XREF[1,0]:   0001762e
ram:00017674    0020            movs        param_1,#0x0                            
ram:00017676    c043            mvns        param_1,param_1                         
ram:00017678    6880            strh        param_1,[r5,#0x2]=>DAT_20002032         
ram:0001767a    6f70            strb        r7,[r5,#0x1]=>DAT_20002031              
                            LAB_0001767c:                 ;XREF[1,0]:   00017654
ram:0001767c    0846            mov         param_1,param_2                         
ram:0001767e    fff7e1fb        bl          FUN_00016e44                            ;undefined4 FUN_00016e44(uint param_1...
ram:00017682    0028            cmp         param_1,#0x0                            
ram:00017684    f5d0            beq         LAB_00017672                            
ram:00017686    a169            ldr         param_2,[r4,#0x18]=>DAT_2000252c        
ram:00017688    0029            cmp         param_2,#0x0                            
ram:0001768a    f2d0            beq         LAB_00017672                            
ram:0001768c    8847            blx         param_2                                 
ram:0001768e    f8bd            pop         {param_4,r4,r5,r6,r7,pc}                
                            LAB_00017690:                 ;XREF[1,0]:   00017632
ram:00017690    811d            adds        param_2,param_1,#0x6                    
ram:00017692    0348            ldr         param_1,[DAT_000176a0]                  ;= 20002030h
ram:00017694    0822            movs        param_3,#0x8                            
ram:00017696    1030            adds        param_1,#0x10                           
ram:00017698    fef7b0fd        bl          FUN_000161fc                            ;undefined FUN_000161fc(undefined4 * ...
ram:0001769c    e7e7            b           LAB_0001766e                            
ram:0001769e    0000            movs        r0,r0                                   
                            DAT_000176a0:                 ;XREF[3,0]:   00017620,0001765c,00017692
ram:000176a0    30200020        undefined4  20002030h                               
                            DAT_000176a4:                 ;XREF[1,0]:   0001761a
ram:000176a4    14250020        undefined4  20002514h                               
                            ;************************************************************************************************
                            ;*                                           FUNCTION                                           *
                            ;************************************************************************************************
                            ;undefined FUN_000176a8(undefined4 param_1, undefined4 param_2, undefined4 param_3, uint param_4)
          ;param_1       undefined4          r0                      
          ;param_2       undefined4          r1                      
          ;param_3       undefined4          r2                      
          ;param_4       uint                r3                      
                                                          ;XREF[1,0]:   00017e5e
ram:000176a8    10b5            push        {r4,lr}                                 
ram:000176aa    0248            ldr         param_1,[DAT_000176b4]                  ;= 20002030h
ram:000176ac    4068            ldr         param_1,[param_1,#0x4]=>DAT_20002034    
ram:000176ae    fff7c9fb        bl          FUN_00016e44                            ;undefined4 FUN_00016e44(uint param_1...
ram:000176b2    10bd            pop         {r4,pc}                                 
                            DAT_000176b4:                 ;XREF[1,0]:   000176aa
ram:000176b4    30200020        undefined4  20002030h                               
                            ;************************************************************************************************
                            ;*                                           FUNCTION                                           *
                            ;************************************************************************************************
                            ;undefined4 * FUN_000176b8(undefined2 * param_1, int param_2)
          ;param_1       undefined2 *        r0                      
          ;param_2       int                 r1                      
          ;local_10      undefined4         -10                      ;XREF[1,0]:   000176d6
          ;local_1c      undefined4         -1c                      ;XREF[1,0]:   000176da
          ;local_1e      undefined1         -1e                      ;XREF[1,0]:   000176fa
          ;local_20      undefined2         -20                      ;XREF[1,0]:   000176e0
                                                          ;XREF[1,0]:   00018e2a
ram:000176b8    30b5            push        {r4,r5,lr}                              
ram:000176ba    85b0            sub         sp,#0x14                                
ram:000176bc    0d46            mov         r5,param_2                              
ram:000176be    0400            movs        r4,param_1                              
ram:000176c0    39d0            beq         LAB_00017736                            
ram:000176c2    002d            cmp         r5,#0x0                                 
ram:000176c4    37d0            beq         LAB_00017736                            
ram:000176c6    6868            ldr         param_1,[r5,#0x4]                       
ram:000176c8    0028            cmp         param_1,#0x0                            
ram:000176ca    34d0            beq         LAB_00017736                            
ram:000176cc    0020            movs        param_1,#0x0                            
ram:000176ce    c043            mvns        param_1,param_1                         
ram:000176d0    1a4b            ldr         r3,[PTR_DAT_0001773c]                   ;= 000193f0
ram:000176d2    2080            strh        param_1,[r4,#0x0]                       
                                                          ; FWD[4,0]:   000193f0,000193f4,000193f8,000193fc
ram:000176d4    0fcb            ldmia       r3,{param_1,param_2,r2,r3}=>DAT_000193f0;= EABCD123h
                                                                                    ;= 1523785Fh
                                                                                    ;= 1212EFDEh
ram:000176d6    0493            str         r3,[sp,#local_10+0x20]                  
ram:000176d8    01ab            add         r3,sp,#0x4                              
ram:000176da    07c3            stmia       r3!=>local_1c,{param_1,param_2,r2}      
ram:000176dc    1848            ldr         param_1,[DAT_00017740]                  ;= 00001530h
ram:000176de    6946            mov         param_2,sp                              
ram:000176e0    0880            strh        param_1,[param_2,#0x0]=>local_20        
ram:000176e2    01a8            add         param_1,sp,#0x4                         
ram:000176e4    811e            subs        param_2,param_1,#0x2                    
ram:000176e6    63df            svc         0x63                                    
ram:000176e8    0028            cmp         param_1,#0x0                            
ram:000176ea    22d1            bne         LAB_00017732                            
ram:000176ec    221d            adds        r2,r4,#0x4                              
ram:000176ee    6946            mov         param_2,sp                              
ram:000176f0    0120            movs        param_1,#0x1                            
ram:000176f2    a0df            svc         0xa0                                    
ram:000176f4    0028            cmp         param_1,#0x0                            
ram:000176f6    1cd1            bne         LAB_00017732                            
ram:000176f8    6846            mov         param_1,sp                              
ram:000176fa    8078            ldrb        param_1,[r0,#local_1e+0x20]             
ram:000176fc    a071            strb        param_1,[r4,#0x6]                       
ram:000176fe    2046            mov         param_1,r4                              
ram:00017700    00f058fb        bl          FUN_00017db4                            ;undefined2 FUN_00017db4(int param_1)
ram:00017704    0028            cmp         param_1,#0x0                            
ram:00017706    14d1            bne         LAB_00017732                            
ram:00017708    2046            mov         param_1,r4                              
ram:0001770a    00f00ffb        bl          FUN_00017d2c                            ;undefined2 FUN_00017d2c(int param_1)
ram:0001770e    0028            cmp         param_1,#0x0                            
ram:00017710    0fd1            bne         LAB_00017732                            
ram:00017712    2946            mov         param_2,r5                              
ram:00017714    2046            mov         param_1,r4                              
ram:00017716    00f0affb        bl          FUN_00017e78                            ;undefined8 FUN_00017e78(int param_1)
ram:0001771a    0028            cmp         param_1,#0x0                            
ram:0001771c    09d1            bne         LAB_00017732                            
ram:0001771e    6868            ldr         param_1,[r5,#0x4]                       
ram:00017720    a062            str         param_1,[r4,#0x28]                      
ram:00017722    a868            ldr         param_1,[r5,#0x8]                       
ram:00017724    0028            cmp         param_1,#0x0                            
ram:00017726    00d0            beq         LAB_0001772a                            
ram:00017728    e062            str         param_1,[r4,#0x2c]                      
                            LAB_0001772a:                 ;XREF[1,0]:   00017726
ram:0001772a    0649            ldr         param_2,[DAT_00017744]                  ;= 200020D4h
ram:0001772c    0120            movs        param_1,#0x1                            
ram:0001772e    0870            strb        param_1,[param_2,#0x0]=>DAT_200020d4    
ram:00017730    0020            movs        param_1,#0x0                            
                            LAB_00017732:                 ;XREF[6,0]:   000176ea,000176f6,00017706,00017710
                                                          ;             0001771c,00017738
ram:00017732    05b0            add         sp,#0x14                                
ram:00017734    30bd            pop         {r4,r5,pc}                              
                            LAB_00017736:                 ;XREF[3,0]:   000176c0,000176c4,000176ca
ram:00017736    0e20            movs        param_1,#0xe                            
ram:00017738    fbe7            b           LAB_00017732                            
ram:0001773a    0000            movs        r0,r0                                   
                            PTR_DAT_0001773c:             ;XREF[1,0]:   000176d0
ram:0001773c    f0930100        addr        DAT_000193f0                            ;= EABCD123h
                            DAT_00017740:                 ;XREF[1,0]:   000176dc
ram:00017740    30150000        undefined4  00001530h                               
                            DAT_00017744:                 ;XREF[1,0]:   0001772a
ram:00017744    d4200020        undefined4  200020D4h                               
                            ;************************************************************************************************
                            ;*                                           FUNCTION                                           *
                            ;************************************************************************************************
                            ;undefined FUN_00017748(ushort * param_1, short * param_2, uint param_3, undefined4 param_4)
          ;param_1       ushort *            r0                      
          ;param_2       short *             r1                      
          ;param_3       uint                r2                      
          ;param_4       undefined4          r3                      
          ;local_10      undefined4         -10                      ;XREF[1,0]:   000177aa
          ;local_14      undefined1         -14                      ;XREF[1,0]:   000177a6
          ;local_18      undefined1         -18                      ;XREF[1,0]:   000177a2
                                                          ;XREF[1,0]:   00017832
ram:00017748    3eb5            push        {param_2,param_3,param_4,r4,r5,lr}      
ram:0001774a    0028            cmp         param_1,#0x0                            
ram:0001774c    20d0            beq         LAB_00017790                            
ram:0001774e    0029            cmp         param_2,#0x0                            
ram:00017750    1ed0            beq         LAB_00017790                            
ram:00017752    826a            ldr         param_3,[param_1,#0x28]                 
ram:00017754    002a            cmp         param_3,#0x0                            
ram:00017756    1bd0            beq         LAB_00017790                            
ram:00017758    0a88            ldrh        param_3,[param_2,#0x0]                  
ram:0001775a    102a            cmp         param_3,#0x10                           
ram:0001775c    19d0            beq         LAB_00017792                            
ram:0001775e    112a            cmp         param_3,#0x11                           
ram:00017760    28d0            beq         LAB_000177b4                            
ram:00017762    502a            cmp         param_3,#0x50                           
ram:00017764    17d0            beq         LAB_00017796                            
ram:00017766    512a            cmp         param_3,#0x51                           
ram:00017768    12d1            bne         LAB_00017790                            
ram:0001776a    0446            mov         r4,param_1                              
ram:0001776c    8879            ldrb        param_1,[param_2,#0x6]                  
ram:0001776e    891d            adds        param_2,param_2,#0x6                    
ram:00017770    0228            cmp         param_1,#0x2                            
ram:00017772    0dd1            bne         LAB_00017790                            
ram:00017774    4888            ldrh        param_1,[param_2,#0x2]                  
ram:00017776    228a            ldrh        param_3,[r4,#0x10]                      
ram:00017778    9042            cmp         param_1,param_3                         
ram:0001777a    09d1            bne         LAB_00017790                            
ram:0001777c    2046            mov         param_1,r4                              
ram:0001777e    891c            adds        param_2,param_2,#0x2                    
ram:00017780    00f0a4ff        bl          FUN_000186cc                            ;undefined8 FUN_000186cc(ushort * par...
ram:00017784    0028            cmp         param_1,#0x0                            
ram:00017786    03d0            beq         LAB_00017790                            
ram:00017788    e16a            ldr         param_2,[r4,#0x2c]                      
ram:0001778a    0029            cmp         param_2,#0x0                            
ram:0001778c    00d0            beq         LAB_00017790                            
ram:0001778e    8847            blx         param_2                                 
                            LAB_00017790:                 ;XREF[9,0]:   0001774c,00017750,00017756,00017768
                                                          ;             00017772,0001777a,00017786,0001778c
                                                          ;             0001779c
ram:00017790    3ebd            pop         {param_2,param_3,param_4,r4,r5,pc}      
                            LAB_00017792:                 ;XREF[1,0]:   0001775c
ram:00017792    8988            ldrh        param_2,[param_2,#0x4]                  
ram:00017794    10e0            b           LAB_000177b8                            
                            LAB_00017796:                 ;XREF[1,0]:   00017764
ram:00017796    ca88            ldrh        param_3,[param_2,#0x6]                  
ram:00017798    0389            ldrh        param_4,[param_1,#0x8]                  
ram:0001779a    9a42            cmp         param_3,param_4                         
ram:0001779c    f8d1            bne         LAB_00017790                            
ram:0001779e    0822            movs        param_3,#0x8                            
ram:000177a0    6b46            mov         param_4,sp                              
ram:000177a2    1a70            strb        param_3,[param_4,#0x0]=>local_18        
ram:000177a4    8a7f            ldrb        param_3,[param_2,#0x1e]                 
ram:000177a6    1a71            strb        param_3,[r3,#local_14+0x18]             
ram:000177a8    2031            adds        param_2,#0x20                           
ram:000177aa    0291            str         param_2,[sp,#local_10+0x18]             
ram:000177ac    826a            ldr         param_3,[param_1,#0x28]                 
ram:000177ae    6946            mov         param_2,sp                              
ram:000177b0    9047            blx         param_3                                 
ram:000177b2    3ebd            pop         {param_2,param_3,param_4,r4,r5,pc}      
                            LAB_000177b4:                 ;XREF[1,0]:   00017760
ram:000177b4    0021            movs        param_2,#0x0                            
ram:000177b6    c943            mvns        param_2,param_2                         
                            LAB_000177b8:                 ;XREF[1,0]:   00017794
ram:000177b8    0180            strh        param_2,[param_1,#0x0]                  
ram:000177ba    3ebd            pop         {param_2,param_3,param_4,r4,r5,pc}      
                            ;************************************************************************************************
                            ;*                                           FUNCTION                                           *
                            ;************************************************************************************************
                            ;undefined8 FUN_000177bc(ushort * param_1, undefined * param_2, char param_3)
          ;param_1       ushort *            r0                      
          ;param_2       undefined *         r1                      
          ;param_3       char                r2                      
          ;local_10      undefined2         -10                      ;XREF[1,0]:   000177e8
          ;local_14      undefined4         -14                      ;XREF[2,0]:   000177f0,000177fe
          ;local_18      undefined4         -18                      ;XREF[2,0]:   000177ee,000177fc
          ;local_1c      undefined4         -1c                      ;XREF[2,0]:   000177ec,000177f8
          ;local_20      undefined4         -20                      ;XREF[2,1]:   000177ea,000177f4,000177f6
                                                          ;XREF[2,0]:   00017d0a,00018780
ram:000177bc    30b5            push        {r4,r5,lr}                              
ram:000177be    85b0            sub         sp,#0x14                                
ram:000177c0    0028            cmp         param_1,#0x0                            
ram:000177c2    22d0            beq         LAB_0001780a                            
ram:000177c4    0388            ldrh        r3,[param_1,#0x0]                       
ram:000177c6    134c            ldr         r4,[DAT_00017814]                       ;= 0000FFFFh
ram:000177c8    a342            cmp         r3,r4                                   
ram:000177ca    20d0            beq         LAB_0001780e                            
ram:000177cc    124b            ldr         r3,[DAT_00017818]                       ;= 200020D4h
ram:000177ce    1b78            ldrb        r3,[r3,#0x0]=>DAT_200020d4              
ram:000177d0    002b            cmp         r3,#0x0                                 
ram:000177d2    1cd0            beq         LAB_0001780e                            
ram:000177d4    104b            ldr         r3,[DAT_00017818]                       ;= 200020D4h
ram:000177d6    1025            movs        r5,#0x10                                
ram:000177d8    5b1c            adds        r3,r3,#0x1                              
ram:000177da    1d70            strb        r5,[r3,#0x0]=>DAT_200020d5              
ram:000177dc    5970            strb        param_2,[r3,#0x1]=>DAT_200020d6         
ram:000177de    0024            movs        r4,#0x0                                 
ram:000177e0    0125            movs        r5,#0x1                                 
ram:000177e2    9a70            strb        param_3,[r3,#0x2]=>DAT_200020d7         
ram:000177e4    0322            movs        param_3,#0x3                            
ram:000177e6    6946            mov         param_2,sp                              
ram:000177e8    0a82            strh        param_3,[r1,#local_10+0x20]             
ram:000177ea    0094            str         r4,[sp,#0x0]=>local_20                  
ram:000177ec    0194            str         r4,[sp,#local_1c+0x20]                  
ram:000177ee    0294            str         r4,[sp,#local_18+0x20]                  
ram:000177f0    0394            str         r4,[sp,#local_14+0x20]                  
ram:000177f2    028a            ldrh        param_3,[param_1,#0x10]                 
ram:000177f4    0a80            strh        param_3,[param_2,#0x0]=>local_20        
ram:000177f6    8d70            strb        r5,[r1,#local_20+0x22]                  
ram:000177f8    8c80            strh        r4,[r1,#local_1c+0x20]                  
ram:000177fa    04a9            add         param_2,sp,#0x10                        
ram:000177fc    0291            str         param_2,[sp,#local_18+0x20]             
ram:000177fe    0393            str         r3=>DAT_200020d5,[sp,#local_14+0x20]    
ram:00017800    0088            ldrh        param_1,[param_1,#0x0]                  
ram:00017802    6946            mov         param_2,sp                              
ram:00017804    a6df            svc         0xa6                                    
                            LAB_00017806:                 ;XREF[2,0]:   0001780c,00017810
ram:00017806    05b0            add         sp,#0x14                                
ram:00017808    30bd            pop         {r4,r5,pc}                              
                            LAB_0001780a:                 ;XREF[1,0]:   000177c2
ram:0001780a    0e20            movs        param_1,#0xe                            
ram:0001780c    fbe7            b           LAB_00017806                            
                            LAB_0001780e:                 ;XREF[2,0]:   000177ca,000177d2
ram:0001780e    0820            movs        param_1,#0x8                            
ram:00017810    f9e7            b           LAB_00017806                            
ram:00017812    0000            movs        r0,r0                                   
                            DAT_00017814:                 ;XREF[1,0]:   000177c6
ram:00017814    ffff0000        undefined4  0000FFFFh                               
                            DAT_00017818:                 ;XREF[2,0]:   000177cc,000177d4
ram:00017818    d4200020        undefined4  200020D4h                               
                            ;************************************************************************************************
                            ;*                                           FUNCTION                                           *
                            ;************************************************************************************************
                            ;undefined FUN_0001781c(ushort * param_1, undefined4 param_2, uint param_3, uint param_4)
          ;param_1       ushort *            r0                      
          ;param_2       undefined4          r1                      
          ;param_3       uint                r2                      
          ;param_4       uint                r3                      
                                                          ;XREF[0,2]:   00017866,0001788c
ram:0001781c    10b5            push        {r4,lr}                                 
ram:0001781e    0446            mov         r4,param_1                              
ram:00017820    fff7fafe        bl          FUN_00017618                            ;undefined FUN_00017618(ushort * para...
ram:00017824    2146            mov         param_2,r4                              
ram:00017826    0648            ldr         param_1,[DAT_00017840]                  ;= 20002470h
ram:00017828    fff7bafe        bl          FUN_000175a0                            ;undefined FUN_000175a0(int param_1, ...
ram:0001782c    0448            ldr         param_1,[DAT_00017840]                  ;= 20002470h
ram:0001782e    2146            mov         param_2,r4                              
ram:00017830    3c30            adds        param_1,#0x3c                           
ram:00017832    fff789ff        bl          FUN_00017748                            ;undefined FUN_00017748(ushort * para...
ram:00017836    2046            mov         param_1,r4                              
ram:00017838    00f0ecfe        bl          FUN_00018614                            ;undefined FUN_00018614(ushort * para...
ram:0001783c    10bd            pop         {r4,pc}                                 
ram:0001783e    0000            movs        r0,r0                                   
                            DAT_00017840:                 ;XREF[2,0]:   00017826,0001782c
ram:00017840    70240020        undefined4  20002470h                               
                            ;************************************************************************************************
                            ;*                                           FUNCTION                                           *
                            ;************************************************************************************************
                            ;undefined FUN_00017844(void)
          ;local_8       undefined4          -8                      ;XREF[2,0]:   00017856,0001785c
                                                          ;XREF[1,0]:   000184c2
ram:00017844    08b5            push        {r3,lr}                                 
ram:00017846    0f4b            ldr         r3=>LAB_00018ea8...,[PTR_LAB_00018ea8...;= 00018ea9
ram:00017848    5022            movs        r2,#0x50                                
ram:0001784a    0f49            ldr         r1,[DAT_00017888]                       ;= 20002130h
ram:0001784c    0620            movs        r0,#0x6                                 
ram:0001784e    01f035fb        bl          FUN_00018ebc                            ;undefined8 FUN_00018ebc(int param_1,...
ram:00017852    0028            cmp         r0,#0x0                                 
ram:00017854    11d1            bne         LAB_0001787a                            
ram:00017856    0090            str         r0,[sp,#0x0]=>local_8                   
ram:00017858    0120            movs        r0,#0x1                                 
ram:0001785a    6946            mov         r1,sp                                   
ram:0001785c    0870            strb        r0,[r1,#0x0]=>local_8                   
ram:0001785e    6846            mov         r0,sp                                   
ram:00017860    60df            svc         0x60                                    
ram:00017862    0028            cmp         r0,#0x0                                 
ram:00017864    09d1            bne         LAB_0001787a                            
ram:00017866    0948            ldr         r0=>FUN_0001781c+1,[PTR_FUN_0001781c+...;= 0001781d
ram:00017868    01f008fb        bl          FUN_00018e7c                            ;undefined4 FUN_00018e7c(int param_1)
ram:0001786c    0028            cmp         r0,#0x0                                 
ram:0001786e    04d1            bne         LAB_0001787a                            
ram:00017870    0748            ldr         r0=>LAB_00019098...,[PTR_LAB_00019098...;= 00019099
ram:00017872    01f03bfb        bl          FUN_00018eec                            ;undefined4 FUN_00018eec(int param_1)
ram:00017876    0028            cmp         r0,#0x0                                 
ram:00017878    03d0            beq         LAB_00017882                            
                            LAB_0001787a:                 ;XREF[3,0]:   00017854,00017864,0001786e
ram:0001787a    0022            movs        r2,#0x0                                 
ram:0001787c    1146            mov         r1,r2                                   
ram:0001787e    fff75ff8        bl          FUN_00016940                            ;undefined FUN_00016940(void)
                            LAB_00017882:                 ;XREF[1,0]:   00017878
ram:00017882    08bd            pop         {r3,pc}                                 
                            PTR_LAB_00018ea8+1+1_00017884:;XREF[1,0]:   00017846
ram:00017884    a98e0100        addr        LAB_00018ea8+1+1                        
                            DAT_00017888:                 ;XREF[1,0]:   0001784a
ram:00017888    30210020        undefined4  20002130h                               
                            PTR_FUN_0001781c+1_0001788c:  ;XREF[1,0]:   00017866
ram:0001788c    1d780100        addr        FUN_0001781c+1                          
                            PTR_LAB_00019098+1+1_00017890:;XREF[1,0]:   00017870
ram:00017890    99900100        addr        LAB_00019098+1+1                        
                            ;************************************************************************************************
                            ;*                                           FUNCTION                                           *
                            ;************************************************************************************************
                            ;undefined FUN_00017894(void)
                                                          ;XREF[1,0]:   00017d00
ram:00017894    70b5            push        {r4,r5,r6,lr}                           
ram:00017896    1a48            ldr         r0,[DAT_00017900]                       ;= 20002054h
ram:00017898    0068            ldr         r0,[r0,#0x0]=>DAT_20002054              
ram:0001789a    8047            blx         r0                                      
ram:0001789c    b120            movs        r0,#0xb1                                
ram:0001789e    3cdf            svc         0x3c                                    
ram:000178a0    0028            cmp         r0,#0x0                                 
ram:000178a2    03d0            beq         LAB_000178ac                            
ram:000178a4    0022            movs        r2,#0x0                                 
ram:000178a6    1146            mov         r1,r2                                   
ram:000178a8    fff74af8        bl          FUN_00016940                            ;undefined FUN_00016940(void)
                            LAB_000178ac:                 ;XREF[1,0]:   000178a2
ram:000178ac    11df            svc         0x11                                    
ram:000178ae    0028            cmp         r0,#0x0                                 
ram:000178b0    03d0            beq         LAB_000178ba                            
ram:000178b2    0022            movs        r2,#0x0                                 
ram:000178b4    1146            mov         r1,r2                                   
ram:000178b6    fff743f8        bl          FUN_00016940                            ;undefined FUN_00016940(void)
                            LAB_000178ba:                 ;XREF[1,0]:   000178b0
ram:000178ba    124c            ldr         r4,[DAT_00017904]                       ;= 10001000h
ram:000178bc    6069            ldr         r0,[r4,#offset DAT_10001014 &0xff]      
ram:000178be    13df            svc         0x13                                    
ram:000178c0    0028            cmp         r0,#0x0                                 
ram:000178c2    03d0            beq         LAB_000178cc                            
ram:000178c4    0022            movs        r2,#0x0                                 
ram:000178c6    1146            mov         r1,r2                                   
ram:000178c8    fff73af8        bl          FUN_00016940                            ;undefined FUN_00016940(void)
                            LAB_000178cc:                 ;XREF[1,0]:   000178c2
ram:000178cc    0121            movs        r1,#0x1                                 
ram:000178ce    0e4a            ldr         r2,[DAT_00017908]                       ;= E000E280h
ram:000178d0    8805            lsls        r0,r1,#0x16                             
ram:000178d2    1060            str         r0,[r2,#0x0]=>DAT_e000e280              
ram:000178d4    0d4a            ldr         r2,[DAT_0001790c]                       ;= E000E100h
ram:000178d6    0020            movs        r0,#0x0                                 
ram:000178d8    1268            ldr         r2,[r2,#0x0]=>DAT_e000e100              
ram:000178da    0c4b            ldr         r3,[DAT_0001790c]                       ;= E000E100h
ram:000178dc    8033            adds        r3=>DAT_e000e180,#0x80                  
                            LAB_000178de:                 ;XREF[1,0]:   000178f4
ram:000178de    0d46            mov         r5,r1                                   
ram:000178e0    8540            lsls        r5,r0                                   
ram:000178e2    1542            tst         r5,r2                                   
ram:000178e4    04d0            beq         LAB_000178f0                            
ram:000178e6    c606            lsls        r6,r0,#0x1b                             
ram:000178e8    f60e            lsrs        r6,r6,#0x1b                             
ram:000178ea    0d46            mov         r5,r1                                   
ram:000178ec    b540            lsls        r5,r6                                   
ram:000178ee    1d60            str         r5,[r3,#0x0]=>DAT_e000e180              
                            LAB_000178f0:                 ;XREF[1,0]:   000178e4
ram:000178f0    401c            adds        r0,r0,#0x1                              
ram:000178f2    2028            cmp         r0,#0x20                                
ram:000178f4    f3d3            bcc         LAB_000178de                            
ram:000178f6    6069            ldr         r0,[r4,#offset DAT_10001014 &0xff]      
ram:000178f8    00f00af8        bl          FUN_00017910                            ;undefined FUN_00017910(undefined4 * ...
ram:000178fc    70bd            pop         {r4,r5,r6,pc}                           
ram:000178fe    0000            movs        r0,r0                                   
                            DAT_00017900:                 ;XREF[1,0]:   00017896
ram:00017900    54200020        undefined4  20002054h                               
                            DAT_00017904:                 ;XREF[1,0]:   000178ba
ram:00017904    00100010        undefined4  10001000h                               
                            DAT_00017908:                 ;XREF[1,0]:   000178ce
ram:00017908    80e200e0        undefined4  E000E280h                               
                            DAT_0001790c:                 ;XREF[2,0]:   000178d4,000178da
ram:0001790c    00e100e0        undefined4  E000E100h                               
                            ;************************************************************************************************
                            ;*                                           FUNCTION                                           *
                            ;************************************************************************************************
                            ;undefined FUN_00017910(undefined4 * param_1)
          ;param_1       undefined4 *        r0                      
                                                          ;XREF[1,0]:   000178f8
ram:00017910    10b5            push        {r4,lr}                                 
ram:00017912    fef7dffb        bl          FUN_000160d4                            ;undefined FUN_000160d4(undefined4 * ...
ram:00017916    10bd            pop         {r4,pc}                                 
                            ;************************************************************************************************
                            ;*                                           FUNCTION                                           *
                            ;************************************************************************************************
                            ;undefined FUN_00017918(int param_1, int param_2)
          ;param_1       int                 r0                      
          ;param_2       int                 r1                      
ram:00017918    10b5            push        {r4,lr}                                 
ram:0001791a    0129            cmp         param_2,#0x1                            
ram:0001791c    0ad1            bne         LAB_00017934                            
ram:0001791e    1228            cmp         param_1,#0x12                           
ram:00017920    06d0            beq         LAB_00017930                            
ram:00017922    0828            cmp         param_1,#0x8                            
ram:00017924    04d0            beq         LAB_00017930                            
ram:00017926    0022            movs        r2,#0x0                                 
ram:00017928    1146            mov         param_2,r2                              
ram:0001792a    1046            mov         param_1,r2                              
ram:0001792c    fff708f8        bl          FUN_00016940                            ;undefined FUN_00016940(void)
                            LAB_00017930:                 ;XREF[2,0]:   00017920,00017924
ram:00017930    fff7cafc        bl          FUN_000172c8                            ;undefined FUN_000172c8(void)
                            LAB_00017934:                 ;XREF[1,0]:   0001791c
ram:00017934    10bd            pop         {r4,pc}                                 
ram:00017936    0000            movs        r0,r0                                   
                            ;************************************************************************************************
                            ;*                                           FUNCTION                                           *
                            ;************************************************************************************************
                            ;undefined FUN_00017938(undefined * param_1, uint param_2)
          ;param_1       undefined *         r0                      
          ;param_2       uint                r1                      
                                                          ;XREF[1,0]:   00017cce
ram:00017938    10b5            push        {r4,lr}                                 
ram:0001793a    0e4a            ldr         r2,[DAT_00017974]                       ;= 20002064h
ram:0001793c    d368            ldr         r3,[r2,#0xc]=>DAT_20002070              
ram:0001793e    002b            cmp         r3,#0x0                                 
ram:00017940    0ad0            beq         LAB_00017958                            
ram:00017942    cab2            uxtb        r2,param_2                              
ram:00017944    0178            ldrb        param_2,[param_1,#0x0]                  
ram:00017946    4068            ldr         param_1,[param_1,#0x4]                  
ram:00017948    9847            blx         r3                                      
ram:0001794a    0028            cmp         param_1,#0x0                            
ram:0001794c    03d0            beq         LAB_00017956                            
ram:0001794e    0022            movs        r2,#0x0                                 
ram:00017950    1146            mov         param_2,r2                              
ram:00017952    fef7f5ff        bl          FUN_00016940                            ;undefined FUN_00016940(void)
                            LAB_00017956:                 ;XREF[2,0]:   0001794c,0001795e
ram:00017956    10bd            pop         {r4,pc}                                 
                            LAB_00017958:                 ;XREF[1,0]:   00017940
ram:00017958    0129            cmp         param_2,#0x1                            
ram:0001795a    06d0            beq         LAB_0001796a                            
ram:0001795c    0029            cmp         param_2,#0x0                            
ram:0001795e    fad1            bne         LAB_00017956                            
ram:00017960    0378            ldrb        r3,[param_1,#0x0]                       
ram:00017962    4268            ldr         r2,[param_1,#0x4]                       
                            LAB_00017964:                 ;XREF[1,0]:   00017970
ram:00017964    1846            mov         param_1,r3                              
ram:00017966    9047            blx         r2                                      
ram:00017968    10bd            pop         {r4,pc}                                 
                            LAB_0001796a:                 ;XREF[1,0]:   0001795a
ram:0001796a    0378            ldrb        r3,[param_1,#0x0]                       
ram:0001796c    0121            movs        param_2,#0x1                            
ram:0001796e    4268            ldr         r2,[param_1,#0x4]                       
ram:00017970    f8e7            b           LAB_00017964                            
ram:00017972    0000            movs        r0,r0                                   
                            DAT_00017974:                 ;XREF[1,0]:   0001793a
ram:00017974    64200020        undefined4  20002064h                               
                            ;************************************************************************************************
                            ;*                                           FUNCTION                                           *
                            ;************************************************************************************************
                            ;int FUN_00017978(void)
                                                          ;XREF[2,0]:   00017a76,00017ae2
ram:00017978    f8b5            push        {r3,r4,r5,r6,r7,lr}                     
ram:0001797a    3849            ldr         r1,[DAT_00017a5c]                       ;= 20002550h
ram:0001797c    1423            movs        r3,#0x14                                
ram:0001797e    0a78            ldrb        r2,[r1,#0x0]=>DAT_20002550              
ram:00017980    0f20            movs        r0,#0xf                                 
ram:00017982    5a43            muls        r2,r3                                   
ram:00017984    5418            adds        r4,r2,r1                                
ram:00017986    3649            ldr         r1,[DAT_00017a60]                       ;= 20002058h
ram:00017988    2279            ldrb        r2,[r4,#0x4]                            
ram:0001798a    2669            ldr         r6,[r4,#0x10]                           
ram:0001798c    8f88            ldrh        r7,[r1,#0x4]=>DAT_2000205c              
ram:0001798e    241d            adds        r4,r4,#0x4                              
ram:00017990    022a            cmp         r2,#0x2                                 
ram:00017992    1bd0            beq         LAB_000179cc                            
ram:00017994    0125            movs        r5,#0x1                                 
ram:00017996    2d07            lsls        r5,r5,#0x1c                             
ram:00017998    042a            cmp         r2,#0x4                                 
ram:0001799a    2ad0            beq         LAB_000179f2                            
ram:0001799c    052a            cmp         r2,#0x5                                 
ram:0001799e    5bd1            bne         LAB_00017a58                            
ram:000179a0    2869            ldr         r0,[r5,#offset DAT_10000010 &0xff]      
ram:000179a2    81b2            uxth        r1,r0                                   
ram:000179a4    3046            mov         r0,r6                                   
ram:000179a6    fef7e3fb        bl          FUN_00016170                            ;int FUN_00016170(uint param_1, uint ...
ram:000179aa    0146            mov         r1,r0                                   
ram:000179ac    a388            ldrh        r3,[r4,#0x4]                            
ram:000179ae    2869            ldr         r0,[r5,#offset DAT_10000010 &0xff]      
ram:000179b0    9a19            adds        r2,r3,r6                                
ram:000179b2    80b2            uxth        r0,r0                                   
ram:000179b4    4843            muls        r0,r1                                   
ram:000179b6    101a            subs        r0,r2,r0                                
ram:000179b8    8208            lsrs        r2,r0,#0x2                              
ram:000179ba    6088            ldrh        r0,[r4,#0x2]                            
ram:000179bc    1818            adds        r0,r3,r0                                
ram:000179be    8619            adds        r6,r0,r6                                
ram:000179c0    2869            ldr         r0,[r5,#offset DAT_10000010 &0xff]      
ram:000179c2    4b1c            adds        r3,r1,#0x1                              
ram:000179c4    80b2            uxth        r0,r0                                   
ram:000179c6    5843            muls        r0,r3                                   
ram:000179c8    801b            subs        r0,r0,r6                                
ram:000179ca    34e0            b           LAB_00017a36                            
                            LAB_000179cc:                 ;XREF[1,0]:   00017992
ram:000179cc    b802            lsls        r0,r7,#0xa                              
ram:000179ce    6288            ldrh        r2,[r4,#0x2]                            
ram:000179d0    2169            ldr         r1,[r4,#0x10]                           
ram:000179d2    121a            subs        r2,r2,r0                                
ram:000179d4    0918            adds        r1,r1,r0                                
ram:000179d6    a388            ldrh        r3,[r4,#0x4]                            
ram:000179d8    3018            adds        r0,r6,r0                                
ram:000179da    1818            adds        r0,r3,r0                                
ram:000179dc    0123            movs        r3,#0x1                                 
ram:000179de    9b02            lsls        r3,r3,#0xa                              
ram:000179e0    9a42            cmp         r2,r3                                   
ram:000179e2    02d2            bcs         LAB_000179ea                            
ram:000179e4    9208            lsrs        r2,r2,#0x2                              
ram:000179e6    21df            svc         0x21                                    
ram:000179e8    31e0            b           LAB_00017a4e                            
                            LAB_000179ea:                 ;XREF[1,0]:   000179e2
ram:000179ea    ff22            movs        r2,#0xff                                
ram:000179ec    0132            adds        r2,#0x1                                 
ram:000179ee    21df            svc         0x21                                    
ram:000179f0    2de0            b           LAB_00017a4e                            
                            LAB_000179f2:                 ;XREF[1,0]:   0001799a
ram:000179f2    a368            ldr         r3,[r4,#0x8]                            
ram:000179f4    1948            ldr         r0,[DAT_00017a5c]                       ;= 20002550h
ram:000179f6    1901            lsls        r1,r3,#0x4                              
ram:000179f8    cc30            adds        r0,#0xcc                                
ram:000179fa    0818            adds        r0,r1,r0                                
ram:000179fc    0189            ldrh        r1,[r0,#0x8]=>DAT_20002624              
ram:000179fe    4289            ldrh        r2,[r0,#0xa]=>DAT_20002626              
ram:00017a00    4068            ldr         r0,[r0,#0x4]=>DAT_20002620              
ram:00017a02    b042            cmp         r0,r6                                   
ram:00017a04    03d1            bne         LAB_00017a0e                            
ram:00017a06    6088            ldrh        r0,[r4,#0x2]                            
ram:00017a08    5143            muls        r1,r2                                   
ram:00017a0a    8142            cmp         r1,r0                                   
ram:00017a0c    18d0            beq         LAB_00017a40                            
                            LAB_00017a0e:                 ;XREF[1,0]:   00017a04
ram:00017a0e    022b            cmp         r3,#0x2                                 
ram:00017a10    16d0            beq         LAB_00017a40                            
ram:00017a12    2869            ldr         r0,[r5,#offset DAT_10000010 &0xff]      
ram:00017a14    81b2            uxth        r1,r0                                   
ram:00017a16    3046            mov         r0,r6                                   
ram:00017a18    fef7aafb        bl          FUN_00016170                            ;int FUN_00016170(uint param_1, uint ...
ram:00017a1c    0146            mov         r1,r0                                   
ram:00017a1e    2869            ldr         r0,[r5,#offset DAT_10000010 &0xff]      
ram:00017a20    80b2            uxth        r0,r0                                   
ram:00017a22    4843            muls        r0,r1                                   
ram:00017a24    301a            subs        r0,r6,r0                                
ram:00017a26    8208            lsrs        r2,r0,#0x2                              
ram:00017a28    2869            ldr         r0,[r5,#offset DAT_10000010 &0xff]      
ram:00017a2a    4b1c            adds        r3,r1,#0x1                              
ram:00017a2c    80b2            uxth        r0,r0                                   
ram:00017a2e    5843            muls        r0,r3                                   
ram:00017a30    6388            ldrh        r3,[r4,#0x2]                            
ram:00017a32    9b19            adds        r3,r3,r6                                
ram:00017a34    c01a            subs        r0,r0,r3                                
                            LAB_00017a36:                 ;XREF[1,0]:   000179ca
ram:00017a36    8308            lsrs        r3,r0,#0x2                              
ram:00017a38    2046            mov         r0,r4                                   
ram:00017a3a    01f073fa        bl          FUN_00018f24                            ;undefined FUN_00018f24(undefined4 pa...
ram:00017a3e    06e0            b           LAB_00017a4e                            
                            LAB_00017a40:                 ;XREF[2,0]:   00017a0c,00017a10
ram:00017a40    2869            ldr         r0,[r5,#offset DAT_10000010 &0xff]      
ram:00017a42    81b2            uxth        r1,r0                                   
ram:00017a44    3046            mov         r0,r6                                   
ram:00017a46    fef793fb        bl          FUN_00016170                            ;int FUN_00016170(uint param_1, uint ...
ram:00017a4a    c019            adds        r0,r0,r7                                
ram:00017a4c    20df            svc         0x20                                    
                            LAB_00017a4e:                 ;XREF[3,0]:   000179e8,000179f0,00017a3e
ram:00017a4e    0028            cmp         r0,#0x0                                 
ram:00017a50    02d1            bne         LAB_00017a58                            
ram:00017a52    0249            ldr         r1,[DAT_00017a5c]                       ;= 20002550h
ram:00017a54    0122            movs        r2,#0x1                                 
ram:00017a56    8a70            strb        r2,[r1,#0x2]=>DAT_20002552              
                            LAB_00017a58:                 ;XREF[2,0]:   0001799e,00017a50
ram:00017a58    f8bd            pop         {r3,r4,r5,r6,r7,pc}                     
ram:00017a5a    0000            movs        r0,r0                                   
                            DAT_00017a5c:                 ;XREF[3,0]:   0001797a,000179f4,00017a52
ram:00017a5c    50250020        undefined4  20002550h                               
                            DAT_00017a60:                 ;XREF[1,0]:   00017986
ram:00017a60    58200020        undefined4  20002058h                               
                            ;************************************************************************************************
                            ;*                                           FUNCTION                                           *
                            ;************************************************************************************************
                            ;int FUN_00017a64(void)
                                                          ;XREF[2,0]:   00018c22,00018cc6
ram:00017a64    10b5            push        {r4,lr}                                 
ram:00017a66    0849            ldr         r1,[DAT_00017a88]                       ;= 20002550h
ram:00017a68    0020            movs        r0,#0x0                                 
ram:00017a6a    4a78            ldrb        r2,[r1,#0x1]=>DAT_20002551              
ram:00017a6c    002a            cmp         r2,#0x0                                 
ram:00017a6e    09d0            beq         LAB_00017a84                            
ram:00017a70    8978            ldrb        r1,[r1,#0x2]=>DAT_20002552              
ram:00017a72    0029            cmp         r1,#0x0                                 
ram:00017a74    06d1            bne         LAB_00017a84                            
ram:00017a76    fff77fff        bl          FUN_00017978                            ;int FUN_00017978(void)
ram:00017a7a    0028            cmp         r0,#0x0                                 
ram:00017a7c    02d0            beq         LAB_00017a84                            
ram:00017a7e    1128            cmp         r0,#0x11                                
ram:00017a80    00d1            bne         LAB_00017a84                            
ram:00017a82    0020            movs        r0,#0x0                                 
                            LAB_00017a84:                 ;XREF[4,0]:   00017a6e,00017a74,00017a7c,00017a80
ram:00017a84    10bd            pop         {r4,pc}                                 
ram:00017a86    0000            movs        r0,r0                                   
                            DAT_00017a88:                 ;XREF[1,0]:   00017a66
ram:00017a88    50250020        undefined4  20002550h                               
                            ;************************************************************************************************
                            ;*                                           FUNCTION                                           *
                            ;************************************************************************************************
                            ;undefined FUN_00017a8c(int param_1)
          ;param_1       int                 r0                      
                                                          ;XREF[2,0]:   000189c6,00018cc2
ram:00017a8c    1422            movs        r2,#0x14                                
ram:00017a8e    5043            muls        param_1,r2                              
ram:00017a90    054a            ldr         r2,[DAT_00017aa8]                       ;= 20002550h
ram:00017a92    0021            movs        r1,#0x0                                 
ram:00017a94    8018            adds        param_1,param_1,r2                      
ram:00017a96    0171            strb        r1,[param_1,#0x4]                       
ram:00017a98    c180            strh        r1,[param_1,#0x6]                       
ram:00017a9a    0122            movs        r2,#0x1                                 
ram:00017a9c    0161            str         r1,[param_1,#0x10]                      
ram:00017a9e    c260            str         r2,[param_1,#0xc]                       
ram:00017aa0    4161            str         r1,[param_1,#0x14]                      
ram:00017aa2    0181            strh        r1,[param_1,#0x8]                       
ram:00017aa4    7047            bx          lr                                      
ram:00017aa6    0000            movs        r0,r0                                   
                            DAT_00017aa8:                 ;XREF[1,0]:   00017a90
ram:00017aa8    50250020        undefined4  20002550h                               
                            ;************************************************************************************************
                            ;*                                           FUNCTION                                           *
                            ;************************************************************************************************
                            ;int FUN_00017aac(char param_1, undefined4 * param_2, undefined4 param_3, undefined2 param_4, undefined2 param_5)
          ;param_1       char                r0                      
          ;param_2       undefined4 *        r1                      
          ;param_3       undefined4          r2                      
          ;param_4       undefined2          r3                      
          ;param_5       undefined2           0                      ;XREF[1,0]:   00017ab0
                                                          ;XREF[2,0]:   000189a0,00018bd0
ram:00017aac    f8b5            push        {param_4,r4,r5,r6,r7,lr}                
ram:00017aae    124c            ldr         r4,[DAT_00017af8]                       ;= 20002550h
ram:00017ab0    069e            ldr         r6,[sp,#param_5+0x18]                   
ram:00017ab2    6578            ldrb        r5,[r4,#0x1]=>DAT_20002551              
ram:00017ab4    0a2d            cmp         r5,#0xa                                 
ram:00017ab6    1dd0            beq         LAB_00017af4                            
ram:00017ab8    2778            ldrb        r7,[r4,#0x0]=>DAT_20002550              
ram:00017aba    7d19            adds        r5,r7,r5                                
ram:00017abc    edb2            uxtb        r5,r5                                   
ram:00017abe    0a2d            cmp         r5,#0xa                                 
ram:00017ac0    01d3            bcc         LAB_00017ac6                            
ram:00017ac2    0a3d            subs        r5,#0xa                                 
ram:00017ac4    edb2            uxtb        r5,r5                                   
                            LAB_00017ac6:                 ;XREF[1,0]:   00017ac0
ram:00017ac6    1427            movs        r7,#0x14                                
ram:00017ac8    7d43            muls        r5,r7                                   
ram:00017aca    2d19            adds        r5,r5,r4                                
ram:00017acc    2871            strb        param_1,[r5,#0x4]                       
ram:00017ace    6a61            str         param_3,[r5,#0x14]                      
ram:00017ad0    03c9            ldmia       param_2,{param_1,param_2}               
ram:00017ad2    2961            str         param_2,[r5,#0x10]                      
ram:00017ad4    e860            str         param_1,[r5,#0xc]                       
ram:00017ad6    eb80            strh        param_4,[r5,#0x6]                       
ram:00017ad8    2e81            strh        r6,[r5,#0x8]                            
ram:00017ada    a178            ldrb        param_2,[r4,#0x2]=>DAT_20002552         
ram:00017adc    0020            movs        param_1,#0x0                            
ram:00017ade    0029            cmp         param_2,#0x0                            
ram:00017ae0    04d1            bne         LAB_00017aec                            
ram:00017ae2    fff749ff        bl          FUN_00017978                            ;int FUN_00017978(void)
ram:00017ae6    1128            cmp         param_1,#0x11                           
ram:00017ae8    00d1            bne         LAB_00017aec                            
ram:00017aea    0020            movs        param_1,#0x0                            
                            LAB_00017aec:                 ;XREF[2,0]:   00017ae0,00017ae8
ram:00017aec    6178            ldrb        param_2,[r4,#0x1]=>DAT_20002551         
ram:00017aee    491c            adds        param_2,param_2,#0x1                    
ram:00017af0    6170            strb        param_2,[r4,#0x1]=>DAT_20002551         
ram:00017af2    f8bd            pop         {param_4,r4,r5,r6,r7,pc}                
                            LAB_00017af4:                 ;XREF[1,0]:   00017ab6
ram:00017af4    0420            movs        param_1,#0x4                            
ram:00017af6    f8bd            pop         {param_4,r4,r5,r6,r7,pc}                
                            DAT_00017af8:                 ;XREF[1,0]:   00017aae
ram:00017af8    50250020        undefined4  20002550h                               
                            ;************************************************************************************************
                            ;*                                           FUNCTION                                           *
                            ;************************************************************************************************
                            ;undefined FUN_00017afc(void)
                                                          ;XREF[1,0]:   000163f8
ram:00017afc    f8b5            push        {r3,r4,r5,r6,r7,lr}                     
ram:00017afe    2248            ldr         r0=>DAT_2000209c,[DAT_00017b88]         ;= 2000209Ch
ram:00017b00    0169            ldr         r1,[r0,#0x10]=>DAT_200020ac             
ram:00017b02    4a1c            adds        r2,r1,#0x1                              
ram:00017b04    3dd0            beq         LAB_00017b82                            
ram:00017b06    2422            movs        r2,#0x24                                
ram:00017b08    5143            muls        r1,r2                                   
ram:00017b0a    8268            ldr         r2,[r0,#0x8]=>DAT_200020a4              
ram:00017b0c    8918            adds        r1,r1,r2                                
ram:00017b0e    4e68            ldr         r6,[r1,#0x4]                            
ram:00017b10    1e49            ldr         r1,[DAT_00017b8c]                       ;= 40011500h
ram:00017b12    4c68            ldr         r4,[r1,#offset DAT_40011504 &0xff]      
ram:00017b14    4769            ldr         r7,[r0,#0x14]=>DAT_200020b0             
ram:00017b16    0079            ldrb        r0,[r0,#0x4]=>DAT_200020a0              
ram:00017b18    e11b            subs        r1,r4,r7                                
ram:00017b1a    0d02            lsls        r5,r1,#0x8                              
ram:00017b1c    2d0a            lsrs        r5,r5,#0x8                              
ram:00017b1e    ed1c            adds        r5,r5,#0x3                              
ram:00017b20    0028            cmp         r0,#0x0                                 
ram:00017b22    14d1            bne         LAB_00017b4e                            
ram:00017b24    0120            movs        r0,#0x1                                 
ram:00017b26    1a4a            ldr         r2,[DAT_00017b90]                       ;= 40011340h
ram:00017b28    0004            lsls        r0,r0,#0x10                             
ram:00017b2a    5060            str         r0,[r2,#0x4]=>DAT_40011344              
ram:00017b2c    184a            ldr         r2,[DAT_00017b90]                       ;= 40011340h
ram:00017b2e    403a            subs        r2,#0x40                                
ram:00017b30    5060            str         r0,[r2,#offset DAT_40011304 &0xff]      
ram:00017b32    1849            ldr         r1,[DAT_00017b94]                       ;= E000E280h
ram:00017b34    4000            lsls        r0,r0,#0x1                              
ram:00017b36    0860            str         r0,[r1,#0x0]=>DAT_e000e280              
ram:00017b38    1749            ldr         r1,[DAT_00017b98]                       ;= E000E100h
ram:00017b3a    0860            str         r0,[r1,#0x0]=>DAT_e000e100              
ram:00017b3c    1749            ldr         r1=>DAT_40011000,[DAT_00017b9c]         ;= 40011000h
ram:00017b3e    0120            movs        r0,#0x1                                 
ram:00017b40    0860            str         r0,[r1,#0x0]=>DAT_40011000              
ram:00017b42    2f20            movs        r0,#0x2f                                
ram:00017b44    fef7e8fa        bl          FUN_00016118                            ;undefined FUN_00016118(int param_1)
ram:00017b48    0f49            ldr         r1,[DAT_00017b88]                       ;= 2000209Ch
ram:00017b4a    0120            movs        r0,#0x1                                 
ram:00017b4c    0871            strb        r0,[r1,#0x4]=>DAT_200020a0              
                            LAB_00017b4e:                 ;XREF[1,0]:   00017b22
ram:00017b4e    b542            cmp         r5,r6                                   
ram:00017b50    00d2            bcs         LAB_00017b54                            
ram:00017b52    3546            mov         r5,r6                                   
                            LAB_00017b54:                 ;XREF[1,0]:   00017b50
ram:00017b54    e819            adds        r0,r5,r7                                
ram:00017b56    0002            lsls        r0,r0,#0x8                              
ram:00017b58    0c49            ldr         r1,[DAT_00017b8c]                       ;= 40011500h
ram:00017b5a    000a            lsrs        r0,r0,#0x8                              
ram:00017b5c    4031            adds        r1,#0x40                                
ram:00017b5e    0860            str         r0,[r1,#0x0]=>DAT_40011540              
ram:00017b60    0a49            ldr         r1,[DAT_00017b8c]                       ;= 40011500h
ram:00017b62    4968            ldr         r1,[r1,#offset DAT_40011504 &0xff]      
ram:00017b64    001b            subs        r0,r0,r4                                
ram:00017b66    091b            subs        r1,r1,r4                                
ram:00017b68    0902            lsls        r1,r1,#0x8                              
ram:00017b6a    090a            lsrs        r1,r1,#0x8                              
ram:00017b6c    0002            lsls        r0,r0,#0x8                              
ram:00017b6e    000a            lsrs        r0,r0,#0x8                              
ram:00017b70    c91c            adds        r1,r1,#0x3                              
ram:00017b72    8142            cmp         r1,r0                                   
ram:00017b74    04d9            bls         LAB_00017b80                            
ram:00017b76    0120            movs        r0,#0x1                                 
ram:00017b78    0649            ldr         r1,[DAT_00017b94]                       ;= E000E280h
ram:00017b7a    4004            lsls        r0,r0,#0x11                             
ram:00017b7c    8039            subs        r1,#0x80                                
ram:00017b7e    0860            str         r0,[r1,#0x0]=>DAT_e000e200              
                            LAB_00017b80:                 ;XREF[1,0]:   00017b74
ram:00017b80    f8bd            pop         {r3,r4,r5,r6,r7,pc}                     
                            LAB_00017b82:                 ;XREF[1,0]:   00017b04
ram:00017b82    01f0b1f8        bl          FUN_00018ce8                            ;undefined FUN_00018ce8(void)
ram:00017b86    f8bd            pop         {r3,r4,r5,r6,r7,pc}                     
                            DAT_00017b88:                 ;XREF[2,0]:   00017afe,00017b48
ram:00017b88    9c200020        undefined4  2000209Ch                               
                            DAT_00017b8c:                 ;XREF[3,0]:   00017b10,00017b58,00017b60
ram:00017b8c    00150140        undefined4  40011500h                               
                            DAT_00017b90:                 ;XREF[2,0]:   00017b26,00017b2c
ram:00017b90    40130140        undefined4  40011340h                               
                            DAT_00017b94:                 ;XREF[2,0]:   00017b32,00017b78
ram:00017b94    80e200e0        undefined4  E000E280h                               
                            DAT_00017b98:                 ;XREF[1,0]:   00017b38
ram:00017b98    00e100e0        undefined4  E000E100h                               
                            DAT_00017b9c:                 ;XREF[1,0]:   00017b3c
ram:00017b9c    00100140        undefined4  40011000h                               
                            ;************************************************************************************************
                            ;*                                           FUNCTION                                           *
                            ;************************************************************************************************
                            ;undefined4 FUN_00017ba0(ushort * param_1, int param_2, byte * param_3)
          ;param_1       ushort *            r0                      
          ;param_2       int                 r1                      
          ;param_3       byte *              r2                      
                                                          ;XREF[1,0]:   000166fe
ram:00017ba0    f8b5            push        {r3,r4,r5,r6,r7,lr}                     
ram:00017ba2    0d46            mov         r5,param_2                              
ram:00017ba4    1178            ldrb        param_2,[param_3,#0x0]                  
ram:00017ba6    0646            mov         r6,param_1                              
ram:00017ba8    881d            adds        param_1,param_2,#0x6                    
ram:00017baa    1446            mov         r4,param_3                              
ram:00017bac    1f28            cmp         param_1,#0x1f                           
ram:00017bae    01d9            bls         LAB_00017bb4                            
ram:00017bb0    0c20            movs        param_1,#0xc                            
                            LAB_00017bb2:                 ;XREF[5,0]:   00017bba,00017bc8,00017bce,00017bd8
                                                          ;             00017be6
ram:00017bb2    f8bd            pop         {r3,r4,r5,r6,r7,pc}                     
                            LAB_00017bb4:                 ;XREF[1,0]:   00017bae
ram:00017bb4    3388            ldrh        r3,[r6,#0x0]                            
ram:00017bb6    0720            movs        param_1,#0x7                            
ram:00017bb8    062b            cmp         r3,#0x6                                 
ram:00017bba    fad3            bcc         LAB_00017bb2                            
ram:00017bbc    1927            movs        r7,#0x19                                
ram:00017bbe    ff01            lsls        r7,r7,#0x7                              
ram:00017bc0    bb42            cmp         r3,r7                                   
ram:00017bc2    02d9            bls         LAB_00017bca                            
ram:00017bc4    164a            ldr         param_3,[DAT_00017c20]                  ;= 0000FFFFh
ram:00017bc6    9342            cmp         r3,param_3                              
ram:00017bc8    f3d1            bne         LAB_00017bb2                            
                            LAB_00017bca:                 ;XREF[1,0]:   00017bc2
ram:00017bca    7288            ldrh        param_3,[r6,#0x2]                       
ram:00017bcc    062a            cmp         param_3,#0x6                            
ram:00017bce    f0d3            bcc         LAB_00017bb2                            
ram:00017bd0    ba42            cmp         param_3,r7                              
ram:00017bd2    02d9            bls         LAB_00017bda                            
ram:00017bd4    124f            ldr         r7,[DAT_00017c20]                       ;= 0000FFFFh
ram:00017bd6    ba42            cmp         param_3,r7                              
ram:00017bd8    ebd1            bne         LAB_00017bb2                            
                            LAB_00017bda:                 ;XREF[1,0]:   00017bd2
ram:00017bda    114f            ldr         r7,[DAT_00017c20]                       ;= 0000FFFFh
ram:00017bdc    bb42            cmp         r3,r7                                   
ram:00017bde    03d0            beq         LAB_00017be8                            
ram:00017be0    ba42            cmp         param_3,r7                              
ram:00017be2    01d0            beq         LAB_00017be8                            
ram:00017be4    9342            cmp         r3,param_3                              
ram:00017be6    e4d8            bhi         LAB_00017bb2                            
                            LAB_00017be8:                 ;XREF[2,0]:   00017bde,00017be2
ram:00017be8    481c            adds        param_1,param_2,#0x1                    
ram:00017bea    0522            movs        param_3,#0x5                            
ram:00017bec    2070            strb        param_1,[r4,#0x0]                       
ram:00017bee    6a54            strb        param_3,[r5,param_2]                    
ram:00017bf0    2078            ldrb        param_1,[r4,#0x0]                       
ram:00017bf2    1222            movs        param_3,#0x12                           
ram:00017bf4    411c            adds        param_2,param_1,#0x1                    
ram:00017bf6    2170            strb        param_2,[r4,#0x0]                       
ram:00017bf8    2a54            strb        param_3,[r5,param_1]                    
ram:00017bfa    2078            ldrb        param_1,[r4,#0x0]                       
ram:00017bfc    4119            adds        param_2,param_1,r5                      
ram:00017bfe    3088            ldrh        param_1,[r6,#0x0]                       
ram:00017c00    01f014fb        bl          FUN_0001922c                            ;undefined4 FUN_0001922c(undefined4 p...
ram:00017c04    2178            ldrb        param_2,[r4,#0x0]                       
ram:00017c06    4018            adds        param_1,param_1,param_2                 
ram:00017c08    c0b2            uxtb        param_1,param_1                         
ram:00017c0a    2070            strb        param_1,[r4,#0x0]                       
ram:00017c0c    4119            adds        param_2,param_1,r5                      
ram:00017c0e    7088            ldrh        param_1,[r6,#0x2]                       
ram:00017c10    01f00cfb        bl          FUN_0001922c                            ;undefined4 FUN_0001922c(undefined4 p...
ram:00017c14    2178            ldrb        param_2,[r4,#0x0]                       
ram:00017c16    4018            adds        param_1,param_1,param_2                 
ram:00017c18    2070            strb        param_1,[r4,#0x0]                       
ram:00017c1a    0020            movs        param_1,#0x0                            
ram:00017c1c    f8bd            pop         {r3,r4,r5,r6,r7,pc}                     
ram:00017c1e    0000            movs        r0,r0                                   
                            DAT_00017c20:                 ;XREF[3,0]:   00017bc4,00017bd4,00017bda
ram:00017c20    ffff0000        undefined4  0000FFFFh                               
                            ;************************************************************************************************
                            ;*                                           FUNCTION                                           *
                            ;************************************************************************************************
                            ;undefined LAB_00017c24+1(void)
                                                          ;XREF[0,2]:   00017378,000173b8
ram:00017c24    0022            movs        r2,#0x0                                 
ram:00017c26    1146            mov         r1,r2                                   
ram:00017c28    fef78afe        bl          FUN_00016940                            ;undefined FUN_00016940(void)
                            ;************************************************************************************************
                            ;*                                           FUNCTION                                           *
                            ;************************************************************************************************
                            ;undefined FUN_00017c2c(void)
          ;local_18      undefined1         -18                      ;XREF[2,0]:   00017c4a,00017c5e
                                                          ;XREF[1,0]:   0001766e
ram:00017c2c    f8b5            push        {r3,r4,r5,r6,r7,lr}                     
ram:00017c2e    1648            ldr         r0,[DAT_00017c88]                       ;= 20002040h
ram:00017c30    00f00cfa        bl          FUN_0001804c                            ;undefined4 FUN_0001804c(int param_1)
ram:00017c34    144d            ldr         r5,[DAT_00017c88]                       ;= 20002040h
ram:00017c36    0026            movs        r6,#0x0                                 
ram:00017c38    103d            subs        r5,#0x10                                
ram:00017c3a    144c            ldr         r4,[DAT_00017c8c]                       ;= 20002514h
ram:00017c3c    0028            cmp         r0,#0x0                                 
ram:00017c3e    07d0            beq         LAB_00017c50                            
ram:00017c40    6169            ldr         r1,[r4,#0x14]=>DAT_20002528             
ram:00017c42    0029            cmp         r1,#0x0                                 
ram:00017c44    1bd0            beq         LAB_00017c7e                            
ram:00017c46    0120            movs        r0,#0x1                                 
ram:00017c48    6a46            mov         r2,sp                                   
ram:00017c4a    1070            strb        r0,[r2,#0x0]=>local_18                  
ram:00017c4c    6846            mov         r0,sp                                   
ram:00017c4e    15e0            b           LAB_00017c7c                            
                            LAB_00017c50:                 ;XREF[1,0]:   00017c3e
ram:00017c50    2878            ldrb        r0,[r5,#0x0]=>DAT_20002030              
ram:00017c52    0028            cmp         r0,#0x0                                 
ram:00017c54    05d0            beq         LAB_00017c62                            
ram:00017c56    6169            ldr         r1,[r4,#0x14]=>DAT_20002528             
ram:00017c58    0029            cmp         r1,#0x0                                 
ram:00017c5a    10d0            beq         LAB_00017c7e                            
ram:00017c5c    6846            mov         r0,sp                                   
ram:00017c5e    0670            strb        r6,[r0,#0x0]=>local_18                  
ram:00017c60    0ce0            b           LAB_00017c7c                            
                            LAB_00017c62:                 ;XREF[1,0]:   00017c54
ram:00017c62    6878            ldrb        r0,[r5,#0x1]=>DAT_20002031              
ram:00017c64    0028            cmp         r0,#0x0                                 
ram:00017c66    0cd0            beq         LAB_00017c82                            
ram:00017c68    a168            ldr         r1,[r4,#0x8]=>DAT_2000251c              
                            LAB_00017c6a:                 ;XREF[1,0]:   00017c84
ram:00017c6a    0022            movs        r2,#0x0                                 
ram:00017c6c    6868            ldr         r0,[r5,#0x4]=>DAT_20002034              
ram:00017c6e    fff7a7f8        bl          FUN_00016dc0                            ;longlong FUN_00016dc0(uint param_1, ...
ram:00017c72    0028            cmp         r0,#0x0                                 
ram:00017c74    03d0            beq         LAB_00017c7e                            
ram:00017c76    a169            ldr         r1,[r4,#0x18]=>DAT_2000252c             
ram:00017c78    0029            cmp         r1,#0x0                                 
ram:00017c7a    00d0            beq         LAB_00017c7e                            
                            LAB_00017c7c:                 ;XREF[2,0]:   00017c4e,00017c60
ram:00017c7c    8847            blx         r1                                      
                            LAB_00017c7e:                 ;XREF[4,0]:   00017c44,00017c5a,00017c74,00017c7a
ram:00017c7e    2e70            strb        r6,[r5,#0x0]=>DAT_20002030              
ram:00017c80    f8bd            pop         {r3,r4,r5,r6,r7,pc}                     
                            LAB_00017c82:                 ;XREF[1,0]:   00017c66
ram:00017c82    6168            ldr         r1,[r4,#0x4]=>DAT_20002518              
ram:00017c84    f1e7            b           LAB_00017c6a                            
ram:00017c86    0000            movs        r0,r0                                   
                            DAT_00017c88:                 ;XREF[2,0]:   00017c2e,00017c34
ram:00017c88    40200020        undefined4  20002040h                               
                            DAT_00017c8c:                 ;XREF[1,0]:   00017c3a
ram:00017c8c    14250020        undefined4  20002514h                               
                            ;************************************************************************************************
                            ;*                                           FUNCTION                                           *
                            ;************************************************************************************************
                            ;undefined LAB_00017c90+1(void)
                                                          ;XREF[0,2]:   000168c6,000168e0
ram:00017c90    f8b5            push        {r3,r4,r5,r6,r7,lr}                     
ram:00017c92    184d            ldr         r5,[DAT_00017cf4]                       ;= 20002064h
ram:00017c94    6946            mov         r1,sp                                   
ram:00017c96    6878            ldrb        r0,[r5,#0x1]=>DAT_20002065              
ram:00017c98    fef7aefe        bl          FUN_000169f8                            ;undefined4 FUN_000169f8(uint param_1...
ram:00017c9c    0028            cmp         r0,#0x0                                 
ram:00017c9e    1dd1            bne         LAB_00017cdc                            
ram:00017ca0    2f46            mov         r7,r5                                   
ram:00017ca2    0024            movs        r4,#0x0                                 
ram:00017ca4    1437            adds        r7,#0x14                                
ram:00017ca6    0126            movs        r6,#0x1                                 
ram:00017ca8    15e0            b           LAB_00017cd6                            
                            LAB_00017caa:                 ;XREF[1,0]:   00017cda
ram:00017caa    6968            ldr         r1,[r5,#0x4]=>DAT_20002068              
ram:00017cac    e000            lsls        r0,r4,#0x3                              
ram:00017cae    4018            adds        r0,r0,r1                                
ram:00017cb0    0378            ldrb        r3,[r0,#0x0]                            
ram:00017cb2    3146            mov         r1,r6                                   
ram:00017cb4    3a68            ldr         r2,[r7,#0x0]=>DAT_20002078              
ram:00017cb6    9940            lsls        r1,r3                                   
ram:00017cb8    0a42            tst         r2,r1                                   
ram:00017cba    10d0            beq         LAB_00017cde                            
ram:00017cbc    4268            ldr         r2,[r0,#0x4]                            
ram:00017cbe    002a            cmp         r2,#0x0                                 
ram:00017cc0    0dd0            beq         LAB_00017cde                            
ram:00017cc2    4178            ldrb        r1,[r0,#0x1]                            
ram:00017cc4    0129            cmp         r1,#0x1                                 
ram:00017cc6    01d1            bne         LAB_00017ccc                            
                            LAB_00017cc8:                 ;XREF[1,0]:   00017cf0
ram:00017cc8    0021            movs        r1,#0x0                                 
ram:00017cca    00e0            b           LAB_00017cce                            
                            LAB_00017ccc:                 ;XREF[2,0]:   00017cc6,00017cee
ram:00017ccc    0121            movs        r1,#0x1                                 
                            LAB_00017cce:                 ;XREF[1,0]:   00017cca
ram:00017cce    fff733fe        bl          FUN_00017938                            ;undefined FUN_00017938(undefined * p...
                            LAB_00017cd2:                 ;XREF[2,0]:   00017ce2,00017ce8
ram:00017cd2    641c            adds        r4,r4,#0x1                              
ram:00017cd4    e4b2            uxtb        r4,r4                                   
                            LAB_00017cd6:                 ;XREF[1,0]:   00017ca8
ram:00017cd6    2878            ldrb        r0,[r5,#0x0]=>DAT_20002064              
ram:00017cd8    8442            cmp         r4,r0                                   
ram:00017cda    e6d3            bcc         LAB_00017caa                            
                            LAB_00017cdc:                 ;XREF[1,0]:   00017c9e
ram:00017cdc    f8bd            pop         {r3,r4,r5,r6,r7,pc}                     
                            LAB_00017cde:                 ;XREF[2,0]:   00017cba,00017cc0
ram:00017cde    7a68            ldr         r2,[r7,#0x4]=>DAT_2000207c              
ram:00017ce0    0a42            tst         r2,r1                                   
ram:00017ce2    f6d0            beq         LAB_00017cd2                            
ram:00017ce4    4168            ldr         r1,[r0,#0x4]                            
ram:00017ce6    0029            cmp         r1,#0x0                                 
ram:00017ce8    f3d0            beq         LAB_00017cd2                            
ram:00017cea    4178            ldrb        r1,[r0,#0x1]                            
ram:00017cec    0129            cmp         r1,#0x1                                 
ram:00017cee    edd0            beq         LAB_00017ccc                            
ram:00017cf0    eae7            b           LAB_00017cc8                            
ram:00017cf2    0000            movs        r0,r0                                   
                            DAT_00017cf4:                 ;XREF[1,0]:   00017c92
ram:00017cf4    64200020        undefined4  20002064h                               
                            ;************************************************************************************************
                            ;*                                           FUNCTION                                           *
                            ;************************************************************************************************
                            ;undefined LAB_00017cf8+1(ushort * param_1, char * param_2)
          ;param_1       ushort *            r0                      
          ;param_2       char *              r1                      
                                                          ;XREF[0,2]:   00018e20,00018e5c
ram:00017cf8    10b5            push        {r4,lr}                                 
ram:00017cfa    0978            ldrb        param_2,[param_2,#0x0]                  
ram:00017cfc    0029            cmp         param_2,#0x0                            
ram:00017cfe    02d8            bhi         LAB_00017d06                            
ram:00017d00    fff7c8fd        bl          FUN_00017894                            ;undefined FUN_00017894(void)
                            LAB_00017d04:                 ;XREF[1,0]:   00017d10
ram:00017d04    10bd            pop         {r4,pc}                                 
                            LAB_00017d06:                 ;XREF[1,0]:   00017cfe
ram:00017d06    0322            movs        r2,#0x3                                 
ram:00017d08    0121            movs        param_2,#0x1                            
ram:00017d0a    fff757fd        bl          FUN_000177bc                            ;undefined8 FUN_000177bc(ushort * par...
ram:00017d0e    0028            cmp         param_1,#0x0                            
ram:00017d10    f8d0            beq         LAB_00017d04                            
ram:00017d12    0022            movs        r2,#0x0                                 
ram:00017d14    1146            mov         param_2,r2                              
ram:00017d16    fef713fe        bl          FUN_00016940                            ;undefined FUN_00016940(void)
ram:00017d1a    10              ??          10h                                     
ram:00017d1b    bd              ??          BDh                                     
ram:00017d1c    70              ??          70h    p                                
ram:00017d1d    47              ??          47h    G                                
ram:00017d1e    00              ??          00h                                     
ram:00017d1f    00              ??          00h                                     
                            ;************************************************************************************************
                            ;*                                           FUNCTION                                           *
                            ;************************************************************************************************
                            ;undefined FUN_00017d20(undefined4 param_1)
          ;param_1       undefined4          r0                      
                                                          ;XREF[1,0]:   00018e34
ram:00017d20    0149            ldr         r1,[DAT_00017d28]                       ;= 20002054h
ram:00017d22    0860            str         param_1,[r1,#0x0]=>DAT_20002054         
ram:00017d24    7047            bx          lr                                      
ram:00017d26    0000            movs        r0,r0                                   
                            DAT_00017d28:                 ;XREF[1,0]:   00017d20
ram:00017d28    54200020        undefined4  20002054h                               
                            ;************************************************************************************************
                            ;*                                           FUNCTION                                           *
                            ;************************************************************************************************
                            ;undefined2 FUN_00017d2c(int param_1)
          ;param_1       int                 r0                      
          ;local_14      undefined4         -14                      ;XREF[1,0]:   00017da0
          ;local_18      undefined2         -18                      ;XREF[1,0]:   00017d9e
          ;local_1a      undefined2         -1a                      ;XREF[1,0]:   00017d9c
          ;local_1c      undefined2         -1c                      ;XREF[1,0]:   00017d98
          ;local_20      undefined4         -20                      ;XREF[1,0]:   00017d94
          ;local_24      undefined4         -24                      ;XREF[1,0]:   00017d90
          ;local_26      undefined1         -26                      ;XREF[1,0]:   00017d5a
          ;local_28      undefined2         -28                      ;XREF[1,0]:   00017d60
          ;local_2c      undefined4         -2c                      ;XREF[2,3]:   00017d66,00017d6a,00017d6e,00017d70,00017d84
          ;local_30      undefined4         -30                      ;XREF[1,0]:   00017d54
          ;local_34      undefined4         -34                      ;XREF[1,0]:   00017d52
          ;local_38      undefined4         -38                      ;XREF[1,0]:   00017d50
          ;local_3c      undefined4         -3c                      ;XREF[1,0]:   00017d4e
          ;local_44      undefined4         -44                      ;XREF[1,0]:   00017d4c
          ;local_48      undefined1         -48                      ;XREF[2,0]:   00017d3c,00017d48
                                                          ;XREF[1,0]:   0001770a
ram:00017d2c    30b5            push        {r4,r5,lr}                              
ram:00017d2e    8fb0            sub         sp,#0x3c                                
ram:00017d30    0546            mov         r5,param_1                              
ram:00017d32    1c21            movs        r1,#0x1c                                
ram:00017d34    6846            mov         param_1,sp                              
ram:00017d36    fef77afa        bl          FUN_0001622e                            ;undefined FUN_0001622e(undefined * p...
ram:00017d3a    6946            mov         r1,sp                                   
ram:00017d3c    0878            ldrb        param_1,[r1,#0x0]=>local_48             
ram:00017d3e    0821            movs        r1,#0x8                                 
ram:00017d40    0843            orrs        param_1,r1                              
ram:00017d42    1022            movs        r2,#0x10                                
ram:00017d44    1043            orrs        param_1,r2                              
ram:00017d46    6946            mov         r1,sp                                   
ram:00017d48    0870            strb        param_1,[r1,#0x0]=>local_48             
ram:00017d4a    0024            movs        r4,#0x0                                 
ram:00017d4c    0194            str         r4,[sp,#local_44+0x48]                  
ram:00017d4e    0394            str         r4,[sp,#local_3c+0x48]                  
ram:00017d50    0494            str         r4,[sp,#local_38+0x48]                  
ram:00017d52    0594            str         r4,[sp,#local_34+0x48]                  
ram:00017d54    0694            str         r4,[sp,#local_30+0x48]                  
ram:00017d56    a879            ldrb        param_1,[r5,#0x6]                       
ram:00017d58    08a9            add         r1,sp,#0x20                             
ram:00017d5a    8870            strb        param_1,[r1,#local_26+0x28]             
ram:00017d5c    1448            ldr         param_1,[DAT_00017db0]                  ;= 00001531h
ram:00017d5e    6946            mov         r1,sp                                   
ram:00017d60    0884            strh        param_1,[r1,#local_28+0x48]             
ram:00017d62    601c            adds        param_1,r4,#0x1                         
ram:00017d64    0007            lsls        param_1,param_1,#0x1c                   
ram:00017d66    0794            str         r4,[sp,#local_2c+0x48]                  
ram:00017d68    000f            lsrs        param_1,param_1,#0x1c                   
ram:00017d6a    0c77            strb        r4,[r1,#local_2c+0x48]                  
ram:00017d6c    1030            adds        param_1,#0x10                           
ram:00017d6e    4877            strb        param_1,[r1,#local_2c+0x49]             
ram:00017d70    887f            ldrb        param_1,[r1,#local_2c+0x4a]             
ram:00017d72    f921            movs        r1,#0xf9                                
ram:00017d74    0840            ands        param_1,r1                              
ram:00017d76    f721            movs        r1,#0xf7                                
ram:00017d78    801c            adds        param_1,param_1,#0x2                    
ram:00017d7a    0840            ands        param_1,r1                              
ram:00017d7c    1043            orrs        param_1,r2                              
ram:00017d7e    0121            movs        r1,#0x1                                 
ram:00017d80    0843            orrs        param_1,r1                              
ram:00017d82    6946            mov         r1,sp                                   
ram:00017d84    8877            strb        param_1,[r1,#local_2c+0x4a]             
ram:00017d86    1421            movs        r1,#0x14                                
ram:00017d88    09a8            add         param_1,sp,#0x24                        
ram:00017d8a    fef750fa        bl          FUN_0001622e                            ;undefined FUN_0001622e(undefined * p...
ram:00017d8e    08a8            add         param_1,sp,#0x20                        
ram:00017d90    0990            str         param_1,[sp,#local_24+0x48]             
ram:00017d92    07a8            add         param_1,sp,#0x1c                        
ram:00017d94    0a90            str         param_1,[sp,#local_20+0x48]             
ram:00017d96    6946            mov         r1,sp                                   
ram:00017d98    8c85            strh        r4,[r1,#local_1c+0x48]                  
ram:00017d9a    1720            movs        param_1,#0x17                           
ram:00017d9c    cc85            strh        r4,[r1,#local_1a+0x48]                  
ram:00017d9e    0886            strh        param_1,[r1,#local_18+0x48]             
ram:00017da0    0d94            str         r4,[sp,#local_14+0x48]                  
ram:00017da2    2b46            mov         r3,r5                                   
ram:00017da4    a888            ldrh        param_1,[r5,#0x4]                       
ram:00017da6    1033            adds        r3,#0x10                                
ram:00017da8    09aa            add         r2,sp,#0x24                             
ram:00017daa    a2df            svc         0xa2                                    
ram:00017dac    0fb0            add         sp,#0x3c                                
ram:00017dae    30bd            pop         {r4,r5,pc}                              
                            DAT_00017db0:                 ;XREF[1,0]:   00017d5c
ram:00017db0    31150000        undefined4  00001531h                               
                            ;************************************************************************************************
                            ;*                                           FUNCTION                                           *
                            ;************************************************************************************************
                            ;undefined2 FUN_00017db4(int param_1)
          ;param_1       int                 r0                      
          ;local_14      undefined4         -14                      ;XREF[1,0]:   00017e24
          ;local_18      undefined2         -18                      ;XREF[1,0]:   00017e22
          ;local_1a      undefined2         -1a                      ;XREF[1,0]:   00017e20
          ;local_1c      undefined2         -1c                      ;XREF[1,0]:   00017e1c
          ;local_20      undefined4         -20                      ;XREF[1,0]:   00017e18
          ;local_24      undefined4         -24                      ;XREF[1,0]:   00017e14
          ;local_26      undefined1         -26                      ;XREF[1,0]:   00017dde
          ;local_28      undefined2         -28                      ;XREF[1,0]:   00017de4
          ;local_2c      undefined4         -2c                      ;XREF[2,3]:   00017dea,00017dee,00017df2,00017df4,00017e08
          ;local_30      undefined4         -30                      ;XREF[1,0]:   00017dd8
          ;local_34      undefined4         -34                      ;XREF[1,0]:   00017dd6
          ;local_38      undefined4         -38                      ;XREF[1,0]:   00017dd4
          ;local_3c      undefined4         -3c                      ;XREF[1,0]:   00017dd2
          ;local_44      undefined4         -44                      ;XREF[1,0]:   00017dd0
          ;local_48      undefined1         -48                      ;XREF[2,0]:   00017dc4,00017dcc
                                                          ;XREF[1,0]:   00017700
ram:00017db4    30b5            push        {r4,r5,lr}                              
ram:00017db6    8fb0            sub         sp,#0x3c                                
ram:00017db8    0546            mov         r5,param_1                              
ram:00017dba    1c21            movs        r1,#0x1c                                
ram:00017dbc    6846            mov         param_1,sp                              
ram:00017dbe    fef736fa        bl          FUN_0001622e                            ;undefined FUN_0001622e(undefined * p...
ram:00017dc2    6946            mov         r1,sp                                   
ram:00017dc4    0878            ldrb        param_1,[r1,#0x0]=>local_48             
ram:00017dc6    0421            movs        r1,#0x4                                 
ram:00017dc8    0843            orrs        param_1,r1                              
ram:00017dca    6946            mov         r1,sp                                   
ram:00017dcc    0870            strb        param_1,[r1,#0x0]=>local_48             
ram:00017dce    0024            movs        r4,#0x0                                 
ram:00017dd0    0194            str         r4,[sp,#local_44+0x48]                  
ram:00017dd2    0394            str         r4,[sp,#local_3c+0x48]                  
ram:00017dd4    0494            str         r4,[sp,#local_38+0x48]                  
ram:00017dd6    0594            str         r4,[sp,#local_34+0x48]                  
ram:00017dd8    0694            str         r4,[sp,#local_30+0x48]                  
ram:00017dda    a879            ldrb        param_1,[r5,#0x6]                       
ram:00017ddc    08a9            add         r1,sp,#0x20                             
ram:00017dde    8870            strb        param_1,[r1,#local_26+0x28]             
ram:00017de0    1448            ldr         param_1,[DAT_00017e34]                  ;= 00001532h
ram:00017de2    6946            mov         r1,sp                                   
ram:00017de4    0884            strh        param_1,[r1,#local_28+0x48]             
ram:00017de6    601c            adds        param_1,r4,#0x1                         
ram:00017de8    0007            lsls        param_1,param_1,#0x1c                   
ram:00017dea    0794            str         r4,[sp,#local_2c+0x48]                  
ram:00017dec    000f            lsrs        param_1,param_1,#0x1c                   
ram:00017dee    0c77            strb        r4,[r1,#local_2c+0x48]                  
ram:00017df0    1030            adds        param_1,#0x10                           
ram:00017df2    4877            strb        param_1,[r1,#local_2c+0x49]             
ram:00017df4    8a7f            ldrb        r2,[r1,#local_2c+0x4a]                  
ram:00017df6    f920            movs        param_1,#0xf9                           
ram:00017df8    0240            ands        r2,param_1                              
ram:00017dfa    f720            movs        param_1,#0xf7                           
ram:00017dfc    921c            adds        r2,r2,#0x2                              
ram:00017dfe    0240            ands        r2,param_1                              
ram:00017e00    ef20            movs        param_1,#0xef                           
ram:00017e02    0240            ands        r2,param_1                              
ram:00017e04    0120            movs        param_1,#0x1                            
ram:00017e06    0243            orrs        r2,param_1                              
ram:00017e08    8a77            strb        r2,[r1,#local_2c+0x4a]                  
ram:00017e0a    1421            movs        r1,#0x14                                
ram:00017e0c    09a8            add         param_1,sp,#0x24                        
ram:00017e0e    fef70efa        bl          FUN_0001622e                            ;undefined FUN_0001622e(undefined * p...
ram:00017e12    08a8            add         param_1,sp,#0x20                        
ram:00017e14    0990            str         param_1,[sp,#local_24+0x48]             
ram:00017e16    07a8            add         param_1,sp,#0x1c                        
ram:00017e18    0a90            str         param_1,[sp,#local_20+0x48]             
ram:00017e1a    6946            mov         r1,sp                                   
ram:00017e1c    8c85            strh        r4,[r1,#local_1c+0x48]                  
ram:00017e1e    1420            movs        param_1,#0x14                           
ram:00017e20    cc85            strh        r4,[r1,#local_1a+0x48]                  
ram:00017e22    0886            strh        param_1,[r1,#local_18+0x48]             
ram:00017e24    0d94            str         r4,[sp,#local_14+0x48]                  
ram:00017e26    2b46            mov         r3,r5                                   
ram:00017e28    a888            ldrh        param_1,[r5,#0x4]                       
ram:00017e2a    0833            adds        r3,#0x8                                 
ram:00017e2c    09aa            add         r2,sp,#0x24                             
ram:00017e2e    a2df            svc         0xa2                                    
ram:00017e30    0fb0            add         sp,#0x3c                                
ram:00017e32    30bd            pop         {r4,r5,pc}                              
                            DAT_00017e34:                 ;XREF[1,0]:   00017de0
ram:00017e34    32150000        undefined4  00001532h                               
                            ;************************************************************************************************
                            ;*                                           FUNCTION                                           *
                            ;************************************************************************************************
                            ;undefined FUN_00017e38(undefined4 param_1, undefined4 param_2, undefined4 param_3, uint param_4)
          ;param_1       undefined4          r0                      
          ;param_2       undefined4          r1                      
          ;param_3       undefined4          r2                      
          ;param_4       uint                r3                      
                                                          ;XREF[0,2]:   00018e32,00018e64
ram:00017e38    10b5            push        {r4,lr}                                 
ram:00017e3a    0d48            ldr         param_1,[DAT_00017e70]                  ;= 20002000h
ram:00017e3c    0d49            ldr         param_2,[DAT_00017e74]                  ;= 0000FFFFh
ram:00017e3e    8088            ldrh        param_1,[param_1,#offset DAT_20002004...
ram:00017e40    1124            movs        r4,#0x11                                
ram:00017e42    2403            lsls        r4,r4,#0xc                              
ram:00017e44    8842            cmp         param_1,param_2                         
ram:00017e46    02d0            beq         LAB_00017e4e                            
ram:00017e48    1321            movs        param_2,#0x13                           
ram:00017e4a    76df            svc         0x76                                    
ram:00017e4c    00e0            b           LAB_00017e50                            
                            LAB_00017e4e:                 ;XREF[1,0]:   00017e46
ram:00017e4e    74df            svc         0x74                                    
                            LAB_00017e50:                 ;XREF[1,0]:   00017e4c
ram:00017e50    0028            cmp         param_1,#0x0                            
ram:00017e52    08d1            bne         LAB_00017e66                            
ram:00017e54    2046            mov         param_1,r4                              
ram:00017e56    00f003fa        bl          FUN_00018260                            ;int FUN_00018260(uint param_1, undef...
ram:00017e5a    0028            cmp         param_1,#0x0                            
ram:00017e5c    03d1            bne         LAB_00017e66                            
ram:00017e5e    fff723fc        bl          FUN_000176a8                            ;undefined FUN_000176a8(undefined4 pa...
ram:00017e62    0028            cmp         param_1,#0x0                            
ram:00017e64    03d0            beq         LAB_00017e6e                            
                            LAB_00017e66:                 ;XREF[2,0]:   00017e52,00017e5c
ram:00017e66    0022            movs        param_3,#0x0                            
ram:00017e68    1146            mov         param_2,param_3                         
ram:00017e6a    fef769fd        bl          FUN_00016940                            ;undefined FUN_00016940(void)
                            LAB_00017e6e:                 ;XREF[1,0]:   00017e64
ram:00017e6e    10bd            pop         {r4,pc}                                 
                            DAT_00017e70:                 ;XREF[1,0]:   00017e3a
ram:00017e70    00200020        undefined4  20002000h                               
                            DAT_00017e74:                 ;XREF[1,0]:   00017e3c
ram:00017e74    ffff0000        undefined4  0000FFFFh                               
                            ;************************************************************************************************
                            ;*                                           FUNCTION                                           *
                            ;************************************************************************************************
                            ;undefined8 FUN_00017e78(int param_1)
          ;param_1       int                 r0                      
          ;local_1c      undefined4         -1c                      ;XREF[1,0]:   00017ef0
          ;local_20      undefined2         -20                      ;XREF[1,0]:   00017eee
          ;local_22      undefined2         -22                      ;XREF[1,0]:   00017eec
          ;local_24      undefined2         -24                      ;XREF[1,0]:   00017eea
          ;local_28      undefined4         -28                      ;XREF[1,0]:   00017ee6
          ;local_2c      undefined4         -2c                      ;XREF[1,0]:   00017ee2
          ;local_2e      undefined1         -2e                      ;XREF[1,0]:   00017ea2
          ;local_30      undefined2         -30                      ;XREF[1,0]:   00017ea8
          ;local_34      undefined4         -34                      ;XREF[2,3]:   00017eb4,00017eb6,00017ebe,00017ec0,00017ed6
          ;local_38      undefined4         -38                      ;XREF[1,0]:   00017e9c
          ;local_3c      undefined4         -3c                      ;XREF[1,0]:   00017e9a
          ;local_40      undefined4         -40                      ;XREF[1,0]:   00017e98
          ;local_44      undefined4         -44                      ;XREF[1,0]:   00017e96
          ;local_4c      undefined4         -4c                      ;XREF[1,0]:   00017e94
          ;local_50      undefined1         -50                      ;XREF[2,0]:   00017e8a,00017e90
                                                          ;XREF[1,0]:   00017716
ram:00017e78    f0b5            push        {r4,r5,r6,r7,lr}                        
ram:00017e7a    8fb0            sub         sp,#0x3c                                
ram:00017e7c    0f46            mov         r7,r1                                   
ram:00017e7e    0546            mov         r5,param_1                              
ram:00017e80    1c21            movs        r1,#0x1c                                
ram:00017e82    6846            mov         param_1,sp                              
ram:00017e84    fef7d3f9        bl          FUN_0001622e                            ;undefined FUN_0001622e(undefined * p...
ram:00017e88    6846            mov         param_1,sp                              
ram:00017e8a    0178            ldrb        r1,[param_1,#0x0]=>local_50             
ram:00017e8c    0226            movs        r6,#0x2                                 
ram:00017e8e    3143            orrs        r1,r6                                   
ram:00017e90    0170            strb        r1,[param_1,#0x0]=>local_50             
ram:00017e92    0024            movs        r4,#0x0                                 
ram:00017e94    0194            str         r4,[sp,#local_4c+0x50]                  
ram:00017e96    0394            str         r4,[sp,#local_44+0x50]                  
ram:00017e98    0494            str         r4,[sp,#local_40+0x50]                  
ram:00017e9a    0594            str         r4,[sp,#local_3c+0x50]                  
ram:00017e9c    0694            str         r4,[sp,#local_38+0x50]                  
ram:00017e9e    a979            ldrb        r1,[r5,#0x6]                            
ram:00017ea0    08a8            add         param_1,sp,#0x20                        
ram:00017ea2    8170            strb        r1,[r0,#local_2e+0x30]                  
ram:00017ea4    1749            ldr         r1,[DAT_00017f04]                       ;= 00001534h
ram:00017ea6    6846            mov         param_1,sp                              
ram:00017ea8    0184            strh        r1,[r0,#local_30+0x50]                  
ram:00017eaa    601c            adds        param_1,r4,#0x1                         
ram:00017eac    0107            lsls        r1,param_1,#0x1c                        
ram:00017eae    090f            lsrs        r1,r1,#0x1c                             
ram:00017eb0    6846            mov         param_1,sp                              
ram:00017eb2    1031            adds        r1,#0x10                                
ram:00017eb4    0794            str         r4,[sp,#local_34+0x50]                  
ram:00017eb6    0177            strb        r1,[r0,#local_34+0x50]                  
ram:00017eb8    0020            movs        param_1,#0x0                            
ram:00017eba    0146            mov         r1,param_1                              
ram:00017ebc    6846            mov         param_1,sp                              
ram:00017ebe    4177            strb        r1,[r0,#local_34+0x51]                  
ram:00017ec0    817f            ldrb        r1,[r0,#local_34+0x52]                  
ram:00017ec2    f920            movs        param_1,#0xf9                           
ram:00017ec4    0140            ands        r1,param_1                              
ram:00017ec6    f720            movs        param_1,#0xf7                           
ram:00017ec8    891c            adds        r1,r1,#0x2                              
ram:00017eca    0140            ands        r1,param_1                              
ram:00017ecc    ef20            movs        param_1,#0xef                           
ram:00017ece    0140            ands        r1,param_1                              
ram:00017ed0    0120            movs        param_1,#0x1                            
ram:00017ed2    0143            orrs        r1,param_1                              
ram:00017ed4    6846            mov         param_1,sp                              
ram:00017ed6    8177            strb        r1,[r0,#local_34+0x52]                  
ram:00017ed8    1421            movs        r1,#0x14                                
ram:00017eda    09a8            add         param_1,sp,#0x24                        
ram:00017edc    fef7a7f9        bl          FUN_0001622e                            ;undefined FUN_0001622e(undefined * p...
ram:00017ee0    08a8            add         param_1,sp,#0x20                        
ram:00017ee2    0990            str         param_1,[sp,#local_2c+0x50]             
ram:00017ee4    07a8            add         param_1,sp,#0x1c                        
ram:00017ee6    0a90            str         param_1,[sp,#local_28+0x50]             
ram:00017ee8    6846            mov         param_1,sp                              
ram:00017eea    8685            strh        r6,[r0,#local_24+0x50]                  
ram:00017eec    c485            strh        r4,[r0,#local_22+0x50]                  
ram:00017eee    0686            strh        r6,[r0,#local_20+0x50]                  
ram:00017ef0    0d97            str         r7,[sp,#local_1c+0x50]                  
ram:00017ef2    2b46            mov         r3,r5                                   
ram:00017ef4    a888            ldrh        param_1,[r5,#0x4]                       
ram:00017ef6    2033            adds        r3,#0x20                                
ram:00017ef8    09aa            add         r2,sp,#0x24                             
ram:00017efa    6946            mov         r1,sp                                   
ram:00017efc    a2df            svc         0xa2                                    
ram:00017efe    0fb0            add         sp,#0x3c                                
ram:00017f00    f0bd            pop         {r4,r5,r6,r7,pc}                        
ram:00017f02    0000            movs        r0,r0                                   
                            DAT_00017f04:                 ;XREF[1,0]:   00017ea4
ram:00017f04    34150000        undefined4  00001534h                               
                            ;************************************************************************************************
                            ;*                                           FUNCTION                                           *
                            ;************************************************************************************************
                            ;undefined4 FUN_00017f08(int * param_1)
          ;param_1       int *               r0                      
                                                          ;XREF[1,0]:   000163c6
ram:00017f08    10b5            push        {r4,lr}                                 
ram:00017f0a    0e49            ldr         r1,[DAT_00017f44]                       ;= 2000209Ch
ram:00017f0c    0023            movs        r3,#0x0                                 
ram:00017f0e    8a78            ldrb        r2,[r1,#0x2]=>DAT_2000209e              
ram:00017f10    cc78            ldrb        r4,[r1,#0x3]=>DAT_2000209f              
ram:00017f12    a242            cmp         r2,r4                                   
ram:00017f14    12d0            beq         LAB_00017f3c                            
ram:00017f16    521c            adds        r2,r2,#0x1                              
ram:00017f18    d2b2            uxtb        r2,r2                                   
ram:00017f1a    8a70            strb        r2,[r1,#0x2]=>DAT_2000209e              
ram:00017f1c    022a            cmp         r2,#0x2                                 
ram:00017f1e    00d1            bne         LAB_00017f22                            
ram:00017f20    8b70            strb        r3,[r1,#0x2]=>DAT_2000209e              
                            LAB_00017f22:                 ;XREF[1,0]:   00017f1e
ram:00017f22    8a78            ldrb        r2,[r1,#0x2]=>DAT_2000209e              
ram:00017f24    074b            ldr         r3,[DAT_00017f44]                       ;= 2000209Ch
ram:00017f26    9200            lsls        r2,r2,#0x2                              
ram:00017f28    1c33            adds        r3,#0x1c                                
ram:00017f2a    9a58            ldr         r2,[r3,r2]=>DAT_200020b8                
ram:00017f2c    0260            str         r2,[param_1,#0x0]                       
ram:00017f2e    4869            ldr         param_1,[r1,#0x14]=>DAT_200020b0        
ram:00017f30    1018            adds        param_1,r2,param_1                      
ram:00017f32    0002            lsls        param_1,param_1,#0x8                    
ram:00017f34    000a            lsrs        param_1,param_1,#0x8                    
ram:00017f36    4861            str         param_1,[r1,#0x14]=>DAT_200020b0        
ram:00017f38    0120            movs        param_1,#0x1                            
ram:00017f3a    10bd            pop         {r4,pc}                                 
                            LAB_00017f3c:                 ;XREF[1,0]:   00017f14
ram:00017f3c    0360            str         r3,[param_1,#0x0]                       
ram:00017f3e    0020            movs        param_1,#0x0                            
ram:00017f40    10bd            pop         {r4,pc}                                 
ram:00017f42    0000            movs        r0,r0                                   
                            DAT_00017f44:                 ;XREF[2,0]:   00017f0a,00017f24
ram:00017f44    9c200020        undefined4  2000209Ch                               
                            ;************************************************************************************************
                            ;*                                           FUNCTION                                           *
                            ;************************************************************************************************
                            ;undefined FUN_00017f48(uint param_1, int param_2, int * param_3)
          ;param_1       uint                r0                      
          ;param_2       int                 r1                      
          ;param_3       int *               r2                      
          ;local_1c      undefined4         -1c                      ;XREF[1,0]:   00017f7c
                                                          ;XREF[1,0]:   000163dc
ram:00017f48    f7b5            push        {param_1,param_2,param_3,r4,r5,r6,r7,lr}
ram:00017f4a    144c            ldr         r4,[DAT_00017f9c]                       ;= 2000209Ch
ram:00017f4c    0025            movs        r5,#0x0                                 
ram:00017f4e    a768            ldr         r7,[r4,#0x8]=>DAT_200020a4              
ram:00017f50    2369            ldr         r3,[r4,#0x10]=>DAT_200020ac             
ram:00017f52    1ee0            b           LAB_00017f92                            
                            LAB_00017f54:                 ;XREF[1,0]:   00017f94
ram:00017f54    2421            movs        param_2,#0x24                           
ram:00017f56    5943            muls        param_2,r3                              
ram:00017f58    c919            adds        param_2,param_2,r7                      
ram:00017f5a    4e68            ldr         r6,[param_2,#0x4]                       
ram:00017f5c    8642            cmp         r6,param_1                              
ram:00017f5e    02d9            bls         LAB_00017f66                            
ram:00017f60    301a            subs        param_1,r6,param_1                      
ram:00017f62    4860            str         param_1,[param_2,#0x4]                  
ram:00017f64    17e0            b           LAB_00017f96                            
                            LAB_00017f66:                 ;XREF[1,0]:   00017f5e
ram:00017f66    801b            subs        param_1,param_1,r6                      
ram:00017f68    7519            adds        r5,r6,r5                                
ram:00017f6a    0026            movs        r6,#0x0                                 
ram:00017f6c    4e60            str         r6,[param_2,#0x4]                       
ram:00017f6e    0e75            strb        r6,[param_2,#0x14]                      
ram:00017f70    0e69            ldr         r6,[param_2,#0x10]                      
ram:00017f72    9c46            mov         r12,r3                                  
ram:00017f74    0b6a            ldr         r3,[param_2,#0x20]                      
ram:00017f76    b646            mov         lr,r6                                   
ram:00017f78    002e            cmp         r6,#0x0                                 
ram:00017f7a    0ad0            beq         LAB_00017f92                            
ram:00017f7c    019e            ldr         r6,[sp,#local_1c+0x20]                  
ram:00017f7e    7619            adds        r6,r6,r5                                
ram:00017f80    3602            lsls        r6,r6,#0x8                              
ram:00017f82    360a            lsrs        r6,r6,#0x8                              
ram:00017f84    8e60            str         r6,[param_2,#0x8]                       
ram:00017f86    7646            mov         r6,lr                                   
ram:00017f88    ce60            str         r6,[param_2,#0xc]                       
ram:00017f8a    1668            ldr         r6,[param_3,#0x0]                       
ram:00017f8c    0e62            str         r6,[param_2,#0x20]                      
ram:00017f8e    6146            mov         param_2,r12                             
ram:00017f90    1160            str         param_2,[param_3,#0x0]                  
                            LAB_00017f92:                 ;XREF[2,0]:   00017f52,00017f7a
ram:00017f92    591c            adds        param_2,r3,#0x1                         
ram:00017f94    ded1            bne         LAB_00017f54                            
                            LAB_00017f96:                 ;XREF[1,0]:   00017f64
ram:00017f96    2361            str         r3,[r4,#0x10]=>DAT_200020ac             
ram:00017f98    febd            pop         {param_2,param_3,r3,r4,r5,r6,r7,pc}     
ram:00017f9a    0000            movs        r0,r0                                   
                            DAT_00017f9c:                 ;XREF[1,0]:   00017f4a
ram:00017f9c    9c200020        undefined4  2000209Ch                               
                            ;************************************************************************************************
                            ;*                                           FUNCTION                                           *
                            ;************************************************************************************************
                            ;int FUN_00017fa0(uint param_1, uint param_2, undefined4 param_3, uint param_4)
          ;param_1       uint                r0                      
          ;param_2       uint                r1                      
          ;param_3       undefined4          r2                      
          ;param_4       uint                r3                      
ram:00017fa0    70b5            push        {r4,r5,r6,lr}                           
ram:00017fa2    094d            ldr         r5,[DAT_00017fc8]                       ;= 20002064h
ram:00017fa4    0446            mov         r4,param_1                              
ram:00017fa6    0e46            mov         r6,param_2                              
ram:00017fa8    2869            ldr         param_1,[r5,#0x10]=>DAT_20002074        
ram:00017faa    fef74bff        bl          FUN_00016e44                            ;undefined4 FUN_00016e44(uint param_1...
ram:00017fae    0028            cmp         param_1,#0x0                            
ram:00017fb0    09d1            bne         LAB_00017fc6                            
ram:00017fb2    2846            mov         param_1,r5                              
ram:00017fb4    1430            adds        param_1,#0x14                           
ram:00017fb6    0660            str         r6,[param_1,#0x0]=>DAT_20002078         
ram:00017fb8    4460            str         r4,[param_1,#0x4]=>DAT_2000207c         
ram:00017fba    3443            orrs        r4,r6                                   
ram:00017fbc    2246            mov         param_3,r4                              
ram:00017fbe    a968            ldr         param_2,[r5,#0x8]=>DAT_2000206c         
ram:00017fc0    2869            ldr         param_1,[r5,#0x10]=>DAT_20002074        
ram:00017fc2    fef7fdfe        bl          FUN_00016dc0                            ;longlong FUN_00016dc0(uint param_1, ...
                            LAB_00017fc6:                 ;XREF[1,0]:   00017fb0
ram:00017fc6    70bd            pop         {r4,r5,r6,pc}                           
                            DAT_00017fc8:                 ;XREF[1,0]:   00017fa2
ram:00017fc8    64200020        undefined4  20002064h                               
                            ;************************************************************************************************
                            ;*                                           FUNCTION                                           *
                            ;************************************************************************************************
                            ;undefined FUN_00017fcc(void)
          ;local_18      undefined4         -18                      ;XREF[2,0]:   00018010,0001801c
                                                          ;XREF[2,0]:   00016422,00018ea0
ram:00017fcc    f8b5            push        {r3,r4,r5,r6,r7,lr}                     
ram:00017fce    1e4c            ldr         r4,[DAT_00018048]                       ;= 200020C0h
ram:00017fd0    2078            ldrb        r0,[r4,#0x0]=>DAT_200020c0              
ram:00017fd2    0028            cmp         r0,#0x0                                 
ram:00017fd4    37d0            beq         LAB_00018046                            
ram:00017fd6    2069            ldr         r0,[r4,#0x10]=>DAT_200020d0             
ram:00017fd8    0028            cmp         r0,#0x0                                 
ram:00017fda    07d0            beq         LAB_00017fec                            
ram:00017fdc    0026            movs        r6,#0x0                                 
                            LAB_00017fde:                 ;XREF[1,0]:   00017fee
ram:00017fde    e068            ldr         r0,[r4,#0xc]=>DAT_200020cc              
ram:00017fe0    0028            cmp         r0,#0x0                                 
ram:00017fe2    05d0            beq         LAB_00017ff0                            
ram:00017fe4    0025            movs        r5,#0x0                                 
                            LAB_00017fe6:                 ;XREF[2,0]:   00017ff2,00018044
ram:00017fe6    002e            cmp         r6,#0x0                                 
ram:00017fe8    04d0            beq         LAB_00017ff4                            
ram:00017fea    13e0            b           LAB_00018014                            
                            LAB_00017fec:                 ;XREF[1,0]:   00017fda
ram:00017fec    0126            movs        r6,#0x1                                 
ram:00017fee    f6e7            b           LAB_00017fde                            
                            LAB_00017ff0:                 ;XREF[1,0]:   00017fe2
ram:00017ff0    0125            movs        r5,#0x1                                 
ram:00017ff2    f8e7            b           LAB_00017fe6                            
                            LAB_00017ff4:                 ;XREF[2,0]:   00017fe8,00018040
ram:00017ff4    6846            mov         r0,sp                                   
ram:00017ff6    51df            svc         0x51                                    
ram:00017ff8    0528            cmp         r0,#0x5                                 
ram:00017ffa    06d0            beq         LAB_0001800a                            
ram:00017ffc    0028            cmp         r0,#0x0                                 
ram:00017ffe    06d0            beq         LAB_0001800e                            
ram:00018000    0022            movs        r2,#0x0                                 
ram:00018002    1146            mov         r1,r2                                   
ram:00018004    fef79cfc        bl          FUN_00016940                            ;undefined FUN_00016940(void)
ram:00018008    04              ??          04h                                     
ram:00018009    e0              ??          E0h                                     
                            LAB_0001800a:                 ;XREF[1,0]:   00017ffa
ram:0001800a    0126            movs        r6,#0x1                                 
ram:0001800c    02e0            b           LAB_00018014                            
                            LAB_0001800e:                 ;XREF[1,0]:   00017ffe
ram:0001800e    2169            ldr         r1,[r4,#0x10]=>DAT_200020d0             
ram:00018010    0098            ldr         r0=>local_18,[sp,#0x0]                  
ram:00018012    8847            blx         r1                                      
                            LAB_00018014:                 ;XREF[2,0]:   00017fea,0001800c
ram:00018014    002d            cmp         r5,#0x0                                 
ram:00018016    12d1            bne         LAB_0001803e                            
ram:00018018    6088            ldrh        r0,[r4,#0x2]=>DAT_200020c2              
ram:0001801a    6946            mov         r1,sp                                   
ram:0001801c    0880            strh        r0,[r1,#0x0]=>local_18                  
ram:0001801e    a068            ldr         r0,[r4,#0x8]=>DAT_200020c8              
ram:00018020    61df            svc         0x61                                    
ram:00018022    0528            cmp         r0,#0x5                                 
ram:00018024    06d0            beq         LAB_00018034                            
ram:00018026    0028            cmp         r0,#0x0                                 
ram:00018028    06d0            beq         LAB_00018038                            
ram:0001802a    0022            movs        r2,#0x0                                 
ram:0001802c    1146            mov         r1,r2                                   
ram:0001802e    fef787fc        bl          FUN_00016940                            ;undefined FUN_00016940(void)
ram:00018032    04              ??          04h                                     
ram:00018033    e0              ??          E0h                                     
                            LAB_00018034:                 ;XREF[1,0]:   00018024
ram:00018034    0125            movs        r5,#0x1                                 
ram:00018036    02e0            b           LAB_0001803e                            
                            LAB_00018038:                 ;XREF[1,0]:   00018028
ram:00018038    e168            ldr         r1,[r4,#0xc]=>DAT_200020cc              
ram:0001803a    a068            ldr         r0,[r4,#0x8]=>DAT_200020c8              
ram:0001803c    8847            blx         r1                                      
                            LAB_0001803e:                 ;XREF[2,0]:   00018016,00018036
ram:0001803e    002e            cmp         r6,#0x0                                 
ram:00018040    d8d0            beq         LAB_00017ff4                            
ram:00018042    002d            cmp         r5,#0x0                                 
ram:00018044    cfd0            beq         LAB_00017fe6                            
                            LAB_00018046:                 ;XREF[1,0]:   00017fd4
ram:00018046    f8bd            pop         {r3,r4,r5,r6,r7,pc}                     
                            DAT_00018048:                 ;XREF[1,0]:   00017fce
ram:00018048    c0200020        undefined4  200020C0h                               
                            ;************************************************************************************************
                            ;*                                           FUNCTION                                           *
                            ;************************************************************************************************
                            ;undefined4 FUN_0001804c(int param_1)
          ;param_1       int                 r0                      
                                                          ;XREF[1,0]:   00017c30
ram:0001804c    4188            ldrh        r1,[param_1,#0x2]                       
ram:0001804e    0548            ldr         param_1,[DAT_00018064]                  ;= 20002038h
ram:00018050    0288            ldrh        r2,[param_1,#0x0]=>DAT_20002038         
ram:00018052    9142            cmp         r1,r2                                   
ram:00018054    04d3            bcc         LAB_00018060                            
ram:00018056    4088            ldrh        param_1,[param_1,#0x2]=>DAT_2000203a    
ram:00018058    8142            cmp         r1,param_1                              
ram:0001805a    01d8            bhi         LAB_00018060                            
ram:0001805c    0120            movs        param_1,#0x1                            
ram:0001805e    7047            bx          lr                                      
                            LAB_00018060:                 ;XREF[2,0]:   00018054,0001805a
ram:00018060    0020            movs        param_1,#0x0                            
ram:00018062    7047            bx          lr                                      
                            DAT_00018064:                 ;XREF[1,0]:   0001804e
ram:00018064    38200020        undefined4  20002038h                               
                            ;************************************************************************************************
                            ;*                                           FUNCTION                                           *
                            ;************************************************************************************************
                            ;undefined4 FUN_00018068(void)
                                                          ;XREF[1,0]:   0001642e
ram:00018068    1048            ldr         r0,[DAT_000180ac]                       ;= F0000FC0h
ram:0001806a    018c            ldrh        r1,[r0,#0x20]=>DAT_f0000fe0             
ram:0001806c    c9b2            uxtb        r1,r1                                   
ram:0001806e    0129            cmp         r1,#0x1                                 
ram:00018070    17d1            bne         LAB_000180a2                            
ram:00018072    818c            ldrh        r1,[r0,#0x24]=>DAT_f0000fe4             
ram:00018074    0907            lsls        r1,r1,#0x1c                             
ram:00018076    14d1            bne         LAB_000180a2                            
ram:00018078    018d            ldrh        r1,[r0,#0x28]=>DAT_f0000fe8             
ram:0001807a    0906            lsls        r1,r1,#0x18                             
ram:0001807c    0a0f            lsrs        r2,r1,#0x1c                             
ram:0001807e    03d1            bne         LAB_00018088                            
ram:00018080    828d            ldrh        r2,[r0,#0x2c]=>DAT_f0000fec             
ram:00018082    1206            lsls        r2,r2,#0x18                             
ram:00018084    120f            lsrs        r2,r2,#0x1c                             
ram:00018086    0ed0            beq         LAB_000180a6                            
                            LAB_00018088:                 ;XREF[1,0]:   0001807e
ram:00018088    090f            lsrs        r1,r1,#0x1c                             
ram:0001808a    0129            cmp         r1,#0x1                                 
ram:0001808c    03d1            bne         LAB_00018096                            
ram:0001808e    828d            ldrh        r2,[r0,#0x2c]=>DAT_f0000fec             
ram:00018090    1206            lsls        r2,r2,#0x18                             
ram:00018092    120f            lsrs        r2,r2,#0x1c                             
ram:00018094    07d0            beq         LAB_000180a6                            
                            LAB_00018096:                 ;XREF[1,0]:   0001808c
ram:00018096    0329            cmp         r1,#0x3                                 
ram:00018098    03d1            bne         LAB_000180a2                            
ram:0001809a    808d            ldrh        r0,[r0,#0x2c]=>DAT_f0000fec             
ram:0001809c    0006            lsls        r0,r0,#0x18                             
ram:0001809e    000f            lsrs        r0,r0,#0x1c                             
ram:000180a0    01d0            beq         LAB_000180a6                            
                            LAB_000180a2:                 ;XREF[3,0]:   00018070,00018076,00018098
ram:000180a2    0020            movs        r0,#0x0                                 
ram:000180a4    7047            bx          lr                                      
                            LAB_000180a6:                 ;XREF[3,0]:   00018086,00018094,000180a0
ram:000180a6    0120            movs        r0,#0x1                                 
ram:000180a8    7047            bx          lr                                      
ram:000180aa    0000            movs        r0,r0                                   
                            DAT_000180ac:                 ;XREF[1,0]:   00018068
ram:000180ac    c00f00f0        undefined4  F0000FC0h                               
                            ;************************************************************************************************
                            ;*                                           FUNCTION                                           *
                            ;************************************************************************************************
                            ;undefined4 FUN_000180b0(uint param_1)
          ;param_1       uint                r0                      
                                                          ;XREF[4,0]:   00018970,00018baa,00018bb4,00018bbe
ram:000180b0    8007            lsls        param_1,param_1,#0x1e                   
ram:000180b2    01d0            beq         LAB_000180b8                            
ram:000180b4    0020            movs        param_1,#0x0                            
ram:000180b6    7047            bx          lr                                      
                            LAB_000180b8:                 ;XREF[1,0]:   000180b2
ram:000180b8    0120            movs        param_1,#0x1                            
ram:000180ba    7047            bx          lr                                      
                            ;************************************************************************************************
                            ;*                                           FUNCTION                                           *
                            ;************************************************************************************************
                            ;undefined4 FUN_000180bc(undefined4 * param_1)
          ;param_1       undefined4 *        r0                      
                                                          ;XREF[1,0]:   000182d8
ram:000180bc    f8b5            push        {r3,r4,r5,r6,r7,lr}                     
ram:000180be    234d            ldr         r5,[DAT_0001814c]                       ;= 200024F0h
ram:000180c0    0646            mov         r6,param_1                              
ram:000180c2    287b            ldrb        param_1,[r5,#0xc]=>DAT_200024fc         
ram:000180c4    0024            movs        r4,#0x0                                 
ram:000180c6    0028            cmp         param_1,#0x0                            
ram:000180c8    01d0            beq         LAB_000180ce                            
ram:000180ca    0820            movs        param_1,#0x8                            
ram:000180cc    f8bd            pop         {r3,r4,r5,r6,r7,pc}                     
                            LAB_000180ce:                 ;XREF[1,0]:   000180c8
ram:000180ce    002e            cmp         r6,#0x0                                 
ram:000180d0    1dd0            beq         LAB_0001810e                            
ram:000180d2    3078            ldrb        param_1,[r6,#0x0]                       
ram:000180d4    0028            cmp         param_1,#0x0                            
ram:000180d6    1cd0            beq         LAB_00018112                            
ram:000180d8    7178            ldrb        r1,[r6,#0x1]                            
ram:000180da    8842            cmp         param_1,r1                              
ram:000180dc    19d9            bls         LAB_00018112                            
ram:000180de    b078            ldrb        param_1,[r6,#0x2]                       
ram:000180e0    0028            cmp         param_1,#0x0                            
ram:000180e2    16d0            beq         LAB_00018112                            
ram:000180e4    f068            ldr         param_1,[r6,#0xc]                       
ram:000180e6    0028            cmp         param_1,#0x0                            
ram:000180e8    13d0            beq         LAB_00018112                            
ram:000180ea    2421            movs        r1,#0x24                                
ram:000180ec    1748            ldr         param_1=>DAT_200024f0,[DAT_0001814c]    ;= 200024F0h
ram:000180ee    fef79ef8        bl          FUN_0001622e                            ;undefined FUN_0001622e(undefined * p...
ram:000180f2    1648            ldr         param_1,[DAT_0001814c]                  ;= 200024F0h
ram:000180f4    1422            movs        r2,#0x14                                
ram:000180f6    3146            mov         r1,r6                                   
ram:000180f8    1030            adds        param_1=>DAT_20002500,#0x10             
ram:000180fa    fef77ff8        bl          FUN_000161fc                            ;undefined FUN_000161fc(undefined4 * ...
ram:000180fe    0121            movs        r1,#0x1                                 
ram:00018100    124a            ldr         r2,[DAT_0001814c]                       ;= 200024F0h
ram:00018102    a972            strb        r1,[r5,#0xa]=>DAT_200024fa              
ram:00018104    0323            movs        r3,#0x3                                 
ram:00018106    2032            adds        r2,#0x20                                
ram:00018108    1278            ldrb        r2,[r2,#0x0]=>DAT_20002510              
ram:0001810a    e869            ldr         param_1,[r5,#0x1c]=>DAT_2000250c        
ram:0001810c    15e0            b           LAB_0001813a                            
                            LAB_0001810e:                 ;XREF[1,0]:   000180d0
ram:0001810e    0e20            movs        param_1,#0xe                            
ram:00018110    f8bd            pop         {r3,r4,r5,r6,r7,pc}                     
                            LAB_00018112:                 ;XREF[4,0]:   000180d6,000180dc,000180e2,000180e8
ram:00018112    0720            movs        param_1,#0x7                            
ram:00018114    f8bd            pop         {r3,r4,r5,r6,r7,pc}                     
                            LAB_00018116:                 ;XREF[1,0]:   0001813c
ram:00018116    c607            lsls        r6,param_1,#0x1f                        
ram:00018118    0dd0            beq         LAB_00018136                            
ram:0001811a    0d4e            ldr         r6,[DAT_00018150]                       ;= 50000700h
ram:0001811c    a700            lsls        r7,r4,#0x2                              
ram:0001811e    be19            adds        r6,r7,r6                                
ram:00018120    3360            str         r3,[r6,#0x0]=>DAT_50000700              
ram:00018122    002a            cmp         r2,#0x0                                 
ram:00018124    0e46            mov         r6,r1                                   
ram:00018126    03d0            beq         LAB_00018130                            
ram:00018128    0a4f            ldr         r7,[DAT_00018154]                       ;= 50000500h
ram:0001812a    a640            lsls        r6,r4                                   
ram:0001812c    fe60            str         r6,[r7,#offset DAT_5000050c &0xff]      
ram:0001812e    02e0            b           LAB_00018136                            
                            LAB_00018130:                 ;XREF[1,0]:   00018126
ram:00018130    084f            ldr         r7,[DAT_00018154]                       ;= 50000500h
ram:00018132    a640            lsls        r6,r4                                   
ram:00018134    be60            str         r6,[r7,#offset DAT_50000508 &0xff]      
                            LAB_00018136:                 ;XREF[2,0]:   00018118,0001812e
ram:00018136    4008            lsrs        param_1,param_1,#0x1                    
ram:00018138    641c            adds        r4,r4,#0x1                              
                            LAB_0001813a:                 ;XREF[1,0]:   0001810c
ram:0001813a    0028            cmp         param_1,#0x0                            
ram:0001813c    ebd1            bne         LAB_00018116                            
ram:0001813e    2973            strb        r1,[r5,#0xc]=>DAT_200024fc              
ram:00018140    054a            ldr         r2=>LAB_00018174...,[PTR_LAB_00018174...;= 00018175
ram:00018142    0021            movs        r1,#0x0                                 
ram:00018144    281d            adds        param_1=>DAT_200024f4,r5,#0x4           
ram:00018146    fef7bbfd        bl          FUN_00016cc0                            ;undefined4 FUN_00016cc0(int * param_...
ram:0001814a    f8bd            pop         {r3,r4,r5,r6,r7,pc}                     
                            DAT_0001814c:                 ;XREF[4,0]:   000180be,000180ec,000180f2,00018100
ram:0001814c    f0240020        undefined4  200024F0h                               
                            DAT_00018150:                 ;XREF[1,0]:   0001811a
ram:00018150    00070050        undefined4  50000700h                               
                            DAT_00018154:                 ;XREF[2,0]:   00018128,00018130
ram:00018154    00050050        undefined4  50000500h                               
                            PTR_LAB_00018174+1+1_00018158:;XREF[1,0]:   00018140
ram:00018158    75810100        addr        LAB_00018174+1+1                        
                            ;************************************************************************************************
                            ;*                                           FUNCTION                                           *
                            ;************************************************************************************************
                            ;undefined4 FUN_0001815c(undefined4 param_1)
          ;param_1       undefined4          r0                      
                                                          ;XREF[1,0]:   00017394
ram:0001815c    0449            ldr         r1,[DAT_00018170]                       ;= 200024F0h
ram:0001815e    0a7b            ldrb        r2,[r1,#0xc]=>DAT_200024fc              
ram:00018160    002a            cmp         r2,#0x0                                 
ram:00018162    02d0            beq         LAB_0001816a                            
ram:00018164    4861            str         param_1,[r1,#0x14]=>DAT_20002504        
ram:00018166    0020            movs        param_1,#0x0                            
ram:00018168    7047            bx          lr                                      
                            LAB_0001816a:                 ;XREF[1,0]:   00018162
ram:0001816a    0820            movs        param_1,#0x8                            
ram:0001816c    7047            bx          lr                                      
ram:0001816e    0000            movs        r0,r0                                   
                            DAT_00018170:                 ;XREF[1,0]:   0001815c
ram:00018170    f0240020        undefined4  200024F0h                               
                            ;************************************************************************************************
                            ;*                                           FUNCTION                                           *
                            ;************************************************************************************************
                            ;undefined LAB_00018174+1(void)
                                                          ;XREF[0,2]:   00018140,00018158
ram:00018174    f8b5            push        {r3,r4,r5,r6,r7,lr}                     
ram:00018176    294c            ldr         r4,[DAT_0001821c]                       ;= 200024F0h
ram:00018178    207b            ldrb        r0,[r4,#0xc]=>DAT_200024fc              
ram:0001817a    0028            cmp         r0,#0x0                                 
ram:0001817c    4dd0            beq         LAB_0001821a                            
ram:0001817e    2046            mov         r0,r4                                   
ram:00018180    2021            movs        r1,#0x20                                
ram:00018182    0f5c            ldrb        r7,[r1,r0]=>DAT_20002510                
ram:00018184    667a            ldrb        r6,[r4,#0x9]=>DAT_200024f9              
ram:00018186    0b21            movs        r1,#0xb                                 
ram:00018188    254a            ldr         r2,[DAT_00018220]                       ;= 50000500h
ram:0001818a    0125            movs        r5,#0x1                                 
ram:0001818c    4156            ldrsb       r1,[r0,r1]=>DAT_200024fb                
ram:0001818e    0368            ldr         r3,[r0,#0x0]=>DAT_200024f0              
ram:00018190    002e            cmp         r6,#0x0                                 
ram:00018192    2fd0            beq         LAB_000181f4                            
ram:00018194    002f            cmp         r7,#0x0                                 
ram:00018196    01d0            beq         LAB_0001819c                            
ram:00018198    d360            str         r3,[r2,#offset DAT_5000050c &0xff]      
ram:0001819a    00e0            b           LAB_0001819e                            
                            LAB_0001819c:                 ;XREF[1,0]:   00018196
ram:0001819c    9360            str         r3,[r2,#offset DAT_50000508 &0xff]      
                            LAB_0001819e:                 ;XREF[1,0]:   0001819a
ram:0001819e    0023            movs        r3,#0x0                                 
ram:000181a0    6372            strb        r3,[r4,#0x9]=>DAT_200024f9              
ram:000181a2    1e48            ldr         r0,[DAT_0001821c]                       ;= 200024F0h
ram:000181a4    a67a            ldrb        r6,[r4,#0xa]=>DAT_200024fa              
ram:000181a6    827c            ldrb        r2,[r0,#0x12]=>DAT_20002502             
ram:000181a8    407c            ldrb        r0,[r0,#0x11]=>DAT_20002501             
ram:000181aa    002e            cmp         r6,#0x0                                 
ram:000181ac    07d0            beq         LAB_000181be                            
ram:000181ae    8918            adds        r1,r1,r2                                
ram:000181b0    49b2            sxtb        r1,r1                                   
ram:000181b2    e172            strb        r1,[r4,#0xb]=>DAT_200024fb              
ram:000181b4    227c            ldrb        r2,[r4,#0x10]=>DAT_20002500             
ram:000181b6    9142            cmp         r1,r2                                   
ram:000181b8    07db            blt         LAB_000181ca                            
ram:000181ba    a372            strb        r3,[r4,#0xa]=>DAT_200024fa              
ram:000181bc    05e0            b           LAB_000181ca                            
                            LAB_000181be:                 ;XREF[1,0]:   000181ac
ram:000181be    891a            subs        r1,r1,r2                                
ram:000181c0    49b2            sxtb        r1,r1                                   
ram:000181c2    e172            strb        r1,[r4,#0xb]=>DAT_200024fb              
ram:000181c4    8142            cmp         r1,r0                                   
ram:000181c6    00dc            bgt         LAB_000181ca                            
ram:000181c8    a572            strb        r5,[r4,#0xa]=>DAT_200024fa              
                            LAB_000181ca:                 ;XREF[3,0]:   000181b8,000181bc,000181c6
ram:000181ca    0b21            movs        r1,#0xb                                 
ram:000181cc    6156            ldrsb       r1,[r4,r1]=>DAT_200024fb                
ram:000181ce    8142            cmp         r1,r0                                   
ram:000181d0    0ddc            bgt         LAB_000181ee                            
ram:000181d2    6069            ldr         r0,[r4,#0x14]=>DAT_20002504             
ram:000181d4    ff23            movs        r3,#0xff                                
ram:000181d6    410c            lsrs        r1,r0,#0x11                             
ram:000181d8    c003            lsls        r0,r0,#0xf                              
ram:000181da    f533            adds        r3,#0xf5                                
ram:000181dc    0022            movs        r2,#0x0                                 
ram:000181de    c018            adds        r0,r0,r3                                
ram:000181e0    5141            adcs        r1,r2                                   
ram:000181e2    5a00            lsls        r2,r3,#0x1                              
ram:000181e4    0023            movs        r3,#0x0                                 
ram:000181e6    fdf7d9ff        bl          FUN_0001619c                            ;longlong FUN_0001619c(uint param_1, ...
ram:000181ea    0146            mov         r1,r0                                   
ram:000181ec    0be0            b           LAB_00018206                            
                            LAB_000181ee:                 ;XREF[1,0]:   000181d0
ram:000181ee    6420            movs        r0,#0x64                                
ram:000181f0    411a            subs        r1,r0,r1                                
ram:000181f2    05e0            b           LAB_00018200                            
                            LAB_000181f4:                 ;XREF[1,0]:   00018192
ram:000181f4    002f            cmp         r7,#0x0                                 
ram:000181f6    01d0            beq         LAB_000181fc                            
ram:000181f8    9360            str         r3,[r2,#offset DAT_50000508 &0xff]      
ram:000181fa    00e0            b           LAB_000181fe                            
                            LAB_000181fc:                 ;XREF[1,0]:   000181f6
ram:000181fc    d360            str         r3,[r2,#offset DAT_5000050c &0xff]      
                            LAB_000181fe:                 ;XREF[1,0]:   000181fa
ram:000181fe    6572            strb        r5,[r4,#0x9]=>DAT_200024f9              
                            LAB_00018200:                 ;XREF[1,0]:   000181f2
ram:00018200    0620            movs        r0,#0x6                                 
ram:00018202    4143            muls        r1,r0                                   
ram:00018204    491d            adds        r1,r1,#0x5                              
                            LAB_00018206:                 ;XREF[1,0]:   000181ec
ram:00018206    0022            movs        r2,#0x0                                 
ram:00018208    6068            ldr         r0,[r4,#0x4]=>DAT_200024f4              
ram:0001820a    fef7d9fd        bl          FUN_00016dc0                            ;longlong FUN_00016dc0(uint param_1, ...
ram:0001820e    0028            cmp         r0,#0x0                                 
ram:00018210    03d0            beq         LAB_0001821a                            
ram:00018212    0022            movs        r2,#0x0                                 
ram:00018214    1146            mov         r1,r2                                   
ram:00018216    fef793fb        bl          FUN_00016940                            ;undefined FUN_00016940(void)
                            LAB_0001821a:                 ;XREF[2,0]:   0001817c,00018210
ram:0001821a    f8bd            pop         {r3,r4,r5,r6,r7,pc}                     
                            DAT_0001821c:                 ;XREF[2,0]:   00018176,000181a2
ram:0001821c    f0240020        undefined4  200024F0h                               
                            DAT_00018220:                 ;XREF[1,0]:   00018188
ram:00018220    00050050        undefined4  50000500h                               
                            ;************************************************************************************************
                            ;*                                           FUNCTION                                           *
                            ;************************************************************************************************
                            ;longlong FUN_00018224(uint param_1, undefined4 param_2, undefined4 param_3, undefined4 param_4)
          ;param_1       uint                r0                      
          ;param_2       undefined4          r1                      
          ;param_3       undefined4          r2                      
          ;param_4       undefined4          r3                      
                                                          ;XREF[1,0]:   00017312
ram:00018224    10b5            push        {r4,lr}                                 
ram:00018226    0c4c            ldr         r4,[DAT_00018258]                       ;= 200024F0h
ram:00018228    217b            ldrb        param_2,[r4,#0xc]=>DAT_200024fc         
ram:0001822a    0029            cmp         param_2,#0x0                            
ram:0001822c    06d0            beq         LAB_0001823c                            
ram:0001822e    2168            ldr         param_2,[r4,#0x0]=>DAT_200024f0         
ram:00018230    0143            orrs        param_2,param_1                         
ram:00018232    2160            str         param_2,[r4,#0x0]=>DAT_200024f0         
ram:00018234    207a            ldrb        param_1,[r4,#0x8]=>DAT_200024f8         
ram:00018236    0028            cmp         param_1,#0x0                            
ram:00018238    02d0            beq         LAB_00018240                            
ram:0001823a    0ae0            b           LAB_00018252                            
                            LAB_0001823c:                 ;XREF[1,0]:   0001822c
ram:0001823c    0820            movs        param_1,#0x8                            
                            LAB_0001823e:                 ;XREF[1,0]:   0001824c
ram:0001823e    10bd            pop         {r4,pc}                                 
                            LAB_00018240:                 ;XREF[1,0]:   00018238
ram:00018240    0022            movs        param_3,#0x0                            
ram:00018242    0649            ldr         param_2,[DAT_0001825c]                  ;= 0000028Fh
ram:00018244    6068            ldr         param_1,[r4,#0x4]=>DAT_200024f4         
ram:00018246    fef7bbfd        bl          FUN_00016dc0                            ;longlong FUN_00016dc0(uint param_1, ...
ram:0001824a    0028            cmp         param_1,#0x0                            
ram:0001824c    f7d1            bne         LAB_0001823e                            
ram:0001824e    0120            movs        param_1,#0x1                            
ram:00018250    2072            strb        param_1,[r4,#0x8]=>DAT_200024f8         
                            LAB_00018252:                 ;XREF[1,0]:   0001823a
ram:00018252    0020            movs        param_1,#0x0                            
ram:00018254    10bd            pop         {r4,pc}                                 
ram:00018256    0000            movs        r0,r0                                   
                            DAT_00018258:                 ;XREF[1,0]:   00018226
ram:00018258    f0240020        undefined4  200024F0h                               
                            DAT_0001825c:                 ;XREF[1,0]:   00018242
ram:0001825c    8f020000        undefined4  0000028Fh                               
                            ;************************************************************************************************
                            ;*                                           FUNCTION                                           *
                            ;************************************************************************************************
                            ;int FUN_00018260(uint param_1, undefined4 param_2, undefined4 param_3, uint param_4)
          ;param_1       uint                r0                      
          ;param_2       undefined4          r1                      
          ;param_3       undefined4          r2                      
          ;param_4       uint                r3                      
                                                          ;XREF[1,0]:   00017e56
ram:00018260    10b5            push        {r4,lr}                                 
ram:00018262    0b4c            ldr         r4,[DAT_00018290]                       ;= 200024F0h
ram:00018264    217b            ldrb        param_2,[r4,#0xc]=>DAT_200024fc         
ram:00018266    0029            cmp         param_2,#0x0                            
ram:00018268    08d0            beq         LAB_0001827c                            
ram:0001826a    2168            ldr         param_2,[r4,#0x0]=>DAT_200024f0         
ram:0001826c    8143            bics        param_2,param_1                         
ram:0001826e    2160            str         param_2,[r4,#0x0]=>DAT_200024f0         
ram:00018270    207a            ldrb        param_1,[r4,#0x8]=>DAT_200024f8         
ram:00018272    0028            cmp         param_1,#0x0                            
ram:00018274    0ad0            beq         LAB_0001828c                            
ram:00018276    0029            cmp         param_2,#0x0                            
ram:00018278    02d0            beq         LAB_00018280                            
ram:0001827a    07e0            b           LAB_0001828c                            
                            LAB_0001827c:                 ;XREF[1,0]:   00018268
ram:0001827c    0820            movs        param_1,#0x8                            
                            LAB_0001827e:                 ;XREF[1,0]:   00018288
ram:0001827e    10bd            pop         {r4,pc}                                 
                            LAB_00018280:                 ;XREF[1,0]:   00018278
ram:00018280    6068            ldr         param_1,[r4,#0x4]=>DAT_200024f4         
ram:00018282    fef7dffd        bl          FUN_00016e44                            ;undefined4 FUN_00016e44(uint param_1...
ram:00018286    0028            cmp         param_1,#0x0                            
ram:00018288    f9d1            bne         LAB_0001827e                            
ram:0001828a    2072            strb        param_1,[r4,#0x8]=>DAT_200024f8         
                            LAB_0001828c:                 ;XREF[2,0]:   00018274,0001827a
ram:0001828c    0020            movs        param_1,#0x0                            
ram:0001828e    10bd            pop         {r4,pc}                                 
                            DAT_00018290:                 ;XREF[1,0]:   00018262
ram:00018290    f0240020        undefined4  200024F0h                               
                            ;************************************************************************************************
                            ;*                                           FUNCTION                                           *
                            ;************************************************************************************************
                            ;undefined FUN_00018294(void)
          ;local_8       undefined1          -8                      ;XREF[1,0]:   000182be
          ;local_c       undefined4          -c                      ;XREF[1,0]:   000182cc
          ;local_10      undefined4         -10                      ;XREF[1,0]:   000182d2
          ;local_14      undefined4         -14                      ;XREF[1,0]:   000182d4
          ;local_16      undefined1         -16                      ;XREF[1,0]:   000182c6
          ;local_17      undefined1         -17                      ;XREF[1,0]:   000182c4
          ;local_18      undefined1         -18                      ;XREF[1,0]:   000182c2
                                                          ;XREF[1,0]:   000184be
ram:00018294    00b5            push        {lr}                                    
ram:00018296    1549            ldr         r1,[DAT_000182ec]                       ;= 50000740h
ram:00018298    85b0            sub         sp,#0x14                                
ram:0001829a    0320            movs        r0,#0x3                                 
ram:0001829c    0860            str         r0,[r1,#0x0]=>DAT_50000740              
ram:0001829e    1349            ldr         r1,[DAT_000182ec]                       ;= 50000740h
ram:000182a0    1039            subs        r1,#0x10                                
ram:000182a2    0860            str         r0,[r1,#0x0]=>DAT_50000730              
ram:000182a4    1149            ldr         r1,[DAT_000182ec]                       ;= 50000740h
ram:000182a6    091f            subs        r1,r1,#0x4                              
ram:000182a8    0860            str         r0,[r1,#0x0]=>DAT_5000073c              
ram:000182aa    0122            movs        r2,#0x1                                 
ram:000182ac    1048            ldr         r0,[DAT_000182f0]                       ;= 50000500h
ram:000182ae    1104            lsls        r1,r2,#0x10                             
ram:000182b0    8160            str         r1,[r0,#offset DAT_50000508 &0xff]      
ram:000182b2    0911            asrs        r1,r1,#0x4                              
ram:000182b4    8160            str         r1,[r0,#offset DAT_50000508 &0xff]      
ram:000182b6    c900            lsls        r1,r1,#0x3                              
ram:000182b8    8160            str         r1,[r0,#offset DAT_50000508 &0xff]      
ram:000182ba    0020            movs        r0,#0x0                                 
ram:000182bc    6946            mov         r1,sp                                   
ram:000182be    0874            strb        r0,[r1,#local_8+0x18]                   
ram:000182c0    1423            movs        r3,#0x14                                
ram:000182c2    0b70            strb        r3,[r1,#0x0]=>local_18                  
ram:000182c4    4870            strb        r0,[r1,#local_17+0x18]                  
ram:000182c6    8a70            strb        r2,[r1,#local_16+0x18]                  
ram:000182c8    1921            movs        r1,#0x19                                
ram:000182ca    0903            lsls        r1,r1,#0xc                              
ram:000182cc    0391            str         r1=>FUN_00019000,[sp,#local_c+0x18]     
ram:000182ce    7d21            movs        r1,#0x7d                                
ram:000182d0    4901            lsls        r1,r1,#0x5                              
ram:000182d2    0290            str         r0,[sp,#local_10+0x18]                  
ram:000182d4    0191            str         r1,[sp,#local_14+0x18]                  
ram:000182d6    6846            mov         r0,sp                                   
ram:000182d8    fff7f0fe        bl          FUN_000180bc                            ;undefined4 FUN_000180bc(undefined4 *...
ram:000182dc    0028            cmp         r0,#0x0                                 
ram:000182de    03d0            beq         LAB_000182e8                            
ram:000182e0    0022            movs        r2,#0x0                                 
ram:000182e2    1146            mov         r1,r2                                   
ram:000182e4    fef72cfb        bl          FUN_00016940                            ;undefined FUN_00016940(void)
                            LAB_000182e8:                 ;XREF[1,0]:   000182de
ram:000182e8    05b0            add         sp,#0x14                                
ram:000182ea    00bd            pop         {pc}                                    
                            DAT_000182ec:                 ;XREF[3,0]:   00018296,0001829e,000182a4
ram:000182ec    40070050        undefined4  50000740h                               
                            DAT_000182f0:                 ;XREF[1,0]:   000182ac
ram:000182f0    00050050        undefined4  50000500h                               
                            ;************************************************************************************************
                            ;*                                           FUNCTION                                           *
                            ;************************************************************************************************
                            ;undefined4 FUN_000182f4(void)
          ;local_18      undefined4         -18                      ;XREF[2,0]:   000182fa,00018376
                                                          ;XREF[1,0]:   000163cc
ram:000182f4    f8b5            push        {r3,r4,r5,r6,r7,lr}                     
ram:000182f6    2348            ldr         r0,[DAT_00018384]                       ;= 2000209Ch
ram:000182f8    0169            ldr         r1,[r0,#0x10]=>DAT_200020ac             
ram:000182fa    0091            str         r1,[sp,#0x0]=>local_18                  
ram:000182fc    4578            ldrb        r5,[r0,#0x1]=>DAT_2000209d              
ram:000182fe    33e0            b           LAB_00018368                            
                            LAB_00018300:                 ;XREF[1,0]:   00018370
ram:00018300    2048            ldr         r0,[DAT_00018384]                       ;= 2000209Ch
ram:00018302    e900            lsls        r1,r5,#0x3                              
ram:00018304    c068            ldr         r0,[r0,#0xc]=>DAT_200020a8              
ram:00018306    0e18            adds        r6,r1,r0                                
ram:00018308    3478            ldrb        r4,[r6,#0x0]                            
ram:0001830a    2ae0            b           LAB_00018362                            
                            LAB_0001830c:                 ;XREF[1,0]:   00018366
ram:0001830c    1820            movs        r0,#0x18                                
ram:0001830e    6043            muls        r0,r4                                   
ram:00018310    7168            ldr         r1,[r6,#0x4]                            
ram:00018312    641c            adds        r4,r4,#0x1                              
ram:00018314    0818            adds        r0,r1,r0                                
ram:00018316    b178            ldrb        r1,[r6,#0x2]                            
ram:00018318    e4b2            uxtb        r4,r4                                   
ram:0001831a    a142            cmp         r1,r4                                   
ram:0001831c    00d1            bne         LAB_00018320                            
ram:0001831e    0024            movs        r4,#0x0                                 
                            LAB_00018320:                 ;XREF[1,0]:   0001831c
ram:00018320    0178            ldrb        r1,[r0,#0x0]                            
ram:00018322    0229            cmp         r1,#0x2                                 
ram:00018324    02d0            beq         LAB_0001832c                            
ram:00018326    0329            cmp         r1,#0x3                                 
ram:00018328    1bd1            bne         LAB_00018362                            
ram:0001832a    13e0            b           LAB_00018354                            
                            LAB_0001832c:                 ;XREF[1,0]:   00018324
ram:0001832c    154a            ldr         r2,[DAT_00018384]                       ;= 2000209Ch
ram:0001832e    4068            ldr         r0,[r0,#0x4]                            
ram:00018330    2421            movs        r1,#0x24                                
ram:00018332    9268            ldr         r2,[r2,#0x8]=>DAT_200020a4              
ram:00018334    4143            muls        r1,r0                                   
ram:00018336    8f18            adds        r7,r1,r2                                
ram:00018338    397d            ldrb        r1,[r7,#0x14]                           
ram:0001833a    0029            cmp         r1,#0x0                                 
ram:0001833c    11d0            beq         LAB_00018362                            
ram:0001833e    00f0fdfe        bl          FUN_0001913c                            ;undefined FUN_0001913c(int param_1)
ram:00018342    0020            movs        r0,#0x0                                 
ram:00018344    3875            strb        r0,[r7,#0x14]                           
ram:00018346    0ce0            b           LAB_00018362                            
                            LAB_00018348:                 ;XREF[1,0]:   0001835e
ram:00018348    2427            movs        r7,#0x24                                
ram:0001834a    7843            muls        r0,r7                                   
ram:0001834c    c018            adds        r0,r0,r3                                
ram:0001834e    0275            strb        r2,[r0,#0x14]                           
ram:00018350    006a            ldr         r0,[r0,#0x20]                           
ram:00018352    03e0            b           LAB_0001835c                            
                            LAB_00018354:                 ;XREF[1,0]:   0001832a
ram:00018354    0b49            ldr         r1,[DAT_00018384]                       ;= 2000209Ch
ram:00018356    0022            movs        r2,#0x0                                 
ram:00018358    8b68            ldr         r3,[r1,#0x8]=>DAT_200020a4              
ram:0001835a    0869            ldr         r0,[r1,#0x10]=>DAT_200020ac             
                            LAB_0001835c:                 ;XREF[1,0]:   00018352
ram:0001835c    471c            adds        r7,r0,#0x1                              
ram:0001835e    f3d1            bne         LAB_00018348                            
ram:00018360    0861            str         r0,[r1,#0x10]=>DAT_200020ac             
                            LAB_00018362:                 ;XREF[4,0]:   0001830a,00018328,0001833c,00018346
ram:00018362    7078            ldrb        r0,[r6,#0x1]                            
ram:00018364    a042            cmp         r0,r4                                   
ram:00018366    d1d1            bne         LAB_0001830c                            
                            LAB_00018368:                 ;XREF[1,0]:   000182fe
ram:00018368    2846            mov         r0,r5                                   
ram:0001836a    6d1e            subs        r5,r5,#0x1                              
ram:0001836c    edb2            uxtb        r5,r5                                   
ram:0001836e    0028            cmp         r0,#0x0                                 
ram:00018370    c6d1            bne         LAB_00018300                            
ram:00018372    0448            ldr         r0,[DAT_00018384]                       ;= 2000209Ch
ram:00018374    0169            ldr         r1,[r0,#0x10]=>DAT_200020ac             
ram:00018376    0098            ldr         r0,[sp,#0x0]=>local_18                  
ram:00018378    8142            cmp         r1,r0                                   
ram:0001837a    01d0            beq         LAB_00018380                            
ram:0001837c    0120            movs        r0,#0x1                                 
ram:0001837e    f8bd            pop         {r3,r4,r5,r6,r7,pc}                     
                            LAB_00018380:                 ;XREF[1,0]:   0001837a
ram:00018380    0020            movs        r0,#0x0                                 
ram:00018382    f8bd            pop         {r3,r4,r5,r6,r7,pc}                     
                            DAT_00018384:                 ;XREF[5,0]:   000182f6,00018300,0001832c,00018354
                                                          ;             00018372
ram:00018384    9c200020        undefined4  2000209Ch                               
                            ;************************************************************************************************
                            ;*                                           FUNCTION                                           *
                            ;************************************************************************************************
                            ;undefined4 FUN_00018388(int param_1)
          ;param_1       int                 r0                      
          ;local_18      undefined4         -18                      ;XREF[2,0]:   00018392,00018460
                                                          ;XREF[2,0]:   000163e2,000163ea
ram:00018388    f8b5            push        {r3,r4,r5,r6,r7,lr}                     
ram:0001838a    0446            mov         r4,param_1                              
ram:0001838c    3848            ldr         param_1,[DAT_00018470]                  ;= 2000209Ch
ram:0001838e    0027            movs        r7,#0x0                                 
ram:00018390    0169            ldr         r1,[param_1,#0x10]=>DAT_200020ac        
ram:00018392    0091            str         r1,[sp,#0x0]=>local_18                  
ram:00018394    4678            ldrb        r6,[param_1,#0x1]=>DAT_2000209d         
ram:00018396    5ce0            b           LAB_00018452                            
                            LAB_00018398:                 ;XREF[1,0]:   0001845a
ram:00018398    3548            ldr         param_1,[DAT_00018470]                  ;= 2000209Ch
ram:0001839a    f100            lsls        r1,r6,#0x3                              
ram:0001839c    c268            ldr         r2,[param_1,#0xc]=>DAT_200020a8         
ram:0001839e    8d18            adds        r5,r1,r2                                
ram:000183a0    51e0            b           LAB_00018446                            
                            LAB_000183a2:                 ;XREF[2,0]:   00018448,00018450
ram:000183a2    601c            adds        param_1,r4,#0x1                         
ram:000183a4    07d0            beq         LAB_000183b6                            
ram:000183a6    324a            ldr         r2,[DAT_00018470]                       ;= 2000209Ch
ram:000183a8    2420            movs        param_1,#0x24                           
ram:000183aa    9268            ldr         r2,[r2,#0x8]=>DAT_200020a4              
ram:000183ac    6043            muls        param_1,r4                              
ram:000183ae    2146            mov         r1,r4                                   
ram:000183b0    8018            adds        param_1,param_1,r2                      
ram:000183b2    046a            ldr         r4,[param_1,#0x20]                      
ram:000183b4    24e0            b           LAB_00018400                            
                            LAB_000183b6:                 ;XREF[1,0]:   000183a4
ram:000183b6    2878            ldrb        param_1,[r5,#0x0]                       
ram:000183b8    1821            movs        r1,#0x18                                
ram:000183ba    4143            muls        r1,param_1                              
ram:000183bc    6a68            ldr         r2,[r5,#0x4]                            
ram:000183be    401c            adds        param_1,param_1,#0x1                    
ram:000183c0    c0b2            uxtb        param_1,param_1                         
ram:000183c2    5218            adds        r2,r2,r1                                
ram:000183c4    2870            strb        param_1,[r5,#0x0]                       
ram:000183c6    a978            ldrb        r1,[r5,#0x2]                            
ram:000183c8    8842            cmp         param_1,r1                              
ram:000183ca    00d1            bne         LAB_000183ce                            
ram:000183cc    2f70            strb        r7,[r5,#0x0]                            
                            LAB_000183ce:                 ;XREF[1,0]:   000183ca
ram:000183ce    284b            ldr         r3,[DAT_00018470]                       ;= 2000209Ch
ram:000183d0    5168            ldr         r1,[r2,#0x4]                            
ram:000183d2    2420            movs        param_1,#0x24                           
ram:000183d4    9b68            ldr         r3,[r3,#0x8]=>DAT_200020a4              
ram:000183d6    4843            muls        param_1,r1                              
ram:000183d8    c018            adds        param_1,param_1,r3                      
ram:000183da    1378            ldrb        r3,[r2,#0x0]                            
ram:000183dc    012b            cmp         r3,#0x1                                 
ram:000183de    34d1            bne         LAB_0001844a                            
ram:000183e0    037d            ldrb        r3,[param_1,#0x14]                      
ram:000183e2    002b            cmp         r3,#0x0                                 
ram:000183e4    31d1            bne         LAB_0001844a                            
ram:000183e6    9368            ldr         r3,[r2,#0x8]                            
ram:000183e8    8360            str         r3,[param_1,#0x8]                       
ram:000183ea    d368            ldr         r3,[r2,#0xc]                            
ram:000183ec    c360            str         r3,[param_1,#0xc]                       
ram:000183ee    1369            ldr         r3,[r2,#0x10]                           
ram:000183f0    0361            str         r3,[param_1,#0x10]                      
ram:000183f2    5269            ldr         r2,[r2,#0x14]                           
ram:000183f4    c261            str         r2,[param_1,#0x1c]                      
ram:000183f6    1e4a            ldr         r2,[DAT_00018470]                       ;= 2000209Ch
ram:000183f8    5279            ldrb        r2,[r2,#0x5]=>DAT_200020a1              
ram:000183fa    002a            cmp         r2,#0x0                                 
ram:000183fc    00d0            beq         LAB_00018400                            
ram:000183fe    8760            str         r7,[param_1,#0x8]                       
                            LAB_00018400:                 ;XREF[2,0]:   000183b4,000183fc
ram:00018400    1b4b            ldr         r3,[DAT_00018470]                       ;= 2000209Ch
ram:00018402    8268            ldr         r2,[param_1,#0x8]                       
ram:00018404    5b69            ldr         r3,[r3,#0x14]=>DAT_200020b0             
ram:00018406    9646            mov         lr,r2                                   
ram:00018408    9c46            mov         r12,r3                                  
ram:0001840a    d31a            subs        r3,r2,r3                                
ram:0001840c    1a02            lsls        r2,r3,#0x8                              
ram:0001840e    194b            ldr         r3,[DAT_00018474]                       ;= 007FFFFFh
ram:00018410    120a            lsrs        r2,r2,#0x8                              
ram:00018412    9a42            cmp         r2,r3                                   
ram:00018414    02d2            bcs         LAB_0001841c                            
ram:00018416    c368            ldr         r3,[param_1,#0xc]                       
ram:00018418    d218            adds        r2,r2,r3                                
ram:0001841a    08e0            b           LAB_0001842e                            
                            LAB_0001841c:                 ;XREF[1,0]:   00018414
ram:0001841c    7246            mov         r2,lr                                   
ram:0001841e    6346            mov         r3,r12                                  
ram:00018420    9a1a            subs        r2,r3,r2                                
ram:00018422    1202            lsls        r2,r2,#0x8                              
ram:00018424    c368            ldr         r3,[param_1,#0xc]                       
ram:00018426    120a            lsrs        r2,r2,#0x8                              
ram:00018428    9342            cmp         r3,r2                                   
ram:0001842a    02d9            bls         LAB_00018432                            
ram:0001842c    9a1a            subs        r2,r3,r2                                
                            LAB_0001842e:                 ;XREF[1,0]:   0001841a
ram:0001842e    4260            str         r2,[param_1,#0x4]                       
ram:00018430    00e0            b           LAB_00018434                            
                            LAB_00018432:                 ;XREF[1,0]:   0001842a
ram:00018432    4760            str         r7,[param_1,#0x4]                       
                            LAB_00018434:                 ;XREF[1,0]:   00018430
ram:00018434    8760            str         r7,[param_1,#0x8]                       
ram:00018436    0122            movs        r2,#0x1                                 
ram:00018438    c760            str         r7,[param_1,#0xc]                       
ram:0001843a    0275            strb        r2,[param_1,#0x14]                      
ram:0001843c    921e            subs        r2,r2,#0x2                              
ram:0001843e    0262            str         r2,[param_1,#0x20]                      
ram:00018440    0846            mov         param_1,r1                              
ram:00018442    00f049fe        bl          FUN_000190d8                            ;undefined FUN_000190d8(int param_1)
                            LAB_00018446:                 ;XREF[1,0]:   000183a0
ram:00018446    601c            adds        param_1,r4,#0x1                         
ram:00018448    abd1            bne         LAB_000183a2                            
                            LAB_0001844a:                 ;XREF[2,0]:   000183de,000183e4
ram:0001844a    2878            ldrb        param_1,[r5,#0x0]                       
ram:0001844c    6978            ldrb        r1,[r5,#0x1]                            
ram:0001844e    8842            cmp         param_1,r1                              
ram:00018450    a7d1            bne         LAB_000183a2                            
                            LAB_00018452:                 ;XREF[1,0]:   00018396
ram:00018452    3046            mov         param_1,r6                              
ram:00018454    761e            subs        r6,r6,#0x1                              
ram:00018456    f6b2            uxtb        r6,r6                                   
ram:00018458    0028            cmp         param_1,#0x0                            
ram:0001845a    9dd1            bne         LAB_00018398                            
ram:0001845c    0448            ldr         param_1,[DAT_00018470]                  ;= 2000209Ch
ram:0001845e    0169            ldr         r1,[param_1,#0x10]=>DAT_200020ac        
ram:00018460    0098            ldr         param_1,[sp,#0x0]=>local_18             
ram:00018462    8142            cmp         r1,param_1                              
ram:00018464    01d0            beq         LAB_0001846a                            
ram:00018466    0120            movs        param_1,#0x1                            
ram:00018468    f8bd            pop         {r3,r4,r5,r6,r7,pc}                     
                            LAB_0001846a:                 ;XREF[1,0]:   00018464
ram:0001846a    0020            movs        param_1,#0x0                            
ram:0001846c    f8bd            pop         {r3,r4,r5,r6,r7,pc}                     
ram:0001846e    0000            movs        r0,r0                                   
                            DAT_00018470:                 ;XREF[7,0]:   0001838c,00018398,000183a6,000183ce
                                                          ;             000183f6,00018400,0001845c
ram:00018470    9c200020        undefined4  2000209Ch                               
                            DAT_00018474:                 ;XREF[1,0]:   0001840e
ram:00018474    ffff7f00        undefined4  007FFFFFh                               
                            ;************************************************************************************************
                            ;*                                           FUNCTION                                           *
                            ;************************************************************************************************
                            ;undefined FUN_00018478(void)
          ;local_a       undefined2          -a                      ;XREF[1,0]:   000184f0
          ;local_c       undefined2          -c                      ;XREF[1,0]:   000184ee
          ;local_10      undefined4         -10                      ;XREF[3,0]:   00018490,000184da,000184e8
                                                          ;XREF[1,0]:   000160ca
ram:00018478    1cb5            push        {r2,r3,r4,lr}                           
ram:0001847a    2c4a            ldr         r2,[DAT_0001852c]                       ;= 200021A0h
ram:0001847c    0a21            movs        r1,#0xa                                 
ram:0001847e    0820            movs        r0,#0x8                                 
ram:00018480    fef708fc        bl          FUN_00016c94                            ;undefined4 FUN_00016c94(undefined2 p...
ram:00018484    0028            cmp         r0,#0x0                                 
ram:00018486    4cd1            bne         LAB_00018522                            
ram:00018488    284b            ldr         r3,[DAT_0001852c]                       ;= 200021A0h
ram:0001848a    0422            movs        r2,#0x4                                 
ram:0001848c    b033            adds        r3,#0xb0                                
ram:0001848e    0321            movs        r1,#0x3                                 
ram:00018490    0090            str         r0,[sp,#0x0]=>local_10                  
ram:00018492    fef73bfc        bl          FUN_00016d0c                            ;undefined4 FUN_00016d0c(undefined4 p...
ram:00018496    0028            cmp         r0,#0x0                                 
ram:00018498    43d1            bne         LAB_00018522                            
ram:0001849a    2549            ldr         r1,[DAT_00018530]                       ;= 20002448h
ram:0001849c    0220            movs        r0,#0x2                                 
ram:0001849e    fef779fa        bl          FUN_00016994                            ;undefined4 FUN_00016994(int param_1,...
ram:000184a2    0028            cmp         r0,#0x0                                 
ram:000184a4    3dd1            bne         LAB_00018522                            
ram:000184a6    234b            ldr         r3=>FUN_0001685c+1,[PTR_FUN_0001685c+...;= 0001685d
ram:000184a8    234a            ldr         r2,[DAT_00018538]                       ;= 00000666h
ram:000184aa    0221            movs        r1,#0x2                                 
ram:000184ac    2348            ldr         r0,[DAT_0001853c]                       ;= 2000201Ch
ram:000184ae    fef7e1f9        bl          FUN_00016874                            ;int FUN_00016874(int param_1, uint p...
ram:000184b2    0028            cmp         r0,#0x0                                 
ram:000184b4    35d1            bne         LAB_00018522                            
ram:000184b6    fef7b5f9        bl          FUN_00016824                            ;undefined4 FUN_00016824(void)
ram:000184ba    0028            cmp         r0,#0x0                                 
ram:000184bc    31d1            bne         LAB_00018522                            
ram:000184be    fff7e9fe        bl          FUN_00018294                            ;undefined FUN_00018294(void)
ram:000184c2    fff7bff9        bl          FUN_00017844                            ;undefined FUN_00017844(void)
ram:000184c6    00f073fa        bl          FUN_000189b0                            ;undefined FUN_000189b0(void)
ram:000184ca    0028            cmp         r0,#0x0                                 
ram:000184cc    29d1            bne         LAB_00018522                            
ram:000184ce    6946            mov         r1,sp                                   
ram:000184d0    fef708fa        bl          FUN_000168e4                            ;int FUN_000168e4(uint param_1, undef...
ram:000184d4    0028            cmp         r0,#0x0                                 
ram:000184d6    24d1            bne         LAB_00018522                            
ram:000184d8    6946            mov         r1,sp                                   
ram:000184da    0978            ldrb        r1=>local_10,[r1,#0x0]                  
ram:000184dc    174c            ldr         r4,[DAT_0001853c]                       ;= 2000201Ch
ram:000184de    0120            movs        r0,#0x1                                 
ram:000184e0    4140            eors        r1,r0                                   
ram:000184e2    1c3c            subs        r4,#0x1c                                
ram:000184e4    a170            strb        r1,[r4,#offset DAT_20002002 &0xff]      
ram:000184e6    1649            ldr         r1,[DAT_00018540]                       ;= 00018A49h
ram:000184e8    0091            str         r1=>LAB_00018a48+1+1,[sp,#0x0]=>local_10
ram:000184ea    2022            movs        r2,#0x20                                
ram:000184ec    6946            mov         r1,sp                                   
ram:000184ee    8a80            strh        r2,[r1,#local_c+0x10]                   
ram:000184f0    c880            strh        r0,[r1,#local_a+0x10]                   
ram:000184f2    2146            mov         r1,r4                                   
ram:000184f4    1431            adds        r1,#0x14                                
ram:000184f6    6846            mov         r0,sp                                   
ram:000184f8    00f0aefa        bl          FUN_00018a58                            ;undefined4 FUN_00018a58(int * param_...
ram:000184fc    0028            cmp         r0,#0x0                                 
ram:000184fe    10d1            bne         LAB_00018522                            
ram:00018500    2046            mov         r0,r4                                   
ram:00018502    1430            adds        r0,#0x14                                
ram:00018504    4068            ldr         r0,[r0,#0x4]=>DAT_20002018              
ram:00018506    a060            str         r0,[r4,#offset DAT_20002008 &0xff]      
ram:00018508    0078            ldrb        r0,[r0,#0x0]                            
ram:0001850a    4228            cmp         r0,#0x42                                
ram:0001850c    01d0            beq         LAB_00018512                            
ram:0001850e    fef78ffe        bl          FUN_00017230                            ;undefined FUN_00017230(void)
                            LAB_00018512:                 ;XREF[1,0]:   0001850c
ram:00018512    a078            ldrb        r0,[r4,#offset DAT_20002002 &0xff]      
ram:00018514    fef752ff        bl          FUN_000173bc                            ;undefined FUN_000173bc(undefined4 pa...
                            LAB_00018518:                 ;XREF[1,0]:   00018520
ram:00018518    fef7acfb        bl          FUN_00016c74                            ;undefined FUN_00016c74(undefined4 pa...
ram:0001851c    40df            svc         0x40                                    
ram:0001851e    0028            cmp         r0,#0x0                                 
ram:00018520    fad0            beq         LAB_00018518                            
                            LAB_00018522:                 ;XREF[8,0]:   00018486,00018498,000184a4,000184b4
                                                          ;             000184bc,000184cc,000184d6,000184fe
ram:00018522    0022            movs        r2,#0x0                                 
ram:00018524    1146            mov         r1,r2                                   
ram:00018526    fef70bfa        bl          FUN_00016940                            ;undefined FUN_00016940(void)
ram:0001852a    00              ??          00h                                     
ram:0001852b    00              ??          00h                                     
                            DAT_0001852c:                 ;XREF[2,0]:   0001847a,00018488
ram:0001852c    a0210020        undefined4  200021A0h                               
                            DAT_00018530:                 ;XREF[1,0]:   0001849a
ram:00018530    48240020        undefined4  20002448h                               
                            PTR_FUN_0001685c+1_00018534:  ;XREF[1,0]:   000184a6
ram:00018534    5d680100        addr        FUN_0001685c+1                          
                            DAT_00018538:                 ;XREF[1,0]:   000184a8
ram:00018538    66060000        undefined4  00000666h                               
                            DAT_0001853c:                 ;XREF[2,0]:   000184ac,000184dc
ram:0001853c    1c200020        undefined4  2000201Ch                               
                            DAT_00018540:                 ;XREF[1,0]:   000184e6
ram:00018540    498a0100        undefined4  00018A49h                               ;?  ->  00018a49
                            ;************************************************************************************************
                            ;*                                           FUNCTION                                           *
                            ;************************************************************************************************
                            ;undefined4 FUN_00018544(ushort * param_1, int param_2, byte * param_3)
          ;param_1       ushort *            r0                      
          ;param_2       int                 r1                      
          ;param_3       byte *              r2                      
                                                          ;XREF[1,0]:   00016710
ram:00018544    70b5            push        {r4,r5,r6,lr}                           
ram:00018546    0546            mov         r5,param_1                              
ram:00018548    0079            ldrb        param_1,[param_1,#DAT_00000004]         
ram:0001854a    0e46            mov         r6,param_2                              
ram:0001854c    801c            adds        param_1,param_1,#0x2                    
ram:0001854e    1446            mov         r4,param_3                              
ram:00018550    c0b2            uxtb        param_1,param_1                         
ram:00018552    1178            ldrb        param_2,[param_3,#0x0]                  
ram:00018554    821c            adds        param_3,param_1,#0x2                    
ram:00018556    8a18            adds        param_3,param_2,param_3                 
ram:00018558    1f2a            cmp         param_3,#0x1f                           
ram:0001855a    01d9            bls         LAB_00018560                            
ram:0001855c    0c20            movs        param_1,#0xc                            
ram:0001855e    70bd            pop         {r4,r5,r6,pc}                           
                            LAB_00018560:                 ;XREF[1,0]:   0001855a
ram:00018560    0a46            mov         param_3,param_2                         
ram:00018562    491c            adds        param_2,param_2,#0x1                    
ram:00018564    2170            strb        param_2,[r4,#0x0]                       
ram:00018566    401c            adds        param_1,param_1,#0x1                    
ram:00018568    b054            strb        param_1,[r6,param_3]                    
ram:0001856a    2078            ldrb        param_1,[r4,#0x0]                       
ram:0001856c    ff22            movs        param_3,#0xff                           
ram:0001856e    411c            adds        param_2,param_1,#0x1                    
ram:00018570    2170            strb        param_2,[r4,#0x0]                       
ram:00018572    3254            strb        param_3,[r6,param_1]                    
ram:00018574    2078            ldrb        param_1,[r4,#0x0]                       
ram:00018576    8119            adds        param_2,param_1,r6                      
ram:00018578    2888            ldrh        param_1,[r5,#0x0]                       
ram:0001857a    00f057fe        bl          FUN_0001922c                            ;undefined4 FUN_0001922c(undefined4 p...
ram:0001857e    2178            ldrb        param_2,[r4,#0x0]                       
ram:00018580    4018            adds        param_1,param_1,param_2                 
ram:00018582    c0b2            uxtb        param_1,param_1                         
ram:00018584    2070            strb        param_1,[r4,#0x0]                       
ram:00018586    aa88            ldrh        param_3,[r5,#DAT_00000004]              
ram:00018588    002a            cmp         param_3,#0x0                            
ram:0001858a    09d0            beq         LAB_000185a0                            
ram:0001858c    a968            ldr         param_2,[r5,#DAT_00000008]              
ram:0001858e    0029            cmp         param_2,#0x0                            
ram:00018590    08d0            beq         LAB_000185a4                            
ram:00018592    8019            adds        param_1,param_1,r6                      
ram:00018594    fdf732fe        bl          FUN_000161fc                            ;undefined FUN_000161fc(undefined4 * ...
ram:00018598    2078            ldrb        param_1,[r4,#0x0]                       
ram:0001859a    2979            ldrb        param_2,[r5,#DAT_00000004]              
ram:0001859c    4018            adds        param_1,param_1,param_2                 
ram:0001859e    2070            strb        param_1,[r4,#0x0]                       
                            LAB_000185a0:                 ;XREF[1,0]:   0001858a
ram:000185a0    0020            movs        param_1,#0x0                            
ram:000185a2    70bd            pop         {r4,r5,r6,pc}                           
                            LAB_000185a4:                 ;XREF[1,0]:   00018590
ram:000185a4    0720            movs        param_1,#0x7                            
ram:000185a6    70bd            pop         {r4,r5,r6,pc}                           
                            ;************************************************************************************************
                            ;*                                           FUNCTION                                           *
                            ;************************************************************************************************
                            ;int FUN_000185a8(char * param_1, int param_2, byte * param_3)
          ;param_1       char *              r0                      
          ;param_2       int                 r1                      
          ;param_3       byte *              r2                      
          ;local_18      undefined2         -18                      ;XREF[3,0]:   000185ce,000185e2,000185fa
                                                          ;XREF[1,0]:   000165de
ram:000185a8    f8b5            push        {r3,r4,r5,r6,r7,lr}                     
ram:000185aa    1478            ldrb        r4,[param_3,#0x0]                       
ram:000185ac    0746            mov         r7,param_1                              
ram:000185ae    a01c            adds        param_1,r4,#0x2                         
ram:000185b0    1546            mov         r5,param_3                              
ram:000185b2    0e46            mov         r6,param_2                              
ram:000185b4    1f28            cmp         param_1,#0x1f                           
ram:000185b6    03d8            bhi         LAB_000185c0                            
ram:000185b8    7878            ldrb        param_1,[r7,#0x1]                       
ram:000185ba    801c            adds        param_1,param_1,#0x2                    
ram:000185bc    1f28            cmp         param_1,#0x1f                           
ram:000185be    01d9            bls         LAB_000185c4                            
                            LAB_000185c0:                 ;XREF[1,0]:   000185b6
ram:000185c0    0c20            movs        param_1,#0xc                            
                            LAB_000185c2:                 ;XREF[1,0]:   000185d8
ram:000185c2    f8bd            pop         {r3,r4,r5,r6,r7,pc}                     
                            LAB_000185c4:                 ;XREF[1,0]:   000185be
ram:000185c4    1d20            movs        param_1,#0x1d                           
ram:000185c6    001b            subs        param_1,param_1,r4                      
ram:000185c8    80b2            uxth        param_1,param_1                         
ram:000185ca    6946            mov         param_2,sp                              
ram:000185cc    8646            mov         lr,param_1                              
ram:000185ce    0880            strh        param_1,[param_2,#0x0]=>local_18        
ram:000185d0    3019            adds        param_1,r6,r4                           
ram:000185d2    801c            adds        param_1,param_1,#0x2                    
ram:000185d4    7ddf            svc         0x7d                                    
ram:000185d6    0028            cmp         param_1,#0x0                            
ram:000185d8    f3d1            bne         LAB_000185c2                            
ram:000185da    3878            ldrb        param_1,[r7,#0x0]                       
ram:000185dc    0228            cmp         param_1,#0x2                            
ram:000185de    05d1            bne         LAB_000185ec                            
ram:000185e0    6846            mov         param_1,sp                              
ram:000185e2    0088            ldrh        param_1=>local_18,[param_1,#0x0]        
ram:000185e4    7045            cmp         param_1,lr                              
ram:000185e6    01d8            bhi         LAB_000185ec                            
ram:000185e8    0921            movs        param_2,#0x9                            
ram:000185ea    07e0            b           LAB_000185fc                            
                            LAB_000185ec:                 ;XREF[2,0]:   000185de,000185e6
ram:000185ec    7878            ldrb        param_1,[r7,#0x1]                       
ram:000185ee    0821            movs        param_2,#0x8                            
ram:000185f0    0028            cmp         param_1,#0x0                            
ram:000185f2    01d0            beq         LAB_000185f8                            
ram:000185f4    7045            cmp         param_1,lr                              
ram:000185f6    01d9            bls         LAB_000185fc                            
                            LAB_000185f8:                 ;XREF[1,0]:   000185f2
ram:000185f8    6846            mov         param_1,sp                              
ram:000185fa    0088            ldrh        param_1=>local_18,[param_1,#0x0]        
                            LAB_000185fc:                 ;XREF[2,0]:   000185ea,000185f6
ram:000185fc    421c            adds        param_3,param_1,#0x1                    
ram:000185fe    3255            strb        param_3,[r6,r4]                         
ram:00018600    641c            adds        r4,r4,#0x1                              
ram:00018602    e2b2            uxtb        param_3,r4                              
ram:00018604    b154            strb        param_2,[r6,param_3]                    
ram:00018606    2978            ldrb        param_2,[r5,#0x0]                       
ram:00018608    801c            adds        param_1,param_1,#0x2                    
ram:0001860a    0818            adds        param_1,param_2,param_1                 
ram:0001860c    2870            strb        param_1,[r5,#0x0]                       
ram:0001860e    0020            movs        param_1,#0x0                            
ram:00018610    f8bd            pop         {r3,r4,r5,r6,r7,pc}                     
ram:00018612    0000            movs        r0,r0                                   
                            ;************************************************************************************************
                            ;*                                           FUNCTION                                           *
                            ;************************************************************************************************
                            ;undefined FUN_00018614(ushort * param_1)
          ;param_1       ushort *            r0                      
                                                          ;XREF[1,0]:   00017838
ram:00018614    10b5            push        {r4,lr}                                 
ram:00018616    2249            ldr         r1,[DAT_000186a0]                       ;= 20002000h
ram:00018618    0288            ldrh        r2,[param_1,#0x0]                       
ram:0001861a    8b88            ldrh        r3,[r1,#offset DAT_20002004 &0xff]      
ram:0001861c    142a            cmp         r2,#0x14                                
ram:0001861e    24d0            beq         LAB_0001866a                            
ram:00018620    0bdc            bgt         LAB_0001863a                            
ram:00018622    102a            cmp         r2,#0x10                                
ram:00018624    14d0            beq         LAB_00018650                            
ram:00018626    112a            cmp         r2,#0x11                                
ram:00018628    15d0            beq         LAB_00018656                            
ram:0001862a    132a            cmp         r2,#0x13                                
ram:0001862c    12d1            bne         LAB_00018654                            
ram:0001862e    0a46            mov         r2,r1                                   
ram:00018630    0c32            adds        r2,#0xc                                 
ram:00018632    0021            movs        r1,#0x0                                 
ram:00018634    1846            mov         param_1,r3                              
ram:00018636    7fdf            svc         0x7f                                    
ram:00018638    25e0            b           LAB_00018686                            
                            LAB_0001863a:                 ;XREF[1,0]:   00018620
ram:0001863a    172a            cmp         r2,#0x17                                
ram:0001863c    0fd0            beq         LAB_0001865e                            
ram:0001863e    192a            cmp         r2,#0x19                                
ram:00018640    27d0            beq         LAB_00018692                            
ram:00018642    522a            cmp         r2,#0x52                                
ram:00018644    06d1            bne         LAB_00018654                            
ram:00018646    0022            movs        r2,#0x0                                 
ram:00018648    1146            mov         r1,r2                                   
ram:0001864a    1846            mov         param_1,r3                              
ram:0001864c    a9df            svc         0xa9                                    
ram:0001864e    1ae0            b           LAB_00018686                            
                            LAB_00018650:                 ;XREF[1,0]:   00018624
ram:00018650    8088            ldrh        param_1,[param_1,#0x4]                  
ram:00018652    8880            strh        param_1,[r1,#offset DAT_20002004 &0xff] 
                            LAB_00018654:                 ;XREF[2,0]:   0001862c,00018644
ram:00018654    10bd            pop         {r4,pc}                                 
                            LAB_00018656:                 ;XREF[1,0]:   00018628
ram:00018656    0020            movs        param_1,#0x0                            
ram:00018658    c043            mvns        param_1,param_1                         
ram:0001865a    8880            strh        param_1,[r1,#offset DAT_20002004 &0xff] 
ram:0001865c    1ce0            b           LAB_00018698                            
                            LAB_0001865e:                 ;XREF[1,0]:   0001863c
ram:0001865e    811d            adds        r1,param_1,#0x6                         
ram:00018660    3222            movs        r2,#0x32                                
ram:00018662    1048            ldr         param_1,[DAT_000186a4]                  ;= 200020FCh
ram:00018664    fdf7cafd        bl          FUN_000161fc                            ;undefined FUN_000161fc(undefined4 * ...
                            LAB_00018668:                 ;XREF[2,0]:   00018688,00018696
ram:00018668    10bd            pop         {r4,pc}                                 
                            LAB_0001866a:                 ;XREF[1,0]:   0001861e
ram:0001866a    0e49            ldr         r1,[DAT_000186a4]                       ;= 200020FCh
ram:0001866c    c089            ldrh        param_1,[param_1,#0xe]                  
ram:0001866e    ca88            ldrh        r2,[r1,#0x6]=>DAT_20002102              
ram:00018670    891d            adds        r1,r1,#0x6                              
ram:00018672    8242            cmp         r2,param_1                              
ram:00018674    03d1            bne         LAB_0001867e                            
ram:00018676    0022            movs        r2,#0x0                                 
ram:00018678    1846            mov         param_1,r3                              
ram:0001867a    81df            svc         0x81                                    
ram:0001867c    03e0            b           LAB_00018686                            
                            LAB_0001867e:                 ;XREF[1,0]:   00018674
ram:0001867e    0022            movs        r2,#0x0                                 
ram:00018680    1146            mov         r1,r2                                   
ram:00018682    1846            mov         param_1,r3                              
ram:00018684    81df            svc         0x81                                    
                            LAB_00018686:                 ;XREF[3,0]:   00018638,0001864e,0001867c
ram:00018686    0028            cmp         param_1,#0x0                            
ram:00018688    eed0            beq         LAB_00018668                            
ram:0001868a    0022            movs        r2,#0x0                                 
ram:0001868c    1146            mov         r1,r2                                   
ram:0001868e    fef757f9        bl          FUN_00016940                            ;undefined FUN_00016940(void)
                            LAB_00018692:                 ;XREF[1,0]:   00018640
ram:00018692    8079            ldrb        param_1,[param_1,#0x6]                  
ram:00018694    0028            cmp         param_1,#0x0                            
ram:00018696    e7d1            bne         LAB_00018668                            
                            LAB_00018698:                 ;XREF[1,0]:   0001865c
ram:00018698    fef716fe        bl          FUN_000172c8                            ;undefined FUN_000172c8(void)
ram:0001869c    10bd            pop         {r4,pc}                                 
ram:0001869e    0000            movs        r0,r0                                   
                            DAT_000186a0:                 ;XREF[1,0]:   00018616
ram:000186a0    00200020        undefined4  20002000h                               
                            DAT_000186a4:                 ;XREF[2,0]:   00018662,0001866a
ram:000186a4    fc200020        undefined4  200020FCh                               
                            ;************************************************************************************************
                            ;*                                           FUNCTION                                           *
                            ;************************************************************************************************
                            ;undefined LAB_000186a8+1(char * param_1)
          ;param_1       char *              r0                      
                                                          ;XREF[0,2]:   00017374,000173b4
ram:000186a8    10b5            push        {r4,lr}                                 
ram:000186aa    0078            ldrb        param_1,[param_1,#0x0]                  
ram:000186ac    0028            cmp         param_1,#0x0                            
ram:000186ae    09d1            bne         LAB_000186c4                            
ram:000186b0    0548            ldr         param_1,[DAT_000186c8]                  ;= 20002000h
ram:000186b2    3b21            movs        r1,#0x3b                                
ram:000186b4    8088            ldrh        param_1,[param_1,#offset DAT_20002004...
ram:000186b6    76df            svc         0x76                                    
ram:000186b8    0028            cmp         param_1,#0x0                            
ram:000186ba    03d0            beq         LAB_000186c4                            
ram:000186bc    0022            movs        r2,#0x0                                 
ram:000186be    1146            mov         r1,r2                                   
ram:000186c0    fef73ef9        bl          FUN_00016940                            ;undefined FUN_00016940(void)
                            LAB_000186c4:                 ;XREF[2,0]:   000186ae,000186ba
ram:000186c4    10bd            pop         {r4,pc}                                 
ram:000186c6    0000            movs        r0,r0                                   
                            DAT_000186c8:                 ;XREF[1,0]:   000186b0
ram:000186c8    00200020        undefined4  20002000h                               
                            ;************************************************************************************************
                            ;*                                           FUNCTION                                           *
                            ;************************************************************************************************
                            ;undefined8 FUN_000186cc(ushort * param_1, int param_2)
          ;param_1       ushort *            r0                      
          ;param_2       int                 r1                      
          ;local_18      undefined2         -18                      ;XREF[1,0]:   000186f8
          ;local_1c      undefined2         -1c                      ;XREF[1,0]:   000186da
          ;local_34      undefined2         -34                      ;XREF[2,0]:   00018702,0001872e
          ;local_38      undefined1         -38                      ;XREF[1,0]:   000186d6
                                                          ;XREF[1,0]:   00017780
ram:000186cc    f0b5            push        {r4,r5,r6,r7,lr}                        
ram:000186ce    89b0            sub         sp,#0x24                                
ram:000186d0    0446            mov         r4,param_1                              
ram:000186d2    0227            movs        r7,#0x2                                 
ram:000186d4    6846            mov         param_1,sp                              
ram:000186d6    0770            strb        r7,[param_1,#0x0]=>local_38             
ram:000186d8    0d46            mov         r5,param_2                              
ram:000186da    8783            strh        r7,[r0,#local_1c+0x38]                  
ram:000186dc    a08a            ldrh        param_1,[r4,#0x14]                      
ram:000186de    08ab            add         r3,sp,#0x20                             
ram:000186e0    07aa            add         r2,sp,#0x1c                             
ram:000186e2    0021            movs        param_2,#0x0                            
ram:000186e4    a5df            svc         0xa5                                    
ram:000186e6    0026            movs        r6,#0x0                                 
ram:000186e8    0028            cmp         param_1,#0x0                            
ram:000186ea    04d0            beq         LAB_000186f6                            
ram:000186ec    e16a            ldr         param_2,[r4,#0x2c]                      
ram:000186ee    0029            cmp         param_2,#0x0                            
ram:000186f0    1ad0            beq         LAB_00018728                            
ram:000186f2    8847            blx         param_2                                 
ram:000186f4    18e0            b           LAB_00018728                            
                            LAB_000186f6:                 ;XREF[1,0]:   000186ea
ram:000186f6    6846            mov         param_1,sp                              
ram:000186f8    008c            ldrh        param_1,[r0,#local_18+0x38]             
ram:000186fa    c007            lsls        param_1,param_1,#0x1f                   
ram:000186fc    c00f            lsrs        param_1,param_1,#0x1f                   
ram:000186fe    13d0            beq         LAB_00018728                            
ram:00018700    6846            mov         param_1,sp                              
ram:00018702    8680            strh        r6,[r0,#local_34+0x38]                  
ram:00018704    2088            ldrh        param_1,[r4,#0x0]                       
ram:00018706    6946            mov         param_2,sp                              
ram:00018708    a8df            svc         0xa8                                    
ram:0001870a    0028            cmp         param_1,#0x0                            
ram:0001870c    12d1            bne         LAB_00018734                            
ram:0001870e    a97e            ldrb        param_2,[r5,#0x1a]                      
ram:00018710    2846            mov         param_1,r5                              
ram:00018712    1b30            adds        param_1,#0x1b                           
ram:00018714    0122            movs        r2,#0x1                                 
ram:00018716    0b00            movs        r3,param_2                              
                                                          ; FWD[2,0]:   00016500,0001871c
ram:00018718    fdf7f2fe        bl          __ARM_common_switch8                    ;undefined __ARM_common_switch8(void)
                                                                                    ;= 09h
                            DAT_0001871c:                 ;XREF[1,0]:   00018718
ram:0001871c    09              undefined1  09h                                     
ram:0001871d    43              ??          43h    C                                
ram:0001871e    0e              ??          0Eh                                     
ram:0001871f    1c              ??          1Ch                                     
ram:00018720    22              ??          22h    "                                
ram:00018721    25              ??          25h    %                                
ram:00018722    27              ??          27h    '                                
ram:00018723    2a              ??          2Ah    *                                
ram:00018724    41              ??          41h    A                                
ram:00018725    2c              ??          2Ch    ,                                
ram:00018726    43              ??          43h    C                                
ram:00018727    00              ??          00h                                     
                            LAB_00018728:                 ;XREF[3,0]:   000186f0,000186f4,000186fe
ram:00018728    ff20            movs        param_1,#0xff                           
ram:0001872a    fe30            adds        param_1,#0xfe                           
ram:0001872c    6946            mov         param_2,sp                              
ram:0001872e    8880            strh        param_1,[r1,#local_34+0x38]             
ram:00018730    2088            ldrh        param_1,[r4,#0x0]                       
ram:00018732    a8df            svc         0xa8                                    
                            LAB_00018734:                 ;XREF[3,0]:   0001870c,00018752,00018784
ram:00018734    09b0            add         sp,#0x24                                
ram:00018736    f0bd            pop         {r4,r5,r6,r7,pc}                        
ram:00018738    6b46            mov         r3,sp                                   
ram:0001873a    1e74            strb        r6,[r3,#0x10]                           
ram:0001873c    0ce0            b           FUN_00018758                            
                            ;************************************************************************************************
                            ;*                                           FUNCTION                                           *
                            ;************************************************************************************************
                            ;undefined8 FUN_0001873e(undefined4 param_1, undefined * param_2)
          ;param_1       undefined4          r0                      
          ;param_2       undefined *         r1                      
                                                          ;XREF[1,0]:   0001875e
ram:0001873e    0622            movs        r2,#0x6                                 
ram:00018740    1de0            b           LAB_0001877e                            
                            ;************************************************************************************************
                            ;*                                           FUNCTION                                           *
                            ;************************************************************************************************
                            ;undefined4 FUN_00018742(undefined4 param_1, undefined4 param_2, undefined param_3, undefined param_4, undefined param_5, undefined param_6, undefined param_7, undefined param_8, undefined param_9, undefined1 param_10, undefined4 param_11)
          ;param_1       undefined4          r0                      
          ;param_2       undefined4          r1                      
          ;param_3       undefined           r2                      
          ;param_4       undefined           r3                      
          ;param_5       undefined            0                      
          ;param_6       undefined            4                      
          ;param_7       undefined            8                      
          ;param_8       undefined            c                      
          ;param_9       undefined           10                      
          ;param_10      undefined1          14                      ;XREF[1,0]:   00018744
          ;param_11      undefined4          18                      ;XREF[1,0]:   00018746
                                                          ;XREF[1,0]:   0001875c
ram:00018742    6946            mov         param_2,sp                              
ram:00018744    0a75            strb        param_3,[r1,#param_10]                  
ram:00018746    0690            str         param_1,[sp,#param_11]                  
                            LAB_00018748:                 ;XREF[2,0]:   00018764,00018798
ram:00018748    a26a            ldr         param_3,[r4,#0x28]                      
ram:0001874a    04a9            add         param_2,sp,#0x10                        
ram:0001874c    2046            mov         param_1,r4                              
ram:0001874e    9047            blx         param_3                                 
ram:00018750    0020            movs        param_1,#0x0                            
ram:00018752    efe7            b           LAB_00018734                            
ram:00018754    6b46            mov         r3,sp                                   
ram:00018756    1a74            strb        r2,[r3,#0x10]                           
                            ;************************************************************************************************
                            ;*                                           FUNCTION                                           *
                            ;************************************************************************************************
                            ;longlong FUN_00018758(undefined4 param_1, undefined * param_2)
          ;param_1       undefined4          r0                      
          ;param_2       undefined *         r1                      
                                                          ;XREF[1,0]:   0001873c
ram:00018758    2b8b            ldrh        r3,[r5,#0x18]                           
ram:0001875a    022b            cmp         r3,#0x2                                 
ram:0001875c    f1d2            bcs         FUN_00018742                            
ram:0001875e    eee7            b           FUN_0001873e                            ;undefined8 FUN_0001873e(undefined4 p...
ram:00018760    6846            mov         r0,sp                                   
ram:00018762    0774            strb        r7,[r0,#0x10]                           
ram:00018764    f0e7            b           LAB_00018748                            
ram:00018766    0320            movs        r0,#0x3                                 
ram:00018768    00e0            b           LAB_0001876c                            
ram:0001876a    0420            movs        r0,#0x4                                 
                            LAB_0001876c:                 ;XREF[3,0]:   00018768,00018772,000187a0
ram:0001876c    6946            mov         r1,sp                                   
ram:0001876e    12e0            b           FUN_00018796                            
ram:00018770    0520            movs        r0,#0x5                                 
ram:00018772    fbe7            b           LAB_0001876c                            
ram:00018774    298b            ldrh        r1,[r5,#0x18]                           
ram:00018776    0329            cmp         r1,#0x3                                 
ram:00018778    05d2            bcs         LAB_00018786                            
ram:0001877a    0322            movs        r2,#0x3                                 
ram:0001877c    0821            movs        r1,#0x8                                 
                            LAB_0001877e:                 ;XREF[2,0]:   00018740,000187a4
ram:0001877e    2046            mov         param_1,r4                              
ram:00018780    fff71cf8        bl          FUN_000177bc                            ;undefined8 FUN_000177bc(ushort * par...
ram:00018784    d6e7            b           LAB_00018734                            
                            LAB_00018786:                 ;XREF[1,0]:   00018778
ram:00018786    4178            ldrb        r1,[r0,#0x1]                            
ram:00018788    0278            ldrb        r2,[r0,#0x0]                            
ram:0001878a    0802            lsls        r0,r1,#0x8                              
ram:0001878c    1043            orrs        r0,r2                                   
ram:0001878e    6946            mov         r1,sp                                   
ram:00018790    8882            strh        r0,[r1,#0x14]                           
ram:00018792    02d0            beq         FUN_0001879a                            
ram:00018794    0620            movs        r0,#0x6                                 
                            ;************************************************************************************************
                            ;*                                           FUNCTION                                           *
                            ;************************************************************************************************
                            ;undefined4 FUN_00018796(undefined param_1, int param_2)
          ;param_1       undefined           r0                      
          ;param_2       int                 r1                      
                                                          ;XREF[2,0]:   0001876e,0001879c
ram:00018796    0874            strb        param_1,[param_2,#0x10]                 
ram:00018798    d6e7            b           LAB_00018748                            
                            ;************************************************************************************************
                            ;*                                           FUNCTION                                           *
                            ;************************************************************************************************
                            ;undefined4 FUN_0001879a(undefined4 param_1, int param_2)
          ;param_1       undefined4          r0                      
          ;param_2       int                 r1                      
                                                          ;XREF[1,0]:   00018792
ram:0001879a    0720            movs        param_1,#0x7                            
ram:0001879c    fbe7            b           FUN_00018796                            
ram:0001879e    0920            movs        r0,#0x9                                 
ram:000187a0    e4e7            b           LAB_0001876c                            
ram:000187a2    0322            movs        r2,#0x3                                 
ram:000187a4    ebe7            b           LAB_0001877e                            
ram:000187a6    0000            movs        r0,r0                                   
                            ;************************************************************************************************
                            ;*                                           FUNCTION                                           *
                            ;************************************************************************************************
                            ;undefined FUN_000187a8(uint param_1)
          ;param_1       uint                r0                      
                                                          ;XREF[1,0]:   000164ca
ram:000187a8    10b5            push        {r4,lr}                                 
ram:000187aa    1d4a            ldr         r2,[DAT_00018820]                       ;= 20002540h
ram:000187ac    1d49            ldr         r1,[DAT_00018824]                       ;= 20002048h
ram:000187ae    0300            movs        r3,param_1                              
                                                          ; FWD[2,0]:   00016500,000187b4
ram:000187b0    fdf7a6fe        bl          __ARM_common_switch8                    ;undefined __ARM_common_switch8(void)
                                                                                    ;= 05h
                            DAT_000187b4:                 ;XREF[1,0]:   000187b0
ram:000187b4    05              undefined1  05h                                     
ram:000187b5    04              ??          04h                                     
ram:000187b6    0b              ??          0Bh                                     
ram:000187b7    31              ??          31h    1                                
ram:000187b8    20              ??          20h                                     
ram:000187b9    27              ??          27h    '                                
ram:000187ba    12              ??          12h                                     
ram:000187bb    00              ??          00h                                     
ram:000187bc    48              ??          48h    H                                
ram:000187bd    78              ??          78h    x                                
ram:000187be    01              ??          01h                                     
ram:000187bf    28              ??          28h    (                                
ram:000187c0    1f              ??          1Fh                                     
ram:000187c1    d0              ??          D0h                                     
ram:000187c2    02              ??          02h                                     
ram:000187c3    28              ??          28h    (                                
ram:000187c4    08              ??          08h                                     
ram:000187c5    d1              ??          D1h                                     
ram:000187c6    03              ??          03h                                     
ram:000187c7    20              ??          20h                                     
ram:000187c8    05              ??          05h                                     
ram:000187c9    e0              ??          E0h                                     
ram:000187ca    48              ??          48h    H                                
ram:000187cb    78              ??          78h    x                                
ram:000187cc    00              ??          00h                                     
ram:000187cd    28              ??          28h    (                                
ram:000187ce    04              ??          04h                                     
ram:000187cf    d0              ??          D0h                                     
ram:000187d0    03              ??          03h                                     
ram:000187d1    28              ??          28h    (                                
ram:000187d2    01              ??          01h                                     
ram:000187d3    d1              ??          D1h                                     
ram:000187d4    02              ??          02h                                     
ram:000187d5    20              ??          20h                                     
ram:000187d6    48              ??          48h    H                                
ram:000187d7    70              ??          70h    p                                
ram:000187d8    10              ??          10h                                     
ram:000187d9    bd              ??          BDh                                     
ram:000187da    13              ??          13h                                     
ram:000187db    4b              ??          4Bh    K                                
ram:000187dc    04              ??          04h                                     
ram:000187dd    20              ??          20h                                     
ram:000187de    18              ??          18h                                     
ram:000187df    60              ??          60h    `                                
ram:000187e0    12              ??          12h                                     
ram:000187e1    4b              ??          4Bh    K                                
ram:000187e2    01              ??          01h                                     
ram:000187e3    20              ??          20h                                     
ram:000187e4    18              ??          18h                                     
ram:000187e5    60              ??          60h    `                                
ram:000187e6    d3              ??          D3h                                     
ram:000187e7    68              ??          68h    h                                
ram:000187e8    92              ??          92h                                     
ram:000187e9    68              ??          68h    h                                
ram:000187ea    93              ??          93h                                     
ram:000187eb    42              ??          42h    B                                
ram:000187ec    f3              ??          F3h                                     
ram:000187ed    d0              ??          D0h                                     
ram:000187ee    fd              ??          FDh                                     
ram:000187ef    f7              ??          F7h                                     
ram:000187f0    a3              ??          A3h                                     
ram:000187f1    fe              ??          FEh                                     
ram:000187f2    10              ??          10h                                     
ram:000187f3    bd              ??          BDh                                     
ram:000187f4    48              ??          48h    H                                
ram:000187f5    78              ??          78h    x                                
ram:000187f6    01              ??          01h                                     
ram:000187f7    28              ??          28h    (                                
ram:000187f8    06              ??          06h                                     
ram:000187f9    d0              ??          D0h                                     
ram:000187fa    02              ??          02h                                     
ram:000187fb    28              ??          28h    (                                
ram:000187fc    04              ??          04h                                     
ram:000187fd    d0              ??          D0h                                     
ram:000187fe    03              ??          03h                                     
ram:000187ff    28              ??          28h    (                                
ram:00018800    f7              ??          F7h                                     
ram:00018801    d1              ??          D1h                                     
ram:00018802    fd              ??          FDh                                     
ram:00018803    f7              ??          F7h                                     
ram:00018804    d1              ??          D1h                                     
ram:00018805    fe              ??          FEh                                     
ram:00018806    10              ??          10h                                     
ram:00018807    bd              ??          BDh                                     
ram:00018808    d0              ??          D0h                                     
ram:00018809    68              ??          68h    h                                
ram:0001880a    91              ??          91h                                     
ram:0001880b    68              ??          68h    h                                
ram:0001880c    88              ??          88h                                     
ram:0001880d    42              ??          42h    B                                
ram:0001880e    ee              ??          EEh                                     
ram:0001880f    d1              ??          D1h                                     
ram:00018810    fd              ??          FDh                                     
ram:00018811    f7              ??          F7h                                     
ram:00018812    b8              ??          B8h                                     
ram:00018813    fe              ??          FEh                                     
ram:00018814    10              ??          10h                                     
ram:00018815    bd              ??          BDh                                     
ram:00018816    48              ??          48h    H                                
ram:00018817    78              ??          78h    x                                
ram:00018818    01              ??          01h                                     
ram:00018819    28              ??          28h    (                                
ram:0001881a    e8              ??          E8h                                     
ram:0001881b    d0              ??          D0h                                     
ram:0001881c    10              ??          10h                                     
ram:0001881d    bd              ??          BDh                                     
ram:0001881e    00              ??          00h                                     
ram:0001881f    00              ??          00h                                     
                            DAT_00018820:                 ;XREF[1,0]:   000187aa
ram:00018820    40250020        undefined4  20002540h                               
                            DAT_00018824:                 ;XREF[1,0]:   000187ac
ram:00018824    48200020        undefined4  20002048h                               
ram:00018828    00              ??          00h                                     
ram:00018829    25              ??          25h    %                                
ram:0001882a    00              ??          00h                                     
ram:0001882b    40              ??          40h    @                                
ram:0001882c    00              ??          00h                                     
ram:0001882d    20              ??          20h                                     
ram:0001882e    00              ??          00h                                     
ram:0001882f    40              ??          40h    @                                
                            ;************************************************************************************************
                            ;*                                           FUNCTION                                           *
                            ;************************************************************************************************
                            ;undefined FUN_00018830(int param_1, int param_2)
          ;param_1       int                 r0                      
          ;param_2       int                 r1                      
                                                          ;XREF[1,0]:   000175b0
ram:00018830    70b5            push        {r4,r5,r6,lr}                           
ram:00018832    836b            ldr         r3,[param_1,#0x38]                      
ram:00018834    8c1d            adds        r4,param_2,#0x6                         
ram:00018836    0546            mov         r5,param_1                              
ram:00018838    002b            cmp         r3,#0x0                                 
ram:0001883a    48d0            beq         LAB_000188ce                            
ram:0001883c    2088            ldrh        param_1,[r4,#0x0]                       
ram:0001883e    6a88            ldrh        r2,[r5,#0x2]                            
ram:00018840    2646            mov         r6,r4                                   
ram:00018842    1a36            adds        r6,#0x1a                                
ram:00018844    9042            cmp         param_1,r2                              
ram:00018846    06d1            bne         LAB_00018856                            
ram:00018848    208b            ldrh        param_1,[r4,#0x18]                      
ram:0001884a    0428            cmp         param_1,#0x4                            
ram:0001884c    03d1            bne         LAB_00018856                            
ram:0001884e    3246            mov         r2,r6                                   
ram:00018850    0021            movs        param_2,#0x0                            
ram:00018852    2846            mov         param_1,r5                              
ram:00018854    9847            blx         r3                                      
                            LAB_00018856:                 ;XREF[2,0]:   00018846,0001884c
ram:00018856    2088            ldrh        param_1,[r4,#0x0]                       
ram:00018858    6989            ldrh        param_2,[r5,#0xa]                       
ram:0001885a    8842            cmp         param_1,param_2                         
ram:0001885c    07d1            bne         LAB_0001886e                            
ram:0001885e    208b            ldrh        param_1,[r4,#0x18]                      
ram:00018860    0128            cmp         param_1,#0x1                            
ram:00018862    04d1            bne         LAB_0001886e                            
ram:00018864    ab6b            ldr         r3,[r5,#0x38]                           
ram:00018866    3246            mov         r2,r6                                   
ram:00018868    0121            movs        param_2,#0x1                            
ram:0001886a    2846            mov         param_1,r5                              
ram:0001886c    9847            blx         r3                                      
                            LAB_0001886e:                 ;XREF[2,0]:   0001885c,00018862
ram:0001886e    2088            ldrh        param_1,[r4,#0x0]                       
ram:00018870    698a            ldrh        param_2,[r5,#0x12]                      
ram:00018872    8842            cmp         param_1,param_2                         
ram:00018874    07d1            bne         LAB_00018886                            
ram:00018876    208b            ldrh        param_1,[r4,#0x18]                      
ram:00018878    1028            cmp         param_1,#0x10                           
ram:0001887a    04d1            bne         LAB_00018886                            
ram:0001887c    ab6b            ldr         r3,[r5,#0x38]                           
ram:0001887e    3246            mov         r2,r6                                   
ram:00018880    0221            movs        param_2,#0x2                            
ram:00018882    2846            mov         param_1,r5                              
ram:00018884    9847            blx         r3                                      
                            LAB_00018886:                 ;XREF[2,0]:   00018874,0001887a
ram:00018886    2088            ldrh        param_1,[r4,#0x0]                       
ram:00018888    698b            ldrh        param_2,[r5,#0x1a]                      
ram:0001888a    8842            cmp         param_1,param_2                         
ram:0001888c    07d1            bne         LAB_0001889e                            
ram:0001888e    208b            ldrh        param_1,[r4,#0x18]                      
ram:00018890    0228            cmp         param_1,#0x2                            
ram:00018892    04d1            bne         LAB_0001889e                            
ram:00018894    ab6b            ldr         r3,[r5,#0x38]                           
ram:00018896    3246            mov         r2,r6                                   
ram:00018898    0321            movs        param_2,#0x3                            
ram:0001889a    2846            mov         param_1,r5                              
ram:0001889c    9847            blx         r3                                      
                            LAB_0001889e:                 ;XREF[2,0]:   0001888c,00018892
ram:0001889e    2088            ldrh        param_1,[r4,#0x0]                       
ram:000188a0    698c            ldrh        param_2,[r5,#0x22]                      
ram:000188a2    8842            cmp         param_1,param_2                         
ram:000188a4    07d1            bne         LAB_000188b6                            
ram:000188a6    208b            ldrh        param_1,[r4,#0x18]                      
ram:000188a8    0228            cmp         param_1,#0x2                            
ram:000188aa    04d1            bne         LAB_000188b6                            
ram:000188ac    ab6b            ldr         r3,[r5,#0x38]                           
ram:000188ae    3246            mov         r2,r6                                   
ram:000188b0    0421            movs        param_2,#0x4                            
ram:000188b2    2846            mov         param_1,r5                              
ram:000188b4    9847            blx         r3                                      
                            LAB_000188b6:                 ;XREF[2,0]:   000188a4,000188aa
ram:000188b6    2088            ldrh        param_1,[r4,#0x0]                       
ram:000188b8    698d            ldrh        param_2,[r5,#0x2a]                      
ram:000188ba    8842            cmp         param_1,param_2                         
ram:000188bc    07d1            bne         LAB_000188ce                            
ram:000188be    208b            ldrh        param_1,[r4,#0x18]                      
ram:000188c0    0128            cmp         param_1,#0x1                            
ram:000188c2    04d1            bne         LAB_000188ce                            
ram:000188c4    ab6b            ldr         r3,[r5,#0x38]                           
ram:000188c6    3246            mov         r2,r6                                   
ram:000188c8    0521            movs        param_2,#0x5                            
ram:000188ca    2846            mov         param_1,r5                              
ram:000188cc    9847            blx         r3                                      
                            LAB_000188ce:                 ;XREF[3,0]:   0001883a,000188bc,000188c2
ram:000188ce    70bd            pop         {r4,r5,r6,pc}                           
                            ;************************************************************************************************
                            ;*                                           FUNCTION                                           *
                            ;************************************************************************************************
                            ;undefined FUN_000188d0(int param_1)
          ;param_1       int                 r0                      
                                                          ;XREF[1,0]:   00016afe
ram:000188d0    f0b5            push        {r4,r5,r6,r7,lr}                        
ram:000188d2    0c4a            ldr         r2,[DAT_00018904]                       ;= 20002080h
ram:000188d4    0021            movs        r1,#0x0                                 
ram:000188d6    5368            ldr         r3,[r2,#0x4]=>DAT_20002084              
ram:000188d8    1422            movs        r2,#0x14                                
ram:000188da    5043            muls        param_1,r2                              
ram:000188dc    0124            movs        r4,#0x1                                 
ram:000188de    0a4d            ldr         r5,[DAT_00018908]                       ;= 50000700h
ram:000188e0    0327            movs        r7,#0x3                                 
ram:000188e2    3f04            lsls        r7,r7,#0x10                             
                            LAB_000188e4:                 ;XREF[1,0]:   00018900
ram:000188e4    1e58            ldr         r6,[r3,param_1]                         
ram:000188e6    2246            mov         r2,r4                                   
ram:000188e8    8a40            lsls        r2,r1                                   
ram:000188ea    1642            tst         r6,r2                                   
ram:000188ec    06d0            beq         LAB_000188fc                            
ram:000188ee    8a00            lsls        r2,r1,#0x2                              
ram:000188f0    5219            adds        r2,r2,r5                                
ram:000188f2    1668            ldr         r6,[r2,#0x0]=>DAT_50000700              
ram:000188f4    be43            bics        r6,r7                                   
ram:000188f6    1660            str         r6,[r2,#0x0]=>DAT_50000700              
ram:000188f8    1668            ldr         r6,[r2,#0x0]=>DAT_50000700              
ram:000188fa    1660            str         r6,[r2,#0x0]=>DAT_50000700              
                            LAB_000188fc:                 ;XREF[1,0]:   000188ec
ram:000188fc    491c            adds        r1,r1,#0x1                              
ram:000188fe    2029            cmp         r1,#0x20                                
ram:00018900    f0d3            bcc         LAB_000188e4                            
ram:00018902    f0bd            pop         {r4,r5,r6,r7,pc}                        
                            DAT_00018904:                 ;XREF[1,0]:   000188d2
ram:00018904    80200020        undefined4  20002080h                               
                            DAT_00018908:                 ;XREF[1,0]:   000188de
ram:00018908    00070050        undefined4  50000700h                               
                            ;************************************************************************************************
                            ;*                                           FUNCTION                                           *
                            ;************************************************************************************************
                            ;undefined4 FUN_0001890c(uint * param_1)
          ;param_1       uint *              r0                      
                                                          ;XREF[3,0]:   000172cc,000173c0,000190a0
ram:0001890c    0749            ldr         r1,[DAT_0001892c]                       ;= 20002058h
ram:0001890e    0978            ldrb        r1,[r1,#0x0]=>DAT_20002058              
ram:00018910    0029            cmp         r1,#0x0                                 
ram:00018912    06d0            beq         LAB_00018922                            
ram:00018914    0028            cmp         param_1,#0x0                            
ram:00018916    06d0            beq         LAB_00018926                            
ram:00018918    0549            ldr         r1,[DAT_00018930]                       ;= 20002550h
ram:0001891a    4978            ldrb        r1,[r1,#0x1]=>DAT_20002551              
ram:0001891c    0160            str         r1,[param_1,#0x0]                       
ram:0001891e    0020            movs        param_1,#0x0                            
ram:00018920    7047            bx          lr                                      
                            LAB_00018922:                 ;XREF[1,0]:   00018912
ram:00018922    0820            movs        param_1,#0x8                            
ram:00018924    7047            bx          lr                                      
                            LAB_00018926:                 ;XREF[1,0]:   00018916
ram:00018926    0e20            movs        param_1,#0xe                            
ram:00018928    7047            bx          lr                                      
ram:0001892a    0000            movs        r0,r0                                   
                            DAT_0001892c:                 ;XREF[1,0]:   0001890c
ram:0001892c    58200020        undefined4  20002058h                               
                            DAT_00018930:                 ;XREF[1,0]:   00018918
ram:00018930    50250020        undefined4  20002550h                               
                            ;************************************************************************************************
                            ;*                                           FUNCTION                                           *
                            ;************************************************************************************************
                            ;int FUN_00018934(int * param_1, undefined2 param_2)
          ;param_1       int *               r0                      
          ;param_2       undefined2          r1                      
          ;local_18      undefined4         -18                      ;XREF[1,0]:   0001899e
                                                          ;XREF[1,0]:   0001727e
ram:00018934    f8b5            push        {r3,r4,r5,r6,r7,lr}                     
ram:00018936    0546            mov         r5,param_1                              
ram:00018938    1b48            ldr         param_1,[DAT_000189a8]                  ;= 20002058h
ram:0001893a    0f46            mov         r7,param_2                              
ram:0001893c    0078            ldrb        param_1,[param_1,#0x0]=>DAT_20002058    
ram:0001893e    0028            cmp         param_1,#0x0                            
ram:00018940    05d0            beq         LAB_0001894e                            
ram:00018942    002d            cmp         r5,#0x0                                 
ram:00018944    05d0            beq         LAB_00018952                            
ram:00018946    2868            ldr         param_1,[r5,#0x0]                       
ram:00018948    0028            cmp         param_1,#0x0                            
ram:0001894a    20d1            bne         LAB_0001898e                            
ram:0001894c    03e0            b           LAB_00018956                            
                            LAB_0001894e:                 ;XREF[1,0]:   00018940
ram:0001894e    0820            movs        param_1,#0x8                            
ram:00018950    f8bd            pop         {r3,r4,r5,r6,r7,pc}                     
                            LAB_00018952:                 ;XREF[1,0]:   00018944
ram:00018952    0e20            movs        param_1,#0xe                            
ram:00018954    f8bd            pop         {r3,r4,r5,r6,r7,pc}                     
                            LAB_00018956:                 ;XREF[1,0]:   0001894c
ram:00018956    154c            ldr         r4,[DAT_000189ac]                       ;= 2000261Ch
ram:00018958    0026            movs        r6,#0x0                                 
ram:0001895a    2068            ldr         param_1,[r4,#0x0]=>DAT_2000261c         
ram:0001895c    0028            cmp         param_1,#0x0                            
ram:0001895e    16d0            beq         LAB_0001898e                            
ram:00018960    6089            ldrh        param_1,[r4,#0xa]=>DAT_20002626         
ram:00018962    2189            ldrh        param_2,[r4,#0x8]=>DAT_20002624         
ram:00018964    4843            muls        param_1,param_2                         
ram:00018966    6168            ldr         param_2,[r4,#0x4]=>DAT_20002620         
ram:00018968    4118            adds        param_2,param_1,param_2                 
ram:0001896a    6868            ldr         param_1,[r5,#0x4]                       
ram:0001896c    8142            cmp         param_2,param_1                         
ram:0001896e    0ed9            bls         LAB_0001898e                            
ram:00018970    fff79efb        bl          FUN_000180b0                            ;undefined4 FUN_000180b0(uint param_1)
ram:00018974    0028            cmp         param_1,#0x0                            
ram:00018976    0cd0            beq         LAB_00018992                            
ram:00018978    2968            ldr         param_2,[r5,#0x0]                       
ram:0001897a    6868            ldr         param_1,[r5,#0x4]                       
ram:0001897c    0901            lsls        param_2,param_2,#0x4                    
ram:0001897e    0919            adds        param_2,param_2,r4                      
ram:00018980    4a68            ldr         r2,[param_2,#0x4]=>DAT_20002620         
ram:00018982    0989            ldrh        param_2,[param_2,#0x8]=>DAT_20002624    
ram:00018984    801a            subs        param_1,param_1,r2                      
ram:00018986    fdf7f3fb        bl          FUN_00016170                            ;int FUN_00016170(uint param_1, uint ...
ram:0001898a    0029            cmp         param_2,#0x0                            
ram:0001898c    03d0            beq         LAB_00018996                            
                            LAB_0001898e:                 ;XREF[3,0]:   0001894a,0001895e,0001896e
ram:0001898e    0720            movs        param_1,#0x7                            
ram:00018990    f8bd            pop         {r3,r4,r5,r6,r7,pc}                     
                            LAB_00018992:                 ;XREF[1,0]:   00018976
ram:00018992    1020            movs        param_1,#0x10                           
ram:00018994    f8bd            pop         {r3,r4,r5,r6,r7,pc}                     
                            LAB_00018996:                 ;XREF[1,0]:   0001898c
ram:00018996    3b46            mov         r3,r7                                   
ram:00018998    0022            movs        r2,#0x0                                 
ram:0001899a    2946            mov         param_2,r5                              
ram:0001899c    0420            movs        param_1,#0x4                            
ram:0001899e    0096            str         r6,[sp,#0x0]=>local_18                  
ram:000189a0    fff784f8        bl          FUN_00017aac                            ;int FUN_00017aac(char param_1, undef...
ram:000189a4    f8bd            pop         {r3,r4,r5,r6,r7,pc}                     
ram:000189a6    0000            movs        r0,r0                                   
                            DAT_000189a8:                 ;XREF[1,0]:   00018938
ram:000189a8    58200020        undefined4  20002058h                               
                            DAT_000189ac:                 ;XREF[1,0]:   00018956
ram:000189ac    1c260020        undefined4  2000261Ch                               
                            ;************************************************************************************************
                            ;*                                           FUNCTION                                           *
                            ;************************************************************************************************
                            ;undefined FUN_000189b0(void)
                                                          ;XREF[1,0]:   000184c6
ram:000189b0    f8b5            push        {r3,r4,r5,r6,r7,lr}                     
ram:000189b2    0026            movs        r6,#0x0                                 
ram:000189b4    214c            ldr         r4,[DAT_00018a3c]                       ;= 20002058h
ram:000189b6    2248            ldr         r0,[DAT_00018a40]                       ;= 20002550h
ram:000189b8    a680            strh        r6,[r4,#0x4]=>DAT_2000205c              
ram:000189ba    6670            strb        r6,[r4,#0x1]=>DAT_20002059              
ram:000189bc    0670            strb        r6,[r0,#0x0]=>DAT_20002550              
ram:000189be    4670            strb        r6,[r0,#0x1]=>DAT_20002551              
ram:000189c0    8670            strb        r6,[r0,#0x2]=>DAT_20002552              
ram:000189c2    3546            mov         r5,r6                                   
                            LAB_000189c4:                 ;XREF[1,0]:   000189ce
ram:000189c4    2846            mov         r0,r5                                   
ram:000189c6    fff761f8        bl          FUN_00017a8c                            ;undefined FUN_00017a8c(int param_1)
ram:000189ca    6d1c            adds        r5,r5,#0x1                              
ram:000189cc    0a2d            cmp         r5,#0xa                                 
ram:000189ce    f9d3            bcc         LAB_000189c4                            
ram:000189d0    1c4f            ldr         r7,[DAT_00018a44]                       ;= 10001000h
ram:000189d2    6680            strh        r6,[r4,#0x2]=>DAT_2000205a              
ram:000189d4    7869            ldr         r0,[r7,#offset DAT_10001014 &0xff]      
ram:000189d6    3d04            lsls        r5,r7,#0x10                             
ram:000189d8    401c            adds        r0,r0,#0x1                              
ram:000189da    05d0            beq         LAB_000189e8                            
ram:000189dc    2869            ldr         r0,[r5,#offset DAT_10000010 &0xff]      
ram:000189de    81b2            uxth        r1,r0                                   
ram:000189e0    7869            ldr         r0,[r7,#offset DAT_10001014 &0xff]      
ram:000189e2    fdf7c5fb        bl          FUN_00016170                            ;int FUN_00016170(uint param_1, uint ...
ram:000189e6    00e0            b           LAB_000189ea                            
                            LAB_000189e8:                 ;XREF[1,0]:   000189da
ram:000189e8    6869            ldr         r0,[r5,#offset DAT_10000014 &0xff]      
                            LAB_000189ea:                 ;XREF[1,0]:   000189e6
ram:000189ea    2969            ldr         r1,[r5,#offset DAT_10000010 &0xff]      
ram:000189ec    801e            subs        r0,r0,#0x2                              
ram:000189ee    89b2            uxth        r1,r1                                   
ram:000189f0    4843            muls        r0,r1                                   
ram:000189f2    a060            str         r0,[r4,#0x8]=>DAT_20002060              
ram:000189f4    1248            ldr         r0,[DAT_00018a40]                       ;= 20002550h
ram:000189f6    a680            strh        r6,[r4,#0x4]=>DAT_2000205c              
ram:000189f8    cc30            adds        r0,#0xcc                                
ram:000189fa    0660            str         r6,[r0,#0x0]=>DAT_2000261c              
ram:000189fc    0681            strh        r6,[r0,#0x8]=>DAT_20002624              
ram:000189fe    8681            strh        r6,[r0,#0xc]=>DAT_20002628              
ram:00018a00    4681            strh        r6,[r0,#0xa]=>DAT_20002626              
ram:00018a02    0820            movs        r0,#0x8                                 
ram:00018a04    6070            strb        r0,[r4,#0x1]=>DAT_20002059              
ram:00018a06    7869            ldr         r0,[r7,#offset DAT_10001014 &0xff]      
ram:00018a08    401c            adds        r0,r0,#0x1                              
ram:00018a0a    05d0            beq         LAB_00018a18                            
ram:00018a0c    2869            ldr         r0,[r5,#offset DAT_10000010 &0xff]      
ram:00018a0e    81b2            uxth        r1,r0                                   
ram:00018a10    7869            ldr         r0,[r7,#offset DAT_10001014 &0xff]      
ram:00018a12    fdf7adfb        bl          FUN_00016170                            ;int FUN_00016170(uint param_1, uint ...
ram:00018a16    00e0            b           LAB_00018a1a                            
                            LAB_00018a18:                 ;XREF[1,0]:   00018a0a
ram:00018a18    6869            ldr         r0,[r5,#offset DAT_10000014 &0xff]      
                            LAB_00018a1a:                 ;XREF[1,0]:   00018a16
ram:00018a1a    2969            ldr         r1,[r5,#offset DAT_10000010 &0xff]      
ram:00018a1c    401e            subs        r0,r0,#0x1                              
ram:00018a1e    89b2            uxth        r1,r1                                   
ram:00018a20    4843            muls        r0,r1                                   
ram:00018a22    2969            ldr         r1,[r5,#offset DAT_10000010 &0xff]      
ram:00018a24    89b2            uxth        r1,r1                                   
ram:00018a26    fdf7a3fb        bl          FUN_00016170                            ;int FUN_00016170(uint param_1, uint ...
ram:00018a2a    20df            svc         0x20                                    
ram:00018a2c    0028            cmp         r0,#0x0                                 
ram:00018a2e    03d1            bne         LAB_00018a38                            
ram:00018a30    034a            ldr         r2,[DAT_00018a40]                       ;= 20002550h
ram:00018a32    0121            movs        r1,#0x1                                 
ram:00018a34    9170            strb        r1,[r2,#0x2]=>DAT_20002552              
ram:00018a36    2170            strb        r1,[r4,#0x0]=>DAT_20002058              
                            LAB_00018a38:                 ;XREF[1,0]:   00018a2e
ram:00018a38    f8bd            pop         {r3,r4,r5,r6,r7,pc}                     
ram:00018a3a    0000            movs        r0,r0                                   
                            DAT_00018a3c:                 ;XREF[1,0]:   000189b4
ram:00018a3c    58200020        undefined4  20002058h                               
                            DAT_00018a40:                 ;XREF[3,0]:   000189b6,000189f4,00018a30
ram:00018a40    50250020        undefined4  20002550h                               
                            DAT_00018a44:                 ;XREF[1,0]:   000189d0
ram:00018a44    00100010        undefined4  10001000h                               
                            ;************************************************************************************************
                            ;*                                           FUNCTION                                           *
                            ;************************************************************************************************
                            ;undefined LAB_00018a48+1(undefined4 param_1, undefined4 param_2, int param_3)
          ;param_1       undefined4          r0                      
          ;param_2       undefined4          r1                      
          ;param_3       int                 r2                      
                                                          ;XREF[0,1]:   000184e8
ram:00018a48    10b5            push        {r4,lr}                                 
ram:00018a4a    1000            movs        param_1,param_3                         
ram:00018a4c    03d0            beq         LAB_00018a56                            
ram:00018a4e    0022            movs        param_3,#0x0                            
ram:00018a50    1146            mov         param_2,param_3                         
ram:00018a52    fdf775ff        bl          FUN_00016940                            ;undefined FUN_00016940(void)
                            LAB_00018a56:                 ;XREF[1,0]:   00018a4c
ram:00018a56    10bd            pop         {r4,pc}                                 
                            ;************************************************************************************************
                            ;*                                           FUNCTION                                           *
                            ;************************************************************************************************
                            ;undefined4 FUN_00018a58(int * param_1, uint * param_2)
          ;param_1       int *               r0                      
          ;param_2       uint *              r1                      
          ;local_18      undefined4         -18                      ;XREF[2,0]:   00018a88,00018ab6
                                                          ;XREF[1,0]:   000184f8
ram:00018a58    f8b5            push        {r3,r4,r5,r6,r7,lr}                     
ram:00018a5a    0446            mov         r4,param_1                              
ram:00018a5c    3a48            ldr         param_1,[DAT_00018b48]                  ;= 20002058h
ram:00018a5e    0f46            mov         r7,param_2                              
ram:00018a60    0078            ldrb        param_1,[param_1,#0x0]=>DAT_20002058    
ram:00018a62    0028            cmp         param_1,#0x0                            
ram:00018a64    1dd0            beq         LAB_00018aa2                            
ram:00018a66    002c            cmp         r4,#0x0                                 
ram:00018a68    1dd0            beq         LAB_00018aa6                            
ram:00018a6a    002f            cmp         r7,#0x0                                 
ram:00018a6c    1bd0            beq         LAB_00018aa6                            
ram:00018a6e    2068            ldr         param_1,[r4,#0x0]                       
ram:00018a70    0028            cmp         param_1,#0x0                            
ram:00018a72    18d0            beq         LAB_00018aa6                            
ram:00018a74    0125            movs        r5,#0x1                                 
ram:00018a76    2d07            lsls        r5,r5,#0x1c                             
ram:00018a78    a688            ldrh        r6,[r4,#0x4]                            
ram:00018a7a    2869            ldr         param_1,[r5,#offset DAT_10000010 &0xff] 
ram:00018a7c    80b2            uxth        param_1,param_1                         
ram:00018a7e    8642            cmp         r6,param_1                              
ram:00018a80    30d8            bhi         LAB_00018ae4                            
ram:00018a82    102e            cmp         r6,#0x10                                
ram:00018a84    2ed3            bcc         LAB_00018ae4                            
ram:00018a86    e088            ldrh        param_1,[r4,#0x6]                       
ram:00018a88    0090            str         param_1,[sp,#0x0]=>local_18             
ram:00018a8a    0028            cmp         param_1,#0x0                            
ram:00018a8c    2ad0            beq         LAB_00018ae4                            
ram:00018a8e    2f48            ldr         param_1,[DAT_00018b4c]                  ;= 10001000h
ram:00018a90    4169            ldr         param_2,[param_1,#offset DAT_10001014...
ram:00018a92    491c            adds        param_2,param_2,#0x1                    
ram:00018a94    09d0            beq         LAB_00018aaa                            
ram:00018a96    2969            ldr         param_2,[r5,#offset DAT_10000010 &0xff] 
ram:00018a98    4069            ldr         param_1,[param_1,#offset DAT_10001014...
ram:00018a9a    89b2            uxth        param_2,param_2                         
ram:00018a9c    fdf768fb        bl          FUN_00016170                            ;int FUN_00016170(uint param_1, uint ...
ram:00018aa0    04e0            b           LAB_00018aac                            
                            LAB_00018aa2:                 ;XREF[1,0]:   00018a64
ram:00018aa2    0820            movs        param_1,#0x8                            
ram:00018aa4    f8bd            pop         {r3,r4,r5,r6,r7,pc}                     
                            LAB_00018aa6:                 ;XREF[3,0]:   00018a68,00018a6c,00018a72
ram:00018aa6    0e20            movs        param_1,#0xe                            
ram:00018aa8    f8bd            pop         {r3,r4,r5,r6,r7,pc}                     
                            LAB_00018aaa:                 ;XREF[1,0]:   00018a94
ram:00018aaa    6869            ldr         param_1,[r5,#offset DAT_10000014 &0xff] 
                            LAB_00018aac:                 ;XREF[1,0]:   00018aa0
ram:00018aac    2969            ldr         param_2,[r5,#offset DAT_10000010 &0xff] 
ram:00018aae    401e            subs        param_1,param_1,#0x1                    
ram:00018ab0    89b2            uxth        param_2,param_2                         
ram:00018ab2    4843            muls        param_1,param_2                         
ram:00018ab4    244b            ldr         r3,[DAT_00018b48]                       ;= 20002058h
ram:00018ab6    0099            ldr         param_2,[sp,#0x0]=>local_18             
ram:00018ab8    9d68            ldr         r5,[r3,#0x8]=>DAT_20002060              
ram:00018aba    7143            muls        param_2,r6                              
ram:00018abc    4b19            adds        r3,param_2,r5                           
ram:00018abe    9842            cmp         param_1,r3                              
ram:00018ac0    10d3            bcc         LAB_00018ae4                            
ram:00018ac2    0120            movs        param_1,#0x1                            
ram:00018ac4    0007            lsls        param_1,param_1,#0x1c                   
ram:00018ac6    0069            ldr         param_1,[param_1,#offset DAT_10000010...
ram:00018ac8    80b2            uxth        param_1,param_1                         
ram:00018aca    8142            cmp         param_2,param_1                         
ram:00018acc    08dd            ble         LAB_00018ae0                            
ram:00018ace    0120            movs        param_1,#0x1                            
ram:00018ad0    0007            lsls        param_1,param_1,#0x1c                   
ram:00018ad2    0069            ldr         param_1,[param_1,#offset DAT_10000010...
ram:00018ad4    3146            mov         param_2,r6                              
ram:00018ad6    80b2            uxth        param_1,param_1                         
ram:00018ad8    fdf74afb        bl          FUN_00016170                            ;int FUN_00016170(uint param_1, uint ...
ram:00018adc    0029            cmp         param_2,#0x0                            
ram:00018ade    01d1            bne         LAB_00018ae4                            
                            LAB_00018ae0:                 ;XREF[1,0]:   00018acc
ram:00018ae0    b007            lsls        param_1,r6,#0x1e                        
ram:00018ae2    01d0            beq         LAB_00018ae8                            
                            LAB_00018ae4:                 ;XREF[5,0]:   00018a80,00018a84,00018a8c,00018ac0
                                                          ;             00018ade
ram:00018ae4    0720            movs        param_1,#0x7                            
ram:00018ae6    f8bd            pop         {r3,r4,r5,r6,r7,pc}                     
                            LAB_00018ae8:                 ;XREF[1,0]:   00018ae2
ram:00018ae8    1748            ldr         param_1,[DAT_00018b48]                  ;= 20002058h
ram:00018aea    4288            ldrh        r2,[param_1,#0x2]=>DAT_2000205a         
ram:00018aec    012a            cmp         r2,#0x1                                 
ram:00018aee    1ad0            beq         LAB_00018b26                            
ram:00018af0    1748            ldr         param_1,[DAT_00018b50]                  ;= 2000261Ch
ram:00018af2    24c7            stmia       r7!,{r2,r5}                             
ram:00018af4    1101            lsls        param_2,r2,#0x4                         
ram:00018af6    0e18            adds        r6,param_2,param_1                      
ram:00018af8    7560            str         r5,[r6,#0x4]=>DAT_20002620              
ram:00018afa    2368            ldr         r3,[r4,#0x0]                            
ram:00018afc    4350            str         r3,[param_1,param_2]=>DAT_2000261c      
ram:00018afe    a088            ldrh        param_1,[r4,#0x4]                       
ram:00018b00    3081            strh        param_1,[r6,#0x8]=>DAT_20002624         
ram:00018b02    e088            ldrh        param_1,[r4,#0x6]                       
ram:00018b04    7081            strh        param_1,[r6,#0xa]=>DAT_20002626         
ram:00018b06    a088            ldrh        param_1,[r4,#0x4]                       
ram:00018b08    e188            ldrh        param_2,[r4,#0x6]                       
ram:00018b0a    0023            movs        r3,#0x0                                 
ram:00018b0c    4843            muls        param_1,param_2                         
ram:00018b0e    0121            movs        param_2,#0x1                            
ram:00018b10    0907            lsls        param_2,param_2,#0x1c                   
                            LAB_00018b12:                 ;XREF[1,0]:   00018b38
ram:00018b12    5b1c            adds        r3,r3,#0x1                              
ram:00018b14    0c69            ldr         r4,[param_2,#offset DAT_10000010 &0xff] 
ram:00018b16    9bb2            uxth        r3,r3                                   
ram:00018b18    a4b2            uxth        r4,r4                                   
ram:00018b1a    8442            cmp         r4,param_1                              
ram:00018b1c    05d2            bcs         LAB_00018b2a                            
ram:00018b1e    0c69            ldr         r4,[param_2,#offset DAT_10000010 &0xff] 
ram:00018b20    a4b2            uxth        r4,r4                                   
ram:00018b22    001b            subs        param_1,param_1,r4                      
ram:00018b24    02e0            b           LAB_00018b2c                            
                            LAB_00018b26:                 ;XREF[1,0]:   00018aee
ram:00018b26    0420            movs        param_1,#0x4                            
ram:00018b28    f8bd            pop         {r3,r4,r5,r6,r7,pc}                     
                            LAB_00018b2a:                 ;XREF[1,0]:   00018b1c
ram:00018b2a    0020            movs        param_1,#0x0                            
                            LAB_00018b2c:                 ;XREF[1,0]:   00018b24
ram:00018b2c    0c69            ldr         r4,[param_2,#offset DAT_10000010 &0xff] 
ram:00018b2e    a4b2            uxth        r4,r4                                   
ram:00018b30    6519            adds        r5,r4,r5                                
ram:00018b32    0c69            ldr         r4,[param_2,#offset DAT_10000010 &0xff] 
ram:00018b34    a4b2            uxth        r4,r4                                   
ram:00018b36    8442            cmp         r4,param_1                              
ram:00018b38    ebd9            bls         LAB_00018b12                            
ram:00018b3a    0348            ldr         param_1,[DAT_00018b48]                  ;= 20002058h
ram:00018b3c    521c            adds        r2,r2,#0x1                              
ram:00018b3e    8560            str         r5,[param_1,#0x8]=>DAT_20002060         
ram:00018b40    b381            strh        r3,[r6,#0xc]=>DAT_20002628              
ram:00018b42    4280            strh        r2,[param_1,#0x2]=>DAT_2000205a         
ram:00018b44    0020            movs        param_1,#0x0                            
ram:00018b46    f8bd            pop         {r3,r4,r5,r6,r7,pc}                     
                            DAT_00018b48:                 ;XREF[4,0]:   00018a5c,00018ab4,00018ae8,00018b3a
ram:00018b48    58200020        undefined4  20002058h                               
                            DAT_00018b4c:                 ;XREF[1,0]:   00018a8e
ram:00018b4c    00100010        undefined4  10001000h                               
                            DAT_00018b50:                 ;XREF[1,0]:   00018af0
ram:00018b50    1c260020        undefined4  2000261Ch                               
                            ;************************************************************************************************
                            ;*                                           FUNCTION                                           *
                            ;************************************************************************************************
                            ;int FUN_00018b54(int * param_1, uint param_2, uint param_3, uint param_4)
          ;param_1       int *               r0                      
          ;param_2       uint                r1                      
          ;param_3       uint                r2                      
          ;param_4       uint                r3                      
          ;local_18      undefined4         -18                      ;XREF[1,0]:   00018bce
                                                          ;XREF[1,0]:   0001728e
ram:00018b54    f8b5            push        {param_4,r4,r5,r6,r7,lr}                
ram:00018b56    0446            mov         r4,param_1                              
ram:00018b58    2048            ldr         param_1,[DAT_00018bdc]                  ;= 20002058h
ram:00018b5a    1e46            mov         r6,param_4                              
ram:00018b5c    0078            ldrb        param_1,[param_1,#0x0]=>DAT_20002058    
ram:00018b5e    1546            mov         r5,param_3                              
ram:00018b60    0f46            mov         r7,param_2                              
ram:00018b62    0028            cmp         param_1,#0x0                            
ram:00018b64    07d0            beq         LAB_00018b76                            
ram:00018b66    002f            cmp         r7,#0x0                                 
ram:00018b68    07d0            beq         LAB_00018b7a                            
ram:00018b6a    002c            cmp         r4,#0x0                                 
ram:00018b6c    05d0            beq         LAB_00018b7a                            
ram:00018b6e    2068            ldr         param_1,[r4,#0x0]                       
ram:00018b70    0028            cmp         param_1,#0x0                            
ram:00018b72    17d1            bne         LAB_00018ba4                            
ram:00018b74    03e0            b           LAB_00018b7e                            
                            LAB_00018b76:                 ;XREF[1,0]:   00018b64
ram:00018b76    0820            movs        param_1,#0x8                            
ram:00018b78    f8bd            pop         {param_4,r4,r5,r6,r7,pc}                
                            LAB_00018b7a:                 ;XREF[2,0]:   00018b68,00018b6c
ram:00018b7a    0e20            movs        param_1,#0xe                            
ram:00018b7c    f8bd            pop         {param_4,r4,r5,r6,r7,pc}                
                            LAB_00018b7e:                 ;XREF[1,0]:   00018b74
ram:00018b7e    1848            ldr         param_1,[DAT_00018be0]                  ;= 2000261Ch
ram:00018b80    0168            ldr         param_2,[param_1,#0x0]=>DAT_2000261c    
ram:00018b82    0029            cmp         param_2,#0x0                            
ram:00018b84    0ed0            beq         LAB_00018ba4                            
ram:00018b86    4289            ldrh        param_3,[param_1,#0xa]=>DAT_20002626    
ram:00018b88    0189            ldrh        param_2,[param_1,#0x8]=>DAT_20002624    
ram:00018b8a    4068            ldr         param_1,[param_1,#0x4]=>DAT_20002620    
ram:00018b8c    4a43            muls        param_3,param_2                         
ram:00018b8e    1018            adds        param_1,param_3,param_1                 
ram:00018b90    6268            ldr         param_3,[r4,#0x4]                       
ram:00018b92    9042            cmp         param_1,param_3                         
ram:00018b94    06d9            bls         LAB_00018ba4                            
ram:00018b96    002d            cmp         r5,#0x0                                 
ram:00018b98    04d0            beq         LAB_00018ba4                            
ram:00018b9a    a942            cmp         param_2,r5                              
ram:00018b9c    02d3            bcc         LAB_00018ba4                            
ram:00018b9e    a819            adds        param_1,r5,r6                           
ram:00018ba0    8842            cmp         param_1,param_2                         
ram:00018ba2    01d9            bls         LAB_00018ba8                            
                            LAB_00018ba4:                 ;XREF[5,0]:   00018b72,00018b84,00018b94,00018b98
                                                          ;             00018b9c
ram:00018ba4    0720            movs        param_1,#0x7                            
ram:00018ba6    f8bd            pop         {param_4,r4,r5,r6,r7,pc}                
                            LAB_00018ba8:                 ;XREF[1,0]:   00018ba2
ram:00018ba8    3846            mov         param_1,r7                              
ram:00018baa    fff781fa        bl          FUN_000180b0                            ;undefined4 FUN_000180b0(uint param_1)
ram:00018bae    0028            cmp         param_1,#0x0                            
ram:00018bb0    11d0            beq         LAB_00018bd6                            
ram:00018bb2    3046            mov         param_1,r6                              
ram:00018bb4    fff77cfa        bl          FUN_000180b0                            ;undefined4 FUN_000180b0(uint param_1)
ram:00018bb8    0028            cmp         param_1,#0x0                            
ram:00018bba    0cd0            beq         LAB_00018bd6                            
ram:00018bbc    6068            ldr         param_1,[r4,#0x4]                       
ram:00018bbe    fff777fa        bl          FUN_000180b0                            ;undefined4 FUN_000180b0(uint param_1)
ram:00018bc2    0028            cmp         param_1,#0x0                            
ram:00018bc4    07d0            beq         LAB_00018bd6                            
ram:00018bc6    2b46            mov         param_4,r5                              
ram:00018bc8    3a46            mov         param_3,r7                              
ram:00018bca    2146            mov         param_2,r4                              
ram:00018bcc    0220            movs        param_1,#0x2                            
ram:00018bce    0096            str         r6,[sp,#0x0]=>local_18                  
ram:00018bd0    fef76cff        bl          FUN_00017aac                            ;int FUN_00017aac(char param_1, undef...
ram:00018bd4    f8bd            pop         {param_4,r4,r5,r6,r7,pc}                
                            LAB_00018bd6:                 ;XREF[3,0]:   00018bb0,00018bba,00018bc4
ram:00018bd6    1020            movs        param_1,#0x10                           
ram:00018bd8    f8bd            pop         {param_4,r4,r5,r6,r7,pc}                
ram:00018bda    0000            movs        r0,r0                                   
                            DAT_00018bdc:                 ;XREF[1,0]:   00018b58
ram:00018bdc    58200020        undefined4  20002058h                               
                            DAT_00018be0:                 ;XREF[1,0]:   00018b7e
ram:00018be0    1c260020        undefined4  2000261Ch                               
                            ;************************************************************************************************
                            ;*                                           FUNCTION                                           *
                            ;************************************************************************************************
                            ;undefined FUN_00018be4(int param_1)
          ;param_1       int                 r0                      
                                                          ;XREF[1,0]:   0001909a
ram:00018be4    f8b5            push        {r3,r4,r5,r6,r7,lr}                     
ram:00018be6    0646            mov         r6,param_1                              
ram:00018be8    0020            movs        param_1,#0x0                            
ram:00018bea    3d4d            ldr         r5,[DAT_00018ce0]                       ;= 20002550h
ram:00018bec    8646            mov         lr,param_1                              
ram:00018bee    a878            ldrb        param_1,[r5,#0x2]=>DAT_20002552         
ram:00018bf0    0128            cmp         param_1,#0x1                            
ram:00018bf2    12d1            bne         LAB_00018c1a                            
ram:00018bf4    0020            movs        param_1,#0x0                            
ram:00018bf6    3b4a            ldr         r2=>DAT_20002058,[DAT_00018ce4]         ;= 20002058h
ram:00018bf8    a870            strb        param_1,[r5,#0x2]=>DAT_20002552         
ram:00018bfa    5378            ldrb        r3,[r2,#0x1]=>DAT_20002059              
ram:00018bfc    082b            cmp         r3,#0x8                                 
ram:00018bfe    0dd0            beq         LAB_00018c1c                            
ram:00018c00    2f46            mov         r7,r5                                   
ram:00018c02    3c78            ldrb        r4,[r7,#0x0]=>DAT_20002550              
ram:00018c04    1421            movs        r1,#0x14                                
ram:00018c06    6143            muls        r1,r4                                   
ram:00018c08    c919            adds        r1,r1,r7                                
ram:00018c0a    022e            cmp         r6,#0x2                                 
ram:00018c0c    14d0            beq         LAB_00018c38                            
ram:00018c0e    032e            cmp         r6,#0x3                                 
ram:00018c10    03d1            bne         LAB_00018c1a                            
ram:00018c12    0d20            movs        param_1,#0xd                            
                            LAB_00018c14:                 ;XREF[2,0]:   00018c32,00018cd8
ram:00018c14    091d            adds        r1,r1,#0x4                              
ram:00018c16    fdf779ff        bl          FUN_00016b0c                            ;undefined FUN_00016b0c(undefined4 pa...
                            LAB_00018c1a:                 ;XREF[4,0]:   00018bf2,00018c10,00018c28,00018ccc
ram:00018c1a    f8bd            pop         {r3,r4,r5,r6,r7,pc}                     
                            LAB_00018c1c:                 ;XREF[1,0]:   00018bfe
ram:00018c1c    022e            cmp         r6,#0x2                                 
ram:00018c1e    09d0            beq         LAB_00018c34                            
ram:00018c20    1070            strb        param_1,[r2,#0x0]=>DAT_20002058         
                            LAB_00018c22:                 ;XREF[1,0]:   00018c36
ram:00018c22    fef71fff        bl          FUN_00017a64                            ;int FUN_00017a64(void)
ram:00018c26    0028            cmp         param_1,#0x0                            
ram:00018c28    f7d0            beq         LAB_00018c1a                            
ram:00018c2a    2978            ldrb        r1,[r5,#0x0]=>DAT_20002550              
ram:00018c2c    1422            movs        r2,#0x14                                
ram:00018c2e    5143            muls        r1,r2                                   
ram:00018c30    4919            adds        r1,r1,r5                                
ram:00018c32    efe7            b           LAB_00018c14                            
                            LAB_00018c34:                 ;XREF[1,0]:   00018c1e
ram:00018c34    5070            strb        param_1,[r2,#0x1]=>DAT_20002059         
ram:00018c36    f4e7            b           LAB_00018c22                            
                            LAB_00018c38:                 ;XREF[1,0]:   00018c0c
ram:00018c38    2a4a            ldr         r2,[DAT_00018ce4]                       ;= 20002058h
ram:00018c3a    9588            ldrh        r5,[r2,#0x4]=>DAT_2000205c              
ram:00018c3c    6d1c            adds        r5,r5,#0x1                              
ram:00018c3e    aeb2            uxth        r6,r5                                   
ram:00018c40    9680            strh        r6,[r2,#0x4]=>DAT_2000205c              
ram:00018c42    0d79            ldrb        r5,[r1,#0x4]                            
ram:00018c44    091d            adds        r1,r1,#0x4                              
ram:00018c46    022d            cmp         r5,#0x2                                 
ram:00018c48    05d1            bne         LAB_00018c56                            
ram:00018c4a    4f88            ldrh        r7,[r1,#0x2]                            
ram:00018c4c    b202            lsls        r2,r6,#0xa                              
ram:00018c4e    ba42            cmp         r2,r7                                   
ram:00018c50    01d3            bcc         LAB_00018c56                            
ram:00018c52    0122            movs        r2,#0x1                                 
ram:00018c54    00e0            b           LAB_00018c58                            
                            LAB_00018c56:                 ;XREF[2,0]:   00018c48,00018c50
ram:00018c56    0022            movs        r2,#0x0                                 
                            LAB_00018c58:                 ;XREF[1,0]:   00018c54
ram:00018c58    9446            mov         r12,r2                                  
ram:00018c5a    052d            cmp         r5,#0x5                                 
ram:00018c5c    01d1            bne         LAB_00018c62                            
ram:00018c5e    072b            cmp         r3,#0x7                                 
ram:00018c60    03d0            beq         LAB_00018c6a                            
                            LAB_00018c62:                 ;XREF[1,0]:   00018c5c
ram:00018c62    0022            movs        r2,#0x0                                 
                            LAB_00018c64:                 ;XREF[1,0]:   00018c6c
ram:00018c64    042d            cmp         r5,#0x4                                 
ram:00018c66    02d0            beq         LAB_00018c6e                            
ram:00018c68    03e0            b           LAB_00018c72                            
                            LAB_00018c6a:                 ;XREF[1,0]:   00018c60
ram:00018c6a    0122            movs        r2,#0x1                                 
ram:00018c6c    fae7            b           LAB_00018c64                            
                            LAB_00018c6e:                 ;XREF[1,0]:   00018c66
ram:00018c6e    072b            cmp         r3,#0x7                                 
ram:00018c70    03d0            beq         LAB_00018c7a                            
                            LAB_00018c72:                 ;XREF[1,0]:   00018c68
ram:00018c72    0027            movs        r7,#0x0                                 
                            LAB_00018c74:                 ;XREF[1,0]:   00018c7c
ram:00018c74    042d            cmp         r5,#0x4                                 
ram:00018c76    02d0            beq         LAB_00018c7e                            
ram:00018c78    07e0            b           LAB_00018c8a                            
                            LAB_00018c7a:                 ;XREF[1,0]:   00018c70
ram:00018c7a    0127            movs        r7,#0x1                                 
ram:00018c7c    fae7            b           LAB_00018c74                            
                            LAB_00018c7e:                 ;XREF[1,0]:   00018c76
ram:00018c7e    4988            ldrh        r1,[r1,#0x2]                            
ram:00018c80    b502            lsls        r5,r6,#0xa                              
ram:00018c82    8d42            cmp         r5,r1                                   
ram:00018c84    01d3            bcc         LAB_00018c8a                            
ram:00018c86    002b            cmp         r3,#0x0                                 
ram:00018c88    27d0            beq         LAB_00018cda                            
                            LAB_00018c8a:                 ;XREF[2,0]:   00018c78,00018c84
ram:00018c8a    0021            movs        r1,#0x0                                 
                            LAB_00018c8c:                 ;XREF[1,0]:   00018cdc
ram:00018c8c    3a43            orrs        r2,r7                                   
ram:00018c8e    0a43            orrs        r2,r1                                   
ram:00018c90    6146            mov         r1,r12                                  
ram:00018c92    0a43            orrs        r2,r1                                   
ram:00018c94    17d0            beq         LAB_00018cc6                            
ram:00018c96    134a            ldr         r2=>DAT_20002058,[DAT_00018ce4]         ;= 20002058h
ram:00018c98    1149            ldr         r1,[DAT_00018ce0]                       ;= 20002550h
ram:00018c9a    5070            strb        param_1,[r2,#0x1]=>DAT_20002059         
ram:00018c9c    9080            strh        param_1,[r2,#0x4]=>DAT_2000205c         
ram:00018c9e    4878            ldrb        param_1,[r1,#0x1]=>DAT_20002551         
ram:00018ca0    401e            subs        param_1,param_1,#0x1                    
ram:00018ca2    4870            strb        param_1,[r1,#0x1]=>DAT_20002551         
ram:00018ca4    601c            adds        param_1,r4,#0x1                         
ram:00018ca6    c0b2            uxtb        param_1,param_1                         
ram:00018ca8    0870            strb        param_1,[r1,#0x0]=>DAT_20002550         
ram:00018caa    0a28            cmp         param_1,#0xa                            
ram:00018cac    01d3            bcc         LAB_00018cb2                            
ram:00018cae    0a38            subs        param_1,#0xa                            
ram:00018cb0    0870            strb        param_1,[r1,#0x0]=>DAT_20002550         
                            LAB_00018cb2:                 ;XREF[1,0]:   00018cac
ram:00018cb2    1420            movs        param_1,#0x14                           
ram:00018cb4    6043            muls        param_1,r4                              
ram:00018cb6    4118            adds        r1,param_1,r1                           
ram:00018cb8    7046            mov         param_1,lr                              
ram:00018cba    091d            adds        r1,r1,#0x4                              
ram:00018cbc    fdf726ff        bl          FUN_00016b0c                            ;undefined FUN_00016b0c(undefined4 pa...
ram:00018cc0    2046            mov         param_1,r4                              
ram:00018cc2    fef7e3fe        bl          FUN_00017a8c                            ;undefined FUN_00017a8c(int param_1)
                            LAB_00018cc6:                 ;XREF[1,0]:   00018c94
ram:00018cc6    fef7cdfe        bl          FUN_00017a64                            ;int FUN_00017a64(void)
ram:00018cca    0028            cmp         param_1,#0x0                            
ram:00018ccc    a5d0            beq         LAB_00018c1a                            
ram:00018cce    0449            ldr         r1,[DAT_00018ce0]                       ;= 20002550h
ram:00018cd0    1423            movs        r3,#0x14                                
ram:00018cd2    0a78            ldrb        r2,[r1,#0x0]=>DAT_20002550              
ram:00018cd4    5a43            muls        r2,r3                                   
ram:00018cd6    5118            adds        r1,r2,r1                                
ram:00018cd8    9ce7            b           LAB_00018c14                            
                            LAB_00018cda:                 ;XREF[1,0]:   00018c88
ram:00018cda    0121            movs        r1,#0x1                                 
ram:00018cdc    d6e7            b           LAB_00018c8c                            
ram:00018cde    0000            movs        r0,r0                                   
                            DAT_00018ce0:                 ;XREF[3,0]:   00018bea,00018c98,00018cce
ram:00018ce0    50250020        undefined4  20002550h                               
                            DAT_00018ce4:                 ;XREF[3,0]:   00018bf6,00018c38,00018c96
ram:00018ce4    58200020        undefined4  20002058h                               
                            ;************************************************************************************************
                            ;*                                           FUNCTION                                           *
                            ;************************************************************************************************
                            ;undefined FUN_00018ce8(void)
                                                          ;XREF[2,0]:   00016d22,00017b82
ram:00018ce8    70b5            push        {r4,r5,r6,lr}                           
ram:00018cea    0124            movs        r4,#0x1                                 
ram:00018cec    0b49            ldr         r1,[DAT_00018d1c]                       ;= E000E180h
ram:00018cee    6004            lsls        r0,r4,#0x11                             
ram:00018cf0    0860            str         r0,[r1,#0x0]=>DAT_e000e180              
ram:00018cf2    0b49            ldr         r1,[DAT_00018d20]                       ;= 40011340h
ram:00018cf4    4010            asrs        r0,r0,#0x1                              
ram:00018cf6    8860            str         r0,[r1,#0x8]=>DAT_40011348              
ram:00018cf8    0949            ldr         r1,[DAT_00018d20]                       ;= 40011340h
ram:00018cfa    4039            subs        r1,#0x40                                
ram:00018cfc    8860            str         r0,[r1,#offset DAT_40011308 &0xff]      
ram:00018cfe    094d            ldr         r5,[DAT_00018d24]                       ;= 40011000h
ram:00018d00    6c60            str         r4,[r5,#offset DAT_40011004 &0xff]      
ram:00018d02    2f20            movs        r0,#0x2f                                
ram:00018d04    fdf708fa        bl          FUN_00016118                            ;undefined FUN_00016118(int param_1)
ram:00018d08    ac60            str         r4,[r5,#offset DAT_40011008 &0xff]      
ram:00018d0a    074d            ldr         r5,[DAT_00018d28]                       ;= 2000209Ch
ram:00018d0c    0024            movs        r4,#0x0                                 
ram:00018d0e    2f20            movs        r0,#0x2f                                
ram:00018d10    6c61            str         r4,[r5,#0x14]=>DAT_200020b0             
ram:00018d12    fdf701fa        bl          FUN_00016118                            ;undefined FUN_00016118(int param_1)
ram:00018d16    2c71            strb        r4,[r5,#0x4]=>DAT_200020a0              
ram:00018d18    70bd            pop         {r4,r5,r6,pc}                           
ram:00018d1a    0000            movs        r0,r0                                   
                            DAT_00018d1c:                 ;XREF[1,0]:   00018cec
ram:00018d1c    80e100e0        undefined4  E000E180h                               
                            DAT_00018d20:                 ;XREF[2,0]:   00018cf2,00018cf8
ram:00018d20    40130140        undefined4  40011340h                               
                            DAT_00018d24:                 ;XREF[1,0]:   00018cfe
ram:00018d24    00100140        undefined4  40011000h                               
                            DAT_00018d28:                 ;XREF[1,0]:   00018d0a
ram:00018d28    9c200020        undefined4  2000209Ch                               
                            ;************************************************************************************************
                            ;*                                           FUNCTION                                           *
                            ;************************************************************************************************
                            ;undefined FUN_00018d2c(void)
                                                          ;XREF[1,0]:   0001738c
ram:00018d2c    0849            ldr         r1,[DAT_00018d50]                       ;= 2000200Ch
ram:00018d2e    1e20            movs        r0,#0x1e                                
ram:00018d30    0880            strh        r0,[r1,#0x0]=>DAT_2000200c              
ram:00018d32    8878            ldrb        r0,[r1,#0x2]=>DAT_2000200e              
ram:00018d34    e122            movs        r2,#0xe1                                
ram:00018d36    4008            lsrs        r0,r0,#0x1                              
ram:00018d38    4000            lsls        r0,r0,#0x1                              
ram:00018d3a    1040            ands        r0,r2                                   
ram:00018d3c    df22            movs        r2,#0xdf                                
ram:00018d3e    0c30            adds        r0,#0xc                                 
ram:00018d40    1040            ands        r0,r2                                   
ram:00018d42    8870            strb        r0,[r1,#0x2]=>DAT_2000200e              
ram:00018d44    0720            movs        r0,#0x7                                 
ram:00018d46    c870            strb        r0,[r1,#0x3]=>DAT_2000200f              
ram:00018d48    1020            movs        r0,#0x10                                
ram:00018d4a    0871            strb        r0,[r1,#0x4]=>DAT_20002010              
ram:00018d4c    7047            bx          lr                                      
ram:00018d4e    0000            movs        r0,r0                                   
                            DAT_00018d50:                 ;XREF[1,0]:   00018d2c
ram:00018d50    0c200020        undefined4  2000200Ch                               
                            ;************************************************************************************************
                            ;*                                           FUNCTION                                           *
                            ;************************************************************************************************
                            ;undefined FUN_00018d54(int param_1, uint param_2)
          ;param_1       int                 r0                      
          ;param_2       uint                r1                      
                                                          ;XREF[2,0]:   000162de,000162fc
ram:00018d54    f0b5            push        {r4,r5,r6,r7,lr}                        
ram:00018d56    0022            movs        r2,#0x0                                 
ram:00018d58    0123            movs        r3,#0x1                                 
ram:00018d5a    0326            movs        r6,#0x3                                 
ram:00018d5c    3604            lsls        r6,r6,#0x10                             
                            LAB_00018d5e:                 ;XREF[1,0]:   00018d90
ram:00018d5e    1f46            mov         r7,r3                                   
ram:00018d60    9740            lsls        r7,r2                                   
ram:00018d62    3942            tst         param_2,r7                              
ram:00018d64    12d0            beq         LAB_00018d8c                            
ram:00018d66    c568            ldr         r5,[param_1,#0xc]                       
ram:00018d68    3d42            tst         r5,r7                                   
ram:00018d6a    03d1            bne         LAB_00018d74                            
ram:00018d6c    0124            movs        r4,#0x1                                 
ram:00018d6e    6404            lsls        r4,r4,#0x11                             
ram:00018d70    3d43            orrs        r5,r7                                   
ram:00018d72    01e0            b           LAB_00018d78                            
                            LAB_00018d74:                 ;XREF[1,0]:   00018d6a
ram:00018d74    3446            mov         r4,r6                                   
ram:00018d76    bd43            bics        r5,r7                                   
                            LAB_00018d78:                 ;XREF[1,0]:   00018d72
ram:00018d78    c560            str         r5,[param_1,#0xc]                       
ram:00018d7a    064d            ldr         r5,[DAT_00018d94]                       ;= 50000700h
ram:00018d7c    9700            lsls        r7,r2,#0x2                              
ram:00018d7e    7d19            adds        r5,r7,r5                                
ram:00018d80    2f68            ldr         r7,[r5,#0x0]=>DAT_50000700              
ram:00018d82    b743            bics        r7,r6                                   
ram:00018d84    2f60            str         r7,[r5,#0x0]=>DAT_50000700              
ram:00018d86    2f68            ldr         r7,[r5,#0x0]=>DAT_50000700              
ram:00018d88    2743            orrs        r7,r4                                   
ram:00018d8a    2f60            str         r7,[r5,#0x0]=>DAT_50000700              
                            LAB_00018d8c:                 ;XREF[1,0]:   00018d64
ram:00018d8c    521c            adds        r2,r2,#0x1                              
ram:00018d8e    202a            cmp         r2,#0x20                                
ram:00018d90    e5d3            bcc         LAB_00018d5e                            
ram:00018d92    f0bd            pop         {r4,r5,r6,r7,pc}                        
                            DAT_00018d94:                 ;XREF[1,0]:   00018d7a
ram:00018d94    00070050        undefined4  50000700h                               
                            ;************************************************************************************************
                            ;*                                           FUNCTION                                           *
                            ;************************************************************************************************
                            ;undefined4 FUN_00018d98(int param_1, int param_2, byte * param_3)
          ;param_1       int                 r0                      
          ;param_2       int                 r1                      
          ;param_3       byte *              r2                      
          ;local_20      undefined4         -20                      ;XREF[3,0]:   00018d9c,00018da8,00018db2
          ;local_28      undefined4         -28                      ;XREF[2,0]:   00018dae,00018e00
                                                          ;XREF[1,0]:   00016724
ram:00018d98    f7b5            push        {param_1,param_2,param_3,r4,r5,r6,r7,lr}
ram:00018d9a    82b0            sub         sp,#0x8                                 
ram:00018d9c    0298            ldr         param_1,[sp,#local_20+0x28]             
ram:00018d9e    1446            mov         r4,param_3                              
ram:00018da0    006b            ldr         param_1,[param_1,#0x30]                 
ram:00018da2    0f46            mov         r7,param_2                              
ram:00018da4    0028            cmp         param_1,#0x0                            
ram:00018da6    33d0            beq         LAB_00018e10                            
ram:00018da8    0298            ldr         param_1,[sp,#local_20+0x28]             
ram:00018daa    0025            movs        r5,#0x0                                 
ram:00018dac    2030            adds        param_1,#0x20                           
ram:00018dae    0090            str         param_1,[sp,#0x0]=>local_28             
ram:00018db0    28e0            b           LAB_00018e04                            
                            LAB_00018db2:                 ;XREF[1,0]:   00018e08
ram:00018db2    0298            ldr         param_1,[sp,#local_20+0x28]             
ram:00018db4    016b            ldr         param_2,[param_1,#0x30]                 
ram:00018db6    0c20            movs        param_1,#0xc                            
ram:00018db8    6843            muls        param_1,r5                              
ram:00018dba    0e18            adds        r6,param_2,param_1                      
ram:00018dbc    2178            ldrb        param_2,[r4,#0x0]                       
ram:00018dbe    3079            ldrb        param_1,[r6,#0x4]                       
ram:00018dc0    4a1c            adds        param_3,param_2,#0x1                    
ram:00018dc2    2270            strb        param_3,[r4,#0x0]                       
ram:00018dc4    c01c            adds        param_1,param_1,#0x3                    
ram:00018dc6    7854            strb        param_1,[r7,param_2]                    
ram:00018dc8    2078            ldrb        param_1,[r4,#0x0]                       
ram:00018dca    1622            movs        param_3,#0x16                           
ram:00018dcc    411c            adds        param_2,param_1,#0x1                    
ram:00018dce    2170            strb        param_2,[r4,#0x0]                       
ram:00018dd0    3a54            strb        param_3,[r7,param_1]                    
ram:00018dd2    2078            ldrb        param_1,[r4,#0x0]                       
ram:00018dd4    c119            adds        param_2,param_1,r7                      
ram:00018dd6    3088            ldrh        param_1,[r6,#0x0]                       
ram:00018dd8    00f028fa        bl          FUN_0001922c                            ;undefined4 FUN_0001922c(undefined4 p...
ram:00018ddc    2178            ldrb        param_2,[r4,#0x0]                       
ram:00018dde    4018            adds        param_1,param_1,param_2                 
ram:00018de0    c0b2            uxtb        param_1,param_1                         
ram:00018de2    2070            strb        param_1,[r4,#0x0]                       
ram:00018de4    b288            ldrh        param_3,[r6,#0x4]                       
ram:00018de6    002a            cmp         param_3,#0x0                            
ram:00018de8    09d0            beq         LAB_00018dfe                            
ram:00018dea    b168            ldr         param_2,[r6,#0x8]                       
ram:00018dec    0029            cmp         param_2,#0x0                            
ram:00018dee    0fd0            beq         LAB_00018e10                            
ram:00018df0    c019            adds        param_1,param_1,r7                      
ram:00018df2    fdf703fa        bl          FUN_000161fc                            ;undefined FUN_000161fc(undefined4 * ...
ram:00018df6    2078            ldrb        param_1,[r4,#0x0]                       
ram:00018df8    3179            ldrb        param_2,[r6,#0x4]                       
ram:00018dfa    4018            adds        param_1,param_1,param_2                 
ram:00018dfc    2070            strb        param_1,[r4,#0x0]                       
                            LAB_00018dfe:                 ;XREF[1,0]:   00018de8
ram:00018dfe    6d1c            adds        r5,r5,#0x1                              
ram:00018e00    0098            ldr         param_1,[sp,#0x0]=>local_28             
ram:00018e02    edb2            uxtb        r5,r5                                   
                            LAB_00018e04:                 ;XREF[1,0]:   00018db0
ram:00018e04    007d            ldrb        param_1,[param_1,#0x14]                 
ram:00018e06    a842            cmp         param_1,r5                              
ram:00018e08    d3d8            bhi         LAB_00018db2                            
ram:00018e0a    0020            movs        param_1,#0x0                            
                            LAB_00018e0c:                 ;XREF[1,0]:   00018e12
ram:00018e0c    05b0            add         sp,#0x14                                
ram:00018e0e    f0bd            pop         {r4,r5,r6,r7,pc}                        
                            LAB_00018e10:                 ;XREF[2,0]:   00018da6,00018dee
ram:00018e10    0720            movs        param_1,#0x7                            
ram:00018e12    fbe7            b           LAB_00018e0c                            
                            ;************************************************************************************************
                            ;*                                           FUNCTION                                           *
                            ;************************************************************************************************
                            ;undefined FUN_00018e14(void)
          ;local_8       undefined4          -8                      ;XREF[1,0]:   00018e42
          ;local_c       undefined4          -c                      ;XREF[1,0]:   00018e3a
          ;local_10      undefined4         -10                      ;XREF[1,0]:   00018e1c
          ;local_14      undefined4         -14                      ;XREF[1,0]:   00018e20
          ;local_18      undefined4         -18                      ;XREF[2,0]:   00018e1a,00018e26
                                                          ;XREF[1,0]:   0001734a
ram:00018e14    00b5            push        {lr}                                    
ram:00018e16    85b0            sub         sp,#0x14                                
ram:00018e18    0020            movs        r0,#0x0                                 
ram:00018e1a    0090            str         r0,[sp,#0x0]=>local_18                  
ram:00018e1c    0290            str         r0,[sp,#local_10+0x18]                  
ram:00018e1e    0f48            ldr         r0,[PTR_LAB_00017cf8+1+1_00018e5c]      ;= 00017cf9
ram:00018e20    0190            str         r0=>LAB_00017cf8+1+1,[sp,#local_14+0x18]
ram:00018e22    0120            movs        r0,#0x1                                 
ram:00018e24    6946            mov         r1,sp                                   
ram:00018e26    0880            strh        r0,[r1,#0x0]=>local_18                  
ram:00018e28    0d48            ldr         r0,[DAT_00018e60]                       ;= 200024ACh
ram:00018e2a    fef745fc        bl          FUN_000176b8                            ;undefined4 * FUN_000176b8(undefined2...
ram:00018e2e    0028            cmp         r0,#0x0                                 
ram:00018e30    0ed1            bne         LAB_00018e50                            
ram:00018e32    0c48            ldr         r0=>FUN_00017e38+1,[PTR_FUN_00017e38+...;= 00017e39
ram:00018e34    fef774ff        bl          FUN_00017d20                            ;undefined FUN_00017d20(undefined4 pa...
ram:00018e38    0b48            ldr         r0,[DAT_00018e68]                       ;= 000173F9h
ram:00018e3a    0390            str         r0=>FUN_000173f8+1,[sp,#local_c+0x18]   
ram:00018e3c    0b48            ldr         r0,[DAT_00018e6c]                       ;= 20002000h
ram:00018e3e    03a9            add         r1,sp,#0xc                              
ram:00018e40    8068            ldr         r0,[r0,#offset DAT_20002008 &0xff]      
ram:00018e42    0490            str         r0,[sp,#local_8+0x18]                   
ram:00018e44    0648            ldr         r0,[DAT_00018e60]                       ;= 200024ACh
ram:00018e46    3c38            subs        r0,#0x3c                                
ram:00018e48    fef762fb        bl          FUN_00017510                            ;undefined8 FUN_00017510(ushort * par...
ram:00018e4c    0028            cmp         r0,#0x0                                 
ram:00018e4e    03d0            beq         LAB_00018e58                            
                            LAB_00018e50:                 ;XREF[1,0]:   00018e30
ram:00018e50    0022            movs        r2,#0x0                                 
ram:00018e52    1146            mov         r1,r2                                   
ram:00018e54    fdf774fd        bl          FUN_00016940                            ;undefined FUN_00016940(void)
                            LAB_00018e58:                 ;XREF[1,0]:   00018e4e
ram:00018e58    05b0            add         sp,#0x14                                
ram:00018e5a    00bd            pop         {pc}                                    
                            PTR_LAB_00017cf8+1+1_00018e5c:;XREF[1,0]:   00018e1e
ram:00018e5c    f97c0100        addr        LAB_00017cf8+1+1                        
                            DAT_00018e60:                 ;XREF[2,0]:   00018e28,00018e44
ram:00018e60    ac240020        undefined4  200024ACh                               
                            PTR_FUN_00017e38+1_00018e64:  ;XREF[1,0]:   00018e32
ram:00018e64    397e0100        addr        FUN_00017e38+1                          
                            DAT_00018e68:                 ;XREF[1,0]:   00018e38
ram:00018e68    f9730100        undefined4  000173F9h                               ;?  ->  000173f9
                            DAT_00018e6c:                 ;XREF[1,0]:   00018e3c
ram:00018e6c    00200020        undefined4  20002000h                               
                            ;************************************************************************************************
                            ;*                                           FUNCTION                                           *
                            ;************************************************************************************************
                            ;undefined8 FUN_00018e70(undefined4 param_1, undefined4 param_2, undefined4 param_3)
          ;param_1       undefined4          r0                      
          ;param_2       undefined4          r1                      
          ;param_3       undefined4          r2                      
                                                          ;XREF[0,1]:   00018ee8
ram:00018e70    10b5            push        {r4,lr}                                 
ram:00018e72    0846            mov         param_1,param_2                         
ram:00018e74    1146            mov         param_2,param_3                         
ram:00018e76    c046            mov         r8,r8                                   
ram:00018e78    c046            mov         r8,r8                                   
ram:00018e7a    10bd            pop         {r4,pc}                                 
                            ;************************************************************************************************
                            ;*                                           FUNCTION                                           *
                            ;************************************************************************************************
                            ;undefined4 FUN_00018e7c(int param_1)
          ;param_1       int                 r0                      
                                                          ;XREF[1,0]:   00017868
ram:00018e7c    0028            cmp         param_1,#0x0                            
ram:00018e7e    03d0            beq         LAB_00018e88                            
ram:00018e80    0249            ldr         r1,[DAT_00018e8c]                       ;= 200020C0h
ram:00018e82    c860            str         param_1,[r1,#0xc]=>DAT_200020cc         
ram:00018e84    0020            movs        param_1,#0x0                            
ram:00018e86    7047            bx          lr                                      
                            LAB_00018e88:                 ;XREF[1,0]:   00018e7e
ram:00018e88    0e20            movs        param_1,#0xe                            
ram:00018e8a    7047            bx          lr                                      
                            DAT_00018e8c:                 ;XREF[1,0]:   00018e80
ram:00018e8c    c0200020        undefined4  200020C0h                               
                            ;************************************************************************************************
                            ;*                                           FUNCTION                                           *
                            ;************************************************************************************************
                            ;undefined LAB_00018e90+1(undefined4 param_1, int param_2)
          ;param_1       undefined4          r0                      
          ;param_2       int                 r1                      
                                                          ;XREF[0,2]:   00018eac,00018eb8
ram:00018e90    10b5            push        {r4,lr}                                 
ram:00018e92    0029            cmp         param_2,#0x0                            
ram:00018e94    04d0            beq         LAB_00018ea0                            
ram:00018e96    0022            movs        r2,#0x0                                 
ram:00018e98    1146            mov         param_2,r2                              
ram:00018e9a    1046            mov         param_1,r2                              
ram:00018e9c    fdf750fd        bl          FUN_00016940                            ;undefined FUN_00016940(void)
                            LAB_00018ea0:                 ;XREF[1,0]:   00018e94
ram:00018ea0    fff794f8        bl          FUN_00017fcc                            ;undefined FUN_00017fcc(void)
ram:00018ea4    10bd            pop         {r4,pc}                                 
ram:00018ea6    0000            movs        r0,r0                                   
                            ;************************************************************************************************
                            ;*                                           FUNCTION                                           *
                            ;************************************************************************************************
                            ;undefined LAB_00018ea8+1(void)
                                                          ;XREF[0,2]:   00017846,00017884
ram:00018ea8    10b5            push        {r4,lr}                                 
ram:00018eaa    0021            movs        r1,#0x0                                 
ram:00018eac    024a            ldr         r2=>LAB_00018e90...,[PTR_LAB_00018e90...;= 00018e91
ram:00018eae    0846            mov         r0,r1                                   
ram:00018eb0    fdf760fe        bl          FUN_00016b74                            ;undefined4 FUN_00016b74(undefined4 *...
ram:00018eb4    10bd            pop         {r4,pc}                                 
ram:00018eb6    0000            movs        r0,r0                                   
                            PTR_LAB_00018e90+1+1_00018eb8:;XREF[1,0]:   00018eac
ram:00018eb8    918e0100        addr        LAB_00018e90+1+1                        
                            ;************************************************************************************************
                            ;*                                           FUNCTION                                           *
                            ;************************************************************************************************
                            ;undefined8 FUN_00018ebc(int param_1, undefined * param_2, undefined2 param_3, undefined4 param_4)
          ;param_1       int                 r0                      
          ;param_2       undefined *         r1                      
          ;param_3       undefined2          r2                      
          ;param_4       undefined4          r3                      
                                                          ;XREF[1,0]:   0001784e
ram:00018ebc    70b5            push        {r4,r5,r6,lr}                           
ram:00018ebe    0029            cmp         param_2,#0x0                            
ram:00018ec0    01d0            beq         LAB_00018ec6                            
ram:00018ec2    8c07            lsls        r4,param_2,#0x1e                        
ram:00018ec4    01d0            beq         LAB_00018eca                            
                            LAB_00018ec6:                 ;XREF[1,0]:   00018ec0
ram:00018ec6    0720            movs        param_1,#0x7                            
                            LAB_00018ec8:                 ;XREF[1,0]:   00018eda
ram:00018ec8    70bd            pop         {r4,r5,r6,pc}                           
                            LAB_00018eca:                 ;XREF[1,0]:   00018ec4
ram:00018eca    064c            ldr         r4,[DAT_00018ee4]                       ;= 200020C0h
ram:00018ecc    0125            movs        r5,#0x1                                 
ram:00018ece    a160            str         param_2,[r4,#0x8]=>DAT_200020c8         
ram:00018ed0    6280            strh        param_3,[r4,#0x2]=>DAT_200020c2         
ram:00018ed2    0549            ldr         param_2,[PTR_FUN_00018e70+1_00018ee8]   ;= 00018e71
ram:00018ed4    6360            str         param_4,[r4,#0x4]=>DAT_200020c4         
ram:00018ed6    10df            svc         0x10                                    
ram:00018ed8    0028            cmp         param_1,#0x0                            
ram:00018eda    f5d1            bne         LAB_00018ec8                            
ram:00018edc    2570            strb        r5,[r4,#0x0]=>DAT_200020c0              
ram:00018ede    1620            movs        param_1,#0x16                           
ram:00018ee0    26df            svc         0x26                                    
ram:00018ee2    70bd            pop         {r4,r5,r6,pc}                           
                            DAT_00018ee4:                 ;XREF[1,0]:   00018eca
ram:00018ee4    c0200020        undefined4  200020C0h                               
                            PTR_FUN_00018e70+1_00018ee8:  ;XREF[1,0]:   00018ed2
ram:00018ee8    718e0100        addr        FUN_00018e70+1                          
                            ;************************************************************************************************
                            ;*                                           FUNCTION                                           *
                            ;************************************************************************************************
                            ;undefined4 FUN_00018eec(int param_1)
          ;param_1       int                 r0                      
                                                          ;XREF[1,0]:   00017872
ram:00018eec    0028            cmp         param_1,#0x0                            
ram:00018eee    03d0            beq         LAB_00018ef8                            
ram:00018ef0    0249            ldr         r1,[DAT_00018efc]                       ;= 200020C0h
ram:00018ef2    0861            str         param_1,[r1,#0x10]=>DAT_200020d0        
ram:00018ef4    0020            movs        param_1,#0x0                            
ram:00018ef6    7047            bx          lr                                      
                            LAB_00018ef8:                 ;XREF[1,0]:   00018eee
ram:00018ef8    0e20            movs        param_1,#0xe                            
ram:00018efa    7047            bx          lr                                      
                            DAT_00018efc:                 ;XREF[1,0]:   00018ef0
ram:00018efc    c0200020        undefined4  200020C0h                               
                            ;************************************************************************************************
                            ;*                                           FUNCTION                                           *
                            ;************************************************************************************************
                            ;undefined FUN_00018f00(undefined4 param_1, undefined4 param_2, undefined4 param_3, uint param_4)
          ;param_1       undefined4          r0                      
          ;param_2       undefined4          r1                      
          ;param_3       undefined4          r2                      
          ;param_4       uint                r3                      
                                                          ;XREF[0,2]:   000190ac,000190c4
ram:00018f00    10b5            push        {r4,lr}                                 
ram:00018f02    0748            ldr         param_1=>DAT_20002000,[DAT_00018f20]    ;= 20002000h
ram:00018f04    0178            ldrb        param_2,[param_1,#0x0]=>DAT_20002000    
ram:00018f06    0029            cmp         param_2,#0x0                            
ram:00018f08    02d0            beq         LAB_00018f10                            
ram:00018f0a    fef7ddf9        bl          FUN_000172c8                            ;undefined FUN_000172c8(void)
                            LAB_00018f0e:                 ;XREF[1,0]:   00018f14
ram:00018f0e    10bd            pop         {r4,pc}                                 
                            LAB_00018f10:                 ;XREF[1,0]:   00018f08
ram:00018f10    4178            ldrb        param_2,[param_1,#offset DAT_20002001...
ram:00018f12    0029            cmp         param_2,#0x0                            
ram:00018f14    fbd0            beq         LAB_00018f0e                            
ram:00018f16    8078            ldrb        param_1,[param_1,#offset DAT_20002002...
ram:00018f18    fef750fa        bl          FUN_000173bc                            ;undefined FUN_000173bc(undefined4 pa...
ram:00018f1c    10bd            pop         {r4,pc}                                 
ram:00018f1e    0000            movs        r0,r0                                   
                            DAT_00018f20:                 ;XREF[1,0]:   00018f02
ram:00018f20    00200020        undefined4  20002000h                               
                            ;************************************************************************************************
                            ;*                                           FUNCTION                                           *
                            ;************************************************************************************************
                            ;undefined FUN_00018f24(undefined4 param_1, undefined4 param_2, uint param_3, uint param_4)
          ;param_1       undefined4          r0                      
          ;param_2       undefined4          r1                      
          ;param_3       uint                r2                      
          ;param_4       uint                r3                      
          ;local_18      undefined4         -18                      ;XREF[1,0]:   00018f2c
          ;local_1c      undefined4         -1c                      ;XREF[2,0]:   00018f2e,00018f46
          ;local_2c      undefined4         -2c                      ;XREF[1,0]:   00018f38
          ;local_30      undefined4         -30                      ;XREF[1,0]:   00018f50
                                                          ;XREF[1,0]:   00017a3a
ram:00018f24    ffb5            push        {param_1,param_2,param_3,param_4,r4,r...
ram:00018f26    83b0            sub         sp,#0xc                                 
ram:00018f28    0f46            mov         r7,param_2                              
ram:00018f2a    594d            ldr         r5,[DAT_00019090]                       ;= 20002058h
ram:00018f2c    069a            ldr         param_3,[sp,#local_18+0x30]             
ram:00018f2e    0599            ldr         param_2,[sp,#local_1c+0x30]             
ram:00018f30    0646            mov         r6,param_1                              
ram:00018f32    6b78            ldrb        param_4,[r5,#0x1]=>DAT_20002059         
ram:00018f34    1143            orrs        param_2,param_3                         
ram:00018f36    0320            movs        param_1,#0x3                            
ram:00018f38    0191            str         param_2,[sp,#local_2c+0x30]             
ram:00018f3a    002b            cmp         param_4,#0x0                            
ram:00018f3c    03d1            bne         LAB_00018f46                            
ram:00018f3e    0029            cmp         param_2,#0x0                            
ram:00018f40    0fd0            beq         LAB_00018f62                            
ram:00018f42    0121            movs        param_2,#0x1                            
                            LAB_00018f44:                 ;XREF[1,0]:   00018f64
ram:00018f44    6970            strb        param_2,[r5,#0x1]=>DAT_20002059         
                            LAB_00018f46:                 ;XREF[1,0]:   00018f3c
ram:00018f46    059a            ldr         param_3,[sp,#local_1c+0x30]             
ram:00018f48    6978            ldrb        param_2,[r5,#0x1]=>DAT_20002059         
ram:00018f4a    0124            movs        r4,#0x1                                 
ram:00018f4c    9200            lsls        param_3,param_3,#0x2                    
ram:00018f4e    2407            lsls        r4,r4,#0x1c                             
ram:00018f50    0092            str         param_3,[sp,#0x0]=>local_30             
ram:00018f52    0b00            movs        param_4,param_2                         
                                                          ; FWD[4,0]:   00016500,00018f58,00018f5a,00018f5b
ram:00018f54    fdf7d4fa        bl          __ARM_common_switch8                    ;undefined __ARM_common_switch8(void)
                                                                                    ;= 07h
                                                                                    ;= 21h
                            DAT_00018f58:                 ;XREF[1,0]:   00018f54
ram:00018f58    07              undefined1  07h                                     
ram:00018f59    32              ??          32h    2                                
                            DAT_00018f5a:                 ;XREF[1,0]:   00018f54
ram:00018f5a    07              undefined1  07h                                     
                            DAT_00018f5b:                 ;XREF[1,0]:   00018f54
ram:00018f5b    21              undefined1  21h                                     
ram:00018f5c    34              ??          34h    4                                
ram:00018f5d    54              ??          54h    T                                
ram:00018f5e    74              ??          74h    t                                
ram:00018f5f    83              ??          83h                                     
ram:00018f60    32              ??          32h    2                                
ram:00018f61    00              ??          00h                                     
                            LAB_00018f62:                 ;XREF[1,0]:   00018f40
ram:00018f62    0221            movs        param_2,#0x2                            
ram:00018f64    eee7            b           LAB_00018f44                            
ram:00018f66    4b48            ldr         r0,[DAT_00019094]                       ;= 10001000h
ram:00018f68    4169            ldr         r1,[r0,#offset DAT_10001014 &0xff]      
ram:00018f6a    491c            adds        r1,r1,#0x1                              
ram:00018f6c    05d0            beq         FUN_00018f7a                            
ram:00018f6e    2169            ldr         r1,[r4,#0x10]                           
ram:00018f70    4069            ldr         r0,[r0,#offset DAT_10001014 &0xff]      
ram:00018f72    89b2            uxth        r1,r1                                   
ram:00018f74    fdf7fcf8        bl          FUN_00016170                            ;int FUN_00016170(uint param_1, uint ...
ram:00018f78    00e0            b           LAB_00018f7c                            
                            ;************************************************************************************************
                            ;*                                           FUNCTION                                           *
                            ;************************************************************************************************
                            ;undefined FUN_00018f7a(void)
                                                          ;XREF[1,0]:   00018f6c
ram:00018f7a    6069            ldr         r0,[r4,#0x14]                           
                            LAB_00018f7c:                 ;XREF[1,0]:   00018f78
ram:00018f7c    2169            ldr         r1,[r4,#0x10]                           
ram:00018f7e    401e            subs        r0,r0,#0x1                              
ram:00018f80    89b2            uxth        r1,r1                                   
ram:00018f82    4843            muls        r0,r1                                   
ram:00018f84    2169            ldr         r1,[r4,#0x10]                           
ram:00018f86    0904            lsls        r1,r1,#0x10                             
ram:00018f88    8a0c            lsrs        r2,r1,#0x12                             
ram:00018f8a    2169            ldr         r1,[r4,#0x10]                           
ram:00018f8c    89b2            uxth        r1,r1                                   
ram:00018f8e    7943            muls        r1,r7                                   
ram:00018f90    21df            svc         0x21                                    
ram:00018f92    0028            cmp         r0,#0x0                                 
ram:00018f94    12d1            bne         LAB_00018fbc                            
ram:00018f96    0221            movs        r1,#0x2                                 
ram:00018f98    0fe0            b           LAB_00018fba                            
ram:00018f9a    3846            mov         r0,r7                                   
ram:00018f9c    20df            svc         0x20                                    
ram:00018f9e    0028            cmp         r0,#0x0                                 
ram:00018fa0    0cd1            bne         LAB_00018fbc                            
ram:00018fa2    0599            ldr         r1,[sp,#0x14]                           
ram:00018fa4    0029            cmp         r1,#0x0                                 
ram:00018fa6    01d0            beq         FUN_00018fac                            
ram:00018fa8    0321            movs        r1,#0x3                                 
ram:00018faa    06e0            b           LAB_00018fba                            
                            ;************************************************************************************************
                            ;*                                           FUNCTION                                           *
                            ;************************************************************************************************
                            ;undefined FUN_00018fac(undefined param_1, undefined param_2, undefined param_3, undefined param_4, undefined param_5, undefined param_6, undefined param_7, undefined param_8, undefined param_9, undefined param_10, undefined4 param_11)
          ;param_1       undefined           r0                      
          ;param_2       undefined           r1                      
          ;param_3       undefined           r2                      
          ;param_4       undefined           r3                      
          ;param_5       undefined            0                      
          ;param_6       undefined            4                      
          ;param_7       undefined            8                      
          ;param_8       undefined            c                      
          ;param_9       undefined           10                      
          ;param_10      undefined           14                      
          ;param_11      undefined4          18                      ;XREF[1,0]:   00018fac
                                                          ;XREF[1,0]:   00018fa6
ram:00018fac    0699            ldr         param_2,[sp,#param_11]                  
ram:00018fae    0029            cmp         param_2,#0x0                            
ram:00018fb0    1fd1            bne         LAB_00018ff2                            
ram:00018fb2    3178            ldrb        param_2,[r6,#0x0]                       
ram:00018fb4    0429            cmp         param_2,#0x4                            
ram:00018fb6    68d0            beq         LAB_0001908a                            
ram:00018fb8    20e0            b           LAB_00018ffc                            
                            LAB_00018fba:                 ;XREF[6,0]:   00018f98,00018faa,00018ff4,00018ffe
                                                          ;             0001905c,0001908c
ram:00018fba    6970            strb        r1,[r5,#0x1]                            
                            LAB_00018fbc:                 ;XREF[6,0]:   00018f94,00018fa0,00018fea,0001903e
                                                          ;             00019052,00019088
ram:00018fbc    07b0            add         sp,#0x1c                                
ram:00018fbe    f0bd            pop         {r4,r5,r6,r7,pc}                        
ram:00018fc0    3448            ldr         r0,[DAT_00019094]                       ;= 10001000h
ram:00018fc2    4169            ldr         r1,[r0,#offset DAT_10001014 &0xff]      
ram:00018fc4    491c            adds        r1,r1,#0x1                              
ram:00018fc6    05d0            beq         FUN_00018fd4                            
ram:00018fc8    2169            ldr         r1,[r4,#0x10]                           
ram:00018fca    4069            ldr         r0,[r0,#offset DAT_10001014 &0xff]      
ram:00018fcc    89b2            uxth        r1,r1                                   
ram:00018fce    fdf7cff8        bl          FUN_00016170                            ;int FUN_00016170(uint param_1, uint ...
ram:00018fd2    00e0            b           LAB_00018fd6                            
                            ;************************************************************************************************
                            ;*                                           FUNCTION                                           *
                            ;************************************************************************************************
                            ;undefined FUN_00018fd4(undefined param_1, undefined param_2, undefined param_3, undefined param_4, undefined param_5, undefined param_6, undefined param_7, undefined param_8, undefined param_9, undefined4 param_10, undefined4 param_11)
          ;param_1       undefined           r0                      
          ;param_2       undefined           r1                      
          ;param_3       undefined           r2                      
          ;param_4       undefined           r3                      
          ;param_5       undefined            0                      
          ;param_6       undefined            4                      
          ;param_7       undefined            8                      
          ;param_8       undefined            c                      
          ;param_9       undefined           10                      
          ;param_10      undefined4          14                      ;XREF[1,0]:   00018fe0
          ;param_11      undefined4          18                      ;XREF[1,0]:   00018fec
                                                          ;XREF[1,0]:   00018fc6
ram:00018fd4    6069            ldr         param_1,[r4,#0x14]                      
                            LAB_00018fd6:                 ;XREF[1,0]:   00018fd2
ram:00018fd6    2169            ldr         param_2,[r4,#0x10]                      
ram:00018fd8    401e            subs        param_1,param_1,#0x1                    
ram:00018fda    89b2            uxth        param_2,param_2                         
ram:00018fdc    4143            muls        param_2,param_1                         
ram:00018fde    2069            ldr         param_1,[r4,#0x10]                      
ram:00018fe0    059a            ldr         param_3,[sp,#param_10]                  
ram:00018fe2    80b2            uxth        param_1,param_1                         
ram:00018fe4    7843            muls        param_1,r7                              
ram:00018fe6    21df            svc         0x21                                    
ram:00018fe8    0028            cmp         param_1,#0x0                            
ram:00018fea    e7d1            bne         LAB_00018fbc                            
ram:00018fec    0699            ldr         param_2,[sp,#param_11]                  
ram:00018fee    0029            cmp         param_2,#0x0                            
ram:00018ff0    01d0            beq         LAB_00018ff6                            
                            LAB_00018ff2:                 ;XREF[1,0]:   00018fb0
ram:00018ff2    0421            movs        param_2,#0x4                            
ram:00018ff4    e1e7            b           LAB_00018fba                            
                            LAB_00018ff6:                 ;XREF[2,0]:   00018ff0,0001903c
ram:00018ff6    3178            ldrb        param_2,[r6,#0x0]                       
ram:00018ff8    0429            cmp         param_2,#0x4                            
ram:00018ffa    2ed0            beq         LAB_0001905a                            
                            LAB_00018ffc:                 ;XREF[1,0]:   00018fb8
ram:00018ffc    0521            movs        param_2,#0x5                            
ram:00018ffe    dce7            b           LAB_00018fba                            
                            ;************************************************************************************************
                            ;*                                           FUNCTION                                           *
                            ;************************************************************************************************
                            ;undefined FUN_00019000(undefined param_1, undefined param_2, undefined param_3, undefined param_4, undefined4 param_5, undefined param_6, undefined param_7, undefined param_8, undefined param_9, undefined param_10, undefined4 param_11)
          ;param_1       undefined           r0                      
          ;param_2       undefined           r1                      
          ;param_3       undefined           r2                      
          ;param_4       undefined           r3                      
          ;param_5       undefined4           0                      ;XREF[2,0]:   00019022,0001902e
          ;param_6       undefined            4                      
          ;param_7       undefined            8                      
          ;param_8       undefined            c                      
          ;param_9       undefined           10                      
          ;param_10      undefined           14                      
          ;param_11      undefined4          18                      ;XREF[1,0]:   00019036
                                                          ;XREF[1,0]:   000182cc
ram:00019000    2448            ldr         param_1,[DAT_00019094]                  ;= 10001000h
ram:00019002    4169            ldr         param_2,[param_1,#offset DAT_10001014...
ram:00019004    491c            adds        param_2,param_2,#0x1                    
ram:00019006    05d0            beq         LAB_00019014                            
ram:00019008    2169            ldr         param_2,[r4,#0x10]                      
ram:0001900a    4069            ldr         param_1,[param_1,#offset DAT_10001014...
ram:0001900c    89b2            uxth        param_2,param_2                         
ram:0001900e    fdf7aff8        bl          FUN_00016170                            ;int FUN_00016170(uint param_1, uint ...
ram:00019012    00e0            b           LAB_00019016                            
                            LAB_00019014:                 ;XREF[1,0]:   00019006
ram:00019014    6069            ldr         param_1,[r4,#0x14]                      
                            LAB_00019016:                 ;XREF[1,0]:   00019012
ram:00019016    2169            ldr         param_2,[r4,#0x10]                      
ram:00019018    401e            subs        param_1,param_1,#0x1                    
ram:0001901a    89b2            uxth        param_2,param_2                         
ram:0001901c    4843            muls        param_1,param_2                         
ram:0001901e    7188            ldrh        param_2,[r6,#0x2]                       
ram:00019020    4218            adds        param_3,param_1,param_2                 
ram:00019022    0098            ldr         param_1,[sp,#0x0]=>param_5              
ram:00019024    1018            adds        param_1,param_3,param_1                 
ram:00019026    2269            ldr         param_3,[r4,#0x10]                      
ram:00019028    92b2            uxth        param_3,param_3                         
ram:0001902a    7a43            muls        param_3,r7                              
ram:0001902c    5218            adds        param_3,param_3,param_2                 
ram:0001902e    0099            ldr         param_2,[sp,#0x0]=>param_5              
ram:00019030    5318            adds        param_4,param_3,param_2                 
ram:00019032    0146            mov         param_2,param_1                         
ram:00019034    1846            mov         param_1,param_4                         
ram:00019036    069a            ldr         param_3,[sp,#param_11]                  
ram:00019038    21df            svc         0x21                                    
ram:0001903a    0028            cmp         param_1,#0x0                            
ram:0001903c    dbd0            beq         LAB_00018ff6                            
ram:0001903e    bde7            b           LAB_00018fbc                            
ram:00019040    2069            ldr         r0,[r4,#0x10]                           
ram:00019042    7188            ldrh        r1,[r6,#0x2]                            
ram:00019044    80b2            uxth        r0,r0                                   
ram:00019046    7843            muls        r0,r7                                   
ram:00019048    8018            adds        r0,r0,r2                                
ram:0001904a    8a08            lsrs        r2,r1,#0x2                              
ram:0001904c    3169            ldr         r1,[r6,#0x10]                           
ram:0001904e    21df            svc         0x21                                    
ram:00019050    0028            cmp         r0,#0x0                                 
ram:00019052    b3d1            bne         LAB_00018fbc                            
ram:00019054    0199            ldr         r1,[sp,#0x4]                            
ram:00019056    0029            cmp         r1,#0x0                                 
ram:00019058    17d0            beq         LAB_0001908a                            
                            LAB_0001905a:                 ;XREF[1,0]:   00018ffa
ram:0001905a    0621            movs        param_2,#0x6                            
ram:0001905c    ade7            b           LAB_00018fba                            
ram:0001905e    0d48            ldr         r0,[DAT_00019094]                       ;= 10001000h
ram:00019060    4169            ldr         r1,[r0,#offset DAT_10001014 &0xff]      
ram:00019062    491c            adds        r1,r1,#0x1                              
ram:00019064    05d0            beq         FUN_00019072                            
ram:00019066    2169            ldr         r1,[r4,#0x10]                           
ram:00019068    4069            ldr         r0,[r0,#offset DAT_10001014 &0xff]      
ram:0001906a    89b2            uxth        r1,r1                                   
ram:0001906c    fdf780f8        bl          FUN_00016170                            ;int FUN_00016170(uint param_1, uint ...
ram:00019070    00e0            b           LAB_00019074                            
                            ;************************************************************************************************
                            ;*                                           FUNCTION                                           *
                            ;************************************************************************************************
                            ;undefined FUN_00019072(void)
                                                          ;XREF[1,0]:   00019064
ram:00019072    6069            ldr         r0,[r4,#0x14]                           
                            LAB_00019074:                 ;XREF[1,0]:   00019070
ram:00019074    2169            ldr         r1,[r4,#0x10]                           
ram:00019076    401e            subs        r0,r0,#0x1                              
ram:00019078    89b2            uxth        r1,r1                                   
ram:0001907a    4843            muls        r0,r1                                   
ram:0001907c    2169            ldr         r1,[r4,#0x10]                           
ram:0001907e    89b2            uxth        r1,r1                                   
ram:00019080    fdf776f8        bl          FUN_00016170                            ;int FUN_00016170(uint param_1, uint ...
ram:00019084    20df            svc         0x20                                    
ram:00019086    0028            cmp         r0,#0x0                                 
ram:00019088    98d1            bne         LAB_00018fbc                            
                            LAB_0001908a:                 ;XREF[2,0]:   00018fb6,00019058
ram:0001908a    0721            movs        param_2,#0x7                            
ram:0001908c    95e7            b           LAB_00018fba                            
ram:0001908e    0000            movs        r0,r0                                   
                            DAT_00019090:                 ;XREF[1,0]:   00018f2a
ram:00019090    58200020        undefined4  20002058h                               
                            DAT_00019094:                 ;XREF[4,0]:   00018f66,00018fc0,00019000,0001905e
ram:00019094    00100010        undefined4  10001000h                               
                            ;************************************************************************************************
                            ;*                                           FUNCTION                                           *
                            ;************************************************************************************************
                            ;undefined LAB_00019098+1(int param_1, undefined4 param_2, undefined4 param_3, uint param_4)
          ;param_1       int                 r0                      
          ;param_2       undefined4          r1                      
          ;param_3       undefined4          r2                      
          ;param_4       uint                r3                      
          ;local_8       undefined4          -8                      ;XREF[1,0]:   000190a4
                                                          ;XREF[0,2]:   00017870,00017890
ram:00019098    08b5            push        {param_4,lr}                            
ram:0001909a    fff7a3fd        bl          FUN_00018be4                            ;undefined FUN_00018be4(int param_1)
ram:0001909e    6846            mov         param_1,sp                              
ram:000190a0    fff734fc        bl          FUN_0001890c                            ;undefined4 FUN_0001890c(uint * param_1)
ram:000190a4    0099            ldr         param_2,[sp,#0x0]=>local_8              
ram:000190a6    0843            orrs        param_1,param_2                         
ram:000190a8    0ad1            bne         LAB_000190c0                            
ram:000190aa    0021            movs        param_2,#0x0                            
ram:000190ac    054a            ldr         param_3=>FUN_000...,[PTR_FUN_00018f00...;= 00018f01
ram:000190ae    0846            mov         param_1,param_2                         
ram:000190b0    fdf760fd        bl          FUN_00016b74                            ;undefined4 FUN_00016b74(undefined4 *...
ram:000190b4    0028            cmp         param_1,#0x0                            
ram:000190b6    03d0            beq         LAB_000190c0                            
ram:000190b8    0022            movs        param_3,#0x0                            
ram:000190ba    1146            mov         param_2,param_3                         
ram:000190bc    fdf740fc        bl          FUN_00016940                            ;undefined FUN_00016940(void)
                            LAB_000190c0:                 ;XREF[2,0]:   000190a8,000190b6
ram:000190c0    08bd            pop         {param_4,pc}                            
ram:000190c2    0000            movs        r0,r0                                   
                            PTR_FUN_00018f00+1_000190c4:  ;XREF[1,0]:   000190ac
ram:000190c4    018f0100        addr        FUN_00018f00+1                          
                            ;************************************************************************************************
                            ;*                                           FUNCTION                                           *
                            ;************************************************************************************************
                            ;undefined FUN_000190c8(void)
                                                          ;XREF[3,0]:   00016e2a,00016e8a,0001921e
ram:000190c8    0120            movs        r0,#0x1                                 
ram:000190ca    0249            ldr         r1,[DAT_000190d4]                       ;= E000E200h
ram:000190cc    0005            lsls        r0,r0,#0x14                             
ram:000190ce    0860            str         r0,[r1,#0x0]=>DAT_e000e200              
ram:000190d0    7047            bx          lr                                      
ram:000190d2    0000            movs        r0,r0                                   
                            DAT_000190d4:                 ;XREF[1,0]:   000190ca
ram:000190d4    00e200e0        undefined4  E000E200h                               
                            ;************************************************************************************************
                            ;*                                           FUNCTION                                           *
                            ;************************************************************************************************
                            ;undefined FUN_000190d8(int param_1)
          ;param_1       int                 r0                      
                                                          ;XREF[1,0]:   00018442
ram:000190d8    f0b5            push        {r4,r5,r6,r7,lr}                        
ram:000190da    174f            ldr         r7,[DAT_00019138]                       ;= 2000209Ch
ram:000190dc    2421            movs        r1,#0x24                                
ram:000190de    bc68            ldr         r4,[r7,#0x8]=>DAT_200020a4              
ram:000190e0    4143            muls        r1,param_1                              
ram:000190e2    0d19            adds        r5,r1,r4                                
ram:000190e4    3969            ldr         r1,[r7,#0x10]=>DAT_200020ac             
ram:000190e6    4a1c            adds        r2,r1,#0x1                              
ram:000190e8    09d0            beq         LAB_000190fe                            
ram:000190ea    2422            movs        r2,#0x24                                
ram:000190ec    4a43            muls        r2,r1                                   
ram:000190ee    1619            adds        r6,r2,r4                                
ram:000190f0    6b68            ldr         r3,[r5,#0x4]                            
ram:000190f2    7268            ldr         r2,[r6,#0x4]                            
ram:000190f4    9342            cmp         r3,r2                                   
ram:000190f6    04d8            bhi         LAB_00019102                            
ram:000190f8    d21a            subs        r2,r2,r3                                
ram:000190fa    7260            str         r2,[r6,#0x4]                            
ram:000190fc    2962            str         r1,[r5,#0x20]                           
                            LAB_000190fe:                 ;XREF[1,0]:   000190e8
ram:000190fe    3861            str         param_1,[r7,#0x10]=>DAT_200020ac        
ram:00019100    f0bd            pop         {r4,r5,r6,r7,pc}                        
                            LAB_00019102:                 ;XREF[1,0]:   000190f6
ram:00019102    0a46            mov         r2,r1                                   
ram:00019104    02e0            b           LAB_0001910c                            
                            LAB_00019106:                 ;XREF[1,0]:   0001911a
ram:00019106    0a46            mov         r2,r1                                   
ram:00019108    396a            ldr         r1,[r7,#0x20]                           
ram:0001910a    9b1b            subs        r3,r3,r6                                
                            LAB_0001910c:                 ;XREF[1,0]:   00019104
ram:0001910c    4e1c            adds        r6,r1,#0x1                              
ram:0001910e    0bd0            beq         LAB_00019128                            
ram:00019110    2426            movs        r6,#0x24                                
ram:00019112    4e43            muls        r6,r1                                   
ram:00019114    3719            adds        r7,r6,r4                                
ram:00019116    7e68            ldr         r6,[r7,#0x4]                            
ram:00019118    9e42            cmp         r6,r3                                   
ram:0001911a    f4d3            bcc         LAB_00019106                            
ram:0001911c    2426            movs        r6,#0x24                                
ram:0001911e    4e43            muls        r6,r1                                   
ram:00019120    3619            adds        r6,r6,r4                                
ram:00019122    7768            ldr         r7,[r6,#0x4]                            
ram:00019124    ff1a            subs        r7,r7,r3                                
ram:00019126    7760            str         r7,[r6,#0x4]                            
                            LAB_00019128:                 ;XREF[1,0]:   0001910e
ram:00019128    6b60            str         r3,[r5,#0x4]                            
ram:0001912a    2962            str         r1,[r5,#0x20]                           
ram:0001912c    2421            movs        r1,#0x24                                
ram:0001912e    4a43            muls        r2,r1                                   
ram:00019130    1119            adds        r1,r2,r4                                
ram:00019132    0862            str         param_1,[r1,#0x20]                      
ram:00019134    f0bd            pop         {r4,r5,r6,r7,pc}                        
ram:00019136    0000            movs        r0,r0                                   
                            DAT_00019138:                 ;XREF[1,0]:   000190da
ram:00019138    9c200020        undefined4  2000209Ch                               
                            ;************************************************************************************************
                            ;*                                           FUNCTION                                           *
                            ;************************************************************************************************
                            ;undefined FUN_0001913c(int param_1)
          ;param_1       int                 r0                      
                                                          ;XREF[1,0]:   0001833e
ram:0001913c    70b5            push        {r4,r5,r6,lr}                           
ram:0001913e    194c            ldr         r4,[DAT_000191a4]                       ;= 2000209Ch
ram:00019140    2269            ldr         r2,[r4,#0x10]=>DAT_200020ac             
ram:00019142    a568            ldr         r5,[r4,#0x8]=>DAT_200020a4              
ram:00019144    1346            mov         r3,r2                                   
ram:00019146    1146            mov         r1,r2                                   
ram:00019148    06e0            b           LAB_00019158                            
                            LAB_0001914a:                 ;XREF[1,0]:   0001915a
ram:0001914a    8142            cmp         r1,param_1                              
ram:0001914c    07d0            beq         LAB_0001915e                            
ram:0001914e    0a46            mov         r2,r1                                   
ram:00019150    2426            movs        r6,#0x24                                
ram:00019152    7143            muls        r1,r6                                   
ram:00019154    4919            adds        r1,r1,r5                                
ram:00019156    096a            ldr         r1,[r1,#0x20]                           
                            LAB_00019158:                 ;XREF[1,0]:   00019148
ram:00019158    4e1c            adds        r6,r1,#0x1                              
ram:0001915a    f6d1            bne         LAB_0001914a                            
                            LAB_0001915c:                 ;XREF[2,0]:   00019160,00019194
ram:0001915c    70bd            pop         {r4,r5,r6,pc}                           
                            LAB_0001915e:                 ;XREF[1,0]:   0001914c
ram:0001915e    002e            cmp         r6,#0x0                                 
ram:00019160    fcd0            beq         LAB_0001915c                            
ram:00019162    8a42            cmp         r2,r1                                   
ram:00019164    0cd1            bne         LAB_00019180                            
ram:00019166    2420            movs        param_1,#0x24                           
ram:00019168    4343            muls        r3,param_1                              
ram:0001916a    5819            adds        param_1,r3,r5                           
ram:0001916c    006a            ldr         param_1,[param_1,#0x20]                 
ram:0001916e    2061            str         param_1,[r4,#0x10]=>DAT_200020ac        
ram:00019170    401c            adds        param_1,param_1,#0x1                    
ram:00019172    05d1            bne         LAB_00019180                            
ram:00019174    0c4b            ldr         r3,[DAT_000191a8]                       ;= 40011000h
ram:00019176    0120            movs        param_1,#0x1                            
ram:00019178    9860            str         param_1,[r3,#offset DAT_40011008 &0xff] 
ram:0001917a    0023            movs        r3,#0x0                                 
ram:0001917c    6361            str         r3,[r4,#0x14]=>DAT_200020b0             
ram:0001917e    6071            strb        param_1,[r4,#0x5]=>DAT_200020a1         
                            LAB_00019180:                 ;XREF[2,0]:   00019164,00019172
ram:00019180    2420            movs        param_1,#0x24                           
ram:00019182    4143            muls        r1,param_1                              
ram:00019184    4819            adds        param_1,r1,r5                           
ram:00019186    2423            movs        r3,#0x24                                
ram:00019188    4168            ldr         r1,[param_1,#0x4]                       
ram:0001918a    5a43            muls        r2,r3                                   
ram:0001918c    006a            ldr         param_1,[param_1,#0x20]                 
ram:0001918e    5219            adds        r2,r2,r5                                
ram:00019190    1062            str         param_1,[r2,#0x20]                      
ram:00019192    421c            adds        r2,param_1,#0x1                         
ram:00019194    e2d0            beq         LAB_0001915c                            
ram:00019196    2422            movs        r2,#0x24                                
ram:00019198    5043            muls        param_1,r2                              
ram:0001919a    4019            adds        param_1,param_1,r5                      
ram:0001919c    4268            ldr         r2,[param_1,#0x4]                       
ram:0001919e    5118            adds        r1,r2,r1                                
ram:000191a0    4160            str         r1,[param_1,#0x4]                       
ram:000191a2    70bd            pop         {r4,r5,r6,pc}                           
                            DAT_000191a4:                 ;XREF[1,0]:   0001913e
ram:000191a4    9c200020        undefined4  2000209Ch                               
                            DAT_000191a8:                 ;XREF[1,0]:   00019174
ram:000191a8    00100140        undefined4  40011000h                               
                            ;************************************************************************************************
                            ;*                                           FUNCTION                                           *
                            ;************************************************************************************************
                            ;undefined FUN_000191ac(void)
                                                          ;XREF[1,0]:   000163aa
ram:000191ac    f8b5            push        {r3,r4,r5,r6,r7,lr}                     
ram:000191ae    1d4c            ldr         r4,[DAT_00019224]                       ;= 2000209Ch
ram:000191b0    2569            ldr         r5,[r4,#0x10]=>DAT_200020ac             
ram:000191b2    681c            adds        r0,r5,#0x1                              
ram:000191b4    35d0            beq         LAB_00019222                            
ram:000191b6    1c48            ldr         r0,[DAT_00019228]                       ;= 40011500h
ram:000191b8    0026            movs        r6,#0x0                                 
ram:000191ba    4068            ldr         r0,[r0,#offset DAT_40011504 &0xff]      
ram:000191bc    6169            ldr         r1,[r4,#0x14]=>DAT_200020b0             
ram:000191be    401a            subs        r0,r0,r1                                
ram:000191c0    0702            lsls        r7,r0,#0x8                              
ram:000191c2    3f0a            lsrs        r7,r7,#0x8                              
ram:000191c4    19e0            b           LAB_000191fa                            
                            LAB_000191c6:                 ;XREF[1,0]:   000191fc
ram:000191c6    2420            movs        r0,#0x24                                
ram:000191c8    4543            muls        r5,r0                                   
ram:000191ca    a068            ldr         r0,[r4,#0x8]=>DAT_200020a4              
ram:000191cc    2a18            adds        r2,r5,r0                                
ram:000191ce    5068            ldr         r0,[r2,#0x4]                            
ram:000191d0    b842            cmp         r0,r7                                   
ram:000191d2    14d8            bhi         LAB_000191fe                            
ram:000191d4    a369            ldr         r3,[r4,#0x18]=>DAT_200020b4             
ram:000191d6    3f1a            subs        r7,r7,r0                                
ram:000191d8    8619            adds        r6,r0,r6                                
ram:000191da    156a            ldr         r5,[r2,#0x20]                           
ram:000191dc    002b            cmp         r3,#0x0                                 
ram:000191de    09d0            beq         LAB_000191f4                            
ram:000191e0    d169            ldr         r1,[r2,#0x1c]                           
ram:000191e2    9069            ldr         r0,[r2,#0x18]                           
ram:000191e4    9847            blx         r3                                      
ram:000191e6    0028            cmp         r0,#0x0                                 
ram:000191e8    07d0            beq         LAB_000191fa                            
ram:000191ea    0022            movs        r2,#0x0                                 
ram:000191ec    1146            mov         r1,r2                                   
ram:000191ee    fdf7a7fb        bl          FUN_00016940                            ;undefined FUN_00016940(void)
ram:000191f2    02              ??          02h                                     
ram:000191f3    e0              ??          E0h                                     
                            LAB_000191f4:                 ;XREF[1,0]:   000191de
ram:000191f4    9169            ldr         r1,[r2,#0x18]                           
ram:000191f6    d069            ldr         r0,[r2,#0x1c]                           
ram:000191f8    8847            blx         r1                                      
                            LAB_000191fa:                 ;XREF[2,0]:   000191c4,000191e8
ram:000191fa    681c            adds        r0,r5,#0x1                              
ram:000191fc    e3d1            bne         LAB_000191c6                            
                            LAB_000191fe:                 ;XREF[1,0]:   000191d2
ram:000191fe    a178            ldrb        r1,[r4,#0x2]=>DAT_2000209e              
ram:00019200    e078            ldrb        r0,[r4,#0x3]=>DAT_2000209f              
ram:00019202    8142            cmp         r1,r0                                   
ram:00019204    06d1            bne         LAB_00019214                            
ram:00019206    401c            adds        r0,r0,#0x1                              
ram:00019208    c0b2            uxtb        r0,r0                                   
ram:0001920a    e070            strb        r0,[r4,#0x3]=>DAT_2000209f              
ram:0001920c    0228            cmp         r0,#0x2                                 
ram:0001920e    01d1            bne         LAB_00019214                            
ram:00019210    0020            movs        r0,#0x0                                 
ram:00019212    e070            strb        r0,[r4,#0x3]=>DAT_2000209f              
                            LAB_00019214:                 ;XREF[2,0]:   00019204,0001920e
ram:00019214    0349            ldr         r1,[DAT_00019224]                       ;= 2000209Ch
ram:00019216    0006            lsls        r0,r0,#0x18                             
ram:00019218    800d            lsrs        r0,r0,#0x16                             
ram:0001921a    1c31            adds        r1=>DAT_200020b8,#0x1c                  
ram:0001921c    0e50            str         r6,[r1,r0]=>DAT_200020b8                
ram:0001921e    fff753ff        bl          FUN_000190c8                            ;undefined FUN_000190c8(void)
                            LAB_00019222:                 ;XREF[1,0]:   000191b4
ram:00019222    f8bd            pop         {r3,r4,r5,r6,r7,pc}                     
                            DAT_00019224:                 ;XREF[2,0]:   000191ae,00019214
ram:00019224    9c200020        undefined4  2000209Ch                               
                            DAT_00019228:                 ;XREF[1,0]:   000191b6
ram:00019228    00150140        undefined4  40011500h                               
                            ;************************************************************************************************
                            ;*                                           FUNCTION                                           *
                            ;************************************************************************************************
                            ;undefined4 FUN_0001922c(undefined4 param_1, undefined * param_2)
          ;param_1       undefined4          r0                      
          ;param_2       undefined *         r1                      
                                                          ;XREF[5,0]:   0001661a,00017c00,00017c10,0001857a
                                                          ;             00018dd8
ram:0001922c    0870            strb        param_1,[param_2,#0x0]                  
ram:0001922e    000a            lsrs        param_1,param_1,#0x8                    
ram:00019230    4870            strb        param_1,[param_2,#0x1]                  
ram:00019232    0220            movs        param_1,#0x2                            
ram:00019234    7047            bx          lr                                      
ram:00019236    0000            movs        r0,r0                                   
                            ;************************************************************************************************
                            ;*                                           FUNCTION                                           *
                            ;************************************************************************************************
                            ;undefined LAB_00019238+1(void)
          ;local_10      undefined1         -10                      ;XREF[1,0]:   00019288
                                                          ;XREF[0,2]:   00017600,00017614
ram:00019238    38b5            push        {r3,r4,r5,lr}                           
ram:0001923a    1549            ldr         r1,[DAT_00019290]                       ;= 20002030h
ram:0001923c    154a            ldr         r2,[DAT_00019294]                       ;= 0000FFFFh
ram:0001923e    4888            ldrh        r0,[r1,#0x2]=>DAT_20002032              
ram:00019240    9042            cmp         r0,r2                                   
ram:00019242    0fd0            beq         LAB_00019264                            
ram:00019244    4a78            ldrb        r2,[r1,#0x1]=>DAT_20002031              
ram:00019246    144c            ldr         r4,[DAT_00019298]                       ;= 20002514h
ram:00019248    521c            adds        r2,r2,#0x1                              
ram:0001924a    d2b2            uxtb        r2,r2                                   
ram:0001924c    4a70            strb        r2,[r1,#0x1]=>DAT_20002031              
ram:0001924e    237b            ldrb        r3,[r4,#0xc]=>DAT_20002520              
ram:00019250    9342            cmp         r3,r2                                   
ram:00019252    08d3            bcc         LAB_00019266                            
ram:00019254    0831            adds        r1,#0x8                                 
ram:00019256    75df            svc         0x75                                    
ram:00019258    0028            cmp         r0,#0x0                                 
ram:0001925a    03d0            beq         LAB_00019264                            
ram:0001925c    a169            ldr         r1,[r4,#0x18]=>DAT_2000252c             
ram:0001925e    0029            cmp         r1,#0x0                                 
ram:00019260    00d0            beq         LAB_00019264                            
ram:00019262    8847            blx         r1                                      
                            LAB_00019264:                 ;XREF[4,0]:   00019242,0001925a,00019260,00019284
ram:00019264    38bd            pop         {r3,r4,r5,pc}                           
                            LAB_00019266:                 ;XREF[1,0]:   00019252
ram:00019266    0025            movs        r5,#0x0                                 
ram:00019268    4d70            strb        r5,[r1,#0x1]=>DAT_20002031              
ram:0001926a    217c            ldrb        r1,[r4,#0x10]=>DAT_20002524             
ram:0001926c    0029            cmp         r1,#0x0                                 
ram:0001926e    07d0            beq         LAB_00019280                            
ram:00019270    3b21            movs        r1,#0x3b                                
ram:00019272    76df            svc         0x76                                    
ram:00019274    0028            cmp         r0,#0x0                                 
ram:00019276    03d0            beq         LAB_00019280                            
ram:00019278    a169            ldr         r1,[r4,#0x18]=>DAT_2000252c             
ram:0001927a    0029            cmp         r1,#0x0                                 
ram:0001927c    00d0            beq         LAB_00019280                            
ram:0001927e    8847            blx         r1                                      
                            LAB_00019280:                 ;XREF[3,0]:   0001926e,00019276,0001927c
ram:00019280    6169            ldr         r1,[r4,#0x14]=>DAT_20002528             
ram:00019282    0029            cmp         r1,#0x0                                 
ram:00019284    eed0            beq         LAB_00019264                            
ram:00019286    6846            mov         r0,sp                                   
ram:00019288    0570            strb        r5,[r0,#0x0]=>local_10                  
ram:0001928a    8847            blx         r1                                      
ram:0001928c    38bd            pop         {r3,r4,r5,pc}                           
ram:0001928e    0000            movs        r0,r0                                   
                            DAT_00019290:                 ;XREF[1,0]:   0001923a
ram:00019290    30200020        undefined4  20002030h                               
                            DAT_00019294:                 ;XREF[1,0]:   0001923c
ram:00019294    ffff0000        undefined4  0000FFFFh                               
                            DAT_00019298:                 ;XREF[1,0]:   00019246
ram:00019298    14250020        undefined4  20002514h                               
                            ;************************************************************************************************
                            ;*                                           FUNCTION                                           *
                            ;************************************************************************************************
                            ;undefined4 FUN_0001929c(void)
                                                          ;XREF[2,0]:   00016df8,00016e68
ram:0001929c    1249            ldr         r1,[DAT_000192e8]                       ;= E000ED00h
ram:0001929e    4868            ldr         r0,[r1,#offset DAT_e000ed04 &0xff]      
ram:000192a0    c005            lsls        r0,r0,#0x17                             
ram:000192a2    c00d            lsrs        r0,r0,#0x17                             
ram:000192a4    19d0            beq         LAB_000192da                            
ram:000192a6    1038            subs        r0,#0x10                                
ram:000192a8    40b2            sxtb        r0,r0                                   
ram:000192aa    0028            cmp         r0,#0x0                                 
ram:000192ac    07da            bge         LAB_000192be                            
ram:000192ae    0207            lsls        r2,r0,#0x1c                             
ram:000192b0    120f            lsrs        r2,r2,#0x1c                             
ram:000192b2    083a            subs        r2,#0x8                                 
ram:000192b4    9208            lsrs        r2,r2,#0x2                              
ram:000192b6    9200            lsls        r2,r2,#0x2                              
ram:000192b8    5118            adds        r1,r2,r1                                
ram:000192ba    c969            ldr         r1,[r1,#0x1c]                           
ram:000192bc    04e0            b           LAB_000192c8                            
                            LAB_000192be:                 ;XREF[1,0]:   000192ac
ram:000192be    8108            lsrs        r1,r0,#0x2                              
ram:000192c0    0a4a            ldr         r2,[DAT_000192ec]                       ;= E000E400h
ram:000192c2    8900            lsls        r1,r1,#0x2                              
ram:000192c4    8918            adds        r1,r1,r2                                
ram:000192c6    0968            ldr         r1,[r1,#0x0]                            
                            LAB_000192c8:                 ;XREF[1,0]:   000192bc
ram:000192c8    8007            lsls        r0,r0,#0x1e                             
ram:000192ca    c00e            lsrs        r0,r0,#0x1b                             
ram:000192cc    c140            lsrs        r1,r0                                   
ram:000192ce    0806            lsls        r0,r1,#0x18                             
ram:000192d0    800f            lsrs        r0,r0,#0x1e                             
ram:000192d2    0128            cmp         r0,#0x1                                 
ram:000192d4    03d0            beq         LAB_000192de                            
ram:000192d6    0328            cmp         r0,#0x3                                 
ram:000192d8    03d0            beq         LAB_000192e2                            
                            LAB_000192da:                 ;XREF[1,0]:   000192a4
ram:000192da    0220            movs        r0,#0x2                                 
ram:000192dc    7047            bx          lr                                      
                            LAB_000192de:                 ;XREF[1,0]:   000192d4
ram:000192de    0020            movs        r0,#0x0                                 
ram:000192e0    7047            bx          lr                                      
                            LAB_000192e2:                 ;XREF[1,0]:   000192d8
ram:000192e2    0120            movs        r0,#0x1                                 
ram:000192e4    7047            bx          lr                                      
ram:000192e6    0000            movs        r0,r0                                   
                            DAT_000192e8:                 ;XREF[1,0]:   0001929c
ram:000192e8    00ed00e0        undefined4  E000ED00h                               
                            DAT_000192ec:                 ;XREF[1,0]:   000192c0
ram:000192ec    00e400e0        undefined4  E000E400h                               
                            ;************************************************************************************************
                            ;*                                           FUNCTION                                           *
                            ;************************************************************************************************
                            ;int FUN_000192f0(byte * param_1, uint * param_2)
          ;param_1       byte *              r0                      
          ;param_2       uint *              r1                      
                                                          ;XREF[2,0]:   00016e08,00016e74
ram:000192f0    4278            ldrb        r2,[param_1,#0x1]                       
ram:000192f2    8378            ldrb        r3,[param_1,#0x2]                       
ram:000192f4    521c            adds        r2,r2,#0x1                              
ram:000192f6    9342            cmp         r3,r2                                   
ram:000192f8    00d1            bne         LAB_000192fc                            
ram:000192fa    0022            movs        r2,#0x0                                 
                            LAB_000192fc:                 ;XREF[1,0]:   000192f8
ram:000192fc    0378            ldrb        r3,[param_1,#0x0]                       
ram:000192fe    9342            cmp         r3,r2                                   
ram:00019300    01d1            bne         LAB_00019306                            
ram:00019302    0020            movs        param_1,#0x0                            
ram:00019304    7047            bx          lr                                      
                            LAB_00019306:                 ;XREF[1,0]:   00019300
ram:00019306    0a60            str         r2,[param_2,#0x0]                       
ram:00019308    4168            ldr         param_2,[param_1,#0x4]                  
ram:0001930a    4078            ldrb        param_1,[param_1,#0x1]                  
ram:0001930c    1822            movs        r2,#0x18                                
ram:0001930e    5043            muls        param_1,r2                              
ram:00019310    0818            adds        param_1,param_2,param_1                 
ram:00019312    7047            bx          lr                                      
                            ;************************************************************************************************
                            ;*                                           FUNCTION                                           *
                            ;************************************************************************************************
                            ;undefined8 FUN_00019314(ushort * param_1, undefined * param_2, undefined * param_3, undefined * param_4, byte * param_5)
          ;param_1       ushort *            r0                      
          ;param_2       undefined *         r1                      
          ;param_3       undefined *         r2                      
          ;param_4       undefined *         r3                      
          ;param_5       byte *               0                      ;XREF[1,0]:   00019318
          ;local_18      undefined4         -18                      ;XREF[2,0]:   00019320,00019332
                                                          ;XREF[3,0]:   000166b6,000166d0,000166ec
ram:00019314    f8b5            push        {param_4,r4,r5,r6,r7,lr}                
ram:00019316    1546            mov         r5,param_3                              
ram:00019318    069c            ldr         r4,[sp,#param_5+0x18]                   
ram:0001931a    1e46            mov         r6,param_4                              
ram:0001931c    0746            mov         r7,param_1                              
ram:0001931e    0222            movs        param_3,#0x2                            
ram:00019320    0094            str         r4,[sp,#0x0]=>local_18                  
ram:00019322    00f00af8        bl          FUN_0001933a                            ;undefined8 FUN_0001933a(ushort * par...
ram:00019326    0028            cmp         param_1,#0x0                            
ram:00019328    06d1            bne         LAB_00019338                            
ram:0001932a    3346            mov         param_4,r6                              
ram:0001932c    1022            movs        param_3,#0x10                           
ram:0001932e    2946            mov         param_2,r5                              
ram:00019330    3846            mov         param_1,r7                              
ram:00019332    0094            str         r4,[sp,#0x0]=>local_18                  
ram:00019334    00f001f8        bl          FUN_0001933a                            ;undefined8 FUN_0001933a(ushort * par...
                            LAB_00019338:                 ;XREF[1,0]:   00019328
ram:00019338    f8bd            pop         {param_4,r4,r5,r6,r7,pc}                
                            ;************************************************************************************************
                            ;*                                           FUNCTION                                           *
                            ;************************************************************************************************
                            ;undefined8 FUN_0001933a(ushort * param_1, undefined * param_2, uint param_3, undefined * param_4, byte * param_5)
          ;param_1       ushort *            r0                      
          ;param_2       undefined *         r1                      
          ;param_3       uint                r2                      
          ;param_4       undefined *         r3                      
          ;param_5       byte *               0                      ;XREF[1,0]:   00019342
          ;local_18      undefined4         -18                      ;XREF[3,0]:   0001939a,000193a8,000193d0
          ;local_1c      undefined4         -1c                      ;XREF[1,0]:   0001936c
          ;local_20      undefined4         -20                      ;XREF[1,0]:   0001939c
          ;local_2a      undefined2         -2a                      ;XREF[1,0]:   0001935a
          ;local_2c      undefined2         -2c                      ;XREF[1,0]:   00019356
          ;local_30      undefined1         -30                      ;XREF[2,0]:   0001936a,000193ba
                                                          ;XREF[2,0]:   00019322,00019334
ram:0001933a    ffb5            push        {param_1,param_2,param_3,param_4,r4,r...
ram:0001933c    83b0            sub         sp,#0xc                                 
ram:0001933e    0746            mov         r7,param_1                              
ram:00019340    0020            movs        param_1,#0x0                            
ram:00019342    0c9c            ldr         r4,[sp,#param_5+0x30]                   
ram:00019344    8646            mov         lr,param_1                              
ram:00019346    2678            ldrb        r6,[r4,#0x0]                            
ram:00019348    0546            mov         r5,param_1                              
ram:0001934a    3ae0            b           LAB_000193c2                            
                            LAB_0001934c:                 ;XREF[1,0]:   000193c6
ram:0001934c    7868            ldr         param_1,[r7,#0x4]                       
ram:0001934e    a900            lsls        param_2,r5,#0x2                         
ram:00019350    4118            adds        param_2,param_1,param_2                 
ram:00019352    0a88            ldrh        param_3,[param_2,#0x0]                  
ram:00019354    6846            mov         param_1,sp                              
ram:00019356    8280            strh        param_3,[r0,#local_2c+0x30]             
ram:00019358    4988            ldrh        param_2,[param_2,#0x2]                  
ram:0001935a    c180            strh        param_2,[r0,#local_2a+0x30]             
ram:0001935c    0022            movs        param_3,#0x0                            
ram:0001935e    6946            mov         param_2,sp                              
ram:00019360    01a8            add         param_1,sp,#0x4                         
ram:00019362    65df            svc         0x65                                    
ram:00019364    0028            cmp         param_1,#0x0                            
ram:00019366    10d1            bne         LAB_0001938a                            
ram:00019368    6846            mov         param_1,sp                              
ram:0001936a    0178            ldrb        param_2=>local_30,[param_1,#0x0]        
ram:0001936c    0598            ldr         param_1,[sp,#local_1c+0x30]             
ram:0001936e    8142            cmp         param_2,param_1                         
ram:00019370    26d1            bne         LAB_000193c0                            
ram:00019372    7046            mov         param_1,lr                              
ram:00019374    0028            cmp         param_1,#0x0                            
ram:00019376    01d0            beq         LAB_0001937c                            
ram:00019378    0022            movs        param_3,#0x0                            
ram:0001937a    00e0            b           LAB_0001937e                            
                            LAB_0001937c:                 ;XREF[1,0]:   00019376
ram:0001937c    0222            movs        param_3,#0x2                            
                            LAB_0001937e:                 ;XREF[1,0]:   0001937a
ram:0001937e    2078            ldrb        param_1,[r4,#0x0]                       
ram:00019380    8918            adds        param_2,param_2,param_3                 
ram:00019382    4118            adds        param_2,param_1,param_2                 
ram:00019384    1f29            cmp         param_2,#0x1f                           
ram:00019386    02d9            bls         LAB_0001938e                            
ram:00019388    0c20            movs        param_1,#0xc                            
                            LAB_0001938a:                 ;XREF[3,0]:   00019366,000193b4,000193da
ram:0001938a    07b0            add         sp,#0x1c                                
ram:0001938c    f0bd            pop         {r4,r5,r6,r7,pc}                        
                            LAB_0001938e:                 ;XREF[1,0]:   00019386
ram:0001938e    7146            mov         param_2,lr                              
ram:00019390    0029            cmp         param_2,#0x0                            
ram:00019392    08d1            bne         LAB_000193a6                            
ram:00019394    401c            adds        param_1,param_1,#0x1                    
ram:00019396    c0b2            uxtb        param_1,param_1                         
ram:00019398    411c            adds        param_2,param_1,#0x1                    
ram:0001939a    069b            ldr         param_4,[sp,#local_18+0x30]             
ram:0001939c    049a            ldr         param_3,[sp,#local_20+0x30]             
ram:0001939e    2170            strb        param_2,[r4,#0x0]                       
ram:000193a0    1a54            strb        param_3,[param_4,param_1]               
ram:000193a2    0120            movs        param_1,#0x1                            
ram:000193a4    8646            mov         lr,param_1                              
                            LAB_000193a6:                 ;XREF[1,0]:   00019392
ram:000193a6    2178            ldrb        param_2,[r4,#0x0]                       
ram:000193a8    0698            ldr         param_1,[sp,#local_18+0x30]             
ram:000193aa    0a18            adds        param_3,param_2,param_1                 
ram:000193ac    6946            mov         param_2,sp                              
ram:000193ae    01a8            add         param_1,sp,#0x4                         
ram:000193b0    65df            svc         0x65                                    
ram:000193b2    0028            cmp         param_1,#0x0                            
ram:000193b4    e9d1            bne         LAB_0001938a                            
ram:000193b6    6946            mov         param_2,sp                              
ram:000193b8    2078            ldrb        param_1,[r4,#0x0]                       
ram:000193ba    0978            ldrb        param_2=>local_30,[param_2,#0x0]        
ram:000193bc    4018            adds        param_1,param_1,param_2                 
ram:000193be    2070            strb        param_1,[r4,#0x0]                       
                            LAB_000193c0:                 ;XREF[1,0]:   00019370
ram:000193c0    6d1c            adds        r5,r5,#0x1                              
                            LAB_000193c2:                 ;XREF[1,0]:   0001934a
ram:000193c2    3888            ldrh        param_1,[r7,#0x0]                       
ram:000193c4    a842            cmp         param_1,r5                              
ram:000193c6    c1dc            bgt         LAB_0001934c                            
ram:000193c8    7046            mov         param_1,lr                              
ram:000193ca    0028            cmp         param_1,#0x0                            
ram:000193cc    04d0            beq         LAB_000193d8                            
ram:000193ce    2078            ldrb        param_1,[r4,#0x0]                       
ram:000193d0    0699            ldr         param_2,[sp,#local_18+0x30]             
ram:000193d2    801b            subs        param_1,param_1,r6                      
ram:000193d4    401e            subs        param_1,param_1,#0x1                    
ram:000193d6    8855            strb        param_1,[param_2,r6]                    
                            LAB_000193d8:                 ;XREF[1,0]:   000193cc
ram:000193d8    0020            movs        param_1,#0x0                            
ram:000193da    d6e7            b           LAB_0001938a                            
                            DAT_000193dc:                 ;XREF[2,0]:   000167ba,00016820
ram:000193dc    23150000        undefined4  00001523h                               
                            DAT_000193e0:                 ;XREF[2,0]:   00017524,00017598
ram:000193e0    ade8f3d4        undefined4  D4F3E8ADh                               
                            DAT_000193e4:                 ;XREF[1,0]:   00017524
ram:000193e4    b88494a0        undefined4  A09484B8h                               
                            DAT_000193e8:                 ;XREF[1,0]:   00017524
ram:000193e8    aaf5e20f        undefined4  0FE2F5AAh                               
                            DAT_000193ec:                 ;XREF[1,0]:   00017524
ram:000193ec    00005a95        undefined4  955A0000h                               
                            DAT_000193f0:                 ;XREF[2,0]:   000176d4,0001773c
ram:000193f0    23d1bcea        undefined4  EABCD123h                               
                            DAT_000193f4:                 ;XREF[1,0]:   000176d4
ram:000193f4    5f782315        undefined4  1523785Fh                               
                            DAT_000193f8:                 ;XREF[1,0]:   000176d4
ram:000193f8    deef1212        undefined4  1212EFDEh                               
                            DAT_000193fc:                 ;XREF[1,0]:   000176d4
ram:000193fc    00000000        undefined4  00000000h                               
                            PTR_DAT_00019400:             ;XREF[4,0]:   00016292,000162a4,000162a8,000162ac
ram:00019400    20940100        addr        DAT_00019420                            
                            DAT_00019404:                 ;XREF[1,0]:   00016292
ram:00019404    00200020        undefined4  20002000h                               
                            DAT_00019408:                 ;XREF[1,0]:   00016292
ram:00019408    dc000000        undefined4  000000DCh                               
                            PTR_thunk_FUN_00016522_0001...;XREF[1,0]:   00016290
ram:0001940c    1a650100        addr        thunk_FUN_00016522                      
ram:00019410    fc              ??          FCh                                     
ram:00019411    94              ??          94h                                     
ram:00019412    01              ??          01h                                     
ram:00019413    00              ??          00h                                     
ram:00019414    dc              ??          DCh                                     
ram:00019415    20              ??          20h                                     
ram:00019416    00              ??          00h                                     
ram:00019417    20              ??          20h                                     
ram:00019418    54              ??          54h    T                                
ram:00019419    0d              ??          0Dh                                     
ram:0001941a    00              ??          00h                                     
ram:0001941b    00              ??          00h                                     
ram:0001941c    2a              ??          2Ah    *                                ;?  ->  0001652a
ram:0001941d    65              ??          65h    e                                
ram:0001941e    01              ??          01h                                     
ram:0001941f    00              ??          00h                                     
                            DAT_00019420:                 ;XREF[3,0]:   00016292,000162ac,00019400
ram:00019420    00              ??          00h                                     
ram:00019421    00              ??          00h                                     
ram:00019422    00              ??          00h                                     
ram:00019423    00              ??          00h                                     
ram:00019424    ff              ??          FFh                                     
ram:00019425    ff              ??          FFh                                     
ram:00019426    00              ??          00h                                     
ram:00019427    00              ??          00h                                     
ram:00019428    00              ??          00h                                     
ram:00019429    00              ??          00h                                     
ram:0001942a    00              ??          00h                                     
ram:0001942b    00              ??          00h                                     
ram:0001942c    00              ??          00h                                     
ram:0001942d    00              ??          00h                                     
ram:0001942e    00              ??          00h                                     
ram:0001942f    00              ??          00h                                     
ram:00019430    00              ??          00h                                     
ram:00019431    00              ??          00h                                     
ram:00019432    00              ??          00h                                     
ram:00019433    00              ??          00h                                     
ram:00019434    00              ??          00h                                     
ram:00019435    00              ??          00h                                     
ram:00019436    00              ??          00h                                     
ram:00019437    00              ??          00h                                     
ram:00019438    00              ??          00h                                     
ram:00019439    00              ??          00h                                     
ram:0001943a    00              ??          00h                                     
ram:0001943b    00              ??          00h                                     
ram:0001943c    12              ??          12h                                     
ram:0001943d    00              ??          00h                                     
ram:0001943e    03              ??          03h                                     
ram:0001943f    00              ??          00h                                     
ram:00019440    19              ??          19h                                     ;?  ->  00017919
ram:00019441    79              ??          79h    y                                
ram:00019442    01              ??          01h                                     
ram:00019443    00              ??          00h                                     
ram:00019444    08              ??          08h                                     
ram:00019445    00              ??          00h                                     
ram:00019446    03              ??          03h                                     
ram:00019447    00              ??          00h                                     
ram:00019448    19              ??          19h                                     ;?  ->  00017919
ram:00019449    79              ??          79h    y                                
ram:0001944a    01              ??          01h                                     
ram:0001944b    00              ??          00h                                     
ram:0001944c    00              ??          00h                                     
ram:0001944d    24              ??          24h    $                                
ram:0001944e    f4              ??          F4h                                     
ram:0001944f    00              ??          00h                                     
ram:00019450    00              ??          00h                                     
ram:00019451    00              ??          00h                                     
ram:00019452    00              ??          00h                                     
ram:00019453    00              ??          00h                                     
ram:00019454    00              ??          00h                                     
ram:00019455    00              ??          00h                                     
ram:00019456    00              ??          00h                                     
ram:00019457    00              ??          00h                                     
ram:00019458    00              ??          00h                                     
ram:00019459    00              ??          00h                                     
ram:0001945a    00              ??          00h                                     
ram:0001945b    00              ??          00h                                     
ram:0001945c    00              ??          00h                                     
ram:0001945d    00              ??          00h                                     
ram:0001945e    00              ??          00h                                     
ram:0001945f    00              ??          00h                                     
ram:00019460    00              ??          00h                                     
ram:00019461    00              ??          00h                                     
ram:00019462    00              ??          00h                                     
ram:00019463    00              ??          00h                                     
ram:00019464    00              ??          00h                                     
ram:00019465    00              ??          00h                                     
ram:00019466    00              ??          00h                                     
ram:00019467    00              ??          00h                                     
ram:00019468    01              ??          01h                                     
ram:00019469    00              ??          00h                                     
ram:0001946a    00              ??          00h                                     
ram:0001946b    00              ??          00h                                     
ram:0001946c    00              ??          00h                                     
ram:0001946d    00              ??          00h                                     
ram:0001946e    00              ??          00h                                     
ram:0001946f    00              ??          00h                                     
ram:00019470    00              ??          00h                                     
ram:00019471    00              ??          00h                                     
ram:00019472    00              ??          00h                                     
ram:00019473    00              ??          00h                                     
ram:00019474    1d              ??          1Dh                                     ;?  ->  00017d1d
ram:00019475    7d              ??          7Dh    }                                
ram:00019476    01              ??          01h                                     
ram:00019477    00              ??          00h                                     
ram:00019478    00              ??          00h                                     
ram:00019479    00              ??          00h                                     
ram:0001947a    00              ??          00h                                     
ram:0001947b    00              ??          00h                                     
ram:0001947c    00              ??          00h                                     
ram:0001947d    00              ??          00h                                     
ram:0001947e    00              ??          00h                                     
ram:0001947f    00              ??          00h                                     
ram:00019480    00              ??          00h                                     
ram:00019481    00              ??          00h                                     
ram:00019482    00              ??          00h                                     
ram:00019483    00              ??          00h                                     
ram:00019484    00              ??          00h                                     
ram:00019485    00              ??          00h                                     
ram:00019486    00              ??          00h                                     
ram:00019487    00              ??          00h                                     
ram:00019488    00              ??          00h                                     
ram:00019489    00              ??          00h                                     
ram:0001948a    00              ??          00h                                     
ram:0001948b    00              ??          00h                                     
ram:0001948c    00              ??          00h                                     
ram:0001948d    00              ??          00h                                     
ram:0001948e    00              ??          00h                                     
ram:0001948f    00              ??          00h                                     
ram:00019490    00              ??          00h                                     
ram:00019491    00              ??          00h                                     
ram:00019492    00              ??          00h                                     
ram:00019493    00              ??          00h                                     
ram:00019494    00              ??          00h                                     
ram:00019495    00              ??          00h                                     
ram:00019496    00              ??          00h                                     
ram:00019497    00              ??          00h                                     
ram:00019498    00              ??          00h                                     
ram:00019499    00              ??          00h                                     
ram:0001949a    00              ??          00h                                     
ram:0001949b    00              ??          00h                                     
ram:0001949c    00              ??          00h                                     
ram:0001949d    00              ??          00h                                     
ram:0001949e    00              ??          00h                                     
ram:0001949f    00              ??          00h                                     
ram:000194a0    00              ??          00h                                     
ram:000194a1    00              ??          00h                                     
ram:000194a2    00              ??          00h                                     
ram:000194a3    00              ??          00h                                     
ram:000194a4    00              ??          00h                                     
ram:000194a5    00              ??          00h                                     
ram:000194a6    00              ??          00h                                     
ram:000194a7    00              ??          00h                                     
ram:000194a8    00              ??          00h                                     
ram:000194a9    00              ??          00h                                     
ram:000194aa    00              ??          00h                                     
ram:000194ab    00              ??          00h                                     
ram:000194ac    00              ??          00h                                     
ram:000194ad    00              ??          00h                                     
ram:000194ae    00              ??          00h                                     
ram:000194af    00              ??          00h                                     
ram:000194b0    00              ??          00h                                     
ram:000194b1    00              ??          00h                                     
ram:000194b2    00              ??          00h                                     
ram:000194b3    00              ??          00h                                     
ram:000194b4    00              ??          00h                                     
ram:000194b5    00              ??          00h                                     
ram:000194b6    00              ??          00h                                     
ram:000194b7    00              ??          00h                                     
ram:000194b8    00              ??          00h                                     
ram:000194b9    00              ??          00h                                     
ram:000194ba    00              ??          00h                                     
ram:000194bb    00              ??          00h                                     
ram:000194bc    00              ??          00h                                     
ram:000194bd    00              ??          00h                                     
ram:000194be    00              ??          00h                                     
ram:000194bf    00              ??          00h                                     
ram:000194c0    00              ??          00h                                     
ram:000194c1    00              ??          00h                                     
ram:000194c2    00              ??          00h                                     
ram:000194c3    00              ??          00h                                     
ram:000194c4    00              ??          00h                                     
ram:000194c5    00              ??          00h                                     
ram:000194c6    00              ??          00h                                     
ram:000194c7    00              ??          00h                                     
ram:000194c8    00              ??          00h                                     
ram:000194c9    00              ??          00h                                     
ram:000194ca    00              ??          00h                                     
ram:000194cb    00              ??          00h                                     
ram:000194cc    00              ??          00h                                     
ram:000194cd    00              ??          00h                                     
ram:000194ce    00              ??          00h                                     
ram:000194cf    00              ??          00h                                     
ram:000194d0    00              ??          00h                                     
ram:000194d1    00              ??          00h                                     
ram:000194d2    00              ??          00h                                     
ram:000194d3    00              ??          00h                                     
ram:000194d4    00              ??          00h                                     
ram:000194d5    00              ??          00h                                     
ram:000194d6    00              ??          00h                                     
ram:000194d7    00              ??          00h                                     
ram:000194d8    00              ??          00h                                     
ram:000194d9    00              ??          00h                                     
ram:000194da    00              ??          00h                                     
ram:000194db    00              ??          00h                                     
ram:000194dc    00              ??          00h                                     
ram:000194dd    00              ??          00h                                     
ram:000194de    00              ??          00h                                     
ram:000194df    00              ??          00h                                     
ram:000194e0    00              ??          00h                                     
ram:000194e1    00              ??          00h                                     
ram:000194e2    00              ??          00h                                     
ram:000194e3    00              ??          00h                                     
ram:000194e4    00              ??          00h                                     
ram:000194e5    00              ??          00h                                     
ram:000194e6    00              ??          00h                                     
ram:000194e7    00              ??          00h                                     
ram:000194e8    00              ??          00h                                     
ram:000194e9    00              ??          00h                                     
ram:000194ea    00              ??          00h                                     
ram:000194eb    00              ??          00h                                     
ram:000194ec    00              ??          00h                                     
ram:000194ed    00              ??          00h                                     
ram:000194ee    00              ??          00h                                     
ram:000194ef    00              ??          00h                                     
ram:000194f0    00              ??          00h                                     
ram:000194f1    00              ??          00h                                     
ram:000194f2    00              ??          00h                                     
ram:000194f3    00              ??          00h                                     
ram:000194f4    00              ??          00h                                     
ram:000194f5    00              ??          00h                                     
ram:000194f6    00              ??          00h                                     
ram:000194f7    00              ??          00h                                     
ram:000194f8    00              ??          00h                                     
ram:000194f9    00              ??          00h                                     
ram:000194fa    00              ??          00h                                     
ram:000194fb    00              ??          00h                                     
