                            MasterStackPointer:           
ram:0001c000    38490020        addr        DAT_20004938                            
                            Reset:                        ;XREF[1,0]:   Entry Point
ram:0001c004    8dc40100        addr        FUNC_Reset_0001c48c+1                   
                            NMI:                          ;XREF[1,0]:   Entry Point
ram:0001c008    95c40100        addr        FUNC_NMI_0001c494+1                     
                            HardFault:                    ;XREF[1,0]:   Entry Point
ram:0001c00c    97c40100        addr        FUNC_HardFault_0001c496+1               
                            MemManage:                    ;XREF[1,0]:   Entry Point
ram:0001c010    99c40100        addr        FUNC_MemManage_0001c498+1               
                            BusFault:                     ;XREF[1,0]:   Entry Point
ram:0001c014    9bc40100        addr        FUNC_BusFault_0001c49a+1                
                            UsageFault:                   ;XREF[1,0]:   Entry Point
ram:0001c018    9dc40100        addr        FUNC_UsageFault_0001c49c+1              
                            Reserved1:                    ;XREF[1,0]:   Entry Point
ram:0001c01c    00000000        addr        00000000                                
                            Reserved2:                    ;XREF[1,0]:   Entry Point
ram:0001c020    00000000        addr        00000000                                
                            Reserved3:                    ;XREF[1,0]:   Entry Point
ram:0001c024    00000000        addr        00000000                                
                            Reserved5:                    ;XREF[1,0]:   Entry Point
                            Reserved6:                    
                            Reserved4:                    
ram:0001c028    00000000        addr        00000000                                
                            SVCall:                       ;XREF[1,0]:   Entry Point
ram:0001c02c    9fc40100        addr        FUNC_SVCall_0001c49e+1                  
ram:0001c030    a1c40100        addr        FUNC_VT_0001c4a0+1                      
ram:0001c034    00000000        addr        00000000                                
                            PendSV:                       ;XREF[1,0]:   Entry Point
ram:0001c038    a3c40100        addr        FUNC_PendSV_0001c4a2+1                  
                            SysTick:                      ;XREF[1,0]:   Entry Point
ram:0001c03c    a5c40100        addr        FUNC_SysTick_0001c4a4+1                 
                            IRQ:                          ;XREF[1,0]:   Entry Point
ram:0001c040    a7c40100        addr        FUNC_IRQ_0001c4a6+1                     
ram:0001c044    a7c40100        addr        FUNC_IRQ_0001c4a6+1                     
ram:0001c048    9dce0100        addr        FUNC_VT_0001ce9c+1                      
ram:0001c04c    a7c40100        addr        FUNC_IRQ_0001c4a6+1                     
ram:0001c050    a7c40100        addr        FUNC_IRQ_0001c4a6+1                     
ram:0001c054    a7c40100        addr        FUNC_IRQ_0001c4a6+1                     
ram:0001c058    39ca0100        addr        FUNC_VT_0001ca38+1                      
ram:0001c05c    a7c40100        addr        FUNC_IRQ_0001c4a6+1                     
ram:0001c060    a7c40100        addr        FUNC_IRQ_0001c4a6+1                     
ram:0001c064    a7c40100        addr        FUNC_IRQ_0001c4a6+1                     
ram:0001c068    a7c40100        addr        FUNC_IRQ_0001c4a6+1                     
ram:0001c06c    a7c40100        addr        FUNC_IRQ_0001c4a6+1                     
ram:0001c070    a7c40100        addr        FUNC_IRQ_0001c4a6+1                     
ram:0001c074    a7c40100        addr        FUNC_IRQ_0001c4a6+1                     
ram:0001c078    a7c40100        addr        FUNC_IRQ_0001c4a6+1                     
ram:0001c07c    a7c40100        addr        FUNC_IRQ_0001c4a6+1                     
ram:0001c080    a7c40100        addr        FUNC_IRQ_0001c4a6+1                     
ram:0001c084    e5cb0100        addr        FUNC_VT_0001cbe4+1                      
ram:0001c088    a7c40100        addr        FUNC_IRQ_0001c4a6+1                     
ram:0001c08c    a7c40100        addr        FUNC_IRQ_0001c4a6+1                     
ram:0001c090    09cc0100        addr        thunk_FUN_0001fdbc+1                    
ram:0001c094    a7c40100        addr        FUNC_IRQ_0001c4a6+1                     
ram:0001c098    0dcc0100        addr        FUNC_VT_0001cc0c+1                      
ram:0001c09c    a7c40100        addr        FUNC_IRQ_0001c4a6+1                     
ram:0001c0a0    a7c40100        addr        FUNC_IRQ_0001c4a6+1                     
ram:0001c0a4    a7c40100        addr        FUNC_IRQ_0001c4a6+1                     
ram:0001c0a8    a7c40100        addr        FUNC_IRQ_0001c4a6+1                     
ram:0001c0ac    a7c40100        addr        FUNC_IRQ_0001c4a6+1                     
ram:0001c0b0    a7c40100        addr        FUNC_IRQ_0001c4a6+1                     
ram:0001c0b4    a7c40100        addr        FUNC_IRQ_0001c4a6+1                     
ram:0001c0b8    00000000        addr        00000000                                
ram:0001c0bc    00000000        addr        00000000                                
ram:0001c0c0    a7c40100        addr        FUNC_IRQ_0001c4a6+1                     
ram:0001c0c4    a7c40100        addr        FUNC_IRQ_0001c4a6+1                     
ram:0001c0c8    a7c40100        addr        FUNC_IRQ_0001c4a6+1                     
ram:0001c0cc    a7c40100        addr        FUNC_IRQ_0001c4a6+1                     
ram:0001c0d0    a7c40100        addr        FUNC_IRQ_0001c4a6+1                     
ram:0001c0d4    a7c40100        addr        FUNC_IRQ_0001c4a6+1                     
ram:0001c0d8    a7c40100        addr        FUNC_IRQ_0001c4a6+1                     
ram:0001c0dc    00000000        addr        00000000                                
ram:0001c0e0    00000000        addr        00000000                                
ram:0001c0e4    00000000        addr        00000000                                
ram:0001c0e8    00000000        addr        00000000                                
ram:0001c0ec    00000000        addr        00000000                                
ram:0001c0f0    00              ??          00h                                     
ram:0001c0f1    00              ??          00h                                     
ram:0001c0f2    00              ??          00h                                     
ram:0001c0f3    00              ??          00h                                     
ram:0001c0f4    00              ??          00h                                     
ram:0001c0f5    00              ??          00h                                     
ram:0001c0f6    00              ??          00h                                     
ram:0001c0f7    00              ??          00h                                     
ram:0001c0f8    00              ??          00h                                     
ram:0001c0f9    00              ??          00h                                     
ram:0001c0fa    00              ??          00h                                     
ram:0001c0fb    00              ??          00h                                     
ram:0001c0fc    00              ??          00h                                     
ram:0001c0fd    00              ??          00h                                     
ram:0001c0fe    00              ??          00h                                     
ram:0001c0ff    00              ??          00h                                     
ram:0001c100    00              ??          00h                                     
ram:0001c101    00              ??          00h                                     
ram:0001c102    00              ??          00h                                     
ram:0001c103    00              ??          00h                                     
ram:0001c104    00              ??          00h                                     
ram:0001c105    00              ??          00h                                     
ram:0001c106    00              ??          00h                                     
ram:0001c107    00              ??          00h                                     
ram:0001c108    00              ??          00h                                     
ram:0001c109    00              ??          00h                                     
ram:0001c10a    00              ??          00h                                     
ram:0001c10b    00              ??          00h                                     
ram:0001c10c    00              ??          00h                                     
ram:0001c10d    00              ??          00h                                     
ram:0001c10e    00              ??          00h                                     
ram:0001c10f    00              ??          00h                                     
ram:0001c110    00              ??          00h                                     
ram:0001c111    00              ??          00h                                     
ram:0001c112    00              ??          00h                                     
ram:0001c113    00              ??          00h                                     
ram:0001c114    00              ??          00h                                     
ram:0001c115    00              ??          00h                                     
ram:0001c116    00              ??          00h                                     
ram:0001c117    00              ??          00h                                     
ram:0001c118    00              ??          00h                                     
ram:0001c119    00              ??          00h                                     
ram:0001c11a    00              ??          00h                                     
ram:0001c11b    00              ??          00h                                     
ram:0001c11c    00              ??          00h                                     
ram:0001c11d    00              ??          00h                                     
ram:0001c11e    00              ??          00h                                     
ram:0001c11f    00              ??          00h                                     
ram:0001c120    00              ??          00h                                     
ram:0001c121    00              ??          00h                                     
ram:0001c122    00              ??          00h                                     
ram:0001c123    00              ??          00h                                     
ram:0001c124    00              ??          00h                                     
ram:0001c125    00              ??          00h                                     
ram:0001c126    00              ??          00h                                     
ram:0001c127    00              ??          00h                                     
ram:0001c128    00              ??          00h                                     
ram:0001c129    00              ??          00h                                     
ram:0001c12a    00              ??          00h                                     
ram:0001c12b    00              ??          00h                                     
ram:0001c12c    00              ??          00h                                     
ram:0001c12d    00              ??          00h                                     
ram:0001c12e    00              ??          00h                                     
ram:0001c12f    00              ??          00h                                     
ram:0001c130    00              ??          00h                                     
ram:0001c131    00              ??          00h                                     
ram:0001c132    00              ??          00h                                     
ram:0001c133    00              ??          00h                                     
ram:0001c134    00              ??          00h                                     
ram:0001c135    00              ??          00h                                     
ram:0001c136    00              ??          00h                                     
ram:0001c137    00              ??          00h                                     
ram:0001c138    00              ??          00h                                     
ram:0001c139    00              ??          00h                                     
ram:0001c13a    00              ??          00h                                     
ram:0001c13b    00              ??          00h                                     
ram:0001c13c    00              ??          00h                                     
ram:0001c13d    00              ??          00h                                     
ram:0001c13e    00              ??          00h                                     
ram:0001c13f    00              ??          00h                                     
ram:0001c140    00              ??          00h                                     
ram:0001c141    00              ??          00h                                     
ram:0001c142    00              ??          00h                                     
ram:0001c143    00              ??          00h                                     
ram:0001c144    00              ??          00h                                     
ram:0001c145    00              ??          00h                                     
ram:0001c146    00              ??          00h                                     
ram:0001c147    00              ??          00h                                     
ram:0001c148    00              ??          00h                                     
ram:0001c149    00              ??          00h                                     
ram:0001c14a    00              ??          00h                                     
ram:0001c14b    00              ??          00h                                     
ram:0001c14c    00              ??          00h                                     
ram:0001c14d    00              ??          00h                                     
ram:0001c14e    00              ??          00h                                     
ram:0001c14f    00              ??          00h                                     
ram:0001c150    00              ??          00h                                     
ram:0001c151    00              ??          00h                                     
ram:0001c152    00              ??          00h                                     
ram:0001c153    00              ??          00h                                     
ram:0001c154    00              ??          00h                                     
ram:0001c155    00              ??          00h                                     
ram:0001c156    00              ??          00h                                     
ram:0001c157    00              ??          00h                                     
ram:0001c158    00              ??          00h                                     
ram:0001c159    00              ??          00h                                     
ram:0001c15a    00              ??          00h                                     
ram:0001c15b    00              ??          00h                                     
ram:0001c15c    00              ??          00h                                     
ram:0001c15d    00              ??          00h                                     
ram:0001c15e    00              ??          00h                                     
ram:0001c15f    00              ??          00h                                     
ram:0001c160    00              ??          00h                                     
ram:0001c161    00              ??          00h                                     
ram:0001c162    00              ??          00h                                     
ram:0001c163    00              ??          00h                                     
ram:0001c164    00              ??          00h                                     
ram:0001c165    00              ??          00h                                     
ram:0001c166    00              ??          00h                                     
ram:0001c167    00              ??          00h                                     
ram:0001c168    00              ??          00h                                     
ram:0001c169    00              ??          00h                                     
ram:0001c16a    00              ??          00h                                     
ram:0001c16b    00              ??          00h                                     
ram:0001c16c    00              ??          00h                                     
ram:0001c16d    00              ??          00h                                     
ram:0001c16e    00              ??          00h                                     
ram:0001c16f    00              ??          00h                                     
ram:0001c170    00              ??          00h                                     
ram:0001c171    00              ??          00h                                     
ram:0001c172    00              ??          00h                                     
ram:0001c173    00              ??          00h                                     
ram:0001c174    00              ??          00h                                     
ram:0001c175    00              ??          00h                                     
ram:0001c176    00              ??          00h                                     
ram:0001c177    00              ??          00h                                     
ram:0001c178    00              ??          00h                                     
ram:0001c179    00              ??          00h                                     
ram:0001c17a    00              ??          00h                                     
ram:0001c17b    00              ??          00h                                     
ram:0001c17c    00              ??          00h                                     
ram:0001c17d    00              ??          00h                                     
ram:0001c17e    00              ??          00h                                     
ram:0001c17f    00              ??          00h                                     
ram:0001c180    00              ??          00h                                     
ram:0001c181    00              ??          00h                                     
ram:0001c182    00              ??          00h                                     
ram:0001c183    00              ??          00h                                     
ram:0001c184    00              ??          00h                                     
ram:0001c185    00              ??          00h                                     
ram:0001c186    00              ??          00h                                     
ram:0001c187    00              ??          00h                                     
ram:0001c188    00              ??          00h                                     
ram:0001c189    00              ??          00h                                     
ram:0001c18a    00              ??          00h                                     
ram:0001c18b    00              ??          00h                                     
ram:0001c18c    00              ??          00h                                     
ram:0001c18d    00              ??          00h                                     
ram:0001c18e    00              ??          00h                                     
ram:0001c18f    00              ??          00h                                     
ram:0001c190    00              ??          00h                                     
ram:0001c191    00              ??          00h                                     
ram:0001c192    00              ??          00h                                     
ram:0001c193    00              ??          00h                                     
ram:0001c194    00              ??          00h                                     
ram:0001c195    00              ??          00h                                     
ram:0001c196    00              ??          00h                                     
ram:0001c197    00              ??          00h                                     
ram:0001c198    00              ??          00h                                     
ram:0001c199    00              ??          00h                                     
ram:0001c19a    00              ??          00h                                     
ram:0001c19b    00              ??          00h                                     
ram:0001c19c    00              ??          00h                                     
ram:0001c19d    00              ??          00h                                     
ram:0001c19e    00              ??          00h                                     
ram:0001c19f    00              ??          00h                                     
ram:0001c1a0    00              ??          00h                                     
ram:0001c1a1    00              ??          00h                                     
ram:0001c1a2    00              ??          00h                                     
ram:0001c1a3    00              ??          00h                                     
ram:0001c1a4    00              ??          00h                                     
ram:0001c1a5    00              ??          00h                                     
ram:0001c1a6    00              ??          00h                                     
ram:0001c1a7    00              ??          00h                                     
ram:0001c1a8    00              ??          00h                                     
ram:0001c1a9    00              ??          00h                                     
ram:0001c1aa    00              ??          00h                                     
ram:0001c1ab    00              ??          00h                                     
ram:0001c1ac    00              ??          00h                                     
ram:0001c1ad    00              ??          00h                                     
ram:0001c1ae    00              ??          00h                                     
ram:0001c1af    00              ??          00h                                     
ram:0001c1b0    00              ??          00h                                     
ram:0001c1b1    00              ??          00h                                     
ram:0001c1b2    00              ??          00h                                     
ram:0001c1b3    00              ??          00h                                     
ram:0001c1b4    00              ??          00h                                     
ram:0001c1b5    00              ??          00h                                     
ram:0001c1b6    00              ??          00h                                     
ram:0001c1b7    00              ??          00h                                     
ram:0001c1b8    00              ??          00h                                     
ram:0001c1b9    00              ??          00h                                     
ram:0001c1ba    00              ??          00h                                     
ram:0001c1bb    00              ??          00h                                     
ram:0001c1bc    00              ??          00h                                     
ram:0001c1bd    00              ??          00h                                     
ram:0001c1be    00              ??          00h                                     
ram:0001c1bf    00              ??          00h                                     
ram:0001c1c0    00              ??          00h                                     
ram:0001c1c1    00              ??          00h                                     
ram:0001c1c2    00              ??          00h                                     
ram:0001c1c3    00              ??          00h                                     
ram:0001c1c4    00              ??          00h                                     
ram:0001c1c5    00              ??          00h                                     
ram:0001c1c6    00              ??          00h                                     
ram:0001c1c7    00              ??          00h                                     
ram:0001c1c8    00              ??          00h                                     
ram:0001c1c9    00              ??          00h                                     
ram:0001c1ca    00              ??          00h                                     
ram:0001c1cb    00              ??          00h                                     
ram:0001c1cc    00              ??          00h                                     
ram:0001c1cd    00              ??          00h                                     
ram:0001c1ce    00              ??          00h                                     
ram:0001c1cf    00              ??          00h                                     
ram:0001c1d0    00              ??          00h                                     
ram:0001c1d1    00              ??          00h                                     
ram:0001c1d2    00              ??          00h                                     
ram:0001c1d3    00              ??          00h                                     
ram:0001c1d4    00              ??          00h                                     
ram:0001c1d5    00              ??          00h                                     
ram:0001c1d6    00              ??          00h                                     
ram:0001c1d7    00              ??          00h                                     
ram:0001c1d8    00              ??          00h                                     
ram:0001c1d9    00              ??          00h                                     
ram:0001c1da    00              ??          00h                                     
ram:0001c1db    00              ??          00h                                     
ram:0001c1dc    00              ??          00h                                     
ram:0001c1dd    00              ??          00h                                     
ram:0001c1de    00              ??          00h                                     
ram:0001c1df    00              ??          00h                                     
ram:0001c1e0    00              ??          00h                                     
ram:0001c1e1    00              ??          00h                                     
ram:0001c1e2    00              ??          00h                                     
ram:0001c1e3    00              ??          00h                                     
ram:0001c1e4    00              ??          00h                                     
ram:0001c1e5    00              ??          00h                                     
ram:0001c1e6    00              ??          00h                                     
ram:0001c1e7    00              ??          00h                                     
ram:0001c1e8    00              ??          00h                                     
ram:0001c1e9    00              ??          00h                                     
ram:0001c1ea    00              ??          00h                                     
ram:0001c1eb    00              ??          00h                                     
ram:0001c1ec    00              ??          00h                                     
ram:0001c1ed    00              ??          00h                                     
ram:0001c1ee    00              ??          00h                                     
ram:0001c1ef    00              ??          00h                                     
ram:0001c1f0    00              ??          00h                                     
ram:0001c1f1    00              ??          00h                                     
ram:0001c1f2    00              ??          00h                                     
ram:0001c1f3    00              ??          00h                                     
ram:0001c1f4    00              ??          00h                                     
ram:0001c1f5    00              ??          00h                                     
ram:0001c1f6    00              ??          00h                                     
ram:0001c1f7    00              ??          00h                                     
ram:0001c1f8    00              ??          00h                                     
ram:0001c1f9    00              ??          00h                                     
ram:0001c1fa    00              ??          00h                                     
ram:0001c1fb    00              ??          00h                                     
ram:0001c1fc    00              ??          00h                                     
ram:0001c1fd    00              ??          00h                                     
ram:0001c1fe    00              ??          00h                                     
ram:0001c1ff    00              ??          00h                                     
ram:0001c200    00              ??          00h                                     
ram:0001c201    00              ??          00h                                     
ram:0001c202    00              ??          00h                                     
ram:0001c203    00              ??          00h                                     
ram:0001c204    00              ??          00h                                     
ram:0001c205    00              ??          00h                                     
ram:0001c206    00              ??          00h                                     
ram:0001c207    00              ??          00h                                     
ram:0001c208    00              ??          00h                                     
ram:0001c209    00              ??          00h                                     
ram:0001c20a    00              ??          00h                                     
ram:0001c20b    00              ??          00h                                     
ram:0001c20c    00              ??          00h                                     
ram:0001c20d    00              ??          00h                                     
ram:0001c20e    00              ??          00h                                     
ram:0001c20f    00              ??          00h                                     
ram:0001c210    00              ??          00h                                     
ram:0001c211    00              ??          00h                                     
ram:0001c212    00              ??          00h                                     
ram:0001c213    00              ??          00h                                     
ram:0001c214    00              ??          00h                                     
ram:0001c215    00              ??          00h                                     
ram:0001c216    00              ??          00h                                     
ram:0001c217    00              ??          00h                                     
ram:0001c218    00              ??          00h                                     
ram:0001c219    00              ??          00h                                     
ram:0001c21a    00              ??          00h                                     
ram:0001c21b    00              ??          00h                                     
ram:0001c21c    00              ??          00h                                     
ram:0001c21d    00              ??          00h                                     
ram:0001c21e    00              ??          00h                                     
ram:0001c21f    00              ??          00h                                     
ram:0001c220    00              ??          00h                                     
ram:0001c221    00              ??          00h                                     
ram:0001c222    00              ??          00h                                     
ram:0001c223    00              ??          00h                                     
ram:0001c224    00              ??          00h                                     
ram:0001c225    00              ??          00h                                     
ram:0001c226    00              ??          00h                                     
ram:0001c227    00              ??          00h                                     
ram:0001c228    00              ??          00h                                     
ram:0001c229    00              ??          00h                                     
ram:0001c22a    00              ??          00h                                     
ram:0001c22b    00              ??          00h                                     
ram:0001c22c    00              ??          00h                                     
ram:0001c22d    00              ??          00h                                     
ram:0001c22e    00              ??          00h                                     
ram:0001c22f    00              ??          00h                                     
ram:0001c230    00              ??          00h                                     
ram:0001c231    00              ??          00h                                     
ram:0001c232    00              ??          00h                                     
ram:0001c233    00              ??          00h                                     
ram:0001c234    00              ??          00h                                     
ram:0001c235    00              ??          00h                                     
ram:0001c236    00              ??          00h                                     
ram:0001c237    00              ??          00h                                     
ram:0001c238    00              ??          00h                                     
ram:0001c239    00              ??          00h                                     
ram:0001c23a    00              ??          00h                                     
ram:0001c23b    00              ??          00h                                     
ram:0001c23c    00              ??          00h                                     
ram:0001c23d    00              ??          00h                                     
ram:0001c23e    00              ??          00h                                     
ram:0001c23f    00              ??          00h                                     
ram:0001c240    00              ??          00h                                     
ram:0001c241    00              ??          00h                                     
ram:0001c242    00              ??          00h                                     
ram:0001c243    00              ??          00h                                     
ram:0001c244    00              ??          00h                                     
ram:0001c245    00              ??          00h                                     
ram:0001c246    00              ??          00h                                     
ram:0001c247    00              ??          00h                                     
ram:0001c248    00              ??          00h                                     
ram:0001c249    00              ??          00h                                     
ram:0001c24a    00              ??          00h                                     
ram:0001c24b    00              ??          00h                                     
ram:0001c24c    00              ??          00h                                     
ram:0001c24d    00              ??          00h                                     
ram:0001c24e    00              ??          00h                                     
ram:0001c24f    00              ??          00h                                     
ram:0001c250    00              ??          00h                                     
ram:0001c251    00              ??          00h                                     
ram:0001c252    00              ??          00h                                     
ram:0001c253    00              ??          00h                                     
ram:0001c254    00              ??          00h                                     
ram:0001c255    00              ??          00h                                     
ram:0001c256    00              ??          00h                                     
ram:0001c257    00              ??          00h                                     
ram:0001c258    00              ??          00h                                     
ram:0001c259    00              ??          00h                                     
ram:0001c25a    00              ??          00h                                     
ram:0001c25b    00              ??          00h                                     
ram:0001c25c    00              ??          00h                                     
ram:0001c25d    00              ??          00h                                     
ram:0001c25e    00              ??          00h                                     
ram:0001c25f    00              ??          00h                                     
ram:0001c260    00              ??          00h                                     
ram:0001c261    00              ??          00h                                     
ram:0001c262    00              ??          00h                                     
ram:0001c263    00              ??          00h                                     
ram:0001c264    00              ??          00h                                     
ram:0001c265    00              ??          00h                                     
ram:0001c266    00              ??          00h                                     
ram:0001c267    00              ??          00h                                     
ram:0001c268    00              ??          00h                                     
ram:0001c269    00              ??          00h                                     
ram:0001c26a    00              ??          00h                                     
ram:0001c26b    00              ??          00h                                     
ram:0001c26c    00              ??          00h                                     
ram:0001c26d    00              ??          00h                                     
ram:0001c26e    00              ??          00h                                     
ram:0001c26f    00              ??          00h                                     
ram:0001c270    00              ??          00h                                     
ram:0001c271    00              ??          00h                                     
ram:0001c272    00              ??          00h                                     
ram:0001c273    00              ??          00h                                     
ram:0001c274    00              ??          00h                                     
ram:0001c275    00              ??          00h                                     
ram:0001c276    00              ??          00h                                     
ram:0001c277    00              ??          00h                                     
ram:0001c278    00              ??          00h                                     
ram:0001c279    00              ??          00h                                     
ram:0001c27a    00              ??          00h                                     
ram:0001c27b    00              ??          00h                                     
ram:0001c27c    00              ??          00h                                     
ram:0001c27d    00              ??          00h                                     
ram:0001c27e    00              ??          00h                                     
ram:0001c27f    00              ??          00h                                     
ram:0001c280    00              ??          00h                                     
ram:0001c281    00              ??          00h                                     
ram:0001c282    00              ??          00h                                     
ram:0001c283    00              ??          00h                                     
ram:0001c284    00              ??          00h                                     
ram:0001c285    00              ??          00h                                     
ram:0001c286    00              ??          00h                                     
ram:0001c287    00              ??          00h                                     
ram:0001c288    00              ??          00h                                     
ram:0001c289    00              ??          00h                                     
ram:0001c28a    00              ??          00h                                     
ram:0001c28b    00              ??          00h                                     
ram:0001c28c    00              ??          00h                                     
ram:0001c28d    00              ??          00h                                     
ram:0001c28e    00              ??          00h                                     
ram:0001c28f    00              ??          00h                                     
ram:0001c290    00              ??          00h                                     
ram:0001c291    00              ??          00h                                     
ram:0001c292    00              ??          00h                                     
ram:0001c293    00              ??          00h                                     
ram:0001c294    00              ??          00h                                     
ram:0001c295    00              ??          00h                                     
ram:0001c296    00              ??          00h                                     
ram:0001c297    00              ??          00h                                     
ram:0001c298    00              ??          00h                                     
ram:0001c299    00              ??          00h                                     
ram:0001c29a    00              ??          00h                                     
ram:0001c29b    00              ??          00h                                     
ram:0001c29c    00              ??          00h                                     
ram:0001c29d    00              ??          00h                                     
ram:0001c29e    00              ??          00h                                     
ram:0001c29f    00              ??          00h                                     
ram:0001c2a0    00              ??          00h                                     
ram:0001c2a1    00              ??          00h                                     
ram:0001c2a2    00              ??          00h                                     
ram:0001c2a3    00              ??          00h                                     
ram:0001c2a4    00              ??          00h                                     
ram:0001c2a5    00              ??          00h                                     
ram:0001c2a6    00              ??          00h                                     
ram:0001c2a7    00              ??          00h                                     
ram:0001c2a8    00              ??          00h                                     
ram:0001c2a9    00              ??          00h                                     
ram:0001c2aa    00              ??          00h                                     
ram:0001c2ab    00              ??          00h                                     
ram:0001c2ac    00              ??          00h                                     
ram:0001c2ad    00              ??          00h                                     
ram:0001c2ae    00              ??          00h                                     
ram:0001c2af    00              ??          00h                                     
ram:0001c2b0    00              ??          00h                                     
ram:0001c2b1    00              ??          00h                                     
ram:0001c2b2    00              ??          00h                                     
ram:0001c2b3    00              ??          00h                                     
ram:0001c2b4    00              ??          00h                                     
ram:0001c2b5    00              ??          00h                                     
ram:0001c2b6    00              ??          00h                                     
ram:0001c2b7    00              ??          00h                                     
ram:0001c2b8    00              ??          00h                                     
ram:0001c2b9    00              ??          00h                                     
ram:0001c2ba    00              ??          00h                                     
ram:0001c2bb    00              ??          00h                                     
ram:0001c2bc    00              ??          00h                                     
ram:0001c2bd    00              ??          00h                                     
ram:0001c2be    00              ??          00h                                     
ram:0001c2bf    00              ??          00h                                     
ram:0001c2c0    00              ??          00h                                     
ram:0001c2c1    00              ??          00h                                     
ram:0001c2c2    00              ??          00h                                     
ram:0001c2c3    00              ??          00h                                     
ram:0001c2c4    00              ??          00h                                     
ram:0001c2c5    00              ??          00h                                     
ram:0001c2c6    00              ??          00h                                     
ram:0001c2c7    00              ??          00h                                     
ram:0001c2c8    00              ??          00h                                     
ram:0001c2c9    00              ??          00h                                     
ram:0001c2ca    00              ??          00h                                     
ram:0001c2cb    00              ??          00h                                     
ram:0001c2cc    00              ??          00h                                     
ram:0001c2cd    00              ??          00h                                     
ram:0001c2ce    00              ??          00h                                     
ram:0001c2cf    00              ??          00h                                     
ram:0001c2d0    00              ??          00h                                     
ram:0001c2d1    00              ??          00h                                     
ram:0001c2d2    00              ??          00h                                     
ram:0001c2d3    00              ??          00h                                     
ram:0001c2d4    00              ??          00h                                     
ram:0001c2d5    00              ??          00h                                     
ram:0001c2d6    00              ??          00h                                     
ram:0001c2d7    00              ??          00h                                     
ram:0001c2d8    00              ??          00h                                     
ram:0001c2d9    00              ??          00h                                     
ram:0001c2da    00              ??          00h                                     
ram:0001c2db    00              ??          00h                                     
ram:0001c2dc    00              ??          00h                                     
ram:0001c2dd    00              ??          00h                                     
ram:0001c2de    00              ??          00h                                     
ram:0001c2df    00              ??          00h                                     
ram:0001c2e0    00              ??          00h                                     
ram:0001c2e1    00              ??          00h                                     
ram:0001c2e2    00              ??          00h                                     
ram:0001c2e3    00              ??          00h                                     
ram:0001c2e4    00              ??          00h                                     
ram:0001c2e5    00              ??          00h                                     
ram:0001c2e6    00              ??          00h                                     
ram:0001c2e7    00              ??          00h                                     
ram:0001c2e8    00              ??          00h                                     
ram:0001c2e9    00              ??          00h                                     
ram:0001c2ea    00              ??          00h                                     
ram:0001c2eb    00              ??          00h                                     
ram:0001c2ec    00              ??          00h                                     
ram:0001c2ed    00              ??          00h                                     
ram:0001c2ee    00              ??          00h                                     
ram:0001c2ef    00              ??          00h                                     
ram:0001c2f0    00              ??          00h                                     
ram:0001c2f1    00              ??          00h                                     
ram:0001c2f2    00              ??          00h                                     
ram:0001c2f3    00              ??          00h                                     
ram:0001c2f4    00              ??          00h                                     
ram:0001c2f5    00              ??          00h                                     
ram:0001c2f6    00              ??          00h                                     
ram:0001c2f7    00              ??          00h                                     
ram:0001c2f8    00              ??          00h                                     
ram:0001c2f9    00              ??          00h                                     
ram:0001c2fa    00              ??          00h                                     
ram:0001c2fb    00              ??          00h                                     
ram:0001c2fc    00              ??          00h                                     
ram:0001c2fd    00              ??          00h                                     
ram:0001c2fe    00              ??          00h                                     
ram:0001c2ff    00              ??          00h                                     
ram:0001c300    00              ??          00h                                     
ram:0001c301    00              ??          00h                                     
ram:0001c302    00              ??          00h                                     
ram:0001c303    00              ??          00h                                     
ram:0001c304    00              ??          00h                                     
ram:0001c305    00              ??          00h                                     
ram:0001c306    00              ??          00h                                     
ram:0001c307    00              ??          00h                                     
ram:0001c308    00              ??          00h                                     
ram:0001c309    00              ??          00h                                     
ram:0001c30a    00              ??          00h                                     
ram:0001c30b    00              ??          00h                                     
ram:0001c30c    00              ??          00h                                     
ram:0001c30d    00              ??          00h                                     
ram:0001c30e    00              ??          00h                                     
ram:0001c30f    00              ??          00h                                     
ram:0001c310    00              ??          00h                                     
ram:0001c311    00              ??          00h                                     
ram:0001c312    00              ??          00h                                     
ram:0001c313    00              ??          00h                                     
ram:0001c314    00              ??          00h                                     
ram:0001c315    00              ??          00h                                     
ram:0001c316    00              ??          00h                                     
ram:0001c317    00              ??          00h                                     
ram:0001c318    00              ??          00h                                     
ram:0001c319    00              ??          00h                                     
ram:0001c31a    00              ??          00h                                     
ram:0001c31b    00              ??          00h                                     
ram:0001c31c    00              ??          00h                                     
ram:0001c31d    00              ??          00h                                     
ram:0001c31e    00              ??          00h                                     
ram:0001c31f    00              ??          00h                                     
ram:0001c320    00              ??          00h                                     
ram:0001c321    00              ??          00h                                     
ram:0001c322    00              ??          00h                                     
ram:0001c323    00              ??          00h                                     
ram:0001c324    00              ??          00h                                     
ram:0001c325    00              ??          00h                                     
ram:0001c326    00              ??          00h                                     
ram:0001c327    00              ??          00h                                     
ram:0001c328    00              ??          00h                                     
ram:0001c329    00              ??          00h                                     
ram:0001c32a    00              ??          00h                                     
ram:0001c32b    00              ??          00h                                     
ram:0001c32c    00              ??          00h                                     
ram:0001c32d    00              ??          00h                                     
ram:0001c32e    00              ??          00h                                     
ram:0001c32f    00              ??          00h                                     
ram:0001c330    00              ??          00h                                     
ram:0001c331    00              ??          00h                                     
ram:0001c332    00              ??          00h                                     
ram:0001c333    00              ??          00h                                     
ram:0001c334    00              ??          00h                                     
ram:0001c335    00              ??          00h                                     
ram:0001c336    00              ??          00h                                     
ram:0001c337    00              ??          00h                                     
ram:0001c338    00              ??          00h                                     
ram:0001c339    00              ??          00h                                     
ram:0001c33a    00              ??          00h                                     
ram:0001c33b    00              ??          00h                                     
ram:0001c33c    00              ??          00h                                     
ram:0001c33d    00              ??          00h                                     
ram:0001c33e    00              ??          00h                                     
ram:0001c33f    00              ??          00h                                     
ram:0001c340    00              ??          00h                                     
ram:0001c341    00              ??          00h                                     
ram:0001c342    00              ??          00h                                     
ram:0001c343    00              ??          00h                                     
ram:0001c344    00              ??          00h                                     
ram:0001c345    00              ??          00h                                     
ram:0001c346    00              ??          00h                                     
ram:0001c347    00              ??          00h                                     
ram:0001c348    00              ??          00h                                     
ram:0001c349    00              ??          00h                                     
ram:0001c34a    00              ??          00h                                     
ram:0001c34b    00              ??          00h                                     
ram:0001c34c    00              ??          00h                                     
ram:0001c34d    00              ??          00h                                     
ram:0001c34e    00              ??          00h                                     
ram:0001c34f    00              ??          00h                                     
ram:0001c350    00              ??          00h                                     
ram:0001c351    00              ??          00h                                     
ram:0001c352    00              ??          00h                                     
ram:0001c353    00              ??          00h                                     
ram:0001c354    00              ??          00h                                     
ram:0001c355    00              ??          00h                                     
ram:0001c356    00              ??          00h                                     
ram:0001c357    00              ??          00h                                     
ram:0001c358    00              ??          00h                                     
ram:0001c359    00              ??          00h                                     
ram:0001c35a    00              ??          00h                                     
ram:0001c35b    00              ??          00h                                     
ram:0001c35c    00              ??          00h                                     
ram:0001c35d    00              ??          00h                                     
ram:0001c35e    00              ??          00h                                     
ram:0001c35f    00              ??          00h                                     
ram:0001c360    00              ??          00h                                     
ram:0001c361    00              ??          00h                                     
ram:0001c362    00              ??          00h                                     
ram:0001c363    00              ??          00h                                     
ram:0001c364    00              ??          00h                                     
ram:0001c365    00              ??          00h                                     
ram:0001c366    00              ??          00h                                     
ram:0001c367    00              ??          00h                                     
ram:0001c368    00              ??          00h                                     
ram:0001c369    00              ??          00h                                     
ram:0001c36a    00              ??          00h                                     
ram:0001c36b    00              ??          00h                                     
ram:0001c36c    00              ??          00h                                     
ram:0001c36d    00              ??          00h                                     
ram:0001c36e    00              ??          00h                                     
ram:0001c36f    00              ??          00h                                     
ram:0001c370    00              ??          00h                                     
ram:0001c371    00              ??          00h                                     
ram:0001c372    00              ??          00h                                     
ram:0001c373    00              ??          00h                                     
ram:0001c374    00              ??          00h                                     
ram:0001c375    00              ??          00h                                     
ram:0001c376    00              ??          00h                                     
ram:0001c377    00              ??          00h                                     
ram:0001c378    00              ??          00h                                     
ram:0001c379    00              ??          00h                                     
ram:0001c37a    00              ??          00h                                     
ram:0001c37b    00              ??          00h                                     
ram:0001c37c    00              ??          00h                                     
ram:0001c37d    00              ??          00h                                     
ram:0001c37e    00              ??          00h                                     
ram:0001c37f    00              ??          00h                                     
ram:0001c380    00              ??          00h                                     
ram:0001c381    00              ??          00h                                     
ram:0001c382    00              ??          00h                                     
ram:0001c383    00              ??          00h                                     
ram:0001c384    00              ??          00h                                     
ram:0001c385    00              ??          00h                                     
ram:0001c386    00              ??          00h                                     
ram:0001c387    00              ??          00h                                     
ram:0001c388    00              ??          00h                                     
ram:0001c389    00              ??          00h                                     
ram:0001c38a    00              ??          00h                                     
ram:0001c38b    00              ??          00h                                     
ram:0001c38c    00              ??          00h                                     
ram:0001c38d    00              ??          00h                                     
ram:0001c38e    00              ??          00h                                     
ram:0001c38f    00              ??          00h                                     
ram:0001c390    00              ??          00h                                     
ram:0001c391    00              ??          00h                                     
ram:0001c392    00              ??          00h                                     
ram:0001c393    00              ??          00h                                     
ram:0001c394    00              ??          00h                                     
ram:0001c395    00              ??          00h                                     
ram:0001c396    00              ??          00h                                     
ram:0001c397    00              ??          00h                                     
ram:0001c398    00              ??          00h                                     
ram:0001c399    00              ??          00h                                     
ram:0001c39a    00              ??          00h                                     
ram:0001c39b    00              ??          00h                                     
ram:0001c39c    00              ??          00h                                     
ram:0001c39d    00              ??          00h                                     
ram:0001c39e    00              ??          00h                                     
ram:0001c39f    00              ??          00h                                     
ram:0001c3a0    00              ??          00h                                     
ram:0001c3a1    00              ??          00h                                     
ram:0001c3a2    00              ??          00h                                     
ram:0001c3a3    00              ??          00h                                     
ram:0001c3a4    00              ??          00h                                     
ram:0001c3a5    00              ??          00h                                     
ram:0001c3a6    00              ??          00h                                     
ram:0001c3a7    00              ??          00h                                     
ram:0001c3a8    00              ??          00h                                     
ram:0001c3a9    00              ??          00h                                     
ram:0001c3aa    00              ??          00h                                     
ram:0001c3ab    00              ??          00h                                     
ram:0001c3ac    00              ??          00h                                     
ram:0001c3ad    00              ??          00h                                     
ram:0001c3ae    00              ??          00h                                     
ram:0001c3af    00              ??          00h                                     
ram:0001c3b0    00              ??          00h                                     
ram:0001c3b1    00              ??          00h                                     
ram:0001c3b2    00              ??          00h                                     
ram:0001c3b3    00              ??          00h                                     
ram:0001c3b4    00              ??          00h                                     
ram:0001c3b5    00              ??          00h                                     
ram:0001c3b6    00              ??          00h                                     
ram:0001c3b7    00              ??          00h                                     
ram:0001c3b8    00              ??          00h                                     
ram:0001c3b9    00              ??          00h                                     
ram:0001c3ba    00              ??          00h                                     
ram:0001c3bb    00              ??          00h                                     
ram:0001c3bc    00              ??          00h                                     
ram:0001c3bd    00              ??          00h                                     
ram:0001c3be    00              ??          00h                                     
ram:0001c3bf    00              ??          00h                                     
ram:0001c3c0    00              ??          00h                                     
ram:0001c3c1    00              ??          00h                                     
ram:0001c3c2    00              ??          00h                                     
ram:0001c3c3    00              ??          00h                                     
ram:0001c3c4    00              ??          00h                                     
ram:0001c3c5    00              ??          00h                                     
ram:0001c3c6    00              ??          00h                                     
ram:0001c3c7    00              ??          00h                                     
ram:0001c3c8    00              ??          00h                                     
ram:0001c3c9    00              ??          00h                                     
ram:0001c3ca    00              ??          00h                                     
ram:0001c3cb    00              ??          00h                                     
ram:0001c3cc    00              ??          00h                                     
ram:0001c3cd    00              ??          00h                                     
ram:0001c3ce    00              ??          00h                                     
ram:0001c3cf    00              ??          00h                                     
ram:0001c3d0    00              ??          00h                                     
ram:0001c3d1    00              ??          00h                                     
ram:0001c3d2    00              ??          00h                                     
ram:0001c3d3    00              ??          00h                                     
ram:0001c3d4    00              ??          00h                                     
ram:0001c3d5    00              ??          00h                                     
ram:0001c3d6    00              ??          00h                                     
ram:0001c3d7    00              ??          00h                                     
ram:0001c3d8    00              ??          00h                                     
ram:0001c3d9    00              ??          00h                                     
ram:0001c3da    00              ??          00h                                     
ram:0001c3db    00              ??          00h                                     
ram:0001c3dc    00              ??          00h                                     
ram:0001c3dd    00              ??          00h                                     
ram:0001c3de    00              ??          00h                                     
ram:0001c3df    00              ??          00h                                     
ram:0001c3e0    00              ??          00h                                     
ram:0001c3e1    00              ??          00h                                     
ram:0001c3e2    00              ??          00h                                     
ram:0001c3e3    00              ??          00h                                     
ram:0001c3e4    00              ??          00h                                     
ram:0001c3e5    00              ??          00h                                     
ram:0001c3e6    00              ??          00h                                     
ram:0001c3e7    00              ??          00h                                     
ram:0001c3e8    00              ??          00h                                     
ram:0001c3e9    00              ??          00h                                     
ram:0001c3ea    00              ??          00h                                     
ram:0001c3eb    00              ??          00h                                     
ram:0001c3ec    00              ??          00h                                     
ram:0001c3ed    00              ??          00h                                     
ram:0001c3ee    00              ??          00h                                     
ram:0001c3ef    00              ??          00h                                     
ram:0001c3f0    00              ??          00h                                     
ram:0001c3f1    00              ??          00h                                     
ram:0001c3f2    00              ??          00h                                     
ram:0001c3f3    00              ??          00h                                     
ram:0001c3f4    00              ??          00h                                     
ram:0001c3f5    00              ??          00h                                     
ram:0001c3f6    00              ??          00h                                     
ram:0001c3f7    00              ??          00h                                     
ram:0001c3f8    00              ??          00h                                     
ram:0001c3f9    00              ??          00h                                     
ram:0001c3fa    00              ??          00h                                     
ram:0001c3fb    00              ??          00h                                     
ram:0001c3fc    00              ??          00h                                     
ram:0001c3fd    00              ??          00h                                     
ram:0001c3fe    00              ??          00h                                     
ram:0001c3ff    00              ??          00h                                     
                            ;************************************************************************************************
                            ;*                                           FUNCTION                                           *
                            ;************************************************************************************************
                            ;undefined LAB_0001c400+1(void)
                                                          ;XREF[1,1]:   0001c492,0001c4ac
ram:0001c400    dff80cd0        ldr.w       sp,[DAT_0001c410]                       ;= 20004938h
ram:0001c404    00f078fa        bl          FUN_0001c8f8                            ;longlong FUN_0001c8f8(void)
                            ;************************************************************************************************
                            ;*                                           FUNCTION                                           *
                            ;************************************************************************************************
                            ;undefined thunk_FUN_0001f028(void)
                                                          ;XREF[1,0]:   0001c910
ram:0001c408    0048            ldr         r0,[DAT_0001c40c]                       ;= 0001F029h
ram:0001c40a    0047            bx          r0=>FUN_0001f028                        ;undefined FUN_0001f028(void)
                            DAT_0001c40c:                 ;XREF[1,0]:   0001c408
ram:0001c40c    29f00100        undefined4  0001F029h                               ;?  ->  0001f029
                            DAT_0001c410:                 ;XREF[1,0]:   0001c400
ram:0001c410    38490020        undefined4  20004938h                               
                            ;************************************************************************************************
                            ;*                                           FUNCTION                                           *
                            ;************************************************************************************************
                            ;undefined FUN_0001c414(int param_1)
          ;param_1       int                 r0                      
                                                          ;XREF[5,0]:   0001c486,0001eb22,0001eb5a,0001fa8c
                                                          ;             0001fa98
ram:0001c414    401e            subs        param_1,param_1,#0x1                    
ram:0001c416    00bf            nop                                                  
ram:0001c418    00bf            nop                                                  
ram:0001c41a    00bf            nop                                                  
ram:0001c41c    00bf            nop                                                  
ram:0001c41e    00bf            nop                                                  
ram:0001c420    00bf            nop                                                  
ram:0001c422    00bf            nop                                                  
ram:0001c424    00bf            nop                                                  
ram:0001c426    00bf            nop                                                  
ram:0001c428    00bf            nop                                                  
ram:0001c42a    00bf            nop                                                  
ram:0001c42c    00bf            nop                                                  
ram:0001c42e    00bf            nop                                                  
ram:0001c430    00bf            nop                                                  
ram:0001c432    00bf            nop                                                  
ram:0001c434    00bf            nop                                                  
ram:0001c436    00bf            nop                                                  
ram:0001c438    00bf            nop                                                  
ram:0001c43a    00bf            nop                                                  
ram:0001c43c    00bf            nop                                                  
ram:0001c43e    00bf            nop                                                  
ram:0001c440    00bf            nop                                                  
ram:0001c442    00bf            nop                                                  
ram:0001c444    00bf            nop                                                  
ram:0001c446    00bf            nop                                                  
ram:0001c448    00bf            nop                                                  
ram:0001c44a    00bf            nop                                                  
ram:0001c44c    00bf            nop                                                  
ram:0001c44e    00bf            nop                                                  
ram:0001c450    00bf            nop                                                  
ram:0001c452    00bf            nop                                                  
ram:0001c454    00bf            nop                                                  
ram:0001c456    00bf            nop                                                  
ram:0001c458    00bf            nop                                                  
ram:0001c45a    00bf            nop                                                  
ram:0001c45c    00bf            nop                                                  
ram:0001c45e    00bf            nop                                                  
ram:0001c460    00bf            nop                                                  
ram:0001c462    00bf            nop                                                  
ram:0001c464    00bf            nop                                                  
ram:0001c466    00bf            nop                                                  
ram:0001c468    00bf            nop                                                  
ram:0001c46a    00bf            nop                                                  
ram:0001c46c    00bf            nop                                                  
ram:0001c46e    00bf            nop                                                  
ram:0001c470    00bf            nop                                                  
ram:0001c472    00bf            nop                                                  
ram:0001c474    00bf            nop                                                  
ram:0001c476    00bf            nop                                                  
ram:0001c478    00bf            nop                                                  
ram:0001c47a    00bf            nop                                                  
ram:0001c47c    00bf            nop                                                  
ram:0001c47e    00bf            nop                                                  
ram:0001c480    00bf            nop                                                  
ram:0001c482    00bf            nop                                                  
ram:0001c484    00bf            nop                                                  
ram:0001c486    c5d1            bne         FUN_0001c414                            
ram:0001c488    7047            bx          lr                                      
ram:0001c48a    0000            movs        r0,r0                                   
                            ;************************************************************************************************
                            ;*                                           FUNCTION                                           *
                            ;************************************************************************************************
                            ;undefined FUNC_Reset_0001c48c(void)
                                                          ;XREF[0,1]:   0001c004
ram:0001c48c    0648            ldr         r0,[PTR_FUN_0001cc30+1_0001c4a8]        ;= 0001cc31
ram:0001c48e    8047            blx         r0=>FUN_0001cc30                        ;undefined FUN_0001cc30(void)
ram:0001c490    0648            ldr         r0,[PTR_LAB_0001c400+1+1_0001c4ac]      ;= 0001c401
ram:0001c492    0047            bx          r0=>LAB_0001c400+1                      ;undefined LAB_0001c400+1(void)
                            ;************************************************************************************************
                            ;*                                           FUNCTION                                           *
                            ;************************************************************************************************
                            ;undefined FUNC_NMI_0001c494(void)
                                                          ;XREF[1,1]:   0001c494,0001c008
ram:0001c494    fee7            b           FUNC_NMI_0001c494                       
                            ;************************************************************************************************
                            ;*                                           FUNCTION                                           *
                            ;************************************************************************************************
                            ;undefined FUNC_HardFault_0001c496(void)
                                                          ;XREF[1,1]:   0001c496,0001c00c
ram:0001c496    fee7            b           FUNC_HardFault_0001c496                 
                            ;************************************************************************************************
                            ;*                                           FUNCTION                                           *
                            ;************************************************************************************************
                            ;undefined FUNC_MemManage_0001c498(void)
                                                          ;XREF[1,1]:   0001c498,0001c010
ram:0001c498    fee7            b           FUNC_MemManage_0001c498                 
                            ;************************************************************************************************
                            ;*                                           FUNCTION                                           *
                            ;************************************************************************************************
                            ;undefined FUNC_BusFault_0001c49a(void)
                                                          ;XREF[1,1]:   0001c49a,0001c014
ram:0001c49a    fee7            b           FUNC_BusFault_0001c49a                  
                            ;************************************************************************************************
                            ;*                                           FUNCTION                                           *
                            ;************************************************************************************************
                            ;undefined FUNC_UsageFault_0001c49c(void)
                                                          ;XREF[1,1]:   0001c49c,0001c018
ram:0001c49c    fee7            b           FUNC_UsageFault_0001c49c                
                            ;************************************************************************************************
                            ;*                                           FUNCTION                                           *
                            ;************************************************************************************************
                            ;undefined FUNC_SVCall_0001c49e(void)
                                                          ;XREF[1,1]:   0001c49e,0001c02c
ram:0001c49e    fee7            b           FUNC_SVCall_0001c49e                    
                            ;************************************************************************************************
                            ;*                                           FUNCTION                                           *
                            ;************************************************************************************************
                            ;undefined FUNC_VT_0001c4a0(void)
                                                          ;XREF[1,1]:   0001c4a0,0001c030
ram:0001c4a0    fee7            b           FUNC_VT_0001c4a0                        
                            ;************************************************************************************************
                            ;*                                           FUNCTION                                           *
                            ;************************************************************************************************
                            ;undefined FUNC_PendSV_0001c4a2(void)
                                                          ;XREF[1,1]:   0001c4a2,0001c038
ram:0001c4a2    fee7            b           FUNC_PendSV_0001c4a2                    
                            ;************************************************************************************************
                            ;*                                           FUNCTION                                           *
                            ;************************************************************************************************
                            ;undefined FUNC_SysTick_0001c4a4(void)
                                                          ;XREF[1,1]:   0001c4a4,0001c03c
ram:0001c4a4    fee7            b           FUNC_SysTick_0001c4a4                   
                            ;************************************************************************************************
                            ;*                                           FUNCTION                                           *
                            ;************************************************************************************************
                            ;undefined FUNC_IRQ_0001c4a6(void)
                                                          ;XREF[1,32]:  0001c4a6,0001c040,0001c044,0001c04c
                                                          ;             0001c050,0001c054,0001c05c,0001c060
                                                          ;             0001c064,0001c068,0001c06c,0001c070
                                                          ;             0001c074,0001c078,0001c07c,0001c080
                                                          ;             0001c088,0001c08c,0001c094,0001c09c
                                                          ;             0001c0a0,0001c0a4,0001c0a8,0001c0ac
                                                          ;             0001c0b0,0001c0b4,0001c0c0,0001c0c4
                                                          ;             0001c0c8,0001c0cc,0001c0d0,0001c0d4
                                                          ;             0001c0d8
ram:0001c4a6    fee7            b           FUNC_IRQ_0001c4a6                       
                            PTR_FUN_0001cc30+1_0001c4a8:  ;XREF[1,0]:   0001c48c
ram:0001c4a8    31cc0100        addr        FUN_0001cc30+1                          
                            PTR_LAB_0001c400+1+1_0001c4ac:;XREF[1,0]:   0001c490
ram:0001c4ac    01c40100        addr        LAB_0001c400+1+1                        
                            ;************************************************************************************************
                            ;*                                           FUNCTION                                           *
                            ;************************************************************************************************
                            ;undefined FUN_0001c4b0(undefined4 * param_1, undefined4 * param_2, uint param_3)
          ;param_1       undefined4 *        r0                      
          ;param_2       undefined4 *        r1                      
          ;param_3       uint                r2                      
                                                          ;XREF[5,0]:   0001dcec,0001de8a,0001e252,0001f228
                                                          ;             0001fcea
ram:0001c4b0    40ea0103        orr.w       r3,param_1,param_2                      
ram:0001c4b4    9b07            lsls        r3,r3,#0x1e                             
ram:0001c4b6    03d0            beq         LAB_0001c4c0                            
ram:0001c4b8    09e0            b           LAB_0001c4ce                            
                            LAB_0001c4ba:                 ;XREF[1,0]:   0001c4c2
ram:0001c4ba    08c9            ldmia       param_2!,{r3}                           
ram:0001c4bc    121f            subs        param_3,param_3,#0x4                    
ram:0001c4be    08c0            stmia       param_1!,{r3}                           
                            LAB_0001c4c0:                 ;XREF[1,0]:   0001c4b6
ram:0001c4c0    042a            cmp         param_3,#0x4                            
ram:0001c4c2    fad2            bcs         LAB_0001c4ba                            
ram:0001c4c4    03e0            b           LAB_0001c4ce                            
                            LAB_0001c4c6:                 ;XREF[1,0]:   0001c4d0
ram:0001c4c6    11f8013b        ldrb.w      r3,[param_2],#0x1                       
ram:0001c4ca    00f8013b        strb.w      r3,[param_1],#0x1                       
                            LAB_0001c4ce:                 ;XREF[2,0]:   0001c4b8,0001c4c4
ram:0001c4ce    521e            subs        param_3,param_3,#0x1                    
ram:0001c4d0    f9d2            bcs         LAB_0001c4c6                            
ram:0001c4d2    7047            bx          lr                                      
                            ;************************************************************************************************
                            ;*                                           FUNCTION                                           *
                            ;************************************************************************************************
                            ;undefined FUN_0001c4d4(undefined * param_1, int param_2, undefined param_3)
          ;param_1       undefined *         r0                      
          ;param_2       int                 r1                      
          ;param_3       undefined           r2                      
                                                          ;XREF[2,0]:   0001c4e4,0001c4f0
ram:0001c4d4    d2b2            uxtb        param_3,param_3                         
ram:0001c4d6    01e0            b           LAB_0001c4dc                            
                            LAB_0001c4d8:                 ;XREF[1,0]:   0001c4de
ram:0001c4d8    00f8012b        strb.w      param_3,[param_1],#0x1                  
                            LAB_0001c4dc:                 ;XREF[1,0]:   0001c4d6
ram:0001c4dc    491e            subs        param_2,param_2,#0x1                    
ram:0001c4de    fbd2            bcs         LAB_0001c4d8                            
ram:0001c4e0    7047            bx          lr                                      
                            ;************************************************************************************************
                            ;*                                           FUNCTION                                           *
                            ;************************************************************************************************
                            ;undefined FUN_0001c4e2(undefined * param_1, int param_2)
          ;param_1       undefined *         r0                      
          ;param_2       int                 r1                      
                                                          ;XREF[11,0]:  0001dea4,0001e140,0001f0ec,0001f104
                                                          ;             0001f116,0001f13e,0001fb1c,0001fb88
                                                          ;             0001fd68,0001ff36,0001ffa2
ram:0001c4e2    0022            movs        r2,#0x0                                 
ram:0001c4e4    f6e7            b           FUN_0001c4d4                            ;undefined FUN_0001c4d4(undefined * p...
                            ;************************************************************************************************
                            ;*                                           FUNCTION                                           *
                            ;************************************************************************************************
                            ;undefined * FUN_0001c4e6(undefined * param_1, undefined param_2, int param_3)
          ;param_1       undefined *         r0                      
          ;param_2       undefined           r1                      
          ;param_3       int                 r2                      
ram:0001c4e6    10b5            push        {r4,lr}                                 
ram:0001c4e8    1346            mov         r3,param_3                              
ram:0001c4ea    0a46            mov         param_3,param_2                         
ram:0001c4ec    0446            mov         r4,param_1                              
ram:0001c4ee    1946            mov         param_2,r3                              
ram:0001c4f0    fff7f0ff        bl          FUN_0001c4d4                            ;undefined FUN_0001c4d4(undefined * p...
ram:0001c4f4    2046            mov         param_1,r4                              
ram:0001c4f6    10bd            pop         {r4,pc}                                 
                            ;************************************************************************************************
                            ;*                                           FUNCTION                                           *
                            ;************************************************************************************************
                            ;int FUN_0001c4f8(uint param_1, uint param_2)
          ;param_1       uint                r0                      
          ;param_2       uint                r1                      
                                                          ;XREF[1,0]:   0001d636
ram:0001c4f8    30b5            push        {r4,r5,lr}                              
ram:0001c4fa    0b46            mov         r3,param_2                              
ram:0001c4fc    0146            mov         param_2,param_1                         
ram:0001c4fe    0020            movs        param_1,#0x0                            
ram:0001c500    2022            movs        r2,#0x20                                
ram:0001c502    0124            movs        r4,#0x1                                 
ram:0001c504    09e0            b           LAB_0001c51a                            
                            LAB_0001c506:                 ;XREF[1,0]:   0001c520
ram:0001c506    21fa02f5        lsr.w       r5,param_2,r2                           
ram:0001c50a    9d42            cmp         r5,r3                                   
ram:0001c50c    05d3            bcc         LAB_0001c51a                            
ram:0001c50e    03fa02f5        lsl.w       r5,r3,r2                                
ram:0001c512    491b            subs        param_2,param_2,r5                      
ram:0001c514    04fa02f5        lsl.w       r5,r4,r2                                
ram:0001c518    2844            add         param_1,r5                              
                            LAB_0001c51a:                 ;XREF[2,0]:   0001c504,0001c50c
ram:0001c51a    151e            subs        r5,r2,#0x0                              
ram:0001c51c    a2f10102        sub.w       r2,r2,#0x1                              
ram:0001c520    f1dc            bgt         LAB_0001c506                            
ram:0001c522    30bd            pop         {r4,r5,pc}                              
                            ;************************************************************************************************
                            ;*                                           FUNCTION                                           *
                            ;************************************************************************************************
                            ;longlong FUN_0001c524(uint param_1, uint param_2, uint param_3, uint param_4)
          ;param_1       uint                r0                      
          ;param_2       uint                r1                      
          ;param_3       uint                r2                      
          ;param_4       uint                r3                      
                                                          ;XREF[2,0]:   0001cfd4,0001d396
ram:0001c524    2de9f05f        push        {r4,r5,r6,r7,r8,r9,r10,r11,r12,lr}      
ram:0001c528    0546            mov         r5,param_1                              
ram:0001c52a    0020            movs        param_1,#0x0                            
ram:0001c52c    9246            mov         r10,param_3                             
ram:0001c52e    9b46            mov         r11,param_4                             
ram:0001c530    8846            mov         r8,param_2                              
ram:0001c532    0646            mov         r6,param_1                              
ram:0001c534    8146            mov         r9,param_1                              
ram:0001c536    4024            movs        r4,#0x40                                
ram:0001c538    1be0            b           LAB_0001c572                            
                            LAB_0001c53a:                 ;XREF[1,0]:   0001c578
ram:0001c53a    2846            mov         param_1,r5                              
ram:0001c53c    4146            mov         param_2,r8                              
ram:0001c53e    4746            mov         r7,r8                                   
ram:0001c540    2246            mov         param_3,r4                              
ram:0001c542    00f0faf9        bl          FUN_0001c93a                            ;ulonglong FUN_0001c93a(uint param_1,...
ram:0001c546    5346            mov         param_4,r10                             
ram:0001c548    5a46            mov         param_3,r11                             
ram:0001c54a    c01a            subs        param_1,param_1,param_4                 
ram:0001c54c    9141            sbcs        param_2,param_3                         
ram:0001c54e    10d3            bcc         LAB_0001c572                            
ram:0001c550    1146            mov         param_2,param_3                         
ram:0001c552    1846            mov         param_1,param_4                         
ram:0001c554    2246            mov         param_3,r4                              
ram:0001c556    00f0e1f9        bl          FUN_0001c91c                            ;longlong FUN_0001c91c(uint param_1, ...
ram:0001c55a    2d1a            subs        r5,r5,param_1                           
ram:0001c55c    67eb0108        sbc.w       r8,r7,param_2                           
ram:0001c560    4f46            mov         r7,r9                                   
ram:0001c562    2246            mov         param_3,r4                              
ram:0001c564    0120            movs        param_1,#0x1                            
ram:0001c566    0021            movs        param_2,#0x0                            
ram:0001c568    00f0d8f9        bl          FUN_0001c91c                            ;longlong FUN_0001c91c(uint param_1, ...
ram:0001c56c    17eb0009        adds.w      r9,r7,param_1                           
ram:0001c570    4e41            adcs        r6,param_2                              
                            LAB_0001c572:                 ;XREF[2,0]:   0001c538,0001c54e
ram:0001c572    201e            subs        param_1,r4,#0x0                         
ram:0001c574    a4f10104        sub.w       r4,r4,#0x1                              
ram:0001c578    dfdc            bgt         LAB_0001c53a                            
ram:0001c57a    4846            mov         param_1,r9                              
ram:0001c57c    3146            mov         param_2,r6                              
ram:0001c57e    2a46            mov         param_3,r5                              
ram:0001c580    4346            mov         param_4,r8                              
ram:0001c582    bde8f09f        pop.w       {r4,r5,r6,r7,r8,r9,r10,r11,r12,pc}      
                            ;************************************************************************************************
                            ;*                                           FUNCTION                                           *
                            ;************************************************************************************************
                            ;ulonglong FUN_0001c586(uint param_1, uint param_2, uint param_3, uint param_4)
          ;param_1       uint                r0                      
          ;param_2       uint                r1                      
          ;param_3       uint                r2                      
          ;param_4       uint                r3                      
          ;local_28      undefined4         -28                      ;XREF[1,0]:   0001c5c4
          ;local_2c      undefined4         -2c                      ;XREF[4,0]:   0001c5c8,0001c5e6,0001c5fc,0001c61a
          ;local_30      undefined4         -30                      ;XREF[6,0]:   0001c594,0001c5d6,0001c616,0001c632,0001c6a6
                                                                     ;             0001c6b6
                                                          ;XREF[3,0]:   0001c6cc,0001c6d2,0001cfc0
ram:0001c586    2de9fe4f        push        {param_2,param_3,param_4,r4,r5,r6,r7,...
ram:0001c58a    8046            mov         r8,param_1                              
ram:0001c58c    81ea0300        eor.w       param_1,param_2,param_4                 
ram:0001c590    c00f            lsrs        param_1,param_1,#0x1f                   
ram:0001c592    0c46            mov         r4,param_2                              
ram:0001c594    0090            str         param_1,[sp,#0x0]=>local_30             
ram:0001c596    21f00041        bic         param_2,param_2,#0x80000000             
ram:0001c59a    23f00045        bic         r5,param_4,#0x80000000                  
ram:0001c59e    b8eb0200        subs.w      param_1,r8,param_3                      
ram:0001c5a2    a941            sbcs        param_2,r5                              
ram:0001c5a4    05d2            bcs         LAB_0001c5b2                            
ram:0001c5a6    4046            mov         param_1,r8                              
ram:0001c5a8    2146            mov         param_2,r4                              
ram:0001c5aa    9046            mov         r8,param_3                              
ram:0001c5ac    1c46            mov         r4,param_4                              
ram:0001c5ae    0b46            mov         param_4,param_2                         
ram:0001c5b0    0246            mov         param_3,param_1                         
                            LAB_0001c5b2:                 ;XREF[1,0]:   0001c5a4
ram:0001c5b2    23f00040        bic         param_1,param_4,#0x80000000             
ram:0001c5b6    1043            orrs        param_1,param_3                         
ram:0001c5b8    47d0            beq         LAB_0001c64a                            
ram:0001c5ba    270d            lsrs        r7,r4,#0x14                             
ram:0001c5bc    c7f30a00        ubfx        param_1,r7,#0x0,#0xb                    
ram:0001c5c0    c3f30a51        ubfx        param_2,param_4,#0x14,#0xb              
ram:0001c5c4    0290            str         param_1,[sp,#local_28+0x30]             
ram:0001c5c6    401a            subs        param_1,param_1,param_2                 
ram:0001c5c8    0190            str         param_1,[sp,#local_2c+0x30]             
ram:0001c5ca    4028            cmp         param_1,#0x40                           
ram:0001c5cc    6bda            bge         LAB_0001c6a6                            
ram:0001c5ce    c3f31300        ubfx        param_1,param_4,#0x0,#0x14              
ram:0001c5d2    40f4801b        orr         r11,param_1,#0x100000                   
ram:0001c5d6    0098            ldr         param_1,[sp,#0x0]=>local_30             
ram:0001c5d8    9246            mov         r10,param_3                             
ram:0001c5da    20b1            cbz         param_1,LAB_0001c5e6                    
ram:0001c5dc    0023            movs        param_4,#0x0                            
ram:0001c5de    d2eb030a        rsbs        r10,param_3,param_4                     
ram:0001c5e2    63eb0b0b        sbc.w       r11,param_4,r11                         
                            LAB_0001c5e6:                 ;XREF[1,0]:   0001c5da
ram:0001c5e6    0198            ldr         param_1,[sp,#local_2c+0x30]             
ram:0001c5e8    5946            mov         param_2,r11                             
ram:0001c5ea    c0f14002        rsb.w       param_3,param_1,#0x40                   
ram:0001c5ee    5046            mov         param_1,r10                             
ram:0001c5f0    00f094f9        bl          FUN_0001c91c                            ;longlong FUN_0001c91c(uint param_1, ...
ram:0001c5f4    0646            mov         r6,param_1                              
ram:0001c5f6    0d46            mov         r5,param_2                              
ram:0001c5f8    5046            mov         param_1,r10                             
ram:0001c5fa    5946            mov         param_2,r11                             
ram:0001c5fc    019a            ldr         param_3,[sp,#local_2c+0x30]             
ram:0001c5fe    00f0acf9        bl          FUN_0001c95a                            ;undefined8 FUN_0001c95a(uint param_1...
ram:0001c602    10eb0800        adds.w      param_1,param_1,r8                      
ram:0001c606    6141            adcs        param_2,r4                              
ram:0001c608    0024            movs        r4,#0x0                                 
ram:0001c60a    87ea1152        eor.w       param_3,r7,param_2, lsr #0x14           
ram:0001c60e    84eae773        eor.w       param_4,r4,r7, asr #0x1f                
ram:0001c612    1a43            orrs        param_3,param_4                         
ram:0001c614    40d0            beq         LAB_0001c698                            
ram:0001c616    009a            ldr         param_3,[sp,#0x0]=>local_30             
ram:0001c618    62b3            cbz         param_3,LAB_0001c674                    
ram:0001c61a    019a            ldr         param_3,[sp,#local_2c+0x30]             
ram:0001c61c    012a            cmp         param_3,#0x1                            
ram:0001c61e    4fea0752        lsl.w       param_3,r7,#0x14                        
ram:0001c622    15dc            bgt         LAB_0001c650                            
ram:0001c624    001b            subs        param_1,param_1,r4                      
ram:0001c626    61eb0201        sbc.w       param_2,param_2,param_3                 
ram:0001c62a    4ff00042        mov.w       param_3,#0x80000000                     
ram:0001c62e    02ea0752        and.w       param_3,param_3,r7, lsl #0x14           
ram:0001c632    cde90042        strd        r4,param_3,[sp,#0x0]=>local_30          
ram:0001c636    001c            adds        param_1,param_1,#0x0                    
ram:0001c638    41f58011        adc         param_2,param_2,#0x100000               
ram:0001c63c    3246            mov         param_3,r6                              
ram:0001c63e    2b46            mov         param_4,r5                              
ram:0001c640    00f0acf9        bl          FUN_0001c99c                            ;ulonglong FUN_0001c99c(uint param_1,...
                            LAB_0001c644:                 ;XREF[1,0]:   0001c64e
ram:0001c644    03b0            add         sp,#0xc                                 
ram:0001c646    bde8f08f        pop.w       {r4,r5,r6,r7,r8,r9,r10,r11,pc}          
                            LAB_0001c64a:                 ;XREF[1,0]:   0001c5b8
ram:0001c64a    4046            mov         param_1,r8                              
ram:0001c64c    2146            mov         param_2,r4                              
ram:0001c64e    f9e7            b           LAB_0001c644                            
                            LAB_0001c650:                 ;XREF[1,0]:   0001c622
ram:0001c650    001b            subs        param_1,param_1,r4                      
ram:0001c652    61eb0201        sbc.w       param_2,param_2,param_3                 
ram:0001c656    001c            adds        param_1,param_1,#0x0                    
ram:0001c658    41f58013        adc         param_4,param_2,#0x100000               
ram:0001c65c    0018            adds        param_1,param_1,param_1                 
ram:0001c65e    5b41            adcs        param_4,param_4                         
ram:0001c660    2018            adds        param_1,r4,param_1                      
ram:0001c662    a2f50017        sub.w       r7,param_3,#0x200000                    
ram:0001c666    47eb0301        adc.w       param_2,r7,param_4                      
ram:0001c66a    40ead570        orr.w       param_1,param_1,r5, lsr #0x1f           
ram:0001c66e    b619            adds        r6,r6,r6                                
ram:0001c670    6d41            adcs        r5,r5                                   
ram:0001c672    11e0            b           LAB_0001c698                            
                            LAB_0001c674:                 ;XREF[1,0]:   0001c618
ram:0001c674    6d08            lsrs        r5,r5,#0x1                              
ram:0001c676    4fea3606        rrx         r6,r6                                   
ram:0001c67a    45eac075        orr.w       r5,r5,param_1, lsl #0x1f                
ram:0001c67e    4fea0752        lsl.w       param_3,r7,#0x14                        
ram:0001c682    001b            subs        param_1,param_1,r4                      
ram:0001c684    61eb0201        sbc.w       param_2,param_2,param_3                 
ram:0001c688    001c            adds        param_1,param_1,#0x0                    
ram:0001c68a    41f58011        adc         param_2,param_2,#0x100000               
ram:0001c68e    4908            lsrs        param_2,param_2,#0x1                    
ram:0001c690    4fea3000        rrx         param_1,param_1                         
ram:0001c694    0019            adds        param_1,param_1,r4                      
ram:0001c696    5141            adcs        param_2,param_3                         
                            LAB_0001c698:                 ;XREF[2,0]:   0001c614,0001c672
ram:0001c698    3246            mov         param_3,r6                              
ram:0001c69a    2b46            mov         param_4,r5                              
                            LAB_0001c69c:                 ;XREF[1,0]:   0001c6c6
ram:0001c69c    03b0            add         sp,#0xc                                 
ram:0001c69e    bde8f04f        pop.w       {r4,r5,r6,r7,r8,r9,r10,r11,lr}          
ram:0001c6a2    00f06cb9        b.w         FUN_0001c97e                            ;undefined8 FUN_0001c97e(uint param_1...
                            LAB_0001c6a6:                 ;XREF[1,0]:   0001c5cc
ram:0001c6a6    0098            ldr         param_1,[sp,#0x0]=>local_30             
ram:0001c6a8    0122            movs        param_3,#0x1                            
ram:0001c6aa    4000            lsls        param_1,param_1,#0x1                    
ram:0001c6ac    0023            movs        param_4,#0x0                            
ram:0001c6ae    d0eb0202        rsbs        param_3,param_1,param_3                 
ram:0001c6b2    63ebe073        sbc.w       param_4,param_4,param_1, asr #0x1f      
ram:0001c6b6    0098            ldr         param_1,[sp,#0x0]=>local_30             
ram:0001c6b8    2146            mov         param_2,r4                              
ram:0001c6ba    4feae074        asr.w       r4,param_1, asr #0x1f                   
ram:0001c6be    b8eb0000        subs.w      param_1,r8,param_1                      
ram:0001c6c2    61eb0401        sbc.w       param_2,param_2,r4                      
ram:0001c6c6    e9e7            b           LAB_0001c69c                            
ram:0001c6c8    83f00043        eor         r3,r3,#0x80000000                       
ram:0001c6cc    5be7            b           FUN_0001c586                            ;ulonglong FUN_0001c586(uint param_1,...
ram:0001c6ce    81f00041        eor         r1,r1,#0x80000000                       
ram:0001c6d2    58e7            b           FUN_0001c586                            ;ulonglong FUN_0001c586(uint param_1,...
                            ;************************************************************************************************
                            ;*                                           FUNCTION                                           *
                            ;************************************************************************************************
                            ;ulonglong FUN_0001c6d4(uint param_1, uint param_2, uint param_3, uint param_4)
          ;param_1       uint                r0                      
          ;param_2       uint                r1                      
          ;param_3       uint                r2                      
          ;param_4       uint                r3                      
          ;local_28      undefined4         -28                      ;XREF[3,0]:   0001c736,0001c748,0001c7a0
          ;local_2c      undefined4         -2c                      ;XREF[2,0]:   0001c708,0001c796
          ;local_30      undefined4         -30                      ;XREF[3,0]:   0001c6e4,0001c7a2,0001c7a4
                                                          ;XREF[3,0]:   0001cf6c,0001cf7c,0001cf98
ram:0001c6d4    2de9fe4f        push        {param_2,param_3,param_4,r4,r5,r6,r7,...
ram:0001c6d8    81ea0304        eor.w       r4,param_2,param_4                      
ram:0001c6dc    04f00044        and         r4,r4,#0x80000000                       
ram:0001c6e0    21f00041        bic         param_2,param_2,#0x80000000             
ram:0001c6e4    0094            str         r4,[sp,#0x0]=>local_30                  
ram:0001c6e6    4ff0000b        mov.w       r11,#0x0                                
ram:0001c6ea    23f00043        bic         param_4,param_4,#0x80000000             
ram:0001c6ee    50ea0104        orrs.w      r4,param_1,param_2                      
ram:0001c6f2    5ed0            beq         LAB_0001c7b2                            
ram:0001c6f4    52ea0304        orrs.w      r4,param_3,param_4                      
ram:0001c6f8    5bd0            beq         LAB_0001c7b2                            
ram:0001c6fa    c3f30a54        ubfx        r4,param_4,#0x14,#0xb                   
ram:0001c6fe    c1f30a55        ubfx        r5,param_2,#0x14,#0xb                   
ram:0001c702    2c44            add         r4,r5                                   
ram:0001c704    a4f2f334        subw        r4,r4,#0x3f3                            
ram:0001c708    0194            str         r4,[sp,#local_2c+0x30]                  
ram:0001c70a    a0fb0254        umull       r5,r4,param_1,param_3                   
ram:0001c70e    c1f31301        ubfx        param_2,param_2,#0x0,#0x14              
ram:0001c712    41f48011        orr         param_2,param_2,#0x100000               
ram:0001c716    c3f31303        ubfx        param_4,param_4,#0x0,#0x14              
ram:0001c71a    43f48013        orr         param_4,param_4,#0x100000               
ram:0001c71e    01fb0244        mla         r4,param_2,param_3,r4                   
ram:0001c722    00fb034e        mla         lr,param_1,param_4,r4                   
ram:0001c726    840a            lsrs        r4,param_1,#0xa                         
ram:0001c728    970a            lsrs        r7,param_3,#0xa                         
ram:0001c72a    44ea8154        orr.w       r4,r4,param_2, lsl #0x16                
ram:0001c72e    47ea8357        orr.w       r7,r7,param_4, lsl #0x16                
ram:0001c732    a4fb0768        umull       r6,r8,r4,r7                             
ram:0001c736    0295            str         r5,[sp,#local_28+0x30]                  
ram:0001c738    8d0a            lsrs        r5,param_2,#0xa                         
ram:0001c73a    05fb0785        mla         r5,r5,r7,r8                             
ram:0001c73e    4fea932c        lsr.w       r12,param_4,#0xa                        
ram:0001c742    04fb0c54        mla         r4,r4,r12,r5                            
ram:0001c746    2705            lsls        r7,r4,#0x14                             
ram:0001c748    029d            ldr         r5,[sp,#local_28+0x30]                  
ram:0001c74a    4fea0658        lsl.w       r8,r6,#0x14                             
ram:0001c74e    47ea1637        orr.w       r7,r7,r6, lsr #0xc                      
ram:0001c752    b5eb0805        subs.w      r5,r5,r8                                
ram:0001c756    6eeb070c        sbc.w       r12,lr,r7                               
ram:0001c75a    870e            lsrs        r7,param_1,#0x1a                        
ram:0001c75c    920e            lsrs        param_3,param_3,#0x1a                   
ram:0001c75e    47ea8117        orr.w       r7,r7,param_2, lsl #0x6                 
ram:0001c762    42ea8312        orr.w       param_3,param_3,param_4, lsl #0x6       
ram:0001c766    a7fb0201        umull       param_1,param_2,r7,param_3              
ram:0001c76a    b6eb0b01        subs.w      param_2,r6,r11                          
ram:0001c76e    64eb0004        sbc.w       r4,r4,param_1                           
ram:0001c772    2b0d            lsrs        param_4,r5,#0x14                        
ram:0001c774    43ea0c33        orr.w       param_4,param_4,r12, lsl #0xc           
ram:0001c778    5e18            adds        r6,param_4,param_2                      
ram:0001c77a    44eb1c50        adc.w       param_1,r4,r12, lsr #0x14               
ram:0001c77e    da46            mov         r10,r11                                 
ram:0001c780    5146            mov         param_2,r10                             
ram:0001c782    e7fb0201        umlal       param_1,param_2,r7,param_3              
ram:0001c786    c5f31304        ubfx        r4,r5,#0x0,#0x14                        
ram:0001c78a    4fea0b33        lsl.w       param_4,r11,#0xc                        
ram:0001c78e    43ea1453        orr.w       param_4,param_4,r4, lsr #0x14           
ram:0001c792    4fea0432        lsl.w       param_3,r4,#0xc                         
ram:0001c796    019c            ldr         r4,[sp,#local_2c+0x30]                  
ram:0001c798    43ea0603        orr.w       param_4,param_4,r6                      
ram:0001c79c    a4f10c04        sub.w       r4,r4,#0xc                              
ram:0001c7a0    0294            str         r4,[sp,#local_28+0x30]                  
ram:0001c7a2    009c            ldr         r4,[sp,#0x0]=>local_30                  
ram:0001c7a4    cde900b4        strd        r11,r4,[sp,#0x0]=>local_30              
ram:0001c7a8    00f0f8f8        bl          FUN_0001c99c                            ;ulonglong FUN_0001c99c(uint param_1,...
                            LAB_0001c7ac:                 ;XREF[1,0]:   0001c7b6
ram:0001c7ac    03b0            add         sp,#0xc                                 
ram:0001c7ae    bde8f08f        pop.w       {r4,r5,r6,r7,r8,r9,r10,r11,pc}          
                            LAB_0001c7b2:                 ;XREF[2,0]:   0001c6f2,0001c6f8
ram:0001c7b2    0020            movs        param_1,#0x0                            
ram:0001c7b4    0146            mov         param_2,param_1                         
ram:0001c7b6    f9e7            b           LAB_0001c7ac                            
                            ;************************************************************************************************
                            ;*                                           FUNCTION                                           *
                            ;************************************************************************************************
                            ;undefined8 FUN_0001c7b8(uint param_1, uint param_2, uint param_3, uint param_4)
          ;param_1       uint                r0                      
          ;param_2       uint                r1                      
          ;param_3       uint                r2                      
          ;param_4       uint                r3                      
                                                          ;XREF[1,0]:   0001cf9e
ram:0001c7b8    2de9f04d        push        {r4,r5,r6,r7,r8,r10,r11,lr}             
ram:0001c7bc    81ea0304        eor.w       r4,param_2,param_4                      
ram:0001c7c0    04f0004b        and         r11,r4,#0x80000000                      
ram:0001c7c4    21f00045        bic         r5,param_2,#0x80000000                  
ram:0001c7c8    1446            mov         r4,param_3                              
ram:0001c7ca    4ff0000a        mov.w       r10,#0x0                                
ram:0001c7ce    23f00041        bic         param_2,param_4,#0x80000000             
ram:0001c7d2    50ea0502        orrs.w      param_3,param_1,r5                      
ram:0001c7d6    20d0            beq         LAB_0001c81a                            
ram:0001c7d8    54ea0102        orrs.w      param_3,r4,param_2                      
ram:0001c7dc    1dd0            beq         LAB_0001c81a                            
ram:0001c7de    c5f30a57        ubfx        r7,r5,#0x14,#0xb                        
ram:0001c7e2    0246            mov         param_3,param_1                         
ram:0001c7e4    c5f31303        ubfx        param_4,r5,#0x0,#0x14                   
ram:0001c7e8    c1f31300        ubfx        param_1,param_2,#0x0,#0x14              
ram:0001c7ec    c1f30a56        ubfx        r6,param_2,#0x14,#0xb                   
ram:0001c7f0    40f48015        orr         r5,param_1,#0x100000                    
ram:0001c7f4    43f48013        orr         param_4,param_4,#0x100000               
ram:0001c7f8    a7eb0608        sub.w       r8,r7,r6                                
ram:0001c7fc    101b            subs        param_1,param_3,r4                      
ram:0001c7fe    d646            mov         lr,r10                                  
ram:0001c800    08f2fd38        addw        r8,r8,#0x3fd                            
ram:0001c804    73eb0500        sbcs.w      param_1,param_4,r5                      
ram:0001c808    02d3            bcc         LAB_0001c810                            
ram:0001c80a    08f10108        add.w       r8,r8,#0x1                              
ram:0001c80e    01e0            b           LAB_0001c814                            
                            LAB_0001c810:                 ;XREF[1,0]:   0001c808
ram:0001c810    9218            adds        param_3,param_3,param_3                 
ram:0001c812    5b41            adcs        param_4,param_4                         
                            LAB_0001c814:                 ;XREF[1,0]:   0001c80e
ram:0001c814    b8f1000f        cmp.w       r8,#0x0                                 
ram:0001c818    03da            bge         LAB_0001c822                            
                            LAB_0001c81a:                 ;XREF[2,0]:   0001c7d6,0001c7dc
ram:0001c81a    0020            movs        param_1,#0x0                            
ram:0001c81c    0146            mov         param_2,param_1                         
ram:0001c81e    bde8f08d        pop.w       {r4,r5,r6,r7,r8,r10,r11,pc}             
                            LAB_0001c822:                 ;XREF[1,0]:   0001c818
ram:0001c822    0020            movs        param_1,#0x0                            
ram:0001c824    4ff48011        mov.w       param_2,#0x100000                       
ram:0001c828    0646            mov         r6,param_1                              
ram:0001c82a    8446            mov         r12,param_1                             
ram:0001c82c    0ee0            b           LAB_0001c84c                            
                            LAB_0001c82e:                 ;XREF[1,0]:   0001c850
ram:0001c82e    171b            subs        r7,param_3,r4                           
ram:0001c830    73eb0507        sbcs.w      r7,param_4,r5                           
ram:0001c834    05d3            bcc         LAB_0001c842                            
ram:0001c836    121b            subs        param_3,param_3,r4                      
ram:0001c838    63eb0503        sbc.w       param_4,param_4,r5                      
ram:0001c83c    0643            orrs        r6,param_1                              
ram:0001c83e    4cea010c        orr.w       r12,r12,param_2                         
                            LAB_0001c842:                 ;XREF[1,0]:   0001c834
ram:0001c842    4908            lsrs        param_2,param_2,#0x1                    
ram:0001c844    4fea3000        rrx         param_1,param_1                         
ram:0001c848    9218            adds        param_3,param_3,param_3                 
ram:0001c84a    5b41            adcs        param_4,param_4                         
                            LAB_0001c84c:                 ;XREF[1,0]:   0001c82c
ram:0001c84c    50ea0107        orrs.w      r7,param_1,param_2                      
ram:0001c850    edd1            bne         LAB_0001c82e                            
ram:0001c852    52ea0300        orrs.w      param_1,param_3,param_4                 
ram:0001c856    12d0            beq         LAB_0001c87e                            
ram:0001c858    82ea0400        eor.w       param_1,param_3,r4                      
ram:0001c85c    83ea0501        eor.w       param_2,param_4,r5                      
ram:0001c860    0843            orrs        param_1,param_2                         
ram:0001c862    05d0            beq         LAB_0001c870                            
ram:0001c864    101b            subs        param_1,param_3,r4                      
ram:0001c866    ab41            sbcs        param_4,r5                              
ram:0001c868    06d2            bcs         LAB_0001c878                            
ram:0001c86a    0122            movs        param_3,#0x1                            
ram:0001c86c    0023            movs        param_4,#0x0                            
ram:0001c86e    06e0            b           LAB_0001c87e                            
                            LAB_0001c870:                 ;XREF[1,0]:   0001c862
ram:0001c870    0022            movs        param_3,#0x0                            
ram:0001c872    4ff00043        mov.w       param_4,#0x80000000                     
ram:0001c876    02e0            b           LAB_0001c87e                            
                            LAB_0001c878:                 ;XREF[1,0]:   0001c868
ram:0001c878    6ff00102        mvn         param_3,#0x1                            
ram:0001c87c    5310            asrs        param_4,param_3,#0x1                    
                            LAB_0001c87e:                 ;XREF[3,0]:   0001c856,0001c86e,0001c876
ram:0001c87e    1aeb0600        adds.w      param_1,r10,r6                          
ram:0001c882    4ceb0851        adc.w       param_2,r12,r8, lsl #0x14               
ram:0001c886    10eb0a00        adds.w      param_1,param_1,r10                     
ram:0001c88a    41eb0b01        adc.w       param_2,param_2,r11                     
ram:0001c88e    bde8f04d        pop.w       {r4,r5,r6,r7,r8,r10,r11,lr}             
ram:0001c892    00f074b8        b.w         FUN_0001c97e                            ;undefined8 FUN_0001c97e(uint param_1...
                            ;************************************************************************************************
                            ;*                                           FUNCTION                                           *
                            ;************************************************************************************************
                            ;ulonglong FUN_0001c896(uint param_1, uint param_2)
          ;param_1       uint                r0                      
          ;param_2       uint                r1                      
                                                          ;XREF[1,0]:   0001cfc4
ram:0001c896    c1f30a52        ubfx        r2,param_2,#0x14,#0xb                   
ram:0001c89a    c1f31301        ubfx        param_2,param_2,#0x0,#0x14              
ram:0001c89e    40f2ff33        movw        r3,#0x3ff                               
ram:0001c8a2    41f48011        orr         param_2,param_2,#0x100000               
ram:0001c8a6    9a42            cmp         r2,r3                                   
ram:0001c8a8    02da            bge         LAB_0001c8b0                            
ram:0001c8aa    0020            movs        param_1,#0x0                            
ram:0001c8ac    0146            mov         param_2,param_1                         
ram:0001c8ae    7047            bx          lr                                      
                            LAB_0001c8b0:                 ;XREF[1,0]:   0001c8a8
ram:0001c8b0    40f23343        movw        r3,#0x433                               
ram:0001c8b4    9a42            cmp         r2,r3                                   
ram:0001c8b6    a2f23342        subw        r2,r2,#0x433                            
ram:0001c8ba    02dc            bgt         LAB_0001c8c2                            
ram:0001c8bc    5242            rsbs        r2,r2                                   
ram:0001c8be    00f03cb8        b.w         FUN_0001c93a                            ;ulonglong FUN_0001c93a(uint param_1,...
                            LAB_0001c8c2:                 ;XREF[1,0]:   0001c8ba
ram:0001c8c2    00f02bb8        b.w         FUN_0001c91c                            
ram:0001c8c6    00              ??          00h                                     
ram:0001c8c7    00              ??          00h                                     
                            ;************************************************************************************************
                            ;*                                           FUNCTION                                           *
                            ;************************************************************************************************
                            ;int FUN_0001c8c8(int param_1, int param_2)
          ;param_1       int                 r0                      
          ;param_2       int                 r1                      
                                                          ;XREF[1,0]:   0001cfaa
ram:0001c8c8    30b5            push        {r4,r5,lr}                              
ram:0001c8ca    041e            subs        r4,param_1,#0x0                         
ram:0001c8cc    71f10004        sbcs        r4,param_2,#0x0                         
ram:0001c8d0    04db            blt         LAB_0001c8dc                            
ram:0001c8d2    4ff00044        mov.w       r4,#0x80000000                          
ram:0001c8d6    4042            rsbs        param_1,param_1                         
ram:0001c8d8    64eb0101        sbc.w       param_2,r4,param_2                      
                            LAB_0001c8dc:                 ;XREF[1,0]:   0001c8d0
ram:0001c8dc    141e            subs        r4,r2,#0x0                              
ram:0001c8de    73f10004        sbcs        r4,r3,#0x0                              
ram:0001c8e2    05db            blt         LAB_0001c8f0                            
ram:0001c8e4    1c46            mov         r4,r3                                   
ram:0001c8e6    4ff00043        mov.w       r3,#0x80000000                          
ram:0001c8ea    5242            rsbs        r2,r2                                   
ram:0001c8ec    63eb0403        sbc.w       r3,r3,r4                                
                            LAB_0001c8f0:                 ;XREF[1,0]:   0001c8e2
ram:0001c8f0    9942            cmp         param_2,r3                              
ram:0001c8f2    08bf            it          eq                                      
ram:0001c8f4    9042            cmp.eq      param_1,r2                              
ram:0001c8f6    30bd            pop         {r4,r5,pc}                              
                            ;************************************************************************************************
                            ;*                                           FUNCTION                                           *
                            ;************************************************************************************************
                            ;longlong FUN_0001c8f8(void)
                                                          ;XREF[1,0]:   0001c404
ram:0001c8f8    064c            ldr         r4,[LAB_0001c914]                       
ram:0001c8fa    074d            ldr         r5,[LAB_0001c918]                       
ram:0001c8fc    06e0            b           LAB_0001c90c                            
                            LAB_0001c8fe:                 ;XREF[1,0]:   0001c90e
ram:0001c8fe    e068            ldr         r0,[r4,#0xc]=>->thunk_FUN_0001ced8      ;= 0001ced0
ram:0001c900    40f00103        orr         r3,r0,#0x1                              
                                                          ; FWD[5,0]:   0002052c,00020530,00020534,0002054c
                                                          ;             20002080
ram:0001c904    94e80700        ldm.w       r4,{r0,r1,r2}=>PTR_DAT_0002052c         ;= 0002054c
                                                                                    ;= 20002080h
                                                                                    ;= 000000D8h
ram:0001c908    9847            blx         r3=>thunk_FUN_0001ced8                  ;undefined thunk_FUN_0001ced8(undefin...
ram:0001c90a    1034            adds        r4,#0x10                                
                            LAB_0001c90c:                 ;XREF[1,0]:   0001c8fc
ram:0001c90c    ac42            cmp         r4,r5                                   
ram:0001c90e    f6d3            bcc         LAB_0001c8fe                            
ram:0001c910    fff77afd        bl          thunk_FUN_0001f028                      ;undefined thunk_FUN_0001f028(void)
                            LAB_0001c914:                 ;XREF[1,0]:   0001c8f8
ram:0001c914    2c05            lsls        r4,r5,#0x14                             
ram:0001c916    0200            movs        r2,r0                                   
                            LAB_0001c918:                 ;XREF[1,0]:   0001c8fa
ram:0001c918    4c05            lsls        r4,r1,#0x15                             
ram:0001c91a    0200            movs        r2,r0                                   
                            ;************************************************************************************************
                            ;*                                           FUNCTION                                           *
                            ;************************************************************************************************
                            ;longlong FUN_0001c91c(uint param_1, int param_2, uint param_3)
          ;param_1       uint                r0                      
          ;param_2       int                 r1                      
          ;param_3       uint                r2                      
                                                          ;XREF[6,0]:   0001c556,0001c568,0001c5f0,0001c8c2
                                                          ;             0001c9b4,0001c9e8
ram:0001c91c    202a            cmp         param_3,#0x20                           
ram:0001c91e    04db            blt         LAB_0001c92a                            
ram:0001c920    203a            subs        param_3,#0x20                           
ram:0001c922    00fa02f1        lsl.w       param_2,param_1,param_3                 
ram:0001c926    0020            movs        param_1,#0x0                            
ram:0001c928    7047            bx          lr                                      
                            LAB_0001c92a:                 ;XREF[1,0]:   0001c91e
ram:0001c92a    9140            lsls        param_2,param_3                         
ram:0001c92c    c2f12003        rsb.w       r3,param_3,#0x20                        
ram:0001c930    20fa03f3        lsr.w       r3,param_1,r3                           
ram:0001c934    1943            orrs        param_2,r3                              
ram:0001c936    9040            lsls        param_1,param_3                         
ram:0001c938    7047            bx          lr                                      
                            ;************************************************************************************************
                            ;*                                           FUNCTION                                           *
                            ;************************************************************************************************
                            ;ulonglong FUN_0001c93a(uint param_1, uint param_2, uint param_3)
          ;param_1       uint                r0                      
          ;param_2       uint                r1                      
          ;param_3       uint                r2                      
                                                          ;XREF[3,0]:   0001c542,0001c8be,0001c9da
ram:0001c93a    202a            cmp         param_3,#0x20                           
ram:0001c93c    04db            blt         LAB_0001c948                            
ram:0001c93e    203a            subs        param_3,#0x20                           
ram:0001c940    21fa02f0        lsr.w       param_1,param_2,param_3                 
ram:0001c944    0021            movs        param_2,#0x0                            
ram:0001c946    7047            bx          lr                                      
                            LAB_0001c948:                 ;XREF[1,0]:   0001c93c
ram:0001c948    21fa02f3        lsr.w       r3,param_2,param_3                      
ram:0001c94c    d040            lsrs        param_1,param_3                         
ram:0001c94e    c2f12002        rsb.w       param_3,param_3,#0x20                   
ram:0001c952    9140            lsls        param_2,param_3                         
ram:0001c954    0843            orrs        param_1,param_2                         
ram:0001c956    1946            mov         param_2,r3                              
ram:0001c958    7047            bx          lr                                      
                            ;************************************************************************************************
                            ;*                                           FUNCTION                                           *
                            ;************************************************************************************************
                            ;undefined8 FUN_0001c95a(uint param_1, uint param_2, uint param_3)
          ;param_1       uint                r0                      
          ;param_2       uint                r1                      
          ;param_3       uint                r2                      
                                                          ;XREF[1,0]:   0001c5fe
ram:0001c95a    202a            cmp         param_3,#0x20                           
ram:0001c95c    06db            blt         LAB_0001c96c                            
ram:0001c95e    cb17            asrs        r3,param_2,#0x1f                        
ram:0001c960    203a            subs        param_3,#0x20                           
ram:0001c962    41fa02f0        asr.w       param_1,param_2,param_3                 
ram:0001c966    43eae073        orr.w       r3,r3,param_1, asr #0x1f                
ram:0001c96a    06e0            b           LAB_0001c97a                            
                            LAB_0001c96c:                 ;XREF[1,0]:   0001c95c
ram:0001c96c    41fa02f3        asr.w       r3,param_2,param_3                      
ram:0001c970    d040            lsrs        param_1,param_3                         
ram:0001c972    c2f12002        rsb.w       param_3,param_3,#0x20                   
ram:0001c976    9140            lsls        param_2,param_3                         
ram:0001c978    0843            orrs        param_1,param_2                         
                            LAB_0001c97a:                 ;XREF[1,0]:   0001c96a
ram:0001c97a    1946            mov         param_2,r3                              
ram:0001c97c    7047            bx          lr                                      
                            ;************************************************************************************************
                            ;*                                           FUNCTION                                           *
                            ;************************************************************************************************
                            ;undefined8 FUN_0001c97e(uint param_1, int param_2, uint param_3, int param_4)
          ;param_1       uint                r0                      
          ;param_2       int                 r1                      
          ;param_3       uint                r2                      
          ;param_4       int                 r3                      
                                                          ;XREF[3,0]:   0001c6a2,0001c892,0001ca36
ram:0001c97e    10b5            push        {r4,lr}                                 
ram:0001c980    141e            subs        r4,param_3,#0x0                         
ram:0001c982    73f10004        sbcs        r4,param_4,#0x0                         
ram:0001c986    08da            bge         LAB_0001c99a                            
ram:0001c988    401c            adds        param_1,param_1,#0x1                    
ram:0001c98a    41f10001        adc         param_2,param_2,#0x0                    
ram:0001c98e    9218            adds        param_3,param_3,param_3                 
ram:0001c990    5b41            adcs        param_4,param_4                         
ram:0001c992    1a43            orrs        param_3,param_4                         
ram:0001c994    01d1            bne         LAB_0001c99a                            
ram:0001c996    20f00100        bic         param_1,param_1,#0x1                    
                            LAB_0001c99a:                 ;XREF[2,0]:   0001c986,0001c994
ram:0001c99a    10bd            pop         {r4,pc}                                 
                            ;************************************************************************************************
                            ;*                                           FUNCTION                                           *
                            ;************************************************************************************************
                            ;ulonglong FUN_0001c99c(uint param_1, int param_2, uint param_3, uint param_4, uint param_5, int param_6, int param_7)
          ;param_1       uint                r0                      
          ;param_2       int                 r1                      
          ;param_3       uint                r2                      
          ;param_4       uint                r3                      
          ;param_5       uint                 0                      ;XREF[1,0]:   0001ca2a
          ;param_6       int                  4                      
          ;param_7       int                  8                      ;XREF[1,0]:   0001ca08
                                                          ;XREF[2,0]:   0001c640,0001c7a8
ram:0001c99c    2de9f04d        push        {r4,r5,r6,r7,r8,r10,r11,lr}             
ram:0001c9a0    9246            mov         r10,param_3                             
ram:0001c9a2    9b46            mov         r11,param_4                             
ram:0001c9a4    11b1            cbz         param_2,LAB_0001c9ac                    
ram:0001c9a6    b1fa81f2        clz         param_3,param_2                         
ram:0001c9aa    02e0            b           LAB_0001c9b2                            
                            LAB_0001c9ac:                 ;XREF[1,0]:   0001c9a4
ram:0001c9ac    b0fa80f2        clz         param_3,param_1                         
ram:0001c9b0    2032            adds        param_3,#0x20                           
                            LAB_0001c9b2:                 ;XREF[1,0]:   0001c9aa
ram:0001c9b2    9046            mov         r8,param_3                              
ram:0001c9b4    fff7b2ff        bl          FUN_0001c91c                            ;longlong FUN_0001c91c(uint param_1, ...
ram:0001c9b8    0446            mov         r4,param_1                              
ram:0001c9ba    0f46            mov         r7,param_2                              
ram:0001c9bc    40ea0a00        orr.w       param_1,param_1,r10                     
ram:0001c9c0    41ea0b01        orr.w       param_2,param_2,r11                     
ram:0001c9c4    5346            mov         param_4,r10                             
ram:0001c9c6    5a46            mov         param_3,r11                             
ram:0001c9c8    0843            orrs        param_1,param_2                         
ram:0001c9ca    13d0            beq         LAB_0001c9f4                            
ram:0001c9cc    1146            mov         param_2,param_3                         
ram:0001c9ce    53ea0100        orrs.w      param_1,param_4,param_2                 
ram:0001c9d2    19d0            beq         LAB_0001ca08                            
ram:0001c9d4    c8f14002        rsb.w       param_3,r8,#0x40                        
ram:0001c9d8    5046            mov         param_1,r10                             
ram:0001c9da    fff7aeff        bl          FUN_0001c93a                            ;ulonglong FUN_0001c93a(uint param_1,...
ram:0001c9de    0546            mov         r5,param_1                              
ram:0001c9e0    0e46            mov         r6,param_2                              
ram:0001c9e2    5046            mov         param_1,r10                             
ram:0001c9e4    5946            mov         param_2,r11                             
ram:0001c9e6    4246            mov         param_3,r8                              
ram:0001c9e8    fff798ff        bl          FUN_0001c91c                            ;longlong FUN_0001c91c(uint param_1, ...
ram:0001c9ec    0843            orrs        param_1,param_2                         
ram:0001c9ee    05d0            beq         LAB_0001c9fc                            
ram:0001c9f0    0120            movs        param_1,#0x1                            
ram:0001c9f2    04e0            b           LAB_0001c9fe                            
                            LAB_0001c9f4:                 ;XREF[1,0]:   0001c9ca
ram:0001c9f4    2046            mov         param_1,r4                              
ram:0001c9f6    3946            mov         param_2,r7                              
                            LAB_0001c9f8:                 ;XREF[1,0]:   0001ca22
ram:0001c9f8    bde8f08d        pop.w       {r4,r5,r6,r7,r8,r10,r11,pc}             
                            LAB_0001c9fc:                 ;XREF[1,0]:   0001c9ee
ram:0001c9fc    0020            movs        param_1,#0x0                            
                            LAB_0001c9fe:                 ;XREF[1,0]:   0001c9f2
ram:0001c9fe    0543            orrs        r5,param_1                              
ram:0001ca00    46eae076        orr.w       r6,r6,param_1, asr #0x1f                
ram:0001ca04    2c43            orrs        r4,r5                                   
ram:0001ca06    3743            orrs        r7,r6                                   
                            LAB_0001ca08:                 ;XREF[1,0]:   0001c9d2
ram:0001ca08    0a98            ldr         param_1,[sp,#param_7+0x20]              
ram:0001ca0a    6305            lsls        param_4,r4,#0x15                        
ram:0001ca0c    e40a            lsrs        r4,r4,#0xb                              
ram:0001ca0e    a0eb0800        sub.w       param_1,param_1,r8                      
ram:0001ca12    0022            movs        param_3,#0x0                            
ram:0001ca14    fd0a            lsrs        r5,r7,#0xb                              
ram:0001ca16    44ea4754        orr.w       r4,r4,r7, lsl #0x15                     
ram:0001ca1a    0a30            adds        param_1,#0xa                            
ram:0001ca1c    02d5            bpl         LAB_0001ca24                            
ram:0001ca1e    0020            movs        param_1,#0x0                            
ram:0001ca20    0146            mov         param_2,param_1                         
ram:0001ca22    e9e7            b           LAB_0001c9f8                            
                            LAB_0001ca24:                 ;XREF[1,0]:   0001ca1c
ram:0001ca24    0105            lsls        param_2,param_1,#0x14                   
ram:0001ca26    1019            adds        param_1,param_3,r4                      
ram:0001ca28    6941            adcs        param_2,r5                              
ram:0001ca2a    dde90845        ldrd        r4,r5,[sp,#param_5+0x20]                
ram:0001ca2e    0019            adds        param_1,param_1,r4                      
ram:0001ca30    6941            adcs        param_2,r5                              
ram:0001ca32    bde8f04d        pop.w       {r4,r5,r6,r7,r8,r10,r11,lr}             
ram:0001ca36    a2e7            b           FUN_0001c97e                            ;undefined8 FUN_0001c97e(uint param_1...
                            ;************************************************************************************************
                            ;*                                           FUNCTION                                           *
                            ;************************************************************************************************
                            ;undefined FUNC_VT_0001ca38(void)
          ;local_2c      undefined4         -2c                      ;XREF[4,0]:   0001cac4,0001cb08,0001cb0c,0001cb62
          ;local_30      undefined4         -30                      ;XREF[3,0]:   0001caf6,0001cb42,0001cb46
                                                          ;XREF[0,1]:   0001c058
ram:0001ca38    2de9fc5f        push        {r2,r3,r4,r5,r6,r7,r8,r9,r10,r11,r12,lr}
ram:0001ca3c    0025            movs        r5,#0x0                                 
ram:0001ca3e    dff83491        ldr.w       r9,[DAT_0001cb74]                       ;= 40006000h
ram:0001ca42    a846            mov         r8,r5                                   
ram:0001ca44    4ff48076        mov.w       r6,#0x100                               
ram:0001ca48    0124            movs        r4,#0x1                                 
ram:0001ca4a    2f46            mov         r7,r5                                   
                            LAB_0001ca4c:                 ;XREF[1,0]:   0001ca6e
ram:0001ca4c    3046            mov         r0,r6                                   
ram:0001ca4e    02f05fff        bl          FUN_0001f910                            ;int FUN_0001f910(int param_1)
ram:0001ca52    38b1            cbz         r0,LAB_0001ca64                         
ram:0001ca54    d9f80403        ldr.w       r0,[r9,#0x304]=>DAT_40006304            
ram:0001ca58    2042            tst         r0,r4                                   
ram:0001ca5a    03d0            beq         LAB_0001ca64                            
ram:0001ca5c    3046            mov         r0,r6                                   
ram:0001ca5e    02f04dff        bl          FUN_0001f8fc                            ;undefined FUN_0001f8fc(int param_1)
ram:0001ca62    2543            orrs        r5,r4                                   
                            LAB_0001ca64:                 ;XREF[2,0]:   0001ca52,0001ca5a
ram:0001ca64    361d            adds        r6,r6,#0x4                              
ram:0001ca66    6400            lsls        r4,r4,#0x1                              
ram:0001ca68    7f1c            adds        r7,r7,#0x1                              
ram:0001ca6a    b6b2            uxth        r6,r6                                   
ram:0001ca6c    082f            cmp         r7,#0x8                                 
ram:0001ca6e    edd3            bcc         LAB_0001ca4c                            
ram:0001ca70    4ff4be74        mov.w       r4,#0x17c                               
ram:0001ca74    2046            mov         r0,r4                                   
ram:0001ca76    02f04bff        bl          FUN_0001f910                            ;int FUN_0001f910(int param_1)
ram:0001ca7a    38b1            cbz         r0,LAB_0001ca8c                         
ram:0001ca7c    2046            mov         r0,r4                                   
ram:0001ca7e    02f03dff        bl          FUN_0001f8fc                            ;undefined FUN_0001f8fc(int param_1)
ram:0001ca82    3d48            ldr         r0,[DAT_0001cb78]                       ;= 50000510h
ram:0001ca84    45f00045        orr         r5,r5,#0x80000000                       
ram:0001ca88    d0f80080        ldr.w       r8,[r0,#0x0]=>DAT_50000510              
                            LAB_0001ca8c:                 ;XREF[1,0]:   0001ca7a
ram:0001ca8c    3b4e            ldr         r6,[DAT_0001cb7c]                       ;= 20002764h
ram:0001ca8e    15f0ff0f        tst         r5,#0xff                                
ram:0001ca92    14d0            beq         LAB_0001cabe                            
ram:0001ca94    0127            movs        r7,#0x1                                 
ram:0001ca96    0024            movs        r4,#0x0                                 
                            LAB_0001ca98:                 ;XREF[1,0]:   0001cabc
ram:0001ca98    2f42            tst         r7,r5                                   
ram:0001ca9a    0cd0            beq         LAB_0001cab6                            
ram:0001ca9c    09eb8401        add.w       r1,r9,r4, lsl #0x2                      
ram:0001caa0    d1f81005        ldr.w       r0,[r1,#0x510]=>DAT_40006510            
ram:0001caa4    d1f81015        ldr.w       r1,[r1,#0x510]=>DAT_40006510            
ram:0001caa8    c0f30420        ubfx        r0,r0,#0x8,#0x5                         
ram:0001caac    56f82420        ldr.w       r2,r6=>DAT_20002764,r4,0x2              
ram:0001cab0    c1f30141        ubfx        r1,r1,#0x10,#0x2                        
ram:0001cab4    9047            blx         r2                                      
                            LAB_0001cab6:                 ;XREF[1,0]:   0001ca9a
ram:0001cab6    7f00            lsls        r7,r7,#0x1                              
ram:0001cab8    641c            adds        r4,r4,#0x1                              
ram:0001caba    082c            cmp         r4,#0x8                                 
ram:0001cabc    ecd3            bcc         LAB_0001ca98                            
                            LAB_0001cabe:                 ;XREF[1,0]:   0001ca92
ram:0001cabe    002d            cmp         r5,#0x0                                 
ram:0001cac0    56da            bge         LAB_0001cb70                            
ram:0001cac2    0020            movs        r0,#0x0                                 
ram:0001cac4    0190            str         r0,[sp,#local_2c+0x30]                  
ram:0001cac6    401e            subs        r0,r0,#0x1                              
ram:0001cac8    4ce0            b           LAB_0001cb64                            
                            LAB_0001caca:                 ;XREF[2,0]:   0001cb52,0001cb6a
ram:0001caca    7019            adds        r0,r6,r5                                
                                                          ; FWD[2,0]:   200027b4,200027b5
ram:0001cacc    10f8501f        ldrb.w      r1,[r0,#0x50]!=>DAT_200027b4            
                                                          ; FWD[2,0]:   200027b4,200027b5
ram:0001cad0    90f90000        ldrsb.w     r0,[r0,#0x0]=>DAT_200027b4              
ram:0001cad4    21f0c004        bic         r4,r1,#0xc0                             
ram:0001cad8    401c            adds        r0,r0,#0x1                              
ram:0001cada    38d0            beq         LAB_0001cb4e                            
ram:0001cadc    0120            movs        r0,#0x1                                 
ram:0001cade    00fa04fa        lsl.w       r10,r0,r4                               
ram:0001cae2    1aea090f        tst.w       r10,r9                                  
ram:0001cae6    32d0            beq         LAB_0001cb4e                            
ram:0001cae8    4fea911b        lsr.w       r11,r1,#0x6                             
ram:0001caec    2046            mov         r0,r4                                   
ram:0001caee    01f0ebff        bl          FUN_0001eac8                            ;int FUN_0001eac8(int param_1)
ram:0001caf2    56f82000        ldr.w       r0,r6=>DAT_20002764,r0,0x2              
ram:0001caf6    0090            str         r0,[sp,#0x0]=>local_30                  
ram:0001caf8    10b9            cbnz        r0,LAB_0001cb00                         
ram:0001cafa    bbf1030f        cmp.w       r11,#0x3                                
ram:0001cafe    26d1            bne         LAB_0001cb4e                            
                            LAB_0001cb00:                 ;XREF[1,0]:   0001caf8
ram:0001cb00    5146            mov         r1,r10                                  
ram:0001cb02    bbf1030f        cmp.w       r11,#0x3                                
ram:0001cb06    02d1            bne         LAB_0001cb0e                            
ram:0001cb08    0198            ldr         r0,[sp,#local_2c+0x30]                  
ram:0001cb0a    0843            orrs        r0,r1                                   
ram:0001cb0c    0190            str         r0,[sp,#local_2c+0x30]                  
                            LAB_0001cb0e:                 ;XREF[1,0]:   0001cb06
ram:0001cb0e    a000            lsls        r0,r4,#0x2                              
ram:0001cb10    00f1a040        add.w       r0,r0,#0x50000000                       
ram:0001cb14    d0f80007        ldr.w       r0,[r0,#0x700]                          
ram:0001cb18    1aea080f        tst.w       r10,r8                                  
ram:0001cb1c    c0f30140        ubfx        r0,r0,#0x10,#0x2                        
ram:0001cb20    02d0            beq         LAB_0001cb28                            
ram:0001cb22    0228            cmp         r0,#0x2                                 
ram:0001cb24    02d0            beq         LAB_0001cb2c                            
ram:0001cb26    12e0            b           LAB_0001cb4e                            
                            LAB_0001cb28:                 ;XREF[1,0]:   0001cb20
ram:0001cb28    0328            cmp         r0,#0x3                                 
ram:0001cb2a    10d1            bne         LAB_0001cb4e                            
                            LAB_0001cb2c:                 ;XREF[1,0]:   0001cb24
ram:0001cb2c    bbf1030f        cmp.w       r11,#0x3                                
ram:0001cb30    07d1            bne         LAB_0001cb42                            
ram:0001cb32    0228            cmp         r0,#0x2                                 
ram:0001cb34    1ad0            beq         LAB_0001cb6c                            
ram:0001cb36    0221            movs        r1,#0x2                                 
                            LAB_0001cb38:                 ;XREF[1,0]:   0001cb6e
ram:0001cb38    2046            mov         r0,r4                                   
ram:0001cb3a    02f0d0fe        bl          FUN_0001f8de                            ;undefined FUN_0001f8de(int param_1, ...
ram:0001cb3e    7f1c            adds        r7,r7,#0x1                              
ram:0001cb40    ffb2            uxtb        r7,r7                                   
                            LAB_0001cb42:                 ;XREF[1,0]:   0001cb30
ram:0001cb42    0098            ldr         r0,[sp,#0x0]=>local_30                  
ram:0001cb44    18b1            cbz         r0,LAB_0001cb4e                         
ram:0001cb46    009a            ldr         r2,[sp,#0x0]=>local_30                  
ram:0001cb48    5946            mov         r1,r11                                  
ram:0001cb4a    2046            mov         r0,r4                                   
ram:0001cb4c    9047            blx         r2                                      
                            LAB_0001cb4e:                 ;XREF[6,0]:   0001cada,0001cae6,0001cafe,0001cb26
                                                          ;             0001cb2a,0001cb44
ram:0001cb4e    6d1c            adds        r5,r5,#0x1                              
ram:0001cb50    042d            cmp         r5,#0x4                                 
ram:0001cb52    bad3            bcc         LAB_0001caca                            
ram:0001cb54    002f            cmp         r7,#0x0                                 
ram:0001cb56    0bd0            beq         LAB_0001cb70                            
ram:0001cb58    0748            ldr         r0,[DAT_0001cb78]                       ;= 50000510h
ram:0001cb5a    0068            ldr         r0,[r0,#0x0]=>DAT_50000510              
ram:0001cb5c    4045            cmp         r0,r8                                   
ram:0001cb5e    07d0            beq         LAB_0001cb70                            
ram:0001cb60    8046            mov         r8,r0                                   
ram:0001cb62    0198            ldr         r0,[sp,#local_2c+0x30]                  
                            LAB_0001cb64:                 ;XREF[1,0]:   0001cac8
ram:0001cb64    0027            movs        r7,#0x0                                 
ram:0001cb66    8146            mov         r9,r0                                   
ram:0001cb68    3d46            mov         r5,r7                                   
ram:0001cb6a    aee7            b           LAB_0001caca                            
                            LAB_0001cb6c:                 ;XREF[1,0]:   0001cb34
ram:0001cb6c    0321            movs        r1,#0x3                                 
ram:0001cb6e    e3e7            b           LAB_0001cb38                            
                            LAB_0001cb70:                 ;XREF[3,0]:   0001cac0,0001cb56,0001cb5e
ram:0001cb70    bde8fc9f        pop.w       {r2,r3,r4,r5,r6,r7,r8,r9,r10,r11,r12,pc}
                            DAT_0001cb74:                 ;XREF[1,0]:   0001ca3e
ram:0001cb74    00600040        undefined4  40006000h                               
                            DAT_0001cb78:                 ;XREF[2,0]:   0001ca82,0001cb58
ram:0001cb78    10050050        undefined4  50000510h                               
                            DAT_0001cb7c:                 ;XREF[1,0]:   0001ca8c
ram:0001cb7c    64270020        undefined4  20002764h                               
                            ;************************************************************************************************
                            ;*                                           FUNCTION                                           *
                            ;************************************************************************************************
                            ;undefined FUN_0001cb80(uint param_1)
          ;param_1       uint                r0                      
                                                          ;XREF[2,0]:   0001db6e,0001eb0e
ram:0001cb80    00f01f02        and         r2,param_1,#0x1f                        
ram:0001cb84    0121            movs        r1,#0x1                                 
ram:0001cb86    9140            lsls        r1,r2                                   
ram:0001cb88    4009            lsrs        param_1,param_1,#0x5                    
ram:0001cb8a    8000            lsls        param_1,param_1,#0x2                    
ram:0001cb8c    00f1e020        add.w       param_1,param_1,#0xe000e000             
ram:0001cb90    c0f88012        str.w       r1,[param_1,#0x280]                     
ram:0001cb94    7047            bx          lr                                      
                            ;************************************************************************************************
                            ;*                                           FUNCTION                                           *
                            ;************************************************************************************************
                            ;undefined FUN_0001cb96(uint param_1)
          ;param_1       uint                r0                      
                                                          ;XREF[2,0]:   0001db7c,0001eb14
ram:0001cb96    00f01f02        and         r2,param_1,#0x1f                        
ram:0001cb9a    0121            movs        r1,#0x1                                 
ram:0001cb9c    9140            lsls        r1,r2                                   
ram:0001cb9e    4009            lsrs        param_1,param_1,#0x5                    
ram:0001cba0    8000            lsls        param_1,param_1,#0x2                    
ram:0001cba2    00f1e020        add.w       param_1,param_1,#0xe000e000             
ram:0001cba6    c0f80011        str.w       r1,[param_1,#0x100]=>DAT_e000e100       
ram:0001cbaa    7047            bx          lr                                      
                            ;************************************************************************************************
                            ;*                                           FUNCTION                                           *
                            ;************************************************************************************************
                            ;undefined FUN_0001cbac(uint param_1)
          ;param_1       uint                r0                      
                                                          ;XREF[4,0]:   0001dc12,0001dc6c,0001eb68,0001fef8
ram:0001cbac    00f01f02        and         r2,param_1,#0x1f                        
ram:0001cbb0    0121            movs        r1,#0x1                                 
ram:0001cbb2    9140            lsls        r1,r2                                   
ram:0001cbb4    4009            lsrs        param_1,param_1,#0x5                    
ram:0001cbb6    8000            lsls        param_1,param_1,#0x2                    
ram:0001cbb8    00f1e020        add.w       param_1,param_1,#0xe000e000             
ram:0001cbbc    c0f80012        str.w       r1,[param_1,#0x200]                     
ram:0001cbc0    7047            bx          lr                                      
                            ;************************************************************************************************
                            ;*                                           FUNCTION                                           *
                            ;************************************************************************************************
                            ;undefined FUN_0001cbc2(uint param_1, int param_2)
          ;param_1       uint                r0                      
          ;param_2       int                 r1                      
                                                          ;XREF[2,0]:   0001db76,0001db8a
ram:0001cbc2    4907            lsls        param_2,param_2,#0x1d                   
ram:0001cbc4    090e            lsrs        param_2,param_2,#0x18                   
ram:0001cbc6    0028            cmp         param_1,#0x0                            
ram:0001cbc8    06da            bge         LAB_0001cbd8                            
ram:0001cbca    00f00f00        and         param_1,param_1,#0xf                    
ram:0001cbce    00f1e020        add.w       param_1,param_1,#0xe000e000             
ram:0001cbd2    80f8141d        strb.w      param_2,[param_1,#0xd14]                
ram:0001cbd6    7047            bx          lr                                      
                            LAB_0001cbd8:                 ;XREF[1,0]:   0001cbc8
ram:0001cbd8    00f1e020        add.w       param_1,param_1,#0xe000e000             
ram:0001cbdc    80f80014        strb.w      param_2,[param_1,#0x400]                
ram:0001cbe0    7047            bx          lr                                      
ram:0001cbe2    0000            movs        r0,r0                                   
                            ;************************************************************************************************
                            ;*                                           FUNCTION                                           *
                            ;************************************************************************************************
                            ;undefined FUNC_VT_0001cbe4(void)
                                                          ;XREF[0,1]:   0001c084
ram:0001cbe4    0748            ldr         r0=>DAT_40011000,[DAT_0001cc04]         ;= 40011000h
ram:0001cbe6    0021            movs        r1,#0x0                                 
ram:0001cbe8    c0f84011        str.w       r1,[r0,#0x140]=>DAT_40011140            
ram:0001cbec    c0f84411        str.w       r1,[r0,#0x144]=>DAT_40011144            
ram:0001cbf0    c0f84811        str.w       r1,[r0,#0x148]=>DAT_40011148            
ram:0001cbf4    c0f84c11        str.w       r1,[r0,#0x14c]=>DAT_4001114c            
ram:0001cbf8    c0f80011        str.w       r1,[r0,#0x100]=>DAT_40011100            
ram:0001cbfc    c0f80411        str.w       r1,[r0,#0x104]=>DAT_40011104            
ram:0001cc00    03f040b9        b.w         FUN_0001fe84                            ;undefined FUN_0001fe84(void)
                            DAT_0001cc04:                 ;XREF[1,0]:   0001cbe4
ram:0001cc04    00100140        undefined4  40011000h                               
                            ;************************************************************************************************
                            ;*                                           FUNCTION                                           *
                            ;************************************************************************************************
                            ;undefined thunk_FUN_0001fdbc(void)
                                                          ;XREF[0,1]:   0001c090
ram:0001cc08    03f0d8b8        b.w         FUN_0001fdbc                            ;undefined FUN_0001fdbc(void)
                            ;************************************************************************************************
                            ;*                                           FUNCTION                                           *
                            ;************************************************************************************************
                            ;undefined FUNC_VT_0001cc0c(void)
          ;local_18      undefined4         -18                      ;XREF[2,0]:   0001ede4,0001edec
                                                          ;XREF[0,1]:   0001c098
ram:0001cc0c    0748            ldr         r0,[DAT_0001cc2c]                       ;= 20002140h
ram:0001cc0e    10b5            push        {r4,lr}                                 
ram:0001cc10    4068            ldr         r0,[r0,#0x4]=>DAT_20002144              
ram:0001cc12    30b1            cbz         r0,LAB_0001cc22                         
ram:0001cc14    8047            blx         r0                                      
ram:0001cc16    0028            cmp         r0,#0x0                                 
ram:0001cc18    07d0            beq         LAB_0001cc2a                            
ram:0001cc1a    bde81040        pop.w       {r4,lr}                                 
ram:0001cc1e    00f039bf        b.w         FUN_0001da94                            ;undefined FUN_0001da94(void)
                            LAB_0001cc22:                 ;XREF[1,0]:   0001cc12
ram:0001cc22    bde81040        pop.w       {r4,lr}                                 
ram:0001cc26    02f0c1b8        b.w         LAB_0001edac                            
                            LAB_0001cc2a:                 ;XREF[1,0]:   0001cc18
ram:0001cc2a    10bd            pop         {r4,pc}                                 
                            DAT_0001cc2c:                 ;XREF[1,0]:   0001cc0c
ram:0001cc2c    40210020        undefined4  20002140h                               
                            ;************************************************************************************************
                            ;*                                           FUNCTION                                           *
                            ;************************************************************************************************
                            ;undefined FUN_0001cc30(void)
                                                          ;XREF[1,1]:   0001c48e,0001c4a8
ram:0001cc30    70b5            push        {r4,r5,r6,lr}                           
ram:0001cc32    8d48            ldr         r0,[DAT_0001ce68]                       ;= F0000FE0h
ram:0001cc34    0023            movs        r3,#0x0                                 
ram:0001cc36    021d            adds        r2,r0,#0x4                              
ram:0001cc38    0178            ldrb        r1,[r0,#0x0]=>DAT_f0000fe0              
ram:0001cc3a    101d            adds        r0,r2,#0x4                              
ram:0001cc3c    0124            movs        r4,#0x1                                 
ram:0001cc3e    0629            cmp         r1,#0x6                                 
ram:0001cc40    07d1            bne         LAB_0001cc52                            
ram:0001cc42    1578            ldrb        r5,[r2,#0x0]=>DAT_f0000fe4              
ram:0001cc44    2d07            lsls        r5,r5,#0x1c                             
ram:0001cc46    04d1            bne         LAB_0001cc52                            
ram:0001cc48    0578            ldrb        r5,[r0,#0x0]=>DAT_f0000fe8              
ram:0001cc4a    c5f30315        ubfx        r5,r5,#0x4,#0x4                         
ram:0001cc4e    032d            cmp         r5,#0x3                                 
ram:0001cc50    02d0            beq         LAB_0001cc58                            
                            LAB_0001cc52:                 ;XREF[2,0]:   0001cc40,0001cc46
ram:0001cc52    0629            cmp         r1,#0x6                                 
ram:0001cc54    04d0            beq         LAB_0001cc60                            
ram:0001cc56    0fe0            b           LAB_0001cc78                            
                            LAB_0001cc58:                 ;XREF[1,0]:   0001cc50
ram:0001cc58    854e            ldr         r6,[DAT_0001ce70]                       ;= 4007C000h
ram:0001cc5a    844d            ldr         r5,[DAT_0001ce6c]                       ;= BAADF00Dh
ram:0001cc5c    7567            str         r5,[r6,#offset DAT_4007c074 &0xff]      
ram:0001cc5e    0ee0            b           LAB_0001cc7e                            
                            LAB_0001cc60:                 ;XREF[1,0]:   0001cc54
ram:0001cc60    1578            ldrb        r5,[r2,#0x0]=>DAT_f0000fe4              
ram:0001cc62    2d07            lsls        r5,r5,#0x1c                             
ram:0001cc64    08d1            bne         LAB_0001cc78                            
ram:0001cc66    0578            ldrb        r5,[r0,#0x0]=>DAT_f0000fe8              
ram:0001cc68    c5f30315        ubfx        r5,r5,#0x4,#0x4                         
ram:0001cc6c    032d            cmp         r5,#0x3                                 
ram:0001cc6e    06d0            beq         LAB_0001cc7e                            
ram:0001cc70    042d            cmp         r5,#0x4                                 
ram:0001cc72    04d0            beq         LAB_0001cc7e                            
ram:0001cc74    052d            cmp         r5,#0x5                                 
ram:0001cc76    02d0            beq         LAB_0001cc7e                            
                            LAB_0001cc78:                 ;XREF[2,0]:   0001cc56,0001cc64
ram:0001cc78    0629            cmp         r1,#0x6                                 
ram:0001cc7a    09d0            beq         LAB_0001cc90                            
ram:0001cc7c    10e0            b           LAB_0001cca0                            
                            LAB_0001cc7e:                 ;XREF[4,0]:   0001cc5e,0001cc6e,0001cc72,0001cc76
ram:0001cc7e    4ff08055        mov.w       r5,#0x10000000                          
ram:0001cc82    d5f84452        ldr.w       r5,[r5,#offset DAT_10000244 &0xffff]    
ram:0001cc86    7b4e            ldr         r6,[DAT_0001ce74]                       ;= 4000053Ch
ram:0001cc88    c5f34235        ubfx        r5,r5,#0xd,#0x3                         
ram:0001cc8c    3560            str         r5,[r6,#0x0]=>DAT_4000053c              
ram:0001cc8e    02e0            b           LAB_0001cc96                            
                            LAB_0001cc90:                 ;XREF[1,0]:   0001cc7a
ram:0001cc90    1578            ldrb        r5,[r2,#0x0]=>DAT_f0000fe4              
ram:0001cc92    2d07            lsls        r5,r5,#0x1c                             
ram:0001cc94    04d1            bne         LAB_0001cca0                            
                            LAB_0001cc96:                 ;XREF[1,0]:   0001cc8e
ram:0001cc96    0578            ldrb        r5,[r0,#0x0]=>DAT_f0000fe8              
ram:0001cc98    c5f30315        ubfx        r5,r5,#0x4,#0x4                         
ram:0001cc9c    032d            cmp         r5,#0x3                                 
ram:0001cc9e    02d0            beq         LAB_0001cca6                            
                            LAB_0001cca0:                 ;XREF[2,0]:   0001cc7c,0001cc94
ram:0001cca0    0629            cmp         r1,#0x6                                 
ram:0001cca2    06d0            beq         LAB_0001ccb2                            
ram:0001cca4    11e0            b           LAB_0001ccca                            
                            LAB_0001cca6:                 ;XREF[1,0]:   0001cc9e
ram:0001cca6    744d            ldr         r5,[DAT_0001ce78]                       ;= E000EDFCh
ram:0001cca8    2e68            ldr         r6,[r5,#0x0]=>DAT_e000edfc              
ram:0001ccaa    26f08076        bic         r6,r6,#0x1000000                        
ram:0001ccae    2e60            str         r6,[r5,#0x0]=>DAT_e000edfc              
ram:0001ccb0    0ee0            b           LAB_0001ccd0                            
                            LAB_0001ccb2:                 ;XREF[1,0]:   0001cca2
ram:0001ccb2    1578            ldrb        r5,[r2,#0x0]=>DAT_f0000fe4              
ram:0001ccb4    2d07            lsls        r5,r5,#0x1c                             
ram:0001ccb6    08d1            bne         LAB_0001ccca                            
ram:0001ccb8    0578            ldrb        r5,[r0,#0x0]=>DAT_f0000fe8              
ram:0001ccba    c5f30315        ubfx        r5,r5,#0x4,#0x4                         
ram:0001ccbe    032d            cmp         r5,#0x3                                 
ram:0001ccc0    06d0            beq         LAB_0001ccd0                            
ram:0001ccc2    042d            cmp         r5,#0x4                                 
ram:0001ccc4    04d0            beq         LAB_0001ccd0                            
ram:0001ccc6    052d            cmp         r5,#0x5                                 
ram:0001ccc8    02d0            beq         LAB_0001ccd0                            
                            LAB_0001ccca:                 ;XREF[2,0]:   0001cca4,0001ccb6
ram:0001ccca    0629            cmp         r1,#0x6                                 
ram:0001cccc    0ad0            beq         LAB_0001cce4                            
ram:0001ccce    11e0            b           LAB_0001ccf4                            
                            LAB_0001ccd0:                 ;XREF[4,0]:   0001ccb0,0001ccc0,0001ccc4,0001ccc8
ram:0001ccd0    4ff08045        mov.w       r5,#0x40000000                          
ram:0001ccd4    c5f80c31        str.w       r3,[r5,#offset DAT_4000010c &0xffff]    
ram:0001ccd8    c5f81031        str.w       r3,[r5,#offset DAT_40000110 &0xffff]    
ram:0001ccdc    654d            ldr         r5,[DAT_0001ce74]                       ;= 4000053Ch
ram:0001ccde    2d1f            subs        r5,r5,#0x4                              
ram:0001cce0    2b60            str         r3,[r5,#0x0]=>DAT_40000538              
ram:0001cce2    02e0            b           LAB_0001ccea                            
                            LAB_0001cce4:                 ;XREF[1,0]:   0001cccc
ram:0001cce4    1578            ldrb        r5,[r2,#0x0]=>DAT_f0000fe4              
ram:0001cce6    2d07            lsls        r5,r5,#0x1c                             
ram:0001cce8    04d1            bne         LAB_0001ccf4                            
                            LAB_0001ccea:                 ;XREF[1,0]:   0001cce2
ram:0001ccea    0578            ldrb        r5,[r0,#0x0]=>DAT_f0000fe8              
ram:0001ccec    c5f30315        ubfx        r5,r5,#0x4,#0x4                         
ram:0001ccf0    032d            cmp         r5,#0x3                                 
ram:0001ccf2    02d0            beq         LAB_0001ccfa                            
                            LAB_0001ccf4:                 ;XREF[2,0]:   0001ccce,0001cce8
ram:0001ccf4    0629            cmp         r1,#0x6                                 
ram:0001ccf6    05d0            beq         LAB_0001cd04                            
ram:0001ccf8    0ce0            b           LAB_0001cd14                            
                            LAB_0001ccfa:                 ;XREF[1,0]:   0001ccf2
ram:0001ccfa    5e4a            ldr         r2,[DAT_0001ce74]                       ;= 4000053Ch
ram:0001ccfc    0321            movs        r1,#0x3                                 
ram:0001ccfe    6432            adds        r2,#0x64                                
ram:0001cd00    1160            str         r1,[r2,#0x0]=>DAT_400005a0              
ram:0001cd02    0ae0            b           LAB_0001cd1a                            
                            LAB_0001cd04:                 ;XREF[1,0]:   0001ccf6
ram:0001cd04    1578            ldrb        r5,[r2,#0x0]=>DAT_f0000fe4              
ram:0001cd06    2d07            lsls        r5,r5,#0x1c                             
ram:0001cd08    04d1            bne         LAB_0001cd14                            
ram:0001cd0a    0578            ldrb        r5,[r0,#0x0]=>DAT_f0000fe8              
ram:0001cd0c    c5f30315        ubfx        r5,r5,#0x4,#0x4                         
ram:0001cd10    032d            cmp         r5,#0x3                                 
ram:0001cd12    02d0            beq         LAB_0001cd1a                            
                            LAB_0001cd14:                 ;XREF[2,0]:   0001ccf8,0001cd08
ram:0001cd14    0629            cmp         r1,#0x6                                 
ram:0001cd16    0dd0            beq         LAB_0001cd34                            
ram:0001cd18    6ae0            b           LAB_0001cdf0                            
                            LAB_0001cd1a:                 ;XREF[2,0]:   0001cd02,0001cd12
ram:0001cd1a    584a            ldr         r2,[DAT_0001ce7c]                       ;= 40005610h
ram:0001cd1c    0521            movs        r1,#0x5                                 
ram:0001cd1e    1160            str         r1,[r2,#0x0]=>DAT_40005610              
ram:0001cd20    5649            ldr         r1,[DAT_0001ce7c]                       ;= 40005610h
ram:0001cd22    7831            adds        r1,#0x78                                
ram:0001cd24    0c60            str         r4,[r1,#0x0]=>DAT_40005688              
ram:0001cd26    5549            ldr         r1,[DAT_0001ce7c]                       ;= 40005610h
ram:0001cd28    0831            adds        r1,#0x8                                 
ram:0001cd2a    0b60            str         r3,[r1,#0x0]=>DAT_40005618              
ram:0001cd2c    3f21            movs        r1,#0x3f                                
ram:0001cd2e    121d            adds        r2,r2,#0x4                              
ram:0001cd30    1160            str         r1,[r2,#0x0]=>DAT_40005614              
ram:0001cd32    02e0            b           LAB_0001cd3a                            
                            LAB_0001cd34:                 ;XREF[1,0]:   0001cd16
ram:0001cd34    1178            ldrb        r1,[r2,#0x0]=>DAT_f0000fe4              
ram:0001cd36    0907            lsls        r1,r1,#0x1c                             
ram:0001cd38    5ad1            bne         LAB_0001cdf0                            
                            LAB_0001cd3a:                 ;XREF[1,0]:   0001cd32
ram:0001cd3a    0078            ldrb        r0,[r0,#0x0]=>DAT_f0000fe8              
ram:0001cd3c    c0f30310        ubfx        r0,r0,#0x4,#0x4                         
ram:0001cd40    0528            cmp         r0,#0x5                                 
ram:0001cd42    55d1            bne         LAB_0001cdf0                            
ram:0001cd44    4e48            ldr         r0,[DAT_0001ce80]                       ;= 10000404h
ram:0001cd46    0068            ldr         r0,[r0,#0x0]=>DAT_10000404              
ram:0001cd48    4e49            ldr         r1,[DAT_0001ce84]                       ;= 4000C520h
ram:0001cd4a    0860            str         r0,[r1,#0x0]=>DAT_4000c520              
ram:0001cd4c    4c48            ldr         r0,[DAT_0001ce80]                       ;= 10000404h
ram:0001cd4e    001d            adds        r0,r0,#0x4                              
ram:0001cd50    0068            ldr         r0,[r0,#0x0]=>DAT_10000408              
ram:0001cd52    091d            adds        r1,r1,#0x4                              
ram:0001cd54    0860            str         r0,[r1,#0x0]=>DAT_4000c524              
ram:0001cd56    4a48            ldr         r0,[DAT_0001ce80]                       ;= 10000404h
ram:0001cd58    0830            adds        r0,#0x8                                 
ram:0001cd5a    0068            ldr         r0,[r0,#0x0]=>DAT_1000040c              
ram:0001cd5c    091d            adds        r1,r1,#0x4                              
ram:0001cd5e    0860            str         r0,[r1,#0x0]=>DAT_4000c528              
ram:0001cd60    4748            ldr         r0,[DAT_0001ce80]                       ;= 10000404h
ram:0001cd62    0c30            adds        r0,#0xc                                 
ram:0001cd64    0068            ldr         r0,[r0,#0x0]=>DAT_10000410              
ram:0001cd66    091d            adds        r1,r1,#0x4                              
ram:0001cd68    0860            str         r0,[r1,#0x0]=>DAT_4000c52c              
ram:0001cd6a    4548            ldr         r0,[DAT_0001ce80]                       ;= 10000404h
ram:0001cd6c    1030            adds        r0,#0x10                                
ram:0001cd6e    0068            ldr         r0,[r0,#0x0]=>DAT_10000414              
ram:0001cd70    091d            adds        r1,r1,#0x4                              
ram:0001cd72    0860            str         r0,[r1,#0x0]=>DAT_4000c530              
ram:0001cd74    4248            ldr         r0,[DAT_0001ce80]                       ;= 10000404h
ram:0001cd76    1430            adds        r0,#0x14                                
ram:0001cd78    0068            ldr         r0,[r0,#0x0]=>DAT_10000418              
ram:0001cd7a    091d            adds        r1,r1,#0x4                              
ram:0001cd7c    0860            str         r0,[r1,#0x0]=>DAT_4000c534              
ram:0001cd7e    4048            ldr         r0,[DAT_0001ce80]                       ;= 10000404h
ram:0001cd80    1830            adds        r0,#0x18                                
ram:0001cd82    0068            ldr         r0,[r0,#0x0]=>DAT_1000041c              
ram:0001cd84    3f49            ldr         r1,[DAT_0001ce84]                       ;= 4000C520h
ram:0001cd86    2031            adds        r1,#0x20                                
ram:0001cd88    0860            str         r0,[r1,#0x0]=>DAT_4000c540              
ram:0001cd8a    3d48            ldr         r0,[DAT_0001ce80]                       ;= 10000404h
ram:0001cd8c    1c30            adds        r0,#0x1c                                
ram:0001cd8e    0068            ldr         r0,[r0,#0x0]=>DAT_10000420              
ram:0001cd90    091d            adds        r1,r1,#0x4                              
ram:0001cd92    0860            str         r0,[r1,#0x0]=>DAT_4000c544              
ram:0001cd94    3a48            ldr         r0,[DAT_0001ce80]                       ;= 10000404h
ram:0001cd96    2030            adds        r0,#0x20                                
ram:0001cd98    0068            ldr         r0,[r0,#0x0]=>DAT_10000424              
ram:0001cd9a    091d            adds        r1,r1,#0x4                              
ram:0001cd9c    0860            str         r0,[r1,#0x0]=>DAT_4000c548              
ram:0001cd9e    3848            ldr         r0,[DAT_0001ce80]                       ;= 10000404h
ram:0001cda0    2430            adds        r0,#0x24                                
ram:0001cda2    0068            ldr         r0,[r0,#0x0]=>DAT_10000428              
ram:0001cda4    091d            adds        r1,r1,#0x4                              
ram:0001cda6    0860            str         r0,[r1,#0x0]=>DAT_4000c54c              
ram:0001cda8    3548            ldr         r0,[DAT_0001ce80]                       ;= 10000404h
ram:0001cdaa    2830            adds        r0,#0x28                                
ram:0001cdac    0068            ldr         r0,[r0,#0x0]=>DAT_1000042c              
ram:0001cdae    091d            adds        r1,r1,#0x4                              
ram:0001cdb0    0860            str         r0,[r1,#0x0]=>DAT_4000c550              
ram:0001cdb2    3348            ldr         r0,[DAT_0001ce80]                       ;= 10000404h
ram:0001cdb4    2c30            adds        r0,#0x2c                                
ram:0001cdb6    0068            ldr         r0,[r0,#0x0]=>DAT_10000430              
ram:0001cdb8    091d            adds        r1,r1,#0x4                              
ram:0001cdba    0860            str         r0,[r1,#0x0]=>DAT_4000c554              
ram:0001cdbc    3048            ldr         r0,[DAT_0001ce80]                       ;= 10000404h
ram:0001cdbe    3030            adds        r0,#0x30                                
ram:0001cdc0    0068            ldr         r0,[r0,#0x0]=>DAT_10000434              
ram:0001cdc2    3049            ldr         r1,[DAT_0001ce84]                       ;= 4000C520h
ram:0001cdc4    4031            adds        r1,#0x40                                
ram:0001cdc6    0860            str         r0,[r1,#0x0]=>DAT_4000c560              
ram:0001cdc8    2d48            ldr         r0,[DAT_0001ce80]                       ;= 10000404h
ram:0001cdca    3430            adds        r0,#0x34                                
ram:0001cdcc    0068            ldr         r0,[r0,#0x0]=>DAT_10000438              
ram:0001cdce    091d            adds        r1,r1,#0x4                              
ram:0001cdd0    0860            str         r0,[r1,#0x0]=>DAT_4000c564              
ram:0001cdd2    2b48            ldr         r0,[DAT_0001ce80]                       ;= 10000404h
ram:0001cdd4    3830            adds        r0,#0x38                                
ram:0001cdd6    0068            ldr         r0,[r0,#0x0]=>DAT_1000043c              
ram:0001cdd8    091d            adds        r1,r1,#0x4                              
ram:0001cdda    0860            str         r0,[r1,#0x0]=>DAT_4000c568              
ram:0001cddc    2848            ldr         r0,[DAT_0001ce80]                       ;= 10000404h
ram:0001cdde    3c30            adds        r0,#0x3c                                
ram:0001cde0    0068            ldr         r0,[r0,#0x0]=>DAT_10000440              
ram:0001cde2    091d            adds        r1,r1,#0x4                              
ram:0001cde4    0860            str         r0,[r1,#0x0]=>DAT_4000c56c              
ram:0001cde6    2648            ldr         r0,[DAT_0001ce80]                       ;= 10000404h
ram:0001cde8    4030            adds        r0,#0x40                                
ram:0001cdea    0068            ldr         r0,[r0,#0x0]=>DAT_10000444              
ram:0001cdec    091d            adds        r1,r1,#0x4                              
ram:0001cdee    0860            str         r0,[r1,#0x0]=>DAT_4000c570              
                            LAB_0001cdf0:                 ;XREF[3,0]:   0001cd18,0001cd38,0001cd42
ram:0001cdf0    2148            ldr         r0,[DAT_0001ce78]                       ;= E000EDFCh
ram:0001cdf2    7438            subs        r0,#0x74                                
ram:0001cdf4    0168            ldr         r1,[r0,#0x0]=>DAT_e000ed88              
ram:0001cdf6    41f47001        orr         r1,r1,#0xf00000                         
ram:0001cdfa    0160            str         r1,[r0,#0x0]=>DAT_e000ed88              
ram:0001cdfc    bff34f8f        dsb         0xf                                     
ram:0001ce00    bff36f8f        isb         0xf                                     
ram:0001ce04    4ff01021        mov.w       r1,#0x10001000                          
ram:0001ce08    d1f80002        ldr.w       r0,[r1,#0x200]=>DAT_10001200            
ram:0001ce0c    0028            cmp         r0,#0x0                                 
ram:0001ce0e    03db            blt         LAB_0001ce18                            
ram:0001ce10    d1f80402        ldr.w       r0,[r1,#0x204]=>DAT_10001204            
ram:0001ce14    0028            cmp         r0,#0x0                                 
ram:0001ce16    22da            bge         LAB_0001ce5e                            
                            LAB_0001ce18:                 ;XREF[1,0]:   0001ce0e
ram:0001ce18    1b4a            ldr         r2,[DAT_0001ce88]                       ;= 4001E504h
ram:0001ce1a    1460            str         r4,[r2,#0x0]=>DAT_4001e504              
ram:0001ce1c    1b48            ldr         r0,[DAT_0001ce8c]                       ;= 4001E400h
                            LAB_0001ce1e:                 ;XREF[1,0]:   0001ce22
ram:0001ce1e    0468            ldr         r4,[r0,#0x0]=>DAT_4001e400              
ram:0001ce20    002c            cmp         r4,#0x0                                 
ram:0001ce22    fcd0            beq         LAB_0001ce1e                            
ram:0001ce24    1524            movs        r4,#0x15                                
ram:0001ce26    c1f80042        str.w       r4,[r1,#0x200]=>DAT_10001200            
                            LAB_0001ce2a:                 ;XREF[1,0]:   0001ce2e
ram:0001ce2a    0568            ldr         r5,[r0,#0x0]=>DAT_4001e400              
ram:0001ce2c    002d            cmp         r5,#0x0                                 
ram:0001ce2e    fcd0            beq         LAB_0001ce2a                            
ram:0001ce30    c1f80442        str.w       r4,[r1,#0x204]=>DAT_10001204            
                            LAB_0001ce34:                 ;XREF[1,0]:   0001ce38
ram:0001ce34    0168            ldr         r1,[r0,#0x0]=>DAT_4001e400              
ram:0001ce36    0029            cmp         r1,#0x0                                 
ram:0001ce38    fcd0            beq         LAB_0001ce34                            
ram:0001ce3a    1360            str         r3,[r2,#0x0]=>DAT_4001e504              
                            LAB_0001ce3c:                 ;XREF[1,0]:   0001ce40
ram:0001ce3c    0168            ldr         r1,[r0,#0x0]=>DAT_4001e400              
ram:0001ce3e    0029            cmp         r1,#0x0                                 
ram:0001ce40    fcd0            beq         LAB_0001ce3c                            
ram:0001ce42    bff34f8f        dsb         0xf                                     
ram:0001ce46    0c48            ldr         r0,[DAT_0001ce78]                       ;= E000EDFCh
ram:0001ce48    f038            subs        r0,#0xf0                                
ram:0001ce4a    0168            ldr         r1,[r0,#0x0]=>DAT_e000ed0c              
ram:0001ce4c    104a            ldr         r2,[DAT_0001ce90]                       ;= 05FA0004h
ram:0001ce4e    01f4e061        and         r1,r1,#0x700                            
ram:0001ce52    1143            orrs        r1,r2                                   
ram:0001ce54    0160            str         r1,[r0,#0x0]=>DAT_e000ed0c              
ram:0001ce56    bff34f8f        dsb         0xf                                     
                            LAB_0001ce5a:                 ;XREF[1,0]:   0001ce5c
ram:0001ce5a    00bf            nop                                                  
ram:0001ce5c    fde7            b           LAB_0001ce5a                            
                            LAB_0001ce5e:                 ;XREF[1,0]:   0001ce16
ram:0001ce5e    0e49            ldr         r1,[DAT_0001ce98]                       ;= 20002154h
ram:0001ce60    0c48            ldr         r0,[DAT_0001ce94]                       ;= 03D09000h
ram:0001ce62    0860            str         r0,[r1,#0x0]=>DAT_20002154              
ram:0001ce64    70bd            pop         {r4,r5,r6,pc}                           
ram:0001ce66    0000            movs        r0,r0                                   
                            DAT_0001ce68:                 ;XREF[1,0]:   0001cc32
ram:0001ce68    e00f00f0        undefined4  F0000FE0h                               
                            DAT_0001ce6c:                 ;XREF[1,0]:   0001cc5a
ram:0001ce6c    0df0adba        undefined4  BAADF00Dh                               
                            DAT_0001ce70:                 ;XREF[1,0]:   0001cc58
ram:0001ce70    00c00740        undefined4  4007C000h                               
                            DAT_0001ce74:                 ;XREF[3,0]:   0001cc86,0001ccdc,0001ccfa
ram:0001ce74    3c050040        undefined4  4000053Ch                               
                            DAT_0001ce78:                 ;XREF[3,0]:   0001cca6,0001cdf0,0001ce46
ram:0001ce78    fced00e0        undefined4  E000EDFCh                               
                            DAT_0001ce7c:                 ;XREF[3,0]:   0001cd1a,0001cd20,0001cd26
ram:0001ce7c    10560040        undefined4  40005610h                               
                            DAT_0001ce80:                 ;XREF[17,0]:  0001cd44,0001cd4c,0001cd56,0001cd60
                                                          ;             0001cd6a,0001cd74,0001cd7e,0001cd8a
                                                          ;             0001cd94,0001cd9e,0001cda8,0001cdb2
                                                          ;             0001cdbc,0001cdc8,0001cdd2,0001cddc
                                                          ;             0001cde6
ram:0001ce80    04040010        undefined4  10000404h                               
                            DAT_0001ce84:                 ;XREF[3,0]:   0001cd48,0001cd84,0001cdc2
ram:0001ce84    20c50040        undefined4  4000C520h                               
                            DAT_0001ce88:                 ;XREF[1,0]:   0001ce18
ram:0001ce88    04e50140        undefined4  4001E504h                               
                            DAT_0001ce8c:                 ;XREF[1,0]:   0001ce1c
ram:0001ce8c    00e40140        undefined4  4001E400h                               
                            DAT_0001ce90:                 ;XREF[1,0]:   0001ce4c
ram:0001ce90    0400fa05        undefined4  05FA0004h                               
                            DAT_0001ce94:                 ;XREF[1,0]:   0001ce60
ram:0001ce94    0090d003        undefined4  03D09000h                               
                            DAT_0001ce98:                 ;XREF[1,0]:   0001ce5e
ram:0001ce98    54210020        undefined4  20002154h                               
                            ;************************************************************************************************
                            ;*                                           FUNCTION                                           *
                            ;************************************************************************************************
                            ;undefined8 FUNC_VT_0001ce9c(undefined4 param_1, undefined4 param_2, undefined * param_3, uint param_4)
          ;param_1       undefined4          r0                      
          ;param_2       undefined4          r1                      
          ;param_3       undefined *         r2                      
          ;param_4       uint                r3                      
          ;local_14      undefined4         -14                      ;XREF[1,0]:   00020222
          ;local_18      undefined1         -18                      ;XREF[1,0]:   00020228
          ;local_1c      undefined4         -1c                      ;XREF[2,0]:   00020138,0002022e
          ;local_20      undefined1         -20                      ;XREF[2,0]:   0002013c,00020216
          ;local_24      undefined4         -24                      ;XREF[1,0]:   00020142
          ;local_28      undefined1         -28                      ;XREF[1,0]:   0002012c
                                                          ;XREF[0,1]:   0001c048
ram:0001ce9c    0348            ldr         param_1,[DAT_0001ceac]                  ;= 200027BCh
ram:0001ce9e    007f            ldrb        param_1,[param_1,#0x1c]=>DAT_200027d8   
ram:0001cea0    08b1            cbz         param_1,LAB_0001cea6                    
ram:0001cea2    03f0abb9        b.w         LAB_000201fc                            
                            LAB_0001cea6:                 ;XREF[1,0]:   0001cea0
ram:0001cea6    03f025b9        b.w         LAB_000200f4                            
ram:0001ceaa    00              ??          00h                                     
ram:0001ceab    00              ??          00h                                     
                            DAT_0001ceac:                 ;XREF[1,0]:   0001ce9c
ram:0001ceac    bc270020        undefined4  200027BCh                               
                            ;************************************************************************************************
                            ;*                                           FUNCTION                                           *
                            ;************************************************************************************************
                            ;undefined FUN_0001ceb0(byte * param_1, int * param_2, undefined4 param_3, undefined4 param_4)
          ;param_1       byte *              r0                      
          ;param_2       int *               r1                      
          ;param_3       undefined4          r2                      
          ;param_4       undefined4          r3                      
          ;local_10      undefined4         -10                      ;XREF[1,0]:   0001ceba
                                                          ;XREF[1,0]:   0001f174
ram:0001ceb0    0fb4            push        {param_1,param_2,param_3,param_4}       
ram:0001ceb2    054b            ldr         param_4,[DAT_0001cec8]                  ;= 0001ED33h
ram:0001ceb4    10b5            push        {r4,lr}                                 
ram:0001ceb6    03a9            add         param_2,sp,#0xc                         
ram:0001ceb8    044a            ldr         param_3,[DAT_0001cecc]                  ;= 2000213Ch
ram:0001ceba    0298            ldr         param_1,[sp,#local_10+0x18]             
ram:0001cebc    00f0caf8        bl          FUN_0001d054                            ;int FUN_0001d054(byte * param_1, int...
ram:0001cec0    10bc            pop         {r4}                                    
ram:0001cec2    5df814fb        ldr.w       pc,[sp],#0x14                           
ram:0001cec6    00              ??          00h                                     
ram:0001cec7    00              ??          00h                                     
                            DAT_0001cec8:                 ;XREF[1,0]:   0001ceb2
ram:0001cec8    33ed0100        undefined4  0001ED33h                               ;?  ->  0001ed33
                            DAT_0001cecc:                 ;XREF[1,0]:   0001ceb8
ram:0001cecc    3c210020        undefined4  2000213Ch                               
                            ;************************************************************************************************
                            ;*                                           FUNCTION                                           *
                            ;************************************************************************************************
                            ;undefined thunk_FUN_0001ced8(undefined4 * param_1, undefined4 * param_2, int param_3)
          ;param_1       undefined4 *        r0                      
          ;param_2       undefined4 *        r1                      
          ;param_3       int                 r2                      
                                                          ;XREF[2,0]:   0001c908,00020538
ram:0001ced0    02e0            b           FUN_0001ced8                            
                            LAB_0001ced2:                 ;XREF[1,0]:   0001ceda
ram:0001ced2    08c8            ldmia       param_1!,{r3}                           
ram:0001ced4    121f            subs        param_3,param_3,#0x4                    
ram:0001ced6    08c1            stmia       param_2!,{r3}                           
                            ;************************************************************************************************
                            ;*                                           FUNCTION                                           *
                            ;************************************************************************************************
                            ;undefined FUN_0001ced8(undefined4 * param_1, undefined4 * param_2, int param_3)
          ;param_1       undefined4 *        r0                      
          ;param_2       undefined4 *        r1                      
          ;param_3       int                 r2                      
                                                          ;XREF[1,0]:   0001ced0
ram:0001ced8    002a            cmp         param_3,#0x0                            
ram:0001ceda    fad1            bne         LAB_0001ced2                            
ram:0001cedc    7047            bx          lr                                      
ram:0001cede    7047            bx          lr                                      
ram:0001cee0    0020            movs        r0,#0x0                                 
ram:0001cee2    01e0            b           LAB_0001cee8                            
                            LAB_0001cee4:                 ;XREF[1,0]:   0001ceea
ram:0001cee4    01c1            stmia       r1!,{r0}                                
ram:0001cee6    121f            subs        r2,r2,#0x4                              
                            LAB_0001cee8:                 ;XREF[1,0]:   0001cee2
ram:0001cee8    002a            cmp         r2,#0x0                                 
ram:0001ceea    fbd1            bne         LAB_0001cee4                            
ram:0001ceec    7047            bx          lr                                      
ram:0001ceee    0000            movs        r0,r0                                   
                            ;************************************************************************************************
                            ;*                                           FUNCTION                                           *
                            ;************************************************************************************************
                            ;undefined8 FUN_0001cef0(int * param_1, int param_2, uint param_3, uint param_4, uint param_5, int param_6)
          ;param_1       int *               r0                      
          ;param_2       int                 r1                      
          ;param_3       uint                r2                      
          ;param_4       uint                r3                      
          ;param_5       uint                 0                      ;XREF[1,0]:   0001cefa
          ;param_6       int                  4                      ;XREF[6,0]:   0001cf0e,0001cf34,0001cf42,0001cff0,0001d008
                                                                     ;             0001d032
          ;local_30      undefined4         -30                      ;XREF[2,0]:   0001cef4,0001cf8a
          ;local_34      undefined4         -34                      ;XREF[2,0]:   0001cfd8,0001cfe8
          ;local_38      undefined4         -38                      ;XREF[2,0]:   0001cf40,0001d030
                                                          ;XREF[3,0]:   0001d512,0001d538,0001d58a
ram:0001cef0    2de9ff5f        push        {param_1,param_2,param_3,param_4,r4,r...
ram:0001cef4    dde90220        ldrd        param_3,param_1,[sp,#local_30+0x38]     
ram:0001cef8    010d            lsrs        param_2,param_1,#0x14                   
ram:0001cefa    ddf838b0        ldr.w       r11,[sp,#param_5+0x38]                  
ram:0001cefe    0243            orrs        param_3,param_1                         
ram:0001cf00    18d0            beq         LAB_0001cf34                            
ram:0001cf02    44f61050        movw        param_1,#0x4d10                         
ram:0001cf06    a1f2ff31        subw        param_2,param_2,#0x3ff                  
ram:0001cf0a    4143            muls        param_2,param_1                         
ram:0001cf0c    0d14            asrs        r5,param_2,#0x10                        
                            LAB_0001cf0e:                 ;XREF[1,0]:   0001d00a
ram:0001cf0e    0f98            ldr         param_1,[sp,#param_6+0x38]              
ram:0001cf10    0128            cmp         param_1,#0x1                            
ram:0001cf12    20d0            beq         LAB_0001cf56                            
ram:0001cf14    a5eb0b00        sub.w       param_1,r5,r11                          
ram:0001cf18    401c            adds        param_1,param_1,#0x1                    
                            LAB_0001cf1a:                 ;XREF[1,0]:   0001cf5a
ram:0001cf1a    5fea000a        movs.w      r10,param_1                             
ram:0001cf1e    4ff00004        mov.w       r4,#0x0                                 
ram:0001cf22    474e            ldr         r6,[DAT_0001d040]                       ;= 40240000h
ram:0001cf24    dff81c91        ldr.w       r9,[DAT_0001d044]                       ;= 3FF00000h
ram:0001cf28    a046            mov         r8,r4                                   
ram:0001cf2a    5046            mov         param_1,r10                             
ram:0001cf2c    16d5            bpl         LAB_0001cf5c                            
ram:0001cf2e    caf10007        rsb.w       r7,r10,#0x0                             
ram:0001cf32    28e0            b           LAB_0001cf86                            
                            LAB_0001cf34:                 ;XREF[1,0]:   0001cf00
ram:0001cf34    0f98            ldr         param_1,[sp,#param_6+0x38]              
ram:0001cf36    0124            movs        r4,#0x1                                 
ram:0001cf38    43a2            adr         param_3,[DAT_0001d048]                  ;= 30h    0
ram:0001cf3a    0128            cmp         param_1,#0x1                            
ram:0001cf3c    08d0            beq         LAB_0001cf50                            
ram:0001cf3e    0021            movs        param_2,#0x0                            
                            LAB_0001cf40:                 ;XREF[1,0]:   0001cf54
ram:0001cf40    0098            ldr         param_1,[sp,#0x0]=>local_38             
ram:0001cf42    0f9b            ldr         param_4,[sp,#param_6+0x38]              
ram:0001cf44    c0e90021        strd        param_3=>...,param_2,[param_1,#0x0]     ;= 30h    0
ram:0001cf48    c0e90243        strd        r4,param_4,[param_1,#0x8]               
                            LAB_0001cf4c:                 ;XREF[1,0]:   0001d03c
ram:0001cf4c    bde8ff9f        pop.w       {param_1,param_2,param_3,param_4,r4,r...
                            LAB_0001cf50:                 ;XREF[1,0]:   0001cf3c
ram:0001cf50    6fea0b01        mvn.w       param_2,r11                             
ram:0001cf54    f4e7            b           LAB_0001cf40                            
                            LAB_0001cf56:                 ;XREF[1,0]:   0001cf12
ram:0001cf56    cbf10000        rsb.w       param_1,r11,#0x0                        
ram:0001cf5a    dee7            b           LAB_0001cf1a                            
                            LAB_0001cf5c:                 ;XREF[1,0]:   0001cf2c
ram:0001cf5c    0746            mov         r7,param_1                              
ram:0001cf5e    12e0            b           LAB_0001cf86                            
                            LAB_0001cf60:                 ;XREF[1,0]:   0001cf88
ram:0001cf60    f807            lsls        param_1,r7,#0x1f                        
ram:0001cf62    07d0            beq         LAB_0001cf74                            
ram:0001cf64    2246            mov         param_3,r4                              
ram:0001cf66    3346            mov         param_4,r6                              
ram:0001cf68    4046            mov         param_1,r8                              
ram:0001cf6a    4946            mov         param_2,r9                              
ram:0001cf6c    fff7b2fb        bl          FUN_0001c6d4                            ;ulonglong FUN_0001c6d4(uint param_1,...
ram:0001cf70    8046            mov         r8,param_1                              
ram:0001cf72    8946            mov         r9,param_2                              
                            LAB_0001cf74:                 ;XREF[1,0]:   0001cf62
ram:0001cf74    2246            mov         param_3,r4                              
ram:0001cf76    3346            mov         param_4,r6                              
ram:0001cf78    1046            mov         param_1,param_3                         
ram:0001cf7a    1946            mov         param_2,param_4                         
ram:0001cf7c    fff7aafb        bl          FUN_0001c6d4                            ;ulonglong FUN_0001c6d4(uint param_1,...
ram:0001cf80    0446            mov         r4,param_1                              
ram:0001cf82    0e46            mov         r6,param_2                              
ram:0001cf84    7f10            asrs        r7,r7,#0x1                              
                            LAB_0001cf86:                 ;XREF[2,0]:   0001cf32,0001cf5e
ram:0001cf86    002f            cmp         r7,#0x0                                 
ram:0001cf88    ead1            bne         LAB_0001cf60                            
ram:0001cf8a    dde90201        ldrd        param_1,param_2,[sp,#local_30+0x38]     
ram:0001cf8e    baf1000f        cmp.w       r10,#0x0                                
ram:0001cf92    4246            mov         param_3,r8                              
ram:0001cf94    4b46            mov         param_4,r9                              
ram:0001cf96    02da            bge         LAB_0001cf9e                            
ram:0001cf98    fff79cfb        bl          FUN_0001c6d4                            ;ulonglong FUN_0001c6d4(uint param_1,...
ram:0001cf9c    01e0            b           LAB_0001cfa2                            
                            LAB_0001cf9e:                 ;XREF[1,0]:   0001cf96
ram:0001cf9e    fff70bfc        bl          FUN_0001c7b8                            ;undefined8 FUN_0001c7b8(uint param_1...
                            LAB_0001cfa2:                 ;XREF[1,0]:   0001cf9c
ram:0001cfa2    0446            mov         r4,param_1                              
ram:0001cfa4    0e46            mov         r6,param_2                              
ram:0001cfa6    0022            movs        param_3,#0x0                            
ram:0001cfa8    284b            ldr         param_4,[DAT_0001d04c]                  ;= 43F00000h
ram:0001cfaa    fff78dfc        bl          FUN_0001c8c8                            ;int FUN_0001c8c8(int param_1, int pa...
ram:0001cfae    03d8            bhi         LAB_0001cfb8                            
ram:0001cfb0    4ff0ff30        mov.w       param_1,#0xffffffff                     
ram:0001cfb4    0146            mov         param_2,param_1                         
ram:0001cfb6    07e0            b           LAB_0001cfc8                            
                            LAB_0001cfb8:                 ;XREF[1,0]:   0001cfae
ram:0001cfb8    0022            movs        param_3,#0x0                            
ram:0001cfba    254b            ldr         param_4,[DAT_0001d050]                  ;= 3FE00000h
ram:0001cfbc    2046            mov         param_1,r4                              
ram:0001cfbe    3146            mov         param_2,r6                              
ram:0001cfc0    fff7e1fa        bl          FUN_0001c586                            ;ulonglong FUN_0001c586(uint param_1,...
ram:0001cfc4    fff767fc        bl          FUN_0001c896                            ;ulonglong FUN_0001c896(uint param_1,...
                            LAB_0001cfc8:                 ;XREF[1,0]:   0001cfb6
ram:0001cfc8    1024            movs        r4,#0x10                                
ram:0001cfca    09e0            b           LAB_0001cfe0                            
                            LAB_0001cfcc:                 ;XREF[1,0]:   0001cfe4
ram:0001cfcc    002c            cmp         r4,#0x0                                 
ram:0001cfce    0adb            blt         LAB_0001cfe6                            
ram:0001cfd0    0a22            movs        param_3,#0xa                            
ram:0001cfd2    0023            movs        param_4,#0x0                            
ram:0001cfd4    fff7a6fa        bl          FUN_0001c524                            ;longlong FUN_0001c524(uint param_1, ...
ram:0001cfd8    019b            ldr         param_4,[sp,#local_34+0x38]             
ram:0001cfda    3032            adds        param_3,#0x30                           
ram:0001cfdc    1a55            strb        param_3,[param_4,r4]                    
ram:0001cfde    641e            subs        r4,r4,#0x1                              
                            LAB_0001cfe0:                 ;XREF[1,0]:   0001cfca
ram:0001cfe0    50ea0102        orrs.w      param_3,param_1,param_2                 
ram:0001cfe4    f2d1            bne         LAB_0001cfcc                            
                            LAB_0001cfe6:                 ;XREF[1,0]:   0001cfce
ram:0001cfe6    641c            adds        r4,r4,#0x1                              
ram:0001cfe8    019a            ldr         param_3,[sp,#local_34+0x38]             
ram:0001cfea    c4f11103        rsb.w       param_4,r4,#0x11                        
ram:0001cfee    1444            add         r4,param_3                              
ram:0001cff0    0f9a            ldr         param_3,[sp,#param_6+0x38]              
ram:0001cff2    012a            cmp         param_3,#0x1                            
ram:0001cff4    03d0            beq         LAB_0001cffe                            
ram:0001cff6    0122            movs        param_3,#0x1                            
ram:0001cff8    0843            orrs        param_1,param_2                         
ram:0001cffa    0dd1            bne         LAB_0001d018                            
ram:0001cffc    0ae0            b           LAB_0001d014                            
                            LAB_0001cffe:                 ;XREF[1,0]:   0001cff4
ram:0001cffe    0843            orrs        param_1,param_2                         
ram:0001d000    04d0            beq         LAB_0001d00c                            
ram:0001d002    0020            movs        param_1,#0x0                            
ram:0001d004    4ff0110b        mov.w       r11,#0x11                               
ram:0001d008    0f90            str         param_1,[sp,#param_6+0x38]              
                            LAB_0001d00a:                 ;XREF[1,0]:   0001d02e
ram:0001d00a    80e7            b           LAB_0001cf0e                            
                            LAB_0001d00c:                 ;XREF[1,0]:   0001d000
ram:0001d00c    a3eb0b05        sub.w       r5,param_4,r11                          
ram:0001d010    6d1e            subs        r5,r5,#0x1                              
ram:0001d012    0de0            b           LAB_0001d030                            
                            LAB_0001d014:                 ;XREF[1,0]:   0001cffc
ram:0001d014    5b45            cmp         param_4,r11                             
ram:0001d016    04dd            ble         LAB_0001d022                            
                            LAB_0001d018:                 ;XREF[1,0]:   0001cffa
ram:0001d018    4ff00002        mov.w       param_3,#0x0                            
ram:0001d01c    05f10105        add.w       r5,r5,#0x1                              
ram:0001d020    04e0            b           LAB_0001d02c                            
                            LAB_0001d022:                 ;XREF[1,0]:   0001d016
ram:0001d022    03da            bge         LAB_0001d02c                            
ram:0001d024    4ff00002        mov.w       param_3,#0x0                            
ram:0001d028    a5f10105        sub.w       r5,r5,#0x1                              
                            LAB_0001d02c:                 ;XREF[2,0]:   0001d020,0001d022
ram:0001d02c    002a            cmp         param_3,#0x0                            
ram:0001d02e    ecd0            beq         LAB_0001d00a                            
                            LAB_0001d030:                 ;XREF[1,0]:   0001d012
ram:0001d030    0098            ldr         param_1,[sp,#0x0]=>local_38             
ram:0001d032    0f99            ldr         param_2,[sp,#param_6+0x38]              
ram:0001d034    c0e90231        strd        param_4,param_2,[param_1,#0x8]          
ram:0001d038    c0e90045        strd        r4,r5,[param_1,#0x0]                    
ram:0001d03c    86e7            b           LAB_0001cf4c                            
ram:0001d03e    0000            movs        r0,r0                                   
                            DAT_0001d040:                 ;XREF[1,0]:   0001cf22
ram:0001d040    00002440        undefined4  40240000h                               
                            DAT_0001d044:                 ;XREF[1,0]:   0001cf24
ram:0001d044    0000f03f        undefined4  3FF00000h                               
                            DAT_0001d048:                 ;XREF[2,0]:   0001cf38,0001cf44
ram:0001d048    30              ??          30h    0                                
ram:0001d049    00              ??          00h                                     
ram:0001d04a    00              ??          00h                                     
ram:0001d04b    00              ??          00h                                     
                            DAT_0001d04c:                 ;XREF[1,0]:   0001cfa8
ram:0001d04c    0000f043        undefined4  43F00000h                               
                            DAT_0001d050:                 ;XREF[1,0]:   0001cfba
ram:0001d050    0000e03f        undefined4  3FE00000h                               
                            ;************************************************************************************************
                            ;*                                           FUNCTION                                           *
                            ;************************************************************************************************
                            ;int FUN_0001d054(byte * param_1, int * * param_2, undefined4 param_3, undefined * param_4)
          ;param_1       byte *              r0                      
          ;param_2       int * *             r1                      
          ;param_3       undefined4          r2                      
          ;param_4       undefined *         r3                      
          ;local_2c      undefined4         -2c                      ;XREF[17,0]:  0001d18e,0001d226,0001d240,0001d250,0001d3e6
                                                                     ;             0001d3fa,0001d40e,0001d41e,0001d43c,0001d692
                                                                     ;             0001d6a4,0001d6b2,0001d6d0,0001d6d4,0001d6f2
                                                                     ;             0001d70a,0001d71e
          ;local_38      undefined4         -38                      ;XREF[3,0]:   0001d4dc,0001d66e,0001d69c
          ;local_39      undefined1         -39                      ;XREF[1,0]:   0001d60a
          ;local_3a      undefined1         -3a                      ;XREF[2,0]:   0001d63e,0001d656
          ;local_3b      undefined1         -3b                      ;XREF[1,0]:   0001d662
          ;local_44      undefined4         -44                      ;XREF[1,0]:   0001d544
          ;local_4c      undefined4         -4c                      ;XREF[3,0]:   0001d516,0001d53c,0001d58e
          ;local_50      undefined4         -50                      ;XREF[6,0]:   0001d51a,0001d542,0001d592,0001d61c,0001d62e
                                                                     ;             0001d654
          ;local_74      undefined4         -74                      ;XREF[15,0]:  0001d070,0001d098,0001d0aa,0001d0b2,0001d0be
                                                                     ;             0001d21a,0001d3d6,0001d3dc,0001d3e8,0001d410
                                                                     ;             0001d680,0001d688,0001d694,0001d6b4,0001d720
          ;local_78      undefined4         -78                      ;XREF[10,0]:  0001d526,0001d54e,0001d566,0001d598,0001d5d8
                                                                     ;             0001d5dc,0001d5ec,0001d6be,0001d6dc,0001d6e4
          ;local_7c      undefined4         -7c                      ;XREF[8,0]:   0001d384,0001d39c,0001d51c,0001d540,0001d548
                                                                     ;             0001d594,0001d5a2,0001d6c4
          ;local_80      undefined4         -80                      ;XREF[14,0]:  0001d388,0001d3a0,0001d3a4,0001d3ae,0001d430
                                                                     ;             0001d432,0001d43a,0001d5f8,0001d60e,0001d61e
                                                                     ;             0001d62a,0001d634,0001d63c,0001d64c
          ;local_84      undefined4         -84                      ;XREF[14,1]:  0001d2b6,0001d340,0001d350,0001d374,0001d3f8
                                                                     ;             0001d530,0001d56c,0001d5c8,0001d5f2,0001d5fe
                                                                     ;             0001d604,0001d67a,0001d6e6,0001d6ea,0001d354
          ;local_88      undefined4         -88                      ;XREF[21,1]:  0001d1ce,0001d1fe,0001d212,0001d258,0001d2d8
                                                                     ;             0001d2e8,0001d2f2,0001d330,0001d35c,0001d394
                                                                     ;             0001d3d4,0001d424,0001d428,0001d50a,0001d520
                                                                     ;             0001d52e,0001d54c,0001d582,0001d59a,0001d5b0
                                                                     ;             0001d6cc,0001d1d4
                                                          ;XREF[1,0]:   0001cebc
ram:0001d054    2de9ff4f        push        {param_1,param_2,param_3,param_4,r4,r...
ram:0001d058    95b0            sub         sp,#0x54                                
ram:0001d05a    9b46            mov         r11,param_4                             
ram:0001d05c    8946            mov         r9,param_2                              
ram:0001d05e    0646            mov         r6,param_1                              
ram:0001d060    0025            movs        r5,#0x0                                 
ram:0001d062    0fe2            b           LAB_0001d484                            
                            LAB_0001d064:                 ;XREF[1,0]:   0001d488
ram:0001d064    2528            cmp         param_1,#0x25                           
ram:0001d066    77d1            bne         LAB_0001d158                            
ram:0001d068    0024            movs        r4,#0x0                                 
ram:0001d06a    2746            mov         r7,r4                                   
ram:0001d06c    f84a            ldr         param_3,[DAT_0001d450]                  ;= 00012809h
ram:0001d06e    0121            movs        param_2,#0x1                            
ram:0001d070    0594            str         r4,[sp,#local_74+0x88]                  
ram:0001d072    00e0            b           LAB_0001d076                            
                            LAB_0001d074:                 ;XREF[1,0]:   0001d082
ram:0001d074    0443            orrs        r4,param_1                              
                            LAB_0001d076:                 ;XREF[1,0]:   0001d072
ram:0001d076    16f8013f        ldrb.w      param_4,[r6,#0x1]!                      
ram:0001d07a    203b            subs        param_4,#0x20                           
ram:0001d07c    01fa03f0        lsl.w       param_1,param_2,param_4                 
ram:0001d080    1042            tst         param_1,param_3                         
ram:0001d082    f7d1            bne         LAB_0001d074                            
ram:0001d084    3078            ldrb        param_1,[r6,#0x0]                       
ram:0001d086    2a28            cmp         param_1,#0x2a                           
ram:0001d088    11d0            beq         LAB_0001d0ae                            
ram:0001d08a    6ff02f03        mvn         param_4,#0x2f                           
                            LAB_0001d08e:                 ;XREF[1,0]:   0001d0ac
ram:0001d08e    3078            ldrb        param_1,[r6,#0x0]                       
ram:0001d090    a0f13002        sub.w       param_3,param_1,#0x30                   
ram:0001d094    092a            cmp         param_3,#0x9                            
ram:0001d096    16d8            bhi         LAB_0001d0c6                            
ram:0001d098    059a            ldr         param_3,[sp,#local_74+0x88]             
ram:0001d09a    44f00204        orr         r4,r4,#0x2                              
ram:0001d09e    02eb8202        add.w       param_3,param_3,param_3, lsl #0x2       
ram:0001d0a2    03eb4202        add.w       param_3,param_4,param_3, lsl #0x1       
ram:0001d0a6    1044            add         param_1,param_3                         
ram:0001d0a8    761c            adds        r6,r6,#0x1                              
ram:0001d0aa    0590            str         param_1,[sp,#local_74+0x88]             
ram:0001d0ac    efe7            b           LAB_0001d08e                            
                            LAB_0001d0ae:                 ;XREF[1,0]:   0001d088
ram:0001d0ae    59f8042b        ldr.w       param_3,[r9],#0x4                       
ram:0001d0b2    0592            str         param_3,[sp,#local_74+0x88]             
ram:0001d0b4    002a            cmp         param_3,#0x0                            
ram:0001d0b6    03da            bge         LAB_0001d0c0                            
ram:0001d0b8    5042            rsbs        param_1,param_3                         
ram:0001d0ba    44f40054        orr         r4,r4,#0x2000                           
ram:0001d0be    0590            str         param_1,[sp,#local_74+0x88]             
                            LAB_0001d0c0:                 ;XREF[1,0]:   0001d0b6
ram:0001d0c0    44f00204        orr         r4,r4,#0x2                              
ram:0001d0c4    761c            adds        r6,r6,#0x1                              
                            LAB_0001d0c6:                 ;XREF[1,0]:   0001d096
ram:0001d0c6    3078            ldrb        param_1,[r6,#0x0]                       
ram:0001d0c8    2e28            cmp         param_1,#0x2e                           
ram:0001d0ca    16d1            bne         LAB_0001d0fa                            
ram:0001d0cc    16f8010f        ldrb.w      param_1,[r6,#0x1]!                      
ram:0001d0d0    44f00404        orr         r4,r4,#0x4                              
ram:0001d0d4    2a28            cmp         param_1,#0x2a                           
ram:0001d0d6    0dd0            beq         LAB_0001d0f4                            
ram:0001d0d8    6ff02f02        mvn         param_3,#0x2f                           
                            LAB_0001d0dc:                 ;XREF[1,0]:   0001d0f2
ram:0001d0dc    3078            ldrb        param_1,[r6,#0x0]                       
ram:0001d0de    a0f13003        sub.w       param_4,param_1,#0x30                   
ram:0001d0e2    092b            cmp         param_4,#0x9                            
ram:0001d0e4    09d8            bhi         LAB_0001d0fa                            
ram:0001d0e6    07eb8703        add.w       param_4,r7,r7, lsl #0x2                 
ram:0001d0ea    02eb4303        add.w       param_4,param_3,param_4, lsl #0x1       
ram:0001d0ee    c718            adds        r7,param_1,param_4                      
ram:0001d0f0    761c            adds        r6,r6,#0x1                              
ram:0001d0f2    f3e7            b           LAB_0001d0dc                            
                            LAB_0001d0f4:                 ;XREF[1,0]:   0001d0d6
ram:0001d0f4    59f8047b        ldr.w       r7,[r9],#0x4                            
ram:0001d0f8    761c            adds        r6,r6,#0x1                              
                            LAB_0001d0fa:                 ;XREF[2,0]:   0001d0ca,0001d0e4
ram:0001d0fa    3078            ldrb        param_1,[r6,#0x0]                       
ram:0001d0fc    6c28            cmp         param_1,#0x6c                           
ram:0001d0fe    0fd0            beq         LAB_0001d120                            
ram:0001d100    06dc            bgt         LAB_0001d110                            
ram:0001d102    4c28            cmp         param_1,#0x4c                           
ram:0001d104    17d0            beq         LAB_0001d136                            
ram:0001d106    6828            cmp         param_1,#0x68                           
ram:0001d108    0dd0            beq         LAB_0001d126                            
ram:0001d10a    6a28            cmp         param_1,#0x6a                           
ram:0001d10c    14d1            bne         LAB_0001d138                            
ram:0001d10e    04e0            b           LAB_0001d11a                            
                            LAB_0001d110:                 ;XREF[1,0]:   0001d100
ram:0001d110    7428            cmp         param_1,#0x74                           
ram:0001d112    10d0            beq         LAB_0001d136                            
ram:0001d114    7a28            cmp         param_1,#0x7a                           
ram:0001d116    0fd1            bne         LAB_0001d138                            
ram:0001d118    0de0            b           LAB_0001d136                            
                            LAB_0001d11a:                 ;XREF[1,0]:   0001d10e
ram:0001d11a    44f40014        orr         r4,r4,#0x200000                         
ram:0001d11e    0ae0            b           LAB_0001d136                            
                            LAB_0001d120:                 ;XREF[1,0]:   0001d0fe
ram:0001d120    44f48014        orr         r4,r4,#0x100000                         
ram:0001d124    01e0            b           LAB_0001d12a                            
                            LAB_0001d126:                 ;XREF[1,0]:   0001d108
ram:0001d126    44f44014        orr         r4,r4,#0x300000                         
                            LAB_0001d12a:                 ;XREF[1,0]:   0001d124
ram:0001d12a    7278            ldrb        param_3,[r6,#0x1]                       
ram:0001d12c    8242            cmp         param_3,param_1                         
ram:0001d12e    02d1            bne         LAB_0001d136                            
ram:0001d130    04f58014        add.w       r4,r4,#0x100000                         
ram:0001d134    761c            adds        r6,r6,#0x1                              
                            LAB_0001d136:                 ;XREF[5,0]:   0001d104,0001d112,0001d118,0001d11e
                                                          ;             0001d12e
ram:0001d136    761c            adds        r6,r6,#0x1                              
                            LAB_0001d138:                 ;XREF[2,0]:   0001d10c,0001d116
ram:0001d138    3078            ldrb        param_1,[r6,#0x0]                       
ram:0001d13a    6628            cmp         param_1,#0x66                           
                            LAB_0001d13c:                 ;XREF[2,0]:   0001d14c,0001d150
ram:0001d13c    0bd0            beq         LAB_0001d156                            
ram:0001d13e    13dc            bgt         LAB_0001d168                            
ram:0001d140    5828            cmp         param_1,#0x58                           
ram:0001d142    77d0            beq         LAB_0001d234                            
ram:0001d144    09dc            bgt         LAB_0001d15a                            
ram:0001d146    0028            cmp         param_1,#0x0                            
ram:0001d148    75d0            beq         LAB_0001d236                            
ram:0001d14a    4528            cmp         param_1,#0x45                           
ram:0001d14c    f6d0            beq         LAB_0001d13c                            
ram:0001d14e    4628            cmp         param_1,#0x46                           
ram:0001d150    f4d0            beq         LAB_0001d13c                            
ram:0001d152    4728            cmp         param_1,#0x47                           
ram:0001d154    1ad1            bne         LAB_0001d18c                            
                            LAB_0001d156:                 ;XREF[2,0]:   0001d13c,0001d170
ram:0001d156    9de1            b           LAB_0001d494                            
                            LAB_0001d158:                 ;XREF[1,0]:   0001d066
ram:0001d158    18e0            b           LAB_0001d18c                            
                            LAB_0001d15a:                 ;XREF[1,0]:   0001d144
ram:0001d15a    6328            cmp         param_1,#0x63                           
ram:0001d15c    35d0            beq         LAB_0001d1ca                            
ram:0001d15e    6428            cmp         param_1,#0x64                           
ram:0001d160    79d0            beq         LAB_0001d256                            
ram:0001d162    6528            cmp         param_1,#0x65                           
ram:0001d164    12d1            bne         LAB_0001d18c                            
ram:0001d166    95e1            b           LAB_0001d494                            
                            LAB_0001d168:                 ;XREF[1,0]:   0001d13e
ram:0001d168    7028            cmp         param_1,#0x70                           
ram:0001d16a    73d0            beq         LAB_0001d254                            
ram:0001d16c    08dc            bgt         LAB_0001d180                            
ram:0001d16e    6728            cmp         param_1,#0x67                           
ram:0001d170    f1d0            beq         LAB_0001d156                            
ram:0001d172    6928            cmp         param_1,#0x69                           
ram:0001d174    6fd0            beq         LAB_0001d256                            
ram:0001d176    6e28            cmp         param_1,#0x6e                           
ram:0001d178    0dd0            beq         LAB_0001d196                            
ram:0001d17a    6f28            cmp         param_1,#0x6f                           
ram:0001d17c    06d1            bne         LAB_0001d18c                            
ram:0001d17e    b5e0            b           LAB_0001d2ec                            
                            LAB_0001d180:                 ;XREF[1,0]:   0001d16c
ram:0001d180    7328            cmp         param_1,#0x73                           
ram:0001d182    2cd0            beq         LAB_0001d1de                            
ram:0001d184    7528            cmp         param_1,#0x75                           
ram:0001d186    75d0            beq         LAB_0001d274                            
ram:0001d188    7828            cmp         param_1,#0x78                           
ram:0001d18a    74d0            beq         LAB_0001d276                            
                            LAB_0001d18c:                 ;XREF[4,0]:   0001d154,0001d158,0001d164,0001d17c
ram:0001d18c    5a46            mov         param_3,r11                             
ram:0001d18e    1799            ldr         param_2,[sp,#local_2c+0x88]             
ram:0001d190    9047            blx         param_3                                 
ram:0001d192    6d1c            adds        r5,r5,#0x1                              
ram:0001d194    75e1            b           LAB_0001d482                            
                            LAB_0001d196:                 ;XREF[1,0]:   0001d178
ram:0001d196    c4f30250        ubfx        param_1,r4,#0x14,#0x3                   
ram:0001d19a    0228            cmp         param_1,#0x2                            
ram:0001d19c    09d0            beq         LAB_0001d1b2                            
ram:0001d19e    0328            cmp         param_1,#0x3                            
ram:0001d1a0    0dd0            beq         LAB_0001d1be                            
ram:0001d1a2    d9f80010        ldr.w       param_2,[r9,#0x0]                       
ram:0001d1a6    0428            cmp         param_1,#0x4                            
ram:0001d1a8    0dd0            beq         LAB_0001d1c6                            
ram:0001d1aa    0d60            str         r5,[param_2,#0x0]                       
                            LAB_0001d1ac:                 ;XREF[3,0]:   0001d1bc,0001d1c4,0001d1c8
ram:0001d1ac    09f10409        add.w       r9,r9,#0x4                              
ram:0001d1b0    67e1            b           LAB_0001d482                            
                            LAB_0001d1b2:                 ;XREF[1,0]:   0001d19c
ram:0001d1b2    d9f80010        ldr.w       param_2,[r9,#0x0]                       
ram:0001d1b6    ea17            asrs        param_3,r5,#0x1f                        
ram:0001d1b8    c1e90052        strd        r5,param_3,[param_2,#0x0]               
ram:0001d1bc    f6e7            b           LAB_0001d1ac                            
                            LAB_0001d1be:                 ;XREF[1,0]:   0001d1a0
ram:0001d1be    d9f80010        ldr.w       param_2,[r9,#0x0]                       
ram:0001d1c2    0d80            strh        r5,[param_2,#0x0]                       
ram:0001d1c4    f2e7            b           LAB_0001d1ac                            
                            LAB_0001d1c6:                 ;XREF[1,0]:   0001d1a8
ram:0001d1c6    0d70            strb        r5,[param_2,#0x0]                       
ram:0001d1c8    f0e7            b           LAB_0001d1ac                            
                            LAB_0001d1ca:                 ;XREF[1,0]:   0001d15c
ram:0001d1ca    19f8041b        ldrb.w      param_2,[r9],#0x4                       
ram:0001d1ce    8df80010        strb.w      param_2,[sp,#0x0]=>local_88             
ram:0001d1d2    0020            movs        param_1,#0x0                            
ram:0001d1d4    8df80100        strb.w      param_1,[sp,#local_88+0x89]             
ram:0001d1d8    ea46            mov         r10,sp                                  
ram:0001d1da    0120            movs        param_1,#0x1                            
ram:0001d1dc    03e0            b           LAB_0001d1e6                            
                            LAB_0001d1de:                 ;XREF[1,0]:   0001d182
ram:0001d1de    59f804ab        ldr.w       r10,[r9],#0x4                           
ram:0001d1e2    4ff0ff30        mov.w       param_1,#0xffffffff                     
                            LAB_0001d1e6:                 ;XREF[1,0]:   0001d1dc
ram:0001d1e6    6107            lsls        param_2,r4,#0x1d                        
ram:0001d1e8    4ff00001        mov.w       param_2,#0x0                            
ram:0001d1ec    02d4            bmi         LAB_0001d1f4                            
ram:0001d1ee    0de0            b           LAB_0001d20c                            
                            LAB_0001d1f0:                 ;XREF[2,0]:   0001d1fc,0001d204
ram:0001d1f0    08f10101        add.w       param_2,r8,#0x1                         
                            LAB_0001d1f4:                 ;XREF[1,0]:   0001d1ec
ram:0001d1f4    8846            mov         r8,param_2                              
ram:0001d1f6    b942            cmp         param_2,r7                              
ram:0001d1f8    0fda            bge         LAB_0001d21a                            
ram:0001d1fa    8045            cmp         r8,param_1                              
ram:0001d1fc    f8db            blt         LAB_0001d1f0                            
ram:0001d1fe    1af80810        ldrb.w      param_2,r10=>local_88,r8,0x0            
ram:0001d202    0029            cmp         param_2,#0x0                            
ram:0001d204    f4d1            bne         LAB_0001d1f0                            
ram:0001d206    08e0            b           LAB_0001d21a                            
                            LAB_0001d208:                 ;XREF[2,0]:   0001d210,0001d218
ram:0001d208    08f10101        add.w       param_2,r8,#0x1                         
                            LAB_0001d20c:                 ;XREF[1,0]:   0001d1ee
ram:0001d20c    8846            mov         r8,param_2                              
ram:0001d20e    8142            cmp         param_2,param_1                         
ram:0001d210    fadb            blt         LAB_0001d208                            
ram:0001d212    1af80810        ldrb.w      param_2,r10=>local_88,r8,0x0            
ram:0001d216    0029            cmp         param_2,#0x0                            
ram:0001d218    f6d1            bne         LAB_0001d208                            
                            LAB_0001d21a:                 ;XREF[2,0]:   0001d1f8,0001d206
ram:0001d21a    0598            ldr         param_1,[sp,#local_74+0x88]             
ram:0001d21c    5b46            mov         param_4,r11                             
ram:0001d21e    a0eb0807        sub.w       r7,param_1,r8                           
ram:0001d222    2146            mov         param_2,r4                              
ram:0001d224    3846            mov         param_1,r7                              
ram:0001d226    179a            ldr         param_3,[sp,#local_2c+0x88]             
ram:0001d228    00f094fa        bl          FUN_0001d754                            ;int FUN_0001d754(int param_1, int pa...
ram:0001d22c    2844            add         param_1,r5                              
ram:0001d22e    00eb0805        add.w       r5,param_1,r8                           
ram:0001d232    07e0            b           LAB_0001d244                            
                            LAB_0001d234:                 ;XREF[1,0]:   0001d142
ram:0001d234    4de0            b           LAB_0001d2d2                            
                            LAB_0001d236:                 ;XREF[1,0]:   0001d148
ram:0001d236    29e1            b           LAB_0001d48c                            
ram:0001d238    0de0            b           LAB_0001d256                            
                            LAB_0001d23a:                 ;XREF[1,0]:   0001d248
ram:0001d23a    1af8010b        ldrb.w      param_1,[r10],#0x1                      
ram:0001d23e    5a46            mov         param_3,r11                             
ram:0001d240    1799            ldr         param_2,[sp,#local_2c+0x88]             
ram:0001d242    9047            blx         param_3                                 
                            LAB_0001d244:                 ;XREF[1,0]:   0001d232
ram:0001d244    b8f10108        subs.w      r8,r8,#0x1                              
ram:0001d248    f7d2            bcs         LAB_0001d23a                            
ram:0001d24a    5b46            mov         param_4,r11                             
ram:0001d24c    2146            mov         param_2,r4                              
ram:0001d24e    3846            mov         param_1,r7                              
ram:0001d250    179a            ldr         param_3,[sp,#local_2c+0x88]             
ram:0001d252    13e1            b           LAB_0001d47c                            
                            LAB_0001d254:                 ;XREF[1,0]:   0001d16a
ram:0001d254    42e0            b           LAB_0001d2dc                            
                            LAB_0001d256:                 ;XREF[3,0]:   0001d160,0001d174,0001d238
ram:0001d256    0a22            movs        param_3,#0xa                            
ram:0001d258    0092            str         param_3,[sp,#0x0]=>local_88             
ram:0001d25a    c4f30252        ubfx        param_3,r4,#0x14,#0x3                   
ram:0001d25e    4ff0000a        mov.w       r10,#0x0                                
ram:0001d262    022a            cmp         param_3,#0x2                            
ram:0001d264    08d0            beq         LAB_0001d278                            
ram:0001d266    59f804cb        ldr.w       r12,[r9],#0x4                           
ram:0001d26a    032a            cmp         param_3,#0x3                            
ram:0001d26c    4feaec71        asr.w       param_2,r12, asr #0x1f                  
ram:0001d270    0ad0            beq         LAB_0001d288                            
ram:0001d272    0de0            b           LAB_0001d290                            
                            LAB_0001d274:                 ;XREF[1,0]:   0001d186
ram:0001d274    29e0            b           LAB_0001d2ca                            
                            LAB_0001d276:                 ;XREF[1,0]:   0001d18a
ram:0001d276    2ae0            b           LAB_0001d2ce                            
                            LAB_0001d278:                 ;XREF[1,0]:   0001d264
ram:0001d278    09f10701        add.w       param_2,r9,#0x7                         
ram:0001d27c    21f00702        bic         param_3,param_2,#0x7                    
ram:0001d280    f2e802c1        ldrd        r12,param_2,[param_3],#0x8              
ram:0001d284    9146            mov         r9,param_3                              
ram:0001d286    09e0            b           LAB_0001d29c                            
                            LAB_0001d288:                 ;XREF[1,0]:   0001d270
ram:0001d288    0ffa8cfc        sxth.w      r12,r12                                 
ram:0001d28c    4feaec71        asr.w       param_2,r12, asr #0x1f                  
                            LAB_0001d290:                 ;XREF[1,0]:   0001d272
ram:0001d290    042a            cmp         param_3,#0x4                            
ram:0001d292    03d1            bne         LAB_0001d29c                            
ram:0001d294    4ffa8cfc        sxtb.w      r12,r12                                 
ram:0001d298    4feaec71        asr.w       param_2,r12, asr #0x1f                  
                            LAB_0001d29c:                 ;XREF[2,0]:   0001d286,0001d292
ram:0001d29c    0029            cmp         param_2,#0x0                            
ram:0001d29e    07da            bge         LAB_0001d2b0                            
ram:0001d2a0    0a46            mov         param_3,param_2                         
ram:0001d2a2    0021            movs        param_2,#0x0                            
ram:0001d2a4    dcf1000c        rsbs.w      r12,r12,#0x0                            
ram:0001d2a8    61eb0201        sbc.w       param_2,param_2,param_3                 
ram:0001d2ac    2d22            movs        param_3,#0x2d                           
ram:0001d2ae    02e0            b           LAB_0001d2b6                            
                            LAB_0001d2b0:                 ;XREF[1,0]:   0001d29e
ram:0001d2b0    2205            lsls        param_3,r4,#0x14                        
ram:0001d2b2    04d5            bpl         LAB_0001d2be                            
ram:0001d2b4    2b22            movs        param_3,#0x2b                           
                            LAB_0001d2b6:                 ;XREF[2,0]:   0001d2ae,0001d2c4
ram:0001d2b6    8df80420        strb.w      param_3,[sp,#local_84+0x88]             
ram:0001d2ba    0122            movs        param_3,#0x1                            
ram:0001d2bc    03e0            b           LAB_0001d2c6                            
                            LAB_0001d2be:                 ;XREF[1,0]:   0001d2b2
ram:0001d2be    e207            lsls        param_3,r4,#0x1f                        
ram:0001d2c0    01d0            beq         LAB_0001d2c6                            
ram:0001d2c2    2022            movs        param_3,#0x20                           
ram:0001d2c4    f7e7            b           LAB_0001d2b6                            
                            LAB_0001d2c6:                 ;XREF[2,0]:   0001d2bc,0001d2c0
ram:0001d2c6    9046            mov         r8,param_3                              
ram:0001d2c8    59e0            b           LAB_0001d37e                            
                            LAB_0001d2ca:                 ;XREF[1,0]:   0001d274
ram:0001d2ca    0a21            movs        param_2,#0xa                            
ram:0001d2cc    02e0            b           LAB_0001d2d4                            
                            LAB_0001d2ce:                 ;XREF[1,0]:   0001d276
ram:0001d2ce    1022            movs        param_3,#0x10                           
ram:0001d2d0    0de0            b           LAB_0001d2ee                            
                            LAB_0001d2d2:                 ;XREF[1,0]:   0001d234
ram:0001d2d2    1021            movs        param_2,#0x10                           
                            LAB_0001d2d4:                 ;XREF[1,0]:   0001d2cc
ram:0001d2d4    4ff0000a        mov.w       r10,#0x0                                
ram:0001d2d8    0091            str         param_2,[sp,#0x0]=>local_88             
ram:0001d2da    0be0            b           LAB_0001d2f4                            
                            LAB_0001d2dc:                 ;XREF[1,0]:   0001d254
ram:0001d2dc    1022            movs        param_3,#0x10                           
ram:0001d2de    4ff0000a        mov.w       r10,#0x0                                
ram:0001d2e2    44f00404        orr         r4,r4,#0x4                              
ram:0001d2e6    0827            movs        r7,#0x8                                 
ram:0001d2e8    0092            str         param_3,[sp,#0x0]=>local_88             
ram:0001d2ea    03e0            b           LAB_0001d2f4                            
                            LAB_0001d2ec:                 ;XREF[1,0]:   0001d17e
ram:0001d2ec    0822            movs        param_3,#0x8                            
                            LAB_0001d2ee:                 ;XREF[1,0]:   0001d2d0
ram:0001d2ee    4ff0000a        mov.w       r10,#0x0                                
ram:0001d2f2    0092            str         param_3,[sp,#0x0]=>local_88             
                            LAB_0001d2f4:                 ;XREF[2,0]:   0001d2da,0001d2ea
ram:0001d2f4    c4f30252        ubfx        param_3,r4,#0x14,#0x3                   
ram:0001d2f8    022a            cmp         param_3,#0x2                            
ram:0001d2fa    05d0            beq         LAB_0001d308                            
ram:0001d2fc    59f804cb        ldr.w       r12,[r9],#0x4                           
ram:0001d300    0021            movs        param_2,#0x0                            
ram:0001d302    032a            cmp         param_3,#0x3                            
ram:0001d304    08d0            beq         LAB_0001d318                            
ram:0001d306    09e0            b           LAB_0001d31c                            
                            LAB_0001d308:                 ;XREF[1,0]:   0001d2fa
ram:0001d308    09f10701        add.w       param_2,r9,#0x7                         
ram:0001d30c    21f00702        bic         param_3,param_2,#0x7                    
ram:0001d310    f2e802c1        ldrd        r12,param_2,[param_3],#0x8              
ram:0001d314    9146            mov         r9,param_3                              
ram:0001d316    05e0            b           LAB_0001d324                            
                            LAB_0001d318:                 ;XREF[1,0]:   0001d304
ram:0001d318    1ffa8cfc        uxth.w      r12,r12                                 
                            LAB_0001d31c:                 ;XREF[1,0]:   0001d306
ram:0001d31c    042a            cmp         param_3,#0x4                            
ram:0001d31e    01d1            bne         LAB_0001d324                            
ram:0001d320    0cf0ff0c        and         r12,r12,#0xff                           
                            LAB_0001d324:                 ;XREF[2,0]:   0001d316,0001d31e
ram:0001d324    4ff00008        mov.w       r8,#0x0                                 
ram:0001d328    2207            lsls        param_3,r4,#0x1c                        
ram:0001d32a    28d5            bpl         LAB_0001d37e                            
ram:0001d32c    7028            cmp         param_1,#0x70                           
ram:0001d32e    06d0            beq         LAB_0001d33e                            
ram:0001d330    009b            ldr         param_4,[sp,#0x0]=>local_88             
ram:0001d332    83f01003        eor         param_4,param_4,#0x10                   
ram:0001d336    53ea0a03        orrs.w      param_4,param_4,r10                     
ram:0001d33a    05d0            beq         LAB_0001d348                            
ram:0001d33c    0ee0            b           LAB_0001d35c                            
                            LAB_0001d33e:                 ;XREF[1,0]:   0001d32e
ram:0001d33e    4022            movs        param_3,#0x40                           
ram:0001d340    8df80420        strb.w      param_3,[sp,#local_84+0x88]             
ram:0001d344    0122            movs        param_3,#0x1                            
ram:0001d346    08e0            b           LAB_0001d35a                            
                            LAB_0001d348:                 ;XREF[1,0]:   0001d33a
ram:0001d348    5cea0102        orrs.w      param_3,r12,param_2                     
ram:0001d34c    06d0            beq         LAB_0001d35c                            
ram:0001d34e    3022            movs        param_3,#0x30                           
ram:0001d350    8df80420        strb.w      param_3,[sp,#local_84+0x88]             
ram:0001d354    8df80500        strb.w      param_1,[sp,#local_84+0x89]             
ram:0001d358    0222            movs        param_3,#0x2                            
                            LAB_0001d35a:                 ;XREF[1,0]:   0001d346
ram:0001d35a    9046            mov         r8,param_3                              
                            LAB_0001d35c:                 ;XREF[2,0]:   0001d33c,0001d34c
ram:0001d35c    009b            ldr         param_4,[sp,#0x0]=>local_88             
ram:0001d35e    83f00803        eor         param_4,param_4,#0x8                    
ram:0001d362    53ea0a03        orrs.w      param_4,param_4,r10                     
ram:0001d366    0ad1            bne         LAB_0001d37e                            
ram:0001d368    5cea0102        orrs.w      param_3,r12,param_2                     
ram:0001d36c    01d1            bne         LAB_0001d372                            
ram:0001d36e    6207            lsls        param_3,r4,#0x1d                        
ram:0001d370    05d5            bpl         LAB_0001d37e                            
                            LAB_0001d372:                 ;XREF[1,0]:   0001d36c
ram:0001d372    3022            movs        param_3,#0x30                           
ram:0001d374    8df80420        strb.w      param_3,[sp,#local_84+0x88]             
ram:0001d378    4ff00108        mov.w       r8,#0x1                                 
ram:0001d37c    7f1e            subs        r7,r7,#0x1                              
                            LAB_0001d37e:                 ;XREF[4,0]:   0001d2c8,0001d32a,0001d366,0001d370
ram:0001d37e    5828            cmp         param_1,#0x58                           
ram:0001d380    04d0            beq         LAB_0001d38c                            
ram:0001d382    34a0            adr         param_1,[s_0123456789abcdef_0001d454]   ;= "0123456789abcdef"
                            LAB_0001d384:                 ;XREF[1,0]:   0001d38e
                                                          ; FWD[3,0]:   Stack[-0x7c],0001d454,0001d468
ram:0001d384    0390            str         param_1=>s_01234...,[sp,#local_7c+0x88] ;= "0123456789abcdef"
                                                                                    ;= "0123456789ABCDEF"
ram:0001d386    0ea8            add         param_1,sp,#0x38                        
ram:0001d388    0290            str         param_1,[sp,#local_80+0x88]             
ram:0001d38a    0de0            b           LAB_0001d3a8                            
                            LAB_0001d38c:                 ;XREF[1,0]:   0001d380
ram:0001d38c    36a0            adr         param_1,[s_0123456789ABCDEF_0001d468]   ;= "0123456789ABCDEF"
ram:0001d38e    f9e7            b           LAB_0001d384                            
                            LAB_0001d390:                 ;XREF[1,0]:   0001d3ac
ram:0001d390    5346            mov         param_4,r10                             
ram:0001d392    6046            mov         param_1,r12                             
ram:0001d394    009a            ldr         param_3,[sp,#0x0]=>local_88             
ram:0001d396    fff7c5f8        bl          FUN_0001c524                            ;longlong FUN_0001c524(uint param_1, ...
ram:0001d39a    8446            mov         r12,param_1                             
ram:0001d39c    0398            ldr         param_1,[sp,#local_7c+0x88]             
ram:0001d39e    825c            ldrb        param_3,[param_1,param_3]=>s_abcdef_0...;= "abcdef"
ram:0001d3a0    0298            ldr         param_1,[sp,#local_80+0x88]             
ram:0001d3a2    401e            subs        param_1,param_1,#0x1                    
ram:0001d3a4    0290            str         param_1,[sp,#local_80+0x88]             
ram:0001d3a6    0270            strb        param_3,[param_1,#0x0]                  
                            LAB_0001d3a8:                 ;XREF[1,0]:   0001d38a
ram:0001d3a8    5cea0100        orrs.w      param_1,r12,param_2                     
ram:0001d3ac    f0d1            bne         LAB_0001d390                            
ram:0001d3ae    0298            ldr         param_1,[sp,#local_80+0x88]             
ram:0001d3b0    06a9            add         param_2,sp,#0x18                        
ram:0001d3b2    081a            subs        param_1,param_2,param_1                 
ram:0001d3b4    00f1200a        add.w       r10,param_1,#0x20                       
ram:0001d3b8    6007            lsls        param_1,r4,#0x1d                        
ram:0001d3ba    02d5            bpl         LAB_0001d3c2                            
ram:0001d3bc    24f48034        bic         r4,r4,#0x10000                          
ram:0001d3c0    00e0            b           LAB_0001d3c4                            
                            LAB_0001d3c2:                 ;XREF[1,0]:   0001d3ba
ram:0001d3c2    0127            movs        r7,#0x1                                 
                            LAB_0001d3c4:                 ;XREF[1,0]:   0001d3c0
ram:0001d3c4    5745            cmp         r7,r10                                  
ram:0001d3c6    02dd            ble         LAB_0001d3ce                            
ram:0001d3c8    a7eb0a00        sub.w       param_1,r7,r10                          
ram:0001d3cc    00e0            b           LAB_0001d3d0                            
                            LAB_0001d3ce:                 ;XREF[1,0]:   0001d3c6
ram:0001d3ce    0020            movs        param_1,#0x0                            
                            LAB_0001d3d0:                 ;XREF[1,0]:   0001d3cc
ram:0001d3d0    00eb0a01        add.w       param_2,param_1,r10                     
ram:0001d3d4    0090            str         param_1,[sp,#0x0]=>local_88             
ram:0001d3d6    0598            ldr         param_1,[sp,#local_74+0x88]             
ram:0001d3d8    4144            add         param_2,r8                              
ram:0001d3da    401a            subs        param_1,param_1,param_2                 
ram:0001d3dc    0590            str         param_1,[sp,#local_74+0x88]             
ram:0001d3de    e003            lsls        param_1,r4,#0xf                         
ram:0001d3e0    06d4            bmi         LAB_0001d3f0                            
ram:0001d3e2    5b46            mov         param_4,r11                             
ram:0001d3e4    2146            mov         param_2,r4                              
ram:0001d3e6    179a            ldr         param_3,[sp,#local_2c+0x88]             
ram:0001d3e8    0598            ldr         param_1,[sp,#local_74+0x88]             
ram:0001d3ea    00f0b3f9        bl          FUN_0001d754                            ;int FUN_0001d754(int param_1, int pa...
ram:0001d3ee    0544            add         r5,param_1                              
                            LAB_0001d3f0:                 ;XREF[1,0]:   0001d3e0
ram:0001d3f0    0027            movs        r7,#0x0                                 
ram:0001d3f2    06e0            b           LAB_0001d402                            
                            LAB_0001d3f4:                 ;XREF[1,0]:   0001d404
ram:0001d3f4    01a8            add         param_1,sp,#0x4                         
ram:0001d3f6    5a46            mov         param_3,r11                             
ram:0001d3f8    c05d            ldrb        param_1=>local_84,[param_1,r7]          
ram:0001d3fa    1799            ldr         param_2,[sp,#local_2c+0x88]             
ram:0001d3fc    9047            blx         param_3                                 
ram:0001d3fe    6d1c            adds        r5,r5,#0x1                              
ram:0001d400    7f1c            adds        r7,r7,#0x1                              
                            LAB_0001d402:                 ;XREF[1,0]:   0001d3f2
ram:0001d402    4745            cmp         r7,r8                                   
ram:0001d404    f6db            blt         LAB_0001d3f4                            
ram:0001d406    e003            lsls        param_1,r4,#0xf                         
ram:0001d408    0cd5            bpl         LAB_0001d424                            
ram:0001d40a    5b46            mov         param_4,r11                             
ram:0001d40c    2146            mov         param_2,r4                              
ram:0001d40e    179a            ldr         param_3,[sp,#local_2c+0x88]             
ram:0001d410    0598            ldr         param_1,[sp,#local_74+0x88]             
ram:0001d412    00f09ff9        bl          FUN_0001d754                            ;int FUN_0001d754(int param_1, int pa...
ram:0001d416    0544            add         r5,param_1                              
ram:0001d418    04e0            b           LAB_0001d424                            
                            LAB_0001d41a:                 ;XREF[1,0]:   0001d42c
ram:0001d41a    3020            movs        param_1,#0x30                           
ram:0001d41c    5a46            mov         param_3,r11                             
ram:0001d41e    1799            ldr         param_2,[sp,#local_2c+0x88]             
ram:0001d420    9047            blx         param_3                                 
ram:0001d422    6d1c            adds        r5,r5,#0x1                              
                            LAB_0001d424:                 ;XREF[2,0]:   0001d408,0001d418
ram:0001d424    0099            ldr         param_2,[sp,#0x0]=>local_88             
ram:0001d426    481e            subs        param_1,param_2,#0x1                    
ram:0001d428    0090            str         param_1,[sp,#0x0]=>local_88             
ram:0001d42a    0029            cmp         param_2,#0x0                            
ram:0001d42c    f5dc            bgt         LAB_0001d41a                            
ram:0001d42e    08e0            b           LAB_0001d442                            
                            LAB_0001d430:                 ;XREF[1,0]:   0001d44a
ram:0001d430    0298            ldr         param_1,[sp,#local_80+0x88]             
ram:0001d432    0299            ldr         param_2,[sp,#local_80+0x88]             
ram:0001d434    5a46            mov         param_3,r11                             
ram:0001d436    0078            ldrb        param_1,[param_1,#0x0]                  
ram:0001d438    491c            adds        param_2,param_2,#0x1                    
ram:0001d43a    0291            str         param_2,[sp,#local_80+0x88]             
ram:0001d43c    1799            ldr         param_2,[sp,#local_2c+0x88]             
ram:0001d43e    9047            blx         param_3                                 
ram:0001d440    6d1c            adds        r5,r5,#0x1                              
                            LAB_0001d442:                 ;XREF[1,0]:   0001d42e
ram:0001d442    baf10001        subs.w      param_2,r10,#0x0                        
ram:0001d446    aaf1010a        sub.w       r10,r10,#0x1                            
ram:0001d44a    f1dc            bgt         LAB_0001d430                            
ram:0001d44c    65e1            b           LAB_0001d71a                            
ram:0001d44e    0000            movs        r0,r0                                   
                            DAT_0001d450:                 ;XREF[1,0]:   0001d06c
ram:0001d450    09280100        undefined4  00012809h                               
                            s_0123456789abcdef_0001d454:  ;XREF[2,3]:   0001d382,0001d384,0001d39e,0001d4d0
                                                          ;             0001d4dc
ram:0001d454    303132333...    ds          "0123456789abcdef"                      
                            s_0123456789ABCDEF_0001d468:  ;XREF[2,0]:   0001d384,0001d38c
ram:0001d468    303132333...    ds          "0123456789ABCDEF"                      
ram:0001d479    00              ??          00h                                     
ram:0001d47a    00              ??          00h                                     
ram:0001d47b    00              ??          00h                                     
                            LAB_0001d47c:                 ;XREF[2,0]:   0001d252,0001d722
ram:0001d47c    00f058f9        bl          FUN_0001d730                            ;int FUN_0001d730(int param_1, int pa...
ram:0001d480    0544            add         r5,param_1                              
                            LAB_0001d482:                 ;XREF[2,0]:   0001d194,0001d1b0
ram:0001d482    761c            adds        r6,r6,#0x1                              
                            LAB_0001d484:                 ;XREF[1,0]:   0001d062
ram:0001d484    3078            ldrb        param_1,[r6,#0x0]                       
ram:0001d486    0028            cmp         param_1,#0x0                            
ram:0001d488    7ff4ecad        bne.w       LAB_0001d064                            
                            LAB_0001d48c:                 ;XREF[1,0]:   0001d236
ram:0001d48c    19b0            add         sp,#0x64                                
ram:0001d48e    2846            mov         param_1,r5                              
ram:0001d490    bde8f08f        pop.w       {r4,r5,r6,r7,r8,r9,r10,r11,pc}          
                            LAB_0001d494:                 ;XREF[2,0]:   0001d156,0001d166
ram:0001d494    6207            lsls        param_3,r4,#0x1d                        
ram:0001d496    00d4            bmi         LAB_0001d49a                            
ram:0001d498    0627            movs        r7,#0x6                                 
                            LAB_0001d49a:                 ;XREF[1,0]:   0001d496
ram:0001d49a    09f10702        add.w       param_3,r9,#0x7                         
ram:0001d49e    22f0070c        bic         r12,param_3,#0x7                        
ram:0001d4a2    fce80223        ldrd        param_3,param_4,[r12],#0x8              
ram:0001d4a6    e146            mov         r9,r12                                  
ram:0001d4a8    03f00048        and         r8,param_4,#0x80000000                  
ram:0001d4ac    5fea080c        movs.w      r12,r8                                  
ram:0001d4b0    02d0            beq         LAB_0001d4b8                            
ram:0001d4b2    0ff2702c        adr.w       r12,DAT_0001d724                        ;= 2Dh
ram:0001d4b6    0de0            b           LAB_0001d4d4                            
                            LAB_0001d4b8:                 ;XREF[1,0]:   0001d4b0
ram:0001d4b8    5fea045c        lsls.w      r12,r4,#0x14                            
ram:0001d4bc    02d5            bpl         LAB_0001d4c4                            
ram:0001d4be    0ff2682c        adr.w       r12,DAT_0001d728                        ;= 2Bh    +
ram:0001d4c2    07e0            b           LAB_0001d4d4                            
                            LAB_0001d4c4:                 ;XREF[1,0]:   0001d4bc
ram:0001d4c4    5feac47c        lsls.w      r12,r4,#0x1f                            
ram:0001d4c8    02d0            beq         LAB_0001d4d0                            
ram:0001d4ca    0ff2602c        adr.w       r12,DAT_0001d72c                        ;= 20h     
ram:0001d4ce    01e0            b           LAB_0001d4d4                            
                            LAB_0001d4d0:                 ;XREF[1,0]:   0001d4c8
ram:0001d4d0    aff2700c        adr.w       r12,s__0001d454+16                      ;= ""
                            LAB_0001d4d4:                 ;XREF[3,0]:   0001d4b6,0001d4c2,0001d4ce
ram:0001d4d4    4ff0ff38        mov.w       r8,#0xffffffff                          
ram:0001d4d8    23f00043        bic         param_4,param_4,#0x80000000             
                                                          ; FWD[5,0]:   Stack[-0x38],0001d464,0001d724
                                                          ;             0001d728,0001d72c
ram:0001d4dc    cdf850c0        str.w       r12=>DAT_0001d724,[sp,#local_38+0x88]   ;= ""
                                                                                    ;= 2Dh
                                                                                    ;= 2Bh    +
                                                                                    ;= 20h     
ram:0001d4e0    6528            cmp         param_1,#0x65                           
ram:0001d4e2    0cd0            beq         LAB_0001d4fe                            
ram:0001d4e4    06dc            bgt         LAB_0001d4f4                            
ram:0001d4e6    4528            cmp         param_1,#0x45                           
ram:0001d4e8    09d0            beq         LAB_0001d4fe                            
ram:0001d4ea    4628            cmp         param_1,#0x46                           
ram:0001d4ec    1dd0            beq         LAB_0001d52a                            
ram:0001d4ee    4728            cmp         param_1,#0x47                           
ram:0001d4f0    3dd1            bne         LAB_0001d56e                            
ram:0001d4f2    3de0            b           LAB_0001d570                            
                            LAB_0001d4f4:                 ;XREF[1,0]:   0001d4e4
ram:0001d4f4    6628            cmp         param_1,#0x66                           
ram:0001d4f6    18d0            beq         LAB_0001d52a                            
ram:0001d4f8    6728            cmp         param_1,#0x67                           
ram:0001d4fa    7ed1            bne         LAB_0001d5fa                            
ram:0001d4fc    38e0            b           LAB_0001d570                            
                            LAB_0001d4fe:                 ;XREF[2,0]:   0001d4e2,0001d4e8
ram:0001d4fe    0021            movs        param_2,#0x0                            
ram:0001d500    112f            cmp         r7,#0x11                                
ram:0001d502    01db            blt         LAB_0001d508                            
ram:0001d504    1120            movs        param_1,#0x11                           
ram:0001d506    00e0            b           LAB_0001d50a                            
                            LAB_0001d508:                 ;XREF[1,0]:   0001d502
ram:0001d508    781c            adds        param_1,r7,#0x1                         
                            LAB_0001d50a:                 ;XREF[1,0]:   0001d506
ram:0001d50a    cde90001        strd        param_1,param_2,[sp,#0x0]=>local_88     
ram:0001d50e    06a9            add         param_2,sp,#0x18                        
ram:0001d510    0ea8            add         param_1,sp,#0x38                        
ram:0001d512    fff7edfc        bl          FUN_0001cef0                            ;undefined8 FUN_0001cef0(int * param_...
ram:0001d516    dde90f01        ldrd        param_1,param_2,[sp,#local_4c+0x88]     
ram:0001d51a    0e9a            ldr         param_3,[sp,#local_50+0x88]             
ram:0001d51c    0391            str         param_2,[sp,#local_7c+0x88]             
ram:0001d51e    0021            movs        param_2,#0x0                            
ram:0001d520    0092            str         param_3,[sp,#0x0]=>local_88             
ram:0001d522    07f1010a        add.w       r10,r7,#0x1                             
ram:0001d526    0491            str         param_2,[sp,#local_78+0x88]             
ram:0001d528    4de0            b           LAB_0001d5c6                            
                            LAB_0001d52a:                 ;XREF[2,0]:   0001d4ec,0001d4f6
ram:0001d52a    4ff00040        mov.w       param_1,#0x80000000                     
ram:0001d52e    0097            str         r7,[sp,#0x0]=>local_88                  
ram:0001d530    cde90110        strd        param_2,param_1,[sp,#local_84+0x88]     
ram:0001d534    06a9            add         param_2,sp,#0x18                        
ram:0001d536    0ea8            add         param_1,sp,#0x38                        
ram:0001d538    fff7dafc        bl          FUN_0001cef0                            ;undefined8 FUN_0001cef0(int * param_...
ram:0001d53c    dde90f02        ldrd        param_1,param_3,[sp,#local_4c+0x88]     
ram:0001d540    0392            str         param_3,[sp,#local_7c+0x88]             
ram:0001d542    0e9b            ldr         param_4,[sp,#local_50+0x88]             
ram:0001d544    1199            ldr         param_2,[sp,#local_44+0x88]             
ram:0001d546    0022            movs        param_3,#0x0                            
ram:0001d548    ddf80ca0        ldr.w       r10,[sp,#local_7c+0x88]                 
ram:0001d54c    0093            str         param_4,[sp,#0x0]=>local_88             
ram:0001d54e    0492            str         param_3,[sp,#local_78+0x88]             
ram:0001d550    11b9            cbnz        param_2,LAB_0001d558                    
ram:0001d552    791c            adds        param_2,r7,#0x1                         
ram:0001d554    00eb010a        add.w       r10,param_1,param_2                     
                            LAB_0001d558:                 ;XREF[1,0]:   0001d550
ram:0001d558    b7eb0a00        subs.w      param_1,r7,r10                          
ram:0001d55c    04d4            bmi         LAB_0001d568                            
ram:0001d55e    c0f1ff30        rsb.w       param_1,param_1,#0xffffffff             
ram:0001d562    07f1010a        add.w       r10,r7,#0x1                             
ram:0001d566    0490            str         param_1,[sp,#local_78+0x88]             
                            LAB_0001d568:                 ;XREF[1,0]:   0001d55c
ram:0001d568    aaeb0700        sub.w       param_1,r10,r7                          
ram:0001d56c    0190            str         param_1,[sp,#local_84+0x88]             
                            LAB_0001d56e:                 ;XREF[1,0]:   0001d4f0
ram:0001d56e    44e0            b           LAB_0001d5fa                            
                            LAB_0001d570:                 ;XREF[2,0]:   0001d4f2,0001d4fc
ram:0001d570    012f            cmp         r7,#0x1                                 
ram:0001d572    00da            bge         LAB_0001d576                            
ram:0001d574    0127            movs        r7,#0x1                                 
                            LAB_0001d576:                 ;XREF[1,0]:   0001d572
ram:0001d576    0021            movs        param_2,#0x0                            
ram:0001d578    112f            cmp         r7,#0x11                                
ram:0001d57a    01dd            ble         LAB_0001d580                            
ram:0001d57c    1120            movs        param_1,#0x11                           
ram:0001d57e    00e0            b           LAB_0001d582                            
                            LAB_0001d580:                 ;XREF[1,0]:   0001d57a
ram:0001d580    3846            mov         param_1,r7                              
                            LAB_0001d582:                 ;XREF[1,0]:   0001d57e
ram:0001d582    cde90001        strd        param_1,param_2,[sp,#0x0]=>local_88     
ram:0001d586    06a9            add         param_2,sp,#0x18                        
ram:0001d588    0ea8            add         param_1,sp,#0x38                        
ram:0001d58a    fff7b1fc        bl          FUN_0001cef0                            ;undefined8 FUN_0001cef0(int * param_...
ram:0001d58e    dde90f01        ldrd        param_1,param_2,[sp,#local_4c+0x88]     
ram:0001d592    0e9a            ldr         param_3,[sp,#local_50+0x88]             
ram:0001d594    0391            str         param_2,[sp,#local_7c+0x88]             
ram:0001d596    0021            movs        param_2,#0x0                            
ram:0001d598    0491            str         param_2,[sp,#local_78+0x88]             
ram:0001d59a    0092            str         param_3,[sp,#0x0]=>local_88             
ram:0001d59c    ba46            mov         r10,r7                                  
ram:0001d59e    2107            lsls        param_2,r4,#0x1c                        
ram:0001d5a0    0cd4            bmi         LAB_0001d5bc                            
ram:0001d5a2    0399            ldr         param_2,[sp,#local_7c+0x88]             
ram:0001d5a4    5145            cmp         param_2,r10                             
ram:0001d5a6    00da            bge         LAB_0001d5aa                            
                            LAB_0001d5a8:                 ;XREF[1,0]:   0001d5d2
ram:0001d5a8    8a46            mov         r10,param_2                             
                            LAB_0001d5aa:                 ;XREF[1,0]:   0001d5a6
ram:0001d5aa    baf1010f        cmp.w       r10,#0x1                                
ram:0001d5ae    05dd            ble         LAB_0001d5bc                            
ram:0001d5b0    009a            ldr         param_3,[sp,#0x0]=>local_88             
ram:0001d5b2    aaf10101        sub.w       param_2,r10,#0x1                        
ram:0001d5b6    515c            ldrb        param_2,[param_3,param_2]               
ram:0001d5b8    3029            cmp         param_2,#0x30                           
ram:0001d5ba    08d0            beq         LAB_0001d5ce                            
                            LAB_0001d5bc:                 ;XREF[2,0]:   0001d5a0,0001d5ae
ram:0001d5bc    b842            cmp         param_1,r7                              
ram:0001d5be    02da            bge         LAB_0001d5c6                            
ram:0001d5c0    10f1040f        cmn         param_1,#0x4                            
ram:0001d5c4    06da            bge         LAB_0001d5d4                            
                            LAB_0001d5c6:                 ;XREF[2,0]:   0001d528,0001d5be
ram:0001d5c6    0121            movs        param_2,#0x1                            
ram:0001d5c8    cde90110        strd        param_2,param_1,[sp,#local_84+0x88]     
ram:0001d5cc    15e0            b           LAB_0001d5fa                            
                            LAB_0001d5ce:                 ;XREF[1,0]:   0001d5ba
ram:0001d5ce    aaf10101        sub.w       param_2,r10,#0x1                        
ram:0001d5d2    e9e7            b           LAB_0001d5a8                            
                            LAB_0001d5d4:                 ;XREF[1,0]:   0001d5c4
ram:0001d5d4    0028            cmp         param_1,#0x0                            
ram:0001d5d6    05dc            bgt         LAB_0001d5e4                            
ram:0001d5d8    0499            ldr         param_2,[sp,#local_78+0x88]             
ram:0001d5da    0144            add         param_2,param_1                         
ram:0001d5dc    0491            str         param_2,[sp,#local_78+0x88]             
ram:0001d5de    aaeb0001        sub.w       param_2,r10,param_1                     
ram:0001d5e2    02e0            b           LAB_0001d5ea                            
                            LAB_0001d5e4:                 ;XREF[1,0]:   0001d5d6
ram:0001d5e4    411c            adds        param_2,param_1,#0x1                    
ram:0001d5e6    5145            cmp         param_2,r10                             
ram:0001d5e8    00dd            ble         LAB_0001d5ec                            
                            LAB_0001d5ea:                 ;XREF[1,0]:   0001d5e2
ram:0001d5ea    8a46            mov         r10,param_2                             
                            LAB_0001d5ec:                 ;XREF[1,0]:   0001d5e8
ram:0001d5ec    0499            ldr         param_2,[sp,#local_78+0x88]             
ram:0001d5ee    401a            subs        param_1,param_1,param_2                 
ram:0001d5f0    401c            adds        param_1,param_1,#0x1                    
ram:0001d5f2    0190            str         param_1,[sp,#local_84+0x88]             
ram:0001d5f4    4ff00040        mov.w       param_1,#0x80000000                     
ram:0001d5f8    0290            str         param_1,[sp,#local_80+0x88]             
                            LAB_0001d5fa:                 ;XREF[3,0]:   0001d4fa,0001d56e,0001d5cc
ram:0001d5fa    2007            lsls        param_1,r4,#0x1c                        
ram:0001d5fc    04d4            bmi         LAB_0001d608                            
ram:0001d5fe    0198            ldr         param_1,[sp,#local_84+0x88]             
ram:0001d600    5045            cmp         param_1,r10                             
ram:0001d602    01db            blt         LAB_0001d608                            
ram:0001d604    cdf80480        str.w       r8,[sp,#local_84+0x88]                  
                            LAB_0001d608:                 ;XREF[2,0]:   0001d5fc,0001d602
ram:0001d608    0020            movs        param_1,#0x0                            
ram:0001d60a    8df84f00        strb.w      param_1,[sp,#local_39+0x88]             
ram:0001d60e    0298            ldr         param_1,[sp,#local_80+0x88]             
ram:0001d610    0df14f07        add.w       r7,sp,#0x4f                             
ram:0001d614    b0f1004f        cmp.w       param_1,#0x80000000                     
ram:0001d618    25d0            beq         LAB_0001d666                            
ram:0001d61a    2b20            movs        param_1,#0x2b                           
ram:0001d61c    0e90            str         param_1,[sp,#local_50+0x88]             
ram:0001d61e    0298            ldr         param_1,[sp,#local_80+0x88]             
ram:0001d620    4ff00208        mov.w       r8,#0x2                                 
ram:0001d624    0028            cmp         param_1,#0x0                            
ram:0001d626    0cda            bge         LAB_0001d642                            
ram:0001d628    4042            rsbs        param_1,param_1                         
ram:0001d62a    0290            str         param_1,[sp,#local_80+0x88]             
ram:0001d62c    2d20            movs        param_1,#0x2d                           
ram:0001d62e    0e90            str         param_1,[sp,#local_50+0x88]             
ram:0001d630    07e0            b           LAB_0001d642                            
                            LAB_0001d632:                 ;XREF[2,0]:   0001d64a,0001d650
ram:0001d632    0a21            movs        param_2,#0xa                            
ram:0001d634    0298            ldr         param_1,[sp,#local_80+0x88]             
ram:0001d636    fef75fff        bl          FUN_0001c4f8                            ;int FUN_0001c4f8(uint param_1, uint ...
ram:0001d63a    3031            adds        param_2,#0x30                           
ram:0001d63c    0290            str         param_1,[sp,#local_80+0x88]             
ram:0001d63e    07f8011d        strb.w      param_2,[r7,#-0x1]!=>local_3a           
                            LAB_0001d642:                 ;XREF[2,0]:   0001d626,0001d630
ram:0001d642    b8f10001        subs.w      param_2,r8,#0x0                         
ram:0001d646    a8f10108        sub.w       r8,r8,#0x1                              
ram:0001d64a    f2dc            bgt         LAB_0001d632                            
ram:0001d64c    0298            ldr         param_1,[sp,#local_80+0x88]             
ram:0001d64e    0028            cmp         param_1,#0x0                            
ram:0001d650    efd1            bne         LAB_0001d632                            
ram:0001d652    791e            subs        param_2,r7,#0x1                         
ram:0001d654    0e98            ldr         param_1,[sp,#local_50+0x88]             
ram:0001d656    0870            strb        param_1,[param_2,#0x0]=>local_3a        
ram:0001d658    3078            ldrb        param_1,[r6,#0x0]                       
ram:0001d65a    00f02000        and         param_1,param_1,#0x20                   
ram:0001d65e    40f04500        orr         param_1,param_1,#0x45                   
ram:0001d662    07f8020d        strb.w      param_1,[r7,#-0x2]!=>local_3b           
                            LAB_0001d666:                 ;XREF[1,0]:   0001d618
ram:0001d666    12a8            add         param_1,sp,#0x48                        
ram:0001d668    c01b            subs        param_1,param_1,r7                      
ram:0001d66a    00f10708        add.w       r8,param_1,#0x7                         
ram:0001d66e    1498            ldr         param_1,[sp,#local_38+0x88]             
ram:0001d670    0078            ldrb        param_1,[param_1,#0x0]=>DAT_0001d724    ;= 2Dh
ram:0001d672    00b1            cbz         param_1,LAB_0001d676                    
ram:0001d674    0120            movs        param_1,#0x1                            
                            LAB_0001d676:                 ;XREF[1,0]:   0001d672
ram:0001d676    00eb0a01        add.w       param_2,param_1,r10                     
ram:0001d67a    0198            ldr         param_1,[sp,#local_84+0x88]             
ram:0001d67c    01ebe071        add.w       param_2,param_2,param_1, asr #0x1f      
ram:0001d680    0598            ldr         param_1,[sp,#local_74+0x88]             
ram:0001d682    4144            add         param_2,r8                              
ram:0001d684    401a            subs        param_1,param_1,param_2                 
ram:0001d686    401e            subs        param_1,param_1,#0x1                    
ram:0001d688    0590            str         param_1,[sp,#local_74+0x88]             
ram:0001d68a    e003            lsls        param_1,r4,#0xf                         
ram:0001d68c    06d4            bmi         LAB_0001d69c                            
ram:0001d68e    5b46            mov         param_4,r11                             
ram:0001d690    2146            mov         param_2,r4                              
ram:0001d692    179a            ldr         param_3,[sp,#local_2c+0x88]             
ram:0001d694    0598            ldr         param_1,[sp,#local_74+0x88]             
ram:0001d696    00f05df8        bl          FUN_0001d754                            ;int FUN_0001d754(int param_1, int pa...
ram:0001d69a    0544            add         r5,param_1                              
                            LAB_0001d69c:                 ;XREF[1,0]:   0001d68c
ram:0001d69c    1498            ldr         param_1,[sp,#local_38+0x88]             
ram:0001d69e    0078            ldrb        param_1,[param_1,#0x0]=>DAT_0001d724    ;= 2Dh
ram:0001d6a0    18b1            cbz         param_1,LAB_0001d6aa                    
ram:0001d6a2    5a46            mov         param_3,r11                             
ram:0001d6a4    1799            ldr         param_2,[sp,#local_2c+0x88]             
ram:0001d6a6    9047            blx         param_3                                 
ram:0001d6a8    6d1c            adds        r5,r5,#0x1                              
                            LAB_0001d6aa:                 ;XREF[1,0]:   0001d6a0
ram:0001d6aa    e003            lsls        param_1,r4,#0xf                         
ram:0001d6ac    24d5            bpl         LAB_0001d6f8                            
ram:0001d6ae    5b46            mov         param_4,r11                             
ram:0001d6b0    2146            mov         param_2,r4                              
ram:0001d6b2    179a            ldr         param_3,[sp,#local_2c+0x88]             
ram:0001d6b4    0598            ldr         param_1,[sp,#local_74+0x88]             
ram:0001d6b6    00f04df8        bl          FUN_0001d754                            ;int FUN_0001d754(int param_1, int pa...
ram:0001d6ba    0544            add         r5,param_1                              
ram:0001d6bc    1ce0            b           LAB_0001d6f8                            
                            LAB_0001d6be:                 ;XREF[1,0]:   0001d700
ram:0001d6be    0498            ldr         param_1,[sp,#local_78+0x88]             
ram:0001d6c0    0028            cmp         param_1,#0x0                            
ram:0001d6c2    07db            blt         LAB_0001d6d4                            
ram:0001d6c4    dde90301        ldrd        param_1,param_2,[sp,#local_7c+0x88]     
ram:0001d6c8    8842            cmp         param_1,param_2                         
ram:0001d6ca    03dd            ble         LAB_0001d6d4                            
ram:0001d6cc    0098            ldr         param_1,[sp,#0x0]=>local_88             
ram:0001d6ce    405c            ldrb        param_1,[param_1,param_2]               
ram:0001d6d0    1799            ldr         param_2,[sp,#local_2c+0x88]             
ram:0001d6d2    01e0            b           LAB_0001d6d8                            
                            LAB_0001d6d4:                 ;XREF[2,0]:   0001d6c2,0001d6ca
ram:0001d6d4    1799            ldr         param_2,[sp,#local_2c+0x88]             
ram:0001d6d6    3020            movs        param_1,#0x30                           
                            LAB_0001d6d8:                 ;XREF[1,0]:   0001d6d2
ram:0001d6d8    5a46            mov         param_3,r11                             
ram:0001d6da    9047            blx         param_3                                 
ram:0001d6dc    0498            ldr         param_1,[sp,#local_78+0x88]             
ram:0001d6de    05f10105        add.w       r5,r5,#0x1                              
ram:0001d6e2    401c            adds        param_1,param_1,#0x1                    
ram:0001d6e4    0490            str         param_1,[sp,#local_78+0x88]             
ram:0001d6e6    0198            ldr         param_1,[sp,#local_84+0x88]             
ram:0001d6e8    401e            subs        param_1,param_1,#0x1                    
ram:0001d6ea    0190            str         param_1,[sp,#local_84+0x88]             
ram:0001d6ec    04d1            bne         LAB_0001d6f8                            
ram:0001d6ee    2e20            movs        param_1,#0x2e                           
ram:0001d6f0    5a46            mov         param_3,r11                             
ram:0001d6f2    1799            ldr         param_2,[sp,#local_2c+0x88]             
ram:0001d6f4    9047            blx         param_3                                 
ram:0001d6f6    6d1c            adds        r5,r5,#0x1                              
                            LAB_0001d6f8:                 ;XREF[3,0]:   0001d6ac,0001d6bc,0001d6ec
ram:0001d6f8    baf10001        subs.w      param_2,r10,#0x0                        
ram:0001d6fc    aaf1010a        sub.w       r10,r10,#0x1                            
ram:0001d700    dddc            bgt         LAB_0001d6be                            
ram:0001d702    05e0            b           LAB_0001d710                            
                            LAB_0001d704:                 ;XREF[1,0]:   0001d718
ram:0001d704    17f8010b        ldrb.w      param_1,[r7],#0x1                       
ram:0001d708    5a46            mov         param_3,r11                             
ram:0001d70a    1799            ldr         param_2,[sp,#local_2c+0x88]             
ram:0001d70c    9047            blx         param_3                                 
ram:0001d70e    6d1c            adds        r5,r5,#0x1                              
                            LAB_0001d710:                 ;XREF[1,0]:   0001d702
ram:0001d710    b8f10001        subs.w      param_2,r8,#0x0                         
ram:0001d714    a8f10108        sub.w       r8,r8,#0x1                              
ram:0001d718    f4dc            bgt         LAB_0001d704                            
                            LAB_0001d71a:                 ;XREF[1,0]:   0001d44c
ram:0001d71a    5b46            mov         param_4,r11                             
ram:0001d71c    2146            mov         param_2,r4                              
ram:0001d71e    179a            ldr         param_3,[sp,#local_2c+0x88]             
ram:0001d720    0598            ldr         param_1,[sp,#local_74+0x88]             
ram:0001d722    abe6            b           LAB_0001d47c                            
                            DAT_0001d724:                 ;XREF[4,0]:   0001d4b2,0001d4dc,0001d670,0001d69e
ram:0001d724    2d              undefined1  2Dh                                     
ram:0001d725    00              ??          00h                                     
ram:0001d726    00              ??          00h                                     
ram:0001d727    00              ??          00h                                     
                            DAT_0001d728:                 ;XREF[2,0]:   0001d4be,0001d4dc
ram:0001d728    2b              ??          2Bh    +                                
ram:0001d729    00              ??          00h                                     
ram:0001d72a    00              ??          00h                                     
ram:0001d72b    00              ??          00h                                     
                            DAT_0001d72c:                 ;XREF[2,0]:   0001d4ca,0001d4dc
ram:0001d72c    20              ??          20h                                     
ram:0001d72d    00              ??          00h                                     
ram:0001d72e    00              ??          00h                                     
ram:0001d72f    00              ??          00h                                     
                            ;************************************************************************************************
                            ;*                                           FUNCTION                                           *
                            ;************************************************************************************************
                            ;int FUN_0001d730(int param_1, int param_2, undefined4 param_3, undefined * param_4)
          ;param_1       int                 r0                      
          ;param_2       int                 r1                      
          ;param_3       undefined4          r2                      
          ;param_4       undefined *         r3                      
                                                          ;XREF[1,0]:   0001d47c
ram:0001d730    2de9f041        push        {r4,r5,r6,r7,r8,lr}                     
ram:0001d734    0446            mov         r4,param_1                              
ram:0001d736    0025            movs        r5,#0x0                                 
ram:0001d738    1e46            mov         r6,param_4                              
ram:0001d73a    1746            mov         r7,param_3                              
ram:0001d73c    8804            lsls        param_1,param_2,#0x12                   
ram:0001d73e    04d4            bmi         LAB_0001d74a                            
ram:0001d740    05e0            b           LAB_0001d74e                            
                            LAB_0001d742:                 ;XREF[1,0]:   0001d74c
ram:0001d742    3946            mov         param_2,r7                              
ram:0001d744    2020            movs        param_1,#0x20                           
ram:0001d746    b047            blx         r6                                      
ram:0001d748    6d1c            adds        r5,r5,#0x1                              
                            LAB_0001d74a:                 ;XREF[1,0]:   0001d73e
ram:0001d74a    641e            subs        r4,r4,#0x1                              
ram:0001d74c    f9d5            bpl         LAB_0001d742                            
                            LAB_0001d74e:                 ;XREF[1,0]:   0001d740
ram:0001d74e    2846            mov         param_1,r5                              
ram:0001d750    bde8f081        pop.w       {r4,r5,r6,r7,r8,pc}                     
                            ;************************************************************************************************
                            ;*                                           FUNCTION                                           *
                            ;************************************************************************************************
                            ;int FUN_0001d754(int param_1, int param_2, undefined4 param_3, undefined * param_4)
          ;param_1       int                 r0                      
          ;param_2       int                 r1                      
          ;param_3       undefined4          r2                      
          ;param_4       undefined *         r3                      
                                                          ;XREF[5,0]:   0001d228,0001d3ea,0001d412,0001d696
                                                          ;             0001d6b6
ram:0001d754    2de9f041        push        {r4,r5,r6,r7,r8,lr}                     
ram:0001d758    0446            mov         r4,param_1                              
ram:0001d75a    0025            movs        r5,#0x0                                 
ram:0001d75c    1e46            mov         r6,param_4                              
ram:0001d75e    9046            mov         r8,param_3                              
ram:0001d760    c803            lsls        param_1,param_2,#0xf                    
ram:0001d762    01d5            bpl         LAB_0001d768                            
ram:0001d764    3027            movs        r7,#0x30                                
ram:0001d766    00e0            b           LAB_0001d76a                            
                            LAB_0001d768:                 ;XREF[1,0]:   0001d762
ram:0001d768    2027            movs        r7,#0x20                                
                            LAB_0001d76a:                 ;XREF[1,0]:   0001d766
ram:0001d76a    8804            lsls        param_1,param_2,#0x12                   
ram:0001d76c    04d5            bpl         LAB_0001d778                            
ram:0001d76e    05e0            b           LAB_0001d77c                            
                            LAB_0001d770:                 ;XREF[1,0]:   0001d77a
ram:0001d770    4146            mov         param_2,r8                              
ram:0001d772    3846            mov         param_1,r7                              
ram:0001d774    b047            blx         r6                                      
ram:0001d776    6d1c            adds        r5,r5,#0x1                              
                            LAB_0001d778:                 ;XREF[1,0]:   0001d76c
ram:0001d778    641e            subs        r4,r4,#0x1                              
ram:0001d77a    f9d5            bpl         LAB_0001d770                            
                            LAB_0001d77c:                 ;XREF[1,0]:   0001d76e
ram:0001d77c    2846            mov         param_1,r5                              
ram:0001d77e    bde8f081        pop.w       {r4,r5,r6,r7,r8,pc}                     
                            ;************************************************************************************************
                            ;*                                           FUNCTION                                           *
                            ;************************************************************************************************
                            ;char * FUN_0001d782(byte * param_1, undefined * param_2, ushort * param_3)
          ;param_1       byte *              r0                      
          ;param_2       undefined *         r1                      
          ;param_3       ushort *            r2                      
          ;local_30      undefined4         -30                      ;XREF[4,0]:   0001d86c,0001d8e8,0001d902,0001d91c
                                                          ;XREF[2,0]:   0001de24,0001de48
ram:0001d782    2de9fc5f        push        {param_3,r3,r4,r5,r6,r7,r8,r9,r10,r11...
ram:0001d786    0025            movs        r5,#0x0                                 
ram:0001d788    1688            ldrh        r6,[param_3,#0x0]                       
ram:0001d78a    0746            mov         r7,param_1                              
ram:0001d78c    1580            strh        r5,[param_3,#0x0]                       
ram:0001d78e    406b            ldr         param_1,[param_1,#0x34]                 
ram:0001d790    1446            mov         r4,param_3                              
ram:0001d792    8946            mov         r9,param_2                              
ram:0001d794    a846            mov         r8,r5                                   
ram:0001d796    4ff00c0a        mov.w       r10,#0xc                                
ram:0001d79a    1123            movs        r3,#0x11                                
ram:0001d79c    4ff0020b        mov.w       r11,#0x2                                
ram:0001d7a0    98b1            cbz         param_1,LAB_0001d7ca                    
ram:0001d7a2    0178            ldrb        param_2,[param_1,#0x0]                  
ram:0001d7a4    4846            mov         param_1,r9                              
ram:0001d7a6    032e            cmp         r6,#0x3                                 
ram:0001d7a8    48d3            bcc         LAB_0001d83c                            
ram:0001d7aa    80f800b0        strb.w      r11,[param_1,#0x0]                      
ram:0001d7ae    2288            ldrh        param_3,[r4,#0x0]                       
ram:0001d7b0    521c            adds        param_3,param_3,#0x1                    
ram:0001d7b2    92b2            uxth        param_3,param_3                         
ram:0001d7b4    2280            strh        param_3,[r4,#0x0]                       
ram:0001d7b6    8354            strb        r3,[param_1,param_3]                    
ram:0001d7b8    2288            ldrh        param_3,[r4,#0x0]                       
ram:0001d7ba    521c            adds        param_3,param_3,#0x1                    
ram:0001d7bc    92b2            uxth        param_3,param_3                         
ram:0001d7be    2280            strh        param_3,[r4,#0x0]                       
ram:0001d7c0    09f80210        strb.w      param_2,r9,param_3,0x0                  
ram:0001d7c4    2088            ldrh        param_1,[r4,#0x0]                       
ram:0001d7c6    401c            adds        param_1,param_1,#0x1                    
ram:0001d7c8    2080            strh        param_1,[r4,#0x0]                       
                            LAB_0001d7ca:                 ;XREF[1,0]:   0001d7a0
ram:0001d7ca    3a6b            ldr         param_3,[r7,#0x30]                      
ram:0001d7cc    dab1            cbz         param_3,LAB_0001d806                    
ram:0001d7ce    2088            ldrh        param_1,[r4,#0x0]                       
ram:0001d7d0    4946            mov         param_2,r9                              
ram:0001d7d2    00f11205        add.w       r5,param_1,#0x12                        
ram:0001d7d6    b542            cmp         r5,r6                                   
ram:0001d7d8    30d8            bhi         LAB_0001d83c                            
ram:0001d7da    0b54            strb        r3,[param_2,param_1]                    
ram:0001d7dc    2088            ldrh        param_1,[r4,#0x0]                       
ram:0001d7de    1023            movs        r3,#0x10                                
ram:0001d7e0    401c            adds        param_1,param_1,#0x1                    
ram:0001d7e2    80b2            uxth        param_1,param_1                         
ram:0001d7e4    2080            strh        param_1,[r4,#0x0]                       
ram:0001d7e6    0b54            strb        r3,[param_2,param_1]                    
ram:0001d7e8    2088            ldrh        param_1,[r4,#0x0]                       
ram:0001d7ea    401c            adds        param_1,param_1,#0x1                    
ram:0001d7ec    2080            strh        param_1,[r4,#0x0]                       
ram:0001d7ee    0f20            movs        param_1,#0xf                            
                            LAB_0001d7f0:                 ;XREF[1,0]:   0001d802
ram:0001d7f0    2388            ldrh        r3,[r4,#0x0]                            
ram:0001d7f2    155c            ldrb        r5,[param_3,param_1]                    
ram:0001d7f4    401e            subs        param_1,param_1,#0x1                    
ram:0001d7f6    cd54            strb        r5,[param_2,r3]                         
ram:0001d7f8    2388            ldrh        r3,[r4,#0x0]                            
ram:0001d7fa    40b2            sxtb        param_1,param_1                         
ram:0001d7fc    5b1c            adds        r3,r3,#0x1                              
ram:0001d7fe    2380            strh        r3,[r4,#0x0]                            
ram:0001d800    0028            cmp         param_1,#0x0                            
ram:0001d802    f5da            bge         LAB_0001d7f0                            
ram:0001d804    4546            mov         r5,r8                                   
                            LAB_0001d806:                 ;XREF[1,0]:   0001d7cc
ram:0001d806    97f82e00        ldrb.w      param_1,[r7,#0x2e]                      
ram:0001d80a    30b1            cbz         param_1,LAB_0001d81a                    
ram:0001d80c    3346            mov         r3,r6                                   
ram:0001d80e    2246            mov         param_3,r4                              
ram:0001d810    4946            mov         param_2,r9                              
ram:0001d812    01f011fb        bl          FUN_0001ee38                            ;undefined4 FUN_0001ee38(int param_1,...
ram:0001d816    0500            movs        r5,param_1                              
ram:0001d818    11d1            bne         LAB_0001d83e                            
                            LAB_0001d81a:                 ;XREF[1,0]:   0001d80a
ram:0001d81a    97f82d00        ldrb.w      param_1,[r7,#0x2d]                      
ram:0001d81e    30b1            cbz         param_1,LAB_0001d82e                    
ram:0001d820    3246            mov         param_3,r6                              
ram:0001d822    2146            mov         param_2,r4                              
ram:0001d824    4846            mov         param_1,r9                              
ram:0001d826    00f07dfd        bl          FUN_0001e324                            ;char * FUN_0001e324(int param_1, ush...
ram:0001d82a    0500            movs        r5,param_1                              
ram:0001d82c    07d1            bne         LAB_0001d83e                            
                            LAB_0001d82e:                 ;XREF[1,0]:   0001d81e
ram:0001d82e    b878            ldrb        param_1,[r7,#0x2]                       
ram:0001d830    20b3            cbz         param_1,LAB_0001d87c                    
ram:0001d832    2088            ldrh        param_1,[r4,#0x0]                       
ram:0001d834    c846            mov         r8,r9                                   
ram:0001d836    001d            adds        param_1,param_1,#0x4                    
ram:0001d838    b042            cmp         param_1,r6                              
ram:0001d83a    02d9            bls         LAB_0001d842                            
                            LAB_0001d83c:                 ;XREF[4,0]:   0001d7a8,0001d7d8,0001d88c,0001d8c0
ram:0001d83c    5046            mov         param_1,r10                             
                            LAB_0001d83e:                 ;XREF[7,0]:   0001d818,0001d82c,0001d848,0001d8fc
                                                          ;             0001d916,0001d930,0001d982
ram:0001d83e    bde8fc9f        pop.w       {param_3,r3,r4,r5,r6,r7,r8,r9,r10,r11...
                            LAB_0001d842:                 ;XREF[1,0]:   0001d83a
ram:0001d842    6846            mov         param_1,sp                              
ram:0001d844    79df            svc         0x79                                    
ram:0001d846    0028            cmp         param_1,#0x0                            
ram:0001d848    f9d1            bne         LAB_0001d83e                            
ram:0001d84a    2188            ldrh        param_2,[r4,#0x0]                       
ram:0001d84c    0320            movs        param_1,#0x3                            
ram:0001d84e    08f80100        strb.w      param_1,r8,param_2,0x0                  
ram:0001d852    2088            ldrh        param_1,[r4,#0x0]                       
ram:0001d854    1921            movs        param_2,#0x19                           
ram:0001d856    401c            adds        param_1,param_1,#0x1                    
ram:0001d858    80b2            uxth        param_1,param_1                         
ram:0001d85a    2080            strh        param_1,[r4,#0x0]                       
ram:0001d85c    08f80010        strb.w      param_2,r8,param_1,0x0                  
ram:0001d860    2088            ldrh        param_1,[r4,#0x0]                       
ram:0001d862    401c            adds        param_1,param_1,#0x1                    
ram:0001d864    80b2            uxth        param_1,param_1                         
ram:0001d866    2080            strh        param_1,[r4,#0x0]                       
ram:0001d868    00eb0801        add.w       param_2,param_1,r8                      
ram:0001d86c    bdf80000        ldrh.w      param_1,[sp,#0x0]=>local_30             
ram:0001d870    02f030fd        bl          FUN_000202d4                            ;undefined4 FUN_000202d4(undefined4 p...
ram:0001d874    0146            mov         param_2,param_1                         
ram:0001d876    2088            ldrh        param_1,[r4,#0x0]                       
ram:0001d878    0844            add         param_1,param_2                         
ram:0001d87a    2080            strh        param_1,[r4,#0x0]                       
                            LAB_0001d87c:                 ;XREF[1,0]:   0001d830
ram:0001d87c    f878            ldrb        param_1,[r7,#0x3]                       
ram:0001d87e    b8b1            cbz         param_1,LAB_0001d8b0                    
ram:0001d880    2288            ldrh        param_3,[r4,#0x0]                       
ram:0001d882    97f90310        ldrsb.w     param_2,[r7,#0x3]                       
ram:0001d886    d31c            adds        r3,param_3,#0x3                         
ram:0001d888    4846            mov         param_1,r9                              
ram:0001d88a    b342            cmp         r3,r6                                   
ram:0001d88c    d6d8            bhi         LAB_0001d83c                            
ram:0001d88e    00f802b0        strb.w      r11,param_1,param_3,0x0                 
ram:0001d892    2288            ldrh        param_3,[r4,#0x0]                       
ram:0001d894    0123            movs        r3,#0x1                                 
ram:0001d896    521c            adds        param_3,param_3,#0x1                    
ram:0001d898    92b2            uxth        param_3,param_3                         
ram:0001d89a    2280            strh        param_3,[r4,#0x0]                       
ram:0001d89c    8354            strb        r3,[param_1,param_3]                    
ram:0001d89e    2288            ldrh        param_3,[r4,#0x0]                       
ram:0001d8a0    521c            adds        param_3,param_3,#0x1                    
ram:0001d8a2    92b2            uxth        param_3,param_3                         
ram:0001d8a4    2280            strh        param_3,[r4,#0x0]                       
ram:0001d8a6    09f80210        strb.w      param_2,r9,param_3,0x0                  
ram:0001d8aa    2088            ldrh        param_1,[r4,#0x0]                       
ram:0001d8ac    401c            adds        param_1,param_1,#0x1                    
ram:0001d8ae    2080            strh        param_1,[r4,#0x0]                       
                            LAB_0001d8b0:                 ;XREF[1,0]:   0001d87e
ram:0001d8b0    7868            ldr         param_1,[r7,#0x4]                       
ram:0001d8b2    b8b1            cbz         param_1,LAB_0001d8e4                    
ram:0001d8b4    2188            ldrh        param_2,[r4,#0x0]                       
ram:0001d8b6    90f90020        ldrsb.w     param_3,[param_1,#0x0]                  
ram:0001d8ba    cb1c            adds        r3,param_2,#0x3                         
ram:0001d8bc    4846            mov         param_1,r9                              
ram:0001d8be    b342            cmp         r3,r6                                   
ram:0001d8c0    bcd8            bhi         LAB_0001d83c                            
ram:0001d8c2    00f801b0        strb.w      r11,param_1,param_2,0x0                 
ram:0001d8c6    2188            ldrh        param_2,[r4,#0x0]                       
ram:0001d8c8    0a23            movs        r3,#0xa                                 
ram:0001d8ca    491c            adds        param_2,param_2,#0x1                    
ram:0001d8cc    89b2            uxth        param_2,param_2                         
ram:0001d8ce    2180            strh        param_2,[r4,#0x0]                       
ram:0001d8d0    4354            strb        r3,[param_1,param_2]                    
ram:0001d8d2    2188            ldrh        param_2,[r4,#0x0]                       
ram:0001d8d4    491c            adds        param_2,param_2,#0x1                    
ram:0001d8d6    89b2            uxth        param_2,param_2                         
ram:0001d8d8    2180            strh        param_2,[r4,#0x0]                       
ram:0001d8da    09f80120        strb.w      param_3,r9,param_2,0x0                  
ram:0001d8de    2088            ldrh        param_1,[r4,#0x0]                       
ram:0001d8e0    401c            adds        param_1,param_1,#0x1                    
ram:0001d8e2    2080            strh        param_1,[r4,#0x0]                       
                            LAB_0001d8e4:                 ;XREF[1,0]:   0001d8b2
ram:0001d8e4    3889            ldrh        param_1,[r7,#0x8]                       
ram:0001d8e6    50b1            cbz         param_1,LAB_0001d8fe                    
ram:0001d8e8    cde90046        strd        r4,r6,[sp,#0x0]=>local_30               
ram:0001d8ec    4b46            mov         r3,r9                                   
ram:0001d8ee    0622            movs        param_3,#0x6                            
ram:0001d8f0    0221            movs        param_2,#0x2                            
ram:0001d8f2    07f10800        add.w       param_1,r7,#0x8                         
ram:0001d8f6    02f056fd        bl          FUN_000203a6                            ;undefined8 FUN_000203a6(ushort * par...
ram:0001d8fa    0500            movs        r5,param_1                              
                            LAB_0001d8fc:                 ;XREF[4,0]:   0001d942,0001d954,0001d96a,0001d97e
ram:0001d8fc    9fd1            bne         LAB_0001d83e                            
                            LAB_0001d8fe:                 ;XREF[1,0]:   0001d8e6
ram:0001d8fe    388a            ldrh        param_1,[r7,#0x10]                      
ram:0001d900    50b1            cbz         param_1,LAB_0001d918                    
ram:0001d902    cde90046        strd        r4,r6,[sp,#0x0]=>local_30               
ram:0001d906    4b46            mov         r3,r9                                   
ram:0001d908    0722            movs        param_3,#0x7                            
ram:0001d90a    0321            movs        param_2,#0x3                            
ram:0001d90c    07f11000        add.w       param_1,r7,#0x10                        
ram:0001d910    02f049fd        bl          FUN_000203a6                            ;undefined8 FUN_000203a6(ushort * par...
ram:0001d914    0500            movs        r5,param_1                              
ram:0001d916    92d1            bne         LAB_0001d83e                            
                            LAB_0001d918:                 ;XREF[1,0]:   0001d900
ram:0001d918    388b            ldrh        param_1,[r7,#0x18]                      
ram:0001d91a    50b1            cbz         param_1,LAB_0001d932                    
ram:0001d91c    cde90046        strd        r4,r6,[sp,#0x0]=>local_30               
ram:0001d920    4b46            mov         r3,r9                                   
ram:0001d922    1522            movs        param_3,#0x15                           
ram:0001d924    1421            movs        param_2,#0x14                           
ram:0001d926    07f11800        add.w       param_1,r7,#0x18                        
ram:0001d92a    02f03cfd        bl          FUN_000203a6                            ;undefined8 FUN_000203a6(ushort * par...
ram:0001d92e    0500            movs        r5,param_1                              
ram:0001d930    85d1            bne         LAB_0001d83e                            
                            LAB_0001d932:                 ;XREF[1,0]:   0001d91a
ram:0001d932    386a            ldr         param_1,[r7,#0x20]                      
ram:0001d934    30b1            cbz         param_1,LAB_0001d944                    
ram:0001d936    3346            mov         r3,r6                                   
ram:0001d938    2246            mov         param_3,r4                              
ram:0001d93a    4946            mov         param_2,r9                              
ram:0001d93c    01f022f9        bl          FUN_0001eb84                            ;undefined4 FUN_0001eb84(ushort * par...
ram:0001d940    0500            movs        r5,param_1                              
ram:0001d942    dbd1            bne         LAB_0001d8fc                            
                            LAB_0001d944:                 ;XREF[1,0]:   0001d934
ram:0001d944    786a            ldr         param_1,[r7,#0x24]                      
ram:0001d946    30b1            cbz         param_1,LAB_0001d956                    
ram:0001d948    3346            mov         r3,r6                                   
ram:0001d94a    2246            mov         param_3,r4                              
ram:0001d94c    4946            mov         param_2,r9                              
ram:0001d94e    01f043fc        bl          FUN_0001f1d8                            ;undefined4 FUN_0001f1d8(ushort * par...
ram:0001d952    0500            movs        r5,param_1                              
ram:0001d954    d2d1            bne         LAB_0001d8fc                            
                            LAB_0001d956:                 ;XREF[1,0]:   0001d946
ram:0001d956    97f82c00        ldrb.w      param_1,[r7,#0x2c]                      
ram:0001d95a    38b1            cbz         param_1,LAB_0001d96c                    
ram:0001d95c    3346            mov         r3,r6                                   
ram:0001d95e    2246            mov         param_3,r4                              
ram:0001d960    4946            mov         param_2,r9                              
ram:0001d962    3846            mov         param_1,r7                              
ram:0001d964    02f08ef9        bl          FUN_0001fc84                            ;undefined4 FUN_0001fc84(int param_1,...
ram:0001d968    0500            movs        r5,param_1                              
ram:0001d96a    c7d1            bne         LAB_0001d8fc                            
                            LAB_0001d96c:                 ;XREF[1,0]:   0001d95a
ram:0001d96c    3878            ldrb        param_1,[r7,#0x0]                       
ram:0001d96e    38b1            cbz         param_1,LAB_0001d980                    
ram:0001d970    3346            mov         r3,r6                                   
ram:0001d972    2246            mov         param_3,r4                              
ram:0001d974    4946            mov         param_2,r9                              
ram:0001d976    3846            mov         param_1,r7                              
ram:0001d978    01f060fc        bl          FUN_0001f23c                            ;longlong FUN_0001f23c(byte * param_1...
ram:0001d97c    0500            movs        r5,param_1                              
ram:0001d97e    bdd1            bne         LAB_0001d8fc                            
                            LAB_0001d980:                 ;XREF[1,0]:   0001d96e
ram:0001d980    2846            mov         param_1,r5                              
ram:0001d982    5ce7            b           LAB_0001d83e                            
                            ;************************************************************************************************
                            ;*                                           FUNCTION                                           *
                            ;************************************************************************************************
                            ;int FUN_0001d984(void)
                                                          ;XREF[2,0]:   0001e55a,0001e57e
ram:0001d984    10b5            push        {r4,lr}                                 
ram:0001d986    0122            movs        r2,#0x1                                 
ram:0001d988    0221            movs        r1,#0x2                                 
ram:0001d98a    0020            movs        r0,#0x0                                 
ram:0001d98c    00f0b6fe        bl          FUN_0001e6fc                            ;undefined4 FUN_0001e6fc(uint param_1...
ram:0001d990    08b1            cbz         r0,LAB_0001d996                         
ram:0001d992    0728            cmp         r0,#0x7                                 
ram:0001d994    10d1            bne         LAB_0001d9b8                            
                            LAB_0001d996:                 ;XREF[1,0]:   0001d990
ram:0001d996    0722            movs        r2,#0x7                                 
ram:0001d998    0221            movs        r1,#0x2                                 
ram:0001d99a    0120            movs        r0,#0x1                                 
ram:0001d99c    00f0aefe        bl          FUN_0001e6fc                            ;undefined4 FUN_0001e6fc(uint param_1...
ram:0001d9a0    08b1            cbz         r0,LAB_0001d9a6                         
ram:0001d9a2    0728            cmp         r0,#0x7                                 
ram:0001d9a4    08d1            bne         LAB_0001d9b8                            
                            LAB_0001d9a6:                 ;XREF[1,0]:   0001d9a0
ram:0001d9a6    0021            movs        r1,#0x0                                 
ram:0001d9a8    0a22            movs        r2,#0xa                                 
ram:0001d9aa    0846            mov         r0,r1                                   
ram:0001d9ac    00f0a6fe        bl          FUN_0001e6fc                            ;undefined4 FUN_0001e6fc(uint param_1...
ram:0001d9b0    08b1            cbz         r0,LAB_0001d9b6                         
ram:0001d9b2    0728            cmp         r0,#0x7                                 
ram:0001d9b4    00d1            bne         LAB_0001d9b8                            
                            LAB_0001d9b6:                 ;XREF[1,0]:   0001d9b0
ram:0001d9b6    0020            movs        r0,#0x0                                 
                            LAB_0001d9b8:                 ;XREF[3,0]:   0001d994,0001d9a4,0001d9b4
ram:0001d9b8    10bd            pop         {r4,pc}                                 
ram:0001d9ba    0000            movs        r0,r0                                   
                            ;************************************************************************************************
                            ;*                                           FUNCTION                                           *
                            ;************************************************************************************************
                            ;undefined LAB_0001d9bc+1(void)
                                                          ;XREF[0,2]:   0001e7da,0001e7f8
ram:0001d9bc    0648            ldr         r0,[DAT_0001d9d8]                       ;= 50000504h
ram:0001d9be    0068            ldr         r0,[r0,#0x0]=>DAT_50000504              
ram:0001d9c0    4ff40021        mov.w       r1,#0x80000                             
ram:0001d9c4    044a            ldr         r2,[DAT_0001d9d8]                       ;= 50000504h
ram:0001d9c6    8143            bics        r1,r0                                   
ram:0001d9c8    121d            adds        r2,r2,#0x4                              
ram:0001d9ca    1160            str         r1,[r2,#0x0]=>DAT_50000508              
ram:0001d9cc    111d            adds        r1,r2,#0x4                              
ram:0001d9ce    00f40020        and         r0,r0,#0x80000                          
ram:0001d9d2    0860            str         r0,[r1,#0x0]=>DAT_5000050c              
ram:0001d9d4    7047            bx          lr                                      
ram:0001d9d6    0000            movs        r0,r0                                   
                            DAT_0001d9d8:                 ;XREF[2,0]:   0001d9bc,0001d9c4
ram:0001d9d8    04050050        undefined4  50000504h                               
                            ;************************************************************************************************
                            ;*                                           FUNCTION                                           *
                            ;************************************************************************************************
                            ;undefined4 FUN_0001d9dc(void)
                                                          ;XREF[1,0]:   0001e792
ram:0001d9dc    70b5            push        {r4,r5,r6,lr}                           
ram:0001d9de    0024            movs        r4,#0x0                                 
ram:0001d9e0    064d            ldr         r5,[DAT_0001d9fc]                       ;= 20002108h
ram:0001d9e2    06e0            b           LAB_0001d9f2                            
                            LAB_0001d9e4:                 ;XREF[1,0]:   0001d9f6
ram:0001d9e4    6868            ldr         r0,[r5,#0x4]=>DAT_2000210c              
ram:0001d9e6    0121            movs        r1,#0x1                                 
ram:0001d9e8    10f83400        ldrb.w      r0,r0,r4,0x3                            
ram:0001d9ec    01f090fc        bl          FUN_0001f310                            ;undefined FUN_0001f310(uint param_1,...
ram:0001d9f0    641c            adds        r4,r4,#0x1                              
                            LAB_0001d9f2:                 ;XREF[1,0]:   0001d9e2
ram:0001d9f2    2878            ldrb        r0,[r5,#0x0]=>DAT_20002108              
ram:0001d9f4    8442            cmp         r4,r0                                   
ram:0001d9f6    f5d3            bcc         LAB_0001d9e4                            
ram:0001d9f8    0020            movs        r0,#0x0                                 
ram:0001d9fa    70bd            pop         {r4,r5,r6,pc}                           
                            DAT_0001d9fc:                 ;XREF[1,0]:   0001d9e0
ram:0001d9fc    08210020        undefined4  20002108h                               
                            ;************************************************************************************************
                            ;*                                           FUNCTION                                           *
                            ;************************************************************************************************
                            ;int FUN_0001da00(int param_1, uint param_2, uint param_3, uint param_4)
          ;param_1       int                 r0                      
          ;param_2       uint                r1                      
          ;param_3       uint                r2                      
          ;param_4       uint                r3                      
          ;local_18      undefined4         -18                      ;XREF[1,1]:   0001da36,0001da3a
                                                          ;XREF[1,0]:   0001e78c
ram:0001da00    f8b5            push        {param_4,r4,r5,r6,r7,lr}                
ram:0001da02    1546            mov         r5,param_3                              
ram:0001da04    0c46            mov         r4,param_2                              
ram:0001da06    0646            mov         r6,param_1                              
ram:0001da08    052a            cmp         param_3,#0x5                            
ram:0001da0a    01d2            bcs         LAB_0001da10                            
ram:0001da0c    0720            movs        param_1,#0x7                            
                            LAB_0001da0e:                 ;XREF[2,0]:   0001da1c,0001da4a
ram:0001da0e    f8bd            pop         {param_4,r4,r5,r6,r7,pc}                
                            LAB_0001da10:                 ;XREF[1,0]:   0001da0a
ram:0001da10    01f060fd        bl          FUN_0001f4d4                            ;char FUN_0001f4d4(void)
ram:0001da14    18b9            cbnz        param_1,LAB_0001da1e                    
ram:0001da16    01f033fd        bl          FUN_0001f480                            ;undefined4 FUN_0001f480(void)
ram:0001da1a    0028            cmp         param_1,#0x0                            
ram:0001da1c    f7d1            bne         LAB_0001da0e                            
                            LAB_0001da1e:                 ;XREF[1,0]:   0001da14
ram:0001da1e    1049            ldr         param_2,[DAT_0001da60]                  ;= 20002108h
ram:0001da20    0020            movs        param_1,#0x0                            
ram:0001da22    4e60            str         r6,[param_2,#0x4]=>DAT_2000210c         
ram:0001da24    0c70            strb        r4,[param_2,#0x0]=>DAT_20002108         
                                                          ; FWD[2,0]:   20002110,20002114
ram:0001da26    c1e90250        strd        r5,param_1,[param_2,#0x8]=>DAT_20002110 
ram:0001da2a    0e4d            ldr         r5,[PTR_DAT_0001da64]                   ;= 00020524
ram:0001da2c    0861            str         param_1,[param_2,#0x10]=>DAT_20002118   
ram:0001da2e    0de0            b           LAB_0001da4c                            
                            LAB_0001da30:                 ;XREF[1,0]:   0001da50
ram:0001da30    06ebc400        add.w       param_1,r6,r4, lsl #0x3                 
ram:0001da34    6968            ldr         param_2,[r5,#0x4]=>DAT_00020528         ;= 00000003h
ram:0001da36    0091            str         param_2,[sp,#0x0]=>local_18             
ram:0001da38    8178            ldrb        param_2,[param_1,#0x2]                  
ram:0001da3a    8df80110        strb.w      param_2,[sp,#local_18+0x19]             
ram:0001da3e    0078            ldrb        param_1,[param_1,#0x0]                  
ram:0001da40    094a            ldr         param_3,[DAT_0001da68]                  ;= 0001ED55h
ram:0001da42    6946            mov         param_2,sp                              
ram:0001da44    01f0b6fc        bl          FUN_0001f3b4                            ;undefined4 FUN_0001f3b4(uint param_1...
ram:0001da48    0028            cmp         param_1,#0x0                            
ram:0001da4a    e0d1            bne         LAB_0001da0e                            
                            LAB_0001da4c:                 ;XREF[1,0]:   0001da2e
ram:0001da4c    641e            subs        r4,r4,#0x1                              
ram:0001da4e    e4b2            uxtb        r4,r4                                   
ram:0001da50    eed2            bcs         LAB_0001da30                            
ram:0001da52    bde8f840        pop.w       {param_4,r4,r5,r6,r7,lr}                
ram:0001da56    054a            ldr         param_3,[DAT_0001da6c]                  ;= 0001EC6Dh
ram:0001da58    0021            movs        param_2,#0x0                            
ram:0001da5a    0248            ldr         param_1=>DAT_00020524,[PTR_DAT_0001da64];= 200028B4h
                                                                                    ;= 00020524
ram:0001da5c    00f04eb8        b.w         FUN_0001dafc                            ;undefined4 FUN_0001dafc(int * param_...
                            DAT_0001da60:                 ;XREF[1,0]:   0001da1e
ram:0001da60    08210020        undefined4  20002108h                               
                            PTR_DAT_0001da64:             ;XREF[2,0]:   0001da2a,0001da5a
ram:0001da64    24050200        addr        DAT_00020524                            ;= 200028B4h
                            DAT_0001da68:                 ;XREF[1,0]:   0001da40
ram:0001da68    55ed0100        undefined4  0001ED55h                               ;?  ->  0001ed55
                            DAT_0001da6c:                 ;XREF[1,0]:   0001da56
ram:0001da6c    6dec0100        undefined4  0001EC6Dh                               ;?  ->  0001ec6d
                            ;************************************************************************************************
                            ;*                                           FUNCTION                                           *
                            ;************************************************************************************************
                            ;undefined FUN_0001da70(void)
                                                          ;XREF[2,0]:   0001daa4,0001fd82
ram:0001da70    bff34f8f        dsb         0xf                                     
ram:0001da74    0548            ldr         r0,[DAT_0001da8c]                       ;= E000ED0Ch
ram:0001da76    0168            ldr         r1,[r0,#0x0]=>DAT_e000ed0c              
ram:0001da78    054a            ldr         r2,[DAT_0001da90]                       ;= 05FA0004h
ram:0001da7a    01f4e061        and         r1,r1,#0x700                            
ram:0001da7e    1143            orrs        r1,r2                                   
ram:0001da80    0160            str         r1,[r0,#0x0]=>DAT_e000ed0c              
ram:0001da82    bff34f8f        dsb         0xf                                     
                            LAB_0001da86:                 ;XREF[1,0]:   0001da88
ram:0001da86    00bf            nop                                                  
ram:0001da88    fde7            b           LAB_0001da86                            
ram:0001da8a    0000            movs        r0,r0                                   
                            DAT_0001da8c:                 ;XREF[1,0]:   0001da74
ram:0001da8c    0ced00e0        undefined4  E000ED0Ch                               
                            DAT_0001da90:                 ;XREF[1,0]:   0001da78
ram:0001da90    0400fa05        undefined4  05FA0004h                               
                            ;************************************************************************************************
                            ;*                                           FUNCTION                                           *
                            ;************************************************************************************************
                            ;undefined FUN_0001da94(void)
          ;local_c       undefined4          -c                      ;XREF[1,0]:   0001da9a
          ;local_10      undefined4         -10                      ;XREF[1,0]:   0001da98
                                                          ;XREF[32,0]:  0001cc1e,0001e4cc,0001e4dc,0001e4e8
                                                          ;             0001e4f4,0001e502,0001e6e8,0001ec0c
                                                          ;             0001edd8,0001edfc,0001f038,0001f064
                                                          ;             0001f076,0001f084,0001f0aa,0001f0d2
                                                          ;             0001f0e4,0001f136,0001f16e,0001f186
                                                          ;             0001f954,0001f976,0001f9b0,0001f9bc
                                                          ;             0001f9cc,0001f9fa,0001fd16,0001fd20
                                                          ;             0001fd2e,0001fec2,00020004,0002003a
ram:0001da94    0eb5            push        {r1,r2,r3,lr}                           
ram:0001da96    0021            movs        r1,#0x0                                 
ram:0001da98    0091            str         r1,[sp,#0x0]=>local_10                  
ram:0001da9a    cde90110        strd        r1,r0,[sp,#local_c+0x10]                
ram:0001da9e    6a46            mov         r2,sp                                   
ram:0001daa0    44f20100        movw        r0,#0x4001                              
ram:0001daa4    fff7e4ff        bl          FUN_0001da70                            ;undefined FUN_0001da70(void)
ram:0001daa8    0ebd            pop         {r1,r2,r3,pc}                           
                            ;************************************************************************************************
                            ;*                                           FUNCTION                                           *
                            ;************************************************************************************************
                            ;undefined4 FUN_0001daaa(int * param_1, undefined * param_2)
          ;param_1       int *               r0                      
          ;param_2       undefined *         r1                      
                                                          ;XREF[2,0]:   0001dca8,0001dd70
ram:0001daaa    10b5            push        {r4,lr}                                 
ram:0001daac    8268            ldr         r2,[param_1,#0x8]                       
ram:0001daae    c368            ldr         r3,[param_1,#0xc]                       
ram:0001dab0    9342            cmp         r3,r2                                   
ram:0001dab2    03d0            beq         LAB_0001dabc                            
ram:0001dab4    01f02af9        bl          FUN_0001ed0c                            ;undefined FUN_0001ed0c(int * param_1...
ram:0001dab8    0020            movs        param_1,#0x0                            
ram:0001daba    10bd            pop         {r4,pc}                                 
                            LAB_0001dabc:                 ;XREF[1,0]:   0001dab2
ram:0001dabc    0520            movs        param_1,#0x5                            
ram:0001dabe    10bd            pop         {r4,pc}                                 
                            ;************************************************************************************************
                            ;*                                           FUNCTION                                           *
                            ;************************************************************************************************
                            ;undefined4 FUN_0001dac0(int * param_1, int param_2, uint param_3)
          ;param_1       int *               r0                      
          ;param_2       int                 r1                      
          ;param_3       uint                r2                      
                                                          ;XREF[2,0]:   0001dccc,0001dcde
ram:0001dac0    29b1            cbz         param_2,LAB_0001dace                    
ram:0001dac2    12b1            cbz         param_3,LAB_0001daca                    
ram:0001dac4    531e            subs        r3,param_3,#0x1                         
ram:0001dac6    1342            tst         r3,param_3                              
ram:0001dac8    03d0            beq         LAB_0001dad2                            
                            LAB_0001daca:                 ;XREF[1,0]:   0001dac2
ram:0001daca    0920            movs        param_1,#0x9                            
ram:0001dacc    7047            bx          lr                                      
                            LAB_0001dace:                 ;XREF[1,0]:   0001dac0
ram:0001dace    0e20            movs        param_1,#0xe                            
ram:0001dad0    7047            bx          lr                                      
                            LAB_0001dad2:                 ;XREF[1,0]:   0001dac8
ram:0001dad2    0160            str         param_2,[param_1,#0x0]                  
ram:0001dad4    8380            strh        r3,[param_1,#0x4]                       
ram:0001dad6    0021            movs        param_2,#0x0                            
ram:0001dad8    8160            str         param_2,[param_1,#0x8]                  
ram:0001dada    c160            str         param_2,[param_1,#0xc]                  
ram:0001dadc    0846            mov         param_1,param_2                         
ram:0001dade    7047            bx          lr                                      
                            ;************************************************************************************************
                            ;*                                           FUNCTION                                           *
                            ;************************************************************************************************
                            ;undefined4 FUN_0001dae0(int * param_1, undefined param_2)
          ;param_1       int *               r0                      
          ;param_2       undefined           r1                      
                                                          ;XREF[1,0]:   0001dd5e
ram:0001dae0    10b5            push        {r4,lr}                                 
ram:0001dae2    8268            ldr         r2,[param_1,#0x8]                       
ram:0001dae4    c368            ldr         r3,[param_1,#0xc]                       
ram:0001dae6    9a1a            subs        r2,r3,r2                                
ram:0001dae8    8388            ldrh        r3,[param_1,#0x4]                       
ram:0001daea    9a42            cmp         r2,r3                                   
ram:0001daec    03d8            bhi         LAB_0001daf6                            
ram:0001daee    01f017f9        bl          FUN_0001ed20                            ;undefined FUN_0001ed20(int * param_1...
ram:0001daf2    0020            movs        param_1,#0x0                            
ram:0001daf4    10bd            pop         {r4,pc}                                 
                            LAB_0001daf6:                 ;XREF[1,0]:   0001daec
ram:0001daf6    0420            movs        param_1,#0x4                            
ram:0001daf8    10bd            pop         {r4,pc}                                 
ram:0001dafa    0000            movs        r0,r0                                   
                            ;************************************************************************************************
                            ;*                                           FUNCTION                                           *
                            ;************************************************************************************************
                            ;undefined4 FUN_0001dafc(int * param_1, undefined param_2, int param_3)
          ;param_1       int *               r0                      
          ;param_2       undefined           r1                      
          ;param_3       int                 r2                      
                                                          ;XREF[5,0]:   0001da5c,0001e28a,0001e7a0,0001e7ca
                                                          ;             0001e7de
ram:0001dafc    074b            ldr         r3,[DAT_0001db1c]                       ;= 2000211Ch
ram:0001dafe    9b68            ldr         r3,[r3,#0x8]=>DAT_20002124              
ram:0001db00    23b1            cbz         r3,LAB_0001db0c                         
ram:0001db02    2ab1            cbz         param_3,LAB_0001db10                    
ram:0001db04    20b1            cbz         param_1,LAB_0001db10                    
ram:0001db06    0068            ldr         param_1,[param_1,#0x0]                  
ram:0001db08    037c            ldrb        r3,[param_1,#0x10]                      
ram:0001db0a    1bb1            cbz         r3,LAB_0001db14                         
                            LAB_0001db0c:                 ;XREF[1,0]:   0001db00
ram:0001db0c    0820            movs        param_1,#0x8                            
ram:0001db0e    7047            bx          lr                                      
                            LAB_0001db10:                 ;XREF[2,0]:   0001db02,0001db04
ram:0001db10    0720            movs        param_1,#0x7                            
ram:0001db12    7047            bx          lr                                      
                            LAB_0001db14:                 ;XREF[1,0]:   0001db0a
ram:0001db14    4174            strb        param_2,[param_1,#0x11]                 
ram:0001db16    4261            str         param_3,[param_1,#0x14]                 
ram:0001db18    0020            movs        param_1,#0x0                            
ram:0001db1a    7047            bx          lr                                      
                            DAT_0001db1c:                 ;XREF[1,0]:   0001dafc
ram:0001db1c    1c210020        undefined4  2000211Ch                               
                            ;************************************************************************************************
                            ;*                                           FUNCTION                                           *
                            ;************************************************************************************************
                            ;undefined4 FUN_0001db20(undefined4 param_1, int param_2, uint param_3, undefined4 param_4)
          ;param_1       undefined4          r0                      
          ;param_2       int                 r1                      
          ;param_3       uint                r2                      
          ;param_4       undefined4          r3                      
                                                          ;XREF[1,0]:   0001f032
ram:0001db20    2de9f047        push        {r4,r5,r6,r7,r8,r9,r10,lr}              
ram:0001db24    8046            mov         r8,param_1                              
ram:0001db26    9946            mov         r9,param_4                              
ram:0001db28    1446            mov         r4,param_3                              
ram:0001db2a    0f46            mov         r7,param_2                              
ram:0001db2c    9007            lsls        param_1,param_3,#0x1e                   
ram:0001db2e    4ff00006        mov.w       r6,#0x0                                 
ram:0001db32    34d1            bne         LAB_0001db9e                            
ram:0001db34    1c4d            ldr         r5,[DAT_0001dba8]                       ;= 2000211Ch
ram:0001db36    8cb3            cbz         r4,LAB_0001db9c                         
ram:0001db38    01f098ff        bl          FUN_0001fa6c                            ;undefined FUN_0001fa6c(void)
ram:0001db3c    0320            movs        param_1,#0x3                            
ram:0001db3e    c5f81490        str.w       r9,[r5,#0x14]=>DAT_20002130             
ram:0001db42    2870            strb        param_1,[r5,#0x0]=>DAT_2000211c         
ram:0001db44    04f11800        add.w       param_1,r4,#0x18                        
ram:0001db48    0021            movs        param_2,#0x0                            
ram:0001db4a    07eb4703        add.w       param_4,r7,r7, lsl #0x1                 
ram:0001db4e    ac60            str         r4,[r5,#0x8]=>DAT_20002124              
                            LAB_0001db50:                 ;XREF[1,0]:   0001db64
ram:0001db50    04ebc102        add.w       param_3,r4,param_2, lsl #0x3            
ram:0001db54    491c            adds        param_2,param_2,#0x1                    
ram:0001db56    1670            strb        r6,[param_3,#0x0]                       
ram:0001db58    5670            strb        r6,[param_3,#0x1]                       
ram:0001db5a    9770            strb        r7,[param_3,#0x2]                       
ram:0001db5c    5060            str         param_1,[param_3,#0x4]                  
ram:0001db5e    00ebc300        add.w       param_1,param_1,param_4, lsl #0x3       
ram:0001db62    0329            cmp         param_2,#0x3                            
ram:0001db64    f4db            blt         LAB_0001db50                            
ram:0001db66    ee60            str         r6,[r5,#0xc]=>DAT_20002128              
ram:0001db68    6e70            strb        r6,[r5,#0x1]=>DAT_2000211d              
ram:0001db6a    ae70            strb        r6,[r5,#0x2]=>DAT_2000211e              
ram:0001db6c    1420            movs        param_1,#0x14                           
ram:0001db6e    fff707f8        bl          FUN_0001cb80                            ;undefined FUN_0001cb80(uint param_1)
ram:0001db72    0621            movs        param_2,#0x6                            
ram:0001db74    1420            movs        param_1,#0x14                           
ram:0001db76    fff724f8        bl          FUN_0001cbc2                            ;undefined FUN_0001cbc2(uint param_1,...
ram:0001db7a    1420            movs        param_1,#0x14                           
ram:0001db7c    fff70bf8        bl          FUN_0001cb96                            ;undefined FUN_0001cb96(uint param_1)
ram:0001db80    0a49            ldr         param_2,[DAT_0001dbac]                  ;= 40011508h
ram:0001db82    c1f80080        str.w       r8,[param_2,#0x0]=>DAT_40011508         
ram:0001db86    0621            movs        param_2,#0x6                            
ram:0001db88    1120            movs        param_1,#0x11                           
ram:0001db8a    fff71af8        bl          FUN_0001cbc2                            ;undefined FUN_0001cbc2(uint param_1,...
ram:0001db8e    0748            ldr         param_1,[DAT_0001dbac]                  ;= 40011508h
ram:0001db90    001f            subs        param_1,param_1,#0x4                    
ram:0001db92    0068            ldr         param_1,[param_1,#0x0]=>DAT_40011504    
ram:0001db94    2861            str         param_1,[r5,#0x10]=>DAT_2000212c        
ram:0001db96    0020            movs        param_1,#0x0                            
                            LAB_0001db98:                 ;XREF[1,0]:   0001dba0
ram:0001db98    bde8f087        pop.w       {r4,r5,r6,r7,r8,r9,r10,pc}              
                            LAB_0001db9c:                 ;XREF[1,0]:   0001db36
ram:0001db9c    01e0            b           LAB_0001dba2                            
                            LAB_0001db9e:                 ;XREF[2,0]:   0001db32,0001dba4
ram:0001db9e    0720            movs        param_1,#0x7                            
ram:0001dba0    fae7            b           LAB_0001db98                            
                            LAB_0001dba2:                 ;XREF[1,0]:   0001db9c
ram:0001dba2    ae60            str         r6,[r5,#0x8]=>DAT_20002124              
ram:0001dba4    fbe7            b           LAB_0001db9e                            
ram:0001dba6    0000            movs        r0,r0                                   
                            DAT_0001dba8:                 ;XREF[1,0]:   0001db34
ram:0001dba8    1c210020        undefined4  2000211Ch                               
                            DAT_0001dbac:                 ;XREF[2,0]:   0001db80,0001db8e
ram:0001dbac    08150140        undefined4  40011508h                               
                            ;************************************************************************************************
                            ;*                                           FUNCTION                                           *
                            ;************************************************************************************************
                            ;undefined4 FUN_0001dbb0(int param_1, uint param_2, undefined4 param_3, undefined4 param_4)
          ;param_1       int                 r0                      
          ;param_2       uint                r1                      
          ;param_3       undefined4          r2                      
          ;param_4       undefined4          r3                      
          ;local_20      undefined1         -20                      ;XREF[1,0]:   0001dc0a
                                                          ;XREF[5,0]:   0001e65a,0001e96e,0001e9b8,0001ec4a
                                                          ;             0001ed9e
ram:0001dbb0    2de9f843        push        {param_4,r4,r5,r6,r7,r8,r9,lr}          
ram:0001dbb4    dff87090        ldr.w       r9,[DAT_0001dc28]                       ;= 2000211Ch
ram:0001dbb8    0d46            mov         r5,param_2                              
ram:0001dbba    1746            mov         r7,param_3                              
ram:0001dbbc    d9f80810        ldr.w       param_2,[r9,#0x8]=>DAT_20002124         
ram:0001dbc0    0446            mov         r4,param_1                              
ram:0001dbc2    51b3            cbz         param_2,LAB_0001dc1a                    
ram:0001dbc4    4cb3            cbz         r4,LAB_0001dc1a                         
ram:0001dbc6    052d            cmp         r5,#0x5                                 
ram:0001dbc8    02d2            bcs         LAB_0001dbd0                            
ram:0001dbca    0720            movs        param_1,#0x7                            
                            LAB_0001dbcc:                 ;XREF[3,0]:   0001dc18,0001dc1c,0001dc24
ram:0001dbcc    bde8f883        pop.w       {param_4,r4,r5,r6,r7,r8,r9,pc}          
                            LAB_0001dbd0:                 ;XREF[1,0]:   0001dbc8
ram:0001dbd0    6069            ldr         param_1,[r4,#0x14]                      
ram:0001dbd2    10b3            cbz         param_1,LAB_0001dc1a                    
ram:0001dbd4    607c            ldrb        param_1,[r4,#0x11]                      
ram:0001dbd6    0128            cmp         param_1,#0x1                            
ram:0001dbd8    21d0            beq         LAB_0001dc1e                            
ram:0001dbda    0026            movs        r6,#0x0                                 
                            LAB_0001dbdc:                 ;XREF[1,0]:   0001dc20
ram:0001dbdc    02f0b0fb        bl          FUN_00020340                            ;undefined4 FUN_00020340(void)
ram:0001dbe0    d9f80810        ldr.w       param_2,[r9,#0x8]=>DAT_20002124         
ram:0001dbe4    8046            mov         r8,param_1                              
ram:0001dbe6    01ebc800        add.w       param_1,param_2,r8, lsl #0x3            
ram:0001dbea    6946            mov         param_2,sp                              
ram:0001dbec    02f0c7fb        bl          FUN_0002037e                            ;int FUN_0002037e(char * param_1, cha...
ram:0001dbf0    b8b1            cbz         param_1,LAB_0001dc22                    
ram:0001dbf2    0121            movs        param_2,#0x1                            
ram:0001dbf4    00f8041b        strb.w      param_2,[param_1],#0x4                  
ram:0001dbf8    0c49            ldr         param_2,[DAT_0001dc2c]                  ;= 40011504h
ram:0001dbfa    10c0            stmia       param_1!,{r4}                           
ram:0001dbfc    0968            ldr         param_2,[param_2,#0x0]=>DAT_40011504    
ram:0001dbfe    80e8e200        stm         param_1,{param_2,r5,r6,r7}              
ram:0001dc02    d9f80810        ldr.w       param_2,[r9,#0x8]=>DAT_20002124         
ram:0001dc06    01ebc800        add.w       param_1,param_2,r8, lsl #0x3            
ram:0001dc0a    9df80010        ldrb.w      param_2,[sp,#0x0]=>local_20             
ram:0001dc0e    4170            strb        param_2,[param_1,#0x1]                  
ram:0001dc10    1420            movs        param_1,#0x14                           
ram:0001dc12    fef7cbff        bl          FUN_0001cbac                            ;undefined FUN_0001cbac(uint param_1)
ram:0001dc16    0020            movs        param_1,#0x0                            
ram:0001dc18    d8e7            b           LAB_0001dbcc                            
                            LAB_0001dc1a:                 ;XREF[3,0]:   0001dbc2,0001dbc4,0001dbd2
ram:0001dc1a    0820            movs        param_1,#0x8                            
ram:0001dc1c    d6e7            b           LAB_0001dbcc                            
                            LAB_0001dc1e:                 ;XREF[1,0]:   0001dbd8
ram:0001dc1e    2e46            mov         r6,r5                                   
ram:0001dc20    dce7            b           LAB_0001dbdc                            
                            LAB_0001dc22:                 ;XREF[1,0]:   0001dbf0
ram:0001dc22    0420            movs        param_1,#0x4                            
ram:0001dc24    d2e7            b           LAB_0001dbcc                            
ram:0001dc26    0000            movs        r0,r0                                   
                            DAT_0001dc28:                 ;XREF[1,0]:   0001dbb4
ram:0001dc28    1c210020        undefined4  2000211Ch                               
                            DAT_0001dc2c:                 ;XREF[1,0]:   0001dbf8
ram:0001dc2c    04150140        undefined4  40011504h                               
                            ;************************************************************************************************
                            ;*                                           FUNCTION                                           *
                            ;************************************************************************************************
                            ;undefined4 FUN_0001dc30(int param_1, undefined4 param_2, undefined4 param_3, undefined4 param_4)
          ;param_1       int                 r0                      
          ;param_2       undefined4          r1                      
          ;param_3       undefined4          r2                      
          ;param_4       undefined4          r3                      
          ;local_18      undefined1         -18                      ;XREF[1,0]:   0001dc60
                                                          ;XREF[4,0]:   0001e2fa,0001e66e,0001e97a,0001ed62
ram:0001dc30    f8b5            push        {param_4,r4,r5,r6,r7,lr}                
ram:0001dc32    124e            ldr         r6,[DAT_0001dc7c]                       ;= 2000211Ch
ram:0001dc34    0446            mov         r4,param_1                              
ram:0001dc36    b168            ldr         param_2,[r6,#0x8]=>DAT_20002124         
ram:0001dc38    e1b1            cbz         param_2,LAB_0001dc74                    
ram:0001dc3a    dcb1            cbz         r4,LAB_0001dc74                         
ram:0001dc3c    6069            ldr         param_1,[r4,#0x14]                      
ram:0001dc3e    c8b1            cbz         param_1,LAB_0001dc74                    
ram:0001dc40    0027            movs        r7,#0x0                                 
ram:0001dc42    2774            strb        r7,[r4,#0x10]                           
ram:0001dc44    02f07cfb        bl          FUN_00020340                            ;undefined4 FUN_00020340(void)
ram:0001dc48    0546            mov         r5,param_1                              
ram:0001dc4a    b068            ldr         param_1,[r6,#0x8]=>DAT_20002124         
ram:0001dc4c    6946            mov         param_2,sp                              
ram:0001dc4e    00ebc500        add.w       param_1,param_1,r5, lsl #0x3            
ram:0001dc52    02f094fb        bl          FUN_0002037e                            ;int FUN_0002037e(char * param_1, cha...
ram:0001dc56    78b1            cbz         param_1,LAB_0001dc78                    
ram:0001dc58    0221            movs        param_2,#0x2                            
ram:0001dc5a    0170            strb        param_2,[param_1,#0x0]                  
ram:0001dc5c    4460            str         r4,[param_1,#0x4]                       
ram:0001dc5e    b068            ldr         param_1,[r6,#0x8]=>DAT_20002124         
ram:0001dc60    9df80010        ldrb.w      param_2,[sp,#0x0]=>local_18             
ram:0001dc64    00ebc500        add.w       param_1,param_1,r5, lsl #0x3            
ram:0001dc68    4170            strb        param_2,[param_1,#0x1]                  
ram:0001dc6a    1420            movs        param_1,#0x14                           
ram:0001dc6c    fef79eff        bl          FUN_0001cbac                            ;undefined FUN_0001cbac(uint param_1)
ram:0001dc70    3846            mov         param_1,r7                              
ram:0001dc72    f8bd            pop         {param_4,r4,r5,r6,r7,pc}                
                            LAB_0001dc74:                 ;XREF[3,0]:   0001dc38,0001dc3a,0001dc3e
ram:0001dc74    0820            movs        param_1,#0x8                            
ram:0001dc76    f8bd            pop         {param_4,r4,r5,r6,r7,pc}                
                            LAB_0001dc78:                 ;XREF[1,0]:   0001dc56
ram:0001dc78    0420            movs        param_1,#0x4                            
ram:0001dc7a    f8bd            pop         {param_4,r4,r5,r6,r7,pc}                
                            DAT_0001dc7c:                 ;XREF[1,0]:   0001dc32
ram:0001dc7c    1c210020        undefined4  2000211Ch                               
                            ;************************************************************************************************
                            ;*                                           FUNCTION                                           *
                            ;************************************************************************************************
                            ;undefined4 FUN_0001dc80(undefined * param_1)
          ;param_1       undefined *         r0                      
                                                          ;XREF[1,0]:   00020010
ram:0001dc80    10b5            push        {r4,lr}                                 
ram:0001dc82    0446            mov         r4,param_1                              
ram:0001dc84    0948            ldr         param_1,[DAT_0001dcac]                  ;= 20002744h
ram:0001dc86    8168            ldr         r1,[param_1,#0x8]=>DAT_2000274c         
ram:0001dc88    c268            ldr         r2,[param_1,#0xc]=>DAT_20002750         
ram:0001dc8a    8088            ldrh        param_1,[param_1,#0x4]=>DAT_20002748    
ram:0001dc8c    511a            subs        r1,r2,r1                                
ram:0001dc8e    8142            cmp         r1,param_1                              
ram:0001dc90    06d1            bne         LAB_0001dca0                            
ram:0001dc92    0121            movs        r1,#0x1                                 
ram:0001dc94    0648            ldr         param_1,[DAT_0001dcb0]                  ;= 200020DDh
ram:0001dc96    01f071fc        bl          FUN_0001f57c                            ;undefined4 FUN_0001f57c(uint param_1...
ram:0001dc9a    08b1            cbz         param_1,LAB_0001dca0                    
ram:0001dc9c    0520            movs        param_1,#0x5                            
ram:0001dc9e    10bd            pop         {r4,pc}                                 
                            LAB_0001dca0:                 ;XREF[2,0]:   0001dc90,0001dc9a
ram:0001dca0    2146            mov         r1,r4                                   
ram:0001dca2    bde81040        pop.w       {r4,lr}                                 
ram:0001dca6    0148            ldr         param_1,[DAT_0001dcac]                  ;= 20002744h
ram:0001dca8    fff7ffbe        b.w         FUN_0001daaa                            ;undefined4 FUN_0001daaa(int * param_...
                            DAT_0001dcac:                 ;XREF[2,0]:   0001dc84,0001dca6
ram:0001dcac    44270020        undefined4  20002744h                               
                            DAT_0001dcb0:                 ;XREF[1,0]:   0001dc94
ram:0001dcb0    dd200020        undefined4  200020DDh                               
                            ;************************************************************************************************
                            ;*                                           FUNCTION                                           *
                            ;************************************************************************************************
                            ;int FUN_0001dcb4(byte * param_1, int * param_2, undefined4 param_3, undefined param_4)
          ;param_1       byte *              r0                      
          ;param_2       int *               r1                      
          ;param_3       undefined4          r2                      
          ;param_4       undefined           r3                      
          ;local_13      undefined1         -13                      ;XREF[1,0]:   0001dd28
          ;local_14      undefined1         -14                      ;XREF[1,0]:   0001dcfe
          ;local_18      undefined4         -18                      ;XREF[1,0]:   0001dcf2
          ;local_1b      undefined1         -1b                      ;XREF[1,0]:   0001dd08
          ;local_1c      undefined1         -1c                      ;XREF[1,0]:   0001dcfa
          ;local_24      undefined4         -24                      ;XREF[1,0]:   0001dd12
          ;local_28      undefined4         -28                      ;XREF[1,0]:   0001dd0e
          ;local_2c      undefined4         -2c                      ;XREF[1,0]:   0001dd16
          ;local_30      undefined4         -30                      ;XREF[1,0]:   0001dd1a
                                                          ;XREF[1,0]:   0001f05e
ram:0001dcb4    70b5            push        {r4,r5,r6,lr}                           
ram:0001dcb6    0446            mov         r4,param_1                              
ram:0001dcb8    2348            ldr         param_1,[DAT_0001dd48]                  ;= 200020DCh
ram:0001dcba    88b0            sub         sp,#0x20                                
ram:0001dcbc    1e46            mov         r6,param_4                              
ram:0001dcbe    0d00            movs        r5,param_2                              
ram:0001dcc0    4260            str         param_3,[param_1,#0x4]=>DAT_200020e0    
ram:0001dcc2    35d0            beq         LAB_0001dd30                            
ram:0001dcc4    a888            ldrh        param_1,[r5,#0x4]                       
ram:0001dcc6    2968            ldr         param_2,[r5,#0x0]                       
ram:0001dcc8    82b2            uxth        param_3,param_1                         
ram:0001dcca    2048            ldr         param_1,[DAT_0001dd4c]                  ;= 20002744h
ram:0001dccc    fff7f8fe        bl          FUN_0001dac0                            ;undefined4 FUN_0001dac0(int * param_...
ram:0001dcd0    0028            cmp         param_1,#0x0                            
ram:0001dcd2    2ed1            bne         LAB_0001dd32                            
ram:0001dcd4    a889            ldrh        param_1,[r5,#0xc]                       
ram:0001dcd6    a968            ldr         param_2,[r5,#0x8]                       
ram:0001dcd8    82b2            uxth        param_3,param_1                         
ram:0001dcda    1c48            ldr         param_1,[DAT_0001dd4c]                  ;= 20002744h
ram:0001dcdc    1030            adds        param_1,#0x10                           
ram:0001dcde    fff7effe        bl          FUN_0001dac0                            ;undefined4 FUN_0001dac0(int * param_...
ram:0001dce2    0028            cmp         param_1,#0x0                            
ram:0001dce4    25d1            bne         LAB_0001dd32                            
ram:0001dce6    2022            movs        param_3,#0x20                           
ram:0001dce8    1949            ldr         param_2=>DAT_000204e4,[PTR_DAT_0001dd50];= 06h
                                                                                    ;= 000204e4
ram:0001dcea    6846            mov         param_1,sp                              
ram:0001dcec    fef7e0fb        bl          FUN_0001c4b0                            ;undefined FUN_0001c4b0(undefined4 * ...
ram:0001dcf0    a068            ldr         param_1,[r4,#0x8]                       
ram:0001dcf2    0690            str         param_1,[sp,#local_18+0x30]             
ram:0001dcf4    2079            ldrb        param_1,[r4,#0x4]                       
ram:0001dcf6    00b1            cbz         param_1,LAB_0001dcfa                    
ram:0001dcf8    0120            movs        param_1,#0x1                            
                            LAB_0001dcfa:                 ;XREF[1,0]:   0001dcf6
ram:0001dcfa    8df81400        strb.w      param_1,[sp,#local_1c+0x30]             
ram:0001dcfe    8df81c60        strb.w      r6,[sp,#local_14+0x30]                  
ram:0001dd02    6079            ldrb        param_1,[r4,#0x5]                       
ram:0001dd04    00b1            cbz         param_1,LAB_0001dd08                    
ram:0001dd06    0e20            movs        param_1,#0xe                            
                            LAB_0001dd08:                 ;XREF[1,0]:   0001dd04
ram:0001dd08    8df81500        strb.w      param_1,[sp,#local_1b+0x30]             
ram:0001dd0c    e078            ldrb        param_1,[r4,#0x3]                       
ram:0001dd0e    0290            str         param_1,[sp,#local_28+0x30]             
ram:0001dd10    a078            ldrb        param_1,[r4,#0x2]                       
ram:0001dd12    0390            str         param_1,[sp,#local_24+0x30]             
ram:0001dd14    2078            ldrb        param_1,[r4,#0x0]                       
ram:0001dd16    0190            str         param_1,[sp,#local_2c+0x30]             
ram:0001dd18    6078            ldrb        param_1,[r4,#0x1]                       
ram:0001dd1a    0090            str         param_1,[sp,#0x0]=>local_30             
ram:0001dd1c    0d49            ldr         param_2=>DAT_0002004d,[PTR_DAT_0001dd54];= B5h
                                                                                    ;= 0002004d
ram:0001dd1e    6846            mov         param_1,sp                              
ram:0001dd20    01f0e2fb        bl          FUN_0001f4e8                            ;undefined4 FUN_0001f4e8(int * param_...
ram:0001dd24    0028            cmp         param_1,#0x0                            
ram:0001dd26    04d1            bne         LAB_0001dd32                            
ram:0001dd28    9df81d00        ldrb.w      param_1,[sp,#local_13+0x30]             
ram:0001dd2c    18b1            cbz         param_1,LAB_0001dd36                    
ram:0001dd2e    04e0            b           LAB_0001dd3a                            
                            LAB_0001dd30:                 ;XREF[1,0]:   0001dcc2
ram:0001dd30    0720            movs        param_1,#0x7                            
                            LAB_0001dd32:                 ;XREF[4,0]:   0001dcd2,0001dce4,0001dd26,0001dd44
ram:0001dd32    08b0            add         sp,#0x20                                
ram:0001dd34    70bd            pop         {r4,r5,r6,pc}                           
                            LAB_0001dd36:                 ;XREF[1,0]:   0001dd2c
ram:0001dd36    01f067fc        bl          FUN_0001f608                            ;undefined FUN_0001f608(void)
                            LAB_0001dd3a:                 ;XREF[1,0]:   0001dd2e
ram:0001dd3a    0348            ldr         param_1,[DAT_0001dd48]                  ;= 200020DCh
ram:0001dd3c    0121            movs        param_2,#0x1                            
ram:0001dd3e    401c            adds        param_1,param_1,#0x1                    
ram:0001dd40    01f01cfc        bl          FUN_0001f57c                            ;undefined4 FUN_0001f57c(uint param_1...
ram:0001dd44    f5e7            b           LAB_0001dd32                            
ram:0001dd46    0000            movs        r0,r0                                   
                            DAT_0001dd48:                 ;XREF[2,0]:   0001dcb8,0001dd3a
ram:0001dd48    dc200020        undefined4  200020DCh                               
                            DAT_0001dd4c:                 ;XREF[2,0]:   0001dcca,0001dcda
ram:0001dd4c    44270020        undefined4  20002744h                               
                            PTR_DAT_0001dd50:             ;XREF[1,0]:   0001dce8
ram:0001dd50    e4040200        addr        DAT_000204e4                            ;= 06h
                            PTR_DAT_0001dd54:             ;XREF[1,0]:   0001dd1c
ram:0001dd54    4d000200        addr        DAT_0002004d                            ;= B5h
                            ;************************************************************************************************
                            ;*                                           FUNCTION                                           *
                            ;************************************************************************************************
                            ;int FUN_0001dd58(undefined param_1)
          ;param_1       undefined           r0                      
                                                          ;XREF[1,0]:   0001ed38
ram:0001dd58    10b5            push        {r4,lr}                                 
ram:0001dd5a    0146            mov         r1,param_1                              
ram:0001dd5c    0948            ldr         param_1,[DAT_0001dd84]                  ;= 20002754h
ram:0001dd5e    fff7bffe        bl          FUN_0001dae0                            ;undefined4 FUN_0001dae0(int * param_...
ram:0001dd62    0400            movs        r4,param_1                              
ram:0001dd64    0cd1            bne         LAB_0001dd80                            
ram:0001dd66    01f07dfd        bl          FUN_0001f864                            ;char FUN_0001f864(void)
ram:0001dd6a    48b9            cbnz        param_1,LAB_0001dd80                    
ram:0001dd6c    0649            ldr         r1,[DAT_0001dd88]                       ;= 200020DCh
ram:0001dd6e    0548            ldr         param_1,[DAT_0001dd84]                  ;= 20002754h
ram:0001dd70    fff79bfe        bl          FUN_0001daaa                            ;undefined4 FUN_0001daaa(int * param_...
ram:0001dd74    20b9            cbnz        param_1,LAB_0001dd80                    
ram:0001dd76    0121            movs        r1,#0x1                                 
ram:0001dd78    0348            ldr         param_1,[DAT_0001dd88]                  ;= 200020DCh
ram:0001dd7a    01f0ebfc        bl          FUN_0001f754                            ;undefined4 FUN_0001f754(uint param_1)
ram:0001dd7e    0446            mov         r4,param_1                              
                            LAB_0001dd80:                 ;XREF[3,0]:   0001dd64,0001dd6a,0001dd74
ram:0001dd80    2046            mov         param_1,r4                              
ram:0001dd82    10bd            pop         {r4,pc}                                 
                            DAT_0001dd84:                 ;XREF[2,0]:   0001dd5c,0001dd6e
ram:0001dd84    54270020        undefined4  20002754h                               
                            DAT_0001dd88:                 ;XREF[2,0]:   0001dd6c,0001dd78
ram:0001dd88    dc200020        undefined4  200020DCh                               
                            ;************************************************************************************************
                            ;*                                           FUNCTION                                           *
                            ;************************************************************************************************
                            ;undefined FUN_0001dd8c(int * param_1)
          ;param_1       int *               r0                      
                                                          ;XREF[1,0]:   0001f506
ram:0001dd8c    2de9f041        push        {r4,r5,r6,r7,r8,lr}                     
ram:0001dd90    0446            mov         r4,param_1                              
ram:0001dd92    0078            ldrb        param_1,[param_1,#0x0]                  
ram:0001dd94    184f            ldr         r7,[DAT_0001ddf8]                       ;= 50000508h
ram:0001dd96    0126            movs        r6,#0x1                                 
ram:0001dd98    06fa00f0        lsl.w       param_1,r6,param_1                      
ram:0001dd9c    3860            str         param_1,[r7,#0x0]=>DAT_50000508         
ram:0001dd9e    2068            ldr         param_1,[r4,#0x0]                       
ram:0001dda0    01f093fd        bl          FUN_0001f8ca                            ;undefined FUN_0001f8ca(int param_1)
ram:0001dda4    0021            movs        r1,#0x0                                 
ram:0001dda6    6068            ldr         param_1,[r4,#0x4]                       
ram:0001dda8    01f086fd        bl          FUN_0001f8b8                            ;undefined FUN_0001f8b8(int param_1, ...
ram:0001ddac    1348            ldr         param_1,[DAT_0001ddfc]                  ;= 200027BCh
ram:0001ddae    144d            ldr         r5,[DAT_0001de00]                       ;= 40002000h
ram:0001ddb0    007f            ldrb        param_1,[param_1,#0x1c]=>DAT_200027d8   
ram:0001ddb2    a069            ldr         param_1,[r4,#0x18]                      
ram:0001ddb4    c5f82405        str.w       param_1,[r5,#0x524]=>DAT_40002524       
ram:0001ddb8    607d            ldrb        param_1,[r4,#0x15]                      
ram:0001ddba    217d            ldrb        r1,[r4,#0x14]                           
ram:0001ddbc    0843            orrs        param_1,r1                              
ram:0001ddbe    c5f86c05        str.w       param_1,[r5,#0x56c]=>DAT_4000256c       
ram:0001ddc2    d4e90001        ldrd        param_1,r1,[r4,#0x0]                    
ram:0001ddc6    c5f80c05        str.w       param_1,[r5,#0x50c]=>DAT_4000250c       
ram:0001ddca    c5f81415        str.w       r1,[r5,#0x514]=>DAT_40002514            
ram:0001ddce    207d            ldrb        param_1,[r4,#0x14]                      
ram:0001ddd0    0128            cmp         param_1,#0x1                            
ram:0001ddd2    0fd1            bne         LAB_0001ddf4                            
ram:0001ddd4    0021            movs        r1,#0x0                                 
ram:0001ddd6    a068            ldr         param_1,[r4,#0x8]                       
ram:0001ddd8    01f06efd        bl          FUN_0001f8b8                            ;undefined FUN_0001f8b8(int param_1, ...
ram:0001dddc    207b            ldrb        param_1,[r4,#0xc]                       
ram:0001ddde    8640            lsls        r6,param_1                              
ram:0001dde0    3e60            str         r6,[r7,#0x0]=>DAT_50000508              
ram:0001dde2    e068            ldr         param_1,[r4,#0xc]                       
ram:0001dde4    01f071fd        bl          FUN_0001f8ca                            ;undefined FUN_0001f8ca(int param_1)
ram:0001dde8    d4e90201        ldrd        param_1,r1,[r4,#0x8]                    
ram:0001ddec    c5f80815        str.w       r1,[r5,#0x508]=>DAT_40002508            
ram:0001ddf0    c5f81005        str.w       param_1,[r5,#0x510]=>DAT_40002510       
                            LAB_0001ddf4:                 ;XREF[1,0]:   0001ddd2
ram:0001ddf4    bde8f081        pop.w       {r4,r5,r6,r7,r8,pc}                     
                            DAT_0001ddf8:                 ;XREF[1,0]:   0001dd94
ram:0001ddf8    08050050        undefined4  50000508h                               
                            DAT_0001ddfc:                 ;XREF[1,0]:   0001ddac
ram:0001ddfc    bc270020        undefined4  200027BCh                               
                            DAT_0001de00:                 ;XREF[1,0]:   0001ddae
ram:0001de00    00200040        undefined4  40002000h                               
                            ;************************************************************************************************
                            ;*                                           FUNCTION                                           *
                            ;************************************************************************************************
                            ;char * FUN_0001de04(byte * param_1, byte * param_2)
          ;param_1       byte *              r0                      
          ;param_2       byte *              r1                      
          ;local_5c      undefined2         -5c                      ;XREF[3,0]:   0001de12,0001de56,0001de5a
          ;local_60      undefined2         -60                      ;XREF[3,0]:   0001de0e,0001de32,0001de60
                                                          ;XREF[4,0]:   0001df7a,0001e044,0001e1d6,0001e230
ram:0001de04    f0b5            push        {r4,r5,r6,r7,lr}                        
ram:0001de06    0c46            mov         r4,param_2                              
ram:0001de08    93b0            sub         sp,#0x4c                                
ram:0001de0a    1f21            movs        param_2,#0x1f                           
ram:0001de0c    0726            movs        r6,#0x7                                 
ram:0001de0e    adf80010        strh.w      param_2,[sp,#0x0]=>local_60             
ram:0001de12    adf80410        strh.w      param_2,[sp,#local_5c+0x60]             
ram:0001de16    0027            movs        r7,#0x0                                 
ram:0001de18    50b1            cbz         param_1,LAB_0001de30                    
ram:0001de1a    c178            ldrb        param_2,[param_1,#0x3]                  
ram:0001de1c    4907            lsls        param_2,param_2,#0x1d                   
ram:0001de1e    0dd5            bpl         LAB_0001de3c                            
ram:0001de20    6a46            mov         r2,sp                                   
ram:0001de22    02a9            add         param_2,sp,#0x8                         
ram:0001de24    fff7adfc        bl          FUN_0001d782                            ;char * FUN_0001d782(byte * param_1, ...
ram:0001de28    0028            cmp         param_1,#0x0                            
ram:0001de2a    08d1            bne         LAB_0001de3e                            
ram:0001de2c    02ad            add         r5,sp,#0x8                              
ram:0001de2e    02e0            b           LAB_0001de36                            
                            LAB_0001de30:                 ;XREF[1,0]:   0001de18
ram:0001de30    0025            movs        r5,#0x0                                 
ram:0001de32    adf80070        strh.w      r7,[sp,#0x0]=>local_60                  
                            LAB_0001de36:                 ;XREF[1,0]:   0001de2e
ram:0001de36    6cb1            cbz         r4,LAB_0001de54                         
ram:0001de38    e078            ldrb        param_1,[r4,#0x3]                       
ram:0001de3a    10b1            cbz         param_1,LAB_0001de42                    
                            LAB_0001de3c:                 ;XREF[1,0]:   0001de1e
ram:0001de3c    3046            mov         param_1,r6                              
                            LAB_0001de3e:                 ;XREF[3,0]:   0001de2a,0001de4e,0001de6a
ram:0001de3e    13b0            add         sp,#0x4c                                
ram:0001de40    f0bd            pop         {r4,r5,r6,r7,pc}                        
                            LAB_0001de42:                 ;XREF[1,0]:   0001de3a
ram:0001de42    01aa            add         r2,sp,#0x4                              
ram:0001de44    0aa9            add         param_2,sp,#0x28                        
ram:0001de46    2046            mov         param_1,r4                              
ram:0001de48    fff79bfc        bl          FUN_0001d782                            ;char * FUN_0001d782(byte * param_1, ...
ram:0001de4c    0028            cmp         param_1,#0x0                            
ram:0001de4e    f6d1            bne         LAB_0001de3e                            
ram:0001de50    0aaa            add         r2,sp,#0x28                             
ram:0001de52    02e0            b           LAB_0001de5a                            
                            LAB_0001de54:                 ;XREF[1,0]:   0001de36
ram:0001de54    0022            movs        r2,#0x0                                 
ram:0001de56    adf80470        strh.w      r7,[sp,#local_5c+0x60]                  
                            LAB_0001de5a:                 ;XREF[1,0]:   0001de52
ram:0001de5a    bdf80400        ldrh.w      param_1,[sp,#local_5c+0x60]             
ram:0001de5e    c3b2            uxtb        r3,param_1                              
ram:0001de60    bdf80000        ldrh.w      param_1,[sp,#0x0]=>local_60             
ram:0001de64    c1b2            uxtb        param_2,param_1                         
ram:0001de66    2846            mov         param_1,r5                              
ram:0001de68    72df            svc         0x72                                    
ram:0001de6a    e8e7            b           LAB_0001de3e                            
                            ;************************************************************************************************
                            ;*                                           FUNCTION                                           *
                            ;************************************************************************************************
                            ;char * FUN_0001de6c(undefined * param_1, byte * param_2, undefined4 * param_3, undefined4 param_4, undefined4 param_5)
          ;param_1       undefined *         r0                      
          ;param_2       byte *              r1                      
          ;param_3       undefined4 *        r2                      
          ;param_4       undefined4          r3                      
          ;param_5       undefined4           0                      ;XREF[1,0]:   0001de70
                                                          ;XREF[1,0]:   0001f130
ram:0001de6c    70b5            push        {r4,r5,r6,lr}                           
ram:0001de6e    0d46            mov         r5,param_2                              
ram:0001de70    0499            ldr         param_2,[sp,#param_5+0x10]              
ram:0001de72    1646            mov         r6,param_3                              
ram:0001de74    0400            movs        r4,param_1                              
ram:0001de76    40d0            beq         LAB_0001defa                            
ram:0001de78    f6b3            cbz         r6,LAB_0001def8                         
ram:0001de7a    4148            ldr         param_1,[DAT_0001df80]                  ;= 200020A8h
ram:0001de7c    0022            movs        param_3,#0x0                            
ram:0001de7e    4271            strb        param_3,[param_1,#0x5]=>DAT_200020ad    
                                                          ; FWD[2,0]:   200020b4,200020b8
ram:0001de80    c0e90331        strd        param_4,param_2,[param_1,#0xc]=>DAT_2...
ram:0001de84    2422            movs        param_3,#0x24                           
ram:0001de86    3146            mov         param_2,r6                              
ram:0001de88    3e48            ldr         param_1=>DAT_2000263c,[DAT_0001df84]    ;= 2000263Ch
ram:0001de8a    fef711fb        bl          FUN_0001c4b0                            ;undefined FUN_0001c4b0(undefined4 * ...
ram:0001de8e    00f0bbf8        bl          FUN_0001e008                            ;undefined FUN_0001e008(void)
ram:0001de92    3c49            ldr         param_2,[DAT_0001df84]                  ;= 2000263Ch
ram:0001de94    3431            adds        param_2,#0x34                           
ram:0001de96    a1f11000        sub.w       param_1,param_2,#0x10                   
ram:0001de9a    0160            str         param_2,[param_1,#0x0]=>DAT_20002660    
ram:0001de9c    2031            adds        param_2,#0x20                           
ram:0001de9e    8160            str         param_2,[param_1,#0x8]=>DAT_20002668    
ram:0001dea0    3821            movs        param_2,#0x38                           
ram:0001dea2    5c38            subs        param_1=>DAT_20002604,#0x5c             
ram:0001dea4    fef71dfb        bl          FUN_0001c4e2                            ;undefined FUN_0001c4e2(undefined * p...
ram:0001dea8    3648            ldr         param_1,[DAT_0001df84]                  ;= 2000263Ch
ram:0001deaa    2178            ldrb        param_2,[r4,#0x0]                       
ram:0001deac    3838            subs        param_1,#0x38                           
ram:0001deae    0170            strb        param_2,[param_1,#0x0]=>DAT_20002604    
ram:0001deb0    a178            ldrb        param_2,[r4,#0x2]                       
ram:0001deb2    8170            strb        param_2,[param_1,#0x2]=>DAT_20002606    
ram:0001deb4    e178            ldrb        param_2,[r4,#0x3]                       
ram:0001deb6    c170            strb        param_2,[param_1,#0x3]=>DAT_20002607    
ram:0001deb8    6178            ldrb        param_2,[r4,#0x1]                       
ram:0001deba    4170            strb        param_2,[param_1,#0x1]=>DAT_20002605    
ram:0001debc    d4e90412        ldrd        param_2,param_3,[r4,#0x10]              
                                                          ; FWD[2,0]:   20002614,20002618
ram:0001dec0    c0e90412        strd        param_2,param_3,[param_1,#0x10]=>DAT_...
ram:0001dec4    d4e90212        ldrd        param_2,param_3,[r4,#0x8]               
                                                          ; FWD[2,0]:   2000260c,20002610
ram:0001dec8    c0e90212        strd        param_2,param_3,[param_1,#0x8]=>DAT_2...
ram:0001decc    d4e90612        ldrd        param_2,param_3,[r4,#0x18]              
                                                          ; FWD[2,0]:   2000261c,20002620
ram:0001ded0    c0e90612        strd        param_2,param_3,[param_1,#0x18]=>DAT_...
ram:0001ded4    616a            ldr         param_2,[r4,#0x24]                      
ram:0001ded6    d1b1            cbz         param_2,LAB_0001df0e                    
ram:0001ded8    00f1ac01        add.w       param_2,param_1,#0xac                   
ram:0001dedc    00f1b802        add.w       param_3,param_1,#0xb8                   
ram:0001dee0    4162            str         param_2=>DAT_200...,[param_1,#0x24]=>...
ram:0001dee2    8a60            str         param_3=>DAT_200...,[param_2,#0x8]=>D...
ram:0001dee4    636a            ldr         param_4,[r4,#0x24]                      
ram:0001dee6    1b88            ldrh        param_4,[param_4,#0x0]                  
ram:0001dee8    0b80            strh        param_4,[param_2,#0x0]=>DAT_200026b0    
ram:0001deea    616a            ldr         param_2,[r4,#0x24]                      
ram:0001deec    436a            ldr         param_4,[param_1,#0x24]=>DAT_20002628   
ram:0001deee    8988            ldrh        param_2,[param_2,#0x4]                  
ram:0001def0    9980            strh        param_2,[param_4,#0x4]=>DAT_200026b4    
ram:0001def2    0021            movs        param_2,#0x0                            
ram:0001def4    436a            ldr         param_4,[param_1,#0x24]=>DAT_20002628   
ram:0001def6    07e0            b           LAB_0001df08                            
                            LAB_0001def8:                 ;XREF[1,0]:   0001de78
ram:0001def8    ffe7            b           LAB_0001defa                            
                            LAB_0001defa:                 ;XREF[2,0]:   0001de76,0001def8
ram:0001defa    0e20            movs        param_1,#0xe                            
ram:0001defc    70bd            pop         {r4,r5,r6,pc}                           
                            LAB_0001defe:                 ;XREF[1,0]:   0001df0c
ram:0001defe    666a            ldr         r6,[r4,#0x24]                           
ram:0001df00    b668            ldr         r6,[r6,#0x8]                            
ram:0001df02    765c            ldrb        r6,[r6,param_2]                         
ram:0001df04    5654            strb        r6,[param_3,param_2]=>DAT_200026bc      
ram:0001df06    491c            adds        param_2,param_2,#0x1                    
                            LAB_0001df08:                 ;XREF[1,0]:   0001def6
ram:0001df08    9e88            ldrh        r6,[param_4,#0x4]=>DAT_200026b4         
ram:0001df0a    8e42            cmp         r6,param_2                              
ram:0001df0c    f7d8            bhi         LAB_0001defe                            
                            LAB_0001df0e:                 ;XREF[1,0]:   0001ded6
ram:0001df0e    a16a            ldr         param_2,[r4,#0x28]                      
ram:0001df10    d9b1            cbz         param_2,LAB_0001df4a                    
ram:0001df12    1c4a            ldr         param_3,[DAT_0001df84]                  ;= 2000263Ch
ram:0001df14    ac32            adds        param_3,#0xac                           
ram:0001df16    a2f10c01        sub.w       param_2,param_3,#0xc                    
ram:0001df1a    8a60            str         param_3=>DAT_200...,[param_2,#0x8]=>D...
ram:0001df1c    8162            str         param_2=>DAT_200...,[param_1,#0x28]=>...
ram:0001df1e    a36a            ldr         param_4,[r4,#0x28]                      
ram:0001df20    9b88            ldrh        param_4,[param_4,#0x4]                  
ram:0001df22    8b80            strh        param_4,[param_2,#0x4]=>DAT_200026e0    
ram:0001df24    a16a            ldr         param_2,[r4,#0x28]                      
ram:0001df26    836a            ldr         param_4=>DAT_200...,[param_1,#0x28]=>...
ram:0001df28    0988            ldrh        param_2,[param_2,#0x0]                  
ram:0001df2a    1980            strh        param_2,[param_4,#0x0]=>DAT_200026dc    
ram:0001df2c    0021            movs        param_2,#0x0                            
ram:0001df2e    836a            ldr         param_4,[param_1,#0x28]=>DAT_2000262c   
ram:0001df30    04e0            b           LAB_0001df3c                            
                            LAB_0001df32:                 ;XREF[1,0]:   0001df40
ram:0001df32    a66a            ldr         r6,[r4,#0x28]                           
ram:0001df34    b668            ldr         r6,[r6,#0x8]                            
ram:0001df36    765c            ldrb        r6,[r6,param_2]                         
ram:0001df38    5654            strb        r6,[param_3,param_2]=>DAT_200026e8      
ram:0001df3a    491c            adds        param_2,param_2,#0x1                    
                            LAB_0001df3c:                 ;XREF[1,0]:   0001df30
ram:0001df3c    9e88            ldrh        r6,[param_4,#0x4]=>DAT_200026e0         
ram:0001df3e    8e42            cmp         r6,param_2                              
ram:0001df40    f7d8            bhi         LAB_0001df32                            
ram:0001df42    94f82c10        ldrb.w      param_2,[r4,#0x2c]                      
ram:0001df46    80f82c10        strb.w      param_2,[param_1,#0x2c]=>DAT_20002630   
                            LAB_0001df4a:                 ;XREF[1,0]:   0001df10
ram:0001df4a    216a            ldr         param_2,[r4,#0x20]                      
ram:0001df4c    49b1            cbz         param_2,LAB_0001df62                    
ram:0001df4e    0c49            ldr         param_2,[DAT_0001df80]                  ;= 200020A8h
ram:0001df50    1431            adds        param_2,#0x14                           
ram:0001df52    0162            str         param_2=>DAT_200...,[param_1,#0x20]=>...
ram:0001df54    226a            ldr         param_3,[r4,#0x20]                      
ram:0001df56    5288            ldrh        param_3,[param_3,#0x2]                  
ram:0001df58    4a80            strh        param_3,[param_2,#0x2]=>DAT_200020be    
ram:0001df5a    216a            ldr         param_2,[r4,#0x20]                      
ram:0001df5c    026a            ldr         param_3=>DAT_200...,[param_1,#0x20]=>...
ram:0001df5e    0988            ldrh        param_2,[param_2,#0x0]                  
ram:0001df60    1180            strh        param_2,[param_3,#0x0]=>DAT_200020bc    
                            LAB_0001df62:                 ;XREF[1,0]:   0001df4c
ram:0001df62    6168            ldr         param_2,[r4,#0x4]                       
ram:0001df64    21b1            cbz         param_2,LAB_0001df70                    
ram:0001df66    0649            ldr         param_2,[DAT_0001df80]                  ;= 200020A8h
ram:0001df68    891d            adds        param_2,param_2,#0x6                    
ram:0001df6a    4160            str         param_2,[param_1,#0x4]=>DAT_20002608    
ram:0001df6c    6168            ldr         param_2,[r4,#0x4]                       
ram:0001df6e    4160            str         param_2,[param_1,#0x4]=>DAT_20002608    
                            LAB_0001df70:                 ;XREF[1,0]:   0001df64
ram:0001df70    2946            mov         param_2,r5                              
ram:0001df72    bde87040        pop.w       {r4,r5,r6,lr}                           
ram:0001df76    0348            ldr         param_1,[DAT_0001df84]                  ;= 2000263Ch
ram:0001df78    3838            subs        param_1=>DAT_20002604,#0x38             
ram:0001df7a    fff743bf        b.w         FUN_0001de04                            ;char * FUN_0001de04(byte * param_1, ...
ram:0001df7e    00              ??          00h                                     
ram:0001df7f    00              ??          00h                                     
                            DAT_0001df80:                 ;XREF[3,0]:   0001de7a,0001df4e,0001df66
ram:0001df80    a8200020        undefined4  200020A8h                               
                            DAT_0001df84:                 ;XREF[5,0]:   0001de88,0001de92,0001dea8,0001df12
                                                          ;             0001df76
ram:0001df84    3c260020        undefined4  2000263Ch                               
                            ;************************************************************************************************
                            ;*                                           FUNCTION                                           *
                            ;************************************************************************************************
                            ;undefined FUN_0001df88(short * param_1)
          ;param_1       short *             r0                      
                                                          ;XREF[1,0]:   0001e39c
ram:0001df88    10b5            push        {r4,lr}                                 
ram:0001df8a    0288            ldrh        r2,[param_1,#0x0]                       
ram:0001df8c    1d4c            ldr         r4,[DAT_0001e004]                       ;= 200020A8h
ram:0001df8e    102a            cmp         r2,#0x10                                
ram:0001df90    18d0            beq         LAB_0001dfc4                            
ram:0001df92    0021            movs        r1,#0x0                                 
ram:0001df94    112a            cmp         r2,#0x11                                
ram:0001df96    1bd0            beq         LAB_0001dfd0                            
ram:0001df98    1b2a            cmp         r2,#0x1b                                
ram:0001df9a    18d1            bne         LAB_0001dfce                            
ram:0001df9c    007a            ldrb        param_1,[param_1,#0x8]                  
ram:0001df9e    0028            cmp         param_1,#0x0                            
ram:0001dfa0    15d1            bne         LAB_0001dfce                            
ram:0001dfa2    6079            ldrb        param_1,[r4,#0x5]=>DAT_200020ad         
ram:0001dfa4    0128            cmp         param_1,#0x1                            
ram:0001dfa6    20d0            beq         LAB_0001dfea                            
ram:0001dfa8    0228            cmp         param_1,#0x2                            
ram:0001dfaa    24d0            beq         LAB_0001dff6                            
ram:0001dfac    0328            cmp         param_1,#0x3                            
ram:0001dfae    24d0            beq         LAB_0001dffa                            
ram:0001dfb0    0428            cmp         param_1,#0x4                            
ram:0001dfb2    0cd1            bne         LAB_0001dfce                            
ram:0001dfb4    2171            strb        r1,[r4,#0x4]=>DAT_200020ac              
ram:0001dfb6    e268            ldr         r2,[r4,#0xc]=>DAT_200020b4              
ram:0001dfb8    0846            mov         param_1,r1                              
ram:0001dfba    002a            cmp         r2,#0x0                                 
ram:0001dfbc    07d0            beq         LAB_0001dfce                            
ram:0001dfbe    bde81040        pop.w       {r4,lr}                                 
ram:0001dfc2    1047            bx          r2                                      
                            LAB_0001dfc4:                 ;XREF[1,0]:   0001df90
ram:0001dfc4    817d            ldrb        r1,[param_1,#0x16]                      
ram:0001dfc6    0129            cmp         r1,#0x1                                 
ram:0001dfc8    01d1            bne         LAB_0001dfce                            
ram:0001dfca    8088            ldrh        param_1,[param_1,#0x4]                  
ram:0001dfcc    2081            strh        param_1,[r4,#0x8]=>DAT_200020b0         
                            LAB_0001dfce:                 ;XREF[7,0]:   0001df9a,0001dfa0,0001dfb2,0001dfbc
                                                          ;             0001dfc8,0001dfd8,0001dfe2
ram:0001dfce    10bd            pop         {r4,pc}                                 
                            LAB_0001dfd0:                 ;XREF[1,0]:   0001df96
ram:0001dfd0    6170            strb        r1,[r4,#0x1]=>DAT_200020a9              
ram:0001dfd2    8088            ldrh        param_1,[param_1,#0x4]                  
ram:0001dfd4    2189            ldrh        r1,[r4,#0x8]=>DAT_200020b0              
ram:0001dfd6    8842            cmp         param_1,r1                              
ram:0001dfd8    f9d1            bne         LAB_0001dfce                            
ram:0001dfda    0120            movs        param_1,#0x1                            
ram:0001dfdc    06e0            b           LAB_0001dfec                            
                            LAB_0001dfde:                 ;XREF[1,0]:   0001dff2
ram:0001dfde    2169            ldr         r1,[r4,#0x10]=>DAT_200020b8             
ram:0001dfe0    0029            cmp         r1,#0x0                                 
ram:0001dfe2    f4d0            beq         LAB_0001dfce                            
ram:0001dfe4    bde81040        pop.w       {r4,lr}                                 
ram:0001dfe8    0847            bx          r1                                      
                            LAB_0001dfea:                 ;XREF[1,0]:   0001dfa6
ram:0001dfea    0220            movs        param_1,#0x2                            
                            LAB_0001dfec:                 ;XREF[3,0]:   0001dfdc,0001dff8,0001e000
ram:0001dfec    00f03cf8        bl          FUN_0001e068                            ;char * FUN_0001e068(undefined param_1)
ram:0001dff0    0028            cmp         param_1,#0x0                            
ram:0001dff2    f4d1            bne         LAB_0001dfde                            
ram:0001dff4    10bd            pop         {r4,pc}                                 
                            LAB_0001dff6:                 ;XREF[1,0]:   0001dfaa
ram:0001dff6    0320            movs        param_1,#0x3                            
ram:0001dff8    f8e7            b           LAB_0001dfec                            
                            LAB_0001dffa:                 ;XREF[1,0]:   0001dfae
ram:0001dffa    0320            movs        param_1,#0x3                            
ram:0001dffc    2071            strb        param_1,[r4,#0x4]=>DAT_200020ac         
ram:0001dffe    0420            movs        param_1,#0x4                            
ram:0001e000    f4e7            b           LAB_0001dfec                            
ram:0001e002    0000            movs        r0,r0                                   
                            DAT_0001e004:                 ;XREF[1,0]:   0001df8c
ram:0001e004    a8200020        undefined4  200020A8h                               
                            ;************************************************************************************************
                            ;*                                           FUNCTION                                           *
                            ;************************************************************************************************
                            ;undefined FUN_0001e008(void)
                                                          ;XREF[2,0]:   0001de8e,0001e096
ram:0001e008    0248            ldr         r0=>DAT_200020a8,[DAT_0001e014]         ;= 200020A8h
ram:0001e00a    0021            movs        r1,#0x0                                 
ram:0001e00c    8161            str         r1,[r0,#0x18]=>DAT_200020c0             
ram:0001e00e    8183            strh        r1,[r0,#0x1c]=>DAT_200020c4             
ram:0001e010    8177            strb        r1,[r0,#0x1e]=>DAT_200020c6             
ram:0001e012    7047            bx          lr                                      
                            DAT_0001e014:                 ;XREF[1,0]:   0001e008
ram:0001e014    a8200020        undefined4  200020A8h                               
                            ;************************************************************************************************
                            ;*                                           FUNCTION                                           *
                            ;************************************************************************************************
                            ;char * FUN_0001e018(void)
                                                          ;XREF[1,0]:   0001e6ec
ram:0001e018    1148            ldr         r0,[DAT_0001e060]                       ;= 2000263Ch
ram:0001e01a    10b5            push        {r4,lr}                                 
ram:0001e01c    0078            ldrb        r0,[r0,#0x0]=>DAT_2000263c              
ram:0001e01e    0128            cmp         r0,#0x1                                 
ram:0001e020    1bd1            bne         LAB_0001e05a                            
ram:0001e022    104c            ldr         r4,[DAT_0001e064]                       ;= 200020A8h
ram:0001e024    6078            ldrb        r0,[r4,#0x1]=>DAT_200020a9              
ram:0001e026    c0b9            cbnz        r0,LAB_0001e05a                         
ram:0001e028    6079            ldrb        r0,[r4,#0x5]=>DAT_200020ad              
ram:0001e02a    10b1            cbz         r0,LAB_0001e032                         
ram:0001e02c    74df            svc         0x74                                    
ram:0001e02e    0028            cmp         r0,#0x0                                 
ram:0001e030    14d1            bne         LAB_0001e05c                            
                            LAB_0001e032:                 ;XREF[1,0]:   0001e02a
ram:0001e032    0b49            ldr         r1,[DAT_0001e060]                       ;= 2000263Ch
ram:0001e034    0120            movs        r0,#0x1                                 
ram:0001e036    6070            strb        r0,[r4,#0x1]=>DAT_200020a9              
ram:0001e038    3839            subs        r1,#0x38                                
ram:0001e03a    0620            movs        r0,#0x6                                 
ram:0001e03c    c870            strb        r0,[r1,#0x3]=>DAT_20002607              
ram:0001e03e    0848            ldr         r0,[DAT_0001e060]                       ;= 2000263Ch
ram:0001e040    0021            movs        r1,#0x0                                 
ram:0001e042    3838            subs        r0=>DAT_20002604,#0x38                  
ram:0001e044    fff7defe        bl          FUN_0001de04                            ;char * FUN_0001de04(byte * param_1, ...
ram:0001e048    0028            cmp         r0,#0x0                                 
ram:0001e04a    07d1            bne         LAB_0001e05c                            
ram:0001e04c    6079            ldrb        r0,[r4,#0x5]=>DAT_200020ad              
ram:0001e04e    00f00bf8        bl          FUN_0001e068                            ;char * FUN_0001e068(undefined param_1)
ram:0001e052    10b1            cbz         r0,LAB_0001e05a                         
ram:0001e054    2169            ldr         r1,[r4,#0x10]=>DAT_200020b8             
ram:0001e056    01b1            cbz         r1,LAB_0001e05a                         
ram:0001e058    8847            blx         r1                                      
                            LAB_0001e05a:                 ;XREF[4,0]:   0001e020,0001e026,0001e052,0001e056
ram:0001e05a    0020            movs        r0,#0x0                                 
                            LAB_0001e05c:                 ;XREF[2,0]:   0001e030,0001e04a
ram:0001e05c    10bd            pop         {r4,pc}                                 
ram:0001e05e    0000            movs        r0,r0                                   
                            DAT_0001e060:                 ;XREF[3,0]:   0001e018,0001e032,0001e03e
ram:0001e060    3c260020        undefined4  2000263Ch                               
                            DAT_0001e064:                 ;XREF[1,0]:   0001e022
ram:0001e064    a8200020        undefined4  200020A8h                               
                            ;************************************************************************************************
                            ;*                                           FUNCTION                                           *
                            ;************************************************************************************************
                            ;char * FUN_0001e068(undefined param_1)
          ;param_1       undefined           r0                      
          ;local_28      undefined4         -28                      ;XREF[2,0]:   0001e076,0001e08e
          ;local_2e      undefined2         -2e                      ;XREF[4,0]:   0001e174,0001e192,0001e1a4,0001e1ea
          ;local_30      undefined2         -30                      ;XREF[4,0]:   0001e180,0001e198,0001e1aa,0001e1e4
          ;local_34      undefined4         -34                      ;XREF[3,0]:   0001e14e,0001e1cc,0001e226
          ;local_38      undefined1         -38                      ;XREF[3,0]:   0001e14a,0001e1c8,0001e222
          ;local_3c      undefined4         -3c                      ;XREF[3,0]:   0001e148,0001e178,0001e188
          ;local_40      undefined1         -40                      ;XREF[3,0]:   0001e144,0001e17c,0001e18c
                                                          ;XREF[3,0]:   0001dfec,0001e04e,0001f17a
ram:0001e068    2de9f04f        push        {r4,r5,r6,r7,r8,r9,r10,r11,lr}          
ram:0001e06c    744c            ldr         r4,[DAT_0001e240]                       ;= 200020A8h
ram:0001e06e    87b0            sub         sp,#0x1c                                
ram:0001e070    0026            movs        r6,#0x0                                 
ram:0001e072    6071            strb        param_1,[r4,#0x5]=>DAT_200020ad         
ram:0001e074    06a8            add         param_1,sp,#0x18                        
ram:0001e076    0696            str         r6,[sp,#local_28+0x40]                  
ram:0001e078    01f0e6fc        bl          FUN_0001fa48                            ;undefined4 FUN_0001fa48(uint * param_1)
ram:0001e07c    0127            movs        r7,#0x1                                 
ram:0001e07e    0828            cmp         param_1,#0x8                            
ram:0001e080    01d0            beq         LAB_0001e086                            
ram:0001e082    30b9            cbnz        param_1,LAB_0001e092                    
ram:0001e084    03e0            b           LAB_0001e08e                            
                            LAB_0001e086:                 ;XREF[1,0]:   0001e080
ram:0001e086    06a8            add         param_1,sp,#0x18                        
ram:0001e088    00f05afe        bl          FUN_0001ed40                            ;undefined4 FUN_0001ed40(undefined4 *...
ram:0001e08c    18b9            cbnz        param_1,LAB_0001e096                    
                            LAB_0001e08e:                 ;XREF[1,0]:   0001e084
ram:0001e08e    0698            ldr         param_1,[sp,#local_28+0x40]             
ram:0001e090    08b1            cbz         param_1,LAB_0001e096                    
                            LAB_0001e092:                 ;XREF[1,0]:   0001e082
ram:0001e092    2770            strb        r7,[r4,#0x0]=>DAT_200020a8              
ram:0001e094    c0e0            b           LAB_0001e218                            
                            LAB_0001e096:                 ;XREF[2,0]:   0001e08c,0001e090
ram:0001e096    fff7b7ff        bl          FUN_0001e008                            ;undefined FUN_0001e008(void)
ram:0001e09a    6a4d            ldr         r5,[DAT_0001e244]                       ;= 2000263Ch
ram:0001e09c    dff8a081        ldr.w       r8,[DAT_0001e240]                       ;= 200020A8h
ram:0001e0a0    4ff0020a        mov.w       r10,#0x2                                
ram:0001e0a4    6878            ldrb        param_1,[r5,#0x1]=>DAT_2000263d         
ram:0001e0a6    08f11808        add.w       r8,r8,#0x18                             
ram:0001e0aa    4ff0030b        mov.w       r11,#0x3                                
ram:0001e0ae    10b1            cbz         param_1,LAB_0001e0b6                    
ram:0001e0b0    6079            ldrb        param_1,[r4,#0x5]=>DAT_200020ad         
ram:0001e0b2    0128            cmp         param_1,#0x1                            
ram:0001e0b4    06d0            beq         LAB_0001e0c4                            
                            LAB_0001e0b6:                 ;XREF[1,0]:   0001e0ae
ram:0001e0b6    a878            ldrb        param_1,[r5,#0x2]=>DAT_2000263e         
ram:0001e0b8    58b1            cbz         param_1,LAB_0001e0d2                    
ram:0001e0ba    6079            ldrb        param_1,[r4,#0x5]=>DAT_200020ad         
ram:0001e0bc    0128            cmp         param_1,#0x1                            
ram:0001e0be    01d0            beq         LAB_0001e0c4                            
ram:0001e0c0    0228            cmp         param_1,#0x2                            
ram:0001e0c2    1fd1            bne         LAB_0001e104                            
                            LAB_0001e0c4:                 ;XREF[2,0]:   0001e0b4,0001e0be
ram:0001e0c4    e168            ldr         r1,[r4,#0xc]=>DAT_200020b4              
ram:0001e0c6    19b1            cbz         r1,LAB_0001e0d0                         
ram:0001e0c8    e770            strb        r7,[r4,#0x3]=>DAT_200020ab              
ram:0001e0ca    0820            movs        param_1,#0x8                            
ram:0001e0cc    8847            blx         r1                                      
ram:0001e0ce    00e0            b           LAB_0001e0d2                            
                            LAB_0001e0d0:                 ;XREF[1,0]:   0001e0c6
ram:0001e0d0    e670            strb        r6,[r4,#0x3]=>DAT_200020ab              
                            LAB_0001e0d2:                 ;XREF[2,0]:   0001e0b8,0001e0ce
ram:0001e0d2    6079            ldrb        param_1,[r4,#0x5]=>DAT_200020ad         
ram:0001e0d4    0128            cmp         param_1,#0x1                            
ram:0001e0d6    06d1            bne         LAB_0001e0e6                            
ram:0001e0d8    6878            ldrb        param_1,[r5,#0x1]=>DAT_2000263d         
ram:0001e0da    40b1            cbz         param_1,LAB_0001e0ee                    
ram:0001e0dc    08f10100        add.w       param_1,r8,#0x1                         
ram:0001e0e0    01f090fc        bl          FUN_0001fa04                            ;undefined4 FUN_0001fa04(int param_1)
ram:0001e0e4    18b1            cbz         param_1,LAB_0001e0ee                    
                            LAB_0001e0e6:                 ;XREF[1,0]:   0001e0d6
ram:0001e0e6    6079            ldrb        param_1,[r4,#0x5]=>DAT_200020ad         
ram:0001e0e8    0228            cmp         param_1,#0x2                            
ram:0001e0ea    02d0            beq         LAB_0001e0f2                            
ram:0001e0ec    0ae0            b           LAB_0001e104                            
                            LAB_0001e0ee:                 ;XREF[2,0]:   0001e0da,0001e0e4
ram:0001e0ee    84f805a0        strb.w      r10,[r4,#0x5]=>DAT_200020ad             
                            LAB_0001e0f2:                 ;XREF[1,0]:   0001e0ea
ram:0001e0f2    a878            ldrb        param_1,[r5,#0x2]=>DAT_2000263e         
ram:0001e0f4    20b1            cbz         param_1,LAB_0001e100                    
ram:0001e0f6    08f10100        add.w       param_1,r8,#0x1                         
ram:0001e0fa    01f083fc        bl          FUN_0001fa04                            ;undefined4 FUN_0001fa04(int param_1)
ram:0001e0fe    08b9            cbnz        param_1,LAB_0001e104                    
                            LAB_0001e100:                 ;XREF[1,0]:   0001e0f4
ram:0001e100    84f805b0        strb.w      r11,[r4,#0x5]=>DAT_200020ad             
                            LAB_0001e104:                 ;XREF[3,0]:   0001e0c2,0001e0ec,0001e0fe
ram:0001e104    287b            ldrb        param_1,[r5,#0xc]=>DAT_20002648         
ram:0001e106    4ff00409        mov.w       r9,#0x4                                 
ram:0001e10a    20b9            cbnz        param_1,LAB_0001e116                    
ram:0001e10c    6079            ldrb        param_1,[r4,#0x5]=>DAT_200020ad         
ram:0001e10e    0328            cmp         param_1,#0x3                            
ram:0001e110    01d1            bne         LAB_0001e116                            
ram:0001e112    84f80590        strb.w      r9,[r4,#0x5]=>DAT_200020ad              
                            LAB_0001e116:                 ;XREF[2,0]:   0001e10a,0001e110
ram:0001e116    287e            ldrb        param_1,[r5,#0x18]=>DAT_20002654        
ram:0001e118    20b9            cbnz        param_1,LAB_0001e124                    
ram:0001e11a    6079            ldrb        param_1,[r4,#0x5]=>DAT_200020ad         
ram:0001e11c    0428            cmp         param_1,#0x4                            
ram:0001e11e    01d1            bne         LAB_0001e124                            
ram:0001e120    6671            strb        r6,[r4,#0x5]=>DAT_200020ad              
ram:0001e122    2671            strb        r6,[r4,#0x4]=>DAT_200020ac              
                            LAB_0001e124:                 ;XREF[2,0]:   0001e118,0001e11e
ram:0001e124    e168            ldr         r1,[r4,#0xc]=>DAT_200020b4              
ram:0001e126    41b1            cbz         r1,LAB_0001e13a                         
ram:0001e128    6079            ldrb        param_1,[r4,#0x5]=>DAT_200020ad         
ram:0001e12a    0328            cmp         param_1,#0x3                            
ram:0001e12c    01d0            beq         LAB_0001e132                            
ram:0001e12e    0428            cmp         param_1,#0x4                            
ram:0001e130    03d1            bne         LAB_0001e13a                            
                            LAB_0001e132:                 ;XREF[1,0]:   0001e12c
ram:0001e132    2878            ldrb        param_1,[r5,#0x0]=>DAT_2000263c         
ram:0001e134    08b1            cbz         param_1,LAB_0001e13a                    
ram:0001e136    6078            ldrb        param_1,[r4,#0x1]=>DAT_200020a9         
ram:0001e138    c0b1            cbz         param_1,LAB_0001e16c                    
                            LAB_0001e13a:                 ;XREF[3,0]:   0001e126,0001e130,0001e134
ram:0001e13a    a670            strb        r6,[r4,#0x2]=>DAT_200020aa              
                            LAB_0001e13c:                 ;XREF[1,0]:   0001e172
ram:0001e13c    1821            movs        r1,#0x18                                
ram:0001e13e    6846            mov         param_1,sp                              
ram:0001e140    fef7cff9        bl          FUN_0001c4e2                            ;undefined FUN_0001c4e2(undefined * p...
ram:0001e144    8df80060        strb.w      r6,[sp,#0x0]=>local_40                  
ram:0001e148    0196            str         r6,[sp,#local_3c+0x40]                  
ram:0001e14a    8df80860        strb.w      r6,[sp,#local_38+0x40]                  
ram:0001e14e    0396            str         r6,[sp,#local_34+0x40]                  
ram:0001e150    6079            ldrb        param_1,[r4,#0x5]=>DAT_200020ad         
ram:0001e152    0128            cmp         param_1,#0x1                            
ram:0001e154    0ed0            beq         LAB_0001e174                            
ram:0001e156    0228            cmp         param_1,#0x2                            
ram:0001e158    16d0            beq         LAB_0001e188                            
ram:0001e15a    3a4e            ldr         r6,[DAT_0001e244]                       ;= 2000263Ch
ram:0001e15c    2436            adds        r6,#0x24                                
ram:0001e15e    a6f15c07        sub.w       r7,r6,#0x5c                             
ram:0001e162    0328            cmp         param_1,#0x3                            
ram:0001e164    1dd0            beq         LAB_0001e1a2                            
ram:0001e166    0428            cmp         param_1,#0x4                            
ram:0001e168    4cd1            bne         LAB_0001e204                            
ram:0001e16a    3ae0            b           LAB_0001e1e2                            
                            LAB_0001e16c:                 ;XREF[1,0]:   0001e138
ram:0001e16c    a770            strb        r7,[r4,#0x2]=>DAT_200020aa              
ram:0001e16e    0720            movs        param_1,#0x7                            
ram:0001e170    8847            blx         r1                                      
ram:0001e172    e3e7            b           LAB_0001e13c                            
                            LAB_0001e174:                 ;XREF[1,0]:   0001e154
ram:0001e174    adf81260        strh.w      r6,[sp,#local_2e+0x40]                  
ram:0001e178    cdf80480        str.w       r8=>DAT_200020c0,[sp,#local_3c+0x40]    
ram:0001e17c    8df80070        strb.w      r7,[sp,#0x0]=>local_40                  
ram:0001e180    adf81060        strh.w      r6,[sp,#local_30+0x40]                  
ram:0001e184    2771            strb        r7,[r4,#0x4]=>DAT_200020ac              
ram:0001e186    3fe0            b           LAB_0001e208                            
                            LAB_0001e188:                 ;XREF[1,0]:   0001e158
ram:0001e188    cdf80480        str.w       r8=>DAT_200020c0,[sp,#local_3c+0x40]    
ram:0001e18c    8df80070        strb.w      r7,[sp,#0x0]=>local_40                  
ram:0001e190    2889            ldrh        param_1,[r5,#0x8]=>DAT_20002644         
ram:0001e192    adf81200        strh.w      param_1,[sp,#local_2e+0x40]             
ram:0001e196    a888            ldrh        param_1,[r5,#0x4]=>DAT_20002640         
ram:0001e198    adf81000        strh.w      param_1,[sp,#local_30+0x40]             
ram:0001e19c    84f804a0        strb.w      r10,[r4,#0x4]=>DAT_200020ac             
ram:0001e1a0    32e0            b           LAB_0001e208                            
                            LAB_0001e1a2:                 ;XREF[1,0]:   0001e164
ram:0001e1a2    a88a            ldrh        param_1,[r5,#0x14]=>DAT_20002650        
ram:0001e1a4    adf81200        strh.w      param_1,[sp,#local_2e+0x40]             
ram:0001e1a8    288a            ldrh        param_1,[r5,#0x10]=>DAT_2000264c        
ram:0001e1aa    adf81000        strh.w      param_1,[sp,#local_30+0x40]             
ram:0001e1ae    2548            ldr         param_1,[DAT_0001e244]                  ;= 2000263Ch
ram:0001e1b0    2430            adds        param_1=>DAT_20002660,#0x24             
ram:0001e1b2    02f05ff9        bl          FUN_00020474                            ;char FUN_00020474(int param_1)
ram:0001e1b6    18b1            cbz         param_1,LAB_0001e1c0                    
ram:0001e1b8    2878            ldrb        param_1,[r5,#0x0]=>DAT_2000263c         
ram:0001e1ba    08b1            cbz         param_1,LAB_0001e1c0                    
ram:0001e1bc    6078            ldrb        param_1,[r4,#0x1]=>DAT_200020a9         
ram:0001e1be    10b1            cbz         param_1,LAB_0001e1c6                    
                            LAB_0001e1c0:                 ;XREF[2,0]:   0001e1b6,0001e1ba
ram:0001e1c0    84f804b0        strb.w      r11,[r4,#0x4]=>DAT_200020ac             
ram:0001e1c4    1ee0            b           LAB_0001e204                            
                            LAB_0001e1c6:                 ;XREF[1,0]:   0001e1be
ram:0001e1c6    1f48            ldr         param_1,[DAT_0001e244]                  ;= 2000263Ch
ram:0001e1c8    8df808a0        strb.w      r10,[sp,#local_38+0x40]                 
ram:0001e1cc    0396            str         r6=>DAT_20002660,[sp,#local_34+0x40]    
ram:0001e1ce    87f80390        strb.w      r9,[r7,#0x3]=>DAT_20002607              
ram:0001e1d2    0021            movs        r1,#0x0                                 
ram:0001e1d4    3838            subs        param_1=>DAT_20002604,#0x38             
ram:0001e1d6    fff715fe        bl          FUN_0001de04                            ;char * FUN_0001de04(byte * param_1, ...
ram:0001e1da    0028            cmp         param_1,#0x0                            
ram:0001e1dc    1dd1            bne         LAB_0001e21a                            
ram:0001e1de    0520            movs        param_1,#0x5                            
ram:0001e1e0    2be0            b           LAB_0001e23a                            
                            LAB_0001e1e2:                 ;XREF[1,0]:   0001e16a
ram:0001e1e2    a88b            ldrh        param_1,[r5,#0x1c]=>DAT_20002658        
ram:0001e1e4    adf81000        strh.w      param_1,[sp,#local_30+0x40]             
ram:0001e1e8    288c            ldrh        param_1,[r5,#0x20]=>DAT_2000265c        
ram:0001e1ea    adf81200        strh.w      param_1,[sp,#local_2e+0x40]             
ram:0001e1ee    1548            ldr         param_1,[DAT_0001e244]                  ;= 2000263Ch
ram:0001e1f0    2430            adds        param_1=>DAT_20002660,#0x24             
ram:0001e1f2    02f03ff9        bl          FUN_00020474                            ;char FUN_00020474(int param_1)
ram:0001e1f6    18b1            cbz         param_1,LAB_0001e200                    
ram:0001e1f8    2878            ldrb        param_1,[r5,#0x0]=>DAT_2000263c         
ram:0001e1fa    08b1            cbz         param_1,LAB_0001e200                    
ram:0001e1fc    6078            ldrb        param_1,[r4,#0x1]=>DAT_200020a9         
ram:0001e1fe    78b1            cbz         param_1,LAB_0001e220                    
                            LAB_0001e200:                 ;XREF[2,0]:   0001e1f6,0001e1fa
ram:0001e200    84f80490        strb.w      r9,[r4,#0x4]=>DAT_200020ac              
                            LAB_0001e204:                 ;XREF[3,0]:   0001e168,0001e1c4,0001e23c
ram:0001e204    6079            ldrb        param_1,[r4,#0x5]=>DAT_200020ad         
ram:0001e206    18b1            cbz         param_1,LAB_0001e210                    
                            LAB_0001e208:                 ;XREF[2,0]:   0001e186,0001e1a0
ram:0001e208    6846            mov         param_1,sp                              
ram:0001e20a    73df            svc         0x73                                    
ram:0001e20c    0028            cmp         param_1,#0x0                            
ram:0001e20e    04d1            bne         LAB_0001e21a                            
                            LAB_0001e210:                 ;XREF[1,0]:   0001e206
ram:0001e210    e168            ldr         r1,[r4,#0xc]=>DAT_200020b4              
ram:0001e212    09b1            cbz         r1,LAB_0001e218                         
ram:0001e214    2079            ldrb        param_1,[r4,#0x4]=>DAT_200020ac         
ram:0001e216    8847            blx         r1                                      
                            LAB_0001e218:                 ;XREF[2,0]:   0001e094,0001e212
ram:0001e218    0020            movs        param_1,#0x0                            
                            LAB_0001e21a:                 ;XREF[3,0]:   0001e1dc,0001e20e,0001e236
ram:0001e21a    07b0            add         sp,#0x1c                                
ram:0001e21c    bde8f08f        pop.w       {r4,r5,r6,r7,r8,r9,r10,r11,pc}          
                            LAB_0001e220:                 ;XREF[1,0]:   0001e1fe
ram:0001e220    0848            ldr         param_1,[DAT_0001e244]                  ;= 2000263Ch
ram:0001e222    8df808a0        strb.w      r10,[sp,#local_38+0x40]                 
ram:0001e226    0396            str         r6=>DAT_20002660,[sp,#local_34+0x40]    
ram:0001e228    87f80390        strb.w      r9,[r7,#0x3]=>DAT_20002607              
ram:0001e22c    0021            movs        r1,#0x0                                 
ram:0001e22e    3838            subs        param_1=>DAT_20002604,#0x38             
ram:0001e230    fff7e8fd        bl          FUN_0001de04                            ;char * FUN_0001de04(byte * param_1, ...
ram:0001e234    0028            cmp         param_1,#0x0                            
ram:0001e236    f0d1            bne         LAB_0001e21a                            
ram:0001e238    0620            movs        param_1,#0x6                            
                            LAB_0001e23a:                 ;XREF[1,0]:   0001e1e0
ram:0001e23a    2071            strb        param_1,[r4,#0x4]=>DAT_200020ac         
ram:0001e23c    e2e7            b           LAB_0001e204                            
ram:0001e23e    0000            movs        r0,r0                                   
                            DAT_0001e240:                 ;XREF[2,0]:   0001e06c,0001e09c
ram:0001e240    a8200020        undefined4  200020A8h                               
                            DAT_0001e244:                 ;XREF[6,0]:   0001e09a,0001e15a,0001e1ae,0001e1c6
                                                          ;             0001e1ee,0001e220
ram:0001e244    3c260020        undefined4  2000263Ch                               
                            ;************************************************************************************************
                            ;*                                           FUNCTION                                           *
                            ;************************************************************************************************
                            ;undefined FUN_0001e248(int * param_1)
          ;param_1       int *               r0                      
                                                          ;XREF[1,0]:   0001f168
ram:0001e248    70b5            push        {r4,r5,r6,lr}                           
ram:0001e24a    0546            mov         r5,param_1                              
ram:0001e24c    0146            mov         r1,param_1                              
ram:0001e24e    1c22            movs        r2,#0x1c                                
ram:0001e250    0f48            ldr         param_1,[DAT_0001e290]                  ;= 20002728h
ram:0001e252    fef72df9        bl          FUN_0001c4b0                            ;undefined FUN_0001c4b0(undefined4 * ...
ram:0001e256    0f4c            ldr         r4,[DAT_0001e294]                       ;= 200020C8h
ram:0001e258    0026            movs        r6,#0x0                                 
ram:0001e25a    2670            strb        r6,[r4,#0x0]=>DAT_200020c8              
ram:0001e25c    2868            ldr         param_1,[r5,#0x0]                       
ram:0001e25e    30b1            cbz         param_1,LAB_0001e26e                    
ram:0001e260    0168            ldr         r1,[param_1,#0x0]                       
ram:0001e262    6160            str         r1,[r4,#0x4]=>DAT_200020cc              
ram:0001e264    4068            ldr         param_1,[param_1,#0x4]                  
ram:0001e266    a060            str         param_1,[r4,#0x8]=>DAT_200020d0         
ram:0001e268    201d            adds        param_1=>DAT_200020cc,r4,#0x4           
ram:0001e26a    7adf            svc         0x7a                                    
ram:0001e26c    02e0            b           LAB_0001e274                            
                            LAB_0001e26e:                 ;XREF[1,0]:   0001e25e
ram:0001e26e    0948            ldr         param_1,[DAT_0001e294]                  ;= 200020C8h
ram:0001e270    001d            adds        param_1,param_1,#0x4                    
ram:0001e272    7bdf            svc         0x7b                                    
                            LAB_0001e274:                 ;XREF[1,0]:   0001e26c
ram:0001e274    0028            cmp         param_1,#0x0                            
ram:0001e276    0ad1            bne         LAB_0001e28e                            
ram:0001e278    4ff6ff70        movw        param_1,#0xffff                         
ram:0001e27c    6080            strh        param_1,[r4,#0x2]=>DAT_200020ca         
ram:0001e27e    6670            strb        r6,[r4,#0x1]=>DAT_200020c9              
ram:0001e280    bde87040        pop.w       {r4,r5,r6,lr}                           
ram:0001e284    044a            ldr         r2=>LAB_000202e0...,[PTR_LAB_000202e0...;= 000202e1
ram:0001e286    0021            movs        r1,#0x0                                 
ram:0001e288    0448            ldr         param_1=>DAT_000204d0,[PTR_DAT_0001e29c];= 20002708h
                                                                                    ;= 000204d0
ram:0001e28a    fff737bc        b.w         FUN_0001dafc                            ;undefined4 FUN_0001dafc(int * param_...
                            LAB_0001e28e:                 ;XREF[1,0]:   0001e276
ram:0001e28e    70bd            pop         {r4,r5,r6,pc}                           
                            DAT_0001e290:                 ;XREF[1,0]:   0001e250
ram:0001e290    28270020        undefined4  20002728h                               
                            DAT_0001e294:                 ;XREF[2,0]:   0001e256,0001e26e
ram:0001e294    c8200020        undefined4  200020C8h                               
                            PTR_LAB_000202e0+1+1_0001e298:;XREF[1,0]:   0001e284
ram:0001e298    e1020200        addr        LAB_000202e0+1+1                        
                            PTR_DAT_0001e29c:             ;XREF[1,0]:   0001e288
ram:0001e29c    d0040200        addr        DAT_000204d0                            ;= 20002708h
                            ;************************************************************************************************
                            ;*                                           FUNCTION                                           *
                            ;************************************************************************************************
                            ;undefined FUN_0001e2a0(short * param_1)
          ;param_1       short *             r0                      
          ;local_18      undefined1         -18                      ;XREF[2,0]:   0001ec28,0001ec38
                                                          ;XREF[1,0]:   0001e388
ram:0001e2a0    70b5            push        {r4,r5,r6,lr}                           
ram:0001e2a2    1e4c            ldr         r4,[DAT_0001e31c]                       ;= 20002728h
ram:0001e2a4    0688            ldrh        r6,[param_1,#0x0]                       
ram:0001e2a6    0025            movs        r5,#0x0                                 
ram:0001e2a8    1b49            ldr         r1=>DAT_200020c8,[DAT_0001e318]         ;= 200020C8h
ram:0001e2aa    e289            ldrh        r2,[r4,#0xe]=>DAT_20002736              
ram:0001e2ac    102e            cmp         r6,#0x10                                
ram:0001e2ae    15d0            beq         LAB_0001e2dc                            
ram:0001e2b0    1b4b            ldr         r3=>DAT_000204d0,[PTR_DAT_0001e320]     ;= 20002708h
                                                                                    ;= 000204d0
ram:0001e2b2    112e            cmp         r6,#0x11                                
ram:0001e2b4    1cd0            beq         LAB_0001e2f0                            
ram:0001e2b6    122e            cmp         r6,#0x12                                
ram:0001e2b8    29d0            beq         LAB_0001e30e                            
ram:0001e2ba    502e            cmp         r6,#0x50                                
ram:0001e2bc    17d1            bne         LAB_0001e2ee                            
ram:0001e2be    30f8061f        ldrh.w      r1,[param_1,#0x6]!                      
ram:0001e2c2    9142            cmp         r1,r2                                   
ram:0001e2c4    13d1            bne         LAB_0001e2ee                            
ram:0001e2c6    4189            ldrh        r1,[param_1,#0xa]                       
ram:0001e2c8    0229            cmp         r1,#0x2                                 
ram:0001e2ca    10d1            bne         LAB_0001e2ee                            
ram:0001e2cc    007b            ldrb        param_1,[param_1,#0xc]                  
ram:0001e2ce    10f0010f        tst         param_1,#0x1                            
ram:0001e2d2    11d0            beq         LAB_0001e2f8                            
                            LAB_0001e2d4:                 ;XREF[2,0]:   0001e2ec,0001e316
ram:0001e2d4    bde87040        pop.w       {r4,r5,r6,lr}                           
ram:0001e2d8    00f09abc        b.w         LAB_0001ec10                            
                            LAB_0001e2dc:                 ;XREF[1,0]:   0001e2ae
ram:0001e2dc    8388            ldrh        r3,[param_1,#0x4]                       
ram:0001e2de    4b80            strh        r3,[r1,#0x2]=>DAT_200020ca              
ram:0001e2e0    8369            ldr         r3,[param_1,#0x18]                      
ram:0001e2e2    cb60            str         r3,[r1,#0xc]=>DAT_200020d4              
ram:0001e2e4    c069            ldr         param_1,[param_1,#0x1c]                 
ram:0001e2e6    0861            str         param_1,[r1,#0x10]=>DAT_200020d8        
ram:0001e2e8    4d70            strb        r5,[r1,#0x1]=>DAT_200020c9              
ram:0001e2ea    002a            cmp         r2,#0x0                                 
ram:0001e2ec    f2d0            beq         LAB_0001e2d4                            
                            LAB_0001e2ee:                 ;XREF[5,0]:   0001e2bc,0001e2c4,0001e2ca,0001e300
                                                          ;             0001e306
ram:0001e2ee    70bd            pop         {r4,r5,r6,pc}                           
                            LAB_0001e2f0:                 ;XREF[1,0]:   0001e2b4
ram:0001e2f0    4ff6ff70        movw        param_1,#0xffff                         
ram:0001e2f4    4880            strh        param_1,[r1,#0x2]=>DAT_200020ca         
ram:0001e2f6    4d70            strb        r5,[r1,#0x1]=>DAT_200020c9              
                            LAB_0001e2f8:                 ;XREF[1,0]:   0001e2d2
ram:0001e2f8    1868            ldr         param_1,[r3,#0x0]=>DAT_000204d0         ;= 20002708h
ram:0001e2fa    fff799fc        bl          FUN_0001dc30                            ;undefined4 FUN_0001dc30(int param_1,...
ram:0001e2fe    0028            cmp         param_1,#0x0                            
ram:0001e300    f5d0            beq         LAB_0001e2ee                            
ram:0001e302    a169            ldr         r1,[r4,#0x18]=>DAT_20002740             
ram:0001e304    0029            cmp         r1,#0x0                                 
ram:0001e306    f2d0            beq         LAB_0001e2ee                            
ram:0001e308    bde87040        pop.w       {r4,r5,r6,lr}                           
ram:0001e30c    0847            bx          r1                                      
                            LAB_0001e30e:                 ;XREF[1,0]:   0001e2b8
ram:0001e30e    8268            ldr         r2,[param_1,#0x8]                       
ram:0001e310    ca60            str         r2,[r1,#0xc]=>DAT_200020d4              
ram:0001e312    c068            ldr         param_1,[param_1,#0xc]                  
ram:0001e314    0861            str         param_1,[r1,#0x10]=>DAT_200020d8        
ram:0001e316    dde7            b           LAB_0001e2d4                            
                            DAT_0001e318:                 ;XREF[1,0]:   0001e2a8
ram:0001e318    c8200020        undefined4  200020C8h                               
                            DAT_0001e31c:                 ;XREF[1,0]:   0001e2a2
ram:0001e31c    28270020        undefined4  20002728h                               
                            PTR_DAT_0001e320:             ;XREF[1,0]:   0001e2b0
ram:0001e320    d0040200        addr        DAT_000204d0                            ;= 20002708h
                            ;************************************************************************************************
                            ;*                                           FUNCTION                                           *
                            ;************************************************************************************************
                            ;char * FUN_0001e324(int param_1, ushort * param_2, uint param_3, undefined4 param_4)
          ;param_1       int                 r0                      
          ;param_2       ushort *            r1                      
          ;param_3       uint                r2                      
          ;param_4       undefined4          r3                      
          ;local_13      undefined2         -13                      ;XREF[1,0]:   0001e360
          ;local_17      undefined4         -17                      ;XREF[1,0]:   0001e35a
          ;local_18      undefined1         -18                      ;XREF[1,0]:   0001e36e
                                                          ;XREF[1,0]:   0001d826
ram:0001e324    7cb5            push        {param_3,param_4,r4,r5,r6,lr}           
ram:0001e326    0546            mov         r5,param_1                              
ram:0001e328    0888            ldrh        param_1,[param_2,#0x0]                  
ram:0001e32a    0c46            mov         r4,param_2                              
ram:0001e32c    0930            adds        param_1,#0x9                            
ram:0001e32e    9042            cmp         param_1,param_3                         
ram:0001e330    01d9            bls         LAB_0001e336                            
ram:0001e332    0c20            movs        param_1,#0xc                            
                            LAB_0001e334:                 ;XREF[1,0]:   0001e33c
ram:0001e334    7cbd            pop         {param_3,param_4,r4,r5,r6,pc}           
                            LAB_0001e336:                 ;XREF[1,0]:   0001e330
ram:0001e336    6846            mov         param_1,sp                              
ram:0001e338    71df            svc         0x71                                    
ram:0001e33a    0028            cmp         param_1,#0x0                            
ram:0001e33c    fad1            bne         LAB_0001e334                            
ram:0001e33e    2188            ldrh        param_2,[r4,#0x0]                       
ram:0001e340    0820            movs        param_1,#0x8                            
ram:0001e342    6854            strb        param_1,[r5,param_2]                    
ram:0001e344    2088            ldrh        param_1,[r4,#0x0]                       
ram:0001e346    1b21            movs        param_2,#0x1b                           
ram:0001e348    401c            adds        param_1,param_1,#0x1                    
ram:0001e34a    80b2            uxth        param_1,param_1                         
ram:0001e34c    2080            strh        param_1,[r4,#0x0]                       
ram:0001e34e    2954            strb        param_2,[r5,param_1]                    
ram:0001e350    2088            ldrh        param_1,[r4,#0x0]                       
ram:0001e352    401c            adds        param_1,param_1,#0x1                    
ram:0001e354    80b2            uxth        param_1,param_1                         
ram:0001e356    2080            strh        param_1,[r4,#0x0]                       
ram:0001e358    2844            add         param_1,r5                              
ram:0001e35a    ddf80110        ldr.w       param_2,[sp,#local_17+0x18]             
ram:0001e35e    0160            str         param_2,[param_1,#0x0]                  
ram:0001e360    bdf80510        ldrh.w      param_2,[sp,#local_13+0x18]             
ram:0001e364    8180            strh        param_2,[param_1,#0x4]                  
ram:0001e366    2088            ldrh        param_1,[r4,#0x0]                       
ram:0001e368    801d            adds        param_1,param_1,#0x6                    
ram:0001e36a    80b2            uxth        param_1,param_1                         
ram:0001e36c    2080            strh        param_1,[r4,#0x0]                       
ram:0001e36e    9df80010        ldrb.w      param_2,[sp,#0x0]=>local_18             
ram:0001e372    01b1            cbz         param_2,LAB_0001e376                    
ram:0001e374    0121            movs        param_2,#0x1                            
                            LAB_0001e376:                 ;XREF[1,0]:   0001e372
ram:0001e376    2954            strb        param_2,[r5,param_1]                    
ram:0001e378    2088            ldrh        param_1,[r4,#0x0]                       
ram:0001e37a    401c            adds        param_1,param_1,#0x1                    
ram:0001e37c    2080            strh        param_1,[r4,#0x0]                       
ram:0001e37e    0020            movs        param_1,#0x0                            
ram:0001e380    7cbd            pop         {param_3,param_4,r4,r5,r6,pc}           
ram:0001e382    0000            movs        r0,r0                                   
                            ;************************************************************************************************
                            ;*                                           FUNCTION                                           *
                            ;************************************************************************************************
                            ;undefined FUN_0001e384(short * param_1)
          ;param_1       short *             r0                      
ram:0001e384    10b5            push        {r4,lr}                                 
ram:0001e386    0446            mov         r4,param_1                              
ram:0001e388    fff78aff        bl          FUN_0001e2a0                            ;undefined FUN_0001e2a0(short * param_1)
ram:0001e38c    2146            mov         r1,r4                                   
ram:0001e38e    0748            ldr         param_1,[DAT_0001e3ac]                  ;= 2000257Ch
ram:0001e390    00f040f8        bl          FUN_0001e414                            ;undefined FUN_0001e414(int param_1, ...
ram:0001e394    2046            mov         param_1,r4                              
ram:0001e396    01f0f5fa        bl          FUN_0001f984                            ;undefined FUN_0001f984(short * param_1)
ram:0001e39a    2046            mov         param_1,r4                              
ram:0001e39c    fff7f4fd        bl          FUN_0001df88                            ;undefined FUN_0001df88(short * param_1)
ram:0001e3a0    2046            mov         param_1,r4                              
ram:0001e3a2    bde81040        pop.w       {r4,lr}                                 
ram:0001e3a6    00f0dfb8        b.w         LAB_0001e568                            
ram:0001e3aa    00              ??          00h                                     
ram:0001e3ab    00              ??          00h                                     
                            DAT_0001e3ac:                 ;XREF[1,0]:   0001e38e
ram:0001e3ac    7c250020        undefined4  2000257Ch                               
                            ;************************************************************************************************
                            ;*                                           FUNCTION                                           *
                            ;************************************************************************************************
                            ;undefined8 FUN_0001e3b0(undefined * param_1, undefined4 * param_2)
          ;param_1       undefined *         r0                      
          ;param_2       undefined4 *        r1                      
          ;local_e       undefined1          -e                      ;XREF[1,0]:   0001e3de
          ;local_10      undefined2         -10                      ;XREF[1,0]:   0001e3e4
          ;local_20      undefined4         -20                      ;XREF[1,0]:   0001e3bc
                                                          ;XREF[1,0]:   0001f0de
ram:0001e3b0    30b5            push        {r4,r5,lr}                              
ram:0001e3b2    174b            ldr         r3,[PTR_DAT_0001e410]                   ;= 000204d4
ram:0001e3b4    0d46            mov         r5,param_2                              
ram:0001e3b6    0400            movs        r4,param_1                              
                                                          ; FWD[4,0]:   000204d4,000204d8,000204dc,000204e0
ram:0001e3b8    0fcb            ldmia       r3,{param_1,param_2,r2,r3}=>DAT_000204d4;= 24DCCA9Eh
                                                                                    ;= E0A9E50Eh
                                                                                    ;= B5A3F393h
                                                                                    ;= 6E400000h
ram:0001e3ba    85b0            sub         sp,#0x14                                
ram:0001e3bc    8de80f00        stm         sp=>local_20,{param_1,param_2,r2,r3}    
ram:0001e3c0    23d0            beq         LAB_0001e40a                            
ram:0001e3c2    15b3            cbz         r5,LAB_0001e40a                         
ram:0001e3c4    4ff6ff70        movw        param_1,#0xffff                         
ram:0001e3c8    a082            strh        param_1,[r4,#0x14]                      
ram:0001e3ca    2868            ldr         param_1,[r5,#0x0]                       
ram:0001e3cc    a061            str         param_1,[r4,#0x18]                      
ram:0001e3ce    0020            movs        param_1,#0x0                            
ram:0001e3d0    a075            strb        param_1,[r4,#0x16]                      
ram:0001e3d2    2146            mov         param_2,r4                              
ram:0001e3d4    6846            mov         param_1,sp                              
ram:0001e3d6    63df            svc         0x63                                    
ram:0001e3d8    0028            cmp         param_1,#0x0                            
ram:0001e3da    14d1            bne         LAB_0001e406                            
ram:0001e3dc    2078            ldrb        param_1,[r4,#0x0]                       
ram:0001e3de    8df81200        strb.w      param_1,[sp,#local_e+0x20]              
ram:0001e3e2    0120            movs        param_1,#0x1                            
ram:0001e3e4    adf81000        strh.w      param_1,[sp,#local_10+0x20]             
ram:0001e3e8    a21c            adds        r2,r4,#0x2                              
ram:0001e3ea    04a9            add         param_2,sp,#0x10                        
ram:0001e3ec    a0df            svc         0xa0                                    
ram:0001e3ee    0028            cmp         param_1,#0x0                            
ram:0001e3f0    09d1            bne         LAB_0001e406                            
ram:0001e3f2    2946            mov         param_2,r5                              
ram:0001e3f4    2046            mov         param_1,r4                              
ram:0001e3f6    01f06ffb        bl          FUN_0001fad8                            ;undefined8 FUN_0001fad8(undefined * ...
ram:0001e3fa    0028            cmp         param_1,#0x0                            
ram:0001e3fc    03d1            bne         LAB_0001e406                            
ram:0001e3fe    2946            mov         param_2,r5                              
ram:0001e400    2046            mov         param_1,r4                              
ram:0001e402    01f093fd        bl          FUN_0001ff2c                            ;undefined8 FUN_0001ff2c(undefined * ...
                            LAB_0001e406:                 ;XREF[4,0]:   0001e3da,0001e3f0,0001e3fc,0001e40c
ram:0001e406    05b0            add         sp,#0x14                                
ram:0001e408    30bd            pop         {r4,r5,pc}                              
                            LAB_0001e40a:                 ;XREF[2,0]:   0001e3c0,0001e3c2
ram:0001e40a    0e20            movs        param_1,#0xe                            
ram:0001e40c    fbe7            b           LAB_0001e406                            
ram:0001e40e    0000            movs        r0,r0                                   
                            PTR_DAT_0001e410:             ;XREF[1,0]:   0001e3b2
ram:0001e410    d4040200        addr        DAT_000204d4                            ;= 24DCCA9Eh
                            ;************************************************************************************************
                            ;*                                           FUNCTION                                           *
                            ;************************************************************************************************
                            ;undefined FUN_0001e414(int param_1, short * param_2)
          ;param_1       int                 r0                      
          ;param_2       short *             r1                      
                                                          ;XREF[1,0]:   0001e390
ram:0001e414    0028            cmp         param_1,#0x0                            
ram:0001e416    1ed0            beq         LAB_0001e456                            
ram:0001e418    0029            cmp         param_2,#0x0                            
ram:0001e41a    1cd0            beq         LAB_0001e456                            
ram:0001e41c    0a88            ldrh        r2,[param_2,#0x0]                       
ram:0001e41e    102a            cmp         r2,#0x10                                
ram:0001e420    14d0            beq         LAB_0001e44c                            
ram:0001e422    112a            cmp         r2,#0x11                                
ram:0001e424    14d0            beq         LAB_0001e450                            
ram:0001e426    502a            cmp         r2,#0x50                                
ram:0001e428    15d1            bne         LAB_0001e456                            
ram:0001e42a    31f8062f        ldrh.w      r2,[param_2,#0x6]!                      
ram:0001e42e    038a            ldrh        r3,[param_1,#0x10]                      
ram:0001e430    9a42            cmp         r2,r3                                   
ram:0001e432    02d1            bne         LAB_0001e43a                            
ram:0001e434    4b89            ldrh        r3,[param_2,#0xa]                       
ram:0001e436    022b            cmp         r3,#0x2                                 
ram:0001e438    0ed0            beq         LAB_0001e458                            
                            LAB_0001e43a:                 ;XREF[1,0]:   0001e432
ram:0001e43a    8388            ldrh        r3,[param_1,#0x4]                       
ram:0001e43c    9a42            cmp         r2,r3                                   
ram:0001e43e    0ad1            bne         LAB_0001e456                            
ram:0001e440    8369            ldr         r3,[param_1,#0x18]                      
ram:0001e442    002b            cmp         r3,#0x0                                 
ram:0001e444    07d0            beq         LAB_0001e456                            
ram:0001e446    4a89            ldrh        r2,[param_2,#0xa]                       
ram:0001e448    0c31            adds        param_2,#0xc                            
ram:0001e44a    1847            bx          r3                                      
                            LAB_0001e44c:                 ;XREF[1,0]:   0001e420
ram:0001e44c    8988            ldrh        param_2,[param_2,#0x4]                  
ram:0001e44e    01e0            b           LAB_0001e454                            
                            LAB_0001e450:                 ;XREF[1,0]:   0001e424
ram:0001e450    4ff6ff71        movw        param_2,#0xffff                         
                            LAB_0001e454:                 ;XREF[1,0]:   0001e44e
ram:0001e454    8182            strh        param_2,[param_1,#0x14]                 
                            LAB_0001e456:                 ;XREF[5,0]:   0001e416,0001e41a,0001e428,0001e43e
                                                          ;             0001e444
ram:0001e456    7047            bx          lr                                      
                            LAB_0001e458:                 ;XREF[1,0]:   0001e438
ram:0001e458    097b            ldrb        param_2,[param_2,#0xc]                  
ram:0001e45a    11f00101        ands        param_2,param_2,#0x1                    
ram:0001e45e    00d0            beq         LAB_0001e462                            
ram:0001e460    0121            movs        param_2,#0x1                            
                            LAB_0001e462:                 ;XREF[1,0]:   0001e45e
ram:0001e462    8175            strb        param_2,[param_1,#0x16]                 
ram:0001e464    7047            bx          lr                                      
                            ;************************************************************************************************
                            ;*                                           FUNCTION                                           *
                            ;************************************************************************************************
                            ;undefined8 FUN_0001e466(int param_1, undefined * param_2, ushort param_3)
          ;param_1       int                 r0                      
          ;param_2       undefined *         r1                      
          ;param_3       ushort              r2                      
          ;local_8       undefined2          -8                      ;XREF[1,0]:   0001e47a
          ;local_14      undefined4         -14                      ;XREF[2,0]:   0001e498,0001e49c
          ;local_18      undefined4         -18                      ;XREF[2,0]:   0001e496,0001e4a0
          ;local_1c      undefined4         -1c                      ;XREF[1,0]:   0001e494
          ;local_20      undefined4         -20                      ;XREF[2,1]:   0001e492,0001e4a2,0001e4a8
                                                          ;XREF[2,0]:   0001f944,00020030
ram:0001e466    07b5            push        {param_1,param_2,param_3,lr}            
ram:0001e468    84b0            sub         sp,#0x10                                
ram:0001e46a    68b1            cbz         param_1,LAB_0001e488                    
ram:0001e46c    828a            ldrh        param_3,[param_1,#0x14]                 
ram:0001e46e    a2f57f43        sub.w       r3,param_3,#0xff00                      
ram:0001e472    ff3b            subs        r3,#0xff                                
ram:0001e474    0ad0            beq         LAB_0001e48c                            
ram:0001e476    827d            ldrb        param_3,[param_1,#0x16]                 
ram:0001e478    42b1            cbz         param_3,LAB_0001e48c                    
ram:0001e47a    bdf81820        ldrh.w      param_3,[sp,#local_8+0x20]              
ram:0001e47e    142a            cmp         param_3,#0x14                           
ram:0001e480    06d9            bls         LAB_0001e490                            
ram:0001e482    0720            movs        param_1,#0x7                            
                            LAB_0001e484:                 ;XREF[3,0]:   0001e48a,0001e48e,0001e4b2
ram:0001e484    07b0            add         sp,#0x1c                                
ram:0001e486    00bd            pop         {pc}                                    
                            LAB_0001e488:                 ;XREF[1,0]:   0001e46a
ram:0001e488    0e20            movs        param_1,#0xe                            
ram:0001e48a    fbe7            b           LAB_0001e484                            
                            LAB_0001e48c:                 ;XREF[2,0]:   0001e474,0001e478
ram:0001e48c    0820            movs        param_1,#0x8                            
ram:0001e48e    f9e7            b           LAB_0001e484                            
                            LAB_0001e490:                 ;XREF[1,0]:   0001e480
ram:0001e490    0022            movs        param_3,#0x0                            
ram:0001e492    0092            str         param_3,[sp,#0x0]=>local_20             
ram:0001e494    0192            str         param_3,[sp,#local_1c+0x20]             
ram:0001e496    0292            str         param_3,[sp,#local_18+0x20]             
ram:0001e498    0392            str         param_3,[sp,#local_14+0x20]             
ram:0001e49a    8289            ldrh        param_3,[param_1,#0xc]                  
ram:0001e49c    0391            str         param_2,[sp,#local_14+0x20]             
ram:0001e49e    06a9            add         param_2,sp,#0x18                        
ram:0001e4a0    0291            str         param_2,[sp,#local_18+0x20]             
ram:0001e4a2    adf80020        strh.w      param_3,[sp,#0x0]=>local_20             
ram:0001e4a6    0121            movs        param_2,#0x1                            
ram:0001e4a8    8df80210        strb.w      param_2,[sp,#local_20+0x22]             
ram:0001e4ac    808a            ldrh        param_1,[param_1,#0x14]                 
ram:0001e4ae    6946            mov         param_2,sp                              
ram:0001e4b0    a6df            svc         0xa6                                    
ram:0001e4b2    e7e7            b           LAB_0001e484                            
                            ;************************************************************************************************
                            ;*                                           FUNCTION                                           *
                            ;************************************************************************************************
                            ;undefined FUN_0001e4b4(void)
          ;local_c       undefined4          -c                      ;XREF[1,0]:   0001e4be
                                                          ;XREF[1,0]:   0001f088
ram:0001e4b4    00b5            push        {lr}                                    
ram:0001e4b6    1548            ldr         r0,[PTR_DAT_0001e50c]                   ;= 00020484
ram:0001e4b8    87b0            sub         sp,#0x1c                                
ram:0001e4ba    0023            movs        r3,#0x0                                 
ram:0001e4bc    0068            ldr         r0,[r0,#0x0]=>DAT_00020484              ;= 07000001h
ram:0001e4be    0590            str         r0,[sp,#local_c+0x20]                   
ram:0001e4c0    4822            movs        r2,#0x48                                
ram:0001e4c2    1349            ldr         r1,[DAT_0001e510]                       ;= 20002158h
ram:0001e4c4    05a8            add         r0,sp,#0x14                             
ram:0001e4c6    01f05ffc        bl          FUN_0001fd88                            ;int FUN_0001fd88(int param_1, uint p...
ram:0001e4ca    08b1            cbz         r0,LAB_0001e4d0                         
ram:0001e4cc    fff7e2fa        bl          FUN_0001da94                            ;undefined FUN_0001da94(void)
                            LAB_0001e4d0:                 ;XREF[1,0]:   0001e4ca
ram:0001e4d0    6a46            mov         r2,sp                                   
ram:0001e4d2    0121            movs        r1,#0x1                                 
ram:0001e4d4    0020            movs        r0,#0x0                                 
ram:0001e4d6    01f041fc        bl          FUN_0001fd5c                            ;undefined4 FUN_0001fd5c(int param_1,...
ram:0001e4da    08b1            cbz         r0,LAB_0001e4e0                         
ram:0001e4dc    fff7dafa        bl          FUN_0001da94                            ;undefined FUN_0001da94(void)
                            LAB_0001e4e0:                 ;XREF[1,0]:   0001e4da
ram:0001e4e0    0c48            ldr         r0,[DAT_0001e514]                       ;= 20001FE8h
ram:0001e4e2    01f083fb        bl          FUN_0001fbec                            ;undefined4 FUN_0001fbec(void)
ram:0001e4e6    08b1            cbz         r0,LAB_0001e4ec                         
ram:0001e4e8    fff7d4fa        bl          FUN_0001da94                            ;undefined FUN_0001da94(void)
                            LAB_0001e4ec:                 ;XREF[1,0]:   0001e4e6
ram:0001e4ec    6846            mov         r0,sp                                   
ram:0001e4ee    01f02bfc        bl          FUN_0001fd48                            ;undefined FUN_0001fd48(void)
ram:0001e4f2    08b1            cbz         r0,LAB_0001e4f8                         
ram:0001e4f4    fff7cefa        bl          FUN_0001da94                            ;undefined FUN_0001da94(void)
                            LAB_0001e4f8:                 ;XREF[1,0]:   0001e4f2
ram:0001e4f8    0748            ldr         r0,[DAT_0001e518]                       ;= 0001E385h
ram:0001e4fa    01f01bfc        bl          FUN_0001fd34                            ;undefined4 FUN_0001fd34(int param_1)
ram:0001e4fe    0028            cmp         r0,#0x0                                 
ram:0001e500    01d0            beq         LAB_0001e506                            
ram:0001e502    fff7c7fa        bl          FUN_0001da94                            ;undefined FUN_0001da94(void)
                            LAB_0001e506:                 ;XREF[1,0]:   0001e500
ram:0001e506    07b0            add         sp,#0x1c                                
ram:0001e508    00bd            pop         {pc}                                    
ram:0001e50a    0000            movs        r0,r0                                   
                            PTR_DAT_0001e50c:             ;XREF[1,0]:   0001e4b6
ram:0001e50c    84040200        addr        DAT_00020484                            ;= 07000001h
                            DAT_0001e510:                 ;XREF[1,0]:   0001e4c2
ram:0001e510    58210020        undefined4  20002158h                               
                            DAT_0001e514:                 ;XREF[1,0]:   0001e4e0
ram:0001e514    e81f0020        undefined4  20001FE8h                               
                            DAT_0001e518:                 ;XREF[1,0]:   0001e4f8
ram:0001e518    85e30100        undefined4  0001E385h                               ;?  ->  0001e385
                            ;************************************************************************************************
                            ;*                                           FUNCTION                                           *
                            ;************************************************************************************************
                            ;int FUN_0001e51c(undefined4 param_1, undefined * param_2, undefined4 param_3, undefined4 param_4)
          ;param_1       undefined4          r0                      
          ;param_2       undefined *         r1                      
          ;param_3       undefined4          r2                      
          ;param_4       undefined4          r3                      
          ;local_14      undefined1         -14                      ;XREF[1,0]:   0001e542
          ;local_18      undefined1         -18                      ;XREF[1,0]:   0001e54c
                                                          ;XREF[1,0]:   0001f07e
ram:0001e51c    7cb5            push        {param_3,param_4,r4,r5,r6,lr}           
ram:0001e51e    114e            ldr         r6,[DAT_0001e564]                       ;= 200020A0h
ram:0001e520    0c00            movs        r4,param_2                              
ram:0001e522    4ff00005        mov.w       r5,#0x0                                 
ram:0001e526    3060            str         param_1,[r6,#0x0]=>DAT_200020a0         
ram:0001e528    15d0            beq         LAB_0001e556                            
ram:0001e52a    6946            mov         param_2,sp                              
ram:0001e52c    0020            movs        param_1,#0x0                            
ram:0001e52e    00f0b1f8        bl          FUN_0001e694                            ;undefined4 FUN_0001e694(uint param_1...
ram:0001e532    0028            cmp         param_1,#0x0                            
ram:0001e534    15d1            bne         LAB_0001e562                            
ram:0001e536    01a9            add         param_2,sp,#0x4                         
ram:0001e538    0120            movs        param_1,#0x1                            
ram:0001e53a    00f0abf8        bl          FUN_0001e694                            ;undefined4 FUN_0001e694(uint param_1...
ram:0001e53e    0028            cmp         param_1,#0x0                            
ram:0001e540    0fd1            bne         LAB_0001e562                            
ram:0001e542    9df80410        ldrb.w      param_2=>local_14,[sp,#0x4]             
ram:0001e546    09b1            cbz         param_2,LAB_0001e54c                    
ram:0001e548    0220            movs        param_1,#0x2                            
ram:0001e54a    03e0            b           LAB_0001e554                            
                            LAB_0001e54c:                 ;XREF[1,0]:   0001e546
ram:0001e54c    9df80010        ldrb.w      param_2,[sp,#0x0]=>local_18             
ram:0001e550    01b1            cbz         param_2,LAB_0001e554                    
ram:0001e552    0b20            movs        param_1,#0xb                            
                            LAB_0001e554:                 ;XREF[2,0]:   0001e54a,0001e550
ram:0001e554    2070            strb        param_1,[r4,#0x0]                       
                            LAB_0001e556:                 ;XREF[1,0]:   0001e528
ram:0001e556    7068            ldr         param_1,[r6,#0x4]=>DAT_200020a4         
ram:0001e558    10b9            cbnz        param_1,LAB_0001e560                    
ram:0001e55a    fff713fa        bl          FUN_0001d984                            ;int FUN_0001d984(void)
ram:0001e55e    0546            mov         r5,param_1                              
                            LAB_0001e560:                 ;XREF[1,0]:   0001e558
ram:0001e560    2846            mov         param_1,r5                              
                            LAB_0001e562:                 ;XREF[2,0]:   0001e534,0001e540
ram:0001e562    7cbd            pop         {param_3,param_4,r4,r5,r6,pc}           
                            DAT_0001e564:                 ;XREF[1,0]:   0001e51e
ram:0001e564    a0200020        undefined4  200020A0h                               
                            LAB_0001e568:                 ;XREF[1,0]:   0001e3a6
ram:0001e568    10b5            push        {r4,lr}                                 
ram:0001e56a    1a4c            ldr         r4,[DAT_0001e5d4]                       ;= 200020A0h
ram:0001e56c    0188            ldrh        r1,[param_1,#0x0]                       
ram:0001e56e    6068            ldr         param_1,[r4,#0x4]=>DAT_200020a4         
ram:0001e570    1029            cmp         r1,#0x10                                
ram:0001e572    0ed0            beq         LAB_0001e592                            
ram:0001e574    1129            cmp         r1,#0x11                                
ram:0001e576    2bd1            bne         LAB_0001e5d0                            
ram:0001e578    401e            subs        param_1,param_1,#0x1                    
ram:0001e57a    6060            str         param_1,[r4,#0x4]=>DAT_200020a4         
ram:0001e57c    28d1            bne         LAB_0001e5d0                            
ram:0001e57e    fff701fa        bl          FUN_0001d984                            ;int FUN_0001d984(void)
ram:0001e582    0028            cmp         param_1,#0x0                            
ram:0001e584    24d0            beq         LAB_0001e5d0                            
ram:0001e586    2168            ldr         r1,[r4,#0x0]=>DAT_200020a0              
ram:0001e588    0029            cmp         r1,#0x0                                 
ram:0001e58a    21d0            beq         LAB_0001e5d0                            
ram:0001e58c    bde81040        pop.w       {r4,lr}                                 
ram:0001e590    0847            bx          r1                                      
                            LAB_0001e592:                 ;XREF[1,0]:   0001e572
ram:0001e592    d0b9            cbnz        param_1,LAB_0001e5ca                    
ram:0001e594    0021            movs        r1,#0x0                                 
ram:0001e596    0122            movs        r2,#0x1                                 
ram:0001e598    0846            mov         param_1,r1                              
ram:0001e59a    00f0aff8        bl          FUN_0001e6fc                            ;undefined4 FUN_0001e6fc(uint param_1...
ram:0001e59e    08b1            cbz         param_1,LAB_0001e5a4                    
ram:0001e5a0    0728            cmp         param_1,#0x7                            
ram:0001e5a2    0fd1            bne         LAB_0001e5c4                            
                            LAB_0001e5a4:                 ;XREF[1,0]:   0001e59e
ram:0001e5a4    0722            movs        r2,#0x7                                 
ram:0001e5a6    0221            movs        r1,#0x2                                 
ram:0001e5a8    0120            movs        param_1,#0x1                            
ram:0001e5aa    00f0a7f8        bl          FUN_0001e6fc                            ;undefined4 FUN_0001e6fc(uint param_1...
ram:0001e5ae    08b1            cbz         param_1,LAB_0001e5b4                    
ram:0001e5b0    0728            cmp         param_1,#0x7                            
ram:0001e5b2    07d1            bne         LAB_0001e5c4                            
                            LAB_0001e5b4:                 ;XREF[1,0]:   0001e5ae
ram:0001e5b4    0422            movs        r2,#0x4                                 
ram:0001e5b6    0221            movs        r1,#0x2                                 
ram:0001e5b8    0020            movs        param_1,#0x0                            
ram:0001e5ba    00f09ff8        bl          FUN_0001e6fc                            ;undefined4 FUN_0001e6fc(uint param_1...
ram:0001e5be    20b1            cbz         param_1,LAB_0001e5ca                    
ram:0001e5c0    0728            cmp         param_1,#0x7                            
ram:0001e5c2    02d0            beq         LAB_0001e5ca                            
                            LAB_0001e5c4:                 ;XREF[2,0]:   0001e5a2,0001e5b2
ram:0001e5c4    2168            ldr         r1,[r4,#0x0]=>DAT_200020a0              
ram:0001e5c6    01b1            cbz         r1,LAB_0001e5ca                         
ram:0001e5c8    8847            blx         r1                                      
                            LAB_0001e5ca:                 ;XREF[4,0]:   0001e592,0001e5be,0001e5c2,0001e5c6
ram:0001e5ca    6068            ldr         param_1,[r4,#0x4]=>DAT_200020a4         
ram:0001e5cc    401c            adds        param_1,param_1,#0x1                    
ram:0001e5ce    6060            str         param_1,[r4,#0x4]=>DAT_200020a4         
                            LAB_0001e5d0:                 ;XREF[4,0]:   0001e576,0001e57c,0001e584,0001e58a
ram:0001e5d0    10bd            pop         {r4,pc}                                 
ram:0001e5d2    0000            movs        r0,r0                                   
                            DAT_0001e5d4:                 ;XREF[1,0]:   0001e56a
ram:0001e5d4    a0200020        undefined4  200020A0h                               
                            ;************************************************************************************************
                            ;*                                           FUNCTION                                           *
                            ;************************************************************************************************
                            ;int FUN_0001e5d8(void)
                                                          ;XREF[1,0]:   0001fd1a
ram:0001e5d8    10b5            push        {r4,lr}                                 
ram:0001e5da    0320            movs        r0,#0x3                                 
ram:0001e5dc    00f020fa        bl          FUN_0001ea20                            ;undefined4 FUN_0001ea20(uint param_1)
ram:0001e5e0    08b1            cbz         r0,LAB_0001e5e6                         
ram:0001e5e2    0628            cmp         r0,#0x6                                 
ram:0001e5e4    00d1            bne         LAB_0001e5e8                            
                            LAB_0001e5e6:                 ;XREF[1,0]:   0001e5e0
ram:0001e5e6    0020            movs        r0,#0x0                                 
                            LAB_0001e5e8:                 ;XREF[1,0]:   0001e5e4
ram:0001e5e8    10bd            pop         {r4,pc}                                 
ram:0001e5ea    0000            movs        r0,r0                                   
                            ;************************************************************************************************
                            ;*                                           FUNCTION                                           *
                            ;************************************************************************************************
                            ;undefined FUN_0001e5ec(int param_1, int param_2, undefined4 param_3, undefined4 param_4)
          ;param_1       int                 r0                      
          ;param_2       int                 r1                      
          ;param_3       undefined4          r2                      
          ;param_4       undefined4          r3                      
                                                          ;XREF[1,0]:   0001ea60
ram:0001e5ec    2de9f047        push        {r4,r5,r6,r7,r8,r9,r10,lr}              
ram:0001e5f0    0746            mov         r7,param_1                              
ram:0001e5f2    0024            movs        r4,#0x0                                 
ram:0001e5f4    2448            ldr         param_1=>DAT_000204a0,[PTR_DAT_0001e688];= 0000000Dh
                                                                                    ;= 000204a0
ram:0001e5f6    02e0            b           LAB_0001e5fe                            
                            LAB_0001e5f8:                 ;XREF[1,0]:   0001e604
ram:0001e5f8    641c            adds        r4,r4,#0x1                              
ram:0001e5fa    042c            cmp         r4,#0x4                                 
ram:0001e5fc    41d2            bcs         LAB_0001e682                            
                            LAB_0001e5fe:                 ;XREF[1,0]:   0001e5f6
                                                          ; FWD[2,0]:   000204a0,000204a4
ram:0001e5fe    50f82420        ldr.w       param_3,param_1,r4,offset DAT_000204a...;= 0000000Dh
                                                                                    ;= 0000000Eh
ram:0001e602    ba42            cmp         param_3,r7                              
ram:0001e604    f8d1            bne         LAB_0001e5f8                            
ram:0001e606    042c            cmp         r4,#0x4                                 
ram:0001e608    3bd2            bcs         LAB_0001e682                            
ram:0001e60a    1f48            ldr         param_1,[PTR_DAT_0001e688]              ;= 000204a0
ram:0001e60c    dff87c90        ldr.w       r9,[DAT_0001e68c]                       ;= 2000209Ch
ram:0001e610    1f4e            ldr         r6,[DAT_0001e690]                       ;= 200025D8h
ram:0001e612    0c38            subs        param_1=>DAT_00020494,#0xc              ;= 20002598h
ram:0001e614    a9f11408        sub.w       r8,r9,#0x14                             
ram:0001e618    41b3            cbz         param_2,LAB_0001e66c                    
ram:0001e61a    0129            cmp         param_2,#0x1                            
ram:0001e61c    0fd0            beq         LAB_0001e63e                            
ram:0001e61e    0229            cmp         param_2,#0x2                            
ram:0001e620    2fd1            bne         LAB_0001e682                            
ram:0001e622    04eb4400        add.w       param_1,r4,r4, lsl #0x1                 
ram:0001e626    3044            add         param_1=>DAT_200025d8,r6                
ram:0001e628    4578            ldrb        r5,[param_1,#0x1]=>DAT_200025d9         
                            LAB_0001e62a:                 ;XREF[2,0]:   0001e66a,0001e680
ram:0001e62a    002d            cmp         r5,#0x0                                 
ram:0001e62c    29d0            beq         LAB_0001e682                            
ram:0001e62e    d8f81010        ldr.w       param_2,[r8,#0x10]=>DAT_20002098        
ram:0001e632    0029            cmp         param_2,#0x0                            
ram:0001e634    25d0            beq         LAB_0001e682                            
ram:0001e636    2846            mov         param_1,r5                              
ram:0001e638    bde8f047        pop.w       {r4,r5,r6,r7,r8,r9,r10,lr}              
ram:0001e63c    0847            bx          param_2                                 
                            LAB_0001e63e:                 ;XREF[1,0]:   0001e61c
ram:0001e63e    04eb4401        add.w       param_2,r4,r4, lsl #0x1                 
ram:0001e642    755c            ldrb        r5,[r6,param_2]=>DAT_200025d8           
ram:0001e644    0e44            add         r6,param_2                              
ram:0001e646    7178            ldrb        param_2,[r6,#0x1]=>DAT_200025d9         
ram:0001e648    61b1            cbz         param_2,LAB_0001e664                    
ram:0001e64a    d8f80410        ldr.w       param_2,[r8,#0x4]=>DAT_2000208c         
ram:0001e64e    0f4a            ldr         param_3,[DAT_0001e68c]                  ;= 2000209Ch
ram:0001e650    01eb8101        add.w       param_2,param_2,param_2, lsl #0x2       
ram:0001e654    4900            lsls        param_2,param_2,#0x1                    
ram:0001e656    133a            subs        param_3=>DAT_20002089,#0x13             
ram:0001e658    8068            ldr         param_1,[param_1,#0x8]=>DAT_0002049c    ;= 200025E4h
ram:0001e65a    fff7a9fa        bl          FUN_0001dbb0                            ;undefined4 FUN_0001dbb0(int param_1,...
ram:0001e65e    08b9            cbnz        param_1,LAB_0001e664                    
ram:0001e660    88f80170        strb.w      r7,[r8,#0x1]=>DAT_20002089              
                            LAB_0001e664:                 ;XREF[2,0]:   0001e648,0001e65e
ram:0001e664    b178            ldrb        param_2,[r6,#0x2]=>DAT_200025da         
ram:0001e666    09f80410        strb.w      param_2,r9=>DAT_2000209c,r4,0x0         
ram:0001e66a    dee7            b           LAB_0001e62a                            
                            LAB_0001e66c:                 ;XREF[1,0]:   0001e618
ram:0001e66c    8068            ldr         param_1,[param_1,#0x8]=>DAT_0002049c    ;= 200025E4h
ram:0001e66e    fff7dffa        bl          FUN_0001dc30                            ;undefined4 FUN_0001dc30(int param_1,...
ram:0001e672    04eb4401        add.w       param_2,r4,r4, lsl #0x1                 
ram:0001e676    3144            add         param_2,r6                              
ram:0001e678    19f80400        ldrb.w      param_1,r9=>DAT_2000209c,r4,0x0         
ram:0001e67c    8d78            ldrb        r5,[param_2,#0x2]=>DAT_200025da         
ram:0001e67e    a842            cmp         param_1,r5                              
ram:0001e680    d3d0            beq         LAB_0001e62a                            
                            LAB_0001e682:                 ;XREF[5,0]:   0001e5fc,0001e608,0001e620,0001e62c
                                                          ;             0001e634
ram:0001e682    bde8f087        pop.w       {r4,r5,r6,r7,r8,r9,r10,pc}              
ram:0001e686    00              ??          00h                                     
ram:0001e687    00              ??          00h                                     
                            PTR_DAT_0001e688:             ;XREF[2,0]:   0001e5f4,0001e60a
ram:0001e688    a0040200        addr        DAT_000204a0                            ;= 0000000Dh
                            DAT_0001e68c:                 ;XREF[2,0]:   0001e60c,0001e64e
ram:0001e68c    9c200020        undefined4  2000209Ch                               
                            DAT_0001e690:                 ;XREF[1,0]:   0001e610
ram:0001e690    d8250020        undefined4  200025D8h                               
                            ;************************************************************************************************
                            ;*                                           FUNCTION                                           *
                            ;************************************************************************************************
                            ;undefined4 FUN_0001e694(uint param_1, undefined * param_2)
          ;param_1       uint                r0                      
          ;param_2       undefined *         r1                      
                                                          ;XREF[2,0]:   0001e52e,0001e53a
ram:0001e694    0428            cmp         param_1,#0x4                            
ram:0001e696    0cd2            bcs         LAB_0001e6b2                            
ram:0001e698    074a            ldr         r2,[DAT_0001e6b8]                       ;= 50000510h
ram:0001e69a    1268            ldr         r2,[r2,#0x0]=>DAT_50000510              
ram:0001e69c    074b            ldr         r3,[PTR_DAT_0001e6bc]                   ;= 000204a0
ram:0001e69e    13f82030        ldrb.w      r3=>DAT_000204a0,r3,param_1,0x2         ;= 0000000Dh
ram:0001e6a2    0120            movs        param_1,#0x1                            
ram:0001e6a4    9840            lsls        param_1,r3                              
ram:0001e6a6    9043            bics        param_1,r2                              
ram:0001e6a8    00d0            beq         LAB_0001e6ac                            
ram:0001e6aa    0120            movs        param_1,#0x1                            
                            LAB_0001e6ac:                 ;XREF[2,0]:   0001e6a8,0001e6b4
ram:0001e6ac    0870            strb        param_1,[param_2,#0x0]                  
ram:0001e6ae    0020            movs        param_1,#0x0                            
ram:0001e6b0    7047            bx          lr                                      
                            LAB_0001e6b2:                 ;XREF[1,0]:   0001e696
ram:0001e6b2    0020            movs        param_1,#0x0                            
ram:0001e6b4    fae7            b           LAB_0001e6ac                            
ram:0001e6b6    0000            movs        r0,r0                                   
                            DAT_0001e6b8:                 ;XREF[1,0]:   0001e698
ram:0001e6b8    10050050        undefined4  50000510h                               
                            PTR_DAT_0001e6bc:             ;XREF[1,0]:   0001e69c
ram:0001e6bc    a0040200        addr        DAT_000204a0                            ;= 0000000Dh
                            ;************************************************************************************************
                            ;*                                           FUNCTION                                           *
                            ;************************************************************************************************
                            ;undefined LAB_0001e6c0+1(int param_1)
          ;param_1       int                 r0                      
                                                          ;XREF[0,2]:   0001f068,0001f1a0
ram:0001e6c0    10b5            push        {r4,lr}                                 
ram:0001e6c2    0428            cmp         param_1,#0x4                            
ram:0001e6c4    07d0            beq         LAB_0001e6d6                            
ram:0001e6c6    0728            cmp         param_1,#0x7                            
ram:0001e6c8    10d0            beq         LAB_0001e6ec                            
ram:0001e6ca    0a28            cmp         param_1,#0xa                            
ram:0001e6cc    12d1            bne         LAB_0001e6f4                            
ram:0001e6ce    bde81040        pop.w       {r4,lr}                                 
ram:0001e6d2    01f01bbb        b.w         LAB_0001fd0c                            
                            LAB_0001e6d6:                 ;XREF[1,0]:   0001e6c4
ram:0001e6d6    0848            ldr         param_1,[DAT_0001e6f8]                  ;= 20002080h
ram:0001e6d8    1321            movs        r1,#0x13                                
ram:0001e6da    4088            ldrh        param_1,[param_1,#0x2]=>DAT_20002082    
ram:0001e6dc    76df            svc         0x76                                    
ram:0001e6de    07e0            b           LAB_0001e6f0                            
                            LAB_0001e6e0:                 ;XREF[1,0]:   0001e6f2
ram:0001e6e0    0028            cmp         param_1,#0x0                            
ram:0001e6e2    07d0            beq         LAB_0001e6f4                            
ram:0001e6e4    bde81040        pop.w       {r4,lr}                                 
ram:0001e6e8    fff7d4b9        b.w         FUN_0001da94                            ;undefined FUN_0001da94(void)
                            LAB_0001e6ec:                 ;XREF[1,0]:   0001e6c8
ram:0001e6ec    fff794fc        bl          FUN_0001e018                            ;char * FUN_0001e018(void)
                            LAB_0001e6f0:                 ;XREF[1,0]:   0001e6de
ram:0001e6f0    0828            cmp         param_1,#0x8                            
ram:0001e6f2    f5d1            bne         LAB_0001e6e0                            
                            LAB_0001e6f4:                 ;XREF[2,0]:   0001e6cc,0001e6e2
ram:0001e6f4    10bd            pop         {r4,pc}                                 
ram:0001e6f6    0000            movs        r0,r0                                   
                            DAT_0001e6f8:                 ;XREF[1,0]:   0001e6d6
ram:0001e6f8    80200020        undefined4  20002080h                               
                            ;************************************************************************************************
                            ;*                                           FUNCTION                                           *
                            ;************************************************************************************************
                            ;undefined4 FUN_0001e6fc(uint param_1, int param_2, int param_3)
          ;param_1       uint                r0                      
          ;param_2       int                 r1                      
          ;param_3       int                 r2                      
                                                          ;XREF[7,0]:   0001d98c,0001d99c,0001d9ac,0001e59a
                                                          ;             0001e5aa,0001e5ba,0001e774
ram:0001e6fc    70b5            push        {r4,r5,r6,lr}                           
ram:0001e6fe    0023            movs        r3,#0x0                                 
ram:0001e700    0428            cmp         param_1,#0x4                            
ram:0001e702    10d2            bcs         LAB_0001e726                            
ram:0001e704    0d4d            ldr         r5,[DAT_0001e73c]                       ;= 200025D8h
ram:0001e706    00eb4004        add.w       r4,param_1,param_1, lsl #0x1            
ram:0001e70a    012a            cmp         param_3,#0x1                            
ram:0001e70c    02d1            bne         LAB_0001e714                            
ram:0001e70e    0129            cmp         param_2,#0x1                            
ram:0001e710    0cd0            beq         LAB_0001e72c                            
ram:0001e712    0022            movs        param_3,#0x0                            
                            LAB_0001e714:                 ;XREF[1,0]:   0001e70c
ram:0001e714    094e            ldr         r6,[DAT_0001e73c]                       ;= 200025D8h
ram:0001e716    00eb4000        add.w       param_1,param_1,param_1, lsl #0x1       
ram:0001e71a    3044            add         param_1,r6                              
ram:0001e71c    61b1            cbz         param_2,LAB_0001e738                    
ram:0001e71e    0129            cmp         param_2,#0x1                            
ram:0001e720    06d0            beq         LAB_0001e730                            
ram:0001e722    0229            cmp         param_2,#0x2                            
ram:0001e724    06d0            beq         LAB_0001e734                            
                            LAB_0001e726:                 ;XREF[1,0]:   0001e702
ram:0001e726    0723            movs        r3,#0x7                                 
                            LAB_0001e728:                 ;XREF[3,0]:   0001e732,0001e736,0001e73a
ram:0001e728    1846            mov         param_1,r3                              
ram:0001e72a    70bd            pop         {r4,r5,r6,pc}                           
                            LAB_0001e72c:                 ;XREF[1,0]:   0001e710
ram:0001e72c    0d30            adds        param_1,#0xd                            
ram:0001e72e    c2b2            uxtb        param_3,param_1                         
                            LAB_0001e730:                 ;XREF[1,0]:   0001e720
ram:0001e730    2a55            strb        param_3,[r5,r4]=>DAT_200025d8           
ram:0001e732    f9e7            b           LAB_0001e728                            
                            LAB_0001e734:                 ;XREF[1,0]:   0001e724
ram:0001e734    4270            strb        param_3,[param_1,#0x1]=>DAT_200025d9    
ram:0001e736    f7e7            b           LAB_0001e728                            
                            LAB_0001e738:                 ;XREF[1,0]:   0001e71c
ram:0001e738    8270            strb        param_3,[param_1,#0x2]=>DAT_200025da    
ram:0001e73a    f5e7            b           LAB_0001e728                            
                            DAT_0001e73c:                 ;XREF[2,0]:   0001e704,0001e714
ram:0001e73c    d8250020        undefined4  200025D8h                               
                            ;************************************************************************************************
                            ;*                                           FUNCTION                                           *
                            ;************************************************************************************************
                            ;int FUN_0001e740(uint param_1)
          ;param_1       uint                r0                      
          ;local_28      undefined4         -28                      ;XREF[2,0]:   0001e812,0001e84e
                                                          ;XREF[4,0]:   0001f96a,0001f9b6,0001f9c6,0001fd10
ram:0001e740    044a            ldr         r2,[DAT_0001e754]                       ;= 20002088h
ram:0001e742    0146            mov         r1,param_1                              
ram:0001e744    0020            movs        param_1,#0x0                            
ram:0001e746    127a            ldrb        r2,[r2,#0x8]=>DAT_20002090              
ram:0001e748    d207            lsls        r2,r2,#0x1f                             
ram:0001e74a    02d0            beq         LAB_0001e752                            
ram:0001e74c    0846            mov         param_1,r1                              
ram:0001e74e    00f055b8        b.w         LAB_0001e7fc                            
                            LAB_0001e752:                 ;XREF[1,0]:   0001e74a
ram:0001e752    7047            bx          lr                                      
                            DAT_0001e754:                 ;XREF[1,0]:   0001e740
ram:0001e754    88200020        undefined4  20002088h                               
                            ;************************************************************************************************
                            ;*                                           FUNCTION                                           *
                            ;************************************************************************************************
                            ;undefined FUN_0001e758(uint param_1, uint param_2, undefined4 param_3, uint param_4)
          ;param_1       uint                r0                      
          ;param_2       uint                r1                      
          ;param_3       undefined4          r2                      
          ;param_4       uint                r3                      
                                                          ;XREF[1,0]:   0001f070
ram:0001e758    70b5            push        {r4,r5,r6,lr}                           
ram:0001e75a    0e46            mov         r6,param_2                              
ram:0001e75c    2149            ldr         param_2,[DAT_0001e7e4]                  ;= 20002088h
ram:0001e75e    0546            mov         r5,param_1                              
ram:0001e760    0020            movs        param_1,#0x0                            
ram:0001e762    0a61            str         param_3,[param_2,#0x10]=>DAT_20002098   
                                                          ; FWD[2,0]:   2000208c,20002090
ram:0001e764    c1e90165        strd        r6,r5,[param_2,#0x4]=>DAT_2000208c      
ram:0001e768    a907            lsls        param_2,r5,#0x1e                        
ram:0001e76a    1bd5            bpl         LAB_0001e7a4                            
ram:0001e76c    0024            movs        r4,#0x0                                 
                            LAB_0001e76e:                 ;XREF[1,0]:   0001e780
ram:0001e76e    0122            movs        param_3,#0x1                            
ram:0001e770    1146            mov         param_2,param_3                         
ram:0001e772    2046            mov         param_1,r4                              
ram:0001e774    fff7c2ff        bl          FUN_0001e6fc                            ;undefined4 FUN_0001e6fc(uint param_1...
ram:0001e778    641c            adds        r4,r4,#0x1                              
ram:0001e77a    042c            cmp         r4,#0x4                                 
ram:0001e77c    02d2            bcs         LAB_0001e784                            
ram:0001e77e    0028            cmp         param_1,#0x0                            
ram:0001e780    f5d0            beq         LAB_0001e76e                            
ram:0001e782    0fe0            b           LAB_0001e7a4                            
                            LAB_0001e784:                 ;XREF[1,0]:   0001e77c
ram:0001e784    70b9            cbnz        param_1,LAB_0001e7a4                    
ram:0001e786    7208            lsrs        param_3,r6,#0x1                         
ram:0001e788    0421            movs        param_2,#0x4                            
ram:0001e78a    1748            ldr         param_1=>FUN_000204b0,[->FUN_000204b0]  ;= 000204b0
ram:0001e78c    fff738f9        bl          FUN_0001da00                            ;int FUN_0001da00(int param_1, uint p...
ram:0001e790    40b9            cbnz        param_1,LAB_0001e7a4                    
ram:0001e792    fff723f9        bl          FUN_0001d9dc                            ;undefined4 FUN_0001d9dc(void)
ram:0001e796    28b9            cbnz        param_1,LAB_0001e7a4                    
ram:0001e798    1348            ldr         param_1,[->FUN_000204b0]                ;= 000204b0
ram:0001e79a    144a            ldr         param_3=>LAB_000...,[PTR_LAB_0001ea5c...;= 0001ea5d
ram:0001e79c    0021            movs        param_2,#0x0                            
ram:0001e79e    1438            subs        param_1=>DAT_0002049c,#0x14             ;= 200025E4h
ram:0001e7a0    fff7acf9        bl          FUN_0001dafc                            ;undefined4 FUN_0001dafc(int * param_...
                            LAB_0001e7a4:                 ;XREF[5,0]:   0001e76a,0001e782,0001e784,0001e790
                                                          ;             0001e796
ram:0001e7a4    e907            lsls        param_2,r5,#0x1f                        
ram:0001e7a6    0ad0            beq         LAB_0001e7be                            
ram:0001e7a8    114a            ldr         param_3,[DAT_0001e7f0]                  ;= 50000508h
ram:0001e7aa    4ff4f011        mov.w       param_2,#0x1e0000                       
ram:0001e7ae    1160            str         param_2,[param_3,#0x0]=>DAT_50000508    
ram:0001e7b0    0f4b            ldr         param_4,[DAT_0001e7f0]                  ;= 50000508h
ram:0001e7b2    0022            movs        param_3,#0x0                            
ram:0001e7b4    1b1d            adds        param_4=>DAT_5000050c,param_4,#0x4      
ram:0001e7b6    1a60            str         param_3,[param_4,#0x0]=>DAT_5000050c    
ram:0001e7b8    0d4a            ldr         param_3,[DAT_0001e7f0]                  ;= 50000508h
ram:0001e7ba    1032            adds        param_3,#0x10                           
ram:0001e7bc    1160            str         param_2,[param_3,#0x0]=>DAT_50000518    
                            LAB_0001e7be:                 ;XREF[1,0]:   0001e7a6
ram:0001e7be    0028            cmp         param_1,#0x0                            
ram:0001e7c0    0fd1            bne         LAB_0001e7e2                            
ram:0001e7c2    0948            ldr         param_1,[->FUN_000204b0]                ;= 000204b0
ram:0001e7c4    0b4a            ldr         param_3=>LAB_000...,[PTR_LAB_0001ee8c...;= 0001ee8d
ram:0001e7c6    0021            movs        param_2,#0x0                            
ram:0001e7c8    1c38            subs        param_1=>DAT_00020494,#0x1c             ;= 20002598h
ram:0001e7ca    fff797f9        bl          FUN_0001dafc                            ;undefined4 FUN_0001dafc(int * param_...
ram:0001e7ce    0028            cmp         param_1,#0x0                            
ram:0001e7d0    07d1            bne         LAB_0001e7e2                            
ram:0001e7d2    bde87040        pop.w       {r4,r5,r6,lr}                           
ram:0001e7d6    0448            ldr         param_1,[->FUN_000204b0]                ;= 000204b0
ram:0001e7d8    0121            movs        param_2,#0x1                            
ram:0001e7da    074a            ldr         param_3=>LAB_000...,[PTR_LAB_0001d9bc...;= 0001d9bd
ram:0001e7dc    1838            subs        param_1=>DAT_00020498,#0x18             ;= 200025B8h
ram:0001e7de    fff78db9        b.w         FUN_0001dafc                            ;undefined4 FUN_0001dafc(int * param_...
                            LAB_0001e7e2:                 ;XREF[2,0]:   0001e7c0,0001e7d0
ram:0001e7e2    70bd            pop         {r4,r5,r6,pc}                           
                            DAT_0001e7e4:                 ;XREF[1,0]:   0001e75c
ram:0001e7e4    88200020        undefined4  20002088h                               
                            PTR_FUN_0001e7e8:             ;XREF[4,0]:   0001e78a,0001e798,0001e7c2,0001e7d6
ram:0001e7e8    b0040200        addr        FUN_000204b0                            
                            PTR_LAB_0001ea5c+1+1_0001e7ec:;XREF[1,0]:   0001e79a
ram:0001e7ec    5dea0100        addr        LAB_0001ea5c+1+1                        
                            DAT_0001e7f0:                 ;XREF[3,0]:   0001e7a8,0001e7b0,0001e7b8
ram:0001e7f0    08050050        undefined4  50000508h                               
                            PTR_LAB_0001ee8c+1+1_0001e7f4:;XREF[1,0]:   0001e7c4
ram:0001e7f4    8dee0100        addr        LAB_0001ee8c+1+1                        
                            PTR_LAB_0001d9bc+1+1_0001e7f8:;XREF[1,0]:   0001e7da
ram:0001e7f8    bdd90100        addr        LAB_0001d9bc+1+1                        
                            LAB_0001e7fc:                 ;XREF[2,0]:   0001e74e,0001ee96
ram:0001e7fc    2de9f84f        push        {r3,r4,r5,r6,r7,r8,r9,r10,r11,lr}       
ram:0001e800    854e            ldr         r6,[DAT_0001ea18]                       ;= 20002088h
ram:0001e802    dff810a2        ldr.w       r10,[DAT_0001ea14]                      ;= 50000504h
ram:0001e806    4ff4e01c        mov.w       r12,#0x1c0000                           
ram:0001e80a    f168            ldr         r1,[r6,#0xc]=>DAT_20002094              
ram:0001e80c    0746            mov         r7,param_1                              
ram:0001e80e    2cea010c        bic.w       r12,r12,r1                              
ram:0001e812    0091            str         r1,[sp,#0x0]=>local_28                  
ram:0001e814    0020            movs        param_1,#0x0                            
ram:0001e816    7168            ldr         r1,[r6,#0x4]=>DAT_2000208c              
ram:0001e818    0af10404        add.w       r4,r10,#0x4                             
ram:0001e81c    251d            adds        r5,r4,#0x4                              
ram:0001e81e    7f4b            ldr         r3=>DAT_00020494,[PTR_DAT_0001ea1c]     ;= 20002598h
                                                                                    ;= 00020494
ram:0001e820    4ff40032        mov.w       r2=>LAB_00020000,#LAB_00020000          
ram:0001e824    4ff4802b        mov.w       r11,#0x40000                            
ram:0001e828    01eb810e        add.w       lr,r1,r1, lsl #0x2                      
ram:0001e82c    8146            mov         r9,param_1                              
ram:0001e82e    182f            cmp         r7,#0x18                                
ram:0001e830    16d2            bcs         LAB_0001e860                            
                            switchD:                      ; FWD[16,0]:  0001e836,0001e84e,0001e864,0001e8aa
                                                          ;             0001e8d2,0001e8f6,0001e916,0001e93c
                                                          ;             0001e942,0001e954,0001e976,0001e9ca
                                                          ;             0001e9d8,0001e9e6,0001e9f8,0001ea0a
ram:0001e832    dfe807f0        tbb         [switchD_0001e832::switchdataD_0001e8...;= Ch
                            switchdataD_0001e836:         ;XREF[1,0]:   0001e832
ram:0001e836    0c              db          Ch                                      
ram:0001e837    17              db          17h                                     
ram:0001e838    17              db          17h                                     
ram:0001e839    3a              db          3Ah                                     
ram:0001e83a    4e              db          4Eh                                     
ram:0001e83b    60              db          60h                                     
ram:0001e83c    70              db          70h                                     
ram:0001e83d    83              db          83h                                     
ram:0001e83e    86              db          86h                                     
ram:0001e83f    8f              db          8Fh                                     
ram:0001e840    86              db          86h                                     
ram:0001e841    8f              db          8Fh                                     
ram:0001e842    ea              db          EAh                                     
ram:0001e843    a0              db          A0h                                     
ram:0001e844    a0              db          A0h                                     
ram:0001e845    a0              db          A0h                                     
ram:0001e846    a0              db          A0h                                     
ram:0001e847    a0              db          A0h                                     
ram:0001e848    ca              db          CAh                                     
ram:0001e849    d1              db          D1h                                     
ram:0001e84a    d8              db          D8h                                     
ram:0001e84b    e1              db          E1h                                     
ram:0001e84c    ea              db          EAh                                     
ram:0001e84d    ea              db          EAh                                     
                            caseD_0:                      ;XREF[1,0]:   0001e832
ram:0001e84e    009a            ldr         r2,[sp,#0x0]=>local_28                  
ram:0001e850    4ff4f011        mov.w       r1,#0x1e0000                            
ram:0001e854    9143            bics        r1,r2                                   
ram:0001e856    2160            str         r1,[r4,#0x0]=>DAT_50000508              
ram:0001e858    c5f80090        str.w       r9,[r5,#0x0]=>DAT_5000050c              
ram:0001e85c    86f80090        strb.w      r9,[r6,#0x0]=>DAT_20002088              
                            LAB_0001e860:                 ;XREF[4,0]:   0001e830,0001e996,0001e9c8,0001e9d6
ram:0001e860    bde8f88f        pop.w       {r3,r4,r5,r6,r7,r8,r9,r10,r11,pc}       
                            caseD_2:                      ;XREF[1,0]:   0001e832
                            caseD_1:                      
ram:0001e864    c4f800c0        str.w       r12,[r4,#0x0]=>DAT_50000508             
ram:0001e868    4846            mov         param_1,r9                              
ram:0001e86a    c5f80090        str.w       r9,[r5,#0x0]=>DAT_5000050c              
ram:0001e86e    daf800c0        ldr.w       r12,[r10,#0x0]=>DAT_50000504            
ram:0001e872    8cf4f01c        eor         r12,r12,#0x1e0000                       
ram:0001e876    5fea8c3c        lsls.w      r12,r12,#0xe                            
ram:0001e87a    09d5            bpl         LAB_0001e890                            
ram:0001e87c    2260            str         r2=>LAB_00020000,[r4,#0x0]=>DAT_50000508
ram:0001e87e    2860            str         param_1,[r5,#0x0]=>DAT_5000050c         
ram:0001e880    022f            cmp         r7,#0x2                                 
ram:0001e882    02d1            bne         LAB_0001e88a                            
ram:0001e884    4ff4e160        mov.w       param_1,#0x708                          
ram:0001e888    08e0            b           LAB_0001e89c                            
                            LAB_0001e88a:                 ;XREF[2,0]:   0001e882,0001e8ee
ram:0001e88a    4ff47a60        mov.w       param_1,#0xfa0                          
ram:0001e88e    05e0            b           LAB_0001e89c                            
                            LAB_0001e890:                 ;XREF[1,0]:   0001e87a
ram:0001e890    2a60            str         r2=>LAB_00020000,[r5,#0x0]=>DAT_5000050c
ram:0001e892    2060            str         param_1,[r4,#0x0]=>DAT_50000508         
ram:0001e894    022f            cmp         r7,#0x2                                 
ram:0001e896    3cd0            beq         LAB_0001e912                            
                            LAB_0001e898:                 ;XREF[1,0]:   0001e8f4
ram:0001e898    4ff4c870        mov.w       param_1,#0x190                          
                            LAB_0001e89c:                 ;XREF[4,0]:   0001e888,0001e88e,0001e8ca,0001e914
ram:0001e89c    6422            movs        r2,#0x64                                
ram:0001e89e    b0fbf2f0        udiv        param_1,param_1,r2                      
ram:0001e8a2    4143            muls        r1,param_1                              
ram:0001e8a4    3770            strb        r7,[r6,#0x0]=>DAT_20002088              
ram:0001e8a6    0022            movs        r2,#0x0                                 
ram:0001e8a8    5ee0            b           LAB_0001e968                            
                            caseD_3:                      ;XREF[1,0]:   0001e832
ram:0001e8aa    c4f800c0        str.w       r12,[r4,#0x0]=>DAT_50000508             
ram:0001e8ae    4846            mov         param_1,r9                              
ram:0001e8b0    c5f80090        str.w       r9,[r5,#0x0]=>DAT_5000050c              
ram:0001e8b4    daf800c0        ldr.w       r12,[r10,#0x0]=>DAT_50000504            
ram:0001e8b8    8cf4f01c        eor         r12,r12,#0x1e0000                       
ram:0001e8bc    5fea8c3c        lsls.w      r12,r12,#0xe                            
ram:0001e8c0    04d5            bpl         LAB_0001e8cc                            
ram:0001e8c2    2260            str         r2=>LAB_00020000,[r4,#0x0]=>DAT_50000508
ram:0001e8c4    2860            str         param_1,[r5,#0x0]=>DAT_5000050c         
ram:0001e8c6    4ff44870        mov.w       param_1,#0x320                          
ram:0001e8ca    e7e7            b           LAB_0001e89c                            
                            LAB_0001e8cc:                 ;XREF[2,0]:   0001e8c0,0001e90c
ram:0001e8cc    2a60            str         r2=>LAB_00020000,[r5,#0x0]=>DAT_5000050c
ram:0001e8ce    2060            str         param_1,[r4,#0x0]=>DAT_50000508         
ram:0001e8d0    1fe0            b           LAB_0001e912                            
                            caseD_4:                      ;XREF[1,0]:   0001e832
ram:0001e8d2    c4f800c0        str.w       r12,[r4,#0x0]=>DAT_50000508             
ram:0001e8d6    4846            mov         param_1,r9                              
ram:0001e8d8    c5f80090        str.w       r9,[r5,#0x0]=>DAT_5000050c              
ram:0001e8dc    daf800c0        ldr.w       r12,[r10,#0x0]=>DAT_50000504            
ram:0001e8e0    8cf4f01c        eor         r12,r12,#0x1e0000                       
ram:0001e8e4    5fea8c3c        lsls.w      r12,r12,#0xe                            
ram:0001e8e8    02d5            bpl         LAB_0001e8f0                            
ram:0001e8ea    2260            str         r2=>LAB_00020000,[r4,#0x0]=>DAT_50000508
ram:0001e8ec    2860            str         param_1,[r5,#0x0]=>DAT_5000050c         
ram:0001e8ee    cce7            b           LAB_0001e88a                            
                            LAB_0001e8f0:                 ;XREF[1,0]:   0001e8e8
ram:0001e8f0    2a60            str         r2=>LAB_00020000,[r5,#0x0]=>DAT_5000050c
ram:0001e8f2    2060            str         param_1,[r4,#0x0]=>DAT_50000508         
ram:0001e8f4    d0e7            b           LAB_0001e898                            
                            caseD_5:                      ;XREF[1,0]:   0001e832
ram:0001e8f6    c4f800c0        str.w       r12,[r4,#0x0]=>DAT_50000508             
ram:0001e8fa    4846            mov         param_1,r9                              
ram:0001e8fc    c5f80090        str.w       r9,[r5,#0x0]=>DAT_5000050c              
ram:0001e900    daf800c0        ldr.w       r12,[r10,#0x0]=>DAT_50000504            
ram:0001e904    8cf4f01c        eor         r12,r12,#0x1e0000                       
ram:0001e908    5fea8c3c        lsls.w      r12,r12,#0xe                            
ram:0001e90c    ded5            bpl         LAB_0001e8cc                            
ram:0001e90e    2260            str         r2=>LAB_00020000,[r4,#0x0]=>DAT_50000508
ram:0001e910    2860            str         param_1,[r5,#0x0]=>DAT_5000050c         
                            LAB_0001e912:                 ;XREF[2,0]:   0001e896,0001e8d0
ram:0001e912    c820            movs        param_1,#0xc8                           
ram:0001e914    c2e7            b           LAB_0001e89c                            
                            caseD_6:                      ;XREF[1,0]:   0001e832
ram:0001e916    c4f800c0        str.w       r12,[r4,#0x0]=>DAT_50000508             
ram:0001e91a    4846            mov         param_1,r9                              
ram:0001e91c    c5f80090        str.w       r9,[r5,#0x0]=>DAT_5000050c              
ram:0001e920    daf800c0        ldr.w       r12,[r10,#0x0]=>DAT_50000504            
ram:0001e924    8cf4f01c        eor         r12,r12,#0x1e0000                       
ram:0001e928    5fea8c3c        lsls.w      r12,r12,#0xe                            
ram:0001e92c    02d5            bpl         LAB_0001e934                            
ram:0001e92e    2260            str         r2=>LAB_00020000,[r4,#0x0]=>DAT_50000508
ram:0001e930    2860            str         param_1,[r5,#0x0]=>DAT_5000050c         
ram:0001e932    01e0            b           LAB_0001e938                            
                            LAB_0001e934:                 ;XREF[1,0]:   0001e92c
ram:0001e934    2a60            str         r2=>LAB_00020000,[r5,#0x0]=>DAT_5000050c
ram:0001e936    2060            str         param_1,[r4,#0x0]=>DAT_50000508         
                            LAB_0001e938:                 ;XREF[1,0]:   0001e932
ram:0001e938    3770            strb        r7,[r6,#0x0]=>DAT_20002088              
ram:0001e93a    14e0            b           LAB_0001e966                            
                            caseD_7:                      ;XREF[1,0]:   0001e832
ram:0001e93c    c4f800c0        str.w       r12,[r4,#0x0]=>DAT_50000508             
ram:0001e940    4de0            b           LAB_0001e9de                            
                            caseD_a:                      ;XREF[1,0]:   0001e832
                            caseD_8:                      
ram:0001e942    daf80000        ldr.w       param_1,[r10,#0x0]=>DAT_50000504        
ram:0001e946    2bea0002        bic.w       r2,r11,param_1                          
ram:0001e94a    2260            str         r2,[r4,#0x0]=>DAT_50000508              
ram:0001e94c    00f48020        and         param_1,param_1,#0x40000                
ram:0001e950    2860            str         param_1,[r5,#0x0]=>DAT_5000050c         
ram:0001e952    08e0            b           LAB_0001e966                            
                            caseD_b:                      ;XREF[1,0]:   0001e832
                            caseD_9:                      
ram:0001e954    daf80000        ldr.w       param_1,[r10,#0x0]=>DAT_50000504        
ram:0001e958    2bea0001        bic.w       r1,r11,param_1                          
ram:0001e95c    2160            str         r1,[r4,#0x0]=>DAT_50000508              
ram:0001e95e    00f48020        and         param_1,param_1,#0x40000                
ram:0001e962    2860            str         param_1,[r5,#0x0]=>DAT_5000050c         
ram:0001e964    7146            mov         r1,lr                                   
                            LAB_0001e966:                 ;XREF[2,0]:   0001e93a,0001e952
ram:0001e966    0022            movs        r2,#0x0                                 
                            LAB_0001e968:                 ;XREF[1,0]:   0001e8a8
ram:0001e968    1868            ldr         param_1,[r3,#0x0]=>DAT_00020494         ;= 20002598h
ram:0001e96a    bde8f84f        pop.w       {r3,r4,r5,r6,r7,r8,r9,r10,r11,lr}       
ram:0001e96e    fff71fb9        b.w         FUN_0001dbb0                            ;undefined4 FUN_0001dbb0(int param_1,...
                            LAB_0001e972:                 ;XREF[2,0]:   0001e9f6,0001ea12
ram:0001e972    2160            str         r1,[r4,#0x0]=>DAT_50000508              
ram:0001e974    2ee0            b           LAB_0001e9d4                            
                            caseD_e:                      ;XREF[1,0]:   0001e832
                            caseD_f:                      
                            caseD_10:                     
                            caseD_11:                     
                            caseD_d:                      
ram:0001e976    9846            mov         r8,r3                                   
ram:0001e978    5868            ldr         param_1,[r3,#0x4]=>DAT_00020498         ;= 200025B8h
ram:0001e97a    fff759f9        bl          FUN_0001dc30                            ;undefined4 FUN_0001dc30(int param_1,...
ram:0001e97e    d7f11101        rsbs.w      r1,r7,#0x11                             
ram:0001e982    00d0            beq         LAB_0001e986                            
ram:0001e984    40b1            cbz         param_1,LAB_0001e998                    
                            LAB_0001e986:                 ;XREF[1,0]:   0001e982
ram:0001e986    f168            ldr         r1,[r6,#0xc]=>DAT_20002094              
ram:0001e988    01f4f011        and         r1,r1,#0x1e0000                         
ram:0001e98c    2160            str         r1,[r4,#0x0]=>DAT_50000508              
ram:0001e98e    c5f80090        str.w       r9,[r5,#0x0]=>DAT_5000050c              
ram:0001e992    c6f80c90        str.w       r9,[r6,#0xc]=>DAT_20002094              
ram:0001e996    63e7            b           LAB_0001e860                            
                            LAB_0001e998:                 ;XREF[1,0]:   0001e984
ram:0001e998    4ff40022        mov.w       r2,#0x80000                             
ram:0001e99c    f260            str         r2,[r6,#0xc]=>DAT_20002094              
ram:0001e99e    0129            cmp         r1,#0x1                                 
ram:0001e9a0    0cd9            bls         LAB_0001e9bc                            
ram:0001e9a2    c820            movs        param_1,#0xc8                           
ram:0001e9a4    11fb00f1        smulbb      r1,r1,param_1                           
ram:0001e9a8    6420            movs        param_1,#0x64                           
ram:0001e9aa    b1fbf0f1        udiv        r1,r1,param_1                           
ram:0001e9ae    7068            ldr         param_1,[r6,#0x4]=>DAT_2000208c         
ram:0001e9b0    0022            movs        r2,#0x0                                 
ram:0001e9b2    4143            muls        r1,param_1                              
ram:0001e9b4    d8f80400        ldr.w       param_1,[r8,#0x4]=>DAT_00020498         ;= 200025B8h
ram:0001e9b8    fff7faf8        bl          FUN_0001dbb0                            ;undefined4 FUN_0001dbb0(int param_1,...
                            LAB_0001e9bc:                 ;XREF[1,0]:   0001e9a0
ram:0001e9bc    f168            ldr         r1,[r6,#0xc]=>DAT_20002094              
ram:0001e9be    01f4f011        and         r1,r1,#0x1e0000                         
ram:0001e9c2    2960            str         r1,[r5,#0x0]=>DAT_5000050c              
ram:0001e9c4    c4f80090        str.w       r9,[r4,#0x0]=>DAT_50000508              
ram:0001e9c8    4ae7            b           LAB_0001e860                            
                            caseD_12:                     ;XREF[1,0]:   0001e832
ram:0001e9ca    4ff4f011        mov.w       r1,#0x1e0000                            
ram:0001e9ce    2160            str         r1,[r4,#0x0]=>DAT_50000508              
ram:0001e9d0    c5f80090        str.w       r9,[r5,#0x0]=>DAT_5000050c              
                            LAB_0001e9d4:                 ;XREF[1,0]:   0001e974
ram:0001e9d4    3770            strb        r7,[r6,#0x0]=>DAT_20002088              
ram:0001e9d6    43e7            b           LAB_0001e860                            
                            caseD_13:                     ;XREF[1,0]:   0001e832
ram:0001e9d8    4ff4e011        mov.w       r1,#0x1c0000                            
ram:0001e9dc    2160            str         r1,[r4,#0x0]=>DAT_50000508              
                            LAB_0001e9de:                 ;XREF[1,0]:   0001e940
ram:0001e9de    4946            mov         r1,r9                                   
ram:0001e9e0    c5f80090        str.w       r9,[r5,#0x0]=>DAT_5000050c              
ram:0001e9e4    06e0            b           LAB_0001e9f4                            
                            caseD_14:                     ;XREF[1,0]:   0001e832
ram:0001e9e6    4ff4d011        mov.w       r1,#0x1a0000                            
ram:0001e9ea    2160            str         r1,[r4,#0x0]=>DAT_50000508              
ram:0001e9ec    4946            mov         r1,r9                                   
ram:0001e9ee    c5f80090        str.w       r9,[r5,#0x0]=>DAT_5000050c              
ram:0001e9f2    5a46            mov         r2,r11                                  
                            LAB_0001e9f4:                 ;XREF[2,0]:   0001e9e4,0001ea08
ram:0001e9f4    2a60            str         r2=>LAB_00020000,[r5,#0x0]=>DAT_5000050c
ram:0001e9f6    bce7            b           LAB_0001e972                            
                            caseD_15:                     ;XREF[1,0]:   0001e832
ram:0001e9f8    4ff4c011        mov.w       r1,#0x180000                            
ram:0001e9fc    2160            str         r1,[r4,#0x0]=>DAT_50000508              
ram:0001e9fe    4946            mov         r1,r9                                   
ram:0001ea00    c5f80090        str.w       r9,[r5,#0x0]=>DAT_5000050c              
ram:0001ea04    4ff4c022        mov.w       r2,#0x60000                             
ram:0001ea08    f4e7            b           LAB_0001e9f4                            
                            caseD_16:                     ;XREF[1,0]:   0001e832
                            caseD_17:                     
                            caseD_c:                      
ram:0001ea0a    4ff4f011        mov.w       r1,#0x1e0000                            
ram:0001ea0e    2960            str         r1,[r5,#0x0]=>DAT_5000050c              
ram:0001ea10    4946            mov         r1,r9                                   
ram:0001ea12    aee7            b           LAB_0001e972                            
                            DAT_0001ea14:                 ;XREF[1,0]:   0001e802
ram:0001ea14    04050050        undefined4  50000504h                               
                            DAT_0001ea18:                 ;XREF[1,0]:   0001e800
ram:0001ea18    88200020        undefined4  20002088h                               
                            PTR_DAT_0001ea1c:             ;XREF[1,0]:   0001e81e
ram:0001ea1c    94040200        addr        DAT_00020494                            ;= 20002598h
                            ;************************************************************************************************
                            ;*                                           FUNCTION                                           *
                            ;************************************************************************************************
                            ;undefined4 FUN_0001ea20(uint param_1)
          ;param_1       uint                r0                      
                                                          ;XREF[1,0]:   0001e5dc
ram:0001ea20    70b5            push        {r4,r5,r6,lr}                           
ram:0001ea22    0021            movs        r1,#0x0                                 
ram:0001ea24    0c4d            ldr         r5,[PTR_DAT_0001ea58]                   ;= 000204a0
ram:0001ea26    0124            movs        r4,#0x1                                 
                            LAB_0001ea28:                 ;XREF[1,0]:   0001ea50
                                                          ; FWD[2,0]:   000204a0,000204a4
ram:0001ea28    55f82120        ldr.w       r2,r5,r1,offset DAT_000204a0 >>16       ;= 0000000Dh
                                                                                    ;= 0000000Eh
ram:0001ea2c    9200            lsls        r2,r2,#0x2                              
ram:0001ea2e    02f1a042        add.w       r2,r2,#0x50000000                       
                                                          ; FWD[2,0]:   50000734,50000738
ram:0001ea32    d2f80067        ldr.w       r6,[r2,#0x700]=>DAT_50000734            
ram:0001ea36    04fa01f3        lsl.w       r3,r4,r1                                
ram:0001ea3a    0340            ands        r3,param_1                              
ram:0001ea3c    00d0            beq         LAB_0001ea40                            
ram:0001ea3e    0323            movs        r3,#0x3                                 
                            LAB_0001ea40:                 ;XREF[1,0]:   0001ea3c
ram:0001ea40    26f44036        bic         r6,r6,#0x30000                          
ram:0001ea44    46ea0343        orr.w       r3,r6,r3, lsl #0x10                     
ram:0001ea48    c2f80037        str.w       r3,[r2,#0x700]=>DAT_50000734            
ram:0001ea4c    491c            adds        r1,r1,#0x1                              
ram:0001ea4e    0429            cmp         r1,#0x4                                 
ram:0001ea50    ead3            bcc         LAB_0001ea28                            
ram:0001ea52    0020            movs        param_1,#0x0                            
ram:0001ea54    70bd            pop         {r4,r5,r6,pc}                           
ram:0001ea56    0000            movs        r0,r0                                   
                            PTR_DAT_0001ea58:             ;XREF[1,0]:   0001ea24
ram:0001ea58    a0040200        addr        DAT_000204a0                            ;= 0000000Dh
                            ;************************************************************************************************
                            ;*                                           FUNCTION                                           *
                            ;************************************************************************************************
                            ;undefined LAB_0001ea5c+1(byte * param_1, undefined4 param_2, undefined4 param_3, undefined4 param_4)
          ;param_1       byte *              r0                      
          ;param_2       undefined4          r1                      
          ;param_3       undefined4          r2                      
          ;param_4       undefined4          r3                      
                                                          ;XREF[0,2]:   0001e79a,0001e7ec
ram:0001ea5c    0078            ldrb        param_1,[param_1,#0x0]                  
ram:0001ea5e    0221            movs        param_2,#0x2                            
ram:0001ea60    fff7c4bd        b.w         FUN_0001e5ec                            ;undefined FUN_0001e5ec(int param_1, ...
                            ;************************************************************************************************
                            ;*                                           FUNCTION                                           *
                            ;************************************************************************************************
                            ;undefined FUN_0001ea64(uint param_1)
          ;param_1       uint                r0                      
                                                          ;XREF[1,0]:   0001f4a4
ram:0001ea64    0549            ldr         r1,[DAT_0001ea7c]                       ;= 20002764h
ram:0001ea66    4ff0ff32        mov.w       r2,#0xffffffff                          
ram:0001ea6a    0828            cmp         param_1,#0x8                            
ram:0001ea6c    41f82020        str.w       r2,r1=>DAT_20002764,param_1,0x2         
ram:0001ea70    02d3            bcc         LAB_0001ea78                            
ram:0001ea72    0844            add         param_1,r1                              
ram:0001ea74    80f84820        strb.w      r2,[param_1,#0x48]=>DAT_200027ac        
                            LAB_0001ea78:                 ;XREF[1,0]:   0001ea70
ram:0001ea78    7047            bx          lr                                      
ram:0001ea7a    0000            movs        r0,r0                                   
                            DAT_0001ea7c:                 ;XREF[1,0]:   0001ea64
ram:0001ea7c    64270020        undefined4  20002764h                               
                            ;************************************************************************************************
                            ;*                                           FUNCTION                                           *
                            ;************************************************************************************************
                            ;int FUN_0001ea80(int param_1, undefined4 param_2, int param_3)
          ;param_1       int                 r0                      
          ;param_2       undefined4          r1                      
          ;param_3       int                 r2                      
                                                          ;XREF[1,0]:   0001f3dc
ram:0001ea80    f0b5            push        {r4,r5,r6,r7,lr}                        
ram:0001ea82    4ff0ff35        mov.w       r5,#0xffffffff                          
ram:0001ea86    12b1            cbz         param_3,LAB_0001ea8e                    
ram:0001ea88    0023            movs        r3,#0x0                                 
ram:0001ea8a    0826            movs        r6,#0x8                                 
ram:0001ea8c    01e0            b           LAB_0001ea92                            
                            LAB_0001ea8e:                 ;XREF[1,0]:   0001ea86
ram:0001ea8e    0823            movs        r3,#0x8                                 
ram:0001ea90    0c26            movs        r6,#0xc                                 
                            LAB_0001ea92:                 ;XREF[1,0]:   0001ea8c
ram:0001ea92    0c4c            ldr         r4,[DAT_0001eac4]                       ;= 20002764h
ram:0001ea94    05e0            b           LAB_0001eaa2                            
ram:0001ea96    00bf            nop                                                  
                            LAB_0001ea98:                 ;XREF[1,0]:   0001eaa4
ram:0001ea98    54f82370        ldr.w       r7,r4=>DAT_20002764,r3,0x2              
ram:0001ea9c    7f1c            adds        r7,r7,#0x1                              
ram:0001ea9e    04d0            beq         LAB_0001eaaa                            
ram:0001eaa0    5b1c            adds        r3,r3,#0x1                              
                            LAB_0001eaa2:                 ;XREF[1,0]:   0001ea94
ram:0001eaa2    b342            cmp         r3,r6                                   
ram:0001eaa4    f8d3            bcc         LAB_0001ea98                            
                            LAB_0001eaa6:                 ;XREF[2,0]:   0001eab8,0001eac0
ram:0001eaa6    2846            mov         param_1,r5                              
ram:0001eaa8    f0bd            pop         {r4,r5,r6,r7,pc}                        
                            LAB_0001eaaa:                 ;XREF[1,0]:   0001ea9e
ram:0001eaaa    2618            adds        r6,r4,param_1                           
ram:0001eaac    5db2            sxtb        r5,r3                                   
ram:0001eaae    86f83050        strb.w      r5,[r6,#0x30]=>DAT_20002794             
ram:0001eab2    44f82310        str.w       param_2,r4=>DAT_20002764,r3,0x2         
ram:0001eab6    002a            cmp         param_3,#0x0                            
ram:0001eab8    f5d1            bne         LAB_0001eaa6                            
ram:0001eaba    e118            adds        param_2,r4,r3                           
ram:0001eabc    81f84800        strb.w      param_1,[param_2,#0x48]=>DAT_200027ac   
ram:0001eac0    f1e7            b           LAB_0001eaa6                            
ram:0001eac2    0000            movs        r0,r0                                   
                            DAT_0001eac4:                 ;XREF[1,0]:   0001ea92
ram:0001eac4    64270020        undefined4  20002764h                               
                            ;************************************************************************************************
                            ;*                                           FUNCTION                                           *
                            ;************************************************************************************************
                            ;int FUN_0001eac8(int param_1)
          ;param_1       int                 r0                      
                                                          ;XREF[4,0]:   0001caee,0001f326,0001f362,0001f390
ram:0001eac8    0249            ldr         r1,[DAT_0001ead4]                       ;= 20002764h
ram:0001eaca    0844            add         param_1,r1                              
ram:0001eacc    90f93000        ldrsb.w     param_1,[param_1,#0x30]=>DAT_20002794   
ram:0001ead0    7047            bx          lr                                      
ram:0001ead2    0000            movs        r0,r0                                   
                            DAT_0001ead4:                 ;XREF[1,0]:   0001eac8
ram:0001ead4    64270020        undefined4  20002764h                               
                            ;************************************************************************************************
                            ;*                                           FUNCTION                                           *
                            ;************************************************************************************************
                            ;undefined FUN_0001ead8(void)
                                                          ;XREF[1,0]:   0001fe36
ram:0001ead8    2de9f05f        push        {r4,r5,r6,r7,r8,r9,r10,r11,r12,lr}      
ram:0001eadc    2648            ldr         r0=>DAT_2000211c,[DAT_0001eb78]         ;= 2000211Ch
ram:0001eade    c168            ldr         r1,[r0,#0xc]=>DAT_20002128              
ram:0001eae0    f1b3            cbz         r1,LAB_0001eb60                         
ram:0001eae2    dff898b0        ldr.w       r11,[DAT_0001eb7c]                      ;= 40011504h
ram:0001eae6    0e68            ldr         r6,[r1,#0x0]                            
ram:0001eae8    8146            mov         r9,r0                                   
ram:0001eaea    dbf80040        ldr.w       r4,[r11,#0x0]=>DAT_40011504             
ram:0001eaee    0769            ldr         r7,[r0,#0x10]=>DAT_2000212c             
ram:0001eaf0    c078            ldrb        r0,[r0,#0x3]=>DAT_2000211f              
ram:0001eaf2    e11b            subs        r1,r4,r7                                
ram:0001eaf4    21f07f45        bic         r5,r1,#0xff000000                       
ram:0001eaf8    ed1c            adds        r5,r5,#0x3                              
ram:0001eafa    b0b9            cbnz        r0,LAB_0001eb2a                         
ram:0001eafc    dff88080        ldr.w       r8,[DAT_0001eb80]                       ;= 40011000h
ram:0001eb00    4ff48030        mov.w       r0,#0x10000                             
ram:0001eb04    c8f84403        str.w       r0,[r8,#0x344]=>DAT_40011344            
ram:0001eb08    c8f80403        str.w       r0,[r8,#0x304]=>DAT_40011304            
ram:0001eb0c    1120            movs        r0,#0x11                                
ram:0001eb0e    fef737f8        bl          FUN_0001cb80                            ;undefined FUN_0001cb80(uint param_1)
ram:0001eb12    1120            movs        r0,#0x11                                
ram:0001eb14    fef73ff8        bl          FUN_0001cb96                            ;undefined FUN_0001cb96(uint param_1)
ram:0001eb18    4ff0010a        mov.w       r10,#0x1                                
ram:0001eb1c    c8f800a0        str.w       r10,[r8,#0x0]=>DAT_40011000             
ram:0001eb20    2f20            movs        r0,#0x2f                                
ram:0001eb22    fdf777fc        bl          FUN_0001c414                            ;undefined FUN_0001c414(int param_1)
ram:0001eb26    89f803a0        strb.w      r10,[r9,#0x3]=>DAT_2000211f             
                            LAB_0001eb2a:                 ;XREF[1,0]:   0001eafa
ram:0001eb2a    b542            cmp         r5,r6                                   
ram:0001eb2c    00d2            bcs         LAB_0001eb30                            
ram:0001eb2e    3546            mov         r5,r6                                   
                            LAB_0001eb30:                 ;XREF[1,0]:   0001eb2c
ram:0001eb30    124b            ldr         r3,[DAT_0001eb7c]                       ;= 40011504h
ram:0001eb32    e819            adds        r0,r5,r7                                
ram:0001eb34    3c33            adds        r3=>DAT_40011540,#0x3c                  
ram:0001eb36    20f07f40        bic         r0,r0,#0xff000000                       
ram:0001eb3a    1860            str         r0,[r3,#0x0]=>DAT_40011540              
ram:0001eb3c    dbf80010        ldr.w       r1,[r11,#0x0]=>DAT_40011504             
ram:0001eb40    5a46            mov         r2=>DAT_40011504,r11                    
ram:0001eb42    091b            subs        r1,r1,r4                                
ram:0001eb44    21f07f41        bic         r1,r1,#0xff000000                       
ram:0001eb48    001b            subs        r0,r0,r4                                
ram:0001eb4a    20f07f40        bic         r0,r0,#0xff000000                       
ram:0001eb4e    c91c            adds        r1,r1,#0x3                              
ram:0001eb50    8142            cmp         r1,r0                                   
ram:0001eb52    0fd9            bls         LAB_0001eb74                            
ram:0001eb54    1068            ldr         r0,[r2,#0x0]=>DAT_40011504              
ram:0001eb56    1860            str         r0,[r3,#0x0]=>DAT_40011540              
ram:0001eb58    2f20            movs        r0,#0x2f                                
ram:0001eb5a    fdf75bfc        bl          FUN_0001c414                            ;undefined FUN_0001c414(int param_1)
ram:0001eb5e    00e0            b           LAB_0001eb62                            
                            LAB_0001eb60:                 ;XREF[1,0]:   0001eae0
ram:0001eb60    04e0            b           LAB_0001eb6c                            
                            LAB_0001eb62:                 ;XREF[1,0]:   0001eb5e
ram:0001eb62    bde8f05f        pop.w       {r4,r5,r6,r7,r8,r9,r10,r11,r12,lr}      
ram:0001eb66    1120            movs        r0,#0x11                                
ram:0001eb68    fef720b8        b.w         FUN_0001cbac                            ;undefined FUN_0001cbac(uint param_1)
                            LAB_0001eb6c:                 ;XREF[1,0]:   0001eb60
ram:0001eb6c    bde8f05f        pop.w       {r4,r5,r6,r7,r8,r9,r10,r11,r12,lr}      
ram:0001eb70    00f07cbf        b.w         FUN_0001fa6c                            ;undefined FUN_0001fa6c(void)
                            LAB_0001eb74:                 ;XREF[1,0]:   0001eb52
ram:0001eb74    bde8f09f        pop.w       {r4,r5,r6,r7,r8,r9,r10,r11,r12,pc}      
                            DAT_0001eb78:                 ;XREF[1,0]:   0001eadc
ram:0001eb78    1c210020        undefined4  2000211Ch                               
                            DAT_0001eb7c:                 ;XREF[2,0]:   0001eae2,0001eb30
ram:0001eb7c    04150140        undefined4  40011504h                               
                            DAT_0001eb80:                 ;XREF[1,0]:   0001eafc
ram:0001eb80    00100140        undefined4  40011000h                               
                            ;************************************************************************************************
                            ;*                                           FUNCTION                                           *
                            ;************************************************************************************************
                            ;undefined4 FUN_0001eb84(ushort * param_1, int param_2, ushort * param_3, uint param_4)
          ;param_1       ushort *            r0                      
          ;param_2       int                 r1                      
          ;param_3       ushort *            r2                      
          ;param_4       uint                r3                      
                                                          ;XREF[1,0]:   0001d93c
ram:0001eb84    2de9f041        push        {r4,r5,r6,r7,r8,lr}                     
ram:0001eb88    1788            ldrh        r7,[param_3,#0x0]                       
ram:0001eb8a    0646            mov         r6,param_1                              
ram:0001eb8c    b81d            adds        param_1,r7,#0x6                         
ram:0001eb8e    1446            mov         r4,param_3                              
ram:0001eb90    0d46            mov         r5,param_2                              
ram:0001eb92    9842            cmp         param_1,param_4                         
ram:0001eb94    02d9            bls         LAB_0001eb9c                            
ram:0001eb96    0c20            movs        param_1,#0xc                            
                            LAB_0001eb98:                 ;XREF[2,0]:   0001ebbc,0001ec0a
ram:0001eb98    bde8f081        pop.w       {r4,r5,r6,r7,r8,pc}                     
                            LAB_0001eb9c:                 ;XREF[1,0]:   0001eb94
ram:0001eb9c    3188            ldrh        param_2,[r6,#0x0]                       
ram:0001eb9e    0722            movs        param_3,#0x7                            
ram:0001eba0    0629            cmp         param_2,#0x6                            
ram:0001eba2    0ad3            bcc         LAB_0001ebba                            
ram:0001eba4    4ff4486c        mov.w       r12,#0xc80                              
ram:0001eba8    4ff6ff73        movw        param_4,#0xffff                         
ram:0001ebac    6145            cmp         param_2,r12                             
ram:0001ebae    01d9            bls         LAB_0001ebb4                            
ram:0001ebb0    9942            cmp         param_2,param_4                         
ram:0001ebb2    02d1            bne         LAB_0001ebba                            
                            LAB_0001ebb4:                 ;XREF[1,0]:   0001ebae
ram:0001ebb4    7088            ldrh        param_1,[r6,#0x2]                       
ram:0001ebb6    0628            cmp         param_1,#0x6                            
ram:0001ebb8    01d2            bcs         LAB_0001ebbe                            
                            LAB_0001ebba:                 ;XREF[4,0]:   0001eba2,0001ebb2,0001ebc4,0001ebd0
ram:0001ebba    1046            mov         param_1,param_3                         
ram:0001ebbc    ece7            b           LAB_0001eb98                            
                            LAB_0001ebbe:                 ;XREF[1,0]:   0001ebb8
ram:0001ebbe    6045            cmp         param_1,r12                             
ram:0001ebc0    01d9            bls         LAB_0001ebc6                            
ram:0001ebc2    9842            cmp         param_1,param_4                         
ram:0001ebc4    f9d1            bne         LAB_0001ebba                            
                            LAB_0001ebc6:                 ;XREF[1,0]:   0001ebc0
ram:0001ebc6    9942            cmp         param_2,param_4                         
ram:0001ebc8    03d0            beq         LAB_0001ebd2                            
ram:0001ebca    9842            cmp         param_1,param_4                         
ram:0001ebcc    01d0            beq         LAB_0001ebd2                            
ram:0001ebce    8142            cmp         param_2,param_1                         
ram:0001ebd0    f3d8            bhi         LAB_0001ebba                            
                            LAB_0001ebd2:                 ;XREF[2,0]:   0001ebc8,0001ebcc
ram:0001ebd2    0520            movs        param_1,#0x5                            
ram:0001ebd4    e855            strb        param_1,[r5,r7]                         
ram:0001ebd6    2088            ldrh        param_1,[r4,#0x0]                       
ram:0001ebd8    1221            movs        param_2,#0x12                           
ram:0001ebda    401c            adds        param_1,param_1,#0x1                    
ram:0001ebdc    80b2            uxth        param_1,param_1                         
ram:0001ebde    2080            strh        param_1,[r4,#0x0]                       
ram:0001ebe0    2954            strb        param_2,[r5,param_1]                    
ram:0001ebe2    2088            ldrh        param_1,[r4,#0x0]                       
ram:0001ebe4    401c            adds        param_1,param_1,#0x1                    
ram:0001ebe6    80b2            uxth        param_1,param_1                         
ram:0001ebe8    2080            strh        param_1,[r4,#0x0]                       
ram:0001ebea    4119            adds        param_2,param_1,r5                      
ram:0001ebec    3088            ldrh        param_1,[r6,#0x0]                       
ram:0001ebee    01f071fb        bl          FUN_000202d4                            ;undefined4 FUN_000202d4(undefined4 p...
ram:0001ebf2    2188            ldrh        param_2,[r4,#0x0]                       
ram:0001ebf4    0844            add         param_1,param_2                         
ram:0001ebf6    80b2            uxth        param_1,param_1                         
ram:0001ebf8    2080            strh        param_1,[r4,#0x0]                       
ram:0001ebfa    4119            adds        param_2,param_1,r5                      
ram:0001ebfc    7088            ldrh        param_1,[r6,#0x2]                       
ram:0001ebfe    01f069fb        bl          FUN_000202d4                            ;undefined4 FUN_000202d4(undefined4 p...
ram:0001ec02    2188            ldrh        param_2,[r4,#0x0]                       
ram:0001ec04    0844            add         param_1,param_2                         
ram:0001ec06    2080            strh        param_1,[r4,#0x0]                       
ram:0001ec08    0020            movs        param_1,#0x0                            
ram:0001ec0a    c5e7            b           LAB_0001eb98                            
                            ;************************************************************************************************
                            ;*                                           FUNCTION                                           *
                            ;************************************************************************************************
                            ;undefined thunk_FUN_0001da94(void)
                                                          ;XREF[0,2]:   0001f15c,0001f1c4
ram:0001ec0c    fef742bf        b.w         FUN_0001da94                            ;undefined FUN_0001da94(void)
                            LAB_0001ec10:                 ;XREF[1,0]:   0001e2d8
ram:0001ec10    f8b5            push        {r3,r4,r5,r6,r7,lr}=>DAT_000204d0       ;= 20002708h
ram:0001ec12    1348            ldr         param_1=>DAT_200020d4,[DAT_0001ec60]    ;= 200020D4h
ram:0001ec14    00f002f9        bl          FUN_0001ee1c                            ;undefined4 FUN_0001ee1c(int param_1)
ram:0001ec18    114d            ldr         r5,[DAT_0001ec60]                       ;= 200020D4h
ram:0001ec1a    0026            movs        r6,#0x0                                 
ram:0001ec1c    114c            ldr         r4,[DAT_0001ec64]                       ;= 20002728h
ram:0001ec1e    0c3d            subs        r5,#0xc                                 
ram:0001ec20    30b1            cbz         param_1,LAB_0001ec30                    
ram:0001ec22    6169            ldr         r1,[r4,#0x14]=>DAT_2000273c             
ram:0001ec24    b9b1            cbz         r1,LAB_0001ec56                         
ram:0001ec26    0120            movs        param_1,#0x1                            
ram:0001ec28    8df80000        strb.w      param_1,[sp,#0x0]=>local_18             
                            LAB_0001ec2c:                 ;XREF[1,0]:   0001ec3c
ram:0001ec2c    6846            mov         param_1,sp                              
ram:0001ec2e    11e0            b           LAB_0001ec54                            
                            LAB_0001ec30:                 ;XREF[1,0]:   0001ec20
ram:0001ec30    2878            ldrb        param_1,[r5,#0x0]=>DAT_200020c8         
ram:0001ec32    20b1            cbz         param_1,LAB_0001ec3e                    
ram:0001ec34    6169            ldr         r1,[r4,#0x14]=>DAT_2000273c             
ram:0001ec36    71b1            cbz         r1,LAB_0001ec56                         
ram:0001ec38    8df80060        strb.w      r6,[sp,#0x0]=>local_18                  
ram:0001ec3c    f6e7            b           LAB_0001ec2c                            
                            LAB_0001ec3e:                 ;XREF[1,0]:   0001ec32
ram:0001ec3e    6878            ldrb        param_1,[r5,#0x1]=>DAT_200020c9         
ram:0001ec40    58b1            cbz         param_1,LAB_0001ec5a                    
ram:0001ec42    a168            ldr         r1,[r4,#0x8]=>DAT_20002730              
                            LAB_0001ec44:                 ;XREF[1,0]:   0001ec5c
ram:0001ec44    0848            ldr         param_1,[PTR_DAT_0001ec68]              ;= 000204d0
ram:0001ec46    0022            movs        r2,#0x0                                 
ram:0001ec48    0068            ldr         param_1,[param_1,#0x0]=>DAT_000204d0    ;= 20002708h
ram:0001ec4a    fef7b1ff        bl          FUN_0001dbb0                            ;undefined4 FUN_0001dbb0(int param_1,...
ram:0001ec4e    10b1            cbz         param_1,LAB_0001ec56                    
ram:0001ec50    a169            ldr         r1,[r4,#0x18]=>DAT_20002740             
ram:0001ec52    01b1            cbz         r1,LAB_0001ec56                         
                            LAB_0001ec54:                 ;XREF[1,0]:   0001ec2e
ram:0001ec54    8847            blx         r1                                      
                            LAB_0001ec56:                 ;XREF[4,0]:   0001ec24,0001ec36,0001ec4e,0001ec52
ram:0001ec56    2e70            strb        r6,[r5,#0x0]=>DAT_200020c8              
ram:0001ec58    f8bd            pop         {r3,r4,r5,r6,r7,pc}                     
                            LAB_0001ec5a:                 ;XREF[1,0]:   0001ec40
ram:0001ec5a    6168            ldr         r1,[r4,#0x4]=>DAT_2000272c              
ram:0001ec5c    f2e7            b           LAB_0001ec44                            
ram:0001ec5e    0000            movs        r0,r0                                   
                            DAT_0001ec60:                 ;XREF[2,0]:   0001ec12,0001ec18
ram:0001ec60    d4200020        undefined4  200020D4h                               
                            DAT_0001ec64:                 ;XREF[1,0]:   0001ec1c
ram:0001ec64    28270020        undefined4  20002728h                               
                            PTR_DAT_0001ec68:             ;XREF[1,0]:   0001ec44
ram:0001ec68    d0040200        addr        DAT_000204d0                            ;= 20002708h
                            ;************************************************************************************************
                            ;*                                           FUNCTION                                           *
                            ;************************************************************************************************
                            ;undefined FUN_0001ec6c(void)
ram:0001ec6c    2de9f041        push        {r4,r5,r6,r7,r8,lr}                     
ram:0001ec70    0026            movs        r6,#0x0                                 
ram:0001ec72    0125            movs        r5,#0x1                                 
ram:0001ec74    144c            ldr         r4,[DAT_0001ecc8]                       ;= 20002108h
ram:0001ec76    22e0            b           LAB_0001ecbe                            
                            LAB_0001ec78:                 ;XREF[1,0]:   0001ecc2
ram:0001ec78    6068            ldr         r0,[r4,#0x4]=>DAT_2000210c              
ram:0001ec7a    2269            ldr         r2,[r4,#0x10]=>DAT_20002118             
ram:0001ec7c    00ebc607        add.w       r7,r0,r6, lsl #0x3                      
ram:0001ec80    3878            ldrb        r0,[r7,#0x0]                            
ram:0001ec82    05fa00f1        lsl.w       r1,r5,r0                                
ram:0001ec86    1142            tst         r1,r2                                   
ram:0001ec88    17d0            beq         LAB_0001ecba                            
ram:0001ec8a    8a43            bics        r2,r1                                   
ram:0001ec8c    2261            str         r2,[r4,#0x10]=>DAT_20002118             
ram:0001ec8e    00f0edfb        bl          FUN_0001f46c                            ;uint FUN_0001f46c(uint param_1)
ram:0001ec92    0246            mov         r2,r0                                   
ram:0001ec94    3878            ldrb        r0,[r7,#0x0]                            
ram:0001ec96    e368            ldr         r3,[r4,#0xc]=>DAT_20002114              
ram:0001ec98    05fa00f1        lsl.w       r1,r5,r0                                
ram:0001ec9c    1940            ands        r1,r3                                   
ram:0001ec9e    02fa00f3        lsl.w       r3,r2,r0                                
ram:0001eca2    9942            cmp         r1,r3                                   
ram:0001eca4    09d1            bne         LAB_0001ecba                            
ram:0001eca6    7978            ldrb        r1,[r7,#0x1]                            
ram:0001eca8    0129            cmp         r1,#0x1                                 
ram:0001ecaa    01d0            beq         LAB_0001ecb0                            
ram:0001ecac    0121            movs        r1,#0x1                                 
ram:0001ecae    00e0            b           LAB_0001ecb2                            
                            LAB_0001ecb0:                 ;XREF[1,0]:   0001ecaa
ram:0001ecb0    0021            movs        r1,#0x0                                 
                            LAB_0001ecb2:                 ;XREF[1,0]:   0001ecae
ram:0001ecb2    5140            eors        r1,r2                                   
ram:0001ecb4    7a68            ldr         r2,[r7,#0x4]                            
ram:0001ecb6    02b1            cbz         r2,LAB_0001ecba                         
ram:0001ecb8    9047            blx         r2                                      
                            LAB_0001ecba:                 ;XREF[3,0]:   0001ec88,0001eca4,0001ecb6
ram:0001ecba    761c            adds        r6,r6,#0x1                              
ram:0001ecbc    f6b2            uxtb        r6,r6                                   
                            LAB_0001ecbe:                 ;XREF[1,0]:   0001ec76
ram:0001ecbe    2078            ldrb        r0,[r4,#0x0]=>DAT_20002108              
ram:0001ecc0    8642            cmp         r6,r0                                   
ram:0001ecc2    d9d3            bcc         LAB_0001ec78                            
ram:0001ecc4    bde8f081        pop.w       {r4,r5,r6,r7,r8,pc}                     
                            DAT_0001ecc8:                 ;XREF[1,0]:   0001ec74
ram:0001ecc8    08210020        undefined4  20002108h                               
                            ;************************************************************************************************
                            ;*                                           FUNCTION                                           *
                            ;************************************************************************************************
                            ;undefined4 FUN_0001eccc(int * param_1)
          ;param_1       int *               r0                      
                                                          ;XREF[1,0]:   0001fdca
ram:0001eccc    0e49            ldr         r1,[DAT_0001ed08]                       ;= 2000211Ch
ram:0001ecce    10b5            push        {r4,lr}                                 
ram:0001ecd0    4a78            ldrb        r2,[r1,#0x1]=>DAT_2000211d              
ram:0001ecd2    8c78            ldrb        r4,[r1,#0x2]=>DAT_2000211e              
ram:0001ecd4    0023            movs        r3,#0x0                                 
ram:0001ecd6    a242            cmp         r2,r4                                   
ram:0001ecd8    12d0            beq         LAB_0001ed00                            
ram:0001ecda    521c            adds        r2,r2,#0x1                              
ram:0001ecdc    d2b2            uxtb        r2,r2                                   
ram:0001ecde    4a70            strb        r2,[r1,#0x1]=>DAT_2000211d              
ram:0001ece0    022a            cmp         r2,#0x2                                 
ram:0001ece2    00d1            bne         LAB_0001ece6                            
ram:0001ece4    4b70            strb        r3,[r1,#0x1]=>DAT_2000211d              
                            LAB_0001ece6:                 ;XREF[1,0]:   0001ece2
ram:0001ece6    084a            ldr         r2,[DAT_0001ed08]                       ;= 2000211Ch
ram:0001ece8    4b78            ldrb        r3,[r1,#0x1]=>DAT_2000211d              
ram:0001ecea    1832            adds        r2,#0x18                                
ram:0001ecec    52f82320        ldr.w       r2=>DAT_20002134,r2,r3,0x2              
ram:0001ecf0    0260            str         r2,[param_1,#0x0]                       
ram:0001ecf2    0869            ldr         param_1,[r1,#0x10]=>DAT_2000212c        
ram:0001ecf4    1044            add         param_1,r2                              
ram:0001ecf6    20f07f40        bic         param_1,param_1,#0xff000000             
ram:0001ecfa    0861            str         param_1,[r1,#0x10]=>DAT_2000212c        
ram:0001ecfc    0120            movs        param_1,#0x1                            
ram:0001ecfe    10bd            pop         {r4,pc}                                 
                            LAB_0001ed00:                 ;XREF[1,0]:   0001ecd8
ram:0001ed00    0360            str         r3,[param_1,#0x0]                       
ram:0001ed02    0020            movs        param_1,#0x0                            
ram:0001ed04    10bd            pop         {r4,pc}                                 
ram:0001ed06    0000            movs        r0,r0                                   
                            DAT_0001ed08:                 ;XREF[2,0]:   0001eccc,0001ece6
ram:0001ed08    1c210020        undefined4  2000211Ch                               
                            ;************************************************************************************************
                            ;*                                           FUNCTION                                           *
                            ;************************************************************************************************
                            ;undefined FUN_0001ed0c(int * param_1, undefined * param_2)
          ;param_1       int *               r0                      
          ;param_2       undefined *         r1                      
                                                          ;XREF[1,0]:   0001dab4
ram:0001ed0c    8268            ldr         r2,[param_1,#0x8]                       
ram:0001ed0e    8388            ldrh        r3,[param_1,#0x4]                       
ram:0001ed10    1a40            ands        r2,r3                                   
ram:0001ed12    0368            ldr         r3,[param_1,#0x0]                       
ram:0001ed14    9a5c            ldrb        r2,[r3,r2]                              
ram:0001ed16    0a70            strb        r2,[param_2,#0x0]                       
ram:0001ed18    8168            ldr         param_2,[param_1,#0x8]                  
ram:0001ed1a    491c            adds        param_2,param_2,#0x1                    
ram:0001ed1c    8160            str         param_2,[param_1,#0x8]                  
ram:0001ed1e    7047            bx          lr                                      
                            ;************************************************************************************************
                            ;*                                           FUNCTION                                           *
                            ;************************************************************************************************
                            ;undefined FUN_0001ed20(int * param_1, undefined param_2)
          ;param_1       int *               r0                      
          ;param_2       undefined           r1                      
                                                          ;XREF[1,0]:   0001daee
ram:0001ed20    c268            ldr         r2,[param_1,#0xc]                       
ram:0001ed22    8388            ldrh        r3,[param_1,#0x4]                       
ram:0001ed24    1a40            ands        r2,r3                                   
ram:0001ed26    0368            ldr         r3,[param_1,#0x0]                       
ram:0001ed28    9954            strb        param_2,[r3,r2]                         
ram:0001ed2a    c168            ldr         param_2,[param_1,#0xc]                  
ram:0001ed2c    491c            adds        param_2,param_2,#0x1                    
ram:0001ed2e    c160            str         param_2,[param_1,#0xc]                  
ram:0001ed30    7047            bx          lr                                      
                            ;************************************************************************************************
                            ;*                                           FUNCTION                                           *
                            ;************************************************************************************************
                            ;undefined4 FUN_0001ed32(undefined4 param_1)
          ;param_1       undefined4          r0                      
ram:0001ed32    10b5            push        {r4,lr}                                 
ram:0001ed34    0446            mov         r4,param_1                              
ram:0001ed36    c0b2            uxtb        param_1,param_1                         
ram:0001ed38    fff70ef8        bl          FUN_0001dd58                            ;int FUN_0001dd58(undefined param_1)
ram:0001ed3c    2046            mov         param_1,r4                              
ram:0001ed3e    10bd            pop         {r4,pc}                                 
                            ;************************************************************************************************
                            ;*                                           FUNCTION                                           *
                            ;************************************************************************************************
                            ;undefined4 FUN_0001ed40(undefined4 * param_1)
          ;param_1       undefined4 *        r0                      
                                                          ;XREF[1,0]:   0001e088
ram:0001ed40    20b1            cbz         param_1,LAB_0001ed4c                    
ram:0001ed42    0349            ldr         r1,[DAT_0001ed50]                       ;= 200028D4h
ram:0001ed44    496d            ldr         r1,[r1,#0x54]=>DAT_20002928             
ram:0001ed46    0160            str         r1,[param_1,#0x0]                       
ram:0001ed48    0020            movs        param_1,#0x0                            
ram:0001ed4a    7047            bx          lr                                      
                            LAB_0001ed4c:                 ;XREF[1,0]:   0001ed40
ram:0001ed4c    0320            movs        param_1,#0x3                            
ram:0001ed4e    7047            bx          lr                                      
                            DAT_0001ed50:                 ;XREF[1,0]:   0001ed42
ram:0001ed50    d4280020        undefined4  200028D4h                               
                            ;************************************************************************************************
                            ;*                                           FUNCTION                                           *
                            ;************************************************************************************************
                            ;undefined FUN_0001ed54(uint param_1, undefined4 param_2, undefined4 param_3, undefined4 param_4)
          ;param_1       uint                r0                      
          ;param_2       undefined4          r1                      
          ;param_3       undefined4          r2                      
          ;param_4       undefined4          r3                      
ram:0001ed54    2de9f041        push        {r4,r5,r6,r7,r8,lr}                     
ram:0001ed58    124e            ldr         r6,[PTR_DAT_0001eda4]                   ;= 00020524
ram:0001ed5a    0746            mov         r7,param_1                              
ram:0001ed5c    0125            movs        r5,#0x1                                 
ram:0001ed5e    bd40            lsls        r5,r7                                   
ram:0001ed60    3068            ldr         param_1,[r6,#0x0]=>DAT_00020524         ;= 200028B4h
ram:0001ed62    fef765ff        bl          FUN_0001dc30                            ;undefined4 FUN_0001dc30(int param_1,...
ram:0001ed66    0028            cmp         param_1,#0x0                            
ram:0001ed68    0dd1            bne         LAB_0001ed86                            
ram:0001ed6a    0f4c            ldr         r4,[DAT_0001eda8]                       ;= 20002108h
ram:0001ed6c    2069            ldr         param_1,[r4,#0x10]=>DAT_20002118        
ram:0001ed6e    2842            tst         param_1,r5                              
ram:0001ed70    07d1            bne         LAB_0001ed82                            
ram:0001ed72    3846            mov         param_1,r7                              
ram:0001ed74    00f07afb        bl          FUN_0001f46c                            ;uint FUN_0001f46c(uint param_1)
ram:0001ed78    0028            cmp         param_1,#0x0                            
ram:0001ed7a    e068            ldr         param_1,[r4,#0xc]=>DAT_20002114         
ram:0001ed7c    05d0            beq         LAB_0001ed8a                            
ram:0001ed7e    2843            orrs        param_1,r5                              
ram:0001ed80    04e0            b           LAB_0001ed8c                            
                            LAB_0001ed82:                 ;XREF[1,0]:   0001ed70
ram:0001ed82    a843            bics        param_1,r5                              
ram:0001ed84    2061            str         param_1,[r4,#0x10]=>DAT_20002118        
                            LAB_0001ed86:                 ;XREF[1,0]:   0001ed68
ram:0001ed86    bde8f081        pop.w       {r4,r5,r6,r7,r8,pc}                     
                            LAB_0001ed8a:                 ;XREF[1,0]:   0001ed7c
ram:0001ed8a    a843            bics        param_1,r5                              
                            LAB_0001ed8c:                 ;XREF[1,0]:   0001ed80
ram:0001ed8c    e060            str         param_1,[r4,#0xc]=>DAT_20002114         
ram:0001ed8e    2069            ldr         param_1,[r4,#0x10]=>DAT_20002118        
ram:0001ed90    2843            orrs        param_1,r5                              
ram:0001ed92    2061            str         param_1,[r4,#0x10]=>DAT_20002118        
ram:0001ed94    a168            ldr         param_2,[r4,#0x8]=>DAT_20002110         
ram:0001ed96    3068            ldr         param_1,[r6,#0x0]=>DAT_00020524         ;= 200028B4h
ram:0001ed98    bde8f041        pop.w       {r4,r5,r6,r7,r8,lr}                     
ram:0001ed9c    0022            movs        param_3,#0x0                            
ram:0001ed9e    fef707bf        b.w         FUN_0001dbb0                            ;undefined4 FUN_0001dbb0(int param_1,...
ram:0001eda2    00              ??          00h                                     
ram:0001eda3    00              ??          00h                                     
                            PTR_DAT_0001eda4:             ;XREF[1,0]:   0001ed58
ram:0001eda4    24050200        addr        DAT_00020524                            ;= 200028B4h
                            DAT_0001eda8:                 ;XREF[1,0]:   0001ed6a
ram:0001eda8    08210020        undefined4  20002108h                               
                            LAB_0001edac:                 ;XREF[1,0]:   0001cc26
ram:0001edac    f8b5            push        {r3,r4,r5,r6,r7,lr}                     
ram:0001edae    1a4c            ldr         r4,[DAT_0001ee18]                       ;= 20002140h
ram:0001edb0    2078            ldrb        r0,[r4,#0x0]=>DAT_20002140              
ram:0001edb2    0028            cmp         r0,#0x0                                 
ram:0001edb4    2ed0            beq         LAB_0001ee14                            
ram:0001edb6    2069            ldr         r0,[r4,#0x10]=>DAT_20002150             
ram:0001edb8    28b1            cbz         r0,LAB_0001edc6                         
ram:0001edba    0026            movs        r6,#0x0                                 
                            LAB_0001edbc:                 ;XREF[1,0]:   0001edc8
ram:0001edbc    e068            ldr         r0,[r4,#0xc]=>DAT_2000214c              
ram:0001edbe    20b1            cbz         r0,LAB_0001edca                         
ram:0001edc0    0025            movs        r5,#0x0                                 
                            LAB_0001edc2:                 ;XREF[2,0]:   0001edcc,0001ee12
ram:0001edc2    26b1            cbz         r6,LAB_0001edce                         
ram:0001edc4    10e0            b           LAB_0001ede8                            
                            LAB_0001edc6:                 ;XREF[1,0]:   0001edb8
ram:0001edc6    0126            movs        r6,#0x1                                 
ram:0001edc8    f8e7            b           LAB_0001edbc                            
                            LAB_0001edca:                 ;XREF[1,0]:   0001edbe
ram:0001edca    0125            movs        r5,#0x1                                 
ram:0001edcc    f9e7            b           LAB_0001edc2                            
                            LAB_0001edce:                 ;XREF[2,0]:   0001edc2,0001ee0e
ram:0001edce    6846            mov         r0,sp                                   
ram:0001edd0    52df            svc         0x52                                    
ram:0001edd2    0528            cmp         r0,#0x5                                 
ram:0001edd4    03d0            beq         LAB_0001edde                            
ram:0001edd6    20b1            cbz         r0,LAB_0001ede2                         
ram:0001edd8    fef75cfe        bl          FUN_0001da94                            ;undefined FUN_0001da94(void)
ram:0001eddc    04e0            b           LAB_0001ede8                            
                            LAB_0001edde:                 ;XREF[1,0]:   0001edd4
ram:0001edde    0126            movs        r6,#0x1                                 
ram:0001ede0    02e0            b           LAB_0001ede8                            
                            LAB_0001ede2:                 ;XREF[1,0]:   0001edd6
ram:0001ede2    2169            ldr         r1,[r4,#0x10]=>DAT_20002150             
ram:0001ede4    0098            ldr         r0=>local_18,[sp,#0x0]                  
ram:0001ede6    8847            blx         r1                                      
                            LAB_0001ede8:                 ;XREF[3,0]:   0001edc4,0001eddc,0001ede0
ram:0001ede8    85b9            cbnz        r5,LAB_0001ee0c                         
ram:0001edea    6088            ldrh        r0,[r4,#0x2]=>DAT_20002142              
ram:0001edec    adf80000        strh.w      r0,[sp,#0x0]=>local_18                  
ram:0001edf0    6946            mov         r1,sp                                   
ram:0001edf2    a068            ldr         r0,[r4,#0x8]=>DAT_20002148              
ram:0001edf4    61df            svc         0x61                                    
ram:0001edf6    0528            cmp         r0,#0x5                                 
ram:0001edf8    03d0            beq         LAB_0001ee02                            
ram:0001edfa    20b1            cbz         r0,LAB_0001ee06                         
ram:0001edfc    fef74afe        bl          FUN_0001da94                            ;undefined FUN_0001da94(void)
ram:0001ee00    04e0            b           LAB_0001ee0c                            
                            LAB_0001ee02:                 ;XREF[1,0]:   0001edf8
ram:0001ee02    0125            movs        r5,#0x1                                 
ram:0001ee04    02e0            b           LAB_0001ee0c                            
                            LAB_0001ee06:                 ;XREF[1,0]:   0001edfa
                                                          ; FWD[2,0]:   20002148,2000214c
ram:0001ee06    d4e90201        ldrd        r0,r1,[r4,#0x8]=>DAT_20002148           
ram:0001ee0a    8847            blx         r1                                      
                            LAB_0001ee0c:                 ;XREF[3,0]:   0001ede8,0001ee00,0001ee04
ram:0001ee0c    002e            cmp         r6,#0x0                                 
ram:0001ee0e    ded0            beq         LAB_0001edce                            
ram:0001ee10    002d            cmp         r5,#0x0                                 
ram:0001ee12    d6d0            beq         LAB_0001edc2                            
                            LAB_0001ee14:                 ;XREF[1,0]:   0001edb4
ram:0001ee14    f8bd            pop         {r3,r4,r5,r6,r7,pc}                     
ram:0001ee16    0000            movs        r0,r0                                   
                            DAT_0001ee18:                 ;XREF[1,0]:   0001edae
ram:0001ee18    40210020        undefined4  20002140h                               
                            ;************************************************************************************************
                            ;*                                           FUNCTION                                           *
                            ;************************************************************************************************
                            ;undefined4 FUN_0001ee1c(int param_1)
          ;param_1       int                 r0                      
                                                          ;XREF[1,0]:   0001ec14
ram:0001ee1c    0549            ldr         r1,[DAT_0001ee34]                       ;= 200020CCh
ram:0001ee1e    4088            ldrh        param_1,[param_1,#0x2]                  
ram:0001ee20    0a88            ldrh        r2,[r1,#0x0]=>DAT_200020cc              
ram:0001ee22    9042            cmp         param_1,r2                              
ram:0001ee24    04d3            bcc         LAB_0001ee30                            
ram:0001ee26    4988            ldrh        r1,[r1,#0x2]=>DAT_200020ce              
ram:0001ee28    8842            cmp         param_1,r1                              
ram:0001ee2a    01d8            bhi         LAB_0001ee30                            
ram:0001ee2c    0120            movs        param_1,#0x1                            
ram:0001ee2e    7047            bx          lr                                      
                            LAB_0001ee30:                 ;XREF[2,0]:   0001ee24,0001ee2a
ram:0001ee30    0020            movs        param_1,#0x0                            
ram:0001ee32    7047            bx          lr                                      
                            DAT_0001ee34:                 ;XREF[1,0]:   0001ee1c
ram:0001ee34    cc200020        undefined4  200020CCh                               
                            ;************************************************************************************************
                            ;*                                           FUNCTION                                           *
                            ;************************************************************************************************
                            ;undefined4 FUN_0001ee38(int param_1, int param_2, ushort * param_3, uint param_4)
          ;param_1       int                 r0                      
          ;param_2       int                 r1                      
          ;param_3       ushort *            r2                      
          ;param_4       uint                r3                      
                                                          ;XREF[1,0]:   0001d812
ram:0001ee38    30b5            push        {r4,r5,lr}                              
ram:0001ee3a    1488            ldrh        r4,[param_3,#0x0]                       
ram:0001ee3c    e51c            adds        r5,r4,#0x3                              
ram:0001ee3e    9d42            cmp         r5,param_4                              
ram:0001ee40    01d9            bls         LAB_0001ee46                            
ram:0001ee42    0c20            movs        param_1,#0xc                            
ram:0001ee44    30bd            pop         {r4,r5,pc}                              
                            LAB_0001ee46:                 ;XREF[1,0]:   0001ee40
ram:0001ee46    0225            movs        r5,#0x2                                 
ram:0001ee48    0d55            strb        r5,[param_2,r4]                         
ram:0001ee4a    1388            ldrh        param_4,[param_3,#0x0]                  
ram:0001ee4c    1c24            movs        r4,#0x1c                                
ram:0001ee4e    5b1c            adds        param_4,param_4,#0x1                    
ram:0001ee50    9bb2            uxth        param_4,param_4                         
ram:0001ee52    1380            strh        param_4,[param_3,#0x0]                  
ram:0001ee54    cc54            strb        r4,[param_2,param_4]                    
ram:0001ee56    1388            ldrh        param_4,[param_3,#0x0]                  
ram:0001ee58    5b1c            adds        param_4,param_4,#0x1                    
ram:0001ee5a    9bb2            uxth        param_4,param_4                         
ram:0001ee5c    1380            strh        param_4,[param_3,#0x0]                  
ram:0001ee5e    0128            cmp         param_1,#0x1                            
ram:0001ee60    07d0            beq         LAB_0001ee72                            
ram:0001ee62    0228            cmp         param_1,#0x2                            
ram:0001ee64    07d0            beq         LAB_0001ee76                            
ram:0001ee66    0328            cmp         param_1,#0x3                            
ram:0001ee68    07d0            beq         LAB_0001ee7a                            
ram:0001ee6a    0428            cmp         param_1,#0x4                            
ram:0001ee6c    07d0            beq         LAB_0001ee7e                            
ram:0001ee6e    0720            movs        param_1,#0x7                            
ram:0001ee70    30bd            pop         {r4,r5,pc}                              
                            LAB_0001ee72:                 ;XREF[1,0]:   0001ee60
ram:0001ee72    0020            movs        param_1,#0x0                            
ram:0001ee74    04e0            b           LAB_0001ee80                            
                            LAB_0001ee76:                 ;XREF[1,0]:   0001ee64
ram:0001ee76    0120            movs        param_1,#0x1                            
ram:0001ee78    02e0            b           LAB_0001ee80                            
                            LAB_0001ee7a:                 ;XREF[1,0]:   0001ee68
ram:0001ee7a    cd54            strb        r5,[param_2,param_4]                    
ram:0001ee7c    01e0            b           LAB_0001ee82                            
                            LAB_0001ee7e:                 ;XREF[1,0]:   0001ee6c
ram:0001ee7e    0320            movs        param_1,#0x3                            
                            LAB_0001ee80:                 ;XREF[2,0]:   0001ee74,0001ee78
ram:0001ee80    c854            strb        param_1,[param_2,param_4]               
                            LAB_0001ee82:                 ;XREF[1,0]:   0001ee7c
ram:0001ee82    1088            ldrh        param_1,[param_3,#0x0]                  
ram:0001ee84    401c            adds        param_1,param_1,#0x1                    
ram:0001ee86    1080            strh        param_1,[param_3,#0x0]                  
ram:0001ee88    0020            movs        param_1,#0x0                            
ram:0001ee8a    30bd            pop         {r4,r5,pc}                              
                            ;************************************************************************************************
                            ;*                                           FUNCTION                                           *
                            ;************************************************************************************************
                            ;undefined LAB_0001ee8c+1(void)
                                                          ;XREF[0,2]:   0001e7c4,0001e7f4
ram:0001ee8c    0348            ldr         r0=>DAT_20002088,[DAT_0001ee9c]         ;= 20002088h
ram:0001ee8e    017a            ldrb        r1,[r0,#0x8]=>DAT_20002090              
ram:0001ee90    c907            lsls        r1,r1,#0x1f                             
ram:0001ee92    02d0            beq         LAB_0001ee9a                            
ram:0001ee94    0078            ldrb        r0,[r0,#0x0]=>DAT_20002088              
ram:0001ee96    fff7b1bc        b.w         LAB_0001e7fc                            
                            LAB_0001ee9a:                 ;XREF[1,0]:   0001ee92
ram:0001ee9a    7047            bx          lr                                      
                            DAT_0001ee9c:                 ;XREF[1,0]:   0001ee8c
ram:0001ee9c    88200020        undefined4  20002088h                               
                            ;************************************************************************************************
                            ;*                                           FUNCTION                                           *
                            ;************************************************************************************************
                            ;bool FUN_0001eea0(void)
                                                          ;XREF[1,0]:   0001fdd0
ram:0001eea0    2de9f047        push        {r4,r5,r6,r7,r8,r9,r10,lr}              
ram:0001eea4    dff8aca0        ldr.w       r10,[DAT_0001ef54]                      ;= 2000211Ch
ram:0001eea8    daf80c00        ldr.w       r0,[r10,#0xc]=>DAT_20002128             
ram:0001eeac    9af80040        ldrb.w      r4,[r10,#0x0]=>DAT_2000211c             
ram:0001eeb0    8046            mov         r8,r0                                   
ram:0001eeb2    9af80460        ldrb.w      r6,[r10,#0x4]=>DAT_20002120             
ram:0001eeb6    daf80890        ldr.w       r9,[r10,#0x8]=>DAT_20002124             
ram:0001eeba    daf81070        ldr.w       r7,[r10,#0x10]=>DAT_2000212c            
ram:0001eebe    3ae0            b           LAB_0001ef36                            
                            LAB_0001eec0:                 ;XREF[1,0]:   0001ef3a
ram:0001eec0    09ebc405        add.w       r5,r9,r4, lsl #0x3                      
ram:0001eec4    2a78            ldrb        r2,[r5,#0x0]                            
ram:0001eec6    33e0            b           LAB_0001ef30                            
                            LAB_0001eec8:                 ;XREF[1,0]:   0001ef34
ram:0001eec8    02eb4201        add.w       r1,r2,r2, lsl #0x1                      
ram:0001eecc    6b68            ldr         r3,[r5,#0x4]                            
ram:0001eece    521c            adds        r2,r2,#0x1                              
ram:0001eed0    03ebc101        add.w       r1,r3,r1, lsl #0x3                      
ram:0001eed4    ab78            ldrb        r3,[r5,#0x2]                            
ram:0001eed6    d2b2            uxtb        r2,r2                                   
ram:0001eed8    9342            cmp         r3,r2                                   
ram:0001eeda    00d1            bne         LAB_0001eede                            
ram:0001eedc    0022            movs        r2,#0x0                                 
                            LAB_0001eede:                 ;XREF[1,0]:   0001eeda
ram:0001eede    0b78            ldrb        r3,[r1,#0x0]                            
ram:0001eee0    022b            cmp         r3,#0x2                                 
ram:0001eee2    02d0            beq         LAB_0001eeea                            
ram:0001eee4    032b            cmp         r3,#0x3                                 
ram:0001eee6    23d1            bne         LAB_0001ef30                            
ram:0001eee8    1fe0            b           LAB_0001ef2a                            
                            LAB_0001eeea:                 ;XREF[1,0]:   0001eee2
ram:0001eeea    d1f804c0        ldr.w       r12,[r1,#0x4]                           
ram:0001eeee    0346            mov         r3,r0                                   
ram:0001eef0    0146            mov         r1,r0                                   
ram:0001eef2    03e0            b           LAB_0001eefc                            
                            LAB_0001eef4:                 ;XREF[1,0]:   0001eefe
ram:0001eef4    6145            cmp         r1,r12                                  
ram:0001eef6    03d0            beq         LAB_0001ef00                            
ram:0001eef8    0b46            mov         r3,r1                                   
ram:0001eefa    c969            ldr         r1,[r1,#0x1c]                           
                            LAB_0001eefc:                 ;XREF[1,0]:   0001eef2
ram:0001eefc    c1b1            cbz         r1,LAB_0001ef30                         
ram:0001eefe    f9e7            b           LAB_0001eef4                            
                            LAB_0001ef00:                 ;XREF[1,0]:   0001eef6
ram:0001ef00    b1b1            cbz         r1,LAB_0001ef30                         
ram:0001ef02    8b42            cmp         r3,r1                                   
ram:0001ef04    05d1            bne         LAB_0001ef12                            
ram:0001ef06    c069            ldr         r0,[r0,#0x1c]                           
ram:0001ef08    18b9            cbnz        r0,LAB_0001ef12                         
ram:0001ef0a    134f            ldr         r7,[DAT_0001ef58]                       ;= 40011000h
ram:0001ef0c    0126            movs        r6,#0x1                                 
ram:0001ef0e    be60            str         r6,[r7,#offset DAT_40011008 &0xff]      
ram:0001ef10    0027            movs        r7,#0x0                                 
                            LAB_0001ef12:                 ;XREF[2,0]:   0001ef04,0001ef08
ram:0001ef12    d1f800c0        ldr.w       r12,[r1,#0x0]                           
ram:0001ef16    c969            ldr         r1,[r1,#0x1c]                           
ram:0001ef18    d961            str         r1,[r3,#0x1c]                           
ram:0001ef1a    49b1            cbz         r1,LAB_0001ef30                         
ram:0001ef1c    0b68            ldr         r3,[r1,#0x0]                            
ram:0001ef1e    6344            add         r3,r12                                  
ram:0001ef20    0b60            str         r3,[r1,#0x0]                            
ram:0001ef22    05e0            b           LAB_0001ef30                            
                            LAB_0001ef24:                 ;XREF[1,0]:   0001ef2e
ram:0001ef24    0174            strb        r1,[r0,#0x10]                           
ram:0001ef26    c069            ldr         r0,[r0,#0x1c]                           
ram:0001ef28    00e0            b           LAB_0001ef2c                            
                            LAB_0001ef2a:                 ;XREF[1,0]:   0001eee8
ram:0001ef2a    0021            movs        r1,#0x0                                 
                            LAB_0001ef2c:                 ;XREF[1,0]:   0001ef28
ram:0001ef2c    0028            cmp         r0,#0x0                                 
ram:0001ef2e    f9d1            bne         LAB_0001ef24                            
                            LAB_0001ef30:                 ;XREF[6,0]:   0001eec6,0001eee6,0001eefc,0001ef00
                                                          ;             0001ef1a,0001ef22
ram:0001ef30    6978            ldrb        r1,[r5,#0x1]                            
ram:0001ef32    9142            cmp         r1,r2                                   
ram:0001ef34    c8d1            bne         LAB_0001eec8                            
                            LAB_0001ef36:                 ;XREF[1,0]:   0001eebe
ram:0001ef36    641e            subs        r4,r4,#0x1                              
ram:0001ef38    e4b2            uxtb        r4,r4                                   
ram:0001ef3a    c1d2            bcs         LAB_0001eec0                            
                                                          ; FWD[2,0]:   20002128,2000212c
ram:0001ef3c    cae90307        strd        r0,r7,[r10,#0xc]=>DAT_20002128          
ram:0001ef40    8af80460        strb.w      r6,[r10,#0x4]=>DAT_20002120             
ram:0001ef44    4045            cmp         r0,r8                                   
ram:0001ef46    02d0            beq         LAB_0001ef4e                            
ram:0001ef48    0120            movs        r0,#0x1                                 
                            LAB_0001ef4a:                 ;XREF[1,0]:   0001ef50
ram:0001ef4a    bde8f087        pop.w       {r4,r5,r6,r7,r8,r9,r10,pc}              
                            LAB_0001ef4e:                 ;XREF[1,0]:   0001ef46
ram:0001ef4e    0020            movs        r0,#0x0                                 
ram:0001ef50    fbe7            b           LAB_0001ef4a                            
ram:0001ef52    0000            movs        r0,r0                                   
                            DAT_0001ef54:                 ;XREF[1,0]:   0001eea4
ram:0001ef54    1c210020        undefined4  2000211Ch                               
                            DAT_0001ef58:                 ;XREF[1,0]:   0001ef0a
ram:0001ef58    00100140        undefined4  40011000h                               
                            ;************************************************************************************************
                            ;*                                           FUNCTION                                           *
                            ;************************************************************************************************
                            ;bool FUN_0001ef5c(uint * param_1)
          ;param_1       uint *              r0                      
                                                          ;XREF[2,0]:   0001fe24,0001fe2c
ram:0001ef5c    2de9f047        push        {r4,r5,r6,r7,r8,r9,r10,lr}              
ram:0001ef60    0546            mov         r5,param_1                              
ram:0001ef62    2f48            ldr         param_1,[DAT_0001f020]                  ;= 2000211Ch
ram:0001ef64    0026            movs        r6,#0x0                                 
ram:0001ef66    8046            mov         r8,param_1                              
ram:0001ef68    0778            ldrb        r7,[param_1,#0x0]=>DAT_2000211c         
ram:0001ef6a    d0f80c90        ldr.w       r9,[param_1,#0xc]=>DAT_20002128         
ram:0001ef6e    4be0            b           LAB_0001f008                            
                            LAB_0001ef70:                 ;XREF[1,0]:   0001f00c
ram:0001ef70    d8f80800        ldr.w       param_1,[r8,#0x8]=>DAT_20002124         
ram:0001ef74    00ebc704        add.w       r4,param_1,r7, lsl #0x3                 
ram:0001ef78    40e0            b           LAB_0001effc                            
                            LAB_0001ef7a:                 ;XREF[1,0]:   0001effe
ram:0001ef7a    02d0            beq         LAB_0001ef82                            
ram:0001ef7c    2846            mov         param_1,r5                              
ram:0001ef7e    ed69            ldr         r5,[r5,#0x1c]                           
ram:0001ef80    1ee0            b           LAB_0001efc0                            
                            LAB_0001ef82:                 ;XREF[2,0]:   0001ef7a,0001f006
ram:0001ef82    2078            ldrb        param_1,[r4,#0x0]                       
ram:0001ef84    6168            ldr         r1,[r4,#0x4]                            
ram:0001ef86    00eb4002        add.w       r2,param_1,param_1, lsl #0x1            
ram:0001ef8a    401c            adds        param_1,param_1,#0x1                    
ram:0001ef8c    c0b2            uxtb        param_1,param_1                         
ram:0001ef8e    01ebc201        add.w       r1,r1,r2, lsl #0x3                      
ram:0001ef92    2070            strb        param_1,[r4,#0x0]                       
ram:0001ef94    a278            ldrb        r2,[r4,#0x2]                            
ram:0001ef96    9042            cmp         param_1,r2                              
ram:0001ef98    00d1            bne         LAB_0001ef9c                            
ram:0001ef9a    2670            strb        r6,[r4,#0x0]                            
                            LAB_0001ef9c:                 ;XREF[1,0]:   0001ef98
ram:0001ef9c    0a78            ldrb        r2,[r1,#0x0]                            
ram:0001ef9e    4868            ldr         param_1,[r1,#0x4]                       
ram:0001efa0    012a            cmp         r2,#0x1                                 
ram:0001efa2    2dd1            bne         LAB_0001f000                            
ram:0001efa4    027c            ldrb        r2,[param_1,#0x10]                      
ram:0001efa6    5abb            cbnz        r2,LAB_0001f000                         
ram:0001efa8    8a68            ldr         r2,[r1,#0x8]                            
ram:0001efaa    4260            str         r2,[param_1,#0x4]                       
ram:0001efac    ca68            ldr         r2,[r1,#0xc]                            
ram:0001efae    8260            str         r2,[param_1,#0x8]                       
ram:0001efb0    0a69            ldr         r2,[r1,#0x10]                           
ram:0001efb2    c260            str         r2,[param_1,#0xc]                       
ram:0001efb4    4969            ldr         r1,[r1,#0x14]                           
ram:0001efb6    8161            str         r1,[param_1,#0x18]                      
ram:0001efb8    98f80410        ldrb.w      r1,[r8,#0x4]=>DAT_20002120              
ram:0001efbc    01b1            cbz         r1,LAB_0001efc0                         
ram:0001efbe    4660            str         r6,[param_1,#0x4]                       
                            LAB_0001efc0:                 ;XREF[2,0]:   0001ef80,0001efbc
ram:0001efc0    4268            ldr         r2,[param_1,#0x4]                       
ram:0001efc2    d8f81030        ldr.w       r3,[r8,#0x10]=>DAT_2000212c             
ram:0001efc6    dff85cc0        ldr.w       r12,[DAT_0001f024]                      ;= 007FFFFFh
ram:0001efca    d11a            subs        r1,r2,r3                                
ram:0001efcc    21f07f41        bic         r1,r1,#0xff000000                       
ram:0001efd0    6145            cmp         r1,r12                                  
ram:0001efd2    02d2            bcs         LAB_0001efda                            
ram:0001efd4    8268            ldr         r2,[param_1,#0x8]                       
ram:0001efd6    1144            add         r1,r2                                   
ram:0001efd8    06e0            b           LAB_0001efe8                            
                            LAB_0001efda:                 ;XREF[1,0]:   0001efd2
ram:0001efda    991a            subs        r1,r3,r2                                
ram:0001efdc    8268            ldr         r2,[param_1,#0x8]                       
ram:0001efde    21f07f41        bic         r1,r1,#0xff000000                       
ram:0001efe2    8a42            cmp         r2,r1                                   
ram:0001efe4    02d9            bls         LAB_0001efec                            
ram:0001efe6    511a            subs        r1,r2,r1                                
                            LAB_0001efe8:                 ;XREF[1,0]:   0001efd8
ram:0001efe8    0160            str         r1,[param_1,#0x0]                       
ram:0001efea    00e0            b           LAB_0001efee                            
                            LAB_0001efec:                 ;XREF[1,0]:   0001efe4
ram:0001efec    0660            str         r6,[param_1,#0x0]                       
                            LAB_0001efee:                 ;XREF[1,0]:   0001efea
ram:0001efee    4660            str         r6,[param_1,#0x4]                       
ram:0001eff0    0121            movs        r1,#0x1                                 
ram:0001eff2    8660            str         r6,[param_1,#0x8]                       
ram:0001eff4    0174            strb        r1,[param_1,#0x10]                      
ram:0001eff6    c661            str         r6,[param_1,#0x1c]                      
ram:0001eff8    00f026ff        bl          FUN_0001fe48                            ;undefined FUN_0001fe48(uint * param_1)
                            LAB_0001effc:                 ;XREF[1,0]:   0001ef78
ram:0001effc    002d            cmp         r5,#0x0                                 
ram:0001effe    bcd1            bne         LAB_0001ef7a                            
                            LAB_0001f000:                 ;XREF[2,0]:   0001efa2,0001efa6
ram:0001f000    2078            ldrb        param_1,[r4,#0x0]                       
ram:0001f002    6178            ldrb        r1,[r4,#0x1]                            
ram:0001f004    8842            cmp         param_1,r1                              
ram:0001f006    bcd1            bne         LAB_0001ef82                            
                            LAB_0001f008:                 ;XREF[1,0]:   0001ef6e
ram:0001f008    7f1e            subs        r7,r7,#0x1                              
ram:0001f00a    ffb2            uxtb        r7,r7                                   
ram:0001f00c    b0d2            bcs         LAB_0001ef70                            
ram:0001f00e    d8f80c10        ldr.w       r1,[r8,#0xc]=>DAT_20002128              
ram:0001f012    4945            cmp         r1,r9                                   
ram:0001f014    02d0            beq         LAB_0001f01c                            
ram:0001f016    0120            movs        param_1,#0x1                            
                            LAB_0001f018:                 ;XREF[1,0]:   0001f01e
ram:0001f018    bde8f087        pop.w       {r4,r5,r6,r7,r8,r9,r10,pc}              
                            LAB_0001f01c:                 ;XREF[1,0]:   0001f014
ram:0001f01c    0020            movs        param_1,#0x0                            
ram:0001f01e    fbe7            b           LAB_0001f018                            
                            DAT_0001f020:                 ;XREF[1,0]:   0001ef62
ram:0001f020    1c210020        undefined4  2000211Ch                               
                            DAT_0001f024:                 ;XREF[1,0]:   0001efc6
ram:0001f024    ffff7f00        undefined4  007FFFFFh                               
                            ;************************************************************************************************
                            ;*                                           FUNCTION                                           *
                            ;************************************************************************************************
                            ;undefined FUN_0001f028(void)
          ;local_10      undefined4         -10                      ;XREF[1,0]:   0001f120
          ;local_14      undefined4         -14                      ;XREF[1,0]:   0001f11c
          ;local_18      undefined1         -18                      ;XREF[1,0]:   0001f122
          ;local_48      undefined4         -48                      ;XREF[1,0]:   0001f10c
          ;local_4c      undefined2         -4c                      ;XREF[1,0]:   0001f10e
          ;local_80      undefined4         -80                      ;XREF[1,0]:   0001f15c
          ;local_84      undefined4         -84                      ;XREF[1,0]:   0001f158
          ;local_88      undefined4         -88                      ;XREF[2,0]:   0001f042,0001f162
          ;local_8c      undefined4         -8c                      ;XREF[2,1]:   0001f054,0001f152,0001f15e
          ;local_90      undefined4         -90                      ;XREF[3,0]:   0001f08c,0001f09e,0001f14e
          ;local_94      undefined4         -94                      ;XREF[4,3]:   0001f050,0001f0ba,0001f0c0,0001f0f2,0001f0c8
                                                                     ;             0001f0f6,0001f0fc
          ;local_98      undefined4         -98                      ;XREF[6,1]:   0001f048,0001f0b0,0001f0b4,0001f0d8,0001f12c
                                                                     ;             0001f146,0001f0bc
                                                          ;XREF[1,0]:   0001c40a
ram:0001f028    0023            movs        r3,#0x0                                 
ram:0001f02a    a6b0            sub         sp,#0x98                                
ram:0001f02c    574a            ldr         r2,[DAT_0001f18c]                       ;= 200023B4h
ram:0001f02e    0521            movs        r1,#0x5                                 
ram:0001f030    1846            mov         r0,r3                                   
ram:0001f032    fef775fd        bl          FUN_0001db20                            ;undefined4 FUN_0001db20(undefined4 p...
ram:0001f036    08b1            cbz         r0,LAB_0001f03c                         
ram:0001f038    fef72cfd        bl          FUN_0001da94                            ;undefined FUN_0001da94(void)
                            LAB_0001f03c:                 ;XREF[1,0]:   0001f036
ram:0001f03c    544a            ldr         r2,[PTR_DAT_0001f190]                   ;= 00020488
ram:0001f03e    04ab            add         r3,sp,#0x10                             
                                                          ; FWD[3,0]:   00020488,0002048c,00020490
ram:0001f040    07ca            ldmia       r2,{r0,r1,r2}=>DAT_00020488             ;= 07050608h
                                                                                    ;= 00000001h
                                                                                    ;= 01D7E000h
ram:0001f042    83e80700        stm         r3=>local_88,{r0,r1,r2}                 
ram:0001f046    5348            ldr         r0,[DAT_0001f194]                       ;= 200021B4h
ram:0001f048    0090            str         r0,[sp,#0x0]=>local_98                  
ram:0001f04a    5349            ldr         r1,[DAT_0001f198]                       ;= 200022B4h
ram:0001f04c    4ff48070        mov.w       r0,#0x100                               
ram:0001f050    cde90101        strd        r0,r1,[sp,#local_94+0x98]               
ram:0001f054    0390            str         r0,[sp,#local_8c+0x98]                  
ram:0001f056    0623            movs        r3,#0x6                                 
ram:0001f058    504a            ldr         r2=>LAB_0001fff0...,[PTR_LAB_0001fff0...;= 0001fff1
ram:0001f05a    6946            mov         r1,sp                                   
ram:0001f05c    04a8            add         r0,sp,#0x10                             
ram:0001f05e    fef729fe        bl          FUN_0001dcb4                            ;int FUN_0001dcb4(byte * param_1, int...
ram:0001f062    08b1            cbz         r0,LAB_0001f068                         
ram:0001f064    fef716fd        bl          FUN_0001da94                            ;undefined FUN_0001da94(void)
                            LAB_0001f068:                 ;XREF[1,0]:   0001f062
ram:0001f068    4d4a            ldr         r2=>LAB_0001e6c0...,[PTR_LAB_0001e6c0...;= 0001e6c1
ram:0001f06a    40f6cd41        movw        r1,#0xccd                               
ram:0001f06e    0320            movs        r0,#0x3                                 
ram:0001f070    fff772fb        bl          FUN_0001e758                            ;undefined FUN_0001e758(uint param_1,...
ram:0001f074    08b1            cbz         r0,LAB_0001f07a                         
ram:0001f076    fef70dfd        bl          FUN_0001da94                            ;undefined FUN_0001da94(void)
                            LAB_0001f07a:                 ;XREF[1,0]:   0001f074
ram:0001f07a    6946            mov         r1,sp                                   
ram:0001f07c    0020            movs        r0,#0x0                                 
ram:0001f07e    fff74dfa        bl          FUN_0001e51c                            ;int FUN_0001e51c(undefined4 param_1,...
ram:0001f082    08b1            cbz         r0,LAB_0001f088                         
ram:0001f084    fef706fd        bl          FUN_0001da94                            ;undefined FUN_0001da94(void)
                            LAB_0001f088:                 ;XREF[1,0]:   0001f082
ram:0001f088    fff714fa        bl          FUN_0001e4b4                            ;undefined FUN_0001e4b4(void)
ram:0001f08c    9df80800        ldrb.w      r0,[sp,#local_90+0x98]                  
ram:0001f090    44a1            adr         r1=>s_Nordic_UAR...,[s_Nordic_UART_00...;= "Nordic_UART"
ram:0001f092    20f00f00        bic         r0,r0,#0xf                              
ram:0001f096    401c            adds        r0,r0,#0x1                              
ram:0001f098    20f0f000        bic         r0,r0,#0xf0                             
ram:0001f09c    1030            adds        r0,#0x10                                
ram:0001f09e    8df80800        strb.w      r0,[sp,#local_90+0x98]                  
ram:0001f0a2    0b22            movs        r2,#0xb                                 
ram:0001f0a4    02a8            add         r0,sp,#0x8                              
ram:0001f0a6    7cdf            svc         0x7c                                    
ram:0001f0a8    08b1            cbz         r0,LAB_0001f0ae                         
ram:0001f0aa    fef7f3fc        bl          FUN_0001da94                            ;undefined FUN_0001da94(void)
                            LAB_0001f0ae:                 ;XREF[1,0]:   0001f0a8
ram:0001f0ae    0024            movs        r4,#0x0                                 
ram:0001f0b0    0094            str         r4,[sp,#0x0]=>local_98                  
ram:0001f0b2    1020            movs        r0,#0x10                                
ram:0001f0b4    adf80000        strh.w      r0,[sp,#0x0]=>local_98                  
ram:0001f0b8    3c20            movs        r0,#0x3c                                
ram:0001f0ba    0194            str         r4,[sp,#local_94+0x98]                  
ram:0001f0bc    adf80200        strh.w      r0,[sp,#local_98+0x9a]                  
ram:0001f0c0    adf80440        strh.w      r4,[sp,#local_94+0x98]                  
ram:0001f0c4    4ff4c870        mov.w       r0,#0x190                               
ram:0001f0c8    adf80600        strh.w      r0,[sp,#local_94+0x9a]                  
ram:0001f0cc    6846            mov         r0,sp                                   
ram:0001f0ce    7adf            svc         0x7a                                    
ram:0001f0d0    08b1            cbz         r0,LAB_0001f0d6                         
ram:0001f0d2    fef7dffc        bl          FUN_0001da94                            ;undefined FUN_0001da94(void)
                            LAB_0001f0d6:                 ;XREF[1,0]:   0001f0d0
ram:0001f0d6    3648            ldr         r0,[DAT_0001f1b0]                       ;= 0001F941h
ram:0001f0d8    0090            str         r0,[sp,#0x0]=>local_98                  
ram:0001f0da    6946            mov         r1,sp                                   
ram:0001f0dc    3548            ldr         r0,[DAT_0001f1b4]                       ;= 2000257Ch
ram:0001f0de    fff767f9        bl          FUN_0001e3b0                            ;undefined8 FUN_0001e3b0(undefined * ...
ram:0001f0e2    08b1            cbz         r0,LAB_0001f0e8                         
ram:0001f0e4    fef7d6fc        bl          FUN_0001da94                            ;undefined FUN_0001da94(void)
                            LAB_0001f0e8:                 ;XREF[1,0]:   0001f0e2
ram:0001f0e8    3821            movs        r1,#0x38                                
ram:0001f0ea    01a8            add         r0,sp,#0x4                              
ram:0001f0ec    fdf7f9f9        bl          FUN_0001c4e2                            ;undefined FUN_0001c4e2(undefined * p...
ram:0001f0f0    0220            movs        r0,#0x2                                 
ram:0001f0f2    8df80400        strb.w      r0,[sp,#local_94+0x98]                  
ram:0001f0f6    8df80640        strb.w      r4,[sp,#local_94+0x9a]                  
ram:0001f0fa    0520            movs        r0,#0x5                                 
ram:0001f0fc    8df80700        strb.w      r0,[sp,#local_94+0x9b]                  
ram:0001f100    3821            movs        r1,#0x38                                
ram:0001f102    0fa8            add         r0,sp,#0x3c                             
ram:0001f104    fdf7edf9        bl          FUN_0001c4e2                            ;undefined FUN_0001c4e2(undefined * p...
ram:0001f108    2b48            ldr         r0,[DAT_0001f1b8]                       ;= 20002084h
ram:0001f10a    0125            movs        r5,#0x1                                 
ram:0001f10c    1490            str         r0,[sp,#local_48+0x98]                  
ram:0001f10e    adf84c50        strh.w      r5,[sp,#local_4c+0x98]                  
ram:0001f112    2421            movs        r1,#0x24                                
ram:0001f114    1da8            add         r0,sp,#0x74                             
ram:0001f116    fdf7e4f9        bl          FUN_0001c4e2                            ;undefined FUN_0001c4e2(undefined * p...
ram:0001f11a    4020            movs        r0,#0x40                                
ram:0001f11c    2190            str         r0,[sp,#local_14+0x98]                  
ram:0001f11e    b420            movs        r0,#0xb4                                
ram:0001f120    2290            str         r0,[sp,#local_10+0x98]                  
ram:0001f122    8df88050        strb.w      r5,[sp,#local_18+0x98]                  
ram:0001f126    254b            ldr         r3=>LAB_0001f960...,[PTR_LAB_0001f960...;= 0001f961
ram:0001f128    1daa            add         r2,sp,#0x74                             
ram:0001f12a    0fa9            add         r1,sp,#0x3c                             
ram:0001f12c    0094            str         r4,[sp,#0x0]=>local_98                  
ram:0001f12e    01a8            add         r0,sp,#0x4                              
ram:0001f130    fef79cfe        bl          FUN_0001de6c                            ;char * FUN_0001de6c(undefined * para...
ram:0001f134    08b1            cbz         r0,LAB_0001f13a                         
ram:0001f136    fef7adfc        bl          FUN_0001da94                            ;undefined FUN_0001da94(void)
                            LAB_0001f13a:                 ;XREF[1,0]:   0001f134
ram:0001f13a    1c21            movs        r1,#0x1c                                
ram:0001f13c    6846            mov         r0,sp                                   
ram:0001f13e    fdf7d0f9        bl          FUN_0001c4e2                            ;undefined FUN_0001c4e2(undefined * p...
ram:0001f142    4ff42030        mov.w       r0,#0x28000                             
ram:0001f146    cde90040        strd        r4,r0,[sp,#0x0]=>local_98               
ram:0001f14a    4ff47020        mov.w       r0,#0xf0000                             
ram:0001f14e    0290            str         r0,[sp,#local_90+0x98]                  
ram:0001f150    0320            movs        r0,#0x3                                 
ram:0001f152    8df80c00        strb.w      r0,[sp,#local_8c+0x98]                  
ram:0001f156    1a48            ldr         r0,[PTR_LAB_0001f9e8+1+1_0001f1c0]      ;= 0001f9e9
ram:0001f158    0590            str         r0=>LAB_0001f9e8+1+1,[sp,#local_84+0x98]
ram:0001f15a    1a48            ldr         r0,[PTR_thunk_FUN_0001da94+1_0001f1c4]  ;= 0001ec0d
ram:0001f15c    0690            str         r0=>thunk_FUN_00...,[sp,#local_80+0x98] 
ram:0001f15e    adf80e40        strh.w      r4,[sp,#local_8c+0x9a]                  
ram:0001f162    8df81040        strb.w      r4,[sp,#local_88+0x98]                  
ram:0001f166    6846            mov         r0,sp                                   
ram:0001f168    fff76ef8        bl          FUN_0001e248                            ;undefined FUN_0001e248(int * param_1)
ram:0001f16c    08b1            cbz         r0,LAB_0001f172                         
ram:0001f16e    fef791fc        bl          FUN_0001da94                            ;undefined FUN_0001da94(void)
                            LAB_0001f172:                 ;XREF[1,0]:   0001f16c
ram:0001f172    15a0            adr         r0=>s__UART_Star...,[s__UART_Start!_0...;= "\r\nUART Start!\r\n"
ram:0001f174    fdf79cfe        bl          FUN_0001ceb0                            ;undefined FUN_0001ceb0(byte * param_...
ram:0001f178    0320            movs        r0,#0x3                                 
ram:0001f17a    fef775ff        bl          FUN_0001e068                            ;char * FUN_0001e068(undefined param_1)
ram:0001f17e    00e0            b           LAB_0001f182                            
                            LAB_0001f180:                 ;XREF[2,0]:   0001f184,0001f18a
ram:0001f180    48df            svc         0x48                                    
                            LAB_0001f182:                 ;XREF[1,0]:   0001f17e
ram:0001f182    0028            cmp         r0,#0x0                                 
ram:0001f184    fcd0            beq         LAB_0001f180                            
ram:0001f186    fef785fc        bl          FUN_0001da94                            ;undefined FUN_0001da94(void)
ram:0001f18a    f9e7            b           LAB_0001f180                            
                            DAT_0001f18c:                 ;XREF[1,0]:   0001f02c
ram:0001f18c    b4230020        undefined4  200023B4h                               
                            PTR_DAT_0001f190:             ;XREF[1,0]:   0001f03c
ram:0001f190    88040200        addr        DAT_00020488                            ;= 07050608h
                            DAT_0001f194:                 ;XREF[1,0]:   0001f046
ram:0001f194    b4210020        undefined4  200021B4h                               
                            DAT_0001f198:                 ;XREF[1,0]:   0001f04a
ram:0001f198    b4220020        undefined4  200022B4h                               
                            PTR_LAB_0001fff0+1+1_0001f19c:;XREF[1,0]:   0001f058
ram:0001f19c    f1ff0100        addr        LAB_0001fff0+1+1                        
                            PTR_LAB_0001e6c0+1+1_0001f1a0:;XREF[1,0]:   0001f068
ram:0001f1a0    c1e60100        addr        LAB_0001e6c0+1+1                        
                            s_Nordic_UART_0001f1a4:       ;XREF[2,0]:   0001f090,0001f090
ram:0001f1a4    4e6f72646...    ds          "Nordic_UART"                           
                            DAT_0001f1b0:                 ;XREF[1,0]:   0001f0d6
ram:0001f1b0    41f90100        undefined4  0001F941h                               ;?  ->  0001f941
                            DAT_0001f1b4:                 ;XREF[1,0]:   0001f0dc
ram:0001f1b4    7c250020        undefined4  2000257Ch                               
                            DAT_0001f1b8:                 ;XREF[1,0]:   0001f108
ram:0001f1b8    84200020        undefined4  20002084h                               
                            PTR_LAB_0001f960+1+1_0001f1bc:;XREF[1,0]:   0001f126
ram:0001f1bc    61f90100        addr        LAB_0001f960+1+1                        
                            PTR_LAB_0001f9e8+1+1_0001f1c0:;XREF[1,0]:   0001f156
ram:0001f1c0    e9f90100        addr        LAB_0001f9e8+1+1                        
                            PTR_thunk_FUN_0001da94+1_00...;XREF[1,0]:   0001f15a
ram:0001f1c4    0dec0100        addr        thunk_FUN_0001da94+1                    
                            s__UART_Start!_0001f1c8:      ;XREF[2,0]:   0001f172,0001f172
ram:0001f1c8    0d0a55415...    ds          "\r\nUART Start!\r\n"                   
                            ;************************************************************************************************
                            ;*                                           FUNCTION                                           *
                            ;************************************************************************************************
                            ;undefined4 FUN_0001f1d8(ushort * param_1, int param_2, ushort * param_3, uint param_4)
          ;param_1       ushort *            r0                      
          ;param_2       int                 r1                      
          ;param_3       ushort *            r2                      
          ;param_4       uint                r3                      
                                                          ;XREF[1,0]:   0001d94e
ram:0001f1d8    70b5            push        {r4,r5,r6,lr}                           
ram:0001f1da    1446            mov         r4,param_3                              
ram:0001f1dc    8288            ldrh        param_3,[param_1,#0x4]                  
ram:0001f1de    0e46            mov         r6,param_2                              
ram:0001f1e0    0546            mov         r5,param_1                              
ram:0001f1e2    2088            ldrh        param_1,[r4,#0x0]                       
ram:0001f1e4    111d            adds        param_2,param_3,#0x4                    
ram:0001f1e6    0144            add         param_2,param_1                         
ram:0001f1e8    921c            adds        param_3,param_3,#0x2                    
ram:0001f1ea    9942            cmp         param_2,param_4                         
ram:0001f1ec    01d8            bhi         LAB_0001f1f2                            
ram:0001f1ee    fe2a            cmp         param_3,#0xfe                           
ram:0001f1f0    01d9            bls         LAB_0001f1f6                            
                            LAB_0001f1f2:                 ;XREF[1,0]:   0001f1ec
ram:0001f1f2    0c20            movs        param_1,#0xc                            
ram:0001f1f4    70bd            pop         {r4,r5,r6,pc}                           
                            LAB_0001f1f6:                 ;XREF[1,0]:   0001f1f0
ram:0001f1f6    521c            adds        param_3,param_3,#0x1                    
ram:0001f1f8    3254            strb        param_3,[r6,param_1]                    
ram:0001f1fa    2088            ldrh        param_1,[r4,#0x0]                       
ram:0001f1fc    ff21            movs        param_2,#0xff                           
ram:0001f1fe    401c            adds        param_1,param_1,#0x1                    
ram:0001f200    80b2            uxth        param_1,param_1                         
ram:0001f202    2080            strh        param_1,[r4,#0x0]                       
ram:0001f204    3154            strb        param_2,[r6,param_1]                    
ram:0001f206    2088            ldrh        param_1,[r4,#0x0]                       
ram:0001f208    401c            adds        param_1,param_1,#0x1                    
ram:0001f20a    80b2            uxth        param_1,param_1                         
ram:0001f20c    2080            strh        param_1,[r4,#0x0]                       
ram:0001f20e    8119            adds        param_2,param_1,r6                      
ram:0001f210    2888            ldrh        param_1,[r5,#0x0]                       
ram:0001f212    01f05ff8        bl          FUN_000202d4                            ;undefined4 FUN_000202d4(undefined4 p...
ram:0001f216    2188            ldrh        param_2,[r4,#0x0]                       
ram:0001f218    0844            add         param_1,param_2                         
ram:0001f21a    80b2            uxth        param_1,param_1                         
ram:0001f21c    2080            strh        param_1,[r4,#0x0]                       
ram:0001f21e    aa88            ldrh        param_3,[r5,#0x4]                       
ram:0001f220    42b1            cbz         param_3,LAB_0001f234                    
ram:0001f222    a968            ldr         param_2,[r5,#0x8]                       
ram:0001f224    41b1            cbz         param_2,LAB_0001f238                    
ram:0001f226    3044            add         param_1,r6                              
ram:0001f228    fdf742f9        bl          FUN_0001c4b0                            ;undefined FUN_0001c4b0(undefined4 * ...
ram:0001f22c    2088            ldrh        param_1,[r4,#0x0]                       
ram:0001f22e    a988            ldrh        param_2,[r5,#0x4]                       
ram:0001f230    0844            add         param_1,param_2                         
ram:0001f232    2080            strh        param_1,[r4,#0x0]                       
                            LAB_0001f234:                 ;XREF[1,0]:   0001f220
ram:0001f234    0020            movs        param_1,#0x0                            
ram:0001f236    70bd            pop         {r4,r5,r6,pc}                           
                            LAB_0001f238:                 ;XREF[1,0]:   0001f224
ram:0001f238    0720            movs        param_1,#0x7                            
ram:0001f23a    70bd            pop         {r4,r5,r6,pc}                           
                            ;************************************************************************************************
                            ;*                                           FUNCTION                                           *
                            ;************************************************************************************************
                            ;longlong FUN_0001f23c(byte * param_1, int param_2, ushort * param_3, ushort * param_4)
          ;param_1       byte *              r0                      
          ;param_2       int                 r1                      
          ;param_3       ushort *            r2                      
          ;param_4       ushort *            r3                      
          ;local_18      undefined2         -18                      ;XREF[6,0]:   0001f270,0001f288,0001f2a0,0001f2a6,0001f2aa
                                                                     ;             0001f2cc
                                                          ;XREF[1,0]:   0001d978
ram:0001f23c    f8b5            push        {param_4,r4,r5,r6,r7,lr}                
ram:0001f23e    0e46            mov         r6,param_2                              
ram:0001f240    0178            ldrb        param_2,[param_1,#0x0]                  
ram:0001f242    1446            mov         r4,param_3                              
ram:0001f244    0546            mov         r5,param_1                              
ram:0001f246    0129            cmp         param_2,#0x1                            
ram:0001f248    01d1            bne         LAB_0001f24e                            
ram:0001f24a    6878            ldrb        param_1,[r5,#0x1]                       
ram:0001f24c    30b1            cbz         param_1,LAB_0001f25c                    
                            LAB_0001f24e:                 ;XREF[1,0]:   0001f248
ram:0001f24e    2088            ldrh        param_1,[r4,#0x0]                       
ram:0001f250    821c            adds        param_3,param_1,#0x2                    
ram:0001f252    9a42            cmp         param_3,param_4                         
ram:0001f254    2dd8            bhi         LAB_0001f2b2                            
ram:0001f256    0129            cmp         param_2,#0x1                            
ram:0001f258    02d0            beq         LAB_0001f260                            
ram:0001f25a    06e0            b           LAB_0001f26a                            
                            LAB_0001f25c:                 ;XREF[1,0]:   0001f24c
ram:0001f25c    0720            movs        param_1,#0x7                            
                            LAB_0001f25e:                 ;XREF[1,0]:   0001f280
ram:0001f25e    f8bd            pop         {param_4,r4,r5,r6,r7,pc}                
                            LAB_0001f260:                 ;XREF[1,0]:   0001f258
ram:0001f260    6978            ldrb        param_2,[r5,#0x1]                       
ram:0001f262    0144            add         param_2,param_1                         
ram:0001f264    891c            adds        param_2,param_2,#0x2                    
ram:0001f266    9942            cmp         param_2,param_4                         
ram:0001f268    23d8            bhi         LAB_0001f2b2                            
                            LAB_0001f26a:                 ;XREF[1,0]:   0001f25a
ram:0001f26a    181a            subs        param_1,param_4,param_1                 
ram:0001f26c    801e            subs        param_1,param_1,#0x2                    
ram:0001f26e    87b2            uxth        r7,param_1                              
ram:0001f270    adf80070        strh.w      r7,[sp,#0x0]=>local_18                  
ram:0001f274    2188            ldrh        param_2,[r4,#0x0]                       
ram:0001f276    b01c            adds        param_1,r6,#0x2                         
ram:0001f278    0844            add         param_1,param_2                         
ram:0001f27a    6946            mov         param_2,sp                              
ram:0001f27c    7ddf            svc         0x7d                                    
ram:0001f27e    0028            cmp         param_1,#0x0                            
ram:0001f280    edd1            bne         LAB_0001f25e                            
ram:0001f282    2878            ldrb        param_1,[r5,#0x0]                       
ram:0001f284    0228            cmp         param_1,#0x2                            
ram:0001f286    05d1            bne         LAB_0001f294                            
ram:0001f288    bdf80010        ldrh.w      param_2=>local_18,[sp,#0x0]             
ram:0001f28c    b942            cmp         param_2,r7                              
ram:0001f28e    01d8            bhi         LAB_0001f294                            
ram:0001f290    0921            movs        param_2,#0x9                            
ram:0001f292    0ae0            b           LAB_0001f2aa                            
                            LAB_0001f294:                 ;XREF[2,0]:   0001f286,0001f28e
ram:0001f294    0821            movs        param_2,#0x8                            
ram:0001f296    0128            cmp         param_1,#0x1                            
ram:0001f298    05d1            bne         LAB_0001f2a6                            
ram:0001f29a    6878            ldrb        param_1,[r5,#0x1]                       
ram:0001f29c    b842            cmp         param_1,r7                              
ram:0001f29e    02d8            bhi         LAB_0001f2a6                            
ram:0001f2a0    adf80000        strh.w      param_1,[sp,#0x0]=>local_18             
ram:0001f2a4    01e0            b           LAB_0001f2aa                            
                            LAB_0001f2a6:                 ;XREF[2,0]:   0001f298,0001f29e
ram:0001f2a6    adf80070        strh.w      r7,[sp,#0x0]=>local_18                  
                            LAB_0001f2aa:                 ;XREF[2,0]:   0001f292,0001f2a4
ram:0001f2aa    bdf80000        ldrh.w      param_1,[sp,#0x0]=>local_18             
ram:0001f2ae    fe28            cmp         param_1,#0xfe                           
ram:0001f2b0    01d9            bls         LAB_0001f2b6                            
                            LAB_0001f2b2:                 ;XREF[2,0]:   0001f254,0001f268
ram:0001f2b2    0c20            movs        param_1,#0xc                            
ram:0001f2b4    f8bd            pop         {param_4,r4,r5,r6,r7,pc}                
                            LAB_0001f2b6:                 ;XREF[1,0]:   0001f2b0
ram:0001f2b6    2288            ldrh        param_3,[r4,#0x0]                       
ram:0001f2b8    401c            adds        param_1,param_1,#0x1                    
ram:0001f2ba    b054            strb        param_1,[r6,param_3]                    
ram:0001f2bc    2088            ldrh        param_1,[r4,#0x0]                       
ram:0001f2be    401c            adds        param_1,param_1,#0x1                    
ram:0001f2c0    80b2            uxth        param_1,param_1                         
ram:0001f2c2    2080            strh        param_1,[r4,#0x0]                       
ram:0001f2c4    3154            strb        param_2,[r6,param_1]                    
ram:0001f2c6    2088            ldrh        param_1,[r4,#0x0]                       
ram:0001f2c8    401c            adds        param_1,param_1,#0x1                    
ram:0001f2ca    2080            strh        param_1,[r4,#0x0]                       
ram:0001f2cc    bdf80010        ldrh.w      param_2,[sp,#0x0]=>local_18             
ram:0001f2d0    0844            add         param_1,param_2                         
ram:0001f2d2    2080            strh        param_1,[r4,#0x0]                       
ram:0001f2d4    0020            movs        param_1,#0x0                            
ram:0001f2d6    f8bd            pop         {param_4,r4,r5,r6,r7,pc}                
                            ;************************************************************************************************
                            ;*                                           FUNCTION                                           *
                            ;************************************************************************************************
                            ;undefined FUN_0001f2d8(uint param_1, int param_2)
          ;param_1       uint                r0                      
          ;param_2       int                 r1                      
                                                          ;XREF[2,0]:   0001f4b4,0001f544
ram:0001f2d8    4907            lsls        param_2,param_2,#0x1d                   
ram:0001f2da    090e            lsrs        param_2,param_2,#0x18                   
ram:0001f2dc    0028            cmp         param_1,#0x0                            
ram:0001f2de    06da            bge         LAB_0001f2ee                            
ram:0001f2e0    00f00f02        and         r2,param_1,#0xf                         
ram:0001f2e4    02f1e022        add.w       r2,r2,#0xe000e000                       
ram:0001f2e8    82f8141d        strb.w      param_2,[r2,#0xd14]                     
ram:0001f2ec    03e0            b           LAB_0001f2f6                            
                            LAB_0001f2ee:                 ;XREF[1,0]:   0001f2de
ram:0001f2ee    00f1e022        add.w       r2,param_1,#0xe000e000                  
ram:0001f2f2    82f80014        strb.w      param_2,[r2,#0x400]                     
                            LAB_0001f2f6:                 ;XREF[1,0]:   0001f2ec
ram:0001f2f6    00f01f02        and         r2,param_1,#0x1f                        
ram:0001f2fa    0121            movs        param_2,#0x1                            
ram:0001f2fc    9140            lsls        param_2,r2                              
ram:0001f2fe    4009            lsrs        param_1,param_1,#0x5                    
ram:0001f300    8000            lsls        param_1,param_1,#0x2                    
ram:0001f302    00f1e020        add.w       param_1,param_1,#0xe000e000             
ram:0001f306    c0f88012        str.w       param_2,[param_1,#0x280]                
ram:0001f30a    c0f80011        str.w       param_2,[param_1,#0x100]=>DAT_e000e100  
ram:0001f30e    7047            bx          lr                                      
                            ;************************************************************************************************
                            ;*                                           FUNCTION                                           *
                            ;************************************************************************************************
                            ;undefined FUN_0001f310(uint param_1, int param_2)
          ;param_1       uint                r0                      
          ;param_2       int                 r1                      
                                                          ;XREF[1,0]:   0001d9ec
ram:0001f310    2de9f047        push        {r4,r5,r6,r7,r8,r9,r10,lr}              
ram:0001f314    8846            mov         r8,param_2                              
ram:0001f316    8146            mov         r9,param_1                              
ram:0001f318    00f07efb        bl          FUN_0001fa18                            ;undefined4 FUN_0001fa18(int param_1)
ram:0001f31c    0124            movs        r4,#0x1                                 
ram:0001f31e    224e            ldr         r6,[DAT_0001f3a8]                       ;= 20002764h
ram:0001f320    0028            cmp         param_1,#0x0                            
ram:0001f322    4846            mov         param_1,r9                              
ram:0001f324    18d0            beq         LAB_0001f358                            
ram:0001f326    fff7cffb        bl          FUN_0001eac8                            ;int FUN_0001eac8(int param_1)
ram:0001f32a    3044            add         param_1,r6                              
ram:0001f32c    90f84800        ldrb.w      param_1,[param_1,#0x48]=>DAT_200027ac   
ram:0001f330    8009            lsrs        param_1,param_1,#0x6                    
ram:0001f332    0328            cmp         param_1,#0x3                            
ram:0001f334    02d0            beq         LAB_0001f33c                            
ram:0001f336    0128            cmp         param_1,#0x1                            
ram:0001f338    06d0            beq         LAB_0001f348                            
ram:0001f33a    07e0            b           LAB_0001f34c                            
                            LAB_0001f33c:                 ;XREF[1,0]:   0001f334
ram:0001f33c    1b48            ldr         param_1,[DAT_0001f3ac]                  ;= 50000510h
ram:0001f33e    0068            ldr         param_1,[param_1,#0x0]=>DAT_50000510    
ram:0001f340    04fa09f4        lsl.w       r4,r4,r9                                
ram:0001f344    2042            tst         param_1,r4                              
ram:0001f346    01d1            bne         LAB_0001f34c                            
                            LAB_0001f348:                 ;XREF[1,0]:   0001f338
ram:0001f348    0221            movs        param_2,#0x2                            
ram:0001f34a    00e0            b           LAB_0001f34e                            
                            LAB_0001f34c:                 ;XREF[2,0]:   0001f33a,0001f346
ram:0001f34c    0321            movs        param_2,#0x3                            
                            LAB_0001f34e:                 ;XREF[1,0]:   0001f34a
ram:0001f34e    4846            mov         param_1,r9                              
ram:0001f350    bde8f047        pop.w       {r4,r5,r6,r7,r8,r9,r10,lr}              
ram:0001f354    00f0c3ba        b.w         FUN_0001f8de                            ;undefined FUN_0001f8de(int param_1, ...
                            LAB_0001f358:                 ;XREF[1,0]:   0001f324
ram:0001f358    00f06afb        bl          FUN_0001fa30                            ;undefined4 FUN_0001fa30(int param_1)
ram:0001f35c    0028            cmp         param_1,#0x0                            
ram:0001f35e    20d0            beq         LAB_0001f3a2                            
ram:0001f360    4846            mov         param_1,r9                              
ram:0001f362    fff7b1fb        bl          FUN_0001eac8                            ;int FUN_0001eac8(int param_1)
ram:0001f366    0546            mov         r5,param_1                              
ram:0001f368    114f            ldr         r7,[DAT_0001f3b0]                       ;= 40006000h
ram:0001f36a    4ff48070        mov.w       param_1,#0x100                          
ram:0001f36e    07eb8501        add.w       param_2,r7,r5, lsl #0x2                 
ram:0001f372    00eb8500        add.w       param_1,param_1,r5, lsl #0x2            
ram:0001f376    d1f81025        ldr.w       r2,[param_2,#0x510]=>DAT_40006510       
ram:0001f37a    80b2            uxth        param_1,param_1                         
ram:0001f37c    42f00102        orr         r2,r2,#0x1                              
ram:0001f380    c1f81025        str.w       r2,[param_2,#0x510]=>DAT_40006510       
ram:0001f384    00f0bafa        bl          FUN_0001f8fc                            ;undefined FUN_0001f8fc(int param_1)
ram:0001f388    b8f1000f        cmp.w       r8,#0x0                                 
ram:0001f38c    09d0            beq         LAB_0001f3a2                            
ram:0001f38e    4846            mov         param_1,r9                              
ram:0001f390    fff79afb        bl          FUN_0001eac8                            ;int FUN_0001eac8(int param_1)
ram:0001f394    56f82000        ldr.w       param_1,r6=>DAT_20002764,param_1,0x2    
ram:0001f398    0028            cmp         param_1,#0x0                            
ram:0001f39a    02d0            beq         LAB_0001f3a2                            
ram:0001f39c    ac40            lsls        r4,r5                                   
ram:0001f39e    c7f80443        str.w       r4,[r7,#0x304]=>DAT_40006304            
                            LAB_0001f3a2:                 ;XREF[3,0]:   0001f35e,0001f38c,0001f39a
ram:0001f3a2    bde8f087        pop.w       {r4,r5,r6,r7,r8,r9,r10,pc}              
ram:0001f3a6    00              ??          00h                                     
ram:0001f3a7    00              ??          00h                                     
                            DAT_0001f3a8:                 ;XREF[1,0]:   0001f31e
ram:0001f3a8    64270020        undefined4  20002764h                               
                            DAT_0001f3ac:                 ;XREF[1,0]:   0001f33c
ram:0001f3ac    10050050        undefined4  50000510h                               
                            DAT_0001f3b0:                 ;XREF[1,0]:   0001f368
ram:0001f3b0    00600040        undefined4  40006000h                               
                            ;************************************************************************************************
                            ;*                                           FUNCTION                                           *
                            ;************************************************************************************************
                            ;undefined4 FUN_0001f3b4(uint param_1, byte * param_2, undefined4 param_3)
          ;param_1       uint                r0                      
          ;param_2       byte *              r1                      
          ;param_3       undefined4          r2                      
          ;local_1c      undefined4         -1c                      ;XREF[1,0]:   0001f408
          ;local_20      undefined4         -20                      ;XREF[1,0]:   0001f404
                                                          ;XREF[1,0]:   0001da44
ram:0001f3b4    2de9fc41        push        {param_3,r3,r4,r5,r6,r7,r8,lr}          
ram:0001f3b8    dff8a480        ldr.w       r8,[DAT_0001f460]                       ;= 20002764h
ram:0001f3bc    0446            mov         r4,param_1                              
ram:0001f3be    08eb0400        add.w       param_1,r8,r4                           
ram:0001f3c2    0027            movs        r7,#0x0                                 
ram:0001f3c4    90f93000        ldrsb.w     param_1,[param_1,#0x30]=>DAT_20002794   
ram:0001f3c8    1346            mov         r3,param_3                              
ram:0001f3ca    c017            asrs        param_1,param_1,#0x1f                   
ram:0001f3cc    0e46            mov         r6,param_2                              
ram:0001f3ce    401c            adds        param_1,param_1,#0x1                    
ram:0001f3d0    01d0            beq         LAB_0001f3d6                            
ram:0001f3d2    0827            movs        r7,#0x8                                 
ram:0001f3d4    40e0            b           LAB_0001f458                            
                            LAB_0001f3d6:                 ;XREF[1,0]:   0001f3d0
ram:0001f3d6    f278            ldrb        param_3,[r6,#0x3]                       
ram:0001f3d8    1946            mov         param_2,r3                              
ram:0001f3da    2046            mov         param_1,r4                              
ram:0001f3dc    fff750fb        bl          FUN_0001ea80                            ;int FUN_0001ea80(int param_1, undefi...
ram:0001f3e0    0546            mov         r5,param_1                              
ram:0001f3e2    401c            adds        param_1,param_1,#0x1                    
ram:0001f3e4    37d0            beq         LAB_0001f456                            
ram:0001f3e6    b078            ldrb        param_1,[r6,#0x2]                       
ram:0001f3e8    48b1            cbz         param_1,LAB_0001f3fe                    
ram:0001f3ea    a000            lsls        param_1,r4,#0x2                         
ram:0001f3ec    00f1a040        add.w       param_1,param_1,#0x50000000             
ram:0001f3f0    d0f80017        ldr.w       param_2,[param_1,#0x700]                
ram:0001f3f4    21f00201        bic         param_2,param_2,#0x2                    
ram:0001f3f8    c0f80017        str.w       param_2,[param_1,#0x700]                
ram:0001f3fc    07e0            b           LAB_0001f40e                            
                            LAB_0001f3fe:                 ;XREF[1,0]:   0001f3e8
ram:0001f3fe    0021            movs        param_2,#0x0                            
ram:0001f400    7378            ldrb        r3,[r6,#0x1]                            
ram:0001f402    2046            mov         param_1,r4                              
ram:0001f404    0091            str         param_2,[sp,#0x0]=>local_20             
ram:0001f406    0a46            mov         param_3,param_2                         
ram:0001f408    0191            str         param_2,[sp,#local_1c+0x20]             
ram:0001f40a    00f033fa        bl          FUN_0001f874                            ;undefined FUN_0001f874(int param_1, ...
                            LAB_0001f40e:                 ;XREF[1,0]:   0001f3fc
ram:0001f40e    f078            ldrb        param_1,[r6,#0x3]                       
ram:0001f410    c0b1            cbz         param_1,LAB_0001f444                    
ram:0001f412    1448            ldr         param_1,[DAT_0001f464]                  ;= 40006000h
ram:0001f414    3178            ldrb        param_2,[r6,#0x0]                       
ram:0001f416    00eb8500        add.w       param_1,param_1,r5, lsl #0x2            
ram:0001f41a    d0f81025        ldr.w       param_3,[param_1,#0x510]=>DAT_40006510  
ram:0001f41e    124b            ldr         r3,[DAT_0001f468]                       ;= FFFCE0FFh
ram:0001f420    1a40            ands        param_3,r3                              
ram:0001f422    c0f81025        str.w       param_3,[param_1,#0x510]=>DAT_40006510  
ram:0001f426    4ff4f852        mov.w       param_3,#0x1f00                         
ram:0001f42a    4ff44033        mov.w       r3,#0x30000                             
ram:0001f42e    02ea0422        and.w       param_3,param_3,r4, lsl #0x8            
ram:0001f432    03ea0141        and.w       param_2,r3,param_2, lsl #0x10           
ram:0001f436    0a43            orrs        param_3,param_2                         
ram:0001f438    d0f81015        ldr.w       param_2,[param_1,#0x510]=>DAT_40006510  
ram:0001f43c    0a43            orrs        param_3,param_2                         
ram:0001f43e    c0f81025        str.w       param_3,[param_1,#0x510]=>DAT_40006510  
ram:0001f442    09e0            b           LAB_0001f458                            
                            LAB_0001f444:                 ;XREF[1,0]:   0001f410
ram:0001f444    08eb0500        add.w       param_1,r8,r5                           
ram:0001f448    3278            ldrb        param_3,[r6,#0x0]                       
ram:0001f44a    10f8481f        ldrb.w      param_2,[param_1,#0x48]!=>DAT_200027ac  
ram:0001f44e    41ea8211        orr.w       param_2,param_2,param_3, lsl #0x6       
ram:0001f452    0170            strb        param_2,[param_1,#0x0]=>DAT_200027ac    
ram:0001f454    00e0            b           LAB_0001f458                            
                            LAB_0001f456:                 ;XREF[1,0]:   0001f3e4
ram:0001f456    0427            movs        r7,#0x4                                 
                            LAB_0001f458:                 ;XREF[3,0]:   0001f3d4,0001f442,0001f454
ram:0001f458    3846            mov         param_1,r7                              
ram:0001f45a    bde8fc81        pop.w       {param_3,r3,r4,r5,r6,r7,r8,pc}          
ram:0001f45e    00              ??          00h                                     
ram:0001f45f    00              ??          00h                                     
                            DAT_0001f460:                 ;XREF[1,0]:   0001f3b8
ram:0001f460    64270020        undefined4  20002764h                               
                            DAT_0001f464:                 ;XREF[1,0]:   0001f412
ram:0001f464    00600040        undefined4  40006000h                               
                            DAT_0001f468:                 ;XREF[1,0]:   0001f41e
ram:0001f468    ffe0fcff        undefined4  FFFCE0FFh                               
                            ;************************************************************************************************
                            ;*                                           FUNCTION                                           *
                            ;************************************************************************************************
                            ;uint FUN_0001f46c(uint param_1)
          ;param_1       uint                r0                      
                                                          ;XREF[2,0]:   0001ec8e,0001ed74
ram:0001f46c    0349            ldr         r1,[DAT_0001f47c]                       ;= 50000510h
ram:0001f46e    0968            ldr         r1,[r1,#0x0]=>DAT_50000510              
ram:0001f470    c140            lsrs        r1,param_1                              
ram:0001f472    11f00100        ands        param_1,r1,#0x1                         
ram:0001f476    00d0            beq         LAB_0001f47a                            
ram:0001f478    0120            movs        param_1,#0x1                            
                            LAB_0001f47a:                 ;XREF[1,0]:   0001f476
ram:0001f47a    7047            bx          lr                                      
                            DAT_0001f47c:                 ;XREF[1,0]:   0001f46c
ram:0001f47c    10050050        undefined4  50000510h                               
                            ;************************************************************************************************
                            ;*                                           FUNCTION                                           *
                            ;************************************************************************************************
                            ;undefined4 FUN_0001f480(void)
                                                          ;XREF[1,0]:   0001da16
ram:0001f480    70b5            push        {r4,r5,r6,lr}                           
ram:0001f482    124d            ldr         r5,[DAT_0001f4cc]                       ;= 20002764h
ram:0001f484    95f85400        ldrb.w      r0,[r5,#0x54]=>DAT_200027b8             
ram:0001f488    08b1            cbz         r0,LAB_0001f48e                         
ram:0001f48a    0820            movs        r0,#0x8                                 
ram:0001f48c    70bd            pop         {r4,r5,r6,pc}                           
                            LAB_0001f48e:                 ;XREF[1,0]:   0001f488
ram:0001f48e    0020            movs        r0,#0x0                                 
ram:0001f490    411e            subs        r1,r0,#0x1                              
                            LAB_0001f492:                 ;XREF[1,0]:   0001f49e
ram:0001f492    2a18            adds        r2=>DAT_20002764,r5,r0                  
ram:0001f494    401c            adds        r0,r0,#0x1                              
ram:0001f496    c0b2            uxtb        r0,r0                                   
                                                          ; FWD[2,0]:   20002794,20002795
ram:0001f498    82f83010        strb.w      r1,[r2,#0x30]=>DAT_20002794             
ram:0001f49c    2028            cmp         r0,#0x20                                
ram:0001f49e    f8d3            bcc         LAB_0001f492                            
ram:0001f4a0    0024            movs        r4,#0x0                                 
                            LAB_0001f4a2:                 ;XREF[1,0]:   0001f4ae
ram:0001f4a2    2046            mov         r0,r4                                   
ram:0001f4a4    fff7defa        bl          FUN_0001ea64                            ;undefined FUN_0001ea64(uint param_1)
ram:0001f4a8    641c            adds        r4,r4,#0x1                              
ram:0001f4aa    e4b2            uxtb        r4,r4                                   
ram:0001f4ac    0c2c            cmp         r4,#0xc                                 
ram:0001f4ae    f8d3            bcc         LAB_0001f4a2                            
ram:0001f4b0    0621            movs        r1,#0x6                                 
ram:0001f4b2    0846            mov         r0,r1                                   
ram:0001f4b4    fff710ff        bl          FUN_0001f2d8                            ;undefined FUN_0001f2d8(uint param_1,...
ram:0001f4b8    0549            ldr         r1,[DAT_0001f4d0]                       ;= 40006000h
ram:0001f4ba    4ff00040        mov.w       r0,#0x80000000                          
ram:0001f4be    c1f80403        str.w       r0,[r1,#0x304]=>DAT_40006304            
ram:0001f4c2    0120            movs        r0,#0x1                                 
ram:0001f4c4    85f85400        strb.w      r0,[r5,#0x54]=>DAT_200027b8             
ram:0001f4c8    0020            movs        r0,#0x0                                 
ram:0001f4ca    70bd            pop         {r4,r5,r6,pc}                           
                            DAT_0001f4cc:                 ;XREF[1,0]:   0001f482
ram:0001f4cc    64270020        undefined4  20002764h                               
                            DAT_0001f4d0:                 ;XREF[1,0]:   0001f4b8
ram:0001f4d0    00600040        undefined4  40006000h                               
                            ;************************************************************************************************
                            ;*                                           FUNCTION                                           *
                            ;************************************************************************************************
                            ;char FUN_0001f4d4(void)
                                                          ;XREF[1,0]:   0001da10
ram:0001f4d4    0348            ldr         r0,[DAT_0001f4e4]                       ;= 20002764h
ram:0001f4d6    90f85400        ldrb.w      r0,[r0,#0x54]=>DAT_200027b8             
ram:0001f4da    0028            cmp         r0,#0x0                                 
ram:0001f4dc    00d0            beq         LAB_0001f4e0                            
ram:0001f4de    0120            movs        r0,#0x1                                 
                            LAB_0001f4e0:                 ;XREF[1,0]:   0001f4dc
ram:0001f4e0    7047            bx          lr                                      
ram:0001f4e2    0000            movs        r0,r0                                   
                            DAT_0001f4e4:                 ;XREF[1,0]:   0001f4d4
ram:0001f4e4    64270020        undefined4  20002764h                               
                            ;************************************************************************************************
                            ;*                                           FUNCTION                                           *
                            ;************************************************************************************************
                            ;undefined4 FUN_0001f4e8(int * param_1, int param_2)
          ;param_1       int *               r0                      
          ;param_2       int                 r1                      
                                                          ;XREF[1,0]:   0001dd20
ram:0001f4e8    2de9f041        push        {r4,r5,r6,r7,r8,lr}                     
ram:0001f4ec    1e4c            ldr         r4,[DAT_0001f568]                       ;= 200027BCh
ram:0001f4ee    0746            mov         r7,param_1                              
ram:0001f4f0    0d46            mov         r5,param_2                              
ram:0001f4f2    e07e            ldrb        param_1,[r4,#0x1b]=>DAT_200027d7        
ram:0001f4f4    10b1            cbz         param_1,LAB_0001f4fc                    
ram:0001f4f6    0820            movs        param_1,#0x8                            
                            LAB_0001f4f8:                 ;XREF[1,0]:   0001f564
ram:0001f4f8    bde8f081        pop.w       {r4,r5,r6,r7,r8,pc}                     
                            LAB_0001f4fc:                 ;XREF[1,0]:   0001f4f4
ram:0001f4fc    07b9            cbnz        r7,LAB_0001f500                         
ram:0001f4fe    1b4f            ldr         r7,[PTR_DAT_0001f56c]                   ;= 00020504
                            LAB_0001f500:                 ;XREF[1,0]:   0001f4fc
ram:0001f500    787f            ldrb        param_1,[r7,#0x1d]=>DAT_00020521        
ram:0001f502    2077            strb        param_1,[r4,#0x1c]=>DAT_200027d8        
ram:0001f504    3846            mov         param_1=>DAT_00020504,r7                ;= 06h
ram:0001f506    fef741fc        bl          FUN_0001dd8c                            ;undefined FUN_0001dd8c(int * param_1)
ram:0001f50a    6560            str         r5,[r4,#0x4]=>DAT_200027c0              
ram:0001f50c    3869            ldr         param_1,[r7,#0x10]=>DAT_00020514        
ram:0001f50e    2060            str         param_1,[r4,#0x0]=>DAT_200027bc         
ram:0001f510    2800            movs        param_1,r5                              
ram:0001f512    174e            ldr         r6,[DAT_0001f570]                       ;= 40002000h
ram:0001f514    4ff00005        mov.w       r5,#0x0                                 
ram:0001f518    16d0            beq         LAB_0001f548                            
ram:0001f51a    397f            ldrb        param_2,[r7,#0x1c]=>DAT_00020520        ;= 06h
ram:0001f51c    207f            ldrb        param_1,[r4,#0x1c]=>DAT_200027d8        
ram:0001f51e    48b1            cbz         param_1,LAB_0001f534                    
ram:0001f520    c6f81051        str.w       r5,[r6,#0x110]=>DAT_40002110            
ram:0001f524    c6f82051        str.w       r5,[r6,#0x120]=>DAT_40002120            
ram:0001f528    c6f82451        str.w       r5,[r6,#0x124]=>DAT_40002124            
ram:0001f52c    c6f84451        str.w       r5,[r6,#0x144]=>DAT_40002144            
ram:0001f530    1048            ldr         param_1,[DAT_0001f574]                  ;= 00020310h
ram:0001f532    04e0            b           LAB_0001f53e                            
                            LAB_0001f534:                 ;XREF[1,0]:   0001f51e
ram:0001f534    c6f81c51        str.w       r5,[r6,#0x11c]=>DAT_4000211c            
ram:0001f538    c6f84451        str.w       r5,[r6,#0x144]=>DAT_40002144            
ram:0001f53c    0e48            ldr         param_1,[->FUN_00020080]                ;= 00020080
                            LAB_0001f53e:                 ;XREF[1,0]:   0001f532
ram:0001f53e    c6f80403        str.w       param_1=>FUN_000...,[r6,#0x304]=>DAT_...
ram:0001f542    0220            movs        param_1,#0x2                            
ram:0001f544    fff7c8fe        bl          FUN_0001f2d8                            ;undefined FUN_0001f2d8(uint param_1,...
                            LAB_0001f548:                 ;XREF[1,0]:   0001f518
ram:0001f548    207f            ldrb        param_1,[r4,#0x1c]=>DAT_200027d8        
ram:0001f54a    08b1            cbz         param_1,LAB_0001f550                    
ram:0001f54c    0820            movs        param_1,#0x8                            
ram:0001f54e    00e0            b           LAB_0001f552                            
                            LAB_0001f550:                 ;XREF[1,0]:   0001f54a
ram:0001f550    0420            movs        param_1,#0x4                            
                            LAB_0001f552:                 ;XREF[1,0]:   0001f54e
ram:0001f552    c6f80005        str.w       param_1,[r6,#0x500]=>DAT_40002500       
ram:0001f556    e575            strb        r5,[r4,#0x17]=>DAT_200027d3             
ram:0001f558    2576            strb        r5,[r4,#0x18]=>DAT_200027d4             
ram:0001f55a    a575            strb        r5,[r4,#0x16]=>DAT_200027d2             
ram:0001f55c    0120            movs        param_1,#0x1                            
ram:0001f55e    e076            strb        param_1,[r4,#0x1b]=>DAT_200027d7        
ram:0001f560    a576            strb        r5,[r4,#0x1a]=>DAT_200027d6             
ram:0001f562    0020            movs        param_1,#0x0                            
ram:0001f564    c8e7            b           LAB_0001f4f8                            
ram:0001f566    0000            movs        r0,r0                                   
                            DAT_0001f568:                 ;XREF[1,0]:   0001f4ec
ram:0001f568    bc270020        undefined4  200027BCh                               
                            PTR_DAT_0001f56c:             ;XREF[1,0]:   0001f4fe
ram:0001f56c    04050200        addr        DAT_00020504                            ;= 06h
                            DAT_0001f570:                 ;XREF[1,0]:   0001f512
ram:0001f570    00200040        undefined4  40002000h                               
                            DAT_0001f574:                 ;XREF[1,0]:   0001f530
ram:0001f574    10030200        undefined4  00020310h                               ;?  ->  00020310
                            PTR_FUN_0001f578:             ;XREF[1,0]:   0001f53c
ram:0001f578    80000200        addr        FUN_00020080                            
                            ;************************************************************************************************
                            ;*                                           FUNCTION                                           *
                            ;************************************************************************************************
                            ;undefined4 FUN_0001f57c(uint param_1, undefined4 param_2)
          ;param_1       uint                r0                      
          ;param_2       undefined4          r1                      
                                                          ;XREF[4,0]:   0001dc96,0001dd40,000200ae,000200c4
ram:0001f57c    2de9f041        push        {r4,r5,r6,r7,r8,lr}                     
ram:0001f580    1f4b            ldr         r3,[DAT_0001f600]                       ;= 200027BCh
ram:0001f582    1c7f            ldrb        r4,[r3,#0x1c]=>DAT_200027d8             
ram:0001f584    3cb1            cbz         r4,LAB_0001f596                         
ram:0001f586    4ff40052        mov.w       r2,#0x2000                              
ram:0001f58a    b2eb104f        cmp.w       r2,param_1, lsr #0x10                   
ram:0001f58e    02d0            beq         LAB_0001f596                            
ram:0001f590    1020            movs        param_1,#0x10                           
                            LAB_0001f592:                 ;XREF[1,0]:   0001f5da
ram:0001f592    bde8f081        pop.w       {r4,r5,r6,r7,r8,pc}                     
                            LAB_0001f596:                 ;XREF[2,0]:   0001f584,0001f58e
ram:0001f596    d3f804c0        ldr.w       r12,[r3,#0x4]=>DAT_200027c0             
ram:0001f59a    0022            movs        r2,#0x0                                 
ram:0001f59c    194d            ldr         r5,[DAT_0001f604]                       ;= 40002000h
ram:0001f59e    4ff40476        mov.w       r6,#0x210                               
ram:0001f5a2    4ff40177        mov.w       r7,#0x204                               
ram:0001f5a6    bcf1000f        cmp.w       r12,#0x0                                
ram:0001f5aa    05d0            beq         LAB_0001f5b8                            
ram:0001f5ac    14b1            cbz         r4,LAB_0001f5b4                         
ram:0001f5ae    c5f80863        str.w       r6,[r5,#0x308]=>DAT_40002308            
ram:0001f5b2    01e0            b           LAB_0001f5b8                            
                            LAB_0001f5b4:                 ;XREF[1,0]:   0001f5ac
ram:0001f5b4    c5f80873        str.w       r7,[r5,#0x308]=>DAT_40002308            
                            LAB_0001f5b8:                 ;XREF[2,0]:   0001f5aa,0001f5b2
ram:0001f5b8    93f817e0        ldrb.w      lr,[r3,#0x17]=>DAT_200027d3             
ram:0001f5bc    bef1000f        cmp.w       lr,#0x0                                 
ram:0001f5c0    10d0            beq         LAB_0001f5e4                            
ram:0001f5c2    1a7e            ldrb        r2,[r3,#0x18]=>DAT_200027d4             
ram:0001f5c4    52b1            cbz         r2,LAB_0001f5dc                         
ram:0001f5c6    bcf1000f        cmp.w       r12,#0x0                                
ram:0001f5ca    05d0            beq         LAB_0001f5d8                            
ram:0001f5cc    14b1            cbz         r4,LAB_0001f5d4                         
ram:0001f5ce    c5f80463        str.w       r6,[r5,#0x304]=>DAT_40002304            
ram:0001f5d2    01e0            b           LAB_0001f5d8                            
                            LAB_0001f5d4:                 ;XREF[1,0]:   0001f5cc
ram:0001f5d4    c5f80473        str.w       r7,[r5,#0x304]=>DAT_40002304            
                            LAB_0001f5d8:                 ;XREF[2,0]:   0001f5ca,0001f5d2
ram:0001f5d8    1120            movs        param_1,#0x11                           
ram:0001f5da    dae7            b           LAB_0001f592                            
                            LAB_0001f5dc:                 ;XREF[1,0]:   0001f5c4
ram:0001f5dc    1861            str         param_1,[r3,#0x10]=>DAT_200027cc        
ram:0001f5de    0122            movs        r2,#0x1                                 
ram:0001f5e0    1976            strb        param_2,[r3,#0x18]=>DAT_200027d4        
ram:0001f5e2    04e0            b           LAB_0001f5ee                            
                            LAB_0001f5e4:                 ;XREF[1,0]:   0001f5c0
ram:0001f5e4    d975            strb        param_2,[r3,#0x17]=>DAT_200027d3        
ram:0001f5e6    0025            movs        r5,#0x0                                 
ram:0001f5e8    d860            str         param_1,[r3,#0xc]=>DAT_200027c8         
ram:0001f5ea    5d76            strb        r5,[r3,#0x19]=>DAT_200027d5             
ram:0001f5ec    1d76            strb        r5,[r3,#0x18]=>DAT_200027d4             
                            LAB_0001f5ee:                 ;XREF[1,0]:   0001f5e2
ram:0001f5ee    1cb1            cbz         r4,LAB_0001f5f8                         
ram:0001f5f0    bde8f041        pop.w       {r4,r5,r6,r7,r8,lr}                     
ram:0001f5f4    00f066b8        b.w         LAB_0001f6c4                            
                            LAB_0001f5f8:                 ;XREF[1,0]:   0001f5ee
ram:0001f5f8    bde8f041        pop.w       {r4,r5,r6,r7,r8,lr}                     
ram:0001f5fc    00f014b8        b.w         LAB_0001f628                            
                            DAT_0001f600:                 ;XREF[1,0]:   0001f580
ram:0001f600    bc270020        undefined4  200027BCh                               
                            DAT_0001f604:                 ;XREF[1,0]:   0001f59c
ram:0001f604    00200040        undefined4  40002000h                               
                            ;************************************************************************************************
                            ;*                                           FUNCTION                                           *
                            ;************************************************************************************************
                            ;undefined FUN_0001f608(void)
                                                          ;XREF[1,0]:   0001dd36
ram:0001f608    10b5            push        {r4,lr}                                 
ram:0001f60a    064c            ldr         r4,[DAT_0001f624]                       ;= 200027BCh
ram:0001f60c    207f            ldrb        r0,[r4,#0x1c]=>DAT_200027d8             
ram:0001f60e    0028            cmp         r0,#0x0                                 
ram:0001f610    06d1            bne         LAB_0001f620                            
ram:0001f612    a07e            ldrb        r0,[r4,#0x1a]=>DAT_200027d6             
ram:0001f614    0028            cmp         r0,#0x0                                 
ram:0001f616    03d1            bne         LAB_0001f620                            
ram:0001f618    00f0dcfa        bl          FUN_0001fbd4                            ;undefined FUN_0001fbd4(void)
ram:0001f61c    0120            movs        r0,#0x1                                 
ram:0001f61e    a076            strb        r0,[r4,#0x1a]=>DAT_200027d6             
                            LAB_0001f620:                 ;XREF[2,0]:   0001f610,0001f616
ram:0001f620    10bd            pop         {r4,pc}                                 
ram:0001f622    0000            movs        r0,r0                                   
                            DAT_0001f624:                 ;XREF[1,0]:   0001f60a
ram:0001f624    bc270020        undefined4  200027BCh                               
                            LAB_0001f628:                 ;XREF[1,0]:   0001f5fc
ram:0001f628    2de9f05f        push        {r4,r5,r6,r7,r8,r9,r10,r11,r12,lr}      
ram:0001f62c    234d            ldr         r5,[DAT_0001f6bc]                       ;= 200027BCh
ram:0001f62e    a87e            ldrb        param_1,[r5,#0x1a]=>DAT_200027d6        
ram:0001f630    1043            orrs        param_1,r2                              
ram:0001f632    01d1            bne         LAB_0001f638                            
ram:0001f634    00f0cefa        bl          FUN_0001fbd4                            ;undefined FUN_0001fbd4(void)
                            LAB_0001f638:                 ;XREF[1,0]:   0001f632
ram:0001f638    214c            ldr         r4,[DAT_0001f6c0]                       ;= 40002000h
ram:0001f63a    6868            ldr         param_1,[r5,#0x4]=>DAT_200027c0         
ram:0001f63c    30b1            cbz         param_1,LAB_0001f64c                    
ram:0001f63e    4ff40170        mov.w       param_1,#0x204                          
ram:0001f642    c4f80403        str.w       param_1,[r4,#0x304]=>DAT_40002304       
                            LAB_0001f646:                 ;XREF[2,0]:   0001f6b6,0001f6ba
ram:0001f646    0020            movs        param_1,#0x0                            
                            LAB_0001f648:                 ;XREF[2,0]:   0001f6a4,0001f6aa
ram:0001f648    bde8f09f        pop.w       {r4,r5,r6,r7,r8,r9,r10,r11,r12,pc}      
                            LAB_0001f64c:                 ;XREF[1,0]:   0001f63c
ram:0001f64c    4ff00009        mov.w       r9,#0x0                                 
ram:0001f650    4ff4a27a        mov.w       r10,#0x144                              
ram:0001f654    c4f84491        str.w       r9,[r4,#0x144]=>DAT_40002144            
ram:0001f658    4ff4927b        mov.w       r11,#0x124                              
ram:0001f65c    a846            mov         r8,r5                                   
                            LAB_0001f65e:                 ;XREF[2,0]:   0001f684,0001f69a
ram:0001f65e    5946            mov         param_2,r11                             
ram:0001f660    2046            mov         param_1=>DAT_40002000,r4                
ram:0001f662    00f05df9        bl          FUN_0001f920                            ;int FUN_0001f920(int param_1, int pa...
ram:0001f666    0546            mov         r5,param_1                              
ram:0001f668    4ff48471        mov.w       param_2,#0x108                          
ram:0001f66c    2046            mov         param_1=>DAT_40002000,r4                
ram:0001f66e    00f057f9        bl          FUN_0001f920                            ;int FUN_0001f920(int param_1, int pa...
ram:0001f672    0746            mov         r7,param_1                              
ram:0001f674    5146            mov         param_2,r10                             
ram:0001f676    2046            mov         param_1=>DAT_40002000,r4                
ram:0001f678    00f052f9        bl          FUN_0001f920                            ;int FUN_0001f920(int param_1, int pa...
ram:0001f67c    0646            mov         r6,param_1                              
ram:0001f67e    47ea0601        orr.w       param_2,r7,r6                           
ram:0001f682    2943            orrs        param_2,r5                              
ram:0001f684    ebd0            beq         LAB_0001f65e                            
ram:0001f686    55ea0600        orrs.w      param_1,r5,r6                           
ram:0001f68a    07d1            bne         LAB_0001f69c                            
ram:0001f68c    00f00cfa        bl          FUN_0001faa8                            ;int FUN_0001faa8(void)
ram:0001f690    98f81710        ldrb.w      param_2,[r8,#0x17]=>DAT_200027d3        
ram:0001f694    98f81900        ldrb.w      param_1,[r8,#0x19]=>DAT_200027d5        
ram:0001f698    8142            cmp         param_2,param_1                         
ram:0001f69a    e0d8            bhi         LAB_0001f65e                            
                            LAB_0001f69c:                 ;XREF[1,0]:   0001f68a
ram:0001f69c    88f81790        strb.w      r9,[r8,#0x17]=>DAT_200027d3             
ram:0001f6a0    0db1            cbz         r5,LAB_0001f6a6                         
ram:0001f6a2    0320            movs        param_1,#0x3                            
ram:0001f6a4    d0e7            b           LAB_0001f648                            
                            LAB_0001f6a6:                 ;XREF[1,0]:   0001f6a0
ram:0001f6a6    0eb1            cbz         r6,LAB_0001f6ac                         
ram:0001f6a8    0f20            movs        param_1,#0xf                            
ram:0001f6aa    cde7            b           LAB_0001f648                            
                            LAB_0001f6ac:                 ;XREF[1,0]:   0001f6a6
ram:0001f6ac    98f81a10        ldrb.w      param_2,[r8,#0x1a]=>DAT_200027d6        
ram:0001f6b0    0120            movs        param_1,#0x1                            
ram:0001f6b2    09b1            cbz         param_2,LAB_0001f6b8                    
ram:0001f6b4    2060            str         param_1,[r4,#0x0]=>DAT_40002000         
ram:0001f6b6    c6e7            b           LAB_0001f646                            
                            LAB_0001f6b8:                 ;XREF[1,0]:   0001f6b2
ram:0001f6b8    6060            str         param_1,[r4,#offset DAT_40002004 &0xff] 
ram:0001f6ba    c4e7            b           LAB_0001f646                            
                            DAT_0001f6bc:                 ;XREF[1,0]:   0001f62c
ram:0001f6bc    bc270020        undefined4  200027BCh                               
                            DAT_0001f6c0:                 ;XREF[1,0]:   0001f638
ram:0001f6c0    00200040        undefined4  40002000h                               
                            LAB_0001f6c4:                 ;XREF[1,0]:   0001f5f4
ram:0001f6c4    2de9f05f        push        {r4,r5,r6,r7,r8,r9,r10,r11,r12,lr}      
ram:0001f6c8    204c            ldr         r4,[DAT_0001f74c]                       ;= 40002000h
ram:0001f6ca    0026            movs        r6,#0x0                                 
ram:0001f6cc    4ff48873        mov.w       r3,#0x110                               
ram:0001f6d0    c4f81061        str.w       r6,[r4,#0x110]=>DAT_40002110            
ram:0001f6d4    4ff4a275        mov.w       r5,#0x144                               
ram:0001f6d8    c4f84461        str.w       r6,[r4,#0x144]=>DAT_40002144            
ram:0001f6dc    c4f83405        str.w       param_1,[r4,#0x534]=>DAT_40002534       
ram:0001f6e0    c4f83815        str.w       param_2,[r4,#0x538]=>DAT_40002538       
ram:0001f6e4    8ab1            cbz         r2,LAB_0001f70a                         
ram:0001f6e6    d4f80002        ldr.w       param_1,[r4,#0x200]=>DAT_40002200       
ram:0001f6ea    40f02000        orr         param_1,param_1,#0x20                   
ram:0001f6ee    c4f80002        str.w       param_1,[r4,#0x200]=>DAT_40002200       
                            LAB_0001f6f2:                 ;XREF[1,0]:   0001f70e
ram:0001f6f2    dff85c80        ldr.w       r8,[DAT_0001f750]                       ;= 200027BCh
ram:0001f6f6    d8f80400        ldr.w       param_1,[r8,#0x4]=>DAT_200027c0         
ram:0001f6fa    48b1            cbz         param_1,LAB_0001f710                    
ram:0001f6fc    4ff40470        mov.w       param_1,#0x210                          
ram:0001f700    c4f80403        str.w       param_1,[r4,#0x304]=>DAT_40002304       
                            LAB_0001f704:                 ;XREF[1,0]:   0001f746
ram:0001f704    0020            movs        param_1,#0x0                            
                            LAB_0001f706:                 ;XREF[2,0]:   0001f742,0001f74a
ram:0001f706    bde8f09f        pop.w       {r4,r5,r6,r7,r8,r9,r10,r11,r12,pc}      
                            LAB_0001f70a:                 ;XREF[1,0]:   0001f6e4
ram:0001f70a    0120            movs        param_1,#0x1                            
ram:0001f70c    2060            str         param_1,[r4,#0x0]=>DAT_40002000         
ram:0001f70e    f0e7            b           LAB_0001f6f2                            
                            LAB_0001f710:                 ;XREF[1,0]:   0001f6fa
ram:0001f710    9a46            mov         r10,r3                                  
ram:0001f712    a946            mov         r9,r5                                   
ram:0001f714    4ff4927b        mov.w       r11,#0x124                              
                            LAB_0001f718:                 ;XREF[1,0]:   0001f738
ram:0001f718    5146            mov         param_2,r10                             
ram:0001f71a    2046            mov         param_1=>DAT_40002000,r4                
ram:0001f71c    00f00bf9        bl          FUN_0001f936                            ;int FUN_0001f936(int param_1, int pa...
ram:0001f720    0546            mov         r5,param_1                              
ram:0001f722    4946            mov         param_2,r9                              
ram:0001f724    2046            mov         param_1=>DAT_40002000,r4                
ram:0001f726    00f006f9        bl          FUN_0001f936                            ;int FUN_0001f936(int param_1, int pa...
ram:0001f72a    0746            mov         r7,param_1                              
ram:0001f72c    5946            mov         param_2,r11                             
ram:0001f72e    2046            mov         param_1=>DAT_40002000,r4                
ram:0001f730    00f001f9        bl          FUN_0001f936                            ;int FUN_0001f936(int param_1, int pa...
ram:0001f734    3d43            orrs        r5,r7                                   
ram:0001f736    0543            orrs        r5,param_1                              
ram:0001f738    eed0            beq         LAB_0001f718                            
ram:0001f73a    88f81760        strb.w      r6,[r8,#0x17]=>DAT_200027d3             
ram:0001f73e    08b1            cbz         param_1,LAB_0001f744                    
ram:0001f740    0320            movs        param_1,#0x3                            
ram:0001f742    e0e7            b           LAB_0001f706                            
                            LAB_0001f744:                 ;XREF[1,0]:   0001f73e
ram:0001f744    002f            cmp         r7,#0x0                                 
ram:0001f746    ddd0            beq         LAB_0001f704                            
ram:0001f748    0f20            movs        param_1,#0xf                            
ram:0001f74a    dce7            b           LAB_0001f706                            
                            DAT_0001f74c:                 ;XREF[1,0]:   0001f6c8
ram:0001f74c    00200040        undefined4  40002000h                               
                            DAT_0001f750:                 ;XREF[1,0]:   0001f6f2
ram:0001f750    bc270020        undefined4  200027BCh                               
                            ;************************************************************************************************
                            ;*                                           FUNCTION                                           *
                            ;************************************************************************************************
                            ;undefined4 FUN_0001f754(uint param_1)
          ;param_1       uint                r0                      
                                                          ;XREF[2,0]:   0001dd7a,000200d0
ram:0001f754    2de9f047        push        {r4,r5,r6,r7,r8,r9,r10,lr}              
ram:0001f758    204d            ldr         r5,[DAT_0001f7dc]                       ;= 200027BCh
ram:0001f75a    0246            mov         r2,param_1                              
ram:0001f75c    287f            ldrb        param_1,[r5,#0x1c]=>DAT_200027d8        
ram:0001f75e    38b1            cbz         param_1,LAB_0001f770                    
ram:0001f760    4ff40050        mov.w       param_1,#0x2000                         
ram:0001f764    b0eb124f        cmp.w       param_1,r2, lsr #0x10                   
ram:0001f768    02d0            beq         LAB_0001f770                            
ram:0001f76a    1020            movs        param_1,#0x10                           
                            LAB_0001f76c:                 ;XREF[2,0]:   0001f778,0001f7d0
ram:0001f76c    bde8f087        pop.w       {r4,r5,r6,r7,r8,r9,r10,pc}              
                            LAB_0001f770:                 ;XREF[2,0]:   0001f75e,0001f768
ram:0001f770    00f078f8        bl          FUN_0001f864                            ;char FUN_0001f864(void)
ram:0001f774    08b1            cbz         param_1,LAB_0001f77a                    
ram:0001f776    1120            movs        param_1,#0x11                           
ram:0001f778    f8e7            b           LAB_0001f76c                            
                            LAB_0001f77a:                 ;XREF[1,0]:   0001f774
ram:0001f77a    a975            strb        r1,[r5,#0x16]=>DAT_200027d2             
ram:0001f77c    0023            movs        r3,#0x0                                 
ram:0001f77e    aa60            str         r2,[r5,#0x8]=>DAT_200027c4              
ram:0001f780    ab82            strh        r3,[r5,#0x14]=>DAT_200027d0             
ram:0001f782    287f            ldrb        param_1,[r5,#0x1c]=>DAT_200027d8        
ram:0001f784    28b3            cbz         param_1,LAB_0001f7d2                    
ram:0001f786    164c            ldr         r4,[DAT_0001f7e0]                       ;= 40002000h
ram:0001f788    0026            movs        r6,#0x0                                 
ram:0001f78a    4ff49070        mov.w       param_1,#0x120                          
ram:0001f78e    9846            mov         r8,r3                                   
ram:0001f790    c4f82031        str.w       r3,[r4,#0x120]=>DAT_40002120            
ram:0001f794    4ff4ac73        mov.w       r3,#0x158                               
ram:0001f798    c4f85881        str.w       r8,[r4,#0x158]=>DAT_40002158            
ram:0001f79c    c4f84425        str.w       r2,[r4,#0x544]=>DAT_40002544            
ram:0001f7a0    c4f84815        str.w       r1,[r4,#0x548]=>DAT_40002548            
ram:0001f7a4    0121            movs        r1,#0x1                                 
ram:0001f7a6    a160            str         r1,[r4,#offset DAT_40002008 &0xff]      
ram:0001f7a8    6968            ldr         r1,[r5,#0x4]=>DAT_200027c0              
ram:0001f7aa    81b9            cbnz        r1,LAB_0001f7ce                         
ram:0001f7ac    8246            mov         r10,param_1                             
ram:0001f7ae    9946            mov         r9,r3                                   
                            LAB_0001f7b0:                 ;XREF[1,0]:   0001f7c4
ram:0001f7b0    5146            mov         r1,r10                                  
ram:0001f7b2    2046            mov         param_1=>DAT_40002000,r4                
ram:0001f7b4    00f0bff8        bl          FUN_0001f936                            ;int FUN_0001f936(int param_1, int pa...
ram:0001f7b8    0746            mov         r7,param_1                              
ram:0001f7ba    4946            mov         r1,r9                                   
ram:0001f7bc    2046            mov         param_1=>DAT_40002000,r4                
ram:0001f7be    00f0baf8        bl          FUN_0001f936                            ;int FUN_0001f936(int param_1, int pa...
ram:0001f7c2    0743            orrs        r7,param_1                              
ram:0001f7c4    f4d0            beq         LAB_0001f7b0                            
ram:0001f7c6    00b1            cbz         param_1,LAB_0001f7ca                    
ram:0001f7c8    0f26            movs        r6,#0xf                                 
                            LAB_0001f7ca:                 ;XREF[1,0]:   0001f7c6
ram:0001f7ca    85f81680        strb.w      r8,[r5,#0x16]=>DAT_200027d2             
                            LAB_0001f7ce:                 ;XREF[1,0]:   0001f7aa
ram:0001f7ce    3046            mov         param_1,r6                              
ram:0001f7d0    cce7            b           LAB_0001f76c                            
                            LAB_0001f7d2:                 ;XREF[1,0]:   0001f784
ram:0001f7d2    bde8f047        pop.w       {r4,r5,r6,r7,r8,r9,r10,lr}              
ram:0001f7d6    00f005b8        b.w         LAB_0001f7e4                            
ram:0001f7da    00              ??          00h                                     
ram:0001f7db    00              ??          00h                                     
                            DAT_0001f7dc:                 ;XREF[1,0]:   0001f758
ram:0001f7dc    bc270020        undefined4  200027BCh                               
                            DAT_0001f7e0:                 ;XREF[1,0]:   0001f786
ram:0001f7e0    00200040        undefined4  40002000h                               
                            LAB_0001f7e4:                 ;XREF[1,0]:   0001f7d6
ram:0001f7e4    2de9f05f        push        {r4,r5,r6,r7,r8,r9,r10,r11,r12,lr}      
ram:0001f7e8    1c4f            ldr         r7,[DAT_0001f85c]                       ;= 40002000h
ram:0001f7ea    0025            movs        r5,#0x0                                 
ram:0001f7ec    4ff48e7a        mov.w       r10,#0x11c                              
ram:0001f7f0    2e46            mov         r6,r5                                   
ram:0001f7f2    c7f81c51        str.w       r5,[r7,#0x11c]=>DAT_4000211c            
ram:0001f7f6    4ff00108        mov.w       r8,#0x1                                 
ram:0001f7fa    c7f80880        str.w       r8,[r7,#offset DAT_40002008 &0xff]      
ram:0001f7fe    00f083fb        bl          FUN_0001ff08                            ;undefined FUN_0001ff08(void)
ram:0001f802    174c            ldr         r4,[DAT_0001f860]                       ;= 200027BCh
ram:0001f804    b815            asrs        param_1,r7,#0x16                        
ram:0001f806    6168            ldr         r1,[r4,#0x4]=>DAT_200027c0              
ram:0001f808    79b1            cbz         r1,LAB_0001f82a                         
ram:0001f80a    23e0            b           LAB_0001f854                            
                            LAB_0001f80c:                 ;XREF[1,0]:   0001f834
ram:0001f80c    5f46            mov         r7,r11                                  
                            LAB_0001f80e:                 ;XREF[1,0]:   0001f81c
ram:0001f80e    5146            mov         r1,r10                                  
ram:0001f810    4846            mov         param_1=>DAT_40002000,r9                
ram:0001f812    00f085f8        bl          FUN_0001f920                            ;int FUN_0001f920(int param_1, int pa...
ram:0001f816    10b9            cbnz        param_1,LAB_0001f81e                    
ram:0001f818    a08a            ldrh        param_1,[r4,#0x14]=>DAT_200027d0        
ram:0001f81a    b842            cmp         param_1,r7                              
ram:0001f81c    f7d1            bne         LAB_0001f80e                            
                            LAB_0001f81e:                 ;XREF[1,0]:   0001f816
ram:0001f81e    a08a            ldrh        param_1,[r4,#0x14]=>DAT_200027d0        
ram:0001f820    b842            cmp         param_1,r7                              
ram:0001f822    04d0            beq         LAB_0001f82e                            
ram:0001f824    00f070fb        bl          FUN_0001ff08                            ;undefined FUN_0001ff08(void)
ram:0001f828    01e0            b           LAB_0001f82e                            
                            LAB_0001f82a:                 ;XREF[1,0]:   0001f808
ram:0001f82a    8346            mov         r11,param_1                             
ram:0001f82c    b946            mov         r9,r7                                   
                            LAB_0001f82e:                 ;XREF[2,0]:   0001f822,0001f828
ram:0001f82e    a08a            ldrh        param_1,[r4,#0x14]=>DAT_200027d0        
ram:0001f830    a17d            ldrb        r1,[r4,#0x16]=>DAT_200027d2             
ram:0001f832    8842            cmp         param_1,r1                              
ram:0001f834    ead3            bcc         LAB_0001f80c                            
ram:0001f836    a08a            ldrh        param_1,[r4,#0x14]=>DAT_200027d0        
ram:0001f838    5845            cmp         param_1,r11                             
ram:0001f83a    01d1            bne         LAB_0001f840                            
ram:0001f83c    0f25            movs        r5,#0xf                                 
ram:0001f83e    08e0            b           LAB_0001f852                            
                            LAB_0001f840:                 ;XREF[1,0]:   0001f83a
ram:0001f840    4f46            mov         r7,r9                                   
                            LAB_0001f842:                 ;XREF[1,0]:   0001f84c
ram:0001f842    5146            mov         r1,r10                                  
ram:0001f844    3846            mov         param_1=>DAT_40002000,r7                
ram:0001f846    00f06bf8        bl          FUN_0001f920                            ;int FUN_0001f920(int param_1, int pa...
ram:0001f84a    0028            cmp         param_1,#0x0                            
ram:0001f84c    f9d0            beq         LAB_0001f842                            
ram:0001f84e    c7f80c80        str.w       r8,[r7,#offset DAT_4000200c &0xff]      
                            LAB_0001f852:                 ;XREF[1,0]:   0001f83e
ram:0001f852    a675            strb        r6,[r4,#0x16]=>DAT_200027d2             
                            LAB_0001f854:                 ;XREF[1,0]:   0001f80a
ram:0001f854    2846            mov         param_1,r5                              
ram:0001f856    bde8f09f        pop.w       {r4,r5,r6,r7,r8,r9,r10,r11,r12,pc}      
ram:0001f85a    00              ??          00h                                     
ram:0001f85b    00              ??          00h                                     
                            DAT_0001f85c:                 ;XREF[1,0]:   0001f7e8
ram:0001f85c    00200040        undefined4  40002000h                               
                            DAT_0001f860:                 ;XREF[1,0]:   0001f802
ram:0001f860    bc270020        undefined4  200027BCh                               
                            ;************************************************************************************************
                            ;*                                           FUNCTION                                           *
                            ;************************************************************************************************
                            ;char FUN_0001f864(void)
                                                          ;XREF[2,0]:   0001dd66,0001f770
ram:0001f864    0248            ldr         r0,[DAT_0001f870]                       ;= 200027BCh
ram:0001f866    807d            ldrb        r0,[r0,#0x16]=>DAT_200027d2             
ram:0001f868    0028            cmp         r0,#0x0                                 
ram:0001f86a    00d0            beq         LAB_0001f86e                            
ram:0001f86c    0120            movs        r0,#0x1                                 
                            LAB_0001f86e:                 ;XREF[1,0]:   0001f86a
ram:0001f86e    7047            bx          lr                                      
                            DAT_0001f870:                 ;XREF[1,0]:   0001f864
ram:0001f870    bc270020        undefined4  200027BCh                               
                            ;************************************************************************************************
                            ;*                                           FUNCTION                                           *
                            ;************************************************************************************************
                            ;undefined FUN_0001f874(int param_1, uint param_2, int param_3, int param_4, int param_5, int param_6)
          ;param_1       int                 r0                      
          ;param_2       uint                r1                      
          ;param_3       int                 r2                      
          ;param_4       int                 r3                      
          ;param_5       int                  0                      ;XREF[1,0]:   0001f87a
          ;param_6       int                  4                      
                                                          ;XREF[1,0]:   0001f40a
ram:0001f874    30b5            push        {r4,r5,lr}                              
ram:0001f876    41ea4201        orr.w       param_2,param_2,param_3, lsl #0x1       
ram:0001f87a    dde90345        ldrd        r4,r5,[sp,#param_5+0xc]                 
ram:0001f87e    41ea8301        orr.w       param_2,param_2,param_4, lsl #0x2       
ram:0001f882    8000            lsls        param_1,param_1,#0x2                    
ram:0001f884    41ea0421        orr.w       param_2,param_2,r4, lsl #0x8            
ram:0001f888    00f1a040        add.w       param_1,param_1,#0x50000000             
ram:0001f88c    41ea0541        orr.w       param_2,param_2,r5, lsl #0x10           
ram:0001f890    c0f80017        str.w       param_2,[param_1,#0x700]                
ram:0001f894    30bd            pop         {r4,r5,pc}                              
                            ;************************************************************************************************
                            ;*                                           FUNCTION                                           *
                            ;************************************************************************************************
                            ;undefined FUN_0001f896(int param_1, uint param_2, int param_3, int param_4, int param_5, int param_6)
          ;param_1       int                 r0                      
          ;param_2       uint                r1                      
          ;param_3       int                 r2                      
          ;param_4       int                 r3                      
          ;param_5       int                  0                      ;XREF[1,0]:   0001f89c
          ;param_6       int                  4                      
                                                          ;XREF[2,0]:   0001f8c4,0001f8d8
ram:0001f896    30b5            push        {r4,r5,lr}                              
ram:0001f898    41ea4201        orr.w       param_2,param_2,param_3, lsl #0x1       
ram:0001f89c    dde90345        ldrd        r4,r5,[sp,#param_5+0xc]                 
ram:0001f8a0    41ea8301        orr.w       param_2,param_2,param_4, lsl #0x2       
ram:0001f8a4    8000            lsls        param_1,param_1,#0x2                    
ram:0001f8a6    41ea0421        orr.w       param_2,param_2,r4, lsl #0x8            
ram:0001f8aa    00f1a040        add.w       param_1,param_1,#0x50000000             
ram:0001f8ae    41ea0541        orr.w       param_2,param_2,r5, lsl #0x10           
ram:0001f8b2    c0f80017        str.w       param_2,[param_1,#0x700]                
ram:0001f8b6    30bd            pop         {r4,r5,pc}                              
                            ;************************************************************************************************
                            ;*                                           FUNCTION                                           *
                            ;************************************************************************************************
                            ;undefined FUN_0001f8b8(int param_1, int param_2)
          ;param_1       int                 r0                      
          ;param_2       int                 r1                      
          ;local_c       undefined4          -c                      ;XREF[1,0]:   0001f8c2
          ;local_10      undefined4         -10                      ;XREF[1,0]:   0001f8be
                                                          ;XREF[2,0]:   0001dda8,0001ddd8
ram:0001f8b8    1cb5            push        {r2,r3,r4,lr}                           
ram:0001f8ba    0022            movs        r2,#0x0                                 
ram:0001f8bc    0b46            mov         r3,param_2                              
ram:0001f8be    0092            str         r2,[sp,#0x0]=>local_10                  
ram:0001f8c0    1146            mov         param_2,r2                              
ram:0001f8c2    0192            str         r2,[sp,#local_c+0x10]                   
ram:0001f8c4    fff7e7ff        bl          FUN_0001f896                            ;undefined FUN_0001f896(int param_1, ...
ram:0001f8c8    1cbd            pop         {r2,r3,r4,pc}                           
                            ;************************************************************************************************
                            ;*                                           FUNCTION                                           *
                            ;************************************************************************************************
                            ;undefined FUN_0001f8ca(int param_1)
          ;param_1       int                 r0                      
          ;local_c       undefined4          -c                      ;XREF[1,0]:   0001f8d4
          ;local_10      undefined4         -10                      ;XREF[1,0]:   0001f8ce
                                                          ;XREF[2,0]:   0001dda0,0001dde4
ram:0001f8ca    1cb5            push        {r2,r3,r4,lr}                           
ram:0001f8cc    0021            movs        r1,#0x0                                 
ram:0001f8ce    0091            str         r1,[sp,#0x0]=>local_10                  
ram:0001f8d0    0b46            mov         r3,r1                                   
ram:0001f8d2    0122            movs        r2,#0x1                                 
ram:0001f8d4    0191            str         r1,[sp,#local_c+0x10]                   
ram:0001f8d6    1146            mov         r1,r2                                   
ram:0001f8d8    fff7ddff        bl          FUN_0001f896                            ;undefined FUN_0001f896(int param_1, ...
ram:0001f8dc    1cbd            pop         {r2,r3,r4,pc}                           
                            ;************************************************************************************************
                            ;*                                           FUNCTION                                           *
                            ;************************************************************************************************
                            ;undefined FUN_0001f8de(int param_1, int param_2)
          ;param_1       int                 r0                      
          ;param_2       int                 r1                      
                                                          ;XREF[2,0]:   0001cb3a,0001f354
ram:0001f8de    8000            lsls        param_1,param_1,#0x2                    
ram:0001f8e0    00f5e060        add.w       param_1,param_1,#0x700                  
ram:0001f8e4    00f1a040        add.w       param_1,param_1,#0x50000000             
ram:0001f8e8    0268            ldr         r2,[param_1,#0x0]                       
ram:0001f8ea    22f44032        bic         r2,r2,#0x30000                          
ram:0001f8ee    0260            str         r2,[param_1,#0x0]                       
ram:0001f8f0    0268            ldr         r2,[param_1,#0x0]                       
ram:0001f8f2    42ea0141        orr.w       param_2,r2,param_2, lsl #0x10           
ram:0001f8f6    0160            str         param_2,[param_1,#0x0]                  
ram:0001f8f8    7047            bx          lr                                      
ram:0001f8fa    0000            movs        r0,r0                                   
                            ;************************************************************************************************
                            ;*                                           FUNCTION                                           *
                            ;************************************************************************************************
                            ;undefined FUN_0001f8fc(int param_1)
          ;param_1       int                 r0                      
          ;local_8       undefined4          -8                      ;XREF[1,0]:   0001f908
                                                          ;XREF[3,0]:   0001ca5e,0001ca7e,0001f384
ram:0001f8fc    0349            ldr         r1,[DAT_0001f90c]                       ;= 40006000h
ram:0001f8fe    08b5            push        {r3,lr}                                 
ram:0001f900    0844            add         param_1,r1                              
ram:0001f902    0021            movs        r1,#0x0                                 
ram:0001f904    0160            str         r1,[param_1,#0x0]                       
ram:0001f906    0068            ldr         param_1,[param_1,#0x0]                  
ram:0001f908    0090            str         param_1,[sp,#0x0]=>local_8              
ram:0001f90a    08bd            pop         {r3,pc}                                 
                            DAT_0001f90c:                 ;XREF[1,0]:   0001f8fc
ram:0001f90c    00600040        undefined4  40006000h                               
                            ;************************************************************************************************
                            ;*                                           FUNCTION                                           *
                            ;************************************************************************************************
                            ;int FUN_0001f910(int param_1)
          ;param_1       int                 r0                      
                                                          ;XREF[2,0]:   0001ca4e,0001ca76
ram:0001f910    0249            ldr         r1,[DAT_0001f91c]                       ;= 40006000h
ram:0001f912    4058            ldr         param_1,[param_1,r1]                    
ram:0001f914    0128            cmp         param_1,#0x1                            
ram:0001f916    00d0            beq         LAB_0001f91a                            
ram:0001f918    0020            movs        param_1,#0x0                            
                            LAB_0001f91a:                 ;XREF[1,0]:   0001f916
ram:0001f91a    7047            bx          lr                                      
                            DAT_0001f91c:                 ;XREF[1,0]:   0001f910
ram:0001f91c    00600040        undefined4  40006000h                               
                            ;************************************************************************************************
                            ;*                                           FUNCTION                                           *
                            ;************************************************************************************************
                            ;int FUN_0001f920(int param_1, int param_2)
          ;param_1       int                 r0                      
          ;param_2       int                 r1                      
                                                          ;XREF[9,0]:   0001f662,0001f66e,0001f678,0001f812
                                                          ;             0001f846,00020116,00020162,000201a2
                                                          ;             000201c6
ram:0001f920    4058            ldr         param_1,[param_1,param_2]               
ram:0001f922    0028            cmp         param_1,#0x0                            
ram:0001f924    00d0            beq         LAB_0001f928                            
ram:0001f926    0120            movs        param_1,#0x1                            
                            LAB_0001f928:                 ;XREF[1,0]:   0001f924
ram:0001f928    7047            bx          lr                                      
                            ;************************************************************************************************
                            ;*                                           FUNCTION                                           *
                            ;************************************************************************************************
                            ;uint FUN_0001f92a(int param_1, uint param_2)
          ;param_1       int                 r0                      
          ;param_2       uint                r1                      
                                                          ;XREF[2,0]:   00020100,00020156
ram:0001f92a    d0f80403        ldr.w       param_1,[param_1,#0x304]                
ram:0001f92e    0840            ands        param_1,param_2                         
ram:0001f930    00d0            beq         LAB_0001f934                            
ram:0001f932    0120            movs        param_1,#0x1                            
                            LAB_0001f934:                 ;XREF[1,0]:   0001f930
ram:0001f934    7047            bx          lr                                      
                            ;************************************************************************************************
                            ;*                                           FUNCTION                                           *
                            ;************************************************************************************************
                            ;int FUN_0001f936(int param_1, int param_2)
          ;param_1       int                 r0                      
          ;param_2       int                 r1                      
                                                          ;XREF[9,0]:   0001f71c,0001f726,0001f730,0001f7b4
                                                          ;             0001f7be,00020206,00020244,00020284
                                                          ;             000202a6
ram:0001f936    4058            ldr         param_1,[param_1,param_2]               
ram:0001f938    0028            cmp         param_1,#0x0                            
ram:0001f93a    00d0            beq         LAB_0001f93e                            
ram:0001f93c    0120            movs        param_1,#0x1                            
                            LAB_0001f93e:                 ;XREF[1,0]:   0001f93a
ram:0001f93e    7047            bx          lr                                      
                            ;************************************************************************************************
                            ;*                                           FUNCTION                                           *
                            ;************************************************************************************************
                            ;undefined FUN_0001f940(undefined4 param_1, undefined * param_2, ushort param_3)
          ;param_1       undefined4          r0                      
          ;param_2       undefined *         r1                      
          ;param_3       ushort              r2                      
ram:0001f940    10b5            push        {r4,lr}                                 
ram:0001f942    0648            ldr         param_1,[DAT_0001f95c]                  ;= 2000257Ch
ram:0001f944    fef78ffd        bl          FUN_0001e466                            ;undefined8 FUN_0001e466(int param_1,...
ram:0001f948    0828            cmp         param_1,#0x8                            
ram:0001f94a    05d0            beq         LAB_0001f958                            
ram:0001f94c    0028            cmp         param_1,#0x0                            
ram:0001f94e    03d0            beq         LAB_0001f958                            
ram:0001f950    bde81040        pop.w       {r4,lr}                                 
ram:0001f954    fef79eb8        b.w         FUN_0001da94                            ;undefined FUN_0001da94(void)
                            LAB_0001f958:                 ;XREF[2,0]:   0001f94a,0001f94e
ram:0001f958    10bd            pop         {r4,pc}                                 
ram:0001f95a    0000            movs        r0,r0                                   
                            DAT_0001f95c:                 ;XREF[1,0]:   0001f942
ram:0001f95c    7c250020        undefined4  2000257Ch                               
                            ;************************************************************************************************
                            ;*                                           FUNCTION                                           *
                            ;************************************************************************************************
                            ;undefined LAB_0001f960+1(int param_1)
          ;param_1       int                 r0                      
                                                          ;XREF[0,2]:   0001f126,0001f1bc
ram:0001f960    10b5            push        {r4,lr}                                 
ram:0001f962    50b1            cbz         param_1,LAB_0001f97a                    
ram:0001f964    0328            cmp         param_1,#0x3                            
ram:0001f966    0cd1            bne         LAB_0001f982                            
ram:0001f968    0220            movs        param_1,#0x2                            
ram:0001f96a    fef7e9fe        bl          FUN_0001e740                            ;int FUN_0001e740(uint param_1)
ram:0001f96e    0028            cmp         param_1,#0x0                            
ram:0001f970    07d0            beq         LAB_0001f982                            
ram:0001f972    bde81040        pop.w       {r4,lr}                                 
ram:0001f976    fef78db8        b.w         FUN_0001da94                            ;undefined FUN_0001da94(void)
                            LAB_0001f97a:                 ;XREF[1,0]:   0001f962
ram:0001f97a    bde81040        pop.w       {r4,lr}                                 
ram:0001f97e    00f0c5b9        b.w         LAB_0001fd0c                            
                            LAB_0001f982:                 ;XREF[2,0]:   0001f966,0001f970
ram:0001f982    10bd            pop         {r4,pc}                                 
                            ;************************************************************************************************
                            ;*                                           FUNCTION                                           *
                            ;************************************************************************************************
                            ;undefined FUN_0001f984(short * param_1)
          ;param_1       short *             r0                      
                                                          ;XREF[1,0]:   0001e396
ram:0001f984    70b5            push        {r4,r5,r6,lr}                           
ram:0001f986    0188            ldrh        r1,[param_1,#0x0]                       
ram:0001f988    164d            ldr         r5,[DAT_0001f9e4]                       ;= 20002080h
ram:0001f98a    0446            mov         r4,param_1                              
ram:0001f98c    1029            cmp         r1,#0x10                                
ram:0001f98e    11d0            beq         LAB_0001f9b4                            
ram:0001f990    1129            cmp         r1,#0x11                                
ram:0001f992    17d0            beq         LAB_0001f9c4                            
ram:0001f994    2846            mov         param_1,r5                              
ram:0001f996    1329            cmp         r1,#0x13                                
ram:0001f998    4088            ldrh        param_1,[param_1,#0x2]=>DAT_20002082    
ram:0001f99a    1dd0            beq         LAB_0001f9d8                            
ram:0001f99c    5229            cmp         r1,#0x52                                
ram:0001f99e    1ad1            bne         LAB_0001f9d6                            
ram:0001f9a0    0023            movs        r3,#0x0                                 
ram:0001f9a2    1a46            mov         r2,r3                                   
ram:0001f9a4    1946            mov         r1,r3                                   
ram:0001f9a6    a9df            svc         0xa9                                    
                            LAB_0001f9a8:                 ;XREF[1,0]:   0001f9e0
ram:0001f9a8    0028            cmp         param_1,#0x0                            
ram:0001f9aa    14d0            beq         LAB_0001f9d6                            
ram:0001f9ac    bde87040        pop.w       {r4,r5,r6,lr}                           
ram:0001f9b0    fef770b8        b.w         FUN_0001da94                            ;undefined FUN_0001da94(void)
                            LAB_0001f9b4:                 ;XREF[1,0]:   0001f98e
ram:0001f9b4    0720            movs        param_1,#0x7                            
ram:0001f9b6    fef7c3fe        bl          FUN_0001e740                            ;int FUN_0001e740(uint param_1)
ram:0001f9ba    08b1            cbz         param_1,LAB_0001f9c0                    
ram:0001f9bc    fef76af8        bl          FUN_0001da94                            ;undefined FUN_0001da94(void)
                            LAB_0001f9c0:                 ;XREF[1,0]:   0001f9ba
ram:0001f9c0    a088            ldrh        param_1,[r4,#0x4]                       
ram:0001f9c2    07e0            b           LAB_0001f9d4                            
                            LAB_0001f9c4:                 ;XREF[1,0]:   0001f992
ram:0001f9c4    0020            movs        param_1,#0x0                            
ram:0001f9c6    fef7bbfe        bl          FUN_0001e740                            ;int FUN_0001e740(uint param_1)
ram:0001f9ca    08b1            cbz         param_1,LAB_0001f9d0                    
ram:0001f9cc    fef762f8        bl          FUN_0001da94                            ;undefined FUN_0001da94(void)
                            LAB_0001f9d0:                 ;XREF[1,0]:   0001f9ca
ram:0001f9d0    4ff6ff70        movw        param_1,#0xffff                         
                            LAB_0001f9d4:                 ;XREF[1,0]:   0001f9c2
ram:0001f9d4    6880            strh        param_1,[r5,#0x2]=>DAT_20002082         
                            LAB_0001f9d6:                 ;XREF[2,0]:   0001f99e,0001f9aa
ram:0001f9d6    70bd            pop         {r4,r5,r6,pc}                           
                            LAB_0001f9d8:                 ;XREF[1,0]:   0001f99a
ram:0001f9d8    0023            movs        r3,#0x0                                 
ram:0001f9da    1a46            mov         r2,r3                                   
ram:0001f9dc    8521            movs        r1,#0x85                                
ram:0001f9de    7fdf            svc         0x7f                                    
ram:0001f9e0    e2e7            b           LAB_0001f9a8                            
ram:0001f9e2    0000            movs        r0,r0                                   
                            DAT_0001f9e4:                 ;XREF[1,0]:   0001f988
ram:0001f9e4    80200020        undefined4  20002080h                               
                            ;************************************************************************************************
                            ;*                                           FUNCTION                                           *
                            ;************************************************************************************************
                            ;undefined LAB_0001f9e8+1(char * param_1)
          ;param_1       char *              r0                      
                                                          ;XREF[0,2]:   0001f158,0001f1c0
ram:0001f9e8    0078            ldrb        param_1,[param_1,#0x0]                  
ram:0001f9ea    0028            cmp         param_1,#0x0                            
ram:0001f9ec    07d1            bne         LAB_0001f9fe                            
ram:0001f9ee    0448            ldr         param_1,[DAT_0001fa00]                  ;= 20002080h
ram:0001f9f0    3b21            movs        r1,#0x3b                                
ram:0001f9f2    4088            ldrh        param_1,[param_1,#0x2]=>DAT_20002082    
ram:0001f9f4    76df            svc         0x76                                    
ram:0001f9f6    0028            cmp         param_1,#0x0                            
ram:0001f9f8    01d0            beq         LAB_0001f9fe                            
ram:0001f9fa    fef74bb8        b.w         FUN_0001da94                            ;undefined FUN_0001da94(void)
                            LAB_0001f9fe:                 ;XREF[2,0]:   0001f9ec,0001f9f8
ram:0001f9fe    7047            bx          lr                                      
                            DAT_0001fa00:                 ;XREF[1,0]:   0001f9ee
ram:0001fa00    80200020        undefined4  20002080h                               
                            ;************************************************************************************************
                            ;*                                           FUNCTION                                           *
                            ;************************************************************************************************
                            ;undefined4 FUN_0001fa04(int param_1)
          ;param_1       int                 r0                      
                                                          ;XREF[2,0]:   0001e0e0,0001e0fa
ram:0001fa04    0021            movs        r1,#0x0                                 
                            LAB_0001fa06:                 ;XREF[1,0]:   0001fa12
ram:0001fa06    425c            ldrb        r2,[param_1,r1]                         
ram:0001fa08    0ab1            cbz         r2,LAB_0001fa0e                         
ram:0001fa0a    0120            movs        param_1,#0x1                            
ram:0001fa0c    7047            bx          lr                                      
                            LAB_0001fa0e:                 ;XREF[1,0]:   0001fa08
ram:0001fa0e    491c            adds        r1,r1,#0x1                              
ram:0001fa10    0629            cmp         r1,#0x6                                 
ram:0001fa12    f8d3            bcc         LAB_0001fa06                            
ram:0001fa14    0020            movs        param_1,#0x0                            
ram:0001fa16    7047            bx          lr                                      
                            ;************************************************************************************************
                            ;*                                           FUNCTION                                           *
                            ;************************************************************************************************
                            ;undefined4 FUN_0001fa18(int param_1)
          ;param_1       int                 r0                      
                                                          ;XREF[1,0]:   0001f318
ram:0001fa18    0449            ldr         r1,[DAT_0001fa2c]                       ;= 20002764h
ram:0001fa1a    0844            add         param_1,r1                              
ram:0001fa1c    90f93000        ldrsb.w     param_1,[param_1,#0x30]=>DAT_20002794   
ram:0001fa20    0828            cmp         param_1,#0x8                            
ram:0001fa22    01db            blt         LAB_0001fa28                            
ram:0001fa24    0120            movs        param_1,#0x1                            
ram:0001fa26    7047            bx          lr                                      
                            LAB_0001fa28:                 ;XREF[1,0]:   0001fa22
ram:0001fa28    0020            movs        param_1,#0x0                            
ram:0001fa2a    7047            bx          lr                                      
                            DAT_0001fa2c:                 ;XREF[1,0]:   0001fa18
ram:0001fa2c    64270020        undefined4  20002764h                               
                            ;************************************************************************************************
                            ;*                                           FUNCTION                                           *
                            ;************************************************************************************************
                            ;undefined4 FUN_0001fa30(int param_1)
          ;param_1       int                 r0                      
                                                          ;XREF[1,0]:   0001f358
ram:0001fa30    0449            ldr         r1,[DAT_0001fa44]                       ;= 20002764h
ram:0001fa32    0844            add         param_1,r1                              
ram:0001fa34    90f93000        ldrsb.w     param_1,[param_1,#0x30]=>DAT_20002794   
ram:0001fa38    0828            cmp         param_1,#0x8                            
ram:0001fa3a    01d2            bcs         LAB_0001fa40                            
ram:0001fa3c    0120            movs        param_1,#0x1                            
ram:0001fa3e    7047            bx          lr                                      
                            LAB_0001fa40:                 ;XREF[1,0]:   0001fa3a
ram:0001fa40    0020            movs        param_1,#0x0                            
ram:0001fa42    7047            bx          lr                                      
                            DAT_0001fa44:                 ;XREF[1,0]:   0001fa30
ram:0001fa44    64270020        undefined4  20002764h                               
                            ;************************************************************************************************
                            ;*                                           FUNCTION                                           *
                            ;************************************************************************************************
                            ;undefined4 FUN_0001fa48(uint * param_1)
          ;param_1       uint *              r0                      
                                                          ;XREF[1,0]:   0001e078
ram:0001fa48    0649            ldr         r1,[DAT_0001fa64]                       ;= 200020E4h
ram:0001fa4a    0979            ldrb        r1,[r1,#0x4]=>DAT_200020e8              
ram:0001fa4c    4907            lsls        r1,r1,#0x1d                             
ram:0001fa4e    01d4            bmi         LAB_0001fa54                            
ram:0001fa50    0820            movs        param_1,#0x8                            
ram:0001fa52    7047            bx          lr                                      
                            LAB_0001fa54:                 ;XREF[1,0]:   0001fa4e
ram:0001fa54    20b1            cbz         param_1,LAB_0001fa60                    
ram:0001fa56    0449            ldr         r1,[DAT_0001fa68]                       ;= 200027DCh
ram:0001fa58    4978            ldrb        r1,[r1,#0x1]=>DAT_200027dd              
ram:0001fa5a    0160            str         r1,[param_1,#0x0]                       
ram:0001fa5c    0020            movs        param_1,#0x0                            
ram:0001fa5e    7047            bx          lr                                      
                            LAB_0001fa60:                 ;XREF[1,0]:   0001fa54
ram:0001fa60    0e20            movs        param_1,#0xe                            
ram:0001fa62    7047            bx          lr                                      
                            DAT_0001fa64:                 ;XREF[1,0]:   0001fa48
ram:0001fa64    e4200020        undefined4  200020E4h                               
                            DAT_0001fa68:                 ;XREF[1,0]:   0001fa56
ram:0001fa68    dc270020        undefined4  200027DCh                               
                            ;************************************************************************************************
                            ;*                                           FUNCTION                                           *
                            ;************************************************************************************************
                            ;undefined FUN_0001fa6c(void)
                                                          ;XREF[2,0]:   0001db38,0001eb70
ram:0001fa6c    70b5            push        {r4,r5,r6,lr}                           
ram:0001fa6e    0126            movs        r6,#0x1                                 
ram:0001fa70    7004            lsls        r0,r6,#0x11                             
ram:0001fa72    4ff0e021        mov.w       r1,#0xe000e000                          
ram:0001fa76    0025            movs        r5,#0x0                                 
ram:0001fa78    c1f88001        str.w       r0=>LAB_00020000,[r1,#0x180]=>DAT_e00...
ram:0001fa7c    084c            ldr         r4,[DAT_0001faa0]                       ;= 40011000h
ram:0001fa7e    4010            asrs        r0,r0,#0x1                              
ram:0001fa80    c4f84803        str.w       r0,[r4,#0x348]=>DAT_40011348            
ram:0001fa84    c4f80803        str.w       r0,[r4,#0x308]=>DAT_40011308            
ram:0001fa88    6660            str         r6,[r4,#offset DAT_40011004 &0xff]      
ram:0001fa8a    2f20            movs        r0,#0x2f                                
ram:0001fa8c    fcf7c2fc        bl          FUN_0001c414                            ;undefined FUN_0001c414(int param_1)
ram:0001fa90    a660            str         r6,[r4,#offset DAT_40011008 &0xff]      
ram:0001fa92    044c            ldr         r4,[DAT_0001faa4]                       ;= 2000211Ch
ram:0001fa94    2f20            movs        r0,#0x2f                                
ram:0001fa96    2561            str         r5,[r4,#0x10]=>DAT_2000212c             
ram:0001fa98    fcf7bcfc        bl          FUN_0001c414                            ;undefined FUN_0001c414(int param_1)
ram:0001fa9c    e570            strb        r5,[r4,#0x3]=>DAT_2000211f              
ram:0001fa9e    70bd            pop         {r4,r5,r6,pc}                           
                            DAT_0001faa0:                 ;XREF[1,0]:   0001fa7c
ram:0001faa0    00100140        undefined4  40011000h                               
                            DAT_0001faa4:                 ;XREF[1,0]:   0001fa92
ram:0001faa4    1c210020        undefined4  2000211Ch                               
                            ;************************************************************************************************
                            ;*                                           FUNCTION                                           *
                            ;************************************************************************************************
                            ;int FUN_0001faa8(void)
                                                          ;XREF[2,0]:   0001f68c,00020168
ram:0001faa8    0948            ldr         r0=>DAT_200027bc,[DAT_0001fad0]         ;= 200027BCh
ram:0001faaa    0a49            ldr         r1,[DAT_0001fad4]                       ;= 40002000h
ram:0001faac    0022            movs        r2,#0x0                                 
ram:0001faae    c37d            ldrb        r3,[r0,#0x17]=>DAT_200027d3             
ram:0001fab0    c1f80821        str.w       r2,[r1,#0x108]=>DAT_40002108            
ram:0001fab4    43b1            cbz         r3,LAB_0001fac8                         
ram:0001fab6    d1f81815        ldr.w       r1,[r1,#0x518]=>DAT_40002518            
ram:0001faba    437e            ldrb        r3,[r0,#0x19]=>DAT_200027d5             
ram:0001fabc    c268            ldr         r2,[r0,#0xc]=>DAT_200027c8              
ram:0001fabe    d154            strb        r1,[r2,r3]                              
ram:0001fac0    417e            ldrb        r1,[r0,#0x19]=>DAT_200027d5             
ram:0001fac2    491c            adds        r1,r1,#0x1                              
ram:0001fac4    4176            strb        r1,[r0,#0x19]=>DAT_200027d5             
ram:0001fac6    7047            bx          lr                                      
                            LAB_0001fac8:                 ;XREF[1,0]:   0001fab4
ram:0001fac8    d1f81805        ldr.w       r0,[r1,#0x518]=>DAT_40002518            
ram:0001facc    7047            bx          lr                                      
ram:0001face    0000            movs        r0,r0                                   
                            DAT_0001fad0:                 ;XREF[1,0]:   0001faa8
ram:0001fad0    bc270020        undefined4  200027BCh                               
                            DAT_0001fad4:                 ;XREF[1,0]:   0001faaa
ram:0001fad4    00200040        undefined4  40002000h                               
                            ;************************************************************************************************
                            ;*                                           FUNCTION                                           *
                            ;************************************************************************************************
                            ;undefined8 FUN_0001fad8(undefined * param_1)
          ;param_1       undefined *         r0                      
          ;local_e       undefined1          -e                      ;XREF[1,0]:   0001fb3a
          ;local_10      undefined2         -10                      ;XREF[1,0]:   0001fb40
          ;local_14      undefined4         -14                      ;XREF[3,4]:   0001fb44,0001fb46,0001fb58,0001fb5c,0001fb6c
                                                                     ;             0001fb70,0001fb82
          ;local_1c      undefined2         -1c                      ;XREF[1,0]:   0001fba0
          ;local_1e      undefined2         -1e                      ;XREF[1,0]:   0001fb9c
          ;local_20      undefined2         -20                      ;XREF[1,0]:   0001fb96
          ;local_24      undefined4         -24                      ;XREF[1,0]:   0001fb92
          ;local_28      undefined4         -28                      ;XREF[1,0]:   0001fb8e
          ;local_2c      undefined4         -2c                      ;XREF[3,4]:   0001fae0,0001fae2,0001faf4,0001faf8,0001fb08
                                                                     ;             0001fb0c,0001fb16
          ;local_30      undefined4         -30                      ;XREF[1,0]:   0001fb36
          ;local_38      undefined4         -38                      ;XREF[1,0]:   0001fb30
          ;local_3c      undefined4         -3c                      ;XREF[1,0]:   0001fb34
          ;local_44      undefined4         -44                      ;XREF[1,0]:   0001fb24
          ;local_48      undefined1         -48                      ;XREF[2,0]:   0001fb20,0001fb2a
                                                          ;XREF[1,0]:   0001e3f6
ram:0001fad8    30b5            push        {r4,r5,lr}                              
ram:0001fada    8fb0            sub         sp,#0x3c                                
ram:0001fadc    0024            movs        r4,#0x0                                 
ram:0001fade    0546            mov         r5,param_1                              
ram:0001fae0    0794            str         r4,[sp,#local_2c+0x48]                  
ram:0001fae2    9df81c00        ldrb.w      param_1,[sp,#local_2c+0x48]             
ram:0001fae6    1c21            movs        r1,#0x1c                                
ram:0001fae8    20f00f00        bic         param_1,param_1,#0xf                    
ram:0001faec    401c            adds        param_1,param_1,#0x1                    
ram:0001faee    20f0f000        bic         param_1,param_1,#0xf0                   
ram:0001faf2    1030            adds        param_1,#0x10                           
ram:0001faf4    8df81c00        strb.w      param_1,[sp,#local_2c+0x48]             
ram:0001faf8    9df81d00        ldrb.w      param_1,[sp,#local_2c+0x49]             
ram:0001fafc    20f00f00        bic         param_1,param_1,#0xf                    
ram:0001fb00    401c            adds        param_1,param_1,#0x1                    
ram:0001fb02    20f0f000        bic         param_1,param_1,#0xf0                   
ram:0001fb06    1030            adds        param_1,#0x10                           
ram:0001fb08    8df81d00        strb.w      param_1,[sp,#local_2c+0x49]             
ram:0001fb0c    9df81e00        ldrb.w      param_1,[sp,#local_2c+0x4a]             
ram:0001fb10    20f00600        bic         param_1,param_1,#0x6                    
ram:0001fb14    801c            adds        param_1,param_1,#0x2                    
ram:0001fb16    8df81e00        strb.w      param_1,[sp,#local_2c+0x4a]             
ram:0001fb1a    6846            mov         param_1,sp                              
ram:0001fb1c    fcf7e1fc        bl          FUN_0001c4e2                            ;undefined FUN_0001c4e2(undefined * p...
ram:0001fb20    9df80000        ldrb.w      param_1,[sp,#0x0]=>local_48             
ram:0001fb24    0194            str         r4,[sp,#local_44+0x48]                  
ram:0001fb26    40f01000        orr         param_1,param_1,#0x10                   
ram:0001fb2a    8df80000        strb.w      param_1,[sp,#0x0]=>local_48             
ram:0001fb2e    07a8            add         param_1,sp,#0x1c                        
ram:0001fb30    cde90440        strd        r4,param_1,[sp,#local_38+0x48]          
ram:0001fb34    0394            str         r4,[sp,#local_3c+0x48]                  
ram:0001fb36    0694            str         r4,[sp,#local_30+0x48]                  
ram:0001fb38    2878            ldrb        param_1,[r5,#0x0]                       
ram:0001fb3a    8df83a00        strb.w      param_1,[sp,#local_e+0x48]              
ram:0001fb3e    0320            movs        param_1,#0x3                            
ram:0001fb40    adf83800        strh.w      param_1,[sp,#local_10+0x48]             
ram:0001fb44    0d94            str         r4,[sp,#local_14+0x48]                  
ram:0001fb46    9df83400        ldrb.w      param_1,[sp,#local_14+0x48]             
ram:0001fb4a    1421            movs        r1,#0x14                                
ram:0001fb4c    20f00f00        bic         param_1,param_1,#0xf                    
ram:0001fb50    401c            adds        param_1,param_1,#0x1                    
ram:0001fb52    20f0f000        bic         param_1,param_1,#0xf0                   
ram:0001fb56    1030            adds        param_1,#0x10                           
ram:0001fb58    8df83400        strb.w      param_1,[sp,#local_14+0x48]             
ram:0001fb5c    9df83500        ldrb.w      param_1,[sp,#local_14+0x49]             
ram:0001fb60    20f00f00        bic         param_1,param_1,#0xf                    
ram:0001fb64    401c            adds        param_1,param_1,#0x1                    
ram:0001fb66    20f0f000        bic         param_1,param_1,#0xf0                   
ram:0001fb6a    1030            adds        param_1,#0x10                           
ram:0001fb6c    8df83500        strb.w      param_1,[sp,#local_14+0x49]             
ram:0001fb70    9df83600        ldrb.w      param_1,[sp,#local_14+0x4a]             
ram:0001fb74    20f00600        bic         param_1,param_1,#0x6                    
ram:0001fb78    801c            adds        param_1,param_1,#0x2                    
ram:0001fb7a    20f01800        bic         param_1,param_1,#0x18                   
ram:0001fb7e    40f00100        orr         param_1,param_1,#0x1                    
ram:0001fb82    8df83600        strb.w      param_1,[sp,#local_14+0x4a]             
ram:0001fb86    08a8            add         param_1,sp,#0x20                        
ram:0001fb88    fcf7abfc        bl          FUN_0001c4e2                            ;undefined FUN_0001c4e2(undefined * p...
ram:0001fb8c    0ea8            add         param_1,sp,#0x38                        
ram:0001fb8e    0890            str         param_1,[sp,#local_28+0x48]             
ram:0001fb90    0da8            add         param_1,sp,#0x34                        
ram:0001fb92    0990            str         param_1,[sp,#local_24+0x48]             
ram:0001fb94    0120            movs        param_1,#0x1                            
ram:0001fb96    adf82800        strh.w      param_1,[sp,#local_20+0x48]             
ram:0001fb9a    1420            movs        param_1,#0x14                           
ram:0001fb9c    adf82a40        strh.w      r4,[sp,#local_1e+0x48]                  
ram:0001fba0    adf82c00        strh.w      param_1,[sp,#local_1c+0x48]             
ram:0001fba4    6888            ldrh        param_1,[r5,#0x2]                       
ram:0001fba6    05f10c03        add.w       r3,r5,#0xc                              
ram:0001fbaa    08aa            add         r2,sp,#0x20                             
ram:0001fbac    6946            mov         r1,sp                                   
ram:0001fbae    a2df            svc         0xa2                                    
ram:0001fbb0    0fb0            add         sp,#0x3c                                
ram:0001fbb2    30bd            pop         {r4,r5,pc}                              
                            ;************************************************************************************************
                            ;*                                           FUNCTION                                           *
                            ;************************************************************************************************
                            ;undefined8 FUN_0001fbb4(uint param_1, undefined4 param_2, uint param_3, undefined4 param_4)
          ;param_1       uint                r0                      
          ;param_2       undefined4          r1                      
          ;param_3       uint                r2                      
          ;param_4       undefined4          r3                      
          ;local_10      undefined1         -10                      ;XREF[1,0]:   0001fbb8
          ;local_14      undefined4         -14                      ;XREF[1,0]:   0001fbc2
          ;local_18      undefined1         -18                      ;XREF[1,0]:   0001fbbe
                                                          ;XREF[4,0]:   00020198,000201ea,0002027a,0002029c
ram:0001fbb4    1fb5            push        {param_1,param_2,param_3,param_4,r4,lr} 
ram:0001fbb6    0122            movs        param_3,#0x1                            
ram:0001fbb8    8df80800        strb.w      param_1,[sp,#local_10+0x18]             
ram:0001fbbc    0448            ldr         param_1,[DAT_0001fbd0]                  ;= 200027BCh
ram:0001fbbe    8df80020        strb.w      param_3,[sp,#0x0]=>local_18             
ram:0001fbc2    0191            str         param_2,[sp,#local_14+0x18]             
                                                          ; FWD[2,0]:   200027bc,200027c0
ram:0001fbc4    d0e90012        ldrd        param_2,param_3,[param_1,#0x0]=>DAT_2...
ram:0001fbc8    6846            mov         param_1,sp                              
ram:0001fbca    9047            blx         param_3                                 
ram:0001fbcc    1fbd            pop         {param_1,param_2,param_3,param_4,r4,pc} 
ram:0001fbce    0000            movs        r0,r0                                   
                            DAT_0001fbd0:                 ;XREF[1,0]:   0001fbbc
ram:0001fbd0    bc270020        undefined4  200027BCh                               
                            ;************************************************************************************************
                            ;*                                           FUNCTION                                           *
                            ;************************************************************************************************
                            ;undefined FUN_0001fbd4(void)
                                                          ;XREF[2,0]:   0001f618,0001f634
ram:0001fbd4    0448            ldr         r0=>DAT_40002000,[DAT_0001fbe8]         ;= 40002000h
ram:0001fbd6    0021            movs        r1,#0x0                                 
ram:0001fbd8    c0f82411        str.w       r1,[r0,#0x124]=>DAT_40002124            
ram:0001fbdc    c0f80811        str.w       r1,[r0,#0x108]=>DAT_40002108            
ram:0001fbe0    0121            movs        r1,#0x1                                 
ram:0001fbe2    0160            str         r1,[r0,#0x0]=>DAT_40002000              
ram:0001fbe4    7047            bx          lr                                      
ram:0001fbe6    0000            movs        r0,r0                                   
                            DAT_0001fbe8:                 ;XREF[1,0]:   0001fbd4
ram:0001fbe8    00200040        undefined4  40002000h                               
                            ;************************************************************************************************
                            ;*                                           FUNCTION                                           *
                            ;************************************************************************************************
                            ;undefined4 FUN_0001fbec(void)
          ;local_8       undefined4          -8                      ;XREF[1,0]:   0001fbf2
                                                          ;XREF[1,0]:   0001e4e2
ram:0001fbec    08b5            push        {r3,lr}                                 
ram:0001fbee    0249            ldr         r1,[DAT_0001fbf8]                       ;= 20002080h
ram:0001fbf0    0020            movs        r0,#0x0                                 
ram:0001fbf2    0091            str         r1=>DAT_20002080,[sp,#0x0]=>local_8     
ram:0001fbf4    08bd            pop         {r3,pc}                                 
ram:0001fbf6    0000            movs        r0,r0                                   
                            DAT_0001fbf8:                 ;XREF[1,0]:   0001fbee
ram:0001fbf8    80200020        undefined4  20002080h                               
                            ;************************************************************************************************
                            ;*                                           FUNCTION                                           *
                            ;************************************************************************************************
                            ;undefined4 FUN_0001fbfc(uint param_1)
          ;param_1       uint                r0                      
                                                          ;XREF[1,0]:   0001fdae
ram:0001fbfc    10b5            push        {r4,lr}                                 
ram:0001fbfe    0121            movs        r1,#0x1                                 
ram:0001fc00    2028            cmp         param_1,#0x20                           
ram:0001fc02    03da            bge         LAB_0001fc0c                            
ram:0001fc04    1d4a            ldr         r2,[DAT_0001fc7c]                       ;= BCFF06FCh
ram:0001fc06    8140            lsls        r1,param_1                              
ram:0001fc08    1140            ands        r1,r2                                   
ram:0001fc0a    04e0            b           LAB_0001fc16                            
                            LAB_0001fc0c:                 ;XREF[1,0]:   0001fc02
ram:0001fc0c    4028            cmp         param_1,#0x40                           
ram:0001fc0e    03da            bge         LAB_0001fc18                            
ram:0001fc10    a0f12002        sub.w       r2,param_1,#0x20                        
ram:0001fc14    9140            lsls        r1,r2                                   
                            LAB_0001fc16:                 ;XREF[1,0]:   0001fc0a
ram:0001fc16    41b1            cbz         r1,LAB_0001fc2a                         
                            LAB_0001fc18:                 ;XREF[1,0]:   0001fc0e
ram:0001fc18    0028            cmp         param_1,#0x0                            
ram:0001fc1a    09da            bge         LAB_0001fc30                            
ram:0001fc1c    00f00f01        and         r1,param_1,#0xf                         
ram:0001fc20    01f1e021        add.w       r1,r1,#0xe000e000                       
ram:0001fc24    91f8141d        ldrb.w      r1,[r1,#0xd14]=>DAT_e000ed1a            
ram:0001fc28    06e0            b           LAB_0001fc38                            
                            LAB_0001fc2a:                 ;XREF[1,0]:   0001fc16
ram:0001fc2a    42f20100        movw        param_1,#0x2001                         
ram:0001fc2e    10bd            pop         {r4,pc}                                 
                            LAB_0001fc30:                 ;XREF[1,0]:   0001fc1a
ram:0001fc30    00f1e021        add.w       r1,param_1,#0xe000e000                  
ram:0001fc34    91f80014        ldrb.w      r1,[r1,#0x400]=>DAT_e000e416            
                            LAB_0001fc38:                 ;XREF[1,0]:   0001fc28
ram:0001fc38    4909            lsrs        r1,r1,#0x5                              
ram:0001fc3a    0829            cmp         r1,#0x8                                 
ram:0001fc3c    14d2            bcs         LAB_0001fc68                            
ram:0001fc3e    99b1            cbz         r1,LAB_0001fc68                         
ram:0001fc40    0129            cmp         r1,#0x1                                 
ram:0001fc42    11d0            beq         LAB_0001fc68                            
ram:0001fc44    0429            cmp         r1,#0x4                                 
ram:0001fc46    0fd0            beq         LAB_0001fc68                            
ram:0001fc48    0529            cmp         r1,#0x5                                 
ram:0001fc4a    0dd0            beq         LAB_0001fc68                            
ram:0001fc4c    0c4a            ldr         r2,[DAT_0001fc80]                       ;= 2000292Ch
ram:0001fc4e    9468            ldr         r4,[r2,#0x8]=>DAT_20002934              
ram:0001fc50    00f01f03        and         r3,param_1,#0x1f                        
ram:0001fc54    0121            movs        r1,#0x1                                 
ram:0001fc56    9940            lsls        r1,r3                                   
ram:0001fc58    4009            lsrs        param_1,param_1,#0x5                    
ram:0001fc5a    44b1            cbz         r4,LAB_0001fc6e                         
ram:0001fc5c    52f82030        ldr.w       r3,r2=>DAT_2000292c,param_1,0x2         
ram:0001fc60    0b43            orrs        r3,r1                                   
ram:0001fc62    42f82030        str.w       r3,r2=>DAT_2000292c,param_1,0x2         
ram:0001fc66    07e0            b           LAB_0001fc78                            
                            LAB_0001fc68:                 ;XREF[5,0]:   0001fc3c,0001fc3e,0001fc42,0001fc46
                                                          ;             0001fc4a
ram:0001fc68    42f20200        movw        param_1,#0x2002                         
ram:0001fc6c    10bd            pop         {r4,pc}                                 
                            LAB_0001fc6e:                 ;XREF[1,0]:   0001fc5a
ram:0001fc6e    8000            lsls        param_1,param_1,#0x2                    
ram:0001fc70    00f1e020        add.w       param_1,param_1,#0xe000e000             
ram:0001fc74    c0f80011        str.w       r1,[param_1,#0x100]=>DAT_e000e100       
                            LAB_0001fc78:                 ;XREF[1,0]:   0001fc66
ram:0001fc78    0020            movs        param_1,#0x0                            
ram:0001fc7a    10bd            pop         {r4,pc}                                 
                            DAT_0001fc7c:                 ;XREF[1,0]:   0001fc04
ram:0001fc7c    fc06ffbc        undefined4  BCFF06FCh                               
                            DAT_0001fc80:                 ;XREF[1,0]:   0001fc4c
ram:0001fc80    2c290020        undefined4  2000292Ch                               
                            ;************************************************************************************************
                            ;*                                           FUNCTION                                           *
                            ;************************************************************************************************
                            ;undefined4 FUN_0001fc84(int param_1, int param_2, ushort * param_3)
          ;param_1       int                 r0                      
          ;param_2       int                 r1                      
          ;param_3       ushort *            r2                      
                                                          ;XREF[1,0]:   0001d964
ram:0001fc84    2de9f041        push        {r4,r5,r6,r7,r8,lr}                     
ram:0001fc88    0746            mov         r7,param_1                              
ram:0001fc8a    806a            ldr         param_1,[param_1,#0x28]                 
ram:0001fc8c    1446            mov         r4,param_3                              
ram:0001fc8e    8846            mov         r8,param_2                              
ram:0001fc90    c8b3            cbz         param_1,LAB_0001fd06                    
ram:0001fc92    0025            movs        r5,#0x0                                 
ram:0001fc94    31e0            b           LAB_0001fcfa                            
ram:0001fc96    00bf            nop                                                  
                            LAB_0001fc98:                 ;XREF[1,0]:   0001fd00
ram:0001fc98    b96a            ldr         param_2,[r7,#0x28]                      
ram:0001fc9a    05eb4500        add.w       param_1,r5,r5, lsl #0x1                 
ram:0001fc9e    01eb8006        add.w       r6,param_2,param_1, lsl #0x2            
ram:0001fca2    b088            ldrh        param_1,[r6,#0x4]                       
ram:0001fca4    801c            adds        param_1,param_1,#0x2                    
ram:0001fca6    fe28            cmp         param_1,#0xfe                           
ram:0001fca8    02d9            bls         LAB_0001fcb0                            
ram:0001fcaa    0c20            movs        param_1,#0xc                            
                            LAB_0001fcac:                 ;XREF[2,0]:   0001fd04,0001fd0a
ram:0001fcac    bde8f081        pop.w       {r4,r5,r6,r7,r8,pc}                     
                            LAB_0001fcb0:                 ;XREF[1,0]:   0001fca8
ram:0001fcb0    2288            ldrh        param_3,[r4,#0x0]                       
ram:0001fcb2    401c            adds        param_1,param_1,#0x1                    
ram:0001fcb4    08f80200        strb.w      param_1,r8,param_3,0x0                  
ram:0001fcb8    2088            ldrh        param_1,[r4,#0x0]                       
ram:0001fcba    1622            movs        param_3,#0x16                           
ram:0001fcbc    401c            adds        param_1,param_1,#0x1                    
ram:0001fcbe    80b2            uxth        param_1,param_1                         
ram:0001fcc0    2080            strh        param_1,[r4,#0x0]                       
ram:0001fcc2    08f80020        strb.w      param_3,r8,param_1,0x0                  
ram:0001fcc6    2088            ldrh        param_1,[r4,#0x0]                       
ram:0001fcc8    401c            adds        param_1,param_1,#0x1                    
ram:0001fcca    80b2            uxth        param_1,param_1                         
ram:0001fccc    2080            strh        param_1,[r4,#0x0]                       
ram:0001fcce    00eb0801        add.w       param_2,param_1,r8                      
ram:0001fcd2    3088            ldrh        param_1,[r6,#0x0]                       
ram:0001fcd4    00f0fefa        bl          FUN_000202d4                            ;undefined4 FUN_000202d4(undefined4 p...
ram:0001fcd8    2188            ldrh        param_2,[r4,#0x0]                       
ram:0001fcda    0844            add         param_1,param_2                         
ram:0001fcdc    80b2            uxth        param_1,param_1                         
ram:0001fcde    2080            strh        param_1,[r4,#0x0]                       
ram:0001fce0    b288            ldrh        param_3,[r6,#0x4]                       
ram:0001fce2    42b1            cbz         param_3,LAB_0001fcf6                    
ram:0001fce4    b168            ldr         param_2,[r6,#0x8]                       
ram:0001fce6    71b1            cbz         param_2,LAB_0001fd06                    
ram:0001fce8    4044            add         param_1,r8                              
ram:0001fcea    fcf7e1fb        bl          FUN_0001c4b0                            ;undefined FUN_0001c4b0(undefined4 * ...
ram:0001fcee    2088            ldrh        param_1,[r4,#0x0]                       
ram:0001fcf0    b188            ldrh        param_2,[r6,#0x4]                       
ram:0001fcf2    0844            add         param_1,param_2                         
ram:0001fcf4    2080            strh        param_1,[r4,#0x0]                       
                            LAB_0001fcf6:                 ;XREF[1,0]:   0001fce2
ram:0001fcf6    6d1c            adds        r5,r5,#0x1                              
ram:0001fcf8    edb2            uxtb        r5,r5                                   
                            LAB_0001fcfa:                 ;XREF[1,0]:   0001fc94
ram:0001fcfa    97f82c00        ldrb.w      param_1,[r7,#0x2c]                      
ram:0001fcfe    a842            cmp         param_1,r5                              
ram:0001fd00    cad8            bhi         LAB_0001fc98                            
ram:0001fd02    0020            movs        param_1,#0x0                            
ram:0001fd04    d2e7            b           LAB_0001fcac                            
                            LAB_0001fd06:                 ;XREF[2,0]:   0001fc90,0001fce6
ram:0001fd06    ffe7            b           LAB_0001fd08                            
                            LAB_0001fd08:                 ;XREF[1,0]:   0001fd06
ram:0001fd08    0720            movs        param_1,#0x7                            
ram:0001fd0a    cfe7            b           LAB_0001fcac                            
                            LAB_0001fd0c:                 ;XREF[2,0]:   0001e6d2,0001f97e
ram:0001fd0c    10b5            push        {r4,lr}                                 
ram:0001fd0e    0020            movs        param_1,#0x0                            
ram:0001fd10    fef716fd        bl          FUN_0001e740                            ;int FUN_0001e740(uint param_1)
ram:0001fd14    08b1            cbz         param_1,LAB_0001fd1a                    
ram:0001fd16    fdf7bdfe        bl          FUN_0001da94                            ;undefined FUN_0001da94(void)
                            LAB_0001fd1a:                 ;XREF[1,0]:   0001fd14
ram:0001fd1a    fef75dfc        bl          FUN_0001e5d8                            ;int FUN_0001e5d8(void)
ram:0001fd1e    08b1            cbz         param_1,LAB_0001fd24                    
ram:0001fd20    fdf7b8fe        bl          FUN_0001da94                            ;undefined FUN_0001da94(void)
                            LAB_0001fd24:                 ;XREF[1,0]:   0001fd1e
ram:0001fd24    3cdf            svc         0x3c                                    
ram:0001fd26    0028            cmp         param_1,#0x0                            
ram:0001fd28    03d0            beq         LAB_0001fd32                            
ram:0001fd2a    bde81040        pop.w       {r4,lr}                                 
ram:0001fd2e    fdf7b1be        b.w         FUN_0001da94                            ;undefined FUN_0001da94(void)
                            LAB_0001fd32:                 ;XREF[1,0]:   0001fd28
ram:0001fd32    10bd            pop         {r4,pc}                                 
                            ;************************************************************************************************
                            ;*                                           FUNCTION                                           *
                            ;************************************************************************************************
                            ;undefined4 FUN_0001fd34(int param_1)
          ;param_1       int                 r0                      
                                                          ;XREF[1,0]:   0001e4fa
ram:0001fd34    18b1            cbz         param_1,LAB_0001fd3e                    
ram:0001fd36    0349            ldr         r1,[DAT_0001fd44]                       ;= 20002140h
ram:0001fd38    c860            str         param_1,[r1,#0xc]=>DAT_2000214c         
ram:0001fd3a    0020            movs        param_1,#0x0                            
ram:0001fd3c    7047            bx          lr                                      
                            LAB_0001fd3e:                 ;XREF[1,0]:   0001fd34
ram:0001fd3e    0e20            movs        param_1,#0xe                            
ram:0001fd40    7047            bx          lr                                      
ram:0001fd42    0000            movs        r0,r0                                   
                            DAT_0001fd44:                 ;XREF[1,0]:   0001fd36
ram:0001fd44    40210020        undefined4  20002140h                               
                            ;************************************************************************************************
                            ;*                                           FUNCTION                                           *
                            ;************************************************************************************************
                            ;undefined FUN_0001fd48(void)
          ;local_c       undefined4          -c                      ;XREF[1,0]:   0001fd4c
          ;local_10      undefined4         -10                      ;XREF[1,0]:   0001fd4e
                                                          ;XREF[1,0]:   0001e4ee
ram:0001fd48    1cb5            push        {r2,r3,r4,lr}                           
ram:0001fd4a    0349            ldr         r1,[DAT_0001fd58]                       ;= 20002080h
ram:0001fd4c    0191            str         r1=>DAT_20002080,[sp,#local_c+0x10]     
ram:0001fd4e    0091            str         r1=>DAT_20002080,[sp,#0x0]=>local_10    
ram:0001fd50    6946            mov         r1,sp                                   
ram:0001fd52    60df            svc         0x60                                    
ram:0001fd54    1cbd            pop         {r2,r3,r4,pc}                           
ram:0001fd56    0000            movs        r0,r0                                   
                            DAT_0001fd58:                 ;XREF[1,0]:   0001fd4a
ram:0001fd58    80200020        undefined4  20002080h                               
                            ;************************************************************************************************
                            ;*                                           FUNCTION                                           *
                            ;************************************************************************************************
                            ;undefined4 FUN_0001fd5c(int param_1, undefined param_2, undefined2 * param_3)
          ;param_1       int                 r0                      
          ;param_2       undefined           r1                      
          ;param_3       undefined2 *        r2                      
                                                          ;XREF[1,0]:   0001e4d6
ram:0001fd5c    70b5            push        {r4,r5,r6,lr}                           
ram:0001fd5e    0e46            mov         r6,param_2                              
ram:0001fd60    0546            mov         r5,param_1                              
ram:0001fd62    1446            mov         r4,param_3                              
ram:0001fd64    1421            movs        param_2,#0x14                           
ram:0001fd66    1046            mov         param_1,param_3                         
ram:0001fd68    fcf7bbfb        bl          FUN_0001c4e2                            ;undefined FUN_0001c4e2(undefined * p...
ram:0001fd6c    0120            movs        param_1,#0x1                            
ram:0001fd6e    2080            strh        param_1,[r4,#0x0]                       
ram:0001fd70    0021            movs        param_2,#0x0                            
ram:0001fd72    2161            str         param_2,[r4,#0x10]                      
ram:0001fd74    2173            strb        param_2,[r4,#0xc]                       
ram:0001fd76    2672            strb        r6,[r4,#0x8]                            
ram:0001fd78    6572            strb        r5,[r4,#0x9]                            
ram:0001fd7a    05b1            cbz         r5,LAB_0001fd7e                         
ram:0001fd7c    a072            strb        param_1,[r4,#0xa]                       
                            LAB_0001fd7e:                 ;XREF[1,0]:   0001fd7a
ram:0001fd7e    0020            movs        param_1,#0x0                            
ram:0001fd80    70bd            pop         {r4,r5,r6,pc}                           
                            ;************************************************************************************************
                            ;*                                           FUNCTION                                           *
                            ;************************************************************************************************
                            ;undefined thunk_FUN_0001da70(void)
                                                          ;XREF[0,1]:   0001fdb8
ram:0001fd82    fdf775be        b.w         FUN_0001da70                            ;undefined FUN_0001da70(void)
ram:0001fd86    00              ??          00h                                     
ram:0001fd87    00              ??          00h                                     
                            ;************************************************************************************************
                            ;*                                           FUNCTION                                           *
                            ;************************************************************************************************
                            ;int FUN_0001fd88(int param_1, uint param_2, undefined2 param_3, undefined4 param_4)
          ;param_1       int                 r0                      
          ;param_2       uint                r1                      
          ;param_3       undefined2          r2                      
          ;param_4       undefined4          r3                      
                                                          ;XREF[1,0]:   0001e4c6
ram:0001fd88    30b4            push        {r4,r5}                                 
ram:0001fd8a    09b1            cbz         param_2,LAB_0001fd90                    
ram:0001fd8c    8c07            lsls        r4,param_2,#0x1e                        
ram:0001fd8e    02d0            beq         LAB_0001fd96                            
                            LAB_0001fd90:                 ;XREF[1,0]:   0001fd8a
ram:0001fd90    0720            movs        param_1,#0x7                            
                            LAB_0001fd92:                 ;XREF[1,0]:   0001fda6
ram:0001fd92    30bc            pop         {r4,r5}                                 
ram:0001fd94    7047            bx          lr                                      
                            LAB_0001fd96:                 ;XREF[1,0]:   0001fd8e
ram:0001fd96    074c            ldr         r4,[DAT_0001fdb4]                       ;= 20002140h
ram:0001fd98    0125            movs        r5,#0x1                                 
ram:0001fd9a    a160            str         param_2,[r4,#0x8]=>DAT_20002148         
ram:0001fd9c    6280            strh        param_3,[r4,#0x2]=>DAT_20002142         
ram:0001fd9e    0649            ldr         param_2,[PTR_thunk_FUN_0001da70+1_000...;= 0001fd83
ram:0001fda0    6360            str         param_4,[r4,#0x4]=>DAT_20002144         
ram:0001fda2    10df            svc         0x10                                    
ram:0001fda4    0028            cmp         param_1,#0x0                            
ram:0001fda6    f4d1            bne         LAB_0001fd92                            
ram:0001fda8    2570            strb        r5,[r4,#0x0]=>DAT_20002140              
ram:0001fdaa    30bc            pop         {r4,r5}                                 
ram:0001fdac    1620            movs        param_1,#0x16                           
ram:0001fdae    fff725bf        b.w         FUN_0001fbfc                            ;undefined4 FUN_0001fbfc(uint param_1)
ram:0001fdb2    00              ??          00h                                     
ram:0001fdb3    00              ??          00h                                     
                            DAT_0001fdb4:                 ;XREF[1,0]:   0001fd96
ram:0001fdb4    40210020        undefined4  20002140h                               
                            PTR_thunk_FUN_0001da70+1_00...;XREF[1,0]:   0001fd9e
ram:0001fdb8    83fd0100        addr        thunk_FUN_0001da70+1                    
                            ;************************************************************************************************
                            ;*                                           FUNCTION                                           *
                            ;************************************************************************************************
                            ;undefined FUN_0001fdbc(void)
          ;local_28      undefined4         -28                      ;XREF[1,0]:   0001fde0
                                                          ;XREF[1,0]:   0001cc08
ram:0001fdbc    2de9f84f        push        {r3,r4,r5,r6,r7,r8,r9,r10,r11,lr}       
ram:0001fdc0    204c            ldr         r4,[DAT_0001fe44]                       ;= 2000211Ch
ram:0001fdc2    0025            movs        r5,#0x0                                 
ram:0001fdc4    6846            mov         r0,sp                                   
                                                          ; FWD[2,0]:   20002128,2000212c
ram:0001fdc6    d4e903b6        ldrd        r11,r6,[r4,#0xc]=>DAT_20002128          
ram:0001fdca    fef77fff        bl          FUN_0001eccc                            ;undefined4 FUN_0001eccc(int * param_1)
ram:0001fdce    8046            mov         r8,r0                                   
ram:0001fdd0    fff766f8        bl          FUN_0001eea0                            ;bool FUN_0001eea0(void)
ram:0001fdd4    0746            mov         r7,r0                                   
ram:0001fdd6    a946            mov         r9,r5                                   
ram:0001fdd8    b8f1000f        cmp.w       r8,#0x0                                 
ram:0001fddc    25d0            beq         LAB_0001fe2a                            
ram:0001fdde    0023            movs        r3,#0x0                                 
ram:0001fde0    009a            ldr         r2,[sp,#0x0]=>local_28                  
ram:0001fde2    cc46            mov         r12,r9                                  
ram:0001fde4    e068            ldr         r0,[r4,#0xc]=>DAT_20002128              
ram:0001fde6    19e0            b           LAB_0001fe1c                            
                            LAB_0001fde8:                 ;XREF[1,0]:   0001fe1e
ram:0001fde8    0768            ldr         r7,[r0,#0x0]                            
ram:0001fdea    0146            mov         r1,r0                                   
ram:0001fdec    9742            cmp         r7,r2                                   
ram:0001fdee    02d9            bls         LAB_0001fdf6                            
ram:0001fdf0    ba1a            subs        r2,r7,r2                                
ram:0001fdf2    0260            str         r2,[r0,#0x0]                            
ram:0001fdf4    14e0            b           LAB_0001fe20                            
                            LAB_0001fdf6:                 ;XREF[1,0]:   0001fdee
ram:0001fdf6    c1f800c0        str.w       r12,[r1,#0x0]                           
ram:0001fdfa    d1f80c80        ldr.w       r8,[r1,#0xc]                            
ram:0001fdfe    d21b            subs        r2,r2,r7                                
ram:0001fe00    c869            ldr         r0,[r1,#0x1c]                           
ram:0001fe02    3b44            add         r3,r7                                   
ram:0001fe04    8a46            mov         r10,r1                                  
ram:0001fe06    b8f1000f        cmp.w       r8,#0x0                                 
ram:0001fe0a    07d0            beq         LAB_0001fe1c                            
ram:0001fe0c    f718            adds        r7,r6,r3                                
ram:0001fe0e    27f07f47        bic         r7,r7,#0xff000000                       
ram:0001fe12    c1e90178        strd        r7,r8,[r1,#0x4]                         
ram:0001fe16    caf81c50        str.w       r5,[r10,#0x1c]                          
ram:0001fe1a    0d46            mov         r5,r1                                   
                            LAB_0001fe1c:                 ;XREF[2,0]:   0001fde6,0001fe0a
ram:0001fe1c    0028            cmp         r0,#0x0                                 
ram:0001fe1e    e3d1            bne         LAB_0001fde8                            
                            LAB_0001fe20:                 ;XREF[1,0]:   0001fdf4
ram:0001fe20    e060            str         r0,[r4,#0xc]=>DAT_20002128              
ram:0001fe22    2846            mov         r0,r5                                   
ram:0001fe24    fff79af8        bl          FUN_0001ef5c                            ;bool FUN_0001ef5c(uint * param_1)
ram:0001fe28    04e0            b           LAB_0001fe34                            
                            LAB_0001fe2a:                 ;XREF[1,0]:   0001fddc
ram:0001fe2a    2846            mov         r0,r5                                   
ram:0001fe2c    fff796f8        bl          FUN_0001ef5c                            ;bool FUN_0001ef5c(uint * param_1)
ram:0001fe30    00b9            cbnz        r0,LAB_0001fe34                         
ram:0001fe32    17b1            cbz         r7,LAB_0001fe3a                         
                            LAB_0001fe34:                 ;XREF[2,0]:   0001fe28,0001fe30
ram:0001fe34    5846            mov         r0,r11                                  
ram:0001fe36    fef74ffe        bl          FUN_0001ead8                            ;undefined FUN_0001ead8(void)
                            LAB_0001fe3a:                 ;XREF[1,0]:   0001fe32
ram:0001fe3a    84f80490        strb.w      r9,[r4,#0x4]=>DAT_20002120              
ram:0001fe3e    bde8f88f        pop.w       {r3,r4,r5,r6,r7,r8,r9,r10,r11,pc}       
ram:0001fe42    00              ??          00h                                     
ram:0001fe43    00              ??          00h                                     
                            DAT_0001fe44:                 ;XREF[1,0]:   0001fdc0
ram:0001fe44    1c210020        undefined4  2000211Ch                               
                            ;************************************************************************************************
                            ;*                                           FUNCTION                                           *
                            ;************************************************************************************************
                            ;undefined FUN_0001fe48(uint * param_1)
          ;param_1       uint *              r0                      
                                                          ;XREF[1,0]:   0001eff8
ram:0001fe48    0d4b            ldr         r3,[DAT_0001fe80]                       ;= 2000211Ch
ram:0001fe4a    10b5            push        {r4,lr}                                 
ram:0001fe4c    d968            ldr         r1,[r3,#0xc]=>DAT_20002128              
ram:0001fe4e    31b1            cbz         r1,LAB_0001fe5e                         
ram:0001fe50    0268            ldr         r2,[param_1,#0x0]                       
ram:0001fe52    0c68            ldr         r4,[r1,#0x0]                            
ram:0001fe54    a242            cmp         r2,r4                                   
ram:0001fe56    04d8            bhi         LAB_0001fe62                            
ram:0001fe58    a21a            subs        r2,r4,r2                                
ram:0001fe5a    0a60            str         r2,[r1,#0x0]                            
ram:0001fe5c    c161            str         r1,[param_1,#0x1c]                      
                            LAB_0001fe5e:                 ;XREF[1,0]:   0001fe4e
ram:0001fe5e    d860            str         param_1,[r3,#0xc]=>DAT_20002128         
ram:0001fe60    10bd            pop         {r4,pc}                                 
                            LAB_0001fe62:                 ;XREF[1,0]:   0001fe56
ram:0001fe62    0b46            mov         r3,r1                                   
ram:0001fe64    03e0            b           LAB_0001fe6e                            
                            LAB_0001fe66:                 ;XREF[1,0]:   0001fe72
ram:0001fe66    0b46            mov         r3,r1                                   
ram:0001fe68    c969            ldr         r1,[r1,#0x1c]                           
ram:0001fe6a    121b            subs        r2,r2,r4                                
ram:0001fe6c    21b1            cbz         r1,LAB_0001fe78                         
                            LAB_0001fe6e:                 ;XREF[1,0]:   0001fe64
ram:0001fe6e    0c68            ldr         r4,[r1,#0x0]                            
ram:0001fe70    9442            cmp         r4,r2                                   
ram:0001fe72    f8d3            bcc         LAB_0001fe66                            
ram:0001fe74    a41a            subs        r4,r4,r2                                
ram:0001fe76    0c60            str         r4,[r1,#0x0]                            
                            LAB_0001fe78:                 ;XREF[1,0]:   0001fe6c
ram:0001fe78    0260            str         r2,[param_1,#0x0]                       
ram:0001fe7a    c161            str         r1,[param_1,#0x1c]                      
ram:0001fe7c    d861            str         param_1,[r3,#0x1c]                      
ram:0001fe7e    10bd            pop         {r4,pc}                                 
                            DAT_0001fe80:                 ;XREF[1,0]:   0001fe48
ram:0001fe80    1c210020        undefined4  2000211Ch                               
                            ;************************************************************************************************
                            ;*                                           FUNCTION                                           *
                            ;************************************************************************************************
                            ;undefined FUN_0001fe84(void)
                                                          ;XREF[1,0]:   0001cc00
ram:0001fe84    2de9f041        push        {r4,r5,r6,r7,r8,lr}                     
ram:0001fe88    1d4d            ldr         r5,[DAT_0001ff00]                       ;= 2000211Ch
ram:0001fe8a    ec68            ldr         r4,[r5,#0xc]=>DAT_20002128              
ram:0001fe8c    002c            cmp         r4,#0x0                                 
ram:0001fe8e    35d0            beq         LAB_0001fefc                            
ram:0001fe90    1c48            ldr         r0,[DAT_0001ff04]                       ;= 40011504h
ram:0001fe92    0027            movs        r7,#0x0                                 
ram:0001fe94    0068            ldr         r0,[r0,#0x0]=>DAT_40011504              
ram:0001fe96    2969            ldr         r1,[r5,#0x10]=>DAT_2000212c             
ram:0001fe98    b846            mov         r8,r7                                   
ram:0001fe9a    401a            subs        r0,r0,r1                                
ram:0001fe9c    20f07f46        bic         r6,r0,#0xff000000                       
                            LAB_0001fea0:                 ;XREF[1,0]:   0001fed0
ram:0001fea0    2068            ldr         r0,[r4,#0x0]                            
ram:0001fea2    b042            cmp         r0,r6                                   
ram:0001fea4    15d8            bhi         LAB_0001fed2                            
ram:0001fea6    2246            mov         r2,r4                                   
ram:0001fea8    361a            subs        r6,r6,r0                                
ram:0001feaa    0744            add         r7,r0                                   
ram:0001feac    e469            ldr         r4,[r4,#0x1c]                           
ram:0001feae    107c            ldrb        r0,[r2,#0x10]                           
ram:0001feb0    68b1            cbz         r0,LAB_0001fece                         
ram:0001feb2    82f81080        strb.w      r8,[r2,#0x10]                           
ram:0001feb6    6b69            ldr         r3,[r5,#0x14]=>DAT_20002130             
ram:0001feb8    33b1            cbz         r3,LAB_0001fec8                         
ram:0001feba    d2e90501        ldrd        r0,r1,[r2,#0x14]                        
ram:0001febe    9847            blx         r3                                      
ram:0001fec0    28b1            cbz         r0,LAB_0001fece                         
ram:0001fec2    fdf7e7fd        bl          FUN_0001da94                            ;undefined FUN_0001da94(void)
ram:0001fec6    02e0            b           LAB_0001fece                            
                            LAB_0001fec8:                 ;XREF[1,0]:   0001feb8
ram:0001fec8    d2e90510        ldrd        r1,r0,[r2,#0x14]                        
ram:0001fecc    8847            blx         r1                                      
                            LAB_0001fece:                 ;XREF[3,0]:   0001feb0,0001fec0,0001fec6
ram:0001fece    002c            cmp         r4,#0x0                                 
ram:0001fed0    e6d1            bne         LAB_0001fea0                            
                            LAB_0001fed2:                 ;XREF[1,0]:   0001fea4
ram:0001fed2    6978            ldrb        r1,[r5,#0x1]=>DAT_2000211d              
ram:0001fed4    a878            ldrb        r0,[r5,#0x2]=>DAT_2000211e              
ram:0001fed6    8142            cmp         r1,r0                                   
ram:0001fed8    06d1            bne         LAB_0001fee8                            
ram:0001feda    401c            adds        r0,r0,#0x1                              
ram:0001fedc    c0b2            uxtb        r0,r0                                   
ram:0001fede    a870            strb        r0,[r5,#0x2]=>DAT_2000211e              
ram:0001fee0    0228            cmp         r0,#0x2                                 
ram:0001fee2    01d1            bne         LAB_0001fee8                            
ram:0001fee4    85f80280        strb.w      r8,[r5,#0x2]=>DAT_2000211e              
                            LAB_0001fee8:                 ;XREF[2,0]:   0001fed8,0001fee2
ram:0001fee8    0548            ldr         r0,[DAT_0001ff00]                       ;= 2000211Ch
ram:0001feea    a978            ldrb        r1,[r5,#0x2]=>DAT_2000211e              
ram:0001feec    1830            adds        r0,#0x18                                
ram:0001feee    40f82170        str.w       r7,r0=>DAT_20002134,r1,0x2              
ram:0001fef2    bde8f041        pop.w       {r4,r5,r6,r7,r8,lr}                     
ram:0001fef6    1420            movs        r0,#0x14                                
ram:0001fef8    fcf758be        b.w         FUN_0001cbac                            ;undefined FUN_0001cbac(uint param_1)
                            LAB_0001fefc:                 ;XREF[1,0]:   0001fe8e
ram:0001fefc    bde8f081        pop.w       {r4,r5,r6,r7,r8,pc}                     
                            DAT_0001ff00:                 ;XREF[2,0]:   0001fe88,0001fee8
ram:0001ff00    1c210020        undefined4  2000211Ch                               
                            DAT_0001ff04:                 ;XREF[1,0]:   0001fe90
ram:0001ff04    04150140        undefined4  40011504h                               
                            ;************************************************************************************************
                            ;*                                           FUNCTION                                           *
                            ;************************************************************************************************
                            ;undefined FUN_0001ff08(void)
                                                          ;XREF[3,0]:   0001f7fe,0001f824,000201b0
ram:0001ff08    064a            ldr         r2,[DAT_0001ff24]                       ;= 40002000h
ram:0001ff0a    0020            movs        r0,#0x0                                 
ram:0001ff0c    c2f81c01        str.w       r0,[r2,#0x11c]=>DAT_4000211c            
ram:0001ff10    0548            ldr         r0=>DAT_200027bc,[DAT_0001ff28]         ;= 200027BCh
ram:0001ff12    838a            ldrh        r3,[r0,#0x14]=>DAT_200027d0             
ram:0001ff14    8168            ldr         r1,[r0,#0x8]=>DAT_200027c4              
ram:0001ff16    c95c            ldrb        r1,[r1,r3]                              
ram:0001ff18    838a            ldrh        r3,[r0,#0x14]=>DAT_200027d0             
ram:0001ff1a    5b1c            adds        r3,r3,#0x1                              
ram:0001ff1c    8382            strh        r3,[r0,#0x14]=>DAT_200027d0             
ram:0001ff1e    c2f81c15        str.w       r1,[r2,#0x51c]=>DAT_4000251c            
ram:0001ff22    7047            bx          lr                                      
                            DAT_0001ff24:                 ;XREF[1,0]:   0001ff08
ram:0001ff24    00200040        undefined4  40002000h                               
                            DAT_0001ff28:                 ;XREF[1,0]:   0001ff10
ram:0001ff28    bc270020        undefined4  200027BCh                               
                            ;************************************************************************************************
                            ;*                                           FUNCTION                                           *
                            ;************************************************************************************************
                            ;undefined8 FUN_0001ff2c(undefined * param_1)
          ;param_1       undefined *         r0                      
          ;local_12      undefined1         -12                      ;XREF[1,0]:   0001ff54
          ;local_14      undefined2         -14                      ;XREF[1,0]:   0001ff5a
          ;local_18      undefined4         -18                      ;XREF[3,4]:   0001ff5e,0001ff60,0001ff72,0001ff76,0001ff86
                                                                     ;             0001ff8a,0001ff9c
          ;local_20      undefined2         -20                      ;XREF[1,0]:   0001ffba
          ;local_22      undefined2         -22                      ;XREF[1,0]:   0001ffb6
          ;local_24      undefined2         -24                      ;XREF[1,0]:   0001ffb0
          ;local_28      undefined4         -28                      ;XREF[1,0]:   0001ffac
          ;local_2c      undefined4         -2c                      ;XREF[1,0]:   0001ffa8
          ;local_30      undefined4         -30                      ;XREF[1,0]:   0001ff50
          ;local_34      undefined4         -34                      ;XREF[1,0]:   0001ff4e
          ;local_38      undefined4         -38                      ;XREF[1,0]:   0001ff4c
          ;local_3c      undefined4         -3c                      ;XREF[1,0]:   0001ff4a
          ;local_44      undefined4         -44                      ;XREF[1,0]:   0001ff40
          ;local_48      undefined1         -48                      ;XREF[2,0]:   0001ff3c,0001ff46
                                                          ;XREF[1,0]:   0001e402
ram:0001ff2c    30b5            push        {r4,r5,lr}                              
ram:0001ff2e    8fb0            sub         sp,#0x3c                                
ram:0001ff30    0546            mov         r5,param_1                              
ram:0001ff32    1c21            movs        r1,#0x1c                                
ram:0001ff34    6846            mov         param_1,sp                              
ram:0001ff36    fcf7d4fa        bl          FUN_0001c4e2                            ;undefined FUN_0001c4e2(undefined * p...
ram:0001ff3a    0024            movs        r4,#0x0                                 
ram:0001ff3c    9df80000        ldrb.w      param_1,[sp,#0x0]=>local_48             
ram:0001ff40    0194            str         r4,[sp,#local_44+0x48]                  
ram:0001ff42    40f00c00        orr         param_1,param_1,#0xc                    
ram:0001ff46    8df80000        strb.w      param_1,[sp,#0x0]=>local_48             
ram:0001ff4a    0394            str         r4,[sp,#local_3c+0x48]                  
ram:0001ff4c    0494            str         r4,[sp,#local_38+0x48]                  
ram:0001ff4e    0594            str         r4,[sp,#local_34+0x48]                  
ram:0001ff50    0694            str         r4,[sp,#local_30+0x48]                  
ram:0001ff52    2878            ldrb        param_1,[r5,#0x0]                       
ram:0001ff54    8df83600        strb.w      param_1,[sp,#local_12+0x48]             
ram:0001ff58    0220            movs        param_1,#0x2                            
ram:0001ff5a    adf83400        strh.w      param_1,[sp,#local_14+0x48]             
ram:0001ff5e    0c94            str         r4,[sp,#local_18+0x48]                  
ram:0001ff60    9df83000        ldrb.w      param_1,[sp,#local_18+0x48]             
ram:0001ff64    1421            movs        r1,#0x14                                
ram:0001ff66    20f00f00        bic         param_1,param_1,#0xf                    
ram:0001ff6a    401c            adds        param_1,param_1,#0x1                    
ram:0001ff6c    20f0f000        bic         param_1,param_1,#0xf0                   
ram:0001ff70    1030            adds        param_1,#0x10                           
ram:0001ff72    8df83000        strb.w      param_1,[sp,#local_18+0x48]             
ram:0001ff76    9df83100        ldrb.w      param_1,[sp,#local_18+0x49]             
ram:0001ff7a    20f00f00        bic         param_1,param_1,#0xf                    
ram:0001ff7e    401c            adds        param_1,param_1,#0x1                    
ram:0001ff80    20f0f000        bic         param_1,param_1,#0xf0                   
ram:0001ff84    1030            adds        param_1,#0x10                           
ram:0001ff86    8df83100        strb.w      param_1,[sp,#local_18+0x49]             
ram:0001ff8a    9df83200        ldrb.w      param_1,[sp,#local_18+0x4a]             
ram:0001ff8e    20f00600        bic         param_1,param_1,#0x6                    
ram:0001ff92    801c            adds        param_1,param_1,#0x2                    
ram:0001ff94    20f01800        bic         param_1,param_1,#0x18                   
ram:0001ff98    40f00100        orr         param_1,param_1,#0x1                    
ram:0001ff9c    8df83200        strb.w      param_1,[sp,#local_18+0x4a]             
ram:0001ffa0    07a8            add         param_1,sp,#0x1c                        
ram:0001ffa2    fcf79efa        bl          FUN_0001c4e2                            ;undefined FUN_0001c4e2(undefined * p...
ram:0001ffa6    0da8            add         param_1,sp,#0x34                        
ram:0001ffa8    0790            str         param_1,[sp,#local_2c+0x48]             
ram:0001ffaa    0ca8            add         param_1,sp,#0x30                        
ram:0001ffac    0890            str         param_1,[sp,#local_28+0x48]             
ram:0001ffae    0120            movs        param_1,#0x1                            
ram:0001ffb0    adf82400        strh.w      param_1,[sp,#local_24+0x48]             
ram:0001ffb4    1420            movs        param_1,#0x14                           
ram:0001ffb6    adf82640        strh.w      r4,[sp,#local_22+0x48]                  
ram:0001ffba    adf82800        strh.w      param_1,[sp,#local_20+0x48]             
ram:0001ffbe    6888            ldrh        param_1,[r5,#0x2]                       
ram:0001ffc0    2b1d            adds        r3,r5,#0x4                              
ram:0001ffc2    07aa            add         r2,sp,#0x1c                             
ram:0001ffc4    6946            mov         r1,sp                                   
ram:0001ffc6    a2df            svc         0xa2                                    
ram:0001ffc8    0fb0            add         sp,#0x3c                                
ram:0001ffca    30bd            pop         {r4,r5,pc}                              
                            ;************************************************************************************************
                            ;*                                           FUNCTION                                           *
                            ;************************************************************************************************
                            ;undefined8 FUN_0001ffcc(uint param_1, undefined4 param_2, uint param_3, undefined4 param_4)
          ;param_1       uint                r0                      
          ;param_2       undefined4          r1                      
          ;param_3       uint                r2                      
          ;param_4       undefined4          r3                      
          ;local_10      undefined1         -10                      ;XREF[1,0]:   0001ffd0
          ;local_14      undefined4         -14                      ;XREF[1,0]:   0001ffdc
          ;local_18      undefined1         -18                      ;XREF[1,0]:   0001ffd6
                                                          ;XREF[2,0]:   000201bc,000202c4
ram:0001ffcc    1fb5            push        {param_1,param_2,param_3,param_4,r4,lr} 
ram:0001ffce    0021            movs        param_2,#0x0                            
ram:0001ffd0    8df80800        strb.w      param_1,[sp,#local_10+0x18]             
ram:0001ffd4    0548            ldr         param_1,[DAT_0001ffec]                  ;= 200027BCh
ram:0001ffd6    8df80010        strb.w      param_2,[sp,#0x0]=>local_18             
ram:0001ffda    8268            ldr         param_3,[param_1,#0x8]=>DAT_200027c4    
ram:0001ffdc    0192            str         param_3,[sp,#local_14+0x18]             
ram:0001ffde    8175            strb        param_2,[param_1,#0x16]=>DAT_200027d2   
                                                          ; FWD[2,0]:   200027bc,200027c0
ram:0001ffe0    d0e90012        ldrd        param_2,param_3,[param_1,#0x0]=>DAT_2...
ram:0001ffe4    6846            mov         param_1,sp                              
ram:0001ffe6    9047            blx         param_3                                 
ram:0001ffe8    1fbd            pop         {param_1,param_2,param_3,param_4,r4,pc} 
ram:0001ffea    0000            movs        r0,r0                                   
                            DAT_0001ffec:                 ;XREF[1,0]:   0001ffd4
ram:0001ffec    bc270020        undefined4  200027BCh                               
                            ;************************************************************************************************
                            ;*                                           FUNCTION                                           *
                            ;************************************************************************************************
                            ;undefined LAB_0001fff0+1(char * param_1)
          ;param_1       char *              r0                      
                                                          ;XREF[0,2]:   0001f058,0001f19c
ram:0001fff0    70b5            push        {r4,r5,r6,lr}                           
ram:0001fff2    0178            ldrb        r1,[param_1,#0x0]                       
ram:0001fff4    41b1            cbz         r1,LAB_00020008                         
ram:0001fff6    0129            cmp         r1,#0x1                                 
ram:0001fff8    01d0            beq         LAB_0001fffe                            
ram:0001fffa    0229            cmp         r1,#0x2                                 
ram:0001fffc    21d1            bne         LAB_00020042                            
                            LAB_0001fffe:                 ;XREF[1,0]:   0001fff8
ram:0001fffe    4068            ldr         param_1,[param_1,#0x4]                  
                            LAB_00020000:                 ;XREF[13,0]:  0001e820,0001e820,0001e87c,0001e890
                                                          ;             0001e8c2,0001e8cc,0001e8ea,0001e8f0
                                                          ;             0001e90e,0001e92e,0001e934,0001e9f4
                                                          ;             0001fa78
ram:00020000    bde87040        pop.w       {r4,r5,r6,lr}                           
ram:00020004    fdf746bd        b.w         FUN_0001da94                            ;undefined FUN_0001da94(void)
                            LAB_00020008:                 ;XREF[1,0]:   0001fff4
ram:00020008    0f4c            ldr         r4,[DAT_00020048]                       ;= 20002080h
ram:0002000a    0e4d            ldr         r5,[DAT_00020044]                       ;= 200021A0h
ram:0002000c    2078            ldrb        param_1,[r4,#0x0]=>DAT_20002080         
ram:0002000e    2844            add         param_1,r5                              
ram:00020010    fdf736fe        bl          FUN_0001dc80                            ;undefined4 FUN_0001dc80(undefined * ...
ram:00020014    2078            ldrb        param_1,[r4,#0x0]=>DAT_20002080         
ram:00020016    401c            adds        param_1,param_1,#0x1                    
ram:00020018    c2b2            uxtb        r2,param_1                              
ram:0002001a    a818            adds        param_1,r5,r2                           
ram:0002001c    2270            strb        r2,[r4,#0x0]=>DAT_20002080              
ram:0002001e    10f8010c        ldrb.w      param_1,[param_1,#-0x1]                 
ram:00020022    0a28            cmp         param_1,#0xa                            
ram:00020024    01d0            beq         LAB_0002002a                            
ram:00020026    142a            cmp         r2,#0x14                                
ram:00020028    0bd3            bcc         LAB_00020042                            
                            LAB_0002002a:                 ;XREF[1,0]:   00020024
ram:0002002a    0649            ldr         r1,[DAT_00020044]                       ;= 200021A0h
ram:0002002c    01f57770        add.w       param_1,r1,#0x3dc                       
ram:00020030    fef719fa        bl          FUN_0001e466                            ;undefined8 FUN_0001e466(int param_1,...
ram:00020034    0828            cmp         param_1,#0x8                            
ram:00020036    02d0            beq         LAB_0002003e                            
ram:00020038    08b1            cbz         param_1,LAB_0002003e                    
ram:0002003a    fdf72bfd        bl          FUN_0001da94                            ;undefined FUN_0001da94(void)
                            LAB_0002003e:                 ;XREF[2,0]:   00020036,00020038
ram:0002003e    0020            movs        param_1,#0x0                            
ram:00020040    2070            strb        param_1,[r4,#0x0]=>DAT_20002080         
                            LAB_00020042:                 ;XREF[2,0]:   0001fffc,00020028
ram:00020042    70bd            pop         {r4,r5,r6,pc}                           
                            DAT_00020044:                 ;XREF[2,0]:   0002000a,0002002a
ram:00020044    a0210020        undefined4  200021A0h                               
                            DAT_00020048:                 ;XREF[1,0]:   00020008
ram:00020048    80200020        undefined4  20002080h                               
ram:0002004c    7c              ??          7Ch    |                                
                            DAT_0002004d:                 ;XREF[2,0]:   0001dd1c,0001dd54
ram:0002004d    b5              ??          B5h                                     
ram:0002004e    01              ??          01h                                     
ram:0002004f    78              ??          78h    x                                
ram:00020050    26              ??          26h    &                                
ram:00020051    4d              ??          4Dh    M                                
ram:00020052    01              ??          01h                                     
ram:00020053    29              ??          29h    )                                
ram:00020054    09              ??          09h                                     
ram:00020055    d0              ??          D0h                                     
ram:00020056    02              ??          02h                                     
ram:00020057    29              ??          29h    )                                
ram:00020058    2c              ??          2Ch    ,                                
ram:00020059    d0              ??          D0h                                     
ram:0002005a    00              ??          00h                                     
ram:0002005b    29              ??          29h    )                                
ram:0002005c    29              ??          29h    )                                
ram:0002005d    d1              ??          D1h                                     
ram:0002005e    29              ??          29h    )                                
ram:0002005f    46              ??          46h    F                                
ram:00020060    23              ??          23h    #                                
ram:00020061    48              ??          48h    H                                
ram:00020062    fd              ??          FDh                                     
ram:00020063    f7              ??          F7h                                     
ram:00020064    22              ??          22h    "                                
ram:00020065    fd              ??          FDh                                     
ram:00020066    80              ??          80h                                     
ram:00020067    b3              ??          B3h                                     
ram:00020068    34              ??          34h    4                                
ram:00020069    e0              ??          E0h                                     
ram:0002006a    40              ??          40h    @                                
ram:0002006b    68              ??          68h    h                                
ram:0002006c    01              ??          01h                                     
ram:0002006d    78              ??          78h    x                                
ram:0002006e    20              ??          20h                                     
ram:0002006f    48              ??          48h    H                                
ram:00020070    10              ??          10h                                     
ram:00020071    38              ??          38h    8                                
ram:00020072    fd              ??          FDh                                     
ram:00020073    f7              ??          F7h                                     
ram:00020074    35              ??          35h    5                                
ram:00020075    fd              ??          FDh                                     
ram:00020076    1e              ??          1Eh                                     
ram:00020077    4c              ??          4Ch    L                                
ram:00020078    10              ??          10h                                     
ram:00020079    3c              ??          3Ch    <                                
ram:0002007a    20              ??          20h                                     
ram:0002007b    b1              ??          B1h                                     
ram:0002007c    01              ??          01h                                     
ram:0002007d    21              ??          21h    !                                
ram:0002007e    8d              ??          8Dh                                     
ram:0002007f    f8              ??          F8h                                     
                            ;************************************************************************************************
                            ;*                                           FUNCTION                                           *
                            ;************************************************************************************************
                            ;undefined FUN_00020080(int param_1, undefined param_2, undefined param_3, undefined param_4, undefined param_5, undefined4 param_6)
          ;param_1       int                 r0                      
          ;param_2       undefined           r1                      
          ;param_3       undefined           r2                      
          ;param_4       undefined           r3                      
          ;param_5       undefined            0                      
          ;param_6       undefined4           4                      ;XREF[1,0]:   00020082
                                                          ;XREF[2,0]:   0001f53e,0001f578
ram:00020080    0010            asrs        param_1,param_1                         
ram:00020082    0190            str         param_1,[sp,#param_6]                   
ram:00020084    07e0            b           LAB_00020096                            
ram:00020086    a068            ldr         r0,[r4,#0x8]                            
ram:00020088    e168            ldr         r1,[r4,#0xc]                            
ram:0002008a    081a            subs        r0,r1,r0                                
ram:0002008c    0128            cmp         r0,#0x1                                 
ram:0002008e    05d1            bne         LAB_0002009c                            
ram:00020090    0020            movs        r0,#0x0                                 
                            ;************************************************************************************************
                            ;*                                           FUNCTION                                           *
                            ;************************************************************************************************
                            ;undefined FUN_00020092(undefined param_1, undefined param_2, undefined param_3, undefined param_4, undefined1 param_5)
          ;param_1       undefined           r0                      
          ;param_2       undefined           r1                      
          ;param_3       undefined           r2                      
          ;param_4       undefined           r3                      
          ;param_5       undefined1           0                      ;XREF[1,0]:   00020092
                                                          ;XREF[1,0]:   000204b4
ram:00020092    8df80000        strb.w      param_1,[sp,#0x0]=>param_5              
                            LAB_00020096:                 ;XREF[1,0]:   00020084
ram:00020096    6968            ldr         param_2,[r5,#0x4]                       
ram:00020098    6846            mov         param_1,sp                              
                            LAB_0002009a:                 ;XREF[1,0]:   000204bc
ram:0002009a    8847            blx         param_2                                 
                            LAB_0002009c:                 ;XREF[1,0]:   0002008e
ram:0002009c    a068            ldr         param_1,[r4,#0x8]                       
ram:0002009e    e168            ldr         param_2,[r4,#0xc]                       
ram:000200a0    081a            subs        param_1,param_2,param_1                 
                            LAB_000200a2:                 ;XREF[1,0]:   000204c4
ram:000200a2    a188            ldrh        param_2,[r4,#0x4]                       
ram:000200a4    8842            cmp         param_1,param_2                         
ram:000200a6    04d8            bhi         LAB_000200b2                            
ram:000200a8    1048            ldr         param_1,[DAT_000200ec]                  ;= 200020DCh
                            LAB_000200aa:                 ;XREF[1,0]:   000204cc
ram:000200aa    0121            movs        param_2,#0x1                            
ram:000200ac    401c            adds        param_1,param_1,#0x1                    
ram:000200ae    fff765fa        bl          FUN_0001f57c                            ;undefined4 FUN_0001f57c(uint param_1...
                            LAB_000200b2:                 ;XREF[2,0]:   000200a6,000200dc
ram:000200b2    7cbd            pop         {param_3,param_4,r4,r5,r6,pc}           
ram:000200b4    0221            movs        r1,#0x2                                 
ram:000200b6    8df80010        strb.w      r1,[sp,#0x0]                            
ram:000200ba    c068            ldr         r0,[r0,#0xc]                            
ram:000200bc    0190            str         r0,[sp,#0x4]                            
ram:000200be    0b48            ldr         r0,[DAT_000200ec]                       ;= 200020DCh
ram:000200c0    0121            movs        r1,#0x1                                 
ram:000200c2    401c            adds        r0,r0,#0x1                              
ram:000200c4    fff75afa        bl          FUN_0001f57c                            ;undefined4 FUN_0001f57c(uint param_1...
ram:000200c8    0ce0            b           FUN_000200e4                            ;undefined FUN_000200e4(void)
ram:000200ca    ffe7            b           LAB_000200cc                            
                            LAB_000200cc:                 ;XREF[1,0]:   000200ca
ram:000200cc    0121            movs        r1,#0x1                                 
ram:000200ce    0748            ldr         r0,[DAT_000200ec]                       ;= 200020DCh
ram:000200d0    fff740fb        bl          FUN_0001f754                            ;undefined4 FUN_0001f754(uint param_1)
ram:000200d4    0648            ldr         r0,[DAT_000200f0]                       ;= 20002754h
ram:000200d6    8168            ldr         r1,[r0,#0x8]=>DAT_2000275c              
ram:000200d8    c068            ldr         r0,[r0,#0xc]=>DAT_20002760              
ram:000200da    8842            cmp         r0,r1                                   
ram:000200dc    e9d1            bne         LAB_000200b2                            
ram:000200de    0320            movs        r0,#0x3                                 
ram:000200e0    8df80000        strb.w      r0,[sp,#0x0]                            
                            ;************************************************************************************************
                            ;*                                           FUNCTION                                           *
                            ;************************************************************************************************
                            ;undefined FUN_000200e4(void)
                                                          ;XREF[1,0]:   000200c8
ram:000200e4    6968            ldr         r1,[r5,#0x4]                            
ram:000200e6    6846            mov         r0,sp                                   
ram:000200e8    8847            blx         r1                                      
ram:000200ea    7cbd            pop         {r2,r3,r4,r5,r6,pc}                     
                            DAT_000200ec:                 ;XREF[3,0]:   000200a8,000200be,000200ce
ram:000200ec    dc200020        undefined4  200020DCh                               
                            DAT_000200f0:                 ;XREF[1,0]:   000200d4
ram:000200f0    54270020        undefined4  20002754h                               
                            LAB_000200f4:                 ;XREF[1,0]:   0001cea6
ram:000200f4    2de9ff41        push        {param_1,param_2,param_3,param_4,r4,r...
ram:000200f8    3e4d            ldr         r5,[DAT_000201f4]                       ;= 40002000h
ram:000200fa    4ff40071        mov.w       param_2,#0x200                          
ram:000200fe    2846            mov         param_1=>DAT_40002000,r5                
ram:00020100    fff713fc        bl          FUN_0001f92a                            ;uint FUN_0001f92a(int param_1, uint ...
ram:00020104    0127            movs        r7,#0x1                                 
ram:00020106    3c4c            ldr         r4,[DAT_000201f8]                       ;= 200027BCh
ram:00020108    4ff40178        mov.w       r8,#0x204                               
ram:0002010c    0026            movs        r6,#0x0                                 
ram:0002010e    00b3            cbz         param_1,LAB_00020152                    
ram:00020110    4ff49271        mov.w       param_2,#0x124                          
ram:00020114    2846            mov         param_1=>DAT_40002000,r5                
ram:00020116    fff703fc        bl          FUN_0001f920                            ;int FUN_0001f920(int param_1, int pa...
ram:0002011a    d0b1            cbz         param_1,LAB_00020152                    
ram:0002011c    c5f82461        str.w       r6,[r5,#0x124]=>DAT_40002124            
ram:00020120    c5f80883        str.w       r8,[r5,#0x308]=>DAT_40002308            
ram:00020124    a07e            ldrb        param_1,[r4,#0x1a]=>DAT_200027d6        
ram:00020126    00b9            cbnz        param_1,LAB_0002012a                    
ram:00020128    6f60            str         r7,[r5,#offset DAT_40002004 &0xff]      
                            LAB_0002012a:                 ;XREF[1,0]:   00020126
ram:0002012a    0220            movs        param_1,#0x2                            
ram:0002012c    8df80000        strb.w      param_1,[sp,#0x0]=>local_28             
ram:00020130    d5f88004        ldr.w       param_1,[r5,#0x480]=>DAT_40002480       
ram:00020134    c5f88004        str.w       param_1,[r5,#0x480]=>DAT_40002480       
ram:00020138    0390            str         param_1,[sp,#local_1c+0x28]             
ram:0002013a    e07d            ldrb        param_1,[r4,#0x17]=>DAT_200027d3        
ram:0002013c    8df80800        strb.w      param_1,[sp,#local_20+0x28]             
ram:00020140    e068            ldr         param_1,[r4,#0xc]=>DAT_200027c8         
ram:00020142    0190            str         param_1,[sp,#local_24+0x28]             
ram:00020144    e675            strb        r6,[r4,#0x17]=>DAT_200027d3             
ram:00020146    2676            strb        r6,[r4,#0x18]=>DAT_200027d4             
                                                          ; FWD[2,0]:   200027bc,200027c0
ram:00020148    d4e90012        ldrd        param_2,param_3,[r4,#0x0]=>DAT_200027bc 
ram:0002014c    6846            mov         param_1,sp                              
ram:0002014e    9047            blx         param_3                                 
ram:00020150    24e0            b           LAB_0002019c                            
                            LAB_00020152:                 ;XREF[2,0]:   0002010e,0002011a
ram:00020152    0421            movs        param_2,#0x4                            
ram:00020154    2846            mov         param_1=>DAT_40002000,r5                
ram:00020156    fff7e8fb        bl          FUN_0001f92a                            ;uint FUN_0001f92a(int param_1, uint ...
ram:0002015a    f8b1            cbz         param_1,LAB_0002019c                    
ram:0002015c    4ff48471        mov.w       param_2,#0x108                          
ram:00020160    2846            mov         param_1=>DAT_40002000,r5                
ram:00020162    fff7ddfb        bl          FUN_0001f920                            ;int FUN_0001f920(int param_1, int pa...
ram:00020166    c8b1            cbz         param_1,LAB_0002019c                    
ram:00020168    fff79efc        bl          FUN_0001faa8                            ;int FUN_0001faa8(void)
ram:0002016c    e07d            ldrb        param_1,[r4,#0x17]=>DAT_200027d3        
ram:0002016e    617e            ldrb        param_2,[r4,#0x19]=>DAT_200027d5        
ram:00020170    8842            cmp         param_1,param_2                         
ram:00020172    13d1            bne         LAB_0002019c                            
ram:00020174    227e            ldrb        param_3,[r4,#0x18]=>DAT_200027d4        
ram:00020176    3ab1            cbz         param_3,LAB_00020188                    
ram:00020178    607e            ldrb        param_1,[r4,#0x19]=>DAT_200027d5        
ram:0002017a    e168            ldr         param_2,[r4,#0xc]=>DAT_200027c8         
ram:0002017c    e275            strb        param_3,[r4,#0x17]=>DAT_200027d3        
ram:0002017e    2269            ldr         param_3,[r4,#0x10]=>DAT_200027cc        
ram:00020180    e260            str         param_3,[r4,#0xc]=>DAT_200027c8         
ram:00020182    2676            strb        r6,[r4,#0x18]=>DAT_200027d4             
ram:00020184    6676            strb        r6,[r4,#0x19]=>DAT_200027d5             
ram:00020186    07e0            b           LAB_00020198                            
                            LAB_00020188:                 ;XREF[1,0]:   00020176
ram:00020188    a07e            ldrb        param_1,[r4,#0x1a]=>DAT_200027d6        
ram:0002018a    00b9            cbnz        param_1,LAB_0002018e                    
ram:0002018c    6f60            str         r7,[r5,#offset DAT_40002004 &0xff]      
                            LAB_0002018e:                 ;XREF[1,0]:   0002018a
ram:0002018e    c5f80883        str.w       r8,[r5,#0x308]=>DAT_40002308            
ram:00020192    e675            strb        r6,[r4,#0x17]=>DAT_200027d3             
ram:00020194    607e            ldrb        param_1,[r4,#0x19]=>DAT_200027d5        
ram:00020196    e168            ldr         param_2,[r4,#0xc]=>DAT_200027c8         
                            LAB_00020198:                 ;XREF[1,0]:   00020186
ram:00020198    fff70cfd        bl          FUN_0001fbb4                            ;undefined8 FUN_0001fbb4(uint param_1...
                            LAB_0002019c:                 ;XREF[4,0]:   00020150,0002015a,00020166,00020172
ram:0002019c    4ff48e71        mov.w       param_2,#0x11c                          
ram:000201a0    2846            mov         param_1=>DAT_40002000,r5                
ram:000201a2    fff7bdfb        bl          FUN_0001f920                            ;int FUN_0001f920(int param_1, int pa...
ram:000201a6    58b1            cbz         param_1,LAB_000201c0                    
ram:000201a8    a18a            ldrh        param_2,[r4,#0x14]=>DAT_200027d0        
ram:000201aa    a07d            ldrb        param_1,[r4,#0x16]=>DAT_200027d2        
ram:000201ac    8142            cmp         param_2,param_1                         
ram:000201ae    02d2            bcs         LAB_000201b6                            
ram:000201b0    fff7aafe        bl          FUN_0001ff08                            ;undefined FUN_0001ff08(void)
ram:000201b4    04e0            b           LAB_000201c0                            
                            LAB_000201b6:                 ;XREF[1,0]:   000201ae
ram:000201b6    c5f81c61        str.w       r6,[r5,#0x11c]=>DAT_4000211c            
ram:000201ba    08b1            cbz         param_1,LAB_000201c0                    
ram:000201bc    fff706ff        bl          FUN_0001ffcc                            ;undefined8 FUN_0001ffcc(uint param_1...
                            LAB_000201c0:                 ;XREF[3,0]:   000201a6,000201b4,000201ba
ram:000201c0    4ff4a271        mov.w       param_2,#0x144                          
ram:000201c4    2846            mov         param_1=>DAT_40002000,r5                
ram:000201c6    fff7abfb        bl          FUN_0001f920                            ;int FUN_0001f920(int param_1, int pa...
ram:000201ca    0028            cmp         param_1,#0x0                            
ram:000201cc    0fd0            beq         LAB_000201ee                            
ram:000201ce    c5f84461        str.w       r6,[r5,#0x144]=>DAT_40002144            
ram:000201d2    a07e            ldrb        param_1,[r4,#0x1a]=>DAT_200027d6        
ram:000201d4    00b1            cbz         param_1,LAB_000201d8                    
ram:000201d6    2f60            str         r7,[r5,#0x0]=>DAT_40002000              
                            LAB_000201d8:                 ;XREF[1,0]:   000201d4
ram:000201d8    e07d            ldrb        param_1,[r4,#0x17]=>DAT_200027d3        
ram:000201da    0028            cmp         param_1,#0x0                            
ram:000201dc    07d0            beq         LAB_000201ee                            
ram:000201de    e675            strb        r6,[r4,#0x17]=>DAT_200027d3             
ram:000201e0    607e            ldrb        param_1,[r4,#0x19]=>DAT_200027d5        
ram:000201e2    e168            ldr         param_2,[r4,#0xc]=>DAT_200027c8         
ram:000201e4    04b0            add         sp,#0x10                                
ram:000201e6    bde8f041        pop.w       {r4,r5,r6,r7,r8,lr}                     
ram:000201ea    fff7e3bc        b.w         FUN_0001fbb4                            ;undefined8 FUN_0001fbb4(uint param_1...
                            LAB_000201ee:                 ;XREF[2,0]:   000201cc,000201dc
ram:000201ee    bde8ff81        pop.w       {param_1,param_2,param_3,param_4,r4,r...
ram:000201f2    00              ??          00h                                     
ram:000201f3    00              ??          00h                                     
                            DAT_000201f4:                 ;XREF[1,0]:   000200f8
ram:000201f4    00200040        undefined4  40002000h                               
                            DAT_000201f8:                 ;XREF[1,0]:   00020106
ram:000201f8    bc270020        undefined4  200027BCh                               
                            LAB_000201fc:                 ;XREF[1,0]:   0001cea2
ram:000201fc    7fb5            push        {param_1,param_2,param_3,param_4,r4,r...
ram:000201fe    334c            ldr         r4,[DAT_000202cc]                       ;= 40002000h
ram:00020200    4ff49271        mov.w       param_2,#0x124                          
ram:00020204    2046            mov         param_1=>DAT_40002000,r4                
ram:00020206    fff796fb        bl          FUN_0001f936                            ;int FUN_0001f936(int param_1, int pa...
ram:0002020a    314d            ldr         r5,[DAT_000202d0]                       ;= 200027BCh
ram:0002020c    0026            movs        r6,#0x0                                 
ram:0002020e    b0b1            cbz         param_1,LAB_0002023e                    
ram:00020210    c4f82461        str.w       r6,[r4,#0x124]=>DAT_40002124            
ram:00020214    0220            movs        param_1,#0x2                            
ram:00020216    8df80000        strb.w      param_1,[sp,#0x0]=>local_20             
ram:0002021a    d4f88004        ldr.w       param_1,[r4,#0x480]=>DAT_40002480       
ram:0002021e    c4f88004        str.w       param_1,[r4,#0x480]=>DAT_40002480       
ram:00020222    0390            str         param_1,[sp,#local_14+0x20]             
ram:00020224    d4f83c05        ldr.w       param_1,[r4,#0x53c]=>DAT_4000253c       
ram:00020228    8df80800        strb.w      param_1,[sp,#local_18+0x20]             
ram:0002022c    e868            ldr         param_1,[r5,#0xc]=>DAT_200027c8         
ram:0002022e    0190            str         param_1,[sp,#local_1c+0x20]             
ram:00020230    ee75            strb        r6,[r5,#0x17]=>DAT_200027d3             
ram:00020232    2e76            strb        r6,[r5,#0x18]=>DAT_200027d4             
                                                          ; FWD[2,0]:   200027bc,200027c0
ram:00020234    d5e90012        ldrd        param_2,param_3,[r5,#0x0]=>DAT_200027bc 
ram:00020238    6846            mov         param_1,sp                              
ram:0002023a    9047            blx         param_3                                 
ram:0002023c    1fe0            b           LAB_0002027e                            
                            LAB_0002023e:                 ;XREF[1,0]:   0002020e
ram:0002023e    4ff48871        mov.w       param_2,#0x110                          
ram:00020242    2046            mov         param_1=>DAT_40002000,r4                
ram:00020244    fff777fb        bl          FUN_0001f936                            ;int FUN_0001f936(int param_1, int pa...
ram:00020248    c8b1            cbz         param_1,LAB_0002027e                    
ram:0002024a    c4f81061        str.w       r6,[r4,#0x110]=>DAT_40002110            
ram:0002024e    d4f83c05        ldr.w       param_1,[r4,#0x53c]=>DAT_4000253c       
ram:00020252    e97d            ldrb        param_2,[r5,#0x17]=>DAT_200027d3        
ram:00020254    c0b2            uxtb        param_1,param_1                         
ram:00020256    8142            cmp         param_2,param_1                         
ram:00020258    11d1            bne         LAB_0002027e                            
ram:0002025a    2a7e            ldrb        param_3,[r5,#0x18]=>DAT_200027d4        
ram:0002025c    5ab1            cbz         param_3,LAB_00020276                    
ram:0002025e    e968            ldr         param_2,[r5,#0xc]=>DAT_200027c8         
ram:00020260    d4f80032        ldr.w       param_4,[r4,#0x200]=>DAT_40002200       
ram:00020264    23f02003        bic         param_4,param_4,#0x20                   
ram:00020268    c4f80032        str.w       param_4,[r4,#0x200]=>DAT_40002200       
ram:0002026c    ea75            strb        param_3,[r5,#0x17]=>DAT_200027d3        
ram:0002026e    2a69            ldr         param_3,[r5,#0x10]=>DAT_200027cc        
ram:00020270    ea60            str         param_3,[r5,#0xc]=>DAT_200027c8         
ram:00020272    2e76            strb        r6,[r5,#0x18]=>DAT_200027d4             
ram:00020274    01e0            b           LAB_0002027a                            
                            LAB_00020276:                 ;XREF[1,0]:   0002025c
ram:00020276    ee75            strb        r6,[r5,#0x17]=>DAT_200027d3             
ram:00020278    e968            ldr         param_2,[r5,#0xc]=>DAT_200027c8         
                            LAB_0002027a:                 ;XREF[1,0]:   00020274
ram:0002027a    fff79bfc        bl          FUN_0001fbb4                            ;undefined8 FUN_0001fbb4(uint param_1...
                            LAB_0002027e:                 ;XREF[3,0]:   0002023c,00020248,00020258
ram:0002027e    4ff4a271        mov.w       param_2,#0x144                          
ram:00020282    2046            mov         param_1=>DAT_40002000,r4                
ram:00020284    fff757fb        bl          FUN_0001f936                            ;int FUN_0001f936(int param_1, int pa...
ram:00020288    50b1            cbz         param_1,LAB_000202a0                    
ram:0002028a    c4f84461        str.w       r6,[r4,#0x144]=>DAT_40002144            
ram:0002028e    e87d            ldrb        param_1,[r5,#0x17]=>DAT_200027d3        
ram:00020290    30b1            cbz         param_1,LAB_000202a0                    
ram:00020292    ee75            strb        r6,[r5,#0x17]=>DAT_200027d3             
ram:00020294    d4f83c05        ldr.w       param_1,[r4,#0x53c]=>DAT_4000253c       
ram:00020298    e968            ldr         param_2,[r5,#0xc]=>DAT_200027c8         
ram:0002029a    c0b2            uxtb        param_1,param_1                         
ram:0002029c    fff78afc        bl          FUN_0001fbb4                            ;undefined8 FUN_0001fbb4(uint param_1...
                            LAB_000202a0:                 ;XREF[2,0]:   00020288,00020290
ram:000202a0    4ff49071        mov.w       param_2,#0x120                          
ram:000202a4    2046            mov         param_1=>DAT_40002000,r4                
ram:000202a6    fff746fb        bl          FUN_0001f936                            ;int FUN_0001f936(int param_1, int pa...
ram:000202aa    0028            cmp         param_1,#0x0                            
ram:000202ac    0cd0            beq         LAB_000202c8                            
ram:000202ae    c4f82061        str.w       r6,[r4,#0x120]=>DAT_40002120            
ram:000202b2    a87d            ldrb        param_1,[r5,#0x16]=>DAT_200027d2        
ram:000202b4    0028            cmp         param_1,#0x0                            
ram:000202b6    07d0            beq         LAB_000202c8                            
ram:000202b8    d4f84c05        ldr.w       param_1,[r4,#0x54c]=>DAT_4000254c       
ram:000202bc    04b0            add         sp,#0x10                                
ram:000202be    c0b2            uxtb        param_1,param_1                         
ram:000202c0    bde87040        pop.w       {r4,r5,r6,lr}                           
ram:000202c4    fff782be        b.w         FUN_0001ffcc                            ;undefined8 FUN_0001ffcc(uint param_1...
                            LAB_000202c8:                 ;XREF[2,0]:   000202ac,000202b6
ram:000202c8    7fbd            pop         {param_1,param_2,param_3,param_4,r4,r...
ram:000202ca    0000            movs        r0,r0                                   
                            DAT_000202cc:                 ;XREF[1,0]:   000201fe
ram:000202cc    00200040        undefined4  40002000h                               
                            DAT_000202d0:                 ;XREF[1,0]:   0002020a
ram:000202d0    bc270020        undefined4  200027BCh                               
                            ;************************************************************************************************
                            ;*                                           FUNCTION                                           *
                            ;************************************************************************************************
                            ;undefined4 FUN_000202d4(undefined4 param_1, undefined * param_2)
          ;param_1       undefined4          r0                      
          ;param_2       undefined *         r1                      
                                                          ;XREF[5,0]:   0001d870,0001ebee,0001ebfe,0001f212
                                                          ;             0001fcd4
ram:000202d4    0870            strb        param_1,[param_2,#0x0]                  
ram:000202d6    000a            lsrs        param_1,param_1,#0x8                    
ram:000202d8    4870            strb        param_1,[param_2,#0x1]                  
ram:000202da    0220            movs        param_1,#0x2                            
ram:000202dc    7047            bx          lr                                      
ram:000202de    0000            movs        r0,r0                                   
                            ;************************************************************************************************
                            ;*                                           FUNCTION                                           *
                            ;************************************************************************************************
                            ;undefined LAB_000202e0+1(void)
          ;local_10      undefined1         -10                      ;XREF[1,0]:   0002032e
                                                          ;XREF[0,2]:   0001e284,0001e298
ram:000202e0    38b5            push        {r3,r4,r5,lr}                           
ram:000202e2    1549            ldr         r1,[DAT_00020338]                       ;= 200020C8h
ram:000202e4    4888            ldrh        r0,[r1,#0x2]=>DAT_200020ca              
ram:000202e6    a0f57f42        sub.w       r2,r0,#0xff00                           
ram:000202ea    ff3a            subs        r2,#0xff                                
ram:000202ec    23d0            beq         LAB_00020336                            
ram:000202ee    4a78            ldrb        r2,[r1,#0x1]=>DAT_200020c9              
ram:000202f0    124c            ldr         r4,[DAT_0002033c]                       ;= 20002728h
ram:000202f2    521c            adds        r2,r2,#0x1                              
ram:000202f4    d2b2            uxtb        r2,r2                                   
ram:000202f6    4a70            strb        r2,[r1,#0x1]=>DAT_200020c9              
ram:000202f8    237b            ldrb        r3,[r4,#0xc]=>DAT_20002734              
ram:000202fa    9342            cmp         r3,r2                                   
ram:000202fc    0ad3            bcc         LAB_00020314                            
ram:000202fe    091d            adds        r1,r1,#0x4                              
ram:00020300    75df            svc         0x75                                    
ram:00020302    0028            cmp         r0,#0x0                                 
ram:00020304    17d0            beq         LAB_00020336                            
ram:00020306    a169            ldr         r1,[r4,#0x18]=>DAT_20002740             
ram:00020308    0029            cmp         r1,#0x0                                 
ram:0002030a    14d0            beq         LAB_00020336                            
ram:0002030c    01b0            add         sp,#0x4                                 
ram:0002030e    bde83040        pop.w       {r4,r5,lr}                              
ram:00020312    0847            bx          r1                                      
                            LAB_00020314:                 ;XREF[1,0]:   000202fc
ram:00020314    0025            movs        r5,#0x0                                 
ram:00020316    4d70            strb        r5,[r1,#0x1]=>DAT_200020c9              
ram:00020318    217c            ldrb        r1,[r4,#0x10]=>DAT_20002738             
ram:0002031a    29b1            cbz         r1,LAB_00020328                         
ram:0002031c    3b21            movs        r1,#0x3b                                
ram:0002031e    76df            svc         0x76                                    
ram:00020320    10b1            cbz         r0,LAB_00020328                         
ram:00020322    a169            ldr         r1,[r4,#0x18]=>DAT_20002740             
ram:00020324    01b1            cbz         r1,LAB_00020328                         
ram:00020326    8847            blx         r1                                      
                            LAB_00020328:                 ;XREF[3,0]:   0002031a,00020320,00020324
ram:00020328    6169            ldr         r1,[r4,#0x14]=>DAT_2000273c             
ram:0002032a    0029            cmp         r1,#0x0                                 
ram:0002032c    03d0            beq         LAB_00020336                            
ram:0002032e    8df80050        strb.w      r5,[sp,#0x0]=>local_10                  
ram:00020332    6846            mov         r0,sp                                   
ram:00020334    8847            blx         r1                                      
                            LAB_00020336:                 ;XREF[4,0]:   000202ec,00020304,0002030a,0002032c
ram:00020336    38bd            pop         {r3,r4,r5,pc}                           
                            DAT_00020338:                 ;XREF[1,0]:   000202e2
ram:00020338    c8200020        undefined4  200020C8h                               
                            DAT_0002033c:                 ;XREF[1,0]:   000202f0
ram:0002033c    28270020        undefined4  20002728h                               
                            ;************************************************************************************************
                            ;*                                           FUNCTION                                           *
                            ;************************************************************************************************
                            ;undefined4 FUN_00020340(void)
                                                          ;XREF[2,0]:   0001dbdc,0001dc44
ram:00020340    eff30580        mrs         r0,ipsr                                 
ram:00020344    c005            lsls        r0,r0,#0x17                             
ram:00020346    c00d            lsrs        r0,r0,#0x17                             
ram:00020348    13d0            beq         LAB_00020372                            
ram:0002034a    1038            subs        r0,#0x10                                
ram:0002034c    40b2            sxtb        r0,r0                                   
ram:0002034e    0028            cmp         r0,#0x0                                 
ram:00020350    06da            bge         LAB_00020360                            
ram:00020352    00f00f00        and         r0,r0,#0xf                              
ram:00020356    00f1e020        add.w       r0,r0,#0xe000e000                       
ram:0002035a    90f8140d        ldrb.w      r0,[r0,#0xd14]                          
ram:0002035e    03e0            b           LAB_00020368                            
                            LAB_00020360:                 ;XREF[1,0]:   00020350
ram:00020360    00f1e020        add.w       r0,r0,#0xe000e000                       
ram:00020364    90f80004        ldrb.w      r0,[r0,#0x400]                          
                            LAB_00020368:                 ;XREF[1,0]:   0002035e
ram:00020368    4009            lsrs        r0,r0,#0x5                              
ram:0002036a    0228            cmp         r0,#0x2                                 
ram:0002036c    03d0            beq         LAB_00020376                            
ram:0002036e    0628            cmp         r0,#0x6                                 
ram:00020370    03d0            beq         LAB_0002037a                            
                            LAB_00020372:                 ;XREF[1,0]:   00020348
ram:00020372    0220            movs        r0,#0x2                                 
ram:00020374    7047            bx          lr                                      
                            LAB_00020376:                 ;XREF[1,0]:   0002036c
ram:00020376    0020            movs        r0,#0x0                                 
ram:00020378    7047            bx          lr                                      
                            LAB_0002037a:                 ;XREF[1,0]:   00020370
ram:0002037a    0120            movs        r0,#0x1                                 
ram:0002037c    7047            bx          lr                                      
                            ;************************************************************************************************
                            ;*                                           FUNCTION                                           *
                            ;************************************************************************************************
                            ;int FUN_0002037e(char * param_1, char * param_2)
          ;param_1       char *              r0                      
          ;param_2       char *              r1                      
                                                          ;XREF[2,0]:   0001dbec,0001dc52
ram:0002037e    4278            ldrb        r2,[param_1,#0x1]                       
ram:00020380    8378            ldrb        r3,[param_1,#0x2]                       
ram:00020382    521c            adds        r2,r2,#0x1                              
ram:00020384    d2b2            uxtb        r2,r2                                   
ram:00020386    9342            cmp         r3,r2                                   
ram:00020388    00d1            bne         LAB_0002038c                            
ram:0002038a    0022            movs        r2,#0x0                                 
                            LAB_0002038c:                 ;XREF[1,0]:   00020388
ram:0002038c    0378            ldrb        r3,[param_1,#0x0]                       
ram:0002038e    9342            cmp         r3,r2                                   
ram:00020390    01d1            bne         LAB_00020396                            
ram:00020392    0020            movs        param_1,#0x0                            
ram:00020394    7047            bx          lr                                      
                            LAB_00020396:                 ;XREF[1,0]:   00020390
ram:00020396    0a70            strb        r2,[param_2,#0x0]                       
ram:00020398    4168            ldr         param_2,[param_1,#0x4]                  
ram:0002039a    4078            ldrb        param_1,[param_1,#0x1]                  
ram:0002039c    00eb4000        add.w       param_1,param_1,param_1, lsl #0x1       
ram:000203a0    01ebc000        add.w       param_1,param_2,param_1, lsl #0x3       
ram:000203a4    7047            bx          lr                                      
                            ;************************************************************************************************
                            ;*                                           FUNCTION                                           *
                            ;************************************************************************************************
                            ;undefined8 FUN_000203a6(ushort * param_1, byte * param_2, byte * param_3, int param_4, ushort * param_5, byte * param_6)
          ;param_1       ushort *            r0                      
          ;param_2       byte *              r1                      
          ;param_3       byte *              r2                      
          ;param_4       int                 r3                      
          ;param_5       ushort *             0                      ;XREF[1,0]:   000203ac
          ;param_6       byte *               4                      
          ;local_20      undefined4         -20                      ;XREF[2,0]:   000203b0,000203c2
                                                          ;XREF[3,0]:   0001d8f6,0001d910,0001d92a
ram:000203a6    2de9fc41        push        {param_3,param_4,r4,r5,r6,r7,r8,lr}     
ram:000203aa    1646            mov         r6,param_3                              
ram:000203ac    dde90854        ldrd        r5,r4,[sp,#param_5+0x20]                
ram:000203b0    cde90054        strd        r5,r4,[sp,#0x0]=>local_20               
ram:000203b4    1f46            mov         r7,param_4                              
ram:000203b6    8046            mov         r8,param_1                              
ram:000203b8    0222            movs        param_3,#0x2                            
ram:000203ba    00f00cf8        bl          FUN_000203d6                            ;undefined8 FUN_000203d6(ushort * par...
ram:000203be    0028            cmp         param_1,#0x0                            
ram:000203c0    07d1            bne         LAB_000203d2                            
ram:000203c2    cde90054        strd        r5,r4,[sp,#0x0]=>local_20               
ram:000203c6    3b46            mov         param_4,r7                              
ram:000203c8    1022            movs        param_3,#0x10                           
ram:000203ca    3146            mov         param_2,r6                              
ram:000203cc    4046            mov         param_1,r8                              
ram:000203ce    00f002f8        bl          FUN_000203d6                            ;undefined8 FUN_000203d6(ushort * par...
                            LAB_000203d2:                 ;XREF[1,0]:   000203c0
ram:000203d2    bde8fc81        pop.w       {param_3,param_4,r4,r5,r6,r7,r8,pc}     
                            ;************************************************************************************************
                            ;*                                           FUNCTION                                           *
                            ;************************************************************************************************
                            ;undefined8 FUN_000203d6(ushort * param_1, byte * param_2, uint param_3, int param_4, ushort * param_5, byte * param_6)
          ;param_1       ushort *            r0                      
          ;param_2       byte *              r1                      
          ;param_3       uint                r2                      
          ;param_4       int                 r3                      
          ;param_5       ushort *             0                      ;XREF[1,0]:   000203dc
          ;param_6       byte *               4                      
          ;local_2c      undefined4         -2c                      ;XREF[1,0]:   000203fc
          ;local_30      undefined1         -30                      ;XREF[2,0]:   00020406,00020446
                                                          ;XREF[2,0]:   000203ba,000203ce
ram:000203d6    2de9fc5f        push        {param_3,param_4,r4,r5,r6,r7,r8,r9,r1...
ram:000203da    0026            movs        r6,#0x0                                 
ram:000203dc    dde90c4b        ldrd        r4,r11,[sp,#param_5+0x30]               
ram:000203e0    9946            mov         r9,param_4                              
ram:000203e2    9246            mov         r10,param_3                             
ram:000203e4    8e46            mov         lr,param_2                              
ram:000203e6    8046            mov         r8,param_1                              
ram:000203e8    2788            ldrh        r7,[r4,#0x0]                            
ram:000203ea    3546            mov         r5,r6                                   
ram:000203ec    30e0            b           LAB_00020450                            
                            LAB_000203ee:                 ;XREF[1,0]:   00020456
ram:000203ee    d8f80400        ldr.w       param_1,[r8,#0x4]                       
ram:000203f2    0022            movs        param_3,#0x0                            
ram:000203f4    00eb8500        add.w       param_1,param_1,r5, lsl #0x2            
ram:000203f8    6946            mov         param_2,sp                              
ram:000203fa    0068            ldr         param_1,[param_1,#0x0]                  
ram:000203fc    0190            str         param_1,[sp,#local_2c+0x30]             
ram:000203fe    01a8            add         param_1,sp,#0x4                         
ram:00020400    65df            svc         0x65                                    
ram:00020402    0028            cmp         param_1,#0x0                            
ram:00020404    30d1            bne         LAB_00020468                            
ram:00020406    9df80000        ldrb.w      param_1,[sp,#0x0]=>local_30             
ram:0002040a    5045            cmp         param_1,r10                             
ram:0002040c    1fd1            bne         LAB_0002044e                            
ram:0002040e    0eb1            cbz         r6,LAB_00020414                         
ram:00020410    0021            movs        param_2,#0x0                            
ram:00020412    00e0            b           LAB_00020416                            
                            LAB_00020414:                 ;XREF[1,0]:   0002040e
ram:00020414    0221            movs        param_2,#0x2                            
                            LAB_00020416:                 ;XREF[1,0]:   00020412
ram:00020416    2288            ldrh        param_3,[r4,#0x0]                       
ram:00020418    0844            add         param_1,param_2                         
ram:0002041a    1118            adds        param_2,param_3,param_1                 
ram:0002041c    5945            cmp         param_2,r11                             
ram:0002041e    22d8            bhi         LAB_00020466                            
ram:00020420    46b9            cbnz        r6,LAB_00020434                         
ram:00020422    521c            adds        param_3,param_3,#0x1                    
ram:00020424    90b2            uxth        param_1,param_3                         
ram:00020426    2080            strh        param_1,[r4,#0x0]                       
ram:00020428    09f800e0        strb.w      lr,r9,param_1,0x0                       
ram:0002042c    2088            ldrh        param_1,[r4,#0x0]                       
ram:0002042e    401c            adds        param_1,param_1,#0x1                    
ram:00020430    2080            strh        param_1,[r4,#0x0]                       
ram:00020432    0126            movs        r6,#0x1                                 
                            LAB_00020434:                 ;XREF[1,0]:   00020420
ram:00020434    2188            ldrh        param_2,[r4,#0x0]                       
ram:00020436    01a8            add         param_1,sp,#0x4                         
ram:00020438    01eb0902        add.w       param_3,param_2,r9                      
ram:0002043c    6946            mov         param_2,sp                              
ram:0002043e    65df            svc         0x65                                    
ram:00020440    0028            cmp         param_1,#0x0                            
ram:00020442    11d1            bne         LAB_00020468                            
ram:00020444    2088            ldrh        param_1,[r4,#0x0]                       
ram:00020446    9df80010        ldrb.w      param_2=>local_30,[sp,#0x0]             
ram:0002044a    0844            add         param_1,param_2                         
ram:0002044c    2080            strh        param_1,[r4,#0x0]                       
                            LAB_0002044e:                 ;XREF[1,0]:   0002040c
ram:0002044e    6d1c            adds        r5,r5,#0x1                              
                            LAB_00020450:                 ;XREF[1,0]:   000203ec
ram:00020450    b8f80000        ldrh.w      param_1,[r8,#0x0]                       
ram:00020454    a842            cmp         param_1,r5                              
ram:00020456    cadc            bgt         LAB_000203ee                            
ram:00020458    56b1            cbz         r6,LAB_00020470                         
ram:0002045a    2088            ldrh        param_1,[r4,#0x0]                       
ram:0002045c    c01b            subs        param_1,param_1,r7                      
ram:0002045e    401e            subs        param_1,param_1,#0x1                    
ram:00020460    80b2            uxth        param_1,param_1                         
ram:00020462    ff28            cmp         param_1,#0xff                           
ram:00020464    02d9            bls         LAB_0002046c                            
                            LAB_00020466:                 ;XREF[1,0]:   0002041e
ram:00020466    0c20            movs        param_1,#0xc                            
                            LAB_00020468:                 ;XREF[3,0]:   00020404,00020442,00020472
ram:00020468    bde8fc9f        pop.w       {param_3,param_4,r4,r5,r6,r7,r8,r9,r1...
                            LAB_0002046c:                 ;XREF[1,0]:   00020464
ram:0002046c    09f80700        strb.w      param_1,r9,r7,0x0                       
                            LAB_00020470:                 ;XREF[1,0]:   00020458
ram:00020470    0020            movs        param_1,#0x0                            
ram:00020472    f9e7            b           LAB_00020468                            
                            ;************************************************************************************************
                            ;*                                           FUNCTION                                           *
                            ;************************************************************************************************
                            ;char FUN_00020474(int param_1)
          ;param_1       int                 r0                      
                                                          ;XREF[2,0]:   0001e1b2,0001e1f2
ram:00020474    0179            ldrb        r1,[param_1,#0x4]                       
ram:00020476    11b9            cbnz        r1,LAB_0002047e                         
ram:00020478    007b            ldrb        param_1,[param_1,#0xc]                  
ram:0002047a    0028            cmp         param_1,#0x0                            
ram:0002047c    00d0            beq         LAB_00020480                            
                            LAB_0002047e:                 ;XREF[1,0]:   00020476
ram:0002047e    0120            movs        param_1,#0x1                            
                            LAB_00020480:                 ;XREF[1,0]:   0002047c
ram:00020480    7047            bx          lr                                      
ram:00020482    0000            movs        r0,r0                                   
                            DAT_00020484:                 ;XREF[2,0]:   0001e4bc,0001e50c
ram:00020484    01000007        undefined4  07000001h                               
                            DAT_00020488:                 ;XREF[2,0]:   0001f040,0001f190
ram:00020488    08060507        undefined4  07050608h                               
                            DAT_0002048c:                 ;XREF[1,0]:   0001f040
ram:0002048c    01000000        undefined4  00000001h                               
                            DAT_00020490:                 ;XREF[1,0]:   0001f040
ram:00020490    00e0d701        undefined4  01D7E000h                               
                            DAT_00020494:                 ;XREF[5,0]:   0001e612,0001e7c8,0001e81e,0001e968
                                                          ;             0001ea1c
ram:00020494    98250020        undefined4  20002598h                               
                            DAT_00020498:                 ;XREF[3,0]:   0001e7dc,0001e978,0001e9b4
ram:00020498    b8250020        undefined4  200025B8h                               
                            DAT_0002049c:                 ;XREF[3,0]:   0001e658,0001e66c,0001e79e
ram:0002049c    e4250020        undefined4  200025E4h                               
                            DAT_000204a0:                 ;XREF[7,0]:   0001e5f4,0001e5fe,0001e688,0001e69e
                                                          ;             0001e6bc,0001ea28,0001ea58
ram:000204a0    0d000000        undefined4  0000000Dh                               
                            DAT_000204a4:                 ;XREF[2,0]:   0001e5fe,0001ea28
ram:000204a4    0e000000        undefined4  0000000Eh                               
ram:000204a8    0f              ??          0Fh                                     
ram:000204a9    00              ??          00h                                     
ram:000204aa    00              ??          00h                                     
ram:000204ab    00              ??          00h                                     
ram:000204ac    10              ??          10h                                     
ram:000204ad    00              ??          00h                                     
ram:000204ae    00              ??          00h                                     
ram:000204af    00              ??          00h                                     
                            ;************************************************************************************************
                            ;*                                           FUNCTION                                           *
                            ;************************************************************************************************
                            ;undefined FUN_000204b0(undefined param_1, int param_2)
          ;param_1       undefined           r0                      
          ;param_2       int                 r1                      
                                                          ;XREF[2,0]:   0001e78a,0001e7e8
ram:000204b0    0d00            movs        r5,param_2                              
ram:000204b2    0300            movs        r3,param_1                              
ram:000204b4    ede5            b           FUN_00020092                            
ram:000204b6    0100            movs        r1,r0                                   
ram:000204b8    0e00            movs        r6,r1                                   
ram:000204ba    0300            movs        r3,r0                                   
ram:000204bc    ede5            b           LAB_0002009a                            
ram:000204be    0100            movs        r1,r0                                   
ram:000204c0    0f00            movs        r7,r1                                   
ram:000204c2    0300            movs        r3,r0                                   
ram:000204c4    ede5            b           LAB_000200a2                            
ram:000204c6    0100            movs        r1,r0                                   
ram:000204c8    1000            movs        r0,r2                                   
ram:000204ca    0300            movs        r3,r0                                   
ram:000204cc    ede5            b           LAB_000200aa                            
ram:000204ce    0100            movs        r1,r0                                   
                            DAT_000204d0:                 ;XREF[8,0]:   0001e288,0001e29c,0001e2b0,0001e2f8
                                                          ;             0001e320,0001ec10,0001ec48,0001ec68
ram:000204d0    08270020        undefined4  20002708h                               
                            DAT_000204d4:                 ;XREF[2,0]:   0001e3b8,0001e410
ram:000204d4    9ecadc24        undefined4  24DCCA9Eh                               
                            DAT_000204d8:                 ;XREF[1,0]:   0001e3b8
ram:000204d8    0ee5a9e0        undefined4  E0A9E50Eh                               
                            DAT_000204dc:                 ;XREF[1,0]:   0001e3b8
ram:000204dc    93f3a3b5        undefined4  B5A3F393h                               
                            DAT_000204e0:                 ;XREF[1,0]:   0001e3b8
ram:000204e0    0000406e        undefined4  6E400000h                               
                            DAT_000204e4:                 ;XREF[2,0]:   0001dce8,0001dd50
ram:000204e4    06              ??          06h                                     
ram:000204e5    00              ??          00h                                     
ram:000204e6    00              ??          00h                                     
ram:000204e7    00              ??          00h                                     
ram:000204e8    08              ??          08h                                     
ram:000204e9    00              ??          00h                                     
ram:000204ea    00              ??          00h                                     
ram:000204eb    00              ??          00h                                     
ram:000204ec    07              ??          07h                                     
ram:000204ed    00              ??          00h                                     
ram:000204ee    00              ??          00h                                     
ram:000204ef    00              ??          00h                                     
ram:000204f0    05              ??          05h                                     
ram:000204f1    00              ??          00h                                     
ram:000204f2    00              ??          00h                                     
ram:000204f3    00              ??          00h                                     
ram:000204f4    00              ??          00h                                     
ram:000204f5    00              ??          00h                                     
ram:000204f6    00              ??          00h                                     
ram:000204f7    00              ??          00h                                     
ram:000204f8    00              ??          00h                                     
ram:000204f9    00              ??          00h                                     
ram:000204fa    00              ??          00h                                     
ram:000204fb    00              ??          00h                                     
ram:000204fc    00              ??          00h                                     
ram:000204fd    00              ??          00h                                     
ram:000204fe    d6              ??          D6h                                     
ram:000204ff    01              ??          01h                                     
ram:00020500    06              ??          06h                                     
ram:00020501    00              ??          00h                                     
ram:00020502    00              ??          00h                                     
ram:00020503    00              ??          00h                                     
                            DAT_00020504:                 ;XREF[2,0]:   0001f504,0001f56c
ram:00020504    06              ??          06h                                     
ram:00020505    00              ??          00h                                     
ram:00020506    00              ??          00h                                     
ram:00020507    00              ??          00h                                     
ram:00020508    08              ??          08h                                     
ram:00020509    00              ??          00h                                     
ram:0002050a    00              ??          00h                                     
ram:0002050b    00              ??          00h                                     
ram:0002050c    07              ??          07h                                     
ram:0002050d    00              ??          00h                                     
ram:0002050e    00              ??          00h                                     
ram:0002050f    00              ??          00h                                     
ram:00020510    05              ??          05h                                     
ram:00020511    00              ??          00h                                     
ram:00020512    00              ??          00h                                     
ram:00020513    00              ??          00h                                     
                            DAT_00020514:                 ;XREF[1,0]:   0001f50c
ram:00020514    00000000        undefined4  00000000h                               
ram:00020518    00              ??          00h                                     
ram:00020519    00              ??          00h                                     
ram:0002051a    00              ??          00h                                     
ram:0002051b    00              ??          00h                                     
ram:0002051c    00              ??          00h                                     
ram:0002051d    00              ??          00h                                     
ram:0002051e    d6              ??          D6h                                     
ram:0002051f    01              ??          01h                                     
                            DAT_00020520:                 ;XREF[1,0]:   0001f51a
ram:00020520    06              undefined1  06h                                     
                            DAT_00020521:                 ;XREF[1,0]:   0001f500
ram:00020521    00              undefined1  00h                                     
ram:00020522    00              ??          00h                                     
ram:00020523    00              ??          00h                                     
                            DAT_00020524:                 ;XREF[5,0]:   0001da5a,0001da64,0001ed60,0001ed96
                                                          ;             0001eda4
ram:00020524    b4280020        undefined4  200028B4h                               
                            DAT_00020528:                 ;XREF[1,0]:   0001da34
ram:00020528    03000000        undefined4  00000003h                               
                            PTR_DAT_0002052c:             ;XREF[1,0]:   0001c904
ram:0002052c    4c050200        addr        DAT_0002054c                            
                            DAT_00020530:                 ;XREF[1,0]:   0001c904
ram:00020530    80200020        undefined4  20002080h                               
                            DAT_00020534:                 ;XREF[1,0]:   0001c904
ram:00020534    d8000000        undefined4  000000D8h                               
                            PTR_thunk_FUN_0001ced8_0002...;XREF[1,0]:   0001c8fe
ram:00020538    d0ce0100        addr        thunk_FUN_0001ced8                      
ram:0002053c    24              ??          24h    $                                
ram:0002053d    06              ??          06h                                     
ram:0002053e    02              ??          02h                                     
ram:0002053f    00              ??          00h                                     
ram:00020540    58              ??          58h    X                                
ram:00020541    21              ??          21h    !                                
ram:00020542    00              ??          00h                                     
ram:00020543    20              ??          20h                                     
ram:00020544    e0              ??          E0h                                     
ram:00020545    27              ??          27h    '                                
ram:00020546    00              ??          00h                                     
ram:00020547    00              ??          00h                                     
ram:00020548    e0              ??          E0h                                     ;?  ->  0001cee0
ram:00020549    ce              ??          CEh                                     
ram:0002054a    01              ??          01h                                     
ram:0002054b    00              ??          00h                                     
                            DAT_0002054c:                 ;XREF[2,0]:   0001c904,0002052c
ram:0002054c    00              ??          00h                                     
ram:0002054d    00              ??          00h                                     
ram:0002054e    ff              ??          FFh                                     ;?  ->  0001ffff
ram:0002054f    ff              ??          FFh                                     
ram:00020550    01              ??          01h                                     ;?  ->  00020001
ram:00020551    00              ??          00h                                     
ram:00020552    02              ??          02h                                     
ram:00020553    00              ??          00h                                     
ram:00020554    00              ??          00h                                     
ram:00020555    00              ??          00h                                     
ram:00020556    00              ??          00h                                     
ram:00020557    00              ??          00h                                     
ram:00020558    00              ??          00h                                     
ram:00020559    00              ??          00h                                     
ram:0002055a    00              ??          00h                                     
ram:0002055b    00              ??          00h                                     
ram:0002055c    00              ??          00h                                     
ram:0002055d    00              ??          00h                                     
ram:0002055e    00              ??          00h                                     
ram:0002055f    00              ??          00h                                     
ram:00020560    00              ??          00h                                     
ram:00020561    00              ??          00h                                     
ram:00020562    00              ??          00h                                     
ram:00020563    00              ??          00h                                     
ram:00020564    00              ??          00h                                     
ram:00020565    00              ??          00h                                     
ram:00020566    00              ??          00h                                     
ram:00020567    00              ??          00h                                     
ram:00020568    00              ??          00h                                     
ram:00020569    00              ??          00h                                     
ram:0002056a    00              ??          00h                                     
ram:0002056b    00              ??          00h                                     
ram:0002056c    00              ??          00h                                     
ram:0002056d    00              ??          00h                                     
ram:0002056e    00              ??          00h                                     
ram:0002056f    00              ??          00h                                     
ram:00020570    00              ??          00h                                     
ram:00020571    00              ??          00h                                     
ram:00020572    00              ??          00h                                     
ram:00020573    00              ??          00h                                     
ram:00020574    00              ??          00h                                     
ram:00020575    00              ??          00h                                     
ram:00020576    00              ??          00h                                     
ram:00020577    00              ??          00h                                     
ram:00020578    00              ??          00h                                     
ram:00020579    00              ??          00h                                     
ram:0002057a    00              ??          00h                                     
ram:0002057b    00              ??          00h                                     
ram:0002057c    ff              ??          FFh                                     
ram:0002057d    ff              ??          FFh                                     
ram:0002057e    00              ??          00h                                     
ram:0002057f    00              ??          00h                                     
ram:00020580    00              ??          00h                                     
ram:00020581    00              ??          00h                                     
ram:00020582    00              ??          00h                                     
ram:00020583    00              ??          00h                                     
ram:00020584    00              ??          00h                                     
ram:00020585    00              ??          00h                                     
ram:00020586    00              ??          00h                                     
ram:00020587    00              ??          00h                                     
ram:00020588    00              ??          00h                                     
ram:00020589    00              ??          00h                                     
ram:0002058a    00              ??          00h                                     
ram:0002058b    00              ??          00h                                     
ram:0002058c    00              ??          00h                                     
ram:0002058d    00              ??          00h                                     
ram:0002058e    00              ??          00h                                     
ram:0002058f    00              ??          00h                                     
ram:00020590    00              ??          00h                                     
ram:00020591    00              ??          00h                                     
ram:00020592    00              ??          00h                                     
ram:00020593    00              ??          00h                                     
ram:00020594    00              ??          00h                                     
ram:00020595    00              ??          00h                                     
ram:00020596    00              ??          00h                                     
ram:00020597    00              ??          00h                                     
ram:00020598    00              ??          00h                                     
ram:00020599    00              ??          00h                                     
ram:0002059a    00              ??          00h                                     
ram:0002059b    00              ??          00h                                     
ram:0002059c    00              ??          00h                                     
ram:0002059d    00              ??          00h                                     
ram:0002059e    00              ??          00h                                     
ram:0002059f    00              ??          00h                                     
ram:000205a0    00              ??          00h                                     
ram:000205a1    00              ??          00h                                     
ram:000205a2    00              ??          00h                                     
ram:000205a3    00              ??          00h                                     
ram:000205a4    00              ??          00h                                     
ram:000205a5    00              ??          00h                                     
ram:000205a6    00              ??          00h                                     
ram:000205a7    00              ??          00h                                     
ram:000205a8    00              ??          00h                                     
ram:000205a9    00              ??          00h                                     
ram:000205aa    00              ??          00h                                     
ram:000205ab    00              ??          00h                                     
ram:000205ac    00              ??          00h                                     
ram:000205ad    00              ??          00h                                     
ram:000205ae    00              ??          00h                                     
ram:000205af    00              ??          00h                                     
ram:000205b0    00              ??          00h                                     
ram:000205b1    00              ??          00h                                     
ram:000205b2    00              ??          00h                                     
ram:000205b3    00              ??          00h                                     
ram:000205b4    00              ??          00h                                     
ram:000205b5    00              ??          00h                                     
ram:000205b6    00              ??          00h                                     
ram:000205b7    00              ??          00h                                     
ram:000205b8    00              ??          00h                                     
ram:000205b9    00              ??          00h                                     
ram:000205ba    00              ??          00h                                     
ram:000205bb    00              ??          00h                                     
ram:000205bc    00              ??          00h                                     
ram:000205bd    00              ??          00h                                     
ram:000205be    00              ??          00h                                     
ram:000205bf    00              ??          00h                                     
ram:000205c0    00              ??          00h                                     
ram:000205c1    00              ??          00h                                     
ram:000205c2    00              ??          00h                                     
ram:000205c3    00              ??          00h                                     
ram:000205c4    00              ??          00h                                     
ram:000205c5    00              ??          00h                                     
ram:000205c6    00              ??          00h                                     
ram:000205c7    00              ??          00h                                     
ram:000205c8    00              ??          00h                                     
ram:000205c9    00              ??          00h                                     
ram:000205ca    00              ??          00h                                     
ram:000205cb    00              ??          00h                                     
ram:000205cc    00              ??          00h                                     
ram:000205cd    00              ??          00h                                     
ram:000205ce    00              ??          00h                                     
ram:000205cf    00              ??          00h                                     
ram:000205d0    00              ??          00h                                     
ram:000205d1    00              ??          00h                                     
ram:000205d2    00              ??          00h                                     
ram:000205d3    00              ??          00h                                     
ram:000205d4    00              ??          00h                                     
ram:000205d5    00              ??          00h                                     
ram:000205d6    00              ??          00h                                     
ram:000205d7    00              ??          00h                                     
ram:000205d8    00              ??          00h                                     
ram:000205d9    00              ??          00h                                     
ram:000205da    00              ??          00h                                     
ram:000205db    00              ??          00h                                     
ram:000205dc    00              ??          00h                                     
ram:000205dd    00              ??          00h                                     
ram:000205de    00              ??          00h                                     
ram:000205df    00              ??          00h                                     
ram:000205e0    00              ??          00h                                     
ram:000205e1    00              ??          00h                                     
ram:000205e2    00              ??          00h                                     
ram:000205e3    00              ??          00h                                     
ram:000205e4    00              ??          00h                                     
ram:000205e5    00              ??          00h                                     
ram:000205e6    00              ??          00h                                     
ram:000205e7    00              ??          00h                                     
ram:000205e8    00              ??          00h                                     
ram:000205e9    00              ??          00h                                     
ram:000205ea    00              ??          00h                                     
ram:000205eb    00              ??          00h                                     
ram:000205ec    00              ??          00h                                     
ram:000205ed    00              ??          00h                                     
ram:000205ee    00              ??          00h                                     
ram:000205ef    00              ??          00h                                     
ram:000205f0    00              ??          00h                                     
ram:000205f1    00              ??          00h                                     
ram:000205f2    00              ??          00h                                     
ram:000205f3    00              ??          00h                                     
ram:000205f4    00              ??          00h                                     
ram:000205f5    00              ??          00h                                     
ram:000205f6    00              ??          00h                                     
ram:000205f7    00              ??          00h                                     
ram:000205f8    00              ??          00h                                     
ram:000205f9    00              ??          00h                                     
ram:000205fa    00              ??          00h                                     
ram:000205fb    00              ??          00h                                     
ram:000205fc    00              ??          00h                                     
ram:000205fd    00              ??          00h                                     
ram:000205fe    00              ??          00h                                     
ram:000205ff    00              ??          00h                                     
ram:00020600    00              ??          00h                                     
ram:00020601    00              ??          00h                                     
ram:00020602    00              ??          00h                                     
ram:00020603    00              ??          00h                                     
ram:00020604    00              ??          00h                                     
ram:00020605    00              ??          00h                                     
ram:00020606    00              ??          00h                                     
ram:00020607    00              ??          00h                                     
ram:00020608    00              ??          00h                                     
ram:00020609    00              ??          00h                                     
ram:0002060a    00              ??          00h                                     
ram:0002060b    00              ??          00h                                     
ram:0002060c    00              ??          00h                                     
ram:0002060d    00              ??          00h                                     
ram:0002060e    00              ??          00h                                     
ram:0002060f    00              ??          00h                                     
ram:00020610    00              ??          00h                                     
ram:00020611    00              ??          00h                                     
ram:00020612    00              ??          00h                                     
ram:00020613    00              ??          00h                                     
ram:00020614    00              ??          00h                                     
ram:00020615    00              ??          00h                                     
ram:00020616    00              ??          00h                                     
ram:00020617    00              ??          00h                                     
ram:00020618    00              ??          00h                                     
ram:00020619    00              ??          00h                                     
ram:0002061a    00              ??          00h                                     
ram:0002061b    00              ??          00h                                     
ram:0002061c    00              ??          00h                                     
ram:0002061d    00              ??          00h                                     
ram:0002061e    00              ??          00h                                     
ram:0002061f    00              ??          00h                                     
ram:00020620    00              ??          00h                                     
ram:00020621    90              ??          90h                                     
ram:00020622    d0              ??          D0h                                     
ram:00020623    03              ??          03h                                     
