                            MasterStackPointer:           ;XREF[3,0]:   0003c22e,0003c2b4,0003ecea
ram:0003c000    d83b0020        addr        DAT_20003bd8                            
                            Reset:                        ;XREF[1,0]:   Entry Point
ram:0003c004    55ef0300        addr        FUNC_Reset_0003ef54+1                   
                            NMI:                          ;XREF[1,0]:   Entry Point
ram:0003c008    6fef0300        addr        FUNC_NMI_0003ef6e+1                     
                            HardFault:                    ;XREF[1,0]:   Entry Point
ram:0003c00c    71ef0300        addr        FUNC_HardFault_0003ef70+1               
                            MemManage:                    ;XREF[1,0]:   Entry Point
ram:0003c010    00000000        addr        00000000                                
                            BusFault:                     ;XREF[1,0]:   Entry Point
ram:0003c014    00000000        addr        00000000                                
                            UsageFault:                   ;XREF[1,0]:   Entry Point
ram:0003c018    00000000        addr        00000000                                
                            Reserved1:                    ;XREF[1,0]:   Entry Point
ram:0003c01c    00000000        addr        00000000                                
                            Reserved2:                    ;XREF[1,0]:   Entry Point
ram:0003c020    00000000        addr        00000000                                
                            Reserved3:                    ;XREF[1,0]:   Entry Point
ram:0003c024    00000000        addr        00000000                                
                            Reserved5:                    ;XREF[1,0]:   Entry Point
                            Reserved6:                    
                            Reserved4:                    
ram:0003c028    00000000        addr        00000000                                
                            SVCall:                       ;XREF[1,0]:   Entry Point
ram:0003c02c    d5c00300        addr        FUNC_SVCall_0003c0d4+1                  
ram:0003c030    00000000        addr        00000000                                
ram:0003c034    00000000        addr        00000000                                
                            PendSV:                       ;XREF[1,0]:   Entry Point
ram:0003c038    75ef0300        addr        FUNC_PendSV_0003ef74+1                  
                            SysTick:                      ;XREF[1,0]:   Entry Point
ram:0003c03c    77ef0300        addr        FUNC_SysTick_0003ef76+1                 
                            IRQ:                          ;XREF[1,0]:   Entry Point
ram:0003c040    79ef0300        addr        FUNC_IRQ_0003ef78+1                     
ram:0003c044    79ef0300        addr        FUNC_IRQ_0003ef78+1                     
ram:0003c048    79ef0300        addr        FUNC_IRQ_0003ef78+1                     
ram:0003c04c    79ef0300        addr        FUNC_IRQ_0003ef78+1                     
ram:0003c050    79ef0300        addr        FUNC_IRQ_0003ef78+1                     
ram:0003c054    00000000        addr        00000000                                
ram:0003c058    79ef0300        addr        FUNC_IRQ_0003ef78+1                     
ram:0003c05c    79ef0300        addr        FUNC_IRQ_0003ef78+1                     
ram:0003c060    79ef0300        addr        FUNC_IRQ_0003ef78+1                     
ram:0003c064    79ef0300        addr        FUNC_IRQ_0003ef78+1                     
ram:0003c068    79ef0300        addr        FUNC_IRQ_0003ef78+1                     
ram:0003c06c    79ef0300        addr        FUNC_IRQ_0003ef78+1                     
ram:0003c070    79ef0300        addr        FUNC_IRQ_0003ef78+1                     
ram:0003c074    79ef0300        addr        FUNC_IRQ_0003ef78+1                     
ram:0003c078    79ef0300        addr        FUNC_IRQ_0003ef78+1                     
ram:0003c07c    79ef0300        addr        FUNC_IRQ_0003ef78+1                     
ram:0003c080    79ef0300        addr        FUNC_IRQ_0003ef78+1                     
ram:0003c084    2dd60300        addr        FUNC_VT_0003d62c+1                      
ram:0003c088    79ef0300        addr        FUNC_IRQ_0003ef78+1                     
ram:0003c08c    79ef0300        addr        FUNC_IRQ_0003ef78+1                     
ram:0003c090    49d60300        addr        FUNC_VT_0003d648+1                      
ram:0003c094    79ef0300        addr        FUNC_IRQ_0003ef78+1                     
ram:0003c098    47ee0300        addr        FUNC_VT_0003ee46+1                      
ram:0003c09c    79ef0300        addr        FUNC_IRQ_0003ef78+1                     
ram:0003c0a0    79ef0300        addr        FUNC_IRQ_0003ef78+1                     
ram:0003c0a4    79ef0300        addr        FUNC_IRQ_0003ef78+1                     
ram:0003c0a8    00000000        addr        00000000                                
ram:0003c0ac    00000000        addr        00000000                                
ram:0003c0b0    00000000        addr        00000000                                
ram:0003c0b4    00000000        addr        00000000                                
ram:0003c0b8    00000000        addr        00000000                                
ram:0003c0bc    00              ??          00h                                     
ram:0003c0bd    00              ??          00h                                     
ram:0003c0be    00              ??          00h                                     
ram:0003c0bf    00              ??          00h                                     
                            ;************************************************************************************************
                            ;*                                           FUNCTION                                           *
                            ;************************************************************************************************
                            ;undefined LAB_0003c0c0+1(void)
                                                          ;XREF[1,1]:   0003ef6c,0003ef88
ram:0003c0c0    0348            ldr         r0,[DAT_0003c0d0]                       ;= 20003BD8h
ram:0003c0c2    8546            mov         sp,r0                                   
ram:0003c0c4    03f024f8        bl          FUN_0003f110                            ;undefined FUN_0003f110(void)
                            ;************************************************************************************************
                            ;*                                           FUNCTION                                           *
                            ;************************************************************************************************
                            ;undefined thunk_FUN_0003c286(void)
                                                          ;XREF[1,0]:   0003f128
ram:0003c0c8    0048            ldr         r0,[DAT_0003c0cc]                       ;= 0003C287h
ram:0003c0ca    0047            bx          r0=>FUN_0003c286                        ;undefined FUN_0003c286(void)
                            DAT_0003c0cc:                 ;XREF[1,0]:   0003c0c8
ram:0003c0cc    87c20300        undefined4  0003C287h                               ;?  ->  0003c287
                            DAT_0003c0d0:                 ;XREF[1,0]:   0003c0c0
ram:0003c0d0    d83b0020        undefined4  20003BD8h                               
                            ;************************************************************************************************
                            ;*                                           FUNCTION                                           *
                            ;************************************************************************************************
                            ;undefined FUNC_SVCall_0003c0d4(void)
                                                          ;XREF[0,1]:   0003c02c
ram:0003c0d4    0648            ldr         r0,[DAT_0003c0f0]                       ;= FFFFFFFDh
ram:0003c0d6    7045            cmp         r0,lr                                   
ram:0003c0d8    02d1            bne         LAB_0003c0e0                            
ram:0003c0da    eff30981        mrs         r1,psp                                  
ram:0003c0de    01e0            b           LAB_0003c0e4                            
                            LAB_0003c0e0:                 ;XREF[1,0]:   0003c0d8
ram:0003c0e0    eff30881        mrs         r1,msp                                  
                            LAB_0003c0e4:                 ;XREF[1,0]:   0003c0de
ram:0003c0e4    8869            ldr         r0,[r1,#0x18]                           
ram:0003c0e6    0238            subs        r0,#0x2                                 
ram:0003c0e8    0078            ldrb        r0,[r0,#0x0]                            
ram:0003c0ea    024a            ldr         r2,[DAT_0003c0f4]                       ;= 0003C16Dh
ram:0003c0ec    1047            bx          r2=>LAB_0003c16c                        
ram:0003c0ee    0000            movs        r0,r0                                   
                            DAT_0003c0f0:                 ;XREF[1,0]:   0003c0d4
ram:0003c0f0    fdffffff        undefined4  FFFFFFFDh                               
                            DAT_0003c0f4:                 ;XREF[1,0]:   0003c0ea
ram:0003c0f4    6dc10300        undefined4  0003C16Dh                               ;?  ->  0003c16d
                            ;************************************************************************************************
                            ;*                                           FUNCTION                                           *
                            ;************************************************************************************************
                            ;undefined FUN_0003c0f8(int param_1)
          ;param_1       int                 r0                      
                                                          ;XREF[2,0]:   0003c112,0003d0b8
ram:0003c0f8    401e            subs        param_1,param_1,#0x1                    
ram:0003c0fa    00bf            nop                                                  
ram:0003c0fc    00bf            nop                                                  
ram:0003c0fe    00bf            nop                                                  
ram:0003c100    00bf            nop                                                  
ram:0003c102    00bf            nop                                                  
ram:0003c104    00bf            nop                                                  
ram:0003c106    00bf            nop                                                  
ram:0003c108    00bf            nop                                                  
ram:0003c10a    00bf            nop                                                  
ram:0003c10c    00bf            nop                                                  
ram:0003c10e    00bf            nop                                                  
ram:0003c110    00bf            nop                                                  
ram:0003c112    f1d1            bne         FUN_0003c0f8                            
ram:0003c114    7047            bx          lr                                      
ram:0003c116    0000            movs        r0,r0                                   
                            ;************************************************************************************************
                            ;*                                           FUNCTION                                           *
                            ;************************************************************************************************
                            ;undefined FUN_0003c118(int param_1)
          ;param_1       int                 r0                      
                                                          ;XREF[5,0]:   0003c132,0003d498,0003d4a6,0003da0a
                                                          ;             0003da42
ram:0003c118    401e            subs        param_1,param_1,#0x1                    
ram:0003c11a    00bf            nop                                                  
ram:0003c11c    00bf            nop                                                  
ram:0003c11e    00bf            nop                                                  
ram:0003c120    00bf            nop                                                  
ram:0003c122    00bf            nop                                                  
ram:0003c124    00bf            nop                                                  
ram:0003c126    00bf            nop                                                  
ram:0003c128    00bf            nop                                                  
ram:0003c12a    00bf            nop                                                  
ram:0003c12c    00bf            nop                                                  
ram:0003c12e    00bf            nop                                                  
ram:0003c130    00bf            nop                                                  
ram:0003c132    f1d1            bne         FUN_0003c118                            
ram:0003c134    7047            bx          lr                                      
ram:0003c136    0000            movs        r0,r0                                   
                            ;************************************************************************************************
                            ;*                                           FUNCTION                                           *
                            ;************************************************************************************************
                            ;undefined FUN_0003c138(undefined4 * param_1)
          ;param_1       undefined4 *        r0                      
                                                          ;XREF[1,0]:   0003ddda
ram:0003c138    0568            ldr         r5,[param_1,#0x0]                       
ram:0003c13a    85f30888        msr         msp,r5                                  
ram:0003c13e    4068            ldr         param_1,[param_1,#0x4]                  
ram:0003c140    ff24            movs        r4,#0xff                                
ram:0003c142    64b2            sxtb        r4,r4                                   
ram:0003c144    eff30585        mrs         r5,ipsr                                 
ram:0003c148    002d            cmp         r5,#0x0                                 
ram:0003c14a    01d1            bne         LAB_0003c150                            
ram:0003c14c    a646            mov         lr,r4                                   
ram:0003c14e    0047            bx          param_1                                 
                            LAB_0003c150:                 ;XREF[1,0]:   0003c14a
ram:0003c150    2546            mov         r5,r4                                   
ram:0003c152    0646            mov         r6,param_1                              
ram:0003c154    2127            movs        r7,#0x21                                
ram:0003c156    3fba            rev         r7,r7                                   
ram:0003c158    f0b4            push        {r4,r5,r6,r7}                           
ram:0003c15a    0024            movs        r4,#0x0                                 
ram:0003c15c    0025            movs        r5,#0x0                                 
ram:0003c15e    0026            movs        r6,#0x0                                 
ram:0003c160    0027            movs        r7,#0x0                                 
ram:0003c162    f0b4            push        {r4,r5,r6,r7}                           
ram:0003c164    f920            movs        param_1,#0xf9                           
ram:0003c166    40b2            sxtb        param_1,param_1                         
ram:0003c168    0047            bx          param_1=>LAB_fffffff8                   
ram:0003c16a    0000            movs        r0,r0                                   
                            LAB_0003c16c:                 ;XREF[1,0]:   0003c0ec
ram:0003c16c    10b5            push        {r4,lr}                                 
ram:0003c16e    0c46            mov         r4,r1                                   
ram:0003c170    0028            cmp         r0,#0x0                                 
ram:0003c172    02d0            beq         LAB_0003c17a                            
ram:0003c174    0120            movs        r0,#0x1                                 
ram:0003c176    0860            str         r0,[r1,#0x0]                            
ram:0003c178    10bd            pop         {r4,pc}                                 
                            LAB_0003c17a:                 ;XREF[1,0]:   0003c172
ram:0003c17a    2168            ldr         r1,[r4,#0x0]                            
ram:0003c17c    0029            cmp         r1,#0x0                                 
ram:0003c17e    11d0            beq         LAB_0003c1a4                            
ram:0003c180    1e48            ldr         r0,[DAT_0003c1fc]                       ;= 20007F82h
ram:0003c182    421a            subs        r2,r0,r1                                
ram:0003c184    8142            cmp         r1,r0                                   
ram:0003c186    12d0            beq         LAB_0003c1ae                            
ram:0003c188    3c2a            cmp         r2,#0x3c                                
ram:0003c18a    0dd2            bcs         LAB_0003c1a8                            
ram:0003c18c    0122            movs        r2,#0x1                                 
ram:0003c18e    3c30            adds        r0,#0x3c                                
ram:0003c190    3c31            adds        r1,#0x3c                                
                            LAB_0003c192:                 ;XREF[1,0]:   0003c1a0
ram:0003c192    0b78            ldrb        r3,[r1,#0x0]                            
                                                          ; FWD[2,0]:   20007fbd,20007fbe
ram:0003c194    0370            strb        r3,[r0,#0x0]=>DAT_20007fbe              
ram:0003c196    1346            mov         r3,r2                                   
ram:0003c198    521c            adds        r2,r2,#0x1                              
ram:0003c19a    401e            subs        r0,r0,#0x1                              
ram:0003c19c    491e            subs        r1,r1,#0x1                              
ram:0003c19e    3c2b            cmp         r3,#0x3c                                
ram:0003c1a0    f7d9            bls         LAB_0003c192                            
ram:0003c1a2    04e0            b           LAB_0003c1ae                            
                            LAB_0003c1a4:                 ;XREF[1,0]:   0003c17e
ram:0003c1a4    0e20            movs        r0,#0xe                                 
ram:0003c1a6    0be0            b           LAB_0003c1c0                            
                            LAB_0003c1a8:                 ;XREF[1,0]:   0003c18a
ram:0003c1a8    3c22            movs        r2,#0x3c                                
ram:0003c1aa    02f075ff        bl          FUN_0003f098                            ;undefined FUN_0003f098(undefined4 * ...
                            LAB_0003c1ae:                 ;XREF[2,0]:   0003c186,0003c1a2
ram:0003c1ae    0022            movs        r2,#0x0                                 
ram:0003c1b0    3c21            movs        r1,#0x3c                                
ram:0003c1b2    1248            ldr         r0,[DAT_0003c1fc]                       ;= 20007F82h
ram:0003c1b4    01f014fe        bl          FUN_0003dde0                            ;uint FUN_0003dde0(int param_1, uint ...
ram:0003c1b8    1049            ldr         r1,[DAT_0003c1fc]                       ;= 20007F82h
ram:0003c1ba    891e            subs        r1,r1,#0x2                              
ram:0003c1bc    0880            strh        r0,[r1,#0x0]=>DAT_20007f80              
ram:0003c1be    0020            movs        r0,#0x0                                 
                            LAB_0003c1c0:                 ;XREF[1,0]:   0003c1a6
ram:0003c1c0    2060            str         r0,[r4,#0x0]                            
ram:0003c1c2    10bd            pop         {r4,pc}                                 
                            ;************************************************************************************************
                            ;*                                           FUNCTION                                           *
                            ;************************************************************************************************
                            ;undefined4 FUN_0003c1c4(undefined4 * param_1)
          ;param_1       undefined4 *        r0                      
                                                          ;XREF[1,0]:   0003e3fc
ram:0003c1c4    70b5            push        {r4,r5,r6,lr}                           
ram:0003c1c6    0500            movs        r5,param_1                              
ram:0003c1c8    0bd0            beq         LAB_0003c1e2                            
ram:0003c1ca    0022            movs        r2,#0x0                                 
ram:0003c1cc    3c21            movs        r1,#0x3c                                
ram:0003c1ce    0b48            ldr         param_1,[DAT_0003c1fc]                  ;= 20007F82h
ram:0003c1d0    01f006fe        bl          FUN_0003dde0                            ;uint FUN_0003dde0(int param_1, uint ...
ram:0003c1d4    094c            ldr         r4,[DAT_0003c1fc]                       ;= 20007F82h
ram:0003c1d6    a41e            subs        r4,r4,#0x2                              
ram:0003c1d8    2188            ldrh        r1,[r4,#0x0]=>DAT_20007f80              
ram:0003c1da    8842            cmp         param_1,r1                              
ram:0003c1dc    03d0            beq         LAB_0003c1e6                            
ram:0003c1de    0b20            movs        param_1,#0xb                            
ram:0003c1e0    70bd            pop         {r4,r5,r6,pc}                           
                            LAB_0003c1e2:                 ;XREF[1,0]:   0003c1c8
ram:0003c1e2    0e20            movs        param_1,#0xe                            
ram:0003c1e4    70bd            pop         {r4,r5,r6,pc}                           
                            LAB_0003c1e6:                 ;XREF[1,0]:   0003c1dc
ram:0003c1e6    3c22            movs        r2,#0x3c                                
ram:0003c1e8    0449            ldr         r1,[DAT_0003c1fc]                       ;= 20007F82h
ram:0003c1ea    2846            mov         param_1,r5                              
ram:0003c1ec    02f054ff        bl          FUN_0003f098                            ;undefined FUN_0003f098(undefined4 * ...
ram:0003c1f0    2088            ldrh        param_1,[r4,#0x0]=>DAT_20007f80         
ram:0003c1f2    401c            adds        param_1,param_1,#0x1                    
ram:0003c1f4    2080            strh        param_1,[r4,#0x0]=>DAT_20007f80         
ram:0003c1f6    0020            movs        param_1,#0x0                            
ram:0003c1f8    70bd            pop         {r4,r5,r6,pc}                           
ram:0003c1fa    0000            movs        r0,r0                                   
                            DAT_0003c1fc:                 ;XREF[6,0]:   0003c180,0003c1b2,0003c1b8,0003c1ce
                                                          ;             0003c1d4,0003c1e8
ram:0003c1fc    827f0020        undefined4  20007F82h                               
                            ;************************************************************************************************
                            ;*                                           FUNCTION                                           *
                            ;************************************************************************************************
                            ;undefined LAB_0003c200+1(int param_1)
          ;param_1       int                 r0                      
                                                          ;XREF[0,2]:   0003c274,0003c3bc
ram:0003c200    10b5            push        {r4,lr}                                 
ram:0003c202    00f0c5ff        bl          FUN_0003d190                            ;undefined FUN_0003d190(int param_1)
ram:0003c206    10bd            pop         {r4,pc}                                 
                            ;************************************************************************************************
                            ;*                                           FUNCTION                                           *
                            ;************************************************************************************************
                            ;undefined FUN_0003c208(int param_1)
          ;param_1       int                 r0                      
          ;local_14      undefined4         -14                      ;XREF[1,0]:   0003c21a
          ;local_20      undefined4         -20                      ;XREF[1,0]:   0003c216
          ;local_24      undefined4         -24                      ;XREF[1,0]:   0003c212
          ;local_2c      undefined1         -2c                      ;XREF[1,0]:   0003c264
                                                          ;XREF[2,0]:   0003c31a,0003c332
ram:0003c208    30b5            push        {r4,r5,lr}                              
ram:0003c20a    6949            ldr         r1,[PTR_DAT_0003c3b0]                   ;= 0003f16c
ram:0003c20c    8bb0            sub         sp,#0x2c                                
ram:0003c20e    0a1d            adds        r2,r1,#0x4                              
                                                          ; FWD[4,0]:   0003f170,0003f174,0003f178,0003f17c
ram:0003c210    3cca            ldmia       r2,{r2,r3,r4,r5}=>DAT_0003f170          ;= 00000002h
ram:0003c212    0592            str         r2,[sp,#local_24+0x38]                  
ram:0003c214    06aa            add         r2,sp,#0x18                             
ram:0003c216    38c2            stmia       r2!=>local_20,{r3,r4,r5}                
ram:0003c218    0968            ldr         r1,[r1,#0x0]=>DAT_0003f16c              ;= 07000001h
ram:0003c21a    0991            str         r1,[sp,#local_14+0x38]                  
ram:0003c21c    0028            cmp         param_1,#0x0                            
ram:0003c21e    05d0            beq         LAB_0003c22c                            
ram:0003c220    05a8            add         param_1,sp,#0x14                        
ram:0003c222    18df            svc         0x18                                    
ram:0003c224    0028            cmp         param_1,#0x0                            
ram:0003c226    01d0            beq         LAB_0003c22c                            
ram:0003c228    01f060f8        bl          FUN_0003d2ec                            ;undefined FUN_0003d2ec(void)
                            LAB_0003c22c:                 ;XREF[2,0]:   0003c21e,0003c226
ram:0003c22c    0f20            movs        param_1,#0xf                            
ram:0003c22e    8003            lsls        param_1=>MasterStackPointer,param_1,#0xe;= 20003bd8
ram:0003c230    13df            svc         0x13                                    
ram:0003c232    0028            cmp         param_1,#0x0                            
ram:0003c234    01d0            beq         LAB_0003c23a                            
ram:0003c236    01f059f8        bl          FUN_0003d2ec                            ;undefined FUN_0003d2ec(void)
                            LAB_0003c23a:                 ;XREF[1,0]:   0003c234
ram:0003c23a    5e4b            ldr         r3,[PTR_LAB_0003ef42+1+1_0003c3b4]      ;= 0003ef43
ram:0003c23c    4822            movs        r2,#0x48                                
ram:0003c23e    5e49            ldr         r1,[DAT_0003c3b8]                       ;= 20002EA0h
ram:0003c240    09a8            add         param_1,sp,#0x24                        
ram:0003c242    02f0dbfd        bl          FUN_0003edfc                            ;int FUN_0003edfc(int param_1, uint p...
ram:0003c246    0028            cmp         param_1,#0x0                            
ram:0003c248    01d0            beq         LAB_0003c24e                            
ram:0003c24a    01f04ff8        bl          FUN_0003d2ec                            ;undefined FUN_0003d2ec(void)
                            LAB_0003c24e:                 ;XREF[1,0]:   0003c248
ram:0003c24e    0121            movs        r1,#0x1                                 
ram:0003c250    6a46            mov         r2,sp                                   
ram:0003c252    0846            mov         param_1,r1                              
ram:0003c254    02f005fe        bl          FUN_0003ee62                            ;undefined4 FUN_0003ee62(int param_1,...
ram:0003c258    0028            cmp         param_1,#0x0                            
ram:0003c25a    01d0            beq         LAB_0003c260                            
ram:0003c25c    01f046f8        bl          FUN_0003d2ec                            ;undefined FUN_0003d2ec(void)
                            LAB_0003c260:                 ;XREF[1,0]:   0003c25a
ram:0003c260    0120            movs        param_1,#0x1                            
ram:0003c262    6946            mov         r1,sp                                   
ram:0003c264    0873            strb        param_1,[r1,#local_2c+0x38]             
ram:0003c266    6846            mov         param_1,sp                              
ram:0003c268    02f00ffe        bl          FUN_0003ee8a                            ;undefined FUN_0003ee8a(void)
ram:0003c26c    0028            cmp         param_1,#0x0                            
ram:0003c26e    01d0            beq         LAB_0003c274                            
ram:0003c270    01f03cf8        bl          FUN_0003d2ec                            ;undefined FUN_0003d2ec(void)
                            LAB_0003c274:                 ;XREF[1,0]:   0003c26e
ram:0003c274    5148            ldr         param_1=>LAB_000...,[PTR_LAB_0003c200...;= 0003c201
ram:0003c276    02f0defd        bl          FUN_0003ee36                            ;undefined4 FUN_0003ee36(int param_1)
ram:0003c27a    0028            cmp         param_1,#0x0                            
ram:0003c27c    01d0            beq         LAB_0003c282                            
ram:0003c27e    01f035f8        bl          FUN_0003d2ec                            ;undefined FUN_0003d2ec(void)
                            LAB_0003c282:                 ;XREF[1,0]:   0003c27c
ram:0003c282    0bb0            add         sp,#0x2c                                
ram:0003c284    30bd            pop         {r4,r5,pc}                              
                            ;************************************************************************************************
                            ;*                                           FUNCTION                                           *
                            ;************************************************************************************************
                            ;undefined FUN_0003c286(void)
                                                          ;XREF[1,0]:   0003c0ca
ram:0003c286    4e48            ldr         r0,[DAT_0003c3c0]                       ;= 40000500h
ram:0003c288    c269            ldr         r2,[r0,#offset DAT_4000051c &0xff]      
ram:0003c28a    0021            movs        r1,#0x0                                 
ram:0003c28c    b12a            cmp         r2,#0xb1                                
ram:0003c28e    31d0            beq         LAB_0003c2f4                            
ram:0003c290    0024            movs        r4,#0x0                                 
                            LAB_0003c292:                 ;XREF[1,0]:   0003c2f8
ram:0003c292    1320            movs        r0,#0x13                                
ram:0003c294    1722            movs        r2,#0x17                                
ram:0003c296    4b4b            ldr         r3,[DAT_0003c3c4]                       ;= 50000700h
ram:0003c298    0321            movs        r1,#0x3                                 
                            LAB_0003c29a:                 ;XREF[1,0]:   0003c2a4
ram:0003c29a    8500            lsls        r5,r0,#0x2                              
ram:0003c29c    ed18            adds        r5,r5,r3                                
                                                          ; FWD[2,0]:   5000074c,50000750
ram:0003c29e    2960            str         r1,[r5,#0x0]=>DAT_5000074c              
ram:0003c2a0    401c            adds        r0,r0,#0x1                              
ram:0003c2a2    9042            cmp         r0,r2                                   
ram:0003c2a4    f9d9            bls         LAB_0003c29a                            
ram:0003c2a6    3f20            movs        r0,#0x3f                                
ram:0003c2a8    474e            ldr         r6,[DAT_0003c3c8]                       ;= 50000500h
ram:0003c2aa    c004            lsls        r0,r0,#0x13                             
ram:0003c2ac    b060            str         r0,[r6,#offset DAT_50000508 &0xff]      
ram:0003c2ae    4748            ldr         r0,[DAT_0003c3cc]                       ;= 10001000h
ram:0003c2b0    0f21            movs        r1,#0xf                                 
ram:0003c2b2    4069            ldr         r0,[r0,#offset DAT_10001014 &0xff]      
ram:0003c2b4    8903            lsls        r1=>MasterStackPointer,r1,#0xe          ;= 20003bd8
ram:0003c2b6    8842            cmp         r0,r1                                   
ram:0003c2b8    02d0            beq         LAB_0003c2c0                            
ram:0003c2ba    0020            movs        r0,#0x0                                 
ram:0003c2bc    01f016f8        bl          FUN_0003d2ec                            ;undefined FUN_0003d2ec(void)
                            LAB_0003c2c0:                 ;XREF[1,0]:   0003c2b8
ram:0003c2c0    0120            movs        r0,#0x1                                 
ram:0003c2c2    0007            lsls        r0,r0,#0x1c                             
ram:0003c2c4    0069            ldr         r0,[r0,#offset DAT_10000010 &0xff]      
ram:0003c2c6    0121            movs        r1,#0x1                                 
ram:0003c2c8    8902            lsls        r1,r1,#0xa                              
ram:0003c2ca    8842            cmp         r0,r1                                   
ram:0003c2cc    02d0            beq         LAB_0003c2d4                            
ram:0003c2ce    0020            movs        r0,#0x0                                 
ram:0003c2d0    01f00cf8        bl          FUN_0003d2ec                            ;undefined FUN_0003d2ec(void)
                            LAB_0003c2d4:                 ;XREF[1,0]:   0003c2cc
ram:0003c2d4    3e4b            ldr         r3,[DAT_0003c3d0]                       ;= 0003DA87h
ram:0003c2d6    3f4a            ldr         r2,[DAT_0003c3d4]                       ;= 20002CD8h
ram:0003c2d8    0521            movs        r1,#0x5                                 
ram:0003c2da    0020            movs        r0,#0x0                                 
ram:0003c2dc    01f0b8f9        bl          FUN_0003d650                            ;undefined4 FUN_0003d650(undefined4 p...
ram:0003c2e0    0028            cmp         r0,#0x0                                 
ram:0003c2e2    01d0            beq         LAB_0003c2e8                            
ram:0003c2e4    01f002f8        bl          FUN_0003d2ec                            ;undefined FUN_0003d2ec(void)
                            LAB_0003c2e8:                 ;XREF[1,0]:   0003c2e2
ram:0003c2e8    3b4d            ldr         r5,[DAT_0003c3d8]                       ;= 20002C00h
ram:0003c2ea    0127            movs        r7,#0x1                                 
ram:0003c2ec    6878            ldrb        r0,[r5,#offset DAT_20002c01 &0xff]      
ram:0003c2ee    0028            cmp         r0,#0x0                                 
ram:0003c2f0    03d0            beq         LAB_0003c2fa                            
ram:0003c2f2    04e0            b           LAB_0003c2fe                            
                            LAB_0003c2f4:                 ;XREF[1,0]:   0003c28e
ram:0003c2f4    0124            movs        r4,#0x1                                 
ram:0003c2f6    c161            str         r1,[r0,#offset DAT_4000051c &0xff]      
ram:0003c2f8    cbe7            b           LAB_0003c292                            
                            LAB_0003c2fa:                 ;XREF[1,0]:   0003c2f0
ram:0003c2fa    2c70            strb        r4,[r5,#0x0]=>DAT_20002c00              
ram:0003c2fc    6f70            strb        r7,[r5,#offset DAT_20002c01 &0xff]      
                            LAB_0003c2fe:                 ;XREF[1,0]:   0003c2f2
ram:0003c2fe    01f0c1fc        bl          FUN_0003dc84                            ;undefined FUN_0003dc84(void)
ram:0003c302    01f001fd        bl          FUN_0003dd08                            ;undefined4 FUN_0003dd08(void)
ram:0003c306    0028            cmp         r0,#0x0                                 
ram:0003c308    12d0            beq         LAB_0003c330                            
ram:0003c30a    01f00cfd        bl          FUN_0003dd26                            ;undefined * FUN_0003dd26(undefined4 ...
ram:0003c30e    0028            cmp         r0,#0x0                                 
ram:0003c310    01d0            beq         LAB_0003c316                            
ram:0003c312    00f0ebff        bl          FUN_0003d2ec                            ;undefined FUN_0003d2ec(void)
                            LAB_0003c316:                 ;XREF[1,0]:   0003c310
ram:0003c316    2046            mov         r0,r4                                   
ram:0003c318    7840            eors        r0,r7                                   
ram:0003c31a    fff775ff        bl          FUN_0003c208                            ;undefined FUN_0003c208(int param_1)
ram:0003c31e    00f03af8        bl          FUN_0003c396                            ;undefined FUN_0003c396(void)
ram:0003c322    01f020fd        bl          FUN_0003dd66                            ;undefined4 FUN_0003dd66(void)
ram:0003c326    0028            cmp         r0,#0x0                                 
ram:0003c328    07d0            beq         LAB_0003c33a                            
ram:0003c32a    00f0dfff        bl          FUN_0003d2ec                            ;undefined FUN_0003d2ec(void)
ram:0003c32e    04e0            b           LAB_0003c33a                            
                            LAB_0003c330:                 ;XREF[1,0]:   0003c308
ram:0003c330    0120            movs        r0,#0x1                                 
ram:0003c332    fff769ff        bl          FUN_0003c208                            ;undefined FUN_0003c208(int param_1)
ram:0003c336    00f02ef8        bl          FUN_0003c396                            ;undefined FUN_0003c396(void)
                            LAB_0003c33a:                 ;XREF[2,0]:   0003c328,0003c32e
ram:0003c33a    2878            ldrb        r0,[r5,#0x0]=>DAT_20002c00              
ram:0003c33c    274d            ldr         r5,[DAT_0003c3dc]                       ;= 00003000h
ram:0003c33e    0443            orrs        r4,r0                                   
ram:0003c340    04d1            bne         LAB_0003c34c                            
ram:0003c342    a868            ldr         r0,[r5,#offset DAT_00003008 &0xff]      
ram:0003c344    01f0fbfb        bl          FUN_0003db3e                            ;int FUN_0003db3e(int * param_1, unde...
ram:0003c348    0028            cmp         r0,#0x0                                 
ram:0003c34a    0fd1            bne         LAB_0003c36c                            
                            LAB_0003c34c:                 ;XREF[1,0]:   0003c340
ram:0003c34c    0124            movs        r4,#0x1                                 
ram:0003c34e    2405            lsls        r4,r4,#0x14                             
ram:0003c350    f460            str         r4,[r6,#offset DAT_5000050c &0xff]      
ram:0003c352    01f0a9fc        bl          FUN_0003dca8                            ;uint FUN_0003dca8(undefined4 param_1...
ram:0003c356    0028            cmp         r0,#0x0                                 
ram:0003c358    01d0            beq         LAB_0003c35e                            
ram:0003c35a    00f0c7ff        bl          FUN_0003d2ec                            ;undefined FUN_0003d2ec(void)
                            LAB_0003c35e:                 ;XREF[1,0]:   0003c358
ram:0003c35e    b220            movs        r0,#0xb2                                
ram:0003c360    44df            svc         0x44                                    
ram:0003c362    0028            cmp         r0,#0x0                                 
ram:0003c364    01d0            beq         LAB_0003c36a                            
ram:0003c366    00f0c1ff        bl          FUN_0003d2ec                            ;undefined FUN_0003d2ec(void)
                            LAB_0003c36a:                 ;XREF[1,0]:   0003c364
ram:0003c36a    b460            str         r4,[r6,#offset DAT_50000508 &0xff]      
                            LAB_0003c36c:                 ;XREF[1,0]:   0003c34a
ram:0003c36c    a868            ldr         r0,[r5,#offset DAT_00003008 &0xff]      
ram:0003c36e    01f0e6fb        bl          FUN_0003db3e                            ;int FUN_0003db3e(int * param_1, unde...
ram:0003c372    0028            cmp         r0,#0x0                                 
ram:0003c374    06d0            beq         LAB_0003c384                            
ram:0003c376    01f0c7fc        bl          FUN_0003dd08                            ;undefined4 FUN_0003dd08(void)
ram:0003c37a    0028            cmp         r0,#0x0                                 
ram:0003c37c    02d1            bne         LAB_0003c384                            
ram:0003c37e    a868            ldr         r0,[r5,#offset DAT_00003008 &0xff]      
ram:0003c380    01f09efc        bl          FUN_0003dcc0                            ;undefined FUN_0003dcc0(int param_1)
                            LAB_0003c384:                 ;XREF[2,0]:   0003c374,0003c37c
ram:0003c384    bff34f8f        dsb         0xf                                     
ram:0003c388    1649            ldr         r1,[DAT_0003c3e4]                       ;= E000ED00h
ram:0003c38a    1548            ldr         r0,[DAT_0003c3e0]                       ;= 05FA0004h
ram:0003c38c    c860            str         r0,[r1,#offset DAT_e000ed0c &0xff]      
ram:0003c38e    bff34f8f        dsb         0xf                                     
                            LAB_0003c392:                 ;XREF[1,0]:   0003c394
ram:0003c392    00bf            nop                                                  
ram:0003c394    fde7            b           LAB_0003c392                            
                            ;************************************************************************************************
                            ;*                                           FUNCTION                                           *
                            ;************************************************************************************************
                            ;undefined FUN_0003c396(void)
                                                          ;XREF[2,0]:   0003c31e,0003c336
ram:0003c396    084a            ldr         r2,[DAT_0003c3b8]                       ;= 20002EA0h
ram:0003c398    10b5            push        {r4,lr}                                 
ram:0003c39a    4832            adds        r2,#0x48                                
ram:0003c39c    1421            movs        r1,#0x14                                
ram:0003c39e    0820            movs        r0,#0x8                                 
ram:0003c3a0    00f0beff        bl          FUN_0003d320                            ;undefined4 FUN_0003d320(undefined2 p...
ram:0003c3a4    0028            cmp         r0,#0x0                                 
ram:0003c3a6    01d0            beq         LAB_0003c3ac                            
ram:0003c3a8    00f0a0ff        bl          FUN_0003d2ec                            ;undefined FUN_0003d2ec(void)
                            LAB_0003c3ac:                 ;XREF[1,0]:   0003c3a6
ram:0003c3ac    10bd            pop         {r4,pc}                                 
ram:0003c3ae    0000            movs        r0,r0                                   
                            PTR_DAT_0003c3b0:             ;XREF[1,0]:   0003c20a
ram:0003c3b0    6cf10300        addr        DAT_0003f16c                            ;= 07000001h
                            PTR_LAB_0003ef42+1+1_0003c3b4:;XREF[1,0]:   0003c23a
ram:0003c3b4    43ef0300        addr        LAB_0003ef42+1+1                        
                            DAT_0003c3b8:                 ;XREF[2,0]:   0003c23e,0003c396
ram:0003c3b8    a02e0020        undefined4  20002EA0h                               
                            PTR_LAB_0003c200+1+1_0003c3bc:;XREF[1,0]:   0003c274
ram:0003c3bc    01c20300        addr        LAB_0003c200+1+1                        
                            DAT_0003c3c0:                 ;XREF[1,0]:   0003c286
ram:0003c3c0    00050040        undefined4  40000500h                               
                            DAT_0003c3c4:                 ;XREF[1,0]:   0003c296
ram:0003c3c4    00070050        undefined4  50000700h                               
                            DAT_0003c3c8:                 ;XREF[1,0]:   0003c2a8
ram:0003c3c8    00050050        undefined4  50000500h                               
                            DAT_0003c3cc:                 ;XREF[1,0]:   0003c2ae
ram:0003c3cc    00100010        undefined4  10001000h                               
                            DAT_0003c3d0:                 ;XREF[1,0]:   0003c2d4
ram:0003c3d0    87da0300        undefined4  0003DA87h                               ;?  ->  0003da87
                            DAT_0003c3d4:                 ;XREF[1,0]:   0003c2d6
ram:0003c3d4    d82c0020        undefined4  20002CD8h                               
                            DAT_0003c3d8:                 ;XREF[1,0]:   0003c2e8
ram:0003c3d8    002c0020        undefined4  20002C00h                               
                            DAT_0003c3dc:                 ;XREF[1,0]:   0003c33c
ram:0003c3dc    00300000        undefined4  00003000h                               
                            DAT_0003c3e0:                 ;XREF[1,0]:   0003c38a
ram:0003c3e0    0400fa05        undefined4  05FA0004h                               
                            DAT_0003c3e4:                 ;XREF[1,0]:   0003c388
ram:0003c3e4    00ed00e0        undefined4  E000ED00h                               
                            ;************************************************************************************************
                            ;*                                           FUNCTION                                           *
                            ;************************************************************************************************
                            ;undefined8 FUN_0003c3e8(ushort * param_1, undefined * param_2, uint param_3, undefined * param_4, ushort * param_5, undefined * param_6)
          ;param_1       ushort *            r0                      
          ;param_2       undefined *         r1                      
          ;param_3       uint                r2                      
          ;param_4       undefined *         r3                      
          ;param_5       ushort *             0                      ;XREF[1,0]:   0003c3f0
          ;param_6       undefined *          4                      ;XREF[1,0]:   0003c432
          ;local_18      undefined4         -18                      ;XREF[3,0]:   0003c444,0003c456,0003c48e
          ;local_1c      undefined4         -1c                      ;XREF[1,0]:   0003c41a
          ;local_20      undefined4         -20                      ;XREF[1,0]:   0003c446
          ;local_2a      undefined2         -2a                      ;XREF[1,0]:   0003c408
          ;local_2c      undefined2         -2c                      ;XREF[1,0]:   0003c404
          ;local_30      undefined1         -30                      ;XREF[2,0]:   0003c418,0003c468
                                                          ;XREF[2,0]:   0003c4aa,0003c4be
ram:0003c3e8    ffb5            push        {param_1,param_2,param_3,param_4,r4,r...
ram:0003c3ea    83b0            sub         sp,#0xc                                 
ram:0003c3ec    0746            mov         r7,param_1                              
ram:0003c3ee    0020            movs        param_1,#0x0                            
ram:0003c3f0    0c9c            ldr         r4,[sp,#param_5+0x30]                   
ram:0003c3f2    8646            mov         lr,param_1                              
ram:0003c3f4    2688            ldrh        r6,[r4,#0x0]                            
ram:0003c3f6    0546            mov         r5,param_1                              
ram:0003c3f8    3ae0            b           LAB_0003c470                            
                            LAB_0003c3fa:                 ;XREF[1,0]:   0003c474
ram:0003c3fa    7868            ldr         param_1,[r7,#0x4]                       
ram:0003c3fc    a900            lsls        param_2,r5,#0x2                         
ram:0003c3fe    4218            adds        param_3,param_1,param_2                 
ram:0003c400    1188            ldrh        param_2,[param_3,#0x0]                  
ram:0003c402    6846            mov         param_1,sp                              
ram:0003c404    8180            strh        param_2,[r0,#local_2c+0x30]             
ram:0003c406    5188            ldrh        param_2,[param_3,#0x2]                  
ram:0003c408    c180            strh        param_2,[r0,#local_2a+0x30]             
ram:0003c40a    0022            movs        param_3,#0x0                            
ram:0003c40c    6946            mov         param_2,sp                              
ram:0003c40e    01a8            add         param_1,sp,#0x4                         
ram:0003c410    65df            svc         0x65                                    
ram:0003c412    0028            cmp         param_1,#0x0                            
ram:0003c414    39d1            bne         LAB_0003c48a                            
ram:0003c416    6846            mov         param_1,sp                              
ram:0003c418    0178            ldrb        param_2=>local_30,[param_1,#0x0]        
ram:0003c41a    0598            ldr         param_1,[sp,#local_1c+0x30]             
ram:0003c41c    8142            cmp         param_2,param_1                         
ram:0003c41e    26d1            bne         LAB_0003c46e                            
ram:0003c420    7046            mov         param_1,lr                              
ram:0003c422    0028            cmp         param_1,#0x0                            
ram:0003c424    01d0            beq         LAB_0003c42a                            
ram:0003c426    0022            movs        param_3,#0x0                            
ram:0003c428    00e0            b           LAB_0003c42c                            
                            LAB_0003c42a:                 ;XREF[1,0]:   0003c424
ram:0003c42a    0222            movs        param_3,#0x2                            
                            LAB_0003c42c:                 ;XREF[1,0]:   0003c428
ram:0003c42c    2088            ldrh        param_1,[r4,#0x0]                       
ram:0003c42e    8918            adds        param_2,param_2,param_3                 
ram:0003c430    4218            adds        param_3,param_1,param_2                 
ram:0003c432    0d99            ldr         param_2,[sp,#param_6+0x30]              
ram:0003c434    8a42            cmp         param_3,param_2                         
ram:0003c436    27d8            bhi         LAB_0003c488                            
ram:0003c438    7146            mov         param_2,lr                              
ram:0003c43a    0029            cmp         param_2,#0x0                            
ram:0003c43c    0ad1            bne         LAB_0003c454                            
ram:0003c43e    401c            adds        param_1,param_1,#0x1                    
ram:0003c440    80b2            uxth        param_1,param_1                         
ram:0003c442    2080            strh        param_1,[r4,#0x0]                       
ram:0003c444    069a            ldr         param_3,[sp,#local_18+0x30]             
ram:0003c446    0499            ldr         param_2,[sp,#local_20+0x30]             
ram:0003c448    1154            strb        param_2,[param_3,param_1]               
ram:0003c44a    2088            ldrh        param_1,[r4,#0x0]                       
ram:0003c44c    401c            adds        param_1,param_1,#0x1                    
ram:0003c44e    2080            strh        param_1,[r4,#0x0]                       
ram:0003c450    0120            movs        param_1,#0x1                            
ram:0003c452    8646            mov         lr,param_1                              
                            LAB_0003c454:                 ;XREF[1,0]:   0003c43c
ram:0003c454    2188            ldrh        param_2,[r4,#0x0]                       
ram:0003c456    0698            ldr         param_1,[sp,#local_18+0x30]             
ram:0003c458    0a18            adds        param_3,param_2,param_1                 
ram:0003c45a    6946            mov         param_2,sp                              
ram:0003c45c    01a8            add         param_1,sp,#0x4                         
ram:0003c45e    65df            svc         0x65                                    
ram:0003c460    0028            cmp         param_1,#0x0                            
ram:0003c462    12d1            bne         LAB_0003c48a                            
ram:0003c464    6946            mov         param_2,sp                              
ram:0003c466    2088            ldrh        param_1,[r4,#0x0]                       
ram:0003c468    0978            ldrb        param_2=>local_30,[param_2,#0x0]        
ram:0003c46a    4018            adds        param_1,param_1,param_2                 
ram:0003c46c    2080            strh        param_1,[r4,#0x0]                       
                            LAB_0003c46e:                 ;XREF[1,0]:   0003c41e
ram:0003c46e    6d1c            adds        r5,r5,#0x1                              
                            LAB_0003c470:                 ;XREF[1,0]:   0003c3f8
ram:0003c470    3888            ldrh        param_1,[r7,#0x0]                       
ram:0003c472    a842            cmp         param_1,r5                              
ram:0003c474    c1dc            bgt         LAB_0003c3fa                            
ram:0003c476    7046            mov         param_1,lr                              
ram:0003c478    0028            cmp         param_1,#0x0                            
ram:0003c47a    0ad0            beq         LAB_0003c492                            
ram:0003c47c    2088            ldrh        param_1,[r4,#0x0]                       
ram:0003c47e    801b            subs        param_1,param_1,r6                      
ram:0003c480    401e            subs        param_1,param_1,#0x1                    
ram:0003c482    80b2            uxth        param_1,param_1                         
ram:0003c484    ff28            cmp         param_1,#0xff                           
ram:0003c486    02d9            bls         LAB_0003c48e                            
                            LAB_0003c488:                 ;XREF[1,0]:   0003c436
ram:0003c488    0c20            movs        param_1,#0xc                            
                            LAB_0003c48a:                 ;XREF[9,0]:   0003c414,0003c462,0003c494,0003c4b0
                                                          ;             0003c4c2,0003c55a,0003c570,0003c586
                                                          ;             0003c6d6
ram:0003c48a    07b0            add         sp,#0x1c                                
ram:0003c48c    f0bd            pop         {r4,r5,r6,r7,pc}                        
                            LAB_0003c48e:                 ;XREF[1,0]:   0003c486
ram:0003c48e    0699            ldr         param_2,[sp,#local_18+0x30]             
ram:0003c490    8855            strb        param_1,[param_2,r6]                    
                            LAB_0003c492:                 ;XREF[1,0]:   0003c47a
ram:0003c492    0020            movs        param_1,#0x0                            
ram:0003c494    f9e7            b           LAB_0003c48a                            
                            ;************************************************************************************************
                            ;*                                           FUNCTION                                           *
                            ;************************************************************************************************
                            ;undefined8 FUN_0003c496(ushort * param_1, undefined * param_2, undefined * param_3, undefined * param_4, ushort * param_5, undefined * param_6)
          ;param_1       ushort *            r0                      
          ;param_2       undefined *         r1                      
          ;param_3       undefined *         r2                      
          ;param_4       undefined *         r3                      
          ;param_5       ushort *             0                      ;XREF[1,0]:   0003c49c
          ;param_6       undefined *          4                      ;XREF[1,0]:   0003c49e
          ;local_24      undefined4         -24                      ;XREF[2,0]:   0003c4a8,0003c4bc
          ;local_2c      undefined4         -2c                      ;XREF[2,0]:   0003c4a6,0003c4ba
          ;local_30      undefined4         -30                      ;XREF[2,0]:   0003c4a4,0003c4b8
                                                          ;XREF[3,0]:   0003c63e,0003c65a,0003c676
ram:0003c496    ffb5            push        {param_1,param_2,param_3,param_4,r4,r...
ram:0003c498    83b0            sub         sp,#0xc                                 
ram:0003c49a    1646            mov         r6,param_3                              
ram:0003c49c    0c9d            ldr         r5,[sp,#param_5+0x30]                   
ram:0003c49e    0d9c            ldr         r4,[sp,#param_6+0x30]                   
ram:0003c4a0    1f46            mov         r7,param_4                              
ram:0003c4a2    0222            movs        param_3,#0x2                            
ram:0003c4a4    0095            str         r5,[sp,#0x0]=>local_30                  
ram:0003c4a6    0194            str         r4,[sp,#local_2c+0x30]                  
ram:0003c4a8    0398            ldr         param_1,[sp,#local_24+0x30]             
ram:0003c4aa    fff79dff        bl          FUN_0003c3e8                            ;undefined8 FUN_0003c3e8(ushort * par...
ram:0003c4ae    0028            cmp         param_1,#0x0                            
ram:0003c4b0    ebd1            bne         LAB_0003c48a                            
ram:0003c4b2    3b46            mov         param_4,r7                              
ram:0003c4b4    1022            movs        param_3,#0x10                           
ram:0003c4b6    3146            mov         param_2,r6                              
ram:0003c4b8    0095            str         r5,[sp,#0x0]=>local_30                  
ram:0003c4ba    0194            str         r4,[sp,#local_2c+0x30]                  
ram:0003c4bc    0398            ldr         param_1,[sp,#local_24+0x30]             
ram:0003c4be    fff793ff        bl          FUN_0003c3e8                            ;undefined8 FUN_0003c3e8(ushort * par...
ram:0003c4c2    e2e7            b           LAB_0003c48a                            
                            ;************************************************************************************************
                            ;*                                           FUNCTION                                           *
                            ;************************************************************************************************
                            ;undefined * FUN_0003c4c4(byte * param_1, undefined * param_2, ushort * param_3, ushort * param_4)
          ;param_1       byte *              r0                      
          ;param_2       undefined *         r1                      
          ;param_3       ushort *            r2                      
          ;param_4       ushort *            r3                      
          ;local_1c      undefined4         -1c                      ;XREF[14,0]:  0003c4da,0003c50a,0003c552,0003c568,0003c578
                                                                     ;             0003c5ce,0003c604,0003c63c,0003c658,0003c674
                                                                     ;             0003c688,0003c69c,0003c6b4,0003c6ca
          ;local_28      undefined4         -28                      ;XREF[3,0]:   0003c546,0003c55c,0003c6a6
          ;local_2c      undefined4         -2c                      ;XREF[3,0]:   0003c634,0003c650,0003c66c
          ;local_30      undefined4         -30                      ;XREF[4,0]:   0003c5b2,0003c630,0003c64c,0003c668
                                                          ;XREF[2,0]:   0003c6f6,0003c71c
ram:0003c4c4    f7b5            push        {param_1,param_2,param_3,r4,r5,r6,r7,lr}
ram:0003c4c6    84b0            sub         sp,#0x10                                
ram:0003c4c8    0025            movs        r5,#0x0                                 
ram:0003c4ca    1688            ldrh        r6,[param_3,#0x0]                       
ram:0003c4cc    0746            mov         r7,param_1                              
ram:0003c4ce    1580            strh        r5,[param_3,#0x0]                       
ram:0003c4d0    406b            ldr         param_1,[param_1,#0x34]                 
ram:0003c4d2    1446            mov         r4,param_3                              
ram:0003c4d4    0028            cmp         param_1,#0x0                            
ram:0003c4d6    13d0            beq         LAB_0003c500                            
ram:0003c4d8    0378            ldrb        param_4,[param_1,#0x0]                  
ram:0003c4da    0598            ldr         param_1,[sp,#local_1c+0x30]             
ram:0003c4dc    032e            cmp         r6,#0x3                                 
ram:0003c4de    51d3            bcc         LAB_0003c584                            
ram:0003c4e0    0221            movs        param_2,#0x2                            
ram:0003c4e2    0170            strb        param_2,[param_1,#0x0]                  
ram:0003c4e4    2188            ldrh        param_2,[r4,#0x0]                       
ram:0003c4e6    1122            movs        param_3,#0x11                           
ram:0003c4e8    491c            adds        param_2,param_2,#0x1                    
ram:0003c4ea    89b2            uxth        param_2,param_2                         
ram:0003c4ec    2180            strh        param_2,[r4,#0x0]                       
ram:0003c4ee    4254            strb        param_3,[param_1,param_2]               
ram:0003c4f0    2188            ldrh        param_2,[r4,#0x0]                       
ram:0003c4f2    491c            adds        param_2,param_2,#0x1                    
ram:0003c4f4    89b2            uxth        param_2,param_2                         
ram:0003c4f6    2180            strh        param_2,[r4,#0x0]                       
ram:0003c4f8    4354            strb        param_4,[param_1,param_2]               
ram:0003c4fa    2088            ldrh        param_1,[r4,#0x0]                       
ram:0003c4fc    401c            adds        param_1,param_1,#0x1                    
ram:0003c4fe    2080            strh        param_1,[r4,#0x0]                       
                            LAB_0003c500:                 ;XREF[1,0]:   0003c4d6
ram:0003c500    386b            ldr         param_1,[r7,#0x30]                      
ram:0003c502    0028            cmp         param_1,#0x0                            
ram:0003c504    1dd0            beq         LAB_0003c542                            
ram:0003c506    0546            mov         r5,param_1                              
ram:0003c508    2088            ldrh        param_1,[r4,#0x0]                       
ram:0003c50a    0599            ldr         param_2,[sp,#local_1c+0x30]             
ram:0003c50c    0246            mov         param_3,param_1                         
ram:0003c50e    1232            adds        param_3,#0x12                           
ram:0003c510    b242            cmp         param_3,r6                              
ram:0003c512    37d8            bhi         LAB_0003c584                            
ram:0003c514    1122            movs        param_3,#0x11                           
ram:0003c516    0a54            strb        param_3,[param_2,param_1]               
ram:0003c518    2088            ldrh        param_1,[r4,#0x0]                       
ram:0003c51a    1022            movs        param_3,#0x10                           
ram:0003c51c    401c            adds        param_1,param_1,#0x1                    
ram:0003c51e    80b2            uxth        param_1,param_1                         
ram:0003c520    2080            strh        param_1,[r4,#0x0]                       
ram:0003c522    0a54            strb        param_3,[param_2,param_1]               
ram:0003c524    2088            ldrh        param_1,[r4,#0x0]                       
ram:0003c526    401c            adds        param_1,param_1,#0x1                    
ram:0003c528    2080            strh        param_1,[r4,#0x0]                       
ram:0003c52a    0f20            movs        param_1,#0xf                            
                            LAB_0003c52c:                 ;XREF[1,0]:   0003c53e
ram:0003c52c    2a5c            ldrb        param_3,[r5,param_1]                    
ram:0003c52e    2388            ldrh        param_4,[r4,#0x0]                       
ram:0003c530    401e            subs        param_1,param_1,#0x1                    
ram:0003c532    ca54            strb        param_3,[param_2,param_4]               
ram:0003c534    2288            ldrh        param_3,[r4,#0x0]                       
ram:0003c536    40b2            sxtb        param_1,param_1                         
ram:0003c538    521c            adds        param_3,param_3,#0x1                    
ram:0003c53a    2280            strh        param_3,[r4,#0x0]                       
ram:0003c53c    0028            cmp         param_1,#0x0                            
ram:0003c53e    f5da            bge         LAB_0003c52c                            
ram:0003c540    0025            movs        r5,#0x0                                 
                            LAB_0003c542:                 ;XREF[1,0]:   0003c504
ram:0003c542    3846            mov         param_1,r7                              
ram:0003c544    2030            adds        param_1,#0x20                           
ram:0003c546    0290            str         param_1,[sp,#local_28+0x30]             
ram:0003c548    807b            ldrb        param_1,[param_1,#0xe]                  
ram:0003c54a    0028            cmp         param_1,#0x0                            
ram:0003c54c    06d0            beq         LAB_0003c55c                            
ram:0003c54e    3346            mov         param_4,r6                              
ram:0003c550    2246            mov         param_3,r4                              
ram:0003c552    0599            ldr         param_2,[sp,#local_1c+0x30]             
ram:0003c554    00f0f9f8        bl          FUN_0003c74a                            ;undefined4 FUN_0003c74a(int param_1,...
ram:0003c558    0500            movs        r5,param_1                              
ram:0003c55a    96d1            bne         LAB_0003c48a                            
                            LAB_0003c55c:                 ;XREF[1,0]:   0003c54c
ram:0003c55c    0298            ldr         param_1,[sp,#local_28+0x30]             
ram:0003c55e    407b            ldrb        param_1,[param_1,#0xd]                  
ram:0003c560    0028            cmp         param_1,#0x0                            
ram:0003c562    06d0            beq         LAB_0003c572                            
ram:0003c564    3246            mov         param_3,r6                              
ram:0003c566    2146            mov         param_2,r4                              
ram:0003c568    0598            ldr         param_1,[sp,#local_1c+0x30]             
ram:0003c56a    00f018f9        bl          FUN_0003c79e                            ;undefined * FUN_0003c79e(int param_1...
ram:0003c56e    0500            movs        r5,param_1                              
ram:0003c570    8bd1            bne         LAB_0003c48a                            
                            LAB_0003c572:                 ;XREF[1,0]:   0003c562
ram:0003c572    b878            ldrb        param_1,[r7,#0x2]                       
ram:0003c574    0028            cmp         param_1,#0x0                            
ram:0003c576    22d0            beq         LAB_0003c5be                            
ram:0003c578    0598            ldr         param_1,[sp,#local_1c+0x30]             
ram:0003c57a    8646            mov         lr,param_1                              
ram:0003c57c    2088            ldrh        param_1,[r4,#0x0]                       
ram:0003c57e    001d            adds        param_1,param_1,#0x4                    
ram:0003c580    b042            cmp         param_1,r6                              
ram:0003c582    01d9            bls         LAB_0003c588                            
                            LAB_0003c584:                 ;XREF[4,0]:   0003c4de,0003c512,0003c5d2,0003c608
ram:0003c584    0c20            movs        param_1,#0xc                            
                            LAB_0003c586:                 ;XREF[3,0]:   0003c58e,0003c644,0003c660
ram:0003c586    80e7            b           LAB_0003c48a                            
                            LAB_0003c588:                 ;XREF[1,0]:   0003c582
ram:0003c588    6846            mov         param_1,sp                              
ram:0003c58a    79df            svc         0x79                                    
ram:0003c58c    0028            cmp         param_1,#0x0                            
                            LAB_0003c58e:                 ;XREF[1,0]:   0003c67c
ram:0003c58e    fad1            bne         LAB_0003c586                            
ram:0003c590    2188            ldrh        param_2,[r4,#0x0]                       
ram:0003c592    0320            movs        param_1,#0x3                            
ram:0003c594    7246            mov         param_3,lr                              
ram:0003c596    5054            strb        param_1,[param_3,param_2]               
ram:0003c598    2088            ldrh        param_1,[r4,#0x0]                       
ram:0003c59a    1921            movs        param_2,#0x19                           
ram:0003c59c    401c            adds        param_1,param_1,#0x1                    
ram:0003c59e    80b2            uxth        param_1,param_1                         
ram:0003c5a0    2080            strh        param_1,[r4,#0x0]                       
ram:0003c5a2    1154            strb        param_2,[param_3,param_1]               
ram:0003c5a4    2088            ldrh        param_1,[r4,#0x0]                       
ram:0003c5a6    7146            mov         param_2,lr                              
ram:0003c5a8    401c            adds        param_1,param_1,#0x1                    
ram:0003c5aa    80b2            uxth        param_1,param_1                         
ram:0003c5ac    2080            strh        param_1,[r4,#0x0]                       
ram:0003c5ae    4118            adds        param_2,param_1,param_2                 
ram:0003c5b0    6846            mov         param_1,sp                              
ram:0003c5b2    0088            ldrh        param_1=>local_30,[param_1,#0x0]        
ram:0003c5b4    00f0c4f8        bl          FUN_0003c740                            ;undefined4 FUN_0003c740(undefined4 p...
ram:0003c5b8    2188            ldrh        param_2,[r4,#0x0]                       
ram:0003c5ba    4018            adds        param_1,param_1,param_2                 
ram:0003c5bc    2080            strh        param_1,[r4,#0x0]                       
                            LAB_0003c5be:                 ;XREF[1,0]:   0003c576
ram:0003c5be    f878            ldrb        param_1,[r7,#0x3]                       
ram:0003c5c0    0028            cmp         param_1,#0x0                            
ram:0003c5c2    17d0            beq         LAB_0003c5f4                            
ram:0003c5c4    2188            ldrh        param_2,[r4,#0x0]                       
ram:0003c5c6    0323            movs        param_4,#0x3                            
ram:0003c5c8    0a46            mov         param_3,param_2                         
ram:0003c5ca    fb56            ldrsb       param_4,[r7,param_4]                    
ram:0003c5cc    c91c            adds        param_2,param_2,#0x3                    
ram:0003c5ce    0598            ldr         param_1,[sp,#local_1c+0x30]             
ram:0003c5d0    b142            cmp         param_2,r6                              
ram:0003c5d2    d7d8            bhi         LAB_0003c584                            
ram:0003c5d4    0221            movs        param_2,#0x2                            
ram:0003c5d6    8154            strb        param_2,[param_1,param_3]               
ram:0003c5d8    2188            ldrh        param_2,[r4,#0x0]                       
ram:0003c5da    0122            movs        param_3,#0x1                            
ram:0003c5dc    491c            adds        param_2,param_2,#0x1                    
ram:0003c5de    89b2            uxth        param_2,param_2                         
ram:0003c5e0    2180            strh        param_2,[r4,#0x0]                       
ram:0003c5e2    4254            strb        param_3,[param_1,param_2]               
ram:0003c5e4    2188            ldrh        param_2,[r4,#0x0]                       
ram:0003c5e6    491c            adds        param_2,param_2,#0x1                    
ram:0003c5e8    89b2            uxth        param_2,param_2                         
ram:0003c5ea    2180            strh        param_2,[r4,#0x0]                       
ram:0003c5ec    4354            strb        param_4,[param_1,param_2]               
ram:0003c5ee    2088            ldrh        param_1,[r4,#0x0]                       
ram:0003c5f0    401c            adds        param_1,param_1,#0x1                    
ram:0003c5f2    2080            strh        param_1,[r4,#0x0]                       
                            LAB_0003c5f4:                 ;XREF[1,0]:   0003c5c2
ram:0003c5f4    7868            ldr         param_1,[r7,#0x4]                       
ram:0003c5f6    0028            cmp         param_1,#0x0                            
ram:0003c5f8    17d0            beq         LAB_0003c62a                            
ram:0003c5fa    2188            ldrh        param_2,[r4,#0x0]                       
ram:0003c5fc    0023            movs        param_4,#0x0                            
ram:0003c5fe    c356            ldrsb       param_4,[param_1,param_4]               
ram:0003c600    0a46            mov         param_3,param_2                         
ram:0003c602    c91c            adds        param_2,param_2,#0x3                    
ram:0003c604    0598            ldr         param_1,[sp,#local_1c+0x30]             
ram:0003c606    b142            cmp         param_2,r6                              
ram:0003c608    bcd8            bhi         LAB_0003c584                            
ram:0003c60a    0221            movs        param_2,#0x2                            
ram:0003c60c    8154            strb        param_2,[param_1,param_3]               
ram:0003c60e    2188            ldrh        param_2,[r4,#0x0]                       
ram:0003c610    0a22            movs        param_3,#0xa                            
ram:0003c612    491c            adds        param_2,param_2,#0x1                    
ram:0003c614    89b2            uxth        param_2,param_2                         
ram:0003c616    2180            strh        param_2,[r4,#0x0]                       
ram:0003c618    4254            strb        param_3,[param_1,param_2]               
ram:0003c61a    2188            ldrh        param_2,[r4,#0x0]                       
ram:0003c61c    491c            adds        param_2,param_2,#0x1                    
ram:0003c61e    89b2            uxth        param_2,param_2                         
ram:0003c620    2180            strh        param_2,[r4,#0x0]                       
ram:0003c622    4354            strb        param_4,[param_1,param_2]               
ram:0003c624    2088            ldrh        param_1,[r4,#0x0]                       
ram:0003c626    401c            adds        param_1,param_1,#0x1                    
ram:0003c628    2080            strh        param_1,[r4,#0x0]                       
                            LAB_0003c62a:                 ;XREF[1,0]:   0003c5f8
ram:0003c62a    3889            ldrh        param_1,[r7,#0x8]                       
ram:0003c62c    0028            cmp         param_1,#0x0                            
ram:0003c62e    0ad0            beq         LAB_0003c646                            
ram:0003c630    0094            str         r4,[sp,#0x0]=>local_30                  
ram:0003c632    3846            mov         param_1,r7                              
ram:0003c634    0196            str         r6,[sp,#local_2c+0x30]                  
ram:0003c636    0622            movs        param_3,#0x6                            
ram:0003c638    0221            movs        param_2,#0x2                            
ram:0003c63a    0830            adds        param_1,#0x8                            
ram:0003c63c    059b            ldr         param_4,[sp,#local_1c+0x30]             
ram:0003c63e    fff72aff        bl          FUN_0003c496                            ;undefined8 FUN_0003c496(ushort * par...
ram:0003c642    0500            movs        r5,param_1                              
                            LAB_0003c644:                 ;XREF[4,0]:   0003c690,0003c6a4,0003c6bc,0003c6d2
ram:0003c644    9fd1            bne         LAB_0003c586                            
                            LAB_0003c646:                 ;XREF[1,0]:   0003c62e
ram:0003c646    388a            ldrh        param_1,[r7,#0x10]                      
ram:0003c648    0028            cmp         param_1,#0x0                            
ram:0003c64a    0ad0            beq         LAB_0003c662                            
ram:0003c64c    0094            str         r4,[sp,#0x0]=>local_30                  
ram:0003c64e    3846            mov         param_1,r7                              
ram:0003c650    0196            str         r6,[sp,#local_2c+0x30]                  
ram:0003c652    0722            movs        param_3,#0x7                            
ram:0003c654    0321            movs        param_2,#0x3                            
ram:0003c656    1030            adds        param_1,#0x10                           
ram:0003c658    059b            ldr         param_4,[sp,#local_1c+0x30]             
ram:0003c65a    fff71cff        bl          FUN_0003c496                            ;undefined8 FUN_0003c496(ushort * par...
ram:0003c65e    0500            movs        r5,param_1                              
ram:0003c660    91d1            bne         LAB_0003c586                            
                            LAB_0003c662:                 ;XREF[1,0]:   0003c64a
ram:0003c662    388b            ldrh        param_1,[r7,#0x18]                      
ram:0003c664    0028            cmp         param_1,#0x0                            
ram:0003c666    0ad0            beq         LAB_0003c67e                            
ram:0003c668    0094            str         r4,[sp,#0x0]=>local_30                  
ram:0003c66a    3846            mov         param_1,r7                              
ram:0003c66c    0196            str         r6,[sp,#local_2c+0x30]                  
ram:0003c66e    1522            movs        param_3,#0x15                           
ram:0003c670    1421            movs        param_2,#0x14                           
ram:0003c672    1830            adds        param_1,#0x18                           
ram:0003c674    059b            ldr         param_4,[sp,#local_1c+0x30]             
ram:0003c676    fff70eff        bl          FUN_0003c496                            ;undefined8 FUN_0003c496(ushort * par...
ram:0003c67a    0500            movs        r5,param_1                              
ram:0003c67c    87d1            bne         LAB_0003c58e                            
                            LAB_0003c67e:                 ;XREF[1,0]:   0003c666
ram:0003c67e    386a            ldr         param_1,[r7,#0x20]                      
ram:0003c680    0028            cmp         param_1,#0x0                            
ram:0003c682    06d0            beq         LAB_0003c692                            
ram:0003c684    3346            mov         param_4,r6                              
ram:0003c686    2246            mov         param_3,r4                              
ram:0003c688    0599            ldr         param_2,[sp,#local_1c+0x30]             
ram:0003c68a    00f006f9        bl          FUN_0003c89a                            ;undefined4 FUN_0003c89a(ushort * par...
ram:0003c68e    0500            movs        r5,param_1                              
ram:0003c690    d8d1            bne         LAB_0003c644                            
                            LAB_0003c692:                 ;XREF[1,0]:   0003c682
ram:0003c692    786a            ldr         param_1,[r7,#0x24]                      
ram:0003c694    0028            cmp         param_1,#0x0                            
ram:0003c696    06d0            beq         LAB_0003c6a6                            
ram:0003c698    3346            mov         param_4,r6                              
ram:0003c69a    2246            mov         param_3,r4                              
ram:0003c69c    0599            ldr         param_2,[sp,#local_1c+0x30]             
ram:0003c69e    00f03df9        bl          FUN_0003c91c                            ;undefined4 FUN_0003c91c(ushort * par...
ram:0003c6a2    0500            movs        r5,param_1                              
ram:0003c6a4    ced1            bne         LAB_0003c644                            
                            LAB_0003c6a6:                 ;XREF[1,0]:   0003c696
ram:0003c6a6    0298            ldr         param_1,[sp,#local_28+0x30]             
ram:0003c6a8    007b            ldrb        param_1,[param_1,#0xc]                  
ram:0003c6aa    0028            cmp         param_1,#0x0                            
ram:0003c6ac    07d0            beq         LAB_0003c6be                            
ram:0003c6ae    3346            mov         param_4,r6                              
ram:0003c6b0    2246            mov         param_3,r4                              
ram:0003c6b2    3846            mov         param_1,r7                              
ram:0003c6b4    0599            ldr         param_2,[sp,#local_1c+0x30]             
ram:0003c6b6    00f065f9        bl          FUN_0003c984                            ;undefined4 FUN_0003c984(int param_1,...
ram:0003c6ba    0500            movs        r5,param_1                              
ram:0003c6bc    c2d1            bne         LAB_0003c644                            
                            LAB_0003c6be:                 ;XREF[1,0]:   0003c6ac
ram:0003c6be    3878            ldrb        param_1,[r7,#0x0]                       
ram:0003c6c0    0028            cmp         param_1,#0x0                            
ram:0003c6c2    07d0            beq         LAB_0003c6d4                            
ram:0003c6c4    3346            mov         param_4,r6                              
ram:0003c6c6    2246            mov         param_3,r4                              
ram:0003c6c8    3846            mov         param_1,r7                              
ram:0003c6ca    0599            ldr         param_2,[sp,#local_1c+0x30]             
ram:0003c6cc    00f096f8        bl          FUN_0003c7fc                            ;longlong FUN_0003c7fc(byte * param_1...
ram:0003c6d0    0500            movs        r5,param_1                              
ram:0003c6d2    b7d1            bne         LAB_0003c644                            
                            LAB_0003c6d4:                 ;XREF[1,0]:   0003c6c2
ram:0003c6d4    2846            mov         param_1,r5                              
ram:0003c6d6    d8e6            b           LAB_0003c48a                            
                            ;************************************************************************************************
                            ;*                                           FUNCTION                                           *
                            ;************************************************************************************************
                            ;undefined * FUN_0003c6d8(byte * param_1, byte * param_2, undefined4 param_3, ushort * param_4)
          ;param_1       byte *              r0                      
          ;param_2       byte *              r1                      
          ;param_3       undefined4          r2                      
          ;param_4       ushort *            r3                      
          ;local_5c      undefined2         -5c                      ;XREF[3,0]:   0003c6e8,0003c72c,0003c730
          ;local_60      undefined2         -60                      ;XREF[3,0]:   0003c6e2,0003c704,0003c736
                                                          ;XREF[1,0]:   0003e166
ram:0003c6d8    f0b5            push        {r4,r5,r6,r7,lr}                        
ram:0003c6da    0c46            mov         r4,param_2                              
ram:0003c6dc    93b0            sub         sp,#0x4c                                
ram:0003c6de    1f21            movs        param_2,#0x1f                           
ram:0003c6e0    6a46            mov         param_3,sp                              
ram:0003c6e2    1180            strh        param_2,[param_3,#0x0]=>local_60        
ram:0003c6e4    0726            movs        r6,#0x7                                 
ram:0003c6e6    0027            movs        r7,#0x0                                 
ram:0003c6e8    9180            strh        param_2,[r2,#local_5c+0x60]             
ram:0003c6ea    0028            cmp         param_1,#0x0                            
ram:0003c6ec    09d0            beq         LAB_0003c702                            
ram:0003c6ee    c178            ldrb        param_2,[param_1,#0x3]                  
ram:0003c6f0    4907            lsls        param_2,param_2,#0x1d                   
ram:0003c6f2    0dd5            bpl         LAB_0003c710                            
ram:0003c6f4    02a9            add         param_2,sp,#0x8                         
ram:0003c6f6    fff7e5fe        bl          FUN_0003c4c4                            ;undefined * FUN_0003c4c4(byte * para...
ram:0003c6fa    0028            cmp         param_1,#0x0                            
ram:0003c6fc    09d1            bne         LAB_0003c712                            
ram:0003c6fe    02ad            add         r5,sp,#0x8                              
ram:0003c700    01e0            b           LAB_0003c706                            
                            LAB_0003c702:                 ;XREF[1,0]:   0003c6ec
ram:0003c702    0025            movs        r5,#0x0                                 
ram:0003c704    1780            strh        r7,[param_3,#0x0]=>local_60             
                            LAB_0003c706:                 ;XREF[1,0]:   0003c700
ram:0003c706    002c            cmp         r4,#0x0                                 
ram:0003c708    0ed0            beq         LAB_0003c728                            
ram:0003c70a    e078            ldrb        param_1,[r4,#0x3]                       
ram:0003c70c    0028            cmp         param_1,#0x0                            
ram:0003c70e    02d0            beq         LAB_0003c716                            
                            LAB_0003c710:                 ;XREF[1,0]:   0003c6f2
ram:0003c710    3046            mov         param_1,r6                              
                            LAB_0003c712:                 ;XREF[3,0]:   0003c6fc,0003c722,0003c73e
ram:0003c712    13b0            add         sp,#0x4c                                
ram:0003c714    f0bd            pop         {r4,r5,r6,r7,pc}                        
                            LAB_0003c716:                 ;XREF[1,0]:   0003c70e
ram:0003c716    01aa            add         param_3,sp,#0x4                         
ram:0003c718    0aa9            add         param_2,sp,#0x28                        
ram:0003c71a    2046            mov         param_1,r4                              
ram:0003c71c    fff7d2fe        bl          FUN_0003c4c4                            ;undefined * FUN_0003c4c4(byte * para...
ram:0003c720    0028            cmp         param_1,#0x0                            
ram:0003c722    f6d1            bne         LAB_0003c712                            
ram:0003c724    0aaa            add         param_3,sp,#0x28                        
ram:0003c726    02e0            b           LAB_0003c72e                            
                            LAB_0003c728:                 ;XREF[1,0]:   0003c708
ram:0003c728    6846            mov         param_1,sp                              
ram:0003c72a    0022            movs        param_3,#0x0                            
ram:0003c72c    8780            strh        r7,[r0,#local_5c+0x60]                  
                            LAB_0003c72e:                 ;XREF[1,0]:   0003c726
ram:0003c72e    6846            mov         param_1,sp                              
ram:0003c730    8088            ldrh        param_1,[r0,#local_5c+0x60]             
ram:0003c732    c3b2            uxtb        param_4,param_1                         
ram:0003c734    6846            mov         param_1,sp                              
ram:0003c736    0088            ldrh        param_1=>local_60,[param_1,#0x0]        
ram:0003c738    c1b2            uxtb        param_2,param_1                         
ram:0003c73a    2846            mov         param_1,r5                              
ram:0003c73c    72df            svc         0x72                                    
ram:0003c73e    e8e7            b           LAB_0003c712                            
                            ;************************************************************************************************
                            ;*                                           FUNCTION                                           *
                            ;************************************************************************************************
                            ;undefined4 FUN_0003c740(undefined4 param_1, undefined * param_2)
          ;param_1       undefined4          r0                      
          ;param_2       undefined *         r1                      
                                                          ;XREF[5,0]:   0003c5b4,0003c8fe,0003c90e,0003c956
                                                          ;             0003c9d6
ram:0003c740    0870            strb        param_1,[param_2,#0x0]                  
ram:0003c742    000a            lsrs        param_1,param_1,#0x8                    
ram:0003c744    4870            strb        param_1,[param_2,#0x1]                  
ram:0003c746    0220            movs        param_1,#0x2                            
ram:0003c748    7047            bx          lr                                      
                            ;************************************************************************************************
                            ;*                                           FUNCTION                                           *
                            ;************************************************************************************************
                            ;undefined4 FUN_0003c74a(int param_1, int param_2, ushort * param_3, uint param_4)
          ;param_1       int                 r0                      
          ;param_2       int                 r1                      
          ;param_3       ushort *            r2                      
          ;param_4       uint                r3                      
                                                          ;XREF[1,0]:   0003c554
ram:0003c74a    30b5            push        {r4,r5,lr}                              
ram:0003c74c    1588            ldrh        r5,[param_3,#0x0]                       
ram:0003c74e    ec1c            adds        r4,r5,#0x3                              
ram:0003c750    9c42            cmp         r4,param_4                              
ram:0003c752    01d9            bls         LAB_0003c758                            
ram:0003c754    0c20            movs        param_1,#0xc                            
ram:0003c756    30bd            pop         {r4,r5,pc}                              
                            LAB_0003c758:                 ;XREF[1,0]:   0003c752
ram:0003c758    0224            movs        r4,#0x2                                 
ram:0003c75a    4c55            strb        r4,[param_2,r5]                         
ram:0003c75c    1388            ldrh        param_4,[param_3,#0x0]                  
ram:0003c75e    1c25            movs        r5,#0x1c                                
ram:0003c760    5b1c            adds        param_4,param_4,#0x1                    
ram:0003c762    9bb2            uxth        param_4,param_4                         
ram:0003c764    1380            strh        param_4,[param_3,#0x0]                  
ram:0003c766    cd54            strb        r5,[param_2,param_4]                    
ram:0003c768    1388            ldrh        param_4,[param_3,#0x0]                  
ram:0003c76a    5b1c            adds        param_4,param_4,#0x1                    
ram:0003c76c    9bb2            uxth        param_4,param_4                         
ram:0003c76e    1380            strh        param_4,[param_3,#0x0]                  
ram:0003c770    0128            cmp         param_1,#0x1                            
ram:0003c772    07d0            beq         LAB_0003c784                            
ram:0003c774    0228            cmp         param_1,#0x2                            
ram:0003c776    07d0            beq         LAB_0003c788                            
ram:0003c778    0328            cmp         param_1,#0x3                            
ram:0003c77a    07d0            beq         LAB_0003c78c                            
ram:0003c77c    0428            cmp         param_1,#0x4                            
ram:0003c77e    07d0            beq         LAB_0003c790                            
ram:0003c780    0720            movs        param_1,#0x7                            
ram:0003c782    30bd            pop         {r4,r5,pc}                              
                            LAB_0003c784:                 ;XREF[1,0]:   0003c772
ram:0003c784    0020            movs        param_1,#0x0                            
ram:0003c786    04e0            b           LAB_0003c792                            
                            LAB_0003c788:                 ;XREF[1,0]:   0003c776
ram:0003c788    0120            movs        param_1,#0x1                            
ram:0003c78a    02e0            b           LAB_0003c792                            
                            LAB_0003c78c:                 ;XREF[1,0]:   0003c77a
ram:0003c78c    cc54            strb        r4,[param_2,param_4]                    
ram:0003c78e    01e0            b           LAB_0003c794                            
                            LAB_0003c790:                 ;XREF[1,0]:   0003c77e
ram:0003c790    0320            movs        param_1,#0x3                            
                            LAB_0003c792:                 ;XREF[2,0]:   0003c786,0003c78a
ram:0003c792    c854            strb        param_1,[param_2,param_4]               
                            LAB_0003c794:                 ;XREF[1,0]:   0003c78e
ram:0003c794    1088            ldrh        param_1,[param_3,#0x0]                  
ram:0003c796    401c            adds        param_1,param_1,#0x1                    
ram:0003c798    1080            strh        param_1,[param_3,#0x0]                  
ram:0003c79a    0020            movs        param_1,#0x0                            
ram:0003c79c    30bd            pop         {r4,r5,pc}                              
                            ;************************************************************************************************
                            ;*                                           FUNCTION                                           *
                            ;************************************************************************************************
                            ;undefined * FUN_0003c79e(int param_1, ushort * param_2, uint param_3, undefined4 param_4)
          ;param_1       int                 r0                      
          ;param_2       ushort *            r1                      
          ;param_3       uint                r2                      
          ;param_4       undefined4          r3                      
          ;local_18      undefined1         -18                      ;XREF[1,0]:   0003c7e8
                                                          ;XREF[1,0]:   0003c56a
ram:0003c79e    7cb5            push        {param_3,param_4,r4,r5,r6,lr}           
ram:0003c7a0    0546            mov         r5,param_1                              
ram:0003c7a2    0888            ldrh        param_1,[param_2,#0x0]                  
ram:0003c7a4    0c46            mov         r4,param_2                              
ram:0003c7a6    0930            adds        param_1,#0x9                            
ram:0003c7a8    9042            cmp         param_1,param_3                         
ram:0003c7aa    01d9            bls         LAB_0003c7b0                            
ram:0003c7ac    0c20            movs        param_1,#0xc                            
                            LAB_0003c7ae:                 ;XREF[1,0]:   0003c7b6
ram:0003c7ae    7cbd            pop         {param_3,param_4,r4,r5,r6,pc}           
                            LAB_0003c7b0:                 ;XREF[1,0]:   0003c7aa
ram:0003c7b0    6846            mov         param_1,sp                              
ram:0003c7b2    71df            svc         0x71                                    
ram:0003c7b4    0028            cmp         param_1,#0x0                            
ram:0003c7b6    fad1            bne         LAB_0003c7ae                            
ram:0003c7b8    2188            ldrh        param_2,[r4,#0x0]                       
ram:0003c7ba    0820            movs        param_1,#0x8                            
ram:0003c7bc    6854            strb        param_1,[r5,param_2]                    
ram:0003c7be    2088            ldrh        param_1,[r4,#0x0]                       
ram:0003c7c0    1b21            movs        param_2,#0x1b                           
ram:0003c7c2    401c            adds        param_1,param_1,#0x1                    
ram:0003c7c4    80b2            uxth        param_1,param_1                         
ram:0003c7c6    2080            strh        param_1,[r4,#0x0]                       
ram:0003c7c8    2954            strb        param_2,[r5,param_1]                    
ram:0003c7ca    2088            ldrh        param_1,[r4,#0x0]                       
ram:0003c7cc    00a9            add         param_2,sp,#0x0                         
ram:0003c7ce    401c            adds        param_1,param_1,#0x1                    
ram:0003c7d0    80b2            uxth        param_1,param_1                         
ram:0003c7d2    2080            strh        param_1,[r4,#0x0]                       
ram:0003c7d4    4019            adds        param_1,param_1,r5                      
ram:0003c7d6    0622            movs        param_3,#0x6                            
ram:0003c7d8    0131            adds        param_2,#0x1                            
ram:0003c7da    02f05dfc        bl          FUN_0003f098                            ;undefined FUN_0003f098(undefined4 * ...
ram:0003c7de    2088            ldrh        param_1,[r4,#0x0]                       
ram:0003c7e0    6946            mov         param_2,sp                              
ram:0003c7e2    801d            adds        param_1,param_1,#0x6                    
ram:0003c7e4    80b2            uxth        param_1,param_1                         
ram:0003c7e6    2080            strh        param_1,[r4,#0x0]                       
ram:0003c7e8    0978            ldrb        param_2=>local_18,[param_2,#0x0]        
ram:0003c7ea    0029            cmp         param_2,#0x0                            
ram:0003c7ec    00d0            beq         LAB_0003c7f0                            
ram:0003c7ee    0121            movs        param_2,#0x1                            
                            LAB_0003c7f0:                 ;XREF[1,0]:   0003c7ec
ram:0003c7f0    2954            strb        param_2,[r5,param_1]                    
ram:0003c7f2    2088            ldrh        param_1,[r4,#0x0]                       
ram:0003c7f4    401c            adds        param_1,param_1,#0x1                    
ram:0003c7f6    2080            strh        param_1,[r4,#0x0]                       
ram:0003c7f8    0020            movs        param_1,#0x0                            
ram:0003c7fa    7cbd            pop         {param_3,param_4,r4,r5,r6,pc}           
                            ;************************************************************************************************
                            ;*                                           FUNCTION                                           *
                            ;************************************************************************************************
                            ;longlong FUN_0003c7fc(byte * param_1, int param_2, ushort * param_3, ushort * param_4)
          ;param_1       byte *              r0                      
          ;param_2       int                 r1                      
          ;param_3       ushort *            r2                      
          ;param_4       ushort *            r3                      
          ;local_18      undefined2         -18                      ;XREF[6,0]:   0003c834,0003c84c,0003c864,0003c86a,0003c86e
                                                                     ;             0003c890
                                                          ;XREF[1,0]:   0003c6cc
ram:0003c7fc    f8b5            push        {param_4,r4,r5,r6,r7,lr}                
ram:0003c7fe    0f46            mov         r7,param_2                              
ram:0003c800    0178            ldrb        param_2,[param_1,#0x0]                  
ram:0003c802    1446            mov         r4,param_3                              
ram:0003c804    0546            mov         r5,param_1                              
ram:0003c806    0129            cmp         param_2,#0x1                            
ram:0003c808    02d1            bne         LAB_0003c810                            
ram:0003c80a    6878            ldrb        param_1,[r5,#0x1]                       
ram:0003c80c    0028            cmp         param_1,#0x0                            
ram:0003c80e    06d0            beq         LAB_0003c81e                            
                            LAB_0003c810:                 ;XREF[1,0]:   0003c808
ram:0003c810    2088            ldrh        param_1,[r4,#0x0]                       
ram:0003c812    821c            adds        param_3,param_1,#0x2                    
ram:0003c814    9a42            cmp         param_3,param_4                         
ram:0003c816    2dd8            bhi         LAB_0003c874                            
ram:0003c818    0129            cmp         param_2,#0x1                            
ram:0003c81a    02d0            beq         LAB_0003c822                            
ram:0003c81c    06e0            b           LAB_0003c82c                            
                            LAB_0003c81e:                 ;XREF[1,0]:   0003c80e
ram:0003c81e    0720            movs        param_1,#0x7                            
                            LAB_0003c820:                 ;XREF[1,0]:   0003c842
ram:0003c820    f8bd            pop         {param_4,r4,r5,r6,r7,pc}                
                            LAB_0003c822:                 ;XREF[1,0]:   0003c81a
ram:0003c822    6978            ldrb        param_2,[r5,#0x1]                       
ram:0003c824    4118            adds        param_2,param_1,param_2                 
ram:0003c826    891c            adds        param_2,param_2,#0x2                    
ram:0003c828    9942            cmp         param_2,param_4                         
ram:0003c82a    23d8            bhi         LAB_0003c874                            
                            LAB_0003c82c:                 ;XREF[1,0]:   0003c81c
ram:0003c82c    181a            subs        param_1,param_4,param_1                 
ram:0003c82e    801e            subs        param_1,param_1,#0x2                    
ram:0003c830    86b2            uxth        r6,param_1                              
ram:0003c832    6846            mov         param_1,sp                              
ram:0003c834    0680            strh        r6,[param_1,#0x0]=>local_18             
ram:0003c836    2188            ldrh        param_2,[r4,#0x0]                       
ram:0003c838    b81c            adds        param_1,r7,#0x2                         
ram:0003c83a    0818            adds        param_1,param_2,param_1                 
ram:0003c83c    6946            mov         param_2,sp                              
ram:0003c83e    7ddf            svc         0x7d                                    
ram:0003c840    0028            cmp         param_1,#0x0                            
ram:0003c842    edd1            bne         LAB_0003c820                            
ram:0003c844    2878            ldrb        param_1,[r5,#0x0]                       
ram:0003c846    0228            cmp         param_1,#0x2                            
ram:0003c848    05d1            bne         LAB_0003c856                            
ram:0003c84a    6946            mov         param_2,sp                              
ram:0003c84c    0988            ldrh        param_2=>local_18,[param_2,#0x0]        
ram:0003c84e    b142            cmp         param_2,r6                              
ram:0003c850    01d8            bhi         LAB_0003c856                            
ram:0003c852    0921            movs        param_2,#0x9                            
ram:0003c854    0ae0            b           LAB_0003c86c                            
                            LAB_0003c856:                 ;XREF[2,0]:   0003c848,0003c850
ram:0003c856    0821            movs        param_2,#0x8                            
ram:0003c858    0128            cmp         param_1,#0x1                            
ram:0003c85a    05d1            bne         LAB_0003c868                            
ram:0003c85c    6878            ldrb        param_1,[r5,#0x1]                       
ram:0003c85e    b042            cmp         param_1,r6                              
ram:0003c860    02d8            bhi         LAB_0003c868                            
ram:0003c862    6a46            mov         param_3,sp                              
ram:0003c864    1080            strh        param_1,[param_3,#0x0]=>local_18        
ram:0003c866    01e0            b           LAB_0003c86c                            
                            LAB_0003c868:                 ;XREF[2,0]:   0003c85a,0003c860
ram:0003c868    6846            mov         param_1,sp                              
ram:0003c86a    0680            strh        r6,[param_1,#0x0]=>local_18             
                            LAB_0003c86c:                 ;XREF[2,0]:   0003c854,0003c866
ram:0003c86c    6846            mov         param_1,sp                              
ram:0003c86e    0088            ldrh        param_1=>local_18,[param_1,#0x0]        
ram:0003c870    fe28            cmp         param_1,#0xfe                           
ram:0003c872    01d9            bls         LAB_0003c878                            
                            LAB_0003c874:                 ;XREF[2,0]:   0003c816,0003c82a
ram:0003c874    0c20            movs        param_1,#0xc                            
ram:0003c876    f8bd            pop         {param_4,r4,r5,r6,r7,pc}                
                            LAB_0003c878:                 ;XREF[1,0]:   0003c872
ram:0003c878    2288            ldrh        param_3,[r4,#0x0]                       
ram:0003c87a    401c            adds        param_1,param_1,#0x1                    
ram:0003c87c    b854            strb        param_1,[r7,param_3]                    
ram:0003c87e    2088            ldrh        param_1,[r4,#0x0]                       
ram:0003c880    401c            adds        param_1,param_1,#0x1                    
ram:0003c882    80b2            uxth        param_1,param_1                         
ram:0003c884    2080            strh        param_1,[r4,#0x0]                       
ram:0003c886    3954            strb        param_2,[r7,param_1]                    
ram:0003c888    2088            ldrh        param_1,[r4,#0x0]                       
ram:0003c88a    6946            mov         param_2,sp                              
ram:0003c88c    401c            adds        param_1,param_1,#0x1                    
ram:0003c88e    2080            strh        param_1,[r4,#0x0]                       
ram:0003c890    0988            ldrh        param_2=>local_18,[param_2,#0x0]        
ram:0003c892    4018            adds        param_1,param_1,param_2                 
ram:0003c894    2080            strh        param_1,[r4,#0x0]                       
ram:0003c896    0020            movs        param_1,#0x0                            
ram:0003c898    f8bd            pop         {param_4,r4,r5,r6,r7,pc}                
                            ;************************************************************************************************
                            ;*                                           FUNCTION                                           *
                            ;************************************************************************************************
                            ;undefined4 FUN_0003c89a(ushort * param_1, int param_2, ushort * param_3, uint param_4)
          ;param_1       ushort *            r0                      
          ;param_2       int                 r1                      
          ;param_3       ushort *            r2                      
          ;param_4       uint                r3                      
                                                          ;XREF[1,0]:   0003c68a
ram:0003c89a    f8b5            push        {param_4,r4,r5,r6,r7,lr}                
ram:0003c89c    0646            mov         r6,param_1                              
ram:0003c89e    1088            ldrh        param_1,[param_3,#0x0]                  
ram:0003c8a0    1446            mov         r4,param_3                              
ram:0003c8a2    8446            mov         r12,param_1                             
ram:0003c8a4    801d            adds        param_1,param_1,#0x6                    
ram:0003c8a6    0d46            mov         r5,param_2                              
ram:0003c8a8    9842            cmp         param_1,param_4                         
ram:0003c8aa    01d9            bls         LAB_0003c8b0                            
ram:0003c8ac    0c20            movs        param_1,#0xc                            
                            LAB_0003c8ae:                 ;XREF[5,0]:   0003c8b6,0003c8c4,0003c8ca,0003c8d2
                                                          ;             0003c8de
ram:0003c8ae    f8bd            pop         {param_4,r4,r5,r6,r7,pc}                
                            LAB_0003c8b0:                 ;XREF[1,0]:   0003c8aa
ram:0003c8b0    3288            ldrh        param_3,[r6,#0x0]                       
ram:0003c8b2    0720            movs        param_1,#0x7                            
ram:0003c8b4    062a            cmp         param_3,#0x6                            
ram:0003c8b6    fad3            bcc         LAB_0003c8ae                            
ram:0003c8b8    1927            movs        r7,#0x19                                
ram:0003c8ba    ff01            lsls        r7,r7,#0x7                              
ram:0003c8bc    554b            ldr         param_4,[DAT_0003ca14]                  ;= 0000FFFFh
ram:0003c8be    ba42            cmp         param_3,r7                              
ram:0003c8c0    01d9            bls         LAB_0003c8c6                            
ram:0003c8c2    9a42            cmp         param_3,param_4                         
ram:0003c8c4    f3d1            bne         LAB_0003c8ae                            
                            LAB_0003c8c6:                 ;XREF[1,0]:   0003c8c0
ram:0003c8c6    7188            ldrh        param_2,[r6,#0x2]                       
ram:0003c8c8    0629            cmp         param_2,#0x6                            
ram:0003c8ca    f0d3            bcc         LAB_0003c8ae                            
ram:0003c8cc    b942            cmp         param_2,r7                              
ram:0003c8ce    01d9            bls         LAB_0003c8d4                            
ram:0003c8d0    9942            cmp         param_2,param_4                         
ram:0003c8d2    ecd1            bne         LAB_0003c8ae                            
                            LAB_0003c8d4:                 ;XREF[1,0]:   0003c8ce
ram:0003c8d4    9a42            cmp         param_3,param_4                         
ram:0003c8d6    03d0            beq         LAB_0003c8e0                            
ram:0003c8d8    9942            cmp         param_2,param_4                         
ram:0003c8da    01d0            beq         LAB_0003c8e0                            
ram:0003c8dc    8a42            cmp         param_3,param_2                         
ram:0003c8de    e6d8            bhi         LAB_0003c8ae                            
                            LAB_0003c8e0:                 ;XREF[2,0]:   0003c8d6,0003c8da
ram:0003c8e0    0521            movs        param_2,#0x5                            
ram:0003c8e2    6046            mov         param_1,r12                             
ram:0003c8e4    2954            strb        param_2,[r5,param_1]                    
ram:0003c8e6    2088            ldrh        param_1,[r4,#0x0]                       
ram:0003c8e8    1221            movs        param_2,#0x12                           
ram:0003c8ea    401c            adds        param_1,param_1,#0x1                    
ram:0003c8ec    80b2            uxth        param_1,param_1                         
ram:0003c8ee    2080            strh        param_1,[r4,#0x0]                       
ram:0003c8f0    2954            strb        param_2,[r5,param_1]                    
ram:0003c8f2    2088            ldrh        param_1,[r4,#0x0]                       
ram:0003c8f4    401c            adds        param_1,param_1,#0x1                    
ram:0003c8f6    80b2            uxth        param_1,param_1                         
ram:0003c8f8    2080            strh        param_1,[r4,#0x0]                       
ram:0003c8fa    4119            adds        param_2,param_1,r5                      
ram:0003c8fc    3088            ldrh        param_1,[r6,#0x0]                       
ram:0003c8fe    fff71fff        bl          FUN_0003c740                            ;undefined4 FUN_0003c740(undefined4 p...
ram:0003c902    2188            ldrh        param_2,[r4,#0x0]                       
ram:0003c904    4018            adds        param_1,param_1,param_2                 
ram:0003c906    80b2            uxth        param_1,param_1                         
ram:0003c908    2080            strh        param_1,[r4,#0x0]                       
ram:0003c90a    4119            adds        param_2,param_1,r5                      
ram:0003c90c    7088            ldrh        param_1,[r6,#0x2]                       
ram:0003c90e    fff717ff        bl          FUN_0003c740                            ;undefined4 FUN_0003c740(undefined4 p...
ram:0003c912    2188            ldrh        param_2,[r4,#0x0]                       
ram:0003c914    4018            adds        param_1,param_1,param_2                 
ram:0003c916    2080            strh        param_1,[r4,#0x0]                       
ram:0003c918    0020            movs        param_1,#0x0                            
ram:0003c91a    f8bd            pop         {param_4,r4,r5,r6,r7,pc}                
                            ;************************************************************************************************
                            ;*                                           FUNCTION                                           *
                            ;************************************************************************************************
                            ;undefined4 FUN_0003c91c(ushort * param_1, int param_2, ushort * param_3, uint param_4)
          ;param_1       ushort *            r0                      
          ;param_2       int                 r1                      
          ;param_3       ushort *            r2                      
          ;param_4       uint                r3                      
                                                          ;XREF[1,0]:   0003c69e
ram:0003c91c    70b5            push        {r4,r5,r6,lr}                           
ram:0003c91e    1446            mov         r4,param_3                              
ram:0003c920    8288            ldrh        param_3,[param_1,#0x4]                  
ram:0003c922    0e46            mov         r6,param_2                              
ram:0003c924    0546            mov         r5,param_1                              
ram:0003c926    2088            ldrh        param_1,[r4,#0x0]                       
ram:0003c928    111d            adds        param_2,param_3,#0x4                    
ram:0003c92a    4118            adds        param_2,param_1,param_2                 
ram:0003c92c    921c            adds        param_3,param_3,#0x2                    
ram:0003c92e    9942            cmp         param_2,param_4                         
ram:0003c930    01d8            bhi         LAB_0003c936                            
ram:0003c932    fe2a            cmp         param_3,#0xfe                           
ram:0003c934    01d9            bls         LAB_0003c93a                            
                            LAB_0003c936:                 ;XREF[1,0]:   0003c930
ram:0003c936    0c20            movs        param_1,#0xc                            
ram:0003c938    70bd            pop         {r4,r5,r6,pc}                           
                            LAB_0003c93a:                 ;XREF[1,0]:   0003c934
ram:0003c93a    521c            adds        param_3,param_3,#0x1                    
ram:0003c93c    3254            strb        param_3,[r6,param_1]                    
ram:0003c93e    2088            ldrh        param_1,[r4,#0x0]                       
ram:0003c940    ff21            movs        param_2,#0xff                           
ram:0003c942    401c            adds        param_1,param_1,#0x1                    
ram:0003c944    80b2            uxth        param_1,param_1                         
ram:0003c946    2080            strh        param_1,[r4,#0x0]                       
ram:0003c948    3154            strb        param_2,[r6,param_1]                    
ram:0003c94a    2088            ldrh        param_1,[r4,#0x0]                       
ram:0003c94c    401c            adds        param_1,param_1,#0x1                    
ram:0003c94e    80b2            uxth        param_1,param_1                         
ram:0003c950    2080            strh        param_1,[r4,#0x0]                       
ram:0003c952    8119            adds        param_2,param_1,r6                      
ram:0003c954    2888            ldrh        param_1,[r5,#0x0]                       
ram:0003c956    fff7f3fe        bl          FUN_0003c740                            ;undefined4 FUN_0003c740(undefined4 p...
ram:0003c95a    2188            ldrh        param_2,[r4,#0x0]                       
ram:0003c95c    4018            adds        param_1,param_1,param_2                 
ram:0003c95e    80b2            uxth        param_1,param_1                         
ram:0003c960    2080            strh        param_1,[r4,#0x0]                       
ram:0003c962    aa88            ldrh        param_3,[r5,#0x4]                       
ram:0003c964    002a            cmp         param_3,#0x0                            
ram:0003c966    09d0            beq         LAB_0003c97c                            
ram:0003c968    a968            ldr         param_2,[r5,#0x8]                       
ram:0003c96a    0029            cmp         param_2,#0x0                            
ram:0003c96c    08d0            beq         LAB_0003c980                            
ram:0003c96e    8019            adds        param_1,param_1,r6                      
ram:0003c970    02f092fb        bl          FUN_0003f098                            ;undefined FUN_0003f098(undefined4 * ...
ram:0003c974    2088            ldrh        param_1,[r4,#0x0]                       
ram:0003c976    a988            ldrh        param_2,[r5,#0x4]                       
ram:0003c978    4018            adds        param_1,param_1,param_2                 
ram:0003c97a    2080            strh        param_1,[r4,#0x0]                       
                            LAB_0003c97c:                 ;XREF[1,0]:   0003c966
ram:0003c97c    0020            movs        param_1,#0x0                            
ram:0003c97e    70bd            pop         {r4,r5,r6,pc}                           
                            LAB_0003c980:                 ;XREF[1,0]:   0003c96c
ram:0003c980    0720            movs        param_1,#0x7                            
ram:0003c982    70bd            pop         {r4,r5,r6,pc}                           
                            ;************************************************************************************************
                            ;*                                           FUNCTION                                           *
                            ;************************************************************************************************
                            ;undefined4 FUN_0003c984(int param_1, int param_2, ushort * param_3)
          ;param_1       int                 r0                      
          ;param_2       int                 r1                      
          ;param_3       ushort *            r2                      
          ;local_20      undefined4         -20                      ;XREF[4,0]:   0003c9b4,0003c9c4,0003c9d0,0003c9ee
          ;local_28      undefined4         -28                      ;XREF[2,0]:   0003c998,0003ca00
                                                          ;XREF[1,0]:   0003c6b6
ram:0003c984    ffb5            push        {param_1,param_2,param_3,r3,r4,r5,r6,...
ram:0003c986    0746            mov         r7,param_1                              
ram:0003c988    806a            ldr         param_1,[param_1,#0x28]                 
ram:0003c98a    81b0            sub         sp,#0x4                                 
ram:0003c98c    1446            mov         r4,param_3                              
ram:0003c98e    0028            cmp         param_1,#0x0                            
ram:0003c990    3dd0            beq         LAB_0003ca0e                            
ram:0003c992    0025            movs        r5,#0x0                                 
ram:0003c994    3846            mov         param_1,r7                              
ram:0003c996    2030            adds        param_1,#0x20                           
ram:0003c998    0090            str         param_1,[sp,#0x0]=>local_28             
ram:0003c99a    33e0            b           LAB_0003ca04                            
                            LAB_0003c99c:                 ;XREF[1,0]:   0003ca08
ram:0003c99c    0c20            movs        param_1,#0xc                            
ram:0003c99e    b96a            ldr         param_2,[r7,#0x28]                      
ram:0003c9a0    6843            muls        param_1,r5                              
ram:0003c9a2    0e18            adds        r6,param_2,param_1                      
ram:0003c9a4    b088            ldrh        param_1,[r6,#0x4]                       
ram:0003c9a6    801c            adds        param_1,param_1,#0x2                    
ram:0003c9a8    fe28            cmp         param_1,#0xfe                           
ram:0003c9aa    02d9            bls         LAB_0003c9b2                            
ram:0003c9ac    0c20            movs        param_1,#0xc                            
                            LAB_0003c9ae:                 ;XREF[2,0]:   0003ca0c,0003ca10
ram:0003c9ae    05b0            add         sp,#0x14                                
ram:0003c9b0    f0bd            pop         {r4,r5,r6,r7,pc}                        
                            LAB_0003c9b2:                 ;XREF[1,0]:   0003c9aa
ram:0003c9b2    2288            ldrh        param_3,[r4,#0x0]                       
ram:0003c9b4    0299            ldr         param_2,[sp,#local_20+0x28]             
ram:0003c9b6    401c            adds        param_1,param_1,#0x1                    
ram:0003c9b8    8854            strb        param_1,[param_2,param_3]               
ram:0003c9ba    2088            ldrh        param_1,[r4,#0x0]                       
ram:0003c9bc    1622            movs        param_3,#0x16                           
ram:0003c9be    401c            adds        param_1,param_1,#0x1                    
ram:0003c9c0    80b2            uxth        param_1,param_1                         
ram:0003c9c2    2080            strh        param_1,[r4,#0x0]                       
ram:0003c9c4    0299            ldr         param_2,[sp,#local_20+0x28]             
ram:0003c9c6    0a54            strb        param_3,[param_2,param_1]               
ram:0003c9c8    2088            ldrh        param_1,[r4,#0x0]                       
ram:0003c9ca    401c            adds        param_1,param_1,#0x1                    
ram:0003c9cc    80b2            uxth        param_1,param_1                         
ram:0003c9ce    2080            strh        param_1,[r4,#0x0]                       
ram:0003c9d0    0299            ldr         param_2,[sp,#local_20+0x28]             
ram:0003c9d2    4118            adds        param_2,param_1,param_2                 
ram:0003c9d4    3088            ldrh        param_1,[r6,#0x0]                       
ram:0003c9d6    fff7b3fe        bl          FUN_0003c740                            ;undefined4 FUN_0003c740(undefined4 p...
ram:0003c9da    2188            ldrh        param_2,[r4,#0x0]                       
ram:0003c9dc    4018            adds        param_1,param_1,param_2                 
ram:0003c9de    80b2            uxth        param_1,param_1                         
ram:0003c9e0    2080            strh        param_1,[r4,#0x0]                       
ram:0003c9e2    b288            ldrh        param_3,[r6,#0x4]                       
ram:0003c9e4    002a            cmp         param_3,#0x0                            
ram:0003c9e6    0ad0            beq         LAB_0003c9fe                            
ram:0003c9e8    b168            ldr         param_2,[r6,#0x8]                       
ram:0003c9ea    0029            cmp         param_2,#0x0                            
ram:0003c9ec    0fd0            beq         LAB_0003ca0e                            
ram:0003c9ee    029b            ldr         r3,[sp,#local_20+0x28]                  
ram:0003c9f0    c018            adds        param_1,param_1,r3                      
ram:0003c9f2    02f051fb        bl          FUN_0003f098                            ;undefined FUN_0003f098(undefined4 * ...
ram:0003c9f6    2088            ldrh        param_1,[r4,#0x0]                       
ram:0003c9f8    b188            ldrh        param_2,[r6,#0x4]                       
ram:0003c9fa    4018            adds        param_1,param_1,param_2                 
ram:0003c9fc    2080            strh        param_1,[r4,#0x0]                       
                            LAB_0003c9fe:                 ;XREF[1,0]:   0003c9e6
ram:0003c9fe    6d1c            adds        r5,r5,#0x1                              
ram:0003ca00    0098            ldr         param_1,[sp,#0x0]=>local_28             
ram:0003ca02    edb2            uxtb        r5,r5                                   
                            LAB_0003ca04:                 ;XREF[1,0]:   0003c99a
ram:0003ca04    007b            ldrb        param_1,[param_1,#0xc]                  
ram:0003ca06    a842            cmp         param_1,r5                              
ram:0003ca08    c8d8            bhi         LAB_0003c99c                            
ram:0003ca0a    0020            movs        param_1,#0x0                            
ram:0003ca0c    cfe7            b           LAB_0003c9ae                            
                            LAB_0003ca0e:                 ;XREF[2,0]:   0003c990,0003c9ec
ram:0003ca0e    0720            movs        param_1,#0x7                            
ram:0003ca10    cde7            b           LAB_0003c9ae                            
ram:0003ca12    0000            movs        r0,r0                                   
                            DAT_0003ca14:                 ;XREF[1,0]:   0003c8bc
ram:0003ca14    ffff0000        undefined4  0000FFFFh                               
                            ;************************************************************************************************
                            ;*                                           FUNCTION                                           *
                            ;************************************************************************************************
                            ;undefined LAB_0003ca18+1(void)
          ;local_10      undefined1         -10                      ;XREF[1,0]:   0003ca68
                                                          ;XREF[0,2]:   0003caa6,0003cbc4
ram:0003ca18    38b5            push        {r3,r4,r5,lr}                           
ram:0003ca1a    6749            ldr         r1,[DAT_0003cbb8]                       ;= 20002C02h
ram:0003ca1c    674a            ldr         r2,[DAT_0003cbbc]                       ;= 0000FFFFh
ram:0003ca1e    4888            ldrh        r0,[r1,#0x2]=>DAT_20002c04              
ram:0003ca20    9042            cmp         r0,r2                                   
ram:0003ca22    0fd0            beq         LAB_0003ca44                            
ram:0003ca24    4a78            ldrb        r2,[r1,#0x1]=>DAT_20002c03              
ram:0003ca26    664c            ldr         r4,[DAT_0003cbc0]                       ;= 20003058h
ram:0003ca28    521c            adds        r2,r2,#0x1                              
ram:0003ca2a    d2b2            uxtb        r2,r2                                   
ram:0003ca2c    4a70            strb        r2,[r1,#0x1]=>DAT_20002c03              
ram:0003ca2e    237b            ldrb        r3,[r4,#0xc]=>DAT_20003064              
ram:0003ca30    9342            cmp         r3,r2                                   
ram:0003ca32    08d3            bcc         LAB_0003ca46                            
ram:0003ca34    091d            adds        r1,r1,#0x4                              
ram:0003ca36    75df            svc         0x75                                    
ram:0003ca38    0028            cmp         r0,#0x0                                 
ram:0003ca3a    03d0            beq         LAB_0003ca44                            
ram:0003ca3c    a169            ldr         r1,[r4,#0x18]=>DAT_20003070             
ram:0003ca3e    0029            cmp         r1,#0x0                                 
ram:0003ca40    00d0            beq         LAB_0003ca44                            
ram:0003ca42    8847            blx         r1                                      
                            LAB_0003ca44:                 ;XREF[4,0]:   0003ca22,0003ca3a,0003ca40,0003ca64
ram:0003ca44    38bd            pop         {r3,r4,r5,pc}                           
                            LAB_0003ca46:                 ;XREF[1,0]:   0003ca32
ram:0003ca46    0025            movs        r5,#0x0                                 
ram:0003ca48    4d70            strb        r5,[r1,#0x1]=>DAT_20002c03              
ram:0003ca4a    217c            ldrb        r1,[r4,#0x10]=>DAT_20003068             
ram:0003ca4c    0029            cmp         r1,#0x0                                 
ram:0003ca4e    07d0            beq         LAB_0003ca60                            
ram:0003ca50    3b21            movs        r1,#0x3b                                
ram:0003ca52    76df            svc         0x76                                    
ram:0003ca54    0028            cmp         r0,#0x0                                 
ram:0003ca56    03d0            beq         LAB_0003ca60                            
ram:0003ca58    a169            ldr         r1,[r4,#0x18]=>DAT_20003070             
ram:0003ca5a    0029            cmp         r1,#0x0                                 
ram:0003ca5c    00d0            beq         LAB_0003ca60                            
ram:0003ca5e    8847            blx         r1                                      
                            LAB_0003ca60:                 ;XREF[3,0]:   0003ca4e,0003ca56,0003ca5c
ram:0003ca60    6169            ldr         r1,[r4,#0x14]=>DAT_2000306c             
ram:0003ca62    0029            cmp         r1,#0x0                                 
ram:0003ca64    eed0            beq         LAB_0003ca44                            
ram:0003ca66    6846            mov         r0,sp                                   
ram:0003ca68    0570            strb        r5,[r0,#0x0]=>local_10                  
ram:0003ca6a    8847            blx         r1                                      
ram:0003ca6c    38bd            pop         {r3,r4,r5,pc}                           
                            ;************************************************************************************************
                            ;*                                           FUNCTION                                           *
                            ;************************************************************************************************
                            ;undefined FUN_0003ca6e(undefined4 * param_1)
          ;param_1       undefined4 *        r0                      
                                                          ;XREF[1,0]:   0003e4a0
ram:0003ca6e    70b5            push        {r4,r5,r6,lr}                           
ram:0003ca70    0546            mov         r5,param_1                              
ram:0003ca72    0146            mov         r1,param_1                              
ram:0003ca74    1c22            movs        r2,#0x1c                                
ram:0003ca76    5248            ldr         param_1,[DAT_0003cbc0]                  ;= 20003058h
ram:0003ca78    02f00efb        bl          FUN_0003f098                            ;undefined FUN_0003f098(undefined4 * ...
ram:0003ca7c    4e4c            ldr         r4,[DAT_0003cbb8]                       ;= 20002C02h
ram:0003ca7e    0026            movs        r6,#0x0                                 
ram:0003ca80    2670            strb        r6,[r4,#0x0]=>DAT_20002c02              
ram:0003ca82    2968            ldr         r1,[r5,#0x0]                            
ram:0003ca84    0029            cmp         r1,#0x0                                 
ram:0003ca86    06d0            beq         LAB_0003ca96                            
ram:0003ca88    0822            movs        r2,#0x8                                 
ram:0003ca8a    201d            adds        param_1=>DAT_20002c06,r4,#0x4           
ram:0003ca8c    02f004fb        bl          FUN_0003f098                            ;undefined FUN_0003f098(undefined4 * ...
ram:0003ca90    201d            adds        param_1,r4,#0x4                         
ram:0003ca92    7adf            svc         0x7a                                    
ram:0003ca94    02e0            b           LAB_0003ca9c                            
                            LAB_0003ca96:                 ;XREF[1,0]:   0003ca86
ram:0003ca96    4848            ldr         param_1,[DAT_0003cbb8]                  ;= 20002C02h
ram:0003ca98    001d            adds        param_1,param_1,#0x4                    
ram:0003ca9a    7bdf            svc         0x7b                                    
                            LAB_0003ca9c:                 ;XREF[1,0]:   0003ca94
ram:0003ca9c    0028            cmp         param_1,#0x0                            
ram:0003ca9e    07d1            bne         LAB_0003cab0                            
ram:0003caa0    401e            subs        param_1,param_1,#0x1                    
ram:0003caa2    6080            strh        param_1,[r4,#0x2]=>DAT_20002c04         
ram:0003caa4    6670            strb        r6,[r4,#0x1]=>DAT_20002c03              
ram:0003caa6    474a            ldr         r2=>LAB_0003ca18...,[PTR_LAB_0003ca18...;= 0003ca19
ram:0003caa8    0021            movs        r1,#0x0                                 
ram:0003caaa    4748            ldr         param_1=>DAT_0003f180,[PTR_DAT_0003cbc8];= 20003038h
                                                                                    ;= 0003f180
ram:0003caac    00f010fe        bl          FUN_0003d6d0                            ;undefined4 FUN_0003d6d0(int * param_...
                            LAB_0003cab0:                 ;XREF[1,0]:   0003ca9e
ram:0003cab0    70bd            pop         {r4,r5,r6,pc}                           
                            ;************************************************************************************************
                            ;*                                           FUNCTION                                           *
                            ;************************************************************************************************
                            ;undefined FUN_0003cab2(undefined4 param_1, undefined4 param_2, undefined4 param_3, undefined4 param_4)
          ;param_1       undefined4          r0                      
          ;param_2       undefined4          r1                      
          ;param_3       undefined4          r2                      
          ;param_4       undefined4          r3                      
                                                          ;XREF[1,0]:   0003e058
ram:0003cab2    10b5            push        {r4,lr}                                 
ram:0003cab4    4448            ldr         param_1,[PTR_DAT_0003cbc8]              ;= 0003f180
ram:0003cab6    0068            ldr         param_1,[param_1,#0x0]=>DAT_0003f180    ;= 20003038h
ram:0003cab8    00f07dfe        bl          FUN_0003d7b6                            ;undefined4 FUN_0003d7b6(int param_1,...
ram:0003cabc    10bd            pop         {r4,pc}                                 
                            ;************************************************************************************************
                            ;*                                           FUNCTION                                           *
                            ;************************************************************************************************
                            ;undefined FUN_0003cabe(void)
          ;local_18      undefined1         -18                      ;XREF[2,0]:   0003cadc,0003caf0
                                                          ;XREF[1,0]:   0003cb54
ram:0003cabe    f8b5            push        {r3,r4,r5,r6,r7,lr}                     
ram:0003cac0    3d48            ldr         r0,[DAT_0003cbb8]                       ;= 20002C02h
ram:0003cac2    0c30            adds        r0,#0xc                                 
ram:0003cac4    00f06bf8        bl          FUN_0003cb9e                            ;undefined4 FUN_0003cb9e(int param_1)
ram:0003cac8    0026            movs        r6,#0x0                                 
ram:0003caca    3b4d            ldr         r5,[DAT_0003cbb8]                       ;= 20002C02h
ram:0003cacc    3c4c            ldr         r4,[DAT_0003cbc0]                       ;= 20003058h
ram:0003cace    0028            cmp         r0,#0x0                                 
ram:0003cad0    07d0            beq         LAB_0003cae2                            
ram:0003cad2    6169            ldr         r1,[r4,#0x14]=>DAT_2000306c             
ram:0003cad4    0029            cmp         r1,#0x0                                 
ram:0003cad6    1cd0            beq         LAB_0003cb12                            
ram:0003cad8    0120            movs        r0,#0x1                                 
ram:0003cada    6a46            mov         r2,sp                                   
ram:0003cadc    1070            strb        r0,[r2,#0x0]=>local_18                  
ram:0003cade    6846            mov         r0,sp                                   
ram:0003cae0    16e0            b           LAB_0003cb10                            
                            LAB_0003cae2:                 ;XREF[1,0]:   0003cad0
ram:0003cae2    2878            ldrb        r0,[r5,#0x0]=>DAT_20002c02              
ram:0003cae4    0028            cmp         r0,#0x0                                 
ram:0003cae6    05d0            beq         LAB_0003caf4                            
ram:0003cae8    6169            ldr         r1,[r4,#0x14]=>DAT_2000306c             
ram:0003caea    0029            cmp         r1,#0x0                                 
ram:0003caec    11d0            beq         LAB_0003cb12                            
ram:0003caee    6846            mov         r0,sp                                   
ram:0003caf0    0670            strb        r6,[r0,#0x0]=>local_18                  
ram:0003caf2    0de0            b           LAB_0003cb10                            
                            LAB_0003caf4:                 ;XREF[1,0]:   0003cae6
ram:0003caf4    6878            ldrb        r0,[r5,#0x1]=>DAT_20002c03              
ram:0003caf6    0028            cmp         r0,#0x0                                 
ram:0003caf8    0dd0            beq         LAB_0003cb16                            
ram:0003cafa    a168            ldr         r1,[r4,#0x8]=>DAT_20003060              
                            LAB_0003cafc:                 ;XREF[1,0]:   0003cb18
ram:0003cafc    3248            ldr         r0,[PTR_DAT_0003cbc8]                   ;= 0003f180
ram:0003cafe    0022            movs        r2,#0x0                                 
ram:0003cb00    0068            ldr         r0,[r0,#0x0]=>DAT_0003f180              ;= 20003038h
ram:0003cb02    00f01ffe        bl          FUN_0003d744                            ;longlong FUN_0003d744(int param_1, u...
ram:0003cb06    0028            cmp         r0,#0x0                                 
ram:0003cb08    03d0            beq         LAB_0003cb12                            
ram:0003cb0a    a169            ldr         r1,[r4,#0x18]=>DAT_20003070             
ram:0003cb0c    0029            cmp         r1,#0x0                                 
ram:0003cb0e    00d0            beq         LAB_0003cb12                            
                            LAB_0003cb10:                 ;XREF[2,0]:   0003cae0,0003caf2
ram:0003cb10    8847            blx         r1                                      
                            LAB_0003cb12:                 ;XREF[4,0]:   0003cad6,0003caec,0003cb08,0003cb0e
ram:0003cb12    2e70            strb        r6,[r5,#0x0]=>DAT_20002c02              
ram:0003cb14    f8bd            pop         {r3,r4,r5,r6,r7,pc}                     
                            LAB_0003cb16:                 ;XREF[1,0]:   0003caf8
ram:0003cb16    6168            ldr         r1,[r4,#0x4]=>DAT_2000305c              
ram:0003cb18    f0e7            b           LAB_0003cafc                            
                            ;************************************************************************************************
                            ;*                                           FUNCTION                                           *
                            ;************************************************************************************************
                            ;undefined FUN_0003cb1a(ushort * param_1, undefined4 param_2, undefined4 param_3, uint param_4)
          ;param_1       ushort *            r0                      
          ;param_2       undefined4          r1                      
          ;param_3       undefined4          r2                      
          ;param_4       uint                r3                      
                                                          ;XREF[1,0]:   0003e39e
ram:0003cb1a    f8b5            push        {param_4,r4,r5,r6,r7,lr}                
ram:0003cb1c    284c            ldr         r4,[DAT_0003cbc0]                       ;= 20003058h
ram:0003cb1e    0288            ldrh        param_3,[param_1,#0x0]                  
ram:0003cb20    0027            movs        r7,#0x0                                 
ram:0003cb22    254d            ldr         r5,[DAT_0003cbb8]                       ;= 20002C02h
ram:0003cb24    e689            ldrh        r6,[r4,#0xe]=>DAT_20003066              
ram:0003cb26    102a            cmp         param_3,#0x10                           
ram:0003cb28    17d0            beq         LAB_0003cb5a                            
ram:0003cb2a    2749            ldr         param_2=>DAT_0003f180,[PTR_DAT_0003cbc8];= 20003038h
                                                                                    ;= 0003f180
ram:0003cb2c    112a            cmp         param_3,#0x11                           
ram:0003cb2e    21d0            beq         LAB_0003cb74                            
ram:0003cb30    122a            cmp         param_3,#0x12                           
ram:0003cb32    2dd0            beq         LAB_0003cb90                            
ram:0003cb34    502a            cmp         param_3,#0x50                           
ram:0003cb36    0fd1            bne         LAB_0003cb58                            
ram:0003cb38    c288            ldrh        param_3,[param_1,#0x6]                  
ram:0003cb3a    801d            adds        param_1,param_1,#0x6                    
ram:0003cb3c    b242            cmp         param_3,r6                              
ram:0003cb3e    0bd1            bne         LAB_0003cb58                            
ram:0003cb40    4289            ldrh        param_3,[param_1,#0xa]                  
ram:0003cb42    022a            cmp         param_3,#0x2                            
ram:0003cb44    08d1            bne         LAB_0003cb58                            
ram:0003cb46    427b            ldrb        param_3,[param_1,#0xd]                  
ram:0003cb48    037b            ldrb        param_4,[param_1,#0xc]                  
ram:0003cb4a    1002            lsls        param_1,param_3,#0x8                    
ram:0003cb4c    1843            orrs        param_1,param_4                         
ram:0003cb4e    c007            lsls        param_1,param_1,#0x1f                   
ram:0003cb50    c00f            lsrs        param_1,param_1,#0x1f                   
ram:0003cb52    13d0            beq         LAB_0003cb7c                            
                            LAB_0003cb54:                 ;XREF[2,0]:   0003cb70,0003cb9c
ram:0003cb54    fff7b3ff        bl          FUN_0003cabe                            ;undefined FUN_0003cabe(void)
                            LAB_0003cb58:                 ;XREF[3,0]:   0003cb36,0003cb3e,0003cb44
ram:0003cb58    f8bd            pop         {param_4,r4,r5,r6,r7,pc}                
                            LAB_0003cb5a:                 ;XREF[1,0]:   0003cb28
ram:0003cb5a    8188            ldrh        param_2,[param_1,#0x4]                  
ram:0003cb5c    6980            strh        param_2,[r5,#0x2]=>DAT_20002c04         
ram:0003cb5e    0146            mov         param_2,param_1                         
ram:0003cb60    1548            ldr         param_1,[DAT_0003cbb8]                  ;= 20002C02h
ram:0003cb62    0822            movs        param_3,#0x8                            
ram:0003cb64    1831            adds        param_2,#0x18                           
ram:0003cb66    0c30            adds        param_1,#0xc                            
ram:0003cb68    02f096fa        bl          FUN_0003f098                            ;undefined FUN_0003f098(undefined4 * ...
ram:0003cb6c    6f70            strb        r7,[r5,#0x1]=>DAT_20002c03              
ram:0003cb6e    002e            cmp         r6,#0x0                                 
ram:0003cb70    f0d0            beq         LAB_0003cb54                            
                            LAB_0003cb72:                 ;XREF[2,0]:   0003cb84,0003cb8a
ram:0003cb72    f8bd            pop         {param_4,r4,r5,r6,r7,pc}                
                            LAB_0003cb74:                 ;XREF[1,0]:   0003cb2e
ram:0003cb74    0020            movs        param_1,#0x0                            
ram:0003cb76    c043            mvns        param_1,param_1                         
ram:0003cb78    6880            strh        param_1,[r5,#0x2]=>DAT_20002c04         
ram:0003cb7a    6f70            strb        r7,[r5,#0x1]=>DAT_20002c03              
                            LAB_0003cb7c:                 ;XREF[1,0]:   0003cb52
ram:0003cb7c    0868            ldr         param_1,[param_2,#0x0]=>DAT_0003f180    ;= 20003038h
ram:0003cb7e    00f01afe        bl          FUN_0003d7b6                            ;undefined4 FUN_0003d7b6(int param_1,...
ram:0003cb82    0028            cmp         param_1,#0x0                            
ram:0003cb84    f5d0            beq         LAB_0003cb72                            
ram:0003cb86    a169            ldr         param_2,[r4,#0x18]=>DAT_20003070        
ram:0003cb88    0029            cmp         param_2,#0x0                            
ram:0003cb8a    f2d0            beq         LAB_0003cb72                            
ram:0003cb8c    8847            blx         param_2                                 
ram:0003cb8e    f8bd            pop         {param_4,r4,r5,r6,r7,pc}                
                            LAB_0003cb90:                 ;XREF[1,0]:   0003cb32
ram:0003cb90    0822            movs        param_3,#0x8                            
ram:0003cb92    8118            adds        param_2,param_1,param_3                 
ram:0003cb94    0848            ldr         param_1,[DAT_0003cbb8]                  ;= 20002C02h
ram:0003cb96    0c30            adds        param_1,#0xc                            
ram:0003cb98    02f07efa        bl          FUN_0003f098                            ;undefined FUN_0003f098(undefined4 * ...
ram:0003cb9c    dae7            b           LAB_0003cb54                            
                            ;************************************************************************************************
                            ;*                                           FUNCTION                                           *
                            ;************************************************************************************************
                            ;undefined4 FUN_0003cb9e(int param_1)
          ;param_1       int                 r0                      
                                                          ;XREF[1,0]:   0003cac4
ram:0003cb9e    4188            ldrh        r1,[param_1,#0x2]                       
ram:0003cba0    0548            ldr         param_1,[DAT_0003cbb8]                  ;= 20002C02h
ram:0003cba2    001d            adds        param_1,param_1,#0x4                    
ram:0003cba4    0288            ldrh        r2,[param_1,#0x0]=>DAT_20002c06         
ram:0003cba6    9142            cmp         r1,r2                                   
ram:0003cba8    04d3            bcc         LAB_0003cbb4                            
ram:0003cbaa    4088            ldrh        param_1,[param_1,#0x2]=>DAT_20002c08    
ram:0003cbac    8142            cmp         r1,param_1                              
ram:0003cbae    01d8            bhi         LAB_0003cbb4                            
ram:0003cbb0    0120            movs        param_1,#0x1                            
ram:0003cbb2    7047            bx          lr                                      
                            LAB_0003cbb4:                 ;XREF[2,0]:   0003cba8,0003cbae
ram:0003cbb4    0020            movs        param_1,#0x0                            
ram:0003cbb6    7047            bx          lr                                      
                            DAT_0003cbb8:                 ;XREF[9,0]:   0003ca1a,0003ca7c,0003ca96,0003cac0
                                                          ;             0003caca,0003cb22,0003cb60,0003cb94
                                                          ;             0003cba0
ram:0003cbb8    022c0020        undefined4  20002C02h                               
                            DAT_0003cbbc:                 ;XREF[1,0]:   0003ca1c
ram:0003cbbc    ffff0000        undefined4  0000FFFFh                               
                            DAT_0003cbc0:                 ;XREF[4,0]:   0003ca26,0003ca76,0003cacc,0003cb1c
ram:0003cbc0    58300020        undefined4  20003058h                               
                            PTR_LAB_0003ca18+1+1_0003cbc4:;XREF[1,0]:   0003caa6
ram:0003cbc4    19ca0300        addr        LAB_0003ca18+1+1                        
                            PTR_DAT_0003cbc8:             ;XREF[4,0]:   0003caaa,0003cab4,0003cafc,0003cb2a
ram:0003cbc8    80f10300        addr        DAT_0003f180                            ;= 20003038h
                            ;************************************************************************************************
                            ;*                                           FUNCTION                                           *
                            ;************************************************************************************************
                            ;undefined8 FUN_0003cbcc(ushort * param_1, undefined * param_2, char param_3)
          ;param_1       ushort *            r0                      
          ;param_2       undefined *         r1                      
          ;param_3       char                r2                      
          ;local_10      undefined2         -10                      ;XREF[1,0]:   0003cbf8
          ;local_14      undefined4         -14                      ;XREF[2,0]:   0003cc00,0003cc0e
          ;local_18      undefined4         -18                      ;XREF[2,0]:   0003cbfe,0003cc0c
          ;local_1c      undefined4         -1c                      ;XREF[2,0]:   0003cbfc,0003cc08
          ;local_20      undefined4         -20                      ;XREF[2,1]:   0003cbfa,0003cc04,0003cc06
                                                          ;XREF[6,0]:   0003ccec,0003df32,0003df62,0003e544
                                                          ;             0003e5be,0003e614
ram:0003cbcc    30b5            push        {r4,r5,lr}                              
ram:0003cbce    85b0            sub         sp,#0x14                                
ram:0003cbd0    0028            cmp         param_1,#0x0                            
ram:0003cbd2    22d0            beq         LAB_0003cc1a                            
ram:0003cbd4    0388            ldrh        r3,[param_1,#0x0]                       
ram:0003cbd6    fe4c            ldr         r4,[DAT_0003cfd0]                       ;= 0000FFFFh
ram:0003cbd8    a342            cmp         r3,r4                                   
ram:0003cbda    20d0            beq         LAB_0003cc1e                            
ram:0003cbdc    fd4b            ldr         r3,[DAT_0003cfd4]                       ;= 20002C18h
ram:0003cbde    1b78            ldrb        r3,[r3,#0x0]=>DAT_20002c18              
ram:0003cbe0    002b            cmp         r3,#0x0                                 
ram:0003cbe2    1cd0            beq         LAB_0003cc1e                            
ram:0003cbe4    fb4b            ldr         r3,[DAT_0003cfd4]                       ;= 20002C18h
ram:0003cbe6    1025            movs        r5,#0x10                                
ram:0003cbe8    0833            adds        r3,#0x8                                 
ram:0003cbea    1d70            strb        r5,[r3,#0x0]=>DAT_20002c20              
ram:0003cbec    5970            strb        param_2,[r3,#0x1]=>DAT_20002c21         
ram:0003cbee    0024            movs        r4,#0x0                                 
ram:0003cbf0    0125            movs        r5,#0x1                                 
ram:0003cbf2    9a70            strb        param_3,[r3,#0x2]=>DAT_20002c22         
ram:0003cbf4    0322            movs        param_3,#0x3                            
ram:0003cbf6    6946            mov         param_2,sp                              
ram:0003cbf8    0a82            strh        param_3,[r1,#local_10+0x20]             
ram:0003cbfa    0094            str         r4,[sp,#0x0]=>local_20                  
ram:0003cbfc    0194            str         r4,[sp,#local_1c+0x20]                  
ram:0003cbfe    0294            str         r4,[sp,#local_18+0x20]                  
ram:0003cc00    0394            str         r4,[sp,#local_14+0x20]                  
ram:0003cc02    028a            ldrh        param_3,[param_1,#0x10]                 
ram:0003cc04    0a80            strh        param_3,[param_2,#0x0]=>local_20        
ram:0003cc06    8d70            strb        r5,[r1,#local_20+0x22]                  
ram:0003cc08    8c80            strh        r4,[r1,#local_1c+0x20]                  
ram:0003cc0a    04a9            add         param_2,sp,#0x10                        
ram:0003cc0c    0291            str         param_2,[sp,#local_18+0x20]             
ram:0003cc0e    0393            str         r3=>DAT_20002c20,[sp,#local_14+0x20]    
ram:0003cc10    0088            ldrh        param_1,[param_1,#0x0]                  
ram:0003cc12    6946            mov         param_2,sp                              
ram:0003cc14    a6df            svc         0xa6                                    
                            LAB_0003cc16:                 ;XREF[2,0]:   0003cc1c,0003cc20
ram:0003cc16    05b0            add         sp,#0x14                                
ram:0003cc18    30bd            pop         {r4,r5,pc}                              
                            LAB_0003cc1a:                 ;XREF[1,0]:   0003cbd2
ram:0003cc1a    0e20            movs        param_1,#0xe                            
ram:0003cc1c    fbe7            b           LAB_0003cc16                            
                            LAB_0003cc1e:                 ;XREF[2,0]:   0003cbda,0003cbe2
ram:0003cc1e    0820            movs        param_1,#0x8                            
ram:0003cc20    f9e7            b           LAB_0003cc16                            
                            ;************************************************************************************************
                            ;*                                           FUNCTION                                           *
                            ;************************************************************************************************
                            ;undefined8 FUN_0003cc22(ushort * param_1, int param_2)
          ;param_1       ushort *            r0                      
          ;param_2       int                 r1                      
          ;local_1c      undefined4         -1c                      ;XREF[1,0]:   0003cc4e
          ;local_20      undefined4         -20                      ;XREF[2,1]:   0003cc44,0003cc48,0003cc4a
          ;local_24      undefined2         -24                      ;XREF[1,0]:   0003cc68
          ;local_28      undefined4         -28                      ;XREF[1,0]:   0003cc42
          ;local_2a      undefined2         -2a                      ;XREF[1,0]:   0003cc3a
          ;local_2c      undefined2         -2c                      ;XREF[1,0]:   0003cc36
          ;local_2e      undefined1         -2e                      ;XREF[1,0]:   0003cc32
          ;local_30      undefined2         -30                      ;XREF[2,0]:   0003cc72,0003cc9c
          ;local_34      undefined1         -34                      ;XREF[1,0]:   0003cc2e
                                                          ;XREF[1,0]:   0003cde4
ram:0003cc22    f0b5            push        {r4,r5,r6,r7,lr}                        
ram:0003cc24    8bb0            sub         sp,#0x2c                                
ram:0003cc26    0c46            mov         r4,param_2                              
ram:0003cc28    0546            mov         r5,param_1                              
ram:0003cc2a    0221            movs        param_2,#0x2                            
ram:0003cc2c    6846            mov         param_1,sp                              
ram:0003cc2e    0173            strb        param_2,[r0,#local_34+0x40]             
ram:0003cc30    0126            movs        r6,#0x1                                 
ram:0003cc32    8674            strb        r6,[r0,#local_2e+0x40]                  
ram:0003cc34    2289            ldrh        r2,[r4,#0x8]                            
ram:0003cc36    8282            strh        r2,[r0,#local_2c+0x40]                  
ram:0003cc38    6289            ldrh        r2,[r4,#0xa]                            
ram:0003cc3a    c282            strh        r2,[r0,#local_2a+0x40]                  
ram:0003cc3c    2046            mov         param_1,r4                              
ram:0003cc3e    0c30            adds        param_1,#0xc                            
ram:0003cc40    0027            movs        r7,#0x0                                 
ram:0003cc42    0690            str         param_1,[sp,#local_28+0x40]             
ram:0003cc44    0897            str         r7,[sp,#local_20+0x40]                  
ram:0003cc46    6846            mov         param_1,sp                              
ram:0003cc48    0184            strh        param_2,[r0,#local_20+0x40]             
ram:0003cc4a    4784            strh        r7,[r0,#local_20+0x42]                  
ram:0003cc4c    07a8            add         param_1,sp,#0x1c                        
ram:0003cc4e    0990            str         param_1,[sp,#local_1c+0x40]             
ram:0003cc50    a98a            ldrh        param_2,[r5,#0x14]                      
ram:0003cc52    2888            ldrh        param_1,[r5,#0x0]                       
ram:0003cc54    08aa            add         r2,sp,#0x20                             
ram:0003cc56    a5df            svc         0xa5                                    
ram:0003cc58    0028            cmp         param_1,#0x0                            
ram:0003cc5a    04d0            beq         LAB_0003cc66                            
ram:0003cc5c    e96a            ldr         param_2,[r5,#0x2c]                      
ram:0003cc5e    0029            cmp         param_2,#0x0                            
ram:0003cc60    19d0            beq         LAB_0003cc96                            
ram:0003cc62    8847            blx         param_2                                 
ram:0003cc64    17e0            b           LAB_0003cc96                            
                            LAB_0003cc66:                 ;XREF[1,0]:   0003cc5a
ram:0003cc66    6846            mov         param_1,sp                              
ram:0003cc68    808b            ldrh        param_1,[r0,#local_24+0x40]             
ram:0003cc6a    c007            lsls        param_1,param_1,#0x1f                   
ram:0003cc6c    c00f            lsrs        param_1,param_1,#0x1f                   
ram:0003cc6e    12d0            beq         LAB_0003cc96                            
ram:0003cc70    6846            mov         param_1,sp                              
ram:0003cc72    0782            strh        r7,[r0,#local_30+0x40]                  
ram:0003cc74    2888            ldrh        param_1,[r5,#0x0]                       
ram:0003cc76    03a9            add         param_2,sp,#0xc                         
ram:0003cc78    a8df            svc         0xa8                                    
ram:0003cc7a    0028            cmp         param_1,#0x0                            
ram:0003cc7c    12d1            bne         LAB_0003cca4                            
ram:0003cc7e    217b            ldrb        param_2,[r4,#0xc]                       
ram:0003cc80    2046            mov         param_1,r4                              
ram:0003cc82    0d30            adds        param_1,#0xd                            
ram:0003cc84    0b00            movs        r3,param_2                              
                                                          ; FWD[2,0]:   0003cc8a,0003f134
ram:0003cc86    02f055fa        bl          __ARM_common_switch8                    ;= 09h
                                                                                    ;undefined __ARM_common_switch8(void)
                            DAT_0003cc8a:                 ;XREF[1,0]:   0003cc86
ram:0003cc8a    09              undefined1  09h                                     
ram:0003cc8b    42              ??          42h    B                                
ram:0003cc8c    0f              ??          0Fh                                     
ram:0003cc8d    1c              ??          1Ch                                     
ram:0003cc8e    22              ??          22h    "                                
ram:0003cc8f    24              ??          24h    $                                
ram:0003cc90    27              ??          27h    '                                
ram:0003cc91    29              ??          29h    )                                
ram:0003cc92    40              ??          40h    @                                
ram:0003cc93    2b              ??          2Bh    +                                
ram:0003cc94    42              ??          42h    B                                
ram:0003cc95    00              ??          00h                                     
                            LAB_0003cc96:                 ;XREF[3,0]:   0003cc60,0003cc64,0003cc6e
ram:0003cc96    ff20            movs        param_1,#0xff                           
ram:0003cc98    fe30            adds        param_1,#0xfe                           
ram:0003cc9a    6946            mov         param_2,sp                              
ram:0003cc9c    0882            strh        param_1,[r1,#local_30+0x40]             
ram:0003cc9e    2888            ldrh        param_1,[r5,#0x0]                       
ram:0003cca0    03a9            add         param_2,sp,#0xc                         
ram:0003cca2    a8df            svc         0xa8                                    
                            LAB_0003cca4:                 ;XREF[3,0]:   0003cc7c,0003ccc0,0003ccf0
ram:0003cca4    0bb0            add         sp,#0x2c                                
ram:0003cca6    f0bd            pop         {r4,r5,r6,r7,pc}                        
ram:0003cca8    6a46            mov         r2,sp                                   
ram:0003ccaa    1770            strb        r7,[r2,#0x0]                            
ram:0003ccac    0be0            b           FUN_0003ccc6                            
                            ;************************************************************************************************
                            ;*                                           FUNCTION                                           *
                            ;************************************************************************************************
                            ;undefined8 FUN_0003ccae(undefined4 param_1, undefined * param_2)
          ;param_1       undefined4          r0                      
          ;param_2       undefined *         r1                      
                                                          ;XREF[1,0]:   0003cccc
ram:0003ccae    0622            movs        r2,#0x6                                 
ram:0003ccb0    1be0            b           LAB_0003ccea                            
                            ;************************************************************************************************
                            ;*                                           FUNCTION                                           *
                            ;************************************************************************************************
                            ;undefined4 FUN_0003ccb2(undefined4 param_1, undefined param_2, undefined param_3, undefined param_4, undefined param_5, undefined4 param_6, undefined1 param_7)
          ;param_1       undefined4          r0                      
          ;param_2       undefined           r1                      
          ;param_3       undefined           r2                      
          ;param_4       undefined           r3                      
          ;param_5       undefined            0                      
          ;param_6       undefined4           4                      ;XREF[1,0]:   0003ccb6
          ;param_7       undefined1           8                      ;XREF[1,0]:   0003ccb4
                                                          ;XREF[1,0]:   0003ccca
ram:0003ccb2    6946            mov         param_2,sp                              
ram:0003ccb4    0e72            strb        r6,[r1,#param_7]                        
ram:0003ccb6    0190            str         param_1,[sp,#param_6]                   
                            LAB_0003ccb8:                 ;XREF[1,0]:   0003cd04
ram:0003ccb8    aa6a            ldr         param_3,[r5,#0x28]                      
ram:0003ccba    2846            mov         param_1,r5                              
ram:0003ccbc    9047            blx         param_3                                 
ram:0003ccbe    0020            movs        param_1,#0x0                            
ram:0003ccc0    f0e7            b           LAB_0003cca4                            
ram:0003ccc2    6a46            mov         r2,sp                                   
ram:0003ccc4    1670            strb        r6,[r2,#0x0]                            
                            ;************************************************************************************************
                            ;*                                           FUNCTION                                           *
                            ;************************************************************************************************
                            ;longlong FUN_0003ccc6(undefined4 param_1, undefined * param_2)
          ;param_1       undefined4          r0                      
          ;param_2       undefined *         r1                      
                                                          ;XREF[1,0]:   0003ccac
ram:0003ccc6    6289            ldrh        r2,[r4,#0xa]                            
ram:0003ccc8    022a            cmp         r2,#0x2                                 
ram:0003ccca    f2d2            bcs         FUN_0003ccb2                            
ram:0003cccc    efe7            b           FUN_0003ccae                            ;undefined8 FUN_0003ccae(undefined4 p...
ram:0003ccce    0220            movs        r0,#0x2                                 
ram:0003ccd0    00e0            b           FUN_0003ccd4                            ;undefined4 FUN_0003ccd4(undefined pa...
ram:0003ccd2    0320            movs        r0,#0x3                                 
                            ;************************************************************************************************
                            ;*                                           FUNCTION                                           *
                            ;************************************************************************************************
                            ;undefined4 FUN_0003ccd4(undefined param_1, undefined param_2, undefined param_3, undefined param_4, undefined1 param_5)
          ;param_1       undefined           r0                      
          ;param_2       undefined           r1                      
          ;param_3       undefined           r2                      
          ;param_4       undefined           r3                      
          ;param_5       undefined1           0                      ;XREF[1,0]:   0003cd02
                                                          ;XREF[4,0]:   0003ccd0,0003ccda,0003ccde,0003cd0c
ram:0003ccd4    6946            mov         param_2,sp                              
ram:0003ccd6    14e0            b           LAB_0003cd02                            
ram:0003ccd8    0420            movs        r0,#0x4                                 
ram:0003ccda    fbe7            b           FUN_0003ccd4                            ;undefined4 FUN_0003ccd4(undefined pa...
ram:0003ccdc    0520            movs        r0,#0x5                                 
ram:0003ccde    f9e7            b           FUN_0003ccd4                            
ram:0003cce0    6189            ldrh        r1,[r4,#0xa]                            
ram:0003cce2    0329            cmp         r1,#0x3                                 
ram:0003cce4    05d2            bcs         LAB_0003ccf2                            
ram:0003cce6    0322            movs        r2,#0x3                                 
ram:0003cce8    0821            movs        r1,#0x8                                 
                            LAB_0003ccea:                 ;XREF[2,0]:   0003ccb0,0003cd10
ram:0003ccea    2846            mov         param_1,r5                              
ram:0003ccec    fff76eff        bl          FUN_0003cbcc                            ;undefined8 FUN_0003cbcc(ushort * par...
ram:0003ccf0    d8e7            b           LAB_0003cca4                            
                            LAB_0003ccf2:                 ;XREF[1,0]:   0003cce4
ram:0003ccf2    4178            ldrb        r1,[r0,#0x1]                            
ram:0003ccf4    0278            ldrb        r2,[r0,#0x0]                            
ram:0003ccf6    0802            lsls        r0,r1,#0x8                              
ram:0003ccf8    1043            orrs        r0,r2                                   
ram:0003ccfa    6946            mov         r1,sp                                   
ram:0003ccfc    8880            strh        r0,[r1,#0x4]                            
ram:0003ccfe    02d0            beq         FUN_0003cd06                            
ram:0003cd00    0620            movs        r0,#0x6                                 
                            LAB_0003cd02:                 ;XREF[2,0]:   0003ccd6,0003cd08
ram:0003cd02    0870            strb        param_1,[param_2,#0x0]=>param_5         
ram:0003cd04    d8e7            b           LAB_0003ccb8                            
                            ;************************************************************************************************
                            ;*                                           FUNCTION                                           *
                            ;************************************************************************************************
                            ;undefined4 FUN_0003cd06(undefined4 param_1, undefined * param_2)
          ;param_1       undefined4          r0                      
          ;param_2       undefined *         r1                      
                                                          ;XREF[1,0]:   0003ccfe
ram:0003cd06    0720            movs        param_1,#0x7                            
ram:0003cd08    fbe7            b           LAB_0003cd02                            
ram:0003cd0a    0920            movs        r0,#0x9                                 
ram:0003cd0c    e2e7            b           FUN_0003ccd4                            ;undefined4 FUN_0003ccd4(undefined pa...
ram:0003cd0e    0322            movs        r2,#0x3                                 
ram:0003cd10    ebe7            b           LAB_0003ccea                            
                            ;************************************************************************************************
                            ;*                                           FUNCTION                                           *
                            ;************************************************************************************************
                            ;undefined4 * FUN_0003cd12(undefined2 * param_1, int param_2)
          ;param_1       undefined2 *        r0                      
          ;param_2       int                 r1                      
          ;local_24      undefined4         -24                      ;XREF[1,0]:   0003cd32
          ;local_26      undefined1         -26                      ;XREF[1,0]:   0003cd58
          ;local_28      undefined2         -28                      ;XREF[1,0]:   0003cd38
                                                          ;XREF[1,0]:   0003e46e
ram:0003cd12    70b5            push        {r4,r5,r6,lr}                           
ram:0003cd14    86b0            sub         sp,#0x18                                
ram:0003cd16    0e46            mov         r6,param_2                              
ram:0003cd18    0500            movs        r5,param_1                              
ram:0003cd1a    3dd0            beq         LAB_0003cd98                            
ram:0003cd1c    002e            cmp         r6,#0x0                                 
ram:0003cd1e    3bd0            beq         LAB_0003cd98                            
ram:0003cd20    7068            ldr         param_1,[r6,#0x4]                       
ram:0003cd22    0028            cmp         param_1,#0x0                            
ram:0003cd24    38d0            beq         LAB_0003cd98                            
ram:0003cd26    0020            movs        param_1,#0x0                            
ram:0003cd28    c043            mvns        param_1,param_1                         
ram:0003cd2a    ab4b            ldr         r3,[PTR_DAT_0003cfd8]                   ;= 0003f184
ram:0003cd2c    2880            strh        param_1,[r5,#0x0]                       
                                                          ; FWD[4,0]:   0003f184,0003f188,0003f18c,0003f190
ram:0003cd2e    0fcb            ldmia       r3,{param_1,param_2,r2,r3}=>DAT_0003f184;= EABCD123h
                                                                                    ;= 1523785Fh
                                                                                    ;= 1212EFDEh
ram:0003cd30    01ac            add         r4,sp,#0x4                              
ram:0003cd32    0fc4            stmia       r4!=>local_24,{param_1,param_2,r2,r3}   
ram:0003cd34    a948            ldr         param_1,[DAT_0003cfdc]                  ;= 00001530h
ram:0003cd36    6946            mov         param_2,sp                              
ram:0003cd38    0880            strh        param_1,[param_2,#0x0]=>local_28        
ram:0003cd3a    01a8            add         param_1,sp,#0x4                         
ram:0003cd3c    811e            subs        param_2,param_1,#0x2                    
ram:0003cd3e    63df            svc         0x63                                    
ram:0003cd40    a44c            ldr         r4,[DAT_0003cfd4]                       ;= 20002C18h
ram:0003cd42    0028            cmp         param_1,#0x0                            
ram:0003cd44    6060            str         param_1,[r4,#0x4]=>DAT_20002c1c         
ram:0003cd46    25d1            bne         LAB_0003cd94                            
ram:0003cd48    2a1d            adds        r2,r5,#0x4                              
ram:0003cd4a    6946            mov         param_2,sp                              
ram:0003cd4c    0120            movs        param_1,#0x1                            
ram:0003cd4e    a0df            svc         0xa0                                    
ram:0003cd50    6060            str         param_1,[r4,#0x4]=>DAT_20002c1c         
ram:0003cd52    0028            cmp         param_1,#0x0                            
ram:0003cd54    1ed1            bne         LAB_0003cd94                            
ram:0003cd56    6846            mov         param_1,sp                              
ram:0003cd58    8078            ldrb        param_1,[r0,#local_26+0x28]             
ram:0003cd5a    a871            strb        param_1,[r5,#0x6]                       
ram:0003cd5c    2846            mov         param_1,r5                              
ram:0003cd5e    00f0d1f8        bl          FUN_0003cf04                            ;undefined2 FUN_0003cf04(int param_1)
ram:0003cd62    6060            str         param_1,[r4,#0x4]=>DAT_20002c1c         
ram:0003cd64    0028            cmp         param_1,#0x0                            
ram:0003cd66    15d1            bne         LAB_0003cd94                            
ram:0003cd68    2846            mov         param_1,r5                              
ram:0003cd6a    00f05bf9        bl          FUN_0003d024                            ;undefined2 FUN_0003d024(int param_1)
ram:0003cd6e    6060            str         param_1,[r4,#0x4]=>DAT_20002c1c         
ram:0003cd70    0028            cmp         param_1,#0x0                            
ram:0003cd72    0fd1            bne         LAB_0003cd94                            
ram:0003cd74    3146            mov         param_2,r6                              
ram:0003cd76    2846            mov         param_1,r5                              
ram:0003cd78    00f005f9        bl          FUN_0003cf86                            ;undefined8 FUN_0003cf86(int param_1)
ram:0003cd7c    6060            str         param_1,[r4,#0x4]=>DAT_20002c1c         
ram:0003cd7e    0028            cmp         param_1,#0x0                            
ram:0003cd80    08d1            bne         LAB_0003cd94                            
ram:0003cd82    7068            ldr         param_1,[r6,#0x4]                       
ram:0003cd84    a862            str         param_1,[r5,#0x28]                      
ram:0003cd86    b068            ldr         param_1,[r6,#0x8]                       
ram:0003cd88    0028            cmp         param_1,#0x0                            
ram:0003cd8a    00d0            beq         LAB_0003cd8e                            
ram:0003cd8c    e862            str         param_1,[r5,#0x2c]                      
                            LAB_0003cd8e:                 ;XREF[1,0]:   0003cd8a
ram:0003cd8e    0120            movs        param_1,#0x1                            
ram:0003cd90    2070            strb        param_1,[r4,#0x0]=>DAT_20002c18         
ram:0003cd92    0020            movs        param_1,#0x0                            
                            LAB_0003cd94:                 ;XREF[6,0]:   0003cd46,0003cd54,0003cd66,0003cd72
                                                          ;             0003cd80,0003cd9a
ram:0003cd94    06b0            add         sp,#0x18                                
ram:0003cd96    70bd            pop         {r4,r5,r6,pc}                           
                            LAB_0003cd98:                 ;XREF[3,0]:   0003cd1a,0003cd1e,0003cd24
ram:0003cd98    0e20            movs        param_1,#0xe                            
ram:0003cd9a    fbe7            b           LAB_0003cd94                            
                            ;************************************************************************************************
                            ;*                                           FUNCTION                                           *
                            ;************************************************************************************************
                            ;undefined FUN_0003cd9c(ushort * param_1, short * param_2, undefined4 param_3, uint param_4)
          ;param_1       ushort *            r0                      
          ;param_2       short *             r1                      
          ;param_3       undefined4          r2                      
          ;param_4       uint                r3                      
          ;local_10      undefined1         -10                      ;XREF[1,0]:   0003ce0a
          ;local_14      undefined4         -14                      ;XREF[1,0]:   0003ce0e
          ;local_18      undefined1         -18                      ;XREF[1,0]:   0003ce06
                                                          ;XREF[1,0]:   0003e3a8
ram:0003cd9c    3eb5            push        {param_2,param_3,param_4,r4,r5,lr}      
ram:0003cd9e    0028            cmp         param_1,#0x0                            
ram:0003cda0    28d0            beq         LAB_0003cdf4                            
ram:0003cda2    0029            cmp         param_2,#0x0                            
ram:0003cda4    26d0            beq         LAB_0003cdf4                            
ram:0003cda6    826a            ldr         param_3,[param_1,#0x28]                 
ram:0003cda8    002a            cmp         param_3,#0x0                            
ram:0003cdaa    23d0            beq         LAB_0003cdf4                            
ram:0003cdac    0a88            ldrh        param_3,[param_2,#0x0]                  
ram:0003cdae    102a            cmp         param_3,#0x10                           
ram:0003cdb0    21d0            beq         LAB_0003cdf6                            
ram:0003cdb2    112a            cmp         param_3,#0x11                           
ram:0003cdb4    30d0            beq         LAB_0003ce18                            
ram:0003cdb6    502a            cmp         param_3,#0x50                           
ram:0003cdb8    1fd0            beq         LAB_0003cdfa                            
ram:0003cdba    512a            cmp         param_3,#0x51                           
ram:0003cdbc    1ad1            bne         LAB_0003cdf4                            
ram:0003cdbe    0a46            mov         param_3,param_2                         
ram:0003cdc0    0446            mov         r4,param_1                              
ram:0003cdc2    891d            adds        param_2,param_2,#0x6                    
ram:0003cdc4    0878            ldrb        param_1,[param_2,#0x0]                  
ram:0003cdc6    0228            cmp         param_1,#0x2                            
ram:0003cdc8    14d1            bne         LAB_0003cdf4                            
ram:0003cdca    4888            ldrh        param_1,[param_2,#0x2]                  
ram:0003cdcc    238a            ldrh        param_4,[r4,#0x10]                      
ram:0003cdce    9842            cmp         param_1,param_4                         
ram:0003cdd0    10d1            bne         LAB_0003cdf4                            
ram:0003cdd2    907b            ldrb        param_1,[param_3,#0xe]                  
ram:0003cdd4    0428            cmp         param_1,#0x4                            
ram:0003cdd6    0dd0            beq         LAB_0003cdf4                            
ram:0003cdd8    0628            cmp         param_1,#0x6                            
ram:0003cdda    0bd0            beq         LAB_0003cdf4                            
ram:0003cddc    0528            cmp         param_1,#0x5                            
ram:0003cdde    09d0            beq         LAB_0003cdf4                            
ram:0003cde0    2046            mov         param_1,r4                              
ram:0003cde2    891c            adds        param_2,param_2,#0x2                    
ram:0003cde4    fff71dff        bl          FUN_0003cc22                            ;undefined8 FUN_0003cc22(ushort * par...
ram:0003cde8    0028            cmp         param_1,#0x0                            
ram:0003cdea    03d0            beq         LAB_0003cdf4                            
ram:0003cdec    e16a            ldr         param_2,[r4,#0x2c]                      
ram:0003cdee    0029            cmp         param_2,#0x0                            
ram:0003cdf0    00d0            beq         LAB_0003cdf4                            
ram:0003cdf2    8847            blx         param_2                                 
                            LAB_0003cdf4:                 ;XREF[12,0]:  0003cda0,0003cda4,0003cdaa,0003cdbc
                                                          ;             0003cdc8,0003cdd0,0003cdd6,0003cdda
                                                          ;             0003cdde,0003cdea,0003cdf0,0003ce00
ram:0003cdf4    3ebd            pop         {param_2,param_3,param_4,r4,r5,pc}      
                            LAB_0003cdf6:                 ;XREF[1,0]:   0003cdb0
ram:0003cdf6    8988            ldrh        param_2,[param_2,#0x4]                  
ram:0003cdf8    10e0            b           LAB_0003ce1c                            
                            LAB_0003cdfa:                 ;XREF[1,0]:   0003cdb8
ram:0003cdfa    cb88            ldrh        param_4,[param_2,#0x6]                  
ram:0003cdfc    0289            ldrh        param_3,[param_1,#0x8]                  
ram:0003cdfe    9342            cmp         param_4,param_3                         
ram:0003ce00    f8d1            bne         LAB_0003cdf4                            
ram:0003ce02    0822            movs        param_3,#0x8                            
ram:0003ce04    6b46            mov         param_4,sp                              
ram:0003ce06    1a70            strb        param_3,[param_4,#0x0]=>local_18        
ram:0003ce08    0a7c            ldrb        param_3,[param_2,#0x10]                 
ram:0003ce0a    1a72            strb        param_3,[r3,#local_10+0x18]             
ram:0003ce0c    1231            adds        param_2,#0x12                           
ram:0003ce0e    0191            str         param_2,[sp,#local_14+0x18]             
ram:0003ce10    826a            ldr         param_3,[param_1,#0x28]                 
ram:0003ce12    6946            mov         param_2,sp                              
ram:0003ce14    9047            blx         param_3                                 
ram:0003ce16    3ebd            pop         {param_2,param_3,param_4,r4,r5,pc}      
                            LAB_0003ce18:                 ;XREF[1,0]:   0003cdb4
ram:0003ce18    0021            movs        param_2,#0x0                            
ram:0003ce1a    c943            mvns        param_2,param_2                         
                            LAB_0003ce1c:                 ;XREF[1,0]:   0003cdf8
ram:0003ce1c    0180            strh        param_2,[param_1,#0x0]                  
ram:0003ce1e    3ebd            pop         {param_2,param_3,param_4,r4,r5,pc}      
                            ;************************************************************************************************
                            ;*                                           FUNCTION                                           *
                            ;************************************************************************************************
                            ;undefined8 FUN_0003ce20(ushort * param_1, undefined * param_2)
          ;param_1       ushort *            r0                      
          ;param_2       undefined *         r1                      
          ;local_18      undefined2         -18                      ;XREF[3,0]:   0003ce4e,0003ce5e,0003ce64
          ;local_1c      undefined4         -1c                      ;XREF[2,0]:   0003ce6c,0003ce78
          ;local_20      undefined4         -20                      ;XREF[2,0]:   0003ce6a,0003ce7a
          ;local_24      undefined4         -24                      ;XREF[2,0]:   0003ce68,0003ce74
          ;local_28      undefined4         -28                      ;XREF[2,1]:   0003ce66,0003ce70,0003ce72
ram:0003ce20    f0b5            push        {r4,r5,r6,r7,lr}                        
ram:0003ce22    85b0            sub         sp,#0x14                                
ram:0003ce24    0a46            mov         r2,param_2                              
ram:0003ce26    0500            movs        r5,param_1                              
ram:0003ce28    2dd0            beq         LAB_0003ce86                            
ram:0003ce2a    2888            ldrh        param_1,[r5,#0x0]                       
ram:0003ce2c    6849            ldr         param_2,[DAT_0003cfd0]                  ;= 0000FFFFh
ram:0003ce2e    8842            cmp         param_1,param_2                         
ram:0003ce30    2bd0            beq         LAB_0003ce8a                            
ram:0003ce32    6848            ldr         param_1,[DAT_0003cfd4]                  ;= 20002C18h
ram:0003ce34    0078            ldrb        param_1,[param_1,#0x0]=>DAT_20002c18    
ram:0003ce36    0028            cmp         param_1,#0x0                            
ram:0003ce38    27d0            beq         LAB_0003ce8a                            
ram:0003ce3a    664c            ldr         r4,[DAT_0003cfd4]                       ;= 20002C18h
ram:0003ce3c    1020            movs        param_1,#0x10                           
ram:0003ce3e    0834            adds        r4,#0x8                                 
ram:0003ce40    2070            strb        param_1,[r4,#0x0]=>DAT_20002c20         
ram:0003ce42    0720            movs        param_1,#0x7                            
ram:0003ce44    6070            strb        param_1,[r4,#0x1]=>DAT_20002c21         
ram:0003ce46    0127            movs        r7,#0x1                                 
ram:0003ce48    a770            strb        r7,[r4,#0x2]=>DAT_20002c22              
ram:0003ce4a    0321            movs        param_2,#0x3                            
ram:0003ce4c    6846            mov         param_1,sp                              
ram:0003ce4e    0182            strh        param_2,[r0,#local_18+0x28]             
ram:0003ce50    0026            movs        r6,#0x0                                 
ram:0003ce52    e11c            adds        param_2,r4,#0x3                         
ram:0003ce54    1046            mov         param_1,r2                              
ram:0003ce56    00f04cf8        bl          FUN_0003cef2                            ;undefined4 FUN_0003cef2(undefined4 p...
ram:0003ce5a    0146            mov         param_2,param_1                         
ram:0003ce5c    6846            mov         param_1,sp                              
ram:0003ce5e    008a            ldrh        param_1,[r0,#local_18+0x28]             
ram:0003ce60    0918            adds        param_2,param_2,param_1                 
ram:0003ce62    6846            mov         param_1,sp                              
ram:0003ce64    0182            strh        param_2,[r0,#local_18+0x28]             
ram:0003ce66    0096            str         r6,[sp,#0x0]=>local_28                  
ram:0003ce68    0196            str         r6,[sp,#local_24+0x28]                  
ram:0003ce6a    0296            str         r6,[sp,#local_20+0x28]                  
ram:0003ce6c    0396            str         r6,[sp,#local_1c+0x28]                  
ram:0003ce6e    298a            ldrh        param_2,[r5,#0x10]                      
ram:0003ce70    0180            strh        param_2,[param_1,#0x0]=>local_28        
ram:0003ce72    8770            strb        r7,[r0,#local_28+0x2a]                  
ram:0003ce74    8680            strh        r6,[r0,#local_24+0x28]                  
ram:0003ce76    04a8            add         param_1,sp,#0x10                        
ram:0003ce78    0394            str         r4=>DAT_20002c20,[sp,#local_1c+0x28]    
ram:0003ce7a    0290            str         param_1,[sp,#local_20+0x28]             
ram:0003ce7c    2888            ldrh        param_1,[r5,#0x0]                       
ram:0003ce7e    6946            mov         param_2,sp                              
ram:0003ce80    a6df            svc         0xa6                                    
                            ;************************************************************************************************
                            ;*                                           FUNCTION                                           *
                            ;************************************************************************************************
                            ;undefined FUN_0003ce82(void)
                                                          ;XREF[5,0]:   0003ce88,0003ce8c,0003cee8,0003ceec
                                                          ;             0003cef0
ram:0003ce82    05b0            add         sp,#0x14                                
ram:0003ce84    f0bd            pop         {r4,r5,r6,r7,pc}                        
                            LAB_0003ce86:                 ;XREF[1,0]:   0003ce28
ram:0003ce86    0e20            movs        param_1,#0xe                            
ram:0003ce88    fbe7            b           FUN_0003ce82                            
                            LAB_0003ce8a:                 ;XREF[2,0]:   0003ce30,0003ce38
ram:0003ce8a    0820            movs        param_1,#0x8                            
ram:0003ce8c    f9e7            b           FUN_0003ce82                            
                            ;************************************************************************************************
                            ;*                                           FUNCTION                                           *
                            ;************************************************************************************************
                            ;undefined8 FUN_0003ce8e(ushort * param_1, undefined * param_2)
          ;param_1       ushort *            r0                      
          ;param_2       undefined *         r1                      
          ;local_18      undefined2         -18                      ;XREF[3,0]:   0003ceb4,0003cec4,0003ceca
          ;local_1c      undefined4         -1c                      ;XREF[2,0]:   0003ced2,0003cede
          ;local_20      undefined4         -20                      ;XREF[2,0]:   0003ced0,0003cee0
          ;local_24      undefined4         -24                      ;XREF[2,0]:   0003cece,0003ceda
          ;local_28      undefined4         -28                      ;XREF[2,1]:   0003cecc,0003ced6,0003ced8
                                                          ;XREF[1,0]:   0003e006
ram:0003ce8e    f0b5            push        {r4,r5,r6,r7,lr}                        
ram:0003ce90    85b0            sub         sp,#0x14                                
ram:0003ce92    0a46            mov         r2,param_2                              
ram:0003ce94    0500            movs        r5,param_1                              
ram:0003ce96    28d0            beq         LAB_0003ceea                            
ram:0003ce98    2888            ldrh        param_1,[r5,#0x0]                       
ram:0003ce9a    4d49            ldr         param_2,[DAT_0003cfd0]                  ;= 0000FFFFh
ram:0003ce9c    8842            cmp         param_1,param_2                         
ram:0003ce9e    26d0            beq         LAB_0003ceee                            
ram:0003cea0    4c48            ldr         param_1,[DAT_0003cfd4]                  ;= 20002C18h
ram:0003cea2    0078            ldrb        param_1,[param_1,#0x0]=>DAT_20002c18    
ram:0003cea4    0028            cmp         param_1,#0x0                            
ram:0003cea6    22d0            beq         LAB_0003ceee                            
ram:0003cea8    4a4c            ldr         r4,[DAT_0003cfd4]                       ;= 20002C18h
ram:0003ceaa    1120            movs        param_1,#0x11                           
ram:0003ceac    0834            adds        r4,#0x8                                 
ram:0003ceae    2070            strb        param_1,[r4,#0x0]=>DAT_20002c20         
ram:0003ceb0    0127            movs        r7,#0x1                                 
ram:0003ceb2    6846            mov         param_1,sp                              
ram:0003ceb4    0782            strh        r7,[r0,#local_18+0x28]                  
ram:0003ceb6    0026            movs        r6,#0x0                                 
ram:0003ceb8    611c            adds        param_2=>DAT_20002c21,r4,#0x1           
ram:0003ceba    1046            mov         param_1,r2                              
ram:0003cebc    00f019f8        bl          FUN_0003cef2                            ;undefined4 FUN_0003cef2(undefined4 p...
ram:0003cec0    0146            mov         param_2,param_1                         
ram:0003cec2    6846            mov         param_1,sp                              
ram:0003cec4    008a            ldrh        param_1,[r0,#local_18+0x28]             
ram:0003cec6    0918            adds        param_2,param_2,param_1                 
ram:0003cec8    6846            mov         param_1,sp                              
ram:0003ceca    0182            strh        param_2,[r0,#local_18+0x28]             
ram:0003cecc    0096            str         r6,[sp,#0x0]=>local_28                  
ram:0003cece    0196            str         r6,[sp,#local_24+0x28]                  
ram:0003ced0    0296            str         r6,[sp,#local_20+0x28]                  
ram:0003ced2    0396            str         r6,[sp,#local_1c+0x28]                  
ram:0003ced4    298a            ldrh        param_2,[r5,#0x10]                      
ram:0003ced6    0180            strh        param_2,[param_1,#0x0]=>local_28        
ram:0003ced8    8770            strb        r7,[r0,#local_28+0x2a]                  
ram:0003ceda    8680            strh        r6,[r0,#local_24+0x28]                  
ram:0003cedc    04a8            add         param_1,sp,#0x10                        
ram:0003cede    0394            str         r4=>DAT_20002c20,[sp,#local_1c+0x28]    
ram:0003cee0    0290            str         param_1,[sp,#local_20+0x28]             
ram:0003cee2    2888            ldrh        param_1,[r5,#0x0]                       
ram:0003cee4    6946            mov         param_2,sp                              
ram:0003cee6    a6df            svc         0xa6                                    
ram:0003cee8    cbe7            b           FUN_0003ce82                            
                            LAB_0003ceea:                 ;XREF[1,0]:   0003ce96
ram:0003ceea    0e20            movs        param_1,#0xe                            
ram:0003ceec    c9e7            b           FUN_0003ce82                            
                            LAB_0003ceee:                 ;XREF[2,0]:   0003ce9e,0003cea6
ram:0003ceee    0820            movs        param_1,#0x8                            
ram:0003cef0    c7e7            b           FUN_0003ce82                            
                            ;************************************************************************************************
                            ;*                                           FUNCTION                                           *
                            ;************************************************************************************************
                            ;undefined4 FUN_0003cef2(undefined4 param_1, undefined * param_2)
          ;param_1       undefined4          r0                      
          ;param_2       undefined *         r1                      
                                                          ;XREF[2,0]:   0003ce56,0003cebc
ram:0003cef2    0870            strb        param_1,[param_2,#0x0]                  
ram:0003cef4    020a            lsrs        r2,param_1,#0x8                         
ram:0003cef6    4a70            strb        r2,[param_2,#0x1]                       
ram:0003cef8    020c            lsrs        r2,param_1,#0x10                        
ram:0003cefa    8a70            strb        r2,[param_2,#0x2]                       
ram:0003cefc    000e            lsrs        param_1,param_1,#0x18                   
ram:0003cefe    c870            strb        param_1,[param_2,#0x3]                  
ram:0003cf00    0420            movs        param_1,#0x4                            
ram:0003cf02    7047            bx          lr                                      
                            ;************************************************************************************************
                            ;*                                           FUNCTION                                           *
                            ;************************************************************************************************
                            ;undefined2 FUN_0003cf04(int param_1)
          ;param_1       int                 r0                      
          ;local_14      undefined4         -14                      ;XREF[1,0]:   0003cf76
          ;local_18      undefined2         -18                      ;XREF[1,0]:   0003cf74
          ;local_1a      undefined2         -1a                      ;XREF[1,0]:   0003cf72
          ;local_1c      undefined2         -1c                      ;XREF[1,0]:   0003cf6e
          ;local_20      undefined4         -20                      ;XREF[1,0]:   0003cf6a
          ;local_24      undefined4         -24                      ;XREF[1,0]:   0003cf66
          ;local_26      undefined1         -26                      ;XREF[1,0]:   0003cf2e
          ;local_28      undefined2         -28                      ;XREF[1,0]:   0003cf36
          ;local_2c      undefined4         -2c                      ;XREF[2,3]:   0003cf3c,0003cf40,0003cf44,0003cf46,0003cf5a
          ;local_30      undefined4         -30                      ;XREF[1,0]:   0003cf28
          ;local_34      undefined4         -34                      ;XREF[1,0]:   0003cf26
          ;local_38      undefined4         -38                      ;XREF[1,0]:   0003cf24
          ;local_3c      undefined4         -3c                      ;XREF[1,0]:   0003cf22
          ;local_44      undefined4         -44                      ;XREF[1,0]:   0003cf20
          ;local_48      undefined1         -48                      ;XREF[2,0]:   0003cf14,0003cf1c
                                                          ;XREF[1,0]:   0003cd5e
ram:0003cf04    30b5            push        {r4,r5,lr}                              
ram:0003cf06    8fb0            sub         sp,#0x3c                                
ram:0003cf08    0546            mov         r5,param_1                              
ram:0003cf0a    1c21            movs        r1,#0x1c                                
ram:0003cf0c    6846            mov         param_1,sp                              
ram:0003cf0e    02f0dcf8        bl          FUN_0003f0ca                            ;undefined FUN_0003f0ca(undefined * p...
ram:0003cf12    6946            mov         r1,sp                                   
ram:0003cf14    0878            ldrb        param_1,[r1,#0x0]=>local_48             
ram:0003cf16    0421            movs        r1,#0x4                                 
ram:0003cf18    0843            orrs        param_1,r1                              
ram:0003cf1a    6946            mov         r1,sp                                   
ram:0003cf1c    0870            strb        param_1,[r1,#0x0]=>local_48             
ram:0003cf1e    0024            movs        r4,#0x0                                 
ram:0003cf20    0194            str         r4,[sp,#local_44+0x48]                  
ram:0003cf22    0394            str         r4,[sp,#local_3c+0x48]                  
ram:0003cf24    0494            str         r4,[sp,#local_38+0x48]                  
ram:0003cf26    0594            str         r4,[sp,#local_34+0x48]                  
ram:0003cf28    0694            str         r4,[sp,#local_30+0x48]                  
ram:0003cf2a    a879            ldrb        param_1,[r5,#0x6]                       
ram:0003cf2c    08a9            add         r1,sp,#0x20                             
ram:0003cf2e    8870            strb        param_1,[r1,#local_26+0x28]             
ram:0003cf30    2a48            ldr         param_1,[DAT_0003cfdc]                  ;= 00001530h
ram:0003cf32    6946            mov         r1,sp                                   
ram:0003cf34    801c            adds        param_1,param_1,#0x2                    
ram:0003cf36    0884            strh        param_1,[r1,#local_28+0x48]             
ram:0003cf38    601c            adds        param_1,r4,#0x1                         
ram:0003cf3a    0007            lsls        param_1,param_1,#0x1c                   
ram:0003cf3c    0794            str         r4,[sp,#local_2c+0x48]                  
ram:0003cf3e    000f            lsrs        param_1,param_1,#0x1c                   
ram:0003cf40    0c77            strb        r4,[r1,#local_2c+0x48]                  
ram:0003cf42    1030            adds        param_1,#0x10                           
ram:0003cf44    4877            strb        param_1,[r1,#local_2c+0x49]             
ram:0003cf46    8a7f            ldrb        r2,[r1,#local_2c+0x4a]                  
ram:0003cf48    f920            movs        param_1,#0xf9                           
ram:0003cf4a    0240            ands        r2,param_1                              
ram:0003cf4c    f720            movs        param_1,#0xf7                           
ram:0003cf4e    921c            adds        r2,r2,#0x2                              
ram:0003cf50    0240            ands        r2,param_1                              
ram:0003cf52    ef20            movs        param_1,#0xef                           
ram:0003cf54    0240            ands        r2,param_1                              
ram:0003cf56    0120            movs        param_1,#0x1                            
ram:0003cf58    0243            orrs        r2,param_1                              
ram:0003cf5a    8a77            strb        r2,[r1,#local_2c+0x4a]                  
ram:0003cf5c    1421            movs        r1,#0x14                                
ram:0003cf5e    09a8            add         param_1,sp,#0x24                        
ram:0003cf60    02f0b3f8        bl          FUN_0003f0ca                            ;undefined FUN_0003f0ca(undefined * p...
ram:0003cf64    08a8            add         param_1,sp,#0x20                        
ram:0003cf66    0990            str         param_1,[sp,#local_24+0x48]             
ram:0003cf68    07a8            add         param_1,sp,#0x1c                        
ram:0003cf6a    0a90            str         param_1,[sp,#local_20+0x48]             
ram:0003cf6c    6946            mov         r1,sp                                   
ram:0003cf6e    8c85            strh        r4,[r1,#local_1c+0x48]                  
ram:0003cf70    1420            movs        param_1,#0x14                           
ram:0003cf72    cc85            strh        r4,[r1,#local_1a+0x48]                  
ram:0003cf74    0886            strh        param_1,[r1,#local_18+0x48]             
ram:0003cf76    0d94            str         r4,[sp,#local_14+0x48]                  
ram:0003cf78    2b46            mov         r3,r5                                   
ram:0003cf7a    a888            ldrh        param_1,[r5,#0x4]                       
ram:0003cf7c    0833            adds        r3,#0x8                                 
ram:0003cf7e    09aa            add         r2,sp,#0x24                             
ram:0003cf80    a2df            svc         0xa2                                    
                            LAB_0003cf82:                 ;XREF[1,0]:   0003d0a4
ram:0003cf82    0fb0            add         sp,#0x3c                                
ram:0003cf84    30bd            pop         {r4,r5,pc}                              
                            ;************************************************************************************************
                            ;*                                           FUNCTION                                           *
                            ;************************************************************************************************
                            ;undefined8 FUN_0003cf86(int param_1)
          ;param_1       int                 r0                      
          ;local_1c      undefined4         -1c                      ;XREF[1,0]:   0003d012
          ;local_20      undefined2         -20                      ;XREF[1,0]:   0003d010
          ;local_22      undefined2         -22                      ;XREF[1,0]:   0003d00e
          ;local_24      undefined2         -24                      ;XREF[1,0]:   0003d00c
          ;local_28      undefined4         -28                      ;XREF[1,0]:   0003d008
          ;local_2c      undefined4         -2c                      ;XREF[1,0]:   0003d004
          ;local_2e      undefined1         -2e                      ;XREF[1,0]:   0003cfb0
          ;local_30      undefined2         -30                      ;XREF[1,0]:   0003cfb8
          ;local_34      undefined4         -34                      ;XREF[2,3]:   0003cfc4,0003cfc6,0003cfe0,0003cfe2,0003cff8
          ;local_38      undefined4         -38                      ;XREF[1,0]:   0003cfaa
          ;local_3c      undefined4         -3c                      ;XREF[1,0]:   0003cfa8
          ;local_40      undefined4         -40                      ;XREF[1,0]:   0003cfa6
          ;local_44      undefined4         -44                      ;XREF[1,0]:   0003cfa4
          ;local_4c      undefined4         -4c                      ;XREF[1,0]:   0003cfa2
          ;local_50      undefined1         -50                      ;XREF[2,0]:   0003cf98,0003cf9e
                                                          ;XREF[1,0]:   0003cd78
ram:0003cf86    f0b5            push        {r4,r5,r6,r7,lr}                        
ram:0003cf88    8fb0            sub         sp,#0x3c                                
ram:0003cf8a    0f46            mov         r7,r1                                   
ram:0003cf8c    0546            mov         r5,param_1                              
ram:0003cf8e    1c21            movs        r1,#0x1c                                
ram:0003cf90    6846            mov         param_1,sp                              
ram:0003cf92    02f09af8        bl          FUN_0003f0ca                            ;undefined FUN_0003f0ca(undefined * p...
ram:0003cf96    6846            mov         param_1,sp                              
ram:0003cf98    0178            ldrb        r1,[param_1,#0x0]=>local_50             
ram:0003cf9a    0226            movs        r6,#0x2                                 
ram:0003cf9c    3143            orrs        r1,r6                                   
ram:0003cf9e    0170            strb        r1,[param_1,#0x0]=>local_50             
ram:0003cfa0    0024            movs        r4,#0x0                                 
ram:0003cfa2    0194            str         r4,[sp,#local_4c+0x50]                  
ram:0003cfa4    0394            str         r4,[sp,#local_44+0x50]                  
ram:0003cfa6    0494            str         r4,[sp,#local_40+0x50]                  
ram:0003cfa8    0594            str         r4,[sp,#local_3c+0x50]                  
ram:0003cfaa    0694            str         r4,[sp,#local_38+0x50]                  
ram:0003cfac    a979            ldrb        r1,[r5,#0x6]                            
ram:0003cfae    08a8            add         param_1,sp,#0x20                        
ram:0003cfb0    8170            strb        r1,[r0,#local_2e+0x30]                  
ram:0003cfb2    0a49            ldr         r1,[DAT_0003cfdc]                       ;= 00001530h
ram:0003cfb4    6846            mov         param_1,sp                              
ram:0003cfb6    091d            adds        r1,r1,#0x4                              
ram:0003cfb8    0184            strh        r1,[r0,#local_30+0x50]                  
ram:0003cfba    601c            adds        param_1,r4,#0x1                         
ram:0003cfbc    0107            lsls        r1,param_1,#0x1c                        
ram:0003cfbe    090f            lsrs        r1,r1,#0x1c                             
ram:0003cfc0    6846            mov         param_1,sp                              
ram:0003cfc2    1031            adds        r1,#0x10                                
ram:0003cfc4    0794            str         r4,[sp,#local_34+0x50]                  
ram:0003cfc6    0177            strb        r1,[r0,#local_34+0x50]                  
ram:0003cfc8    0020            movs        param_1,#0x0                            
ram:0003cfca    0146            mov         r1,param_1                              
ram:0003cfcc    6846            mov         param_1,sp                              
ram:0003cfce    07e0            b           LAB_0003cfe0                            
                            DAT_0003cfd0:                 ;XREF[3,0]:   0003cbd6,0003ce2c,0003ce9a
ram:0003cfd0    ffff0000        undefined4  0000FFFFh                               
                            DAT_0003cfd4:                 ;XREF[7,0]:   0003cbdc,0003cbe4,0003cd40,0003ce32
                                                          ;             0003ce3a,0003cea0,0003cea8
ram:0003cfd4    182c0020        undefined4  20002C18h                               
                            PTR_DAT_0003cfd8:             ;XREF[1,0]:   0003cd2a
ram:0003cfd8    84f10300        addr        DAT_0003f184                            ;= EABCD123h
                            DAT_0003cfdc:                 ;XREF[3,0]:   0003cd34,0003cf30,0003cfb2
ram:0003cfdc    30150000        undefined4  00001530h                               
                            LAB_0003cfe0:                 ;XREF[1,0]:   0003cfce
ram:0003cfe0    4177            strb        r1,[r0,#local_34+0x51]                  
ram:0003cfe2    817f            ldrb        r1,[r0,#local_34+0x52]                  
ram:0003cfe4    f920            movs        param_1,#0xf9                           
ram:0003cfe6    0140            ands        r1,param_1                              
ram:0003cfe8    f720            movs        param_1,#0xf7                           
ram:0003cfea    891c            adds        r1,r1,#0x2                              
ram:0003cfec    0140            ands        r1,param_1                              
ram:0003cfee    ef20            movs        param_1,#0xef                           
ram:0003cff0    0140            ands        r1,param_1                              
ram:0003cff2    0120            movs        param_1,#0x1                            
ram:0003cff4    0143            orrs        r1,param_1                              
ram:0003cff6    6846            mov         param_1,sp                              
ram:0003cff8    8177            strb        r1,[r0,#local_34+0x52]                  
ram:0003cffa    1421            movs        r1,#0x14                                
ram:0003cffc    09a8            add         param_1,sp,#0x24                        
ram:0003cffe    02f064f8        bl          FUN_0003f0ca                            ;undefined FUN_0003f0ca(undefined * p...
ram:0003d002    08a8            add         param_1,sp,#0x20                        
ram:0003d004    0990            str         param_1,[sp,#local_2c+0x50]             
ram:0003d006    07a8            add         param_1,sp,#0x1c                        
ram:0003d008    0a90            str         param_1,[sp,#local_28+0x50]             
ram:0003d00a    6846            mov         param_1,sp                              
ram:0003d00c    8685            strh        r6,[r0,#local_24+0x50]                  
ram:0003d00e    c485            strh        r4,[r0,#local_22+0x50]                  
ram:0003d010    0686            strh        r6,[r0,#local_20+0x50]                  
ram:0003d012    0d97            str         r7,[sp,#local_1c+0x50]                  
ram:0003d014    2b46            mov         r3,r5                                   
ram:0003d016    a888            ldrh        param_1,[r5,#0x4]                       
ram:0003d018    2033            adds        r3,#0x20                                
ram:0003d01a    09aa            add         r2,sp,#0x24                             
ram:0003d01c    6946            mov         r1,sp                                   
ram:0003d01e    a2df            svc         0xa2                                    
ram:0003d020    0fb0            add         sp,#0x3c                                
ram:0003d022    f0bd            pop         {r4,r5,r6,r7,pc}                        
                            ;************************************************************************************************
                            ;*                                           FUNCTION                                           *
                            ;************************************************************************************************
                            ;undefined2 FUN_0003d024(int param_1)
          ;param_1       int                 r0                      
          ;local_14      undefined4         -14                      ;XREF[1,0]:   0003d098
          ;local_18      undefined2         -18                      ;XREF[1,0]:   0003d096
          ;local_1a      undefined2         -1a                      ;XREF[1,0]:   0003d094
          ;local_1c      undefined2         -1c                      ;XREF[1,0]:   0003d090
          ;local_20      undefined4         -20                      ;XREF[1,0]:   0003d08c
          ;local_24      undefined4         -24                      ;XREF[1,0]:   0003d088
          ;local_26      undefined1         -26                      ;XREF[1,0]:   0003d052
          ;local_28      undefined2         -28                      ;XREF[1,0]:   0003d058
          ;local_2c      undefined4         -2c                      ;XREF[2,3]:   0003d05e,0003d062,0003d066,0003d068,0003d07c
          ;local_30      undefined4         -30                      ;XREF[1,0]:   0003d04c
          ;local_34      undefined4         -34                      ;XREF[1,0]:   0003d04a
          ;local_38      undefined4         -38                      ;XREF[1,0]:   0003d048
          ;local_3c      undefined4         -3c                      ;XREF[1,0]:   0003d046
          ;local_44      undefined4         -44                      ;XREF[1,0]:   0003d044
          ;local_48      undefined1         -48                      ;XREF[2,0]:   0003d034,0003d040
                                                          ;XREF[1,0]:   0003cd6a
ram:0003d024    30b5            push        {r4,r5,lr}                              
ram:0003d026    8fb0            sub         sp,#0x3c                                
ram:0003d028    0546            mov         r5,param_1                              
ram:0003d02a    1c21            movs        r1,#0x1c                                
ram:0003d02c    6846            mov         param_1,sp                              
ram:0003d02e    02f04cf8        bl          FUN_0003f0ca                            ;undefined FUN_0003f0ca(undefined * p...
ram:0003d032    6946            mov         r1,sp                                   
ram:0003d034    0878            ldrb        param_1,[r1,#0x0]=>local_48             
ram:0003d036    0821            movs        r1,#0x8                                 
ram:0003d038    0843            orrs        param_1,r1                              
ram:0003d03a    1022            movs        r2,#0x10                                
ram:0003d03c    1043            orrs        param_1,r2                              
ram:0003d03e    6946            mov         r1,sp                                   
ram:0003d040    0870            strb        param_1,[r1,#0x0]=>local_48             
ram:0003d042    0024            movs        r4,#0x0                                 
ram:0003d044    0194            str         r4,[sp,#local_44+0x48]                  
ram:0003d046    0394            str         r4,[sp,#local_3c+0x48]                  
ram:0003d048    0494            str         r4,[sp,#local_38+0x48]                  
ram:0003d04a    0594            str         r4,[sp,#local_34+0x48]                  
ram:0003d04c    0694            str         r4,[sp,#local_30+0x48]                  
ram:0003d04e    a879            ldrb        param_1,[r5,#0x6]                       
ram:0003d050    08a9            add         r1,sp,#0x20                             
ram:0003d052    8870            strb        param_1,[r1,#local_26+0x28]             
ram:0003d054    1448            ldr         param_1,[DAT_0003d0a8]                  ;= 00001531h
ram:0003d056    6946            mov         r1,sp                                   
ram:0003d058    0884            strh        param_1,[r1,#local_28+0x48]             
ram:0003d05a    601c            adds        param_1,r4,#0x1                         
ram:0003d05c    0007            lsls        param_1,param_1,#0x1c                   
ram:0003d05e    0794            str         r4,[sp,#local_2c+0x48]                  
ram:0003d060    000f            lsrs        param_1,param_1,#0x1c                   
ram:0003d062    0c77            strb        r4,[r1,#local_2c+0x48]                  
ram:0003d064    1030            adds        param_1,#0x10                           
ram:0003d066    4877            strb        param_1,[r1,#local_2c+0x49]             
ram:0003d068    887f            ldrb        param_1,[r1,#local_2c+0x4a]             
ram:0003d06a    f921            movs        r1,#0xf9                                
ram:0003d06c    0840            ands        param_1,r1                              
ram:0003d06e    f721            movs        r1,#0xf7                                
ram:0003d070    801c            adds        param_1,param_1,#0x2                    
ram:0003d072    0840            ands        param_1,r1                              
ram:0003d074    1043            orrs        param_1,r2                              
ram:0003d076    0121            movs        r1,#0x1                                 
ram:0003d078    0843            orrs        param_1,r1                              
ram:0003d07a    6946            mov         r1,sp                                   
ram:0003d07c    8877            strb        param_1,[r1,#local_2c+0x4a]             
ram:0003d07e    1421            movs        r1,#0x14                                
ram:0003d080    09a8            add         param_1,sp,#0x24                        
ram:0003d082    02f022f8        bl          FUN_0003f0ca                            ;undefined FUN_0003f0ca(undefined * p...
ram:0003d086    08a8            add         param_1,sp,#0x20                        
ram:0003d088    0990            str         param_1,[sp,#local_24+0x48]             
ram:0003d08a    07a8            add         param_1,sp,#0x1c                        
ram:0003d08c    0a90            str         param_1,[sp,#local_20+0x48]             
ram:0003d08e    6946            mov         r1,sp                                   
ram:0003d090    8c85            strh        r4,[r1,#local_1c+0x48]                  
ram:0003d092    1720            movs        param_1,#0x17                           
ram:0003d094    cc85            strh        r4,[r1,#local_1a+0x48]                  
ram:0003d096    0886            strh        param_1,[r1,#local_18+0x48]             
ram:0003d098    0d94            str         r4,[sp,#local_14+0x48]                  
ram:0003d09a    2b46            mov         r3,r5                                   
ram:0003d09c    a888            ldrh        param_1,[r5,#0x4]                       
ram:0003d09e    1033            adds        r3,#0x10                                
ram:0003d0a0    09aa            add         r2,sp,#0x24                             
ram:0003d0a2    a2df            svc         0xa2                                    
ram:0003d0a4    6de7            b           LAB_0003cf82                            
ram:0003d0a6    0000            movs        r0,r0                                   
                            DAT_0003d0a8:                 ;XREF[1,0]:   0003d054
ram:0003d0a8    31150000        undefined4  00001531h                               
                            ;************************************************************************************************
                            ;*                                           FUNCTION                                           *
                            ;************************************************************************************************
                            ;undefined FUN_0003d0ac(int param_1)
          ;param_1       int                 r0                      
          ;local_10      undefined4         -10                      ;XREF[2,0]:   0003d0b4,0003d0bc
                                                          ;XREF[1,0]:   0003dd3a
ram:0003d0ac    31b5            push        {param_1,r4,r5,lr}                      
ram:0003d0ae    054c            ldr         r4,[DAT_0003d0c4]                       ;= 000003E7h
ram:0003d0b0    04e0            b           LAB_0003d0bc                            
                            LAB_0003d0b2:                 ;XREF[1,0]:   0003d0c0
ram:0003d0b2    401e            subs        param_1,param_1,#0x1                    
ram:0003d0b4    0090            str         param_1,[sp,#0x0]=>local_10             
ram:0003d0b6    2046            mov         param_1,r4                              
ram:0003d0b8    fff71ef8        bl          FUN_0003c0f8                            ;undefined FUN_0003c0f8(int param_1)
                            LAB_0003d0bc:                 ;XREF[1,0]:   0003d0b0
ram:0003d0bc    0098            ldr         param_1,[sp,#0x0]=>local_10             
ram:0003d0be    0028            cmp         param_1,#0x0                            
ram:0003d0c0    f7d1            bne         LAB_0003d0b2                            
ram:0003d0c2    38bd            pop         {r3,r4,r5,pc}                           
                            DAT_0003d0c4:                 ;XREF[1,0]:   0003d0ae
ram:0003d0c4    e7030000        undefined4  000003E7h                               
                            ;************************************************************************************************
                            ;*                                           FUNCTION                                           *
                            ;************************************************************************************************
                            ;undefined FUN_0003d0c8(int param_1)
          ;param_1       int                 r0                      
                                                          ;XREF[2,0]:   0003d1f0,0003d230
ram:0003d0c8    1822            movs        r2,#0x18                                
ram:0003d0ca    5043            muls        param_1,r2                              
ram:0003d0cc    854a            ldr         r2,[DAT_0003d2e4]                       ;= 20003074h
ram:0003d0ce    0021            movs        r1,#0x0                                 
ram:0003d0d0    8018            adds        param_1,param_1,r2                      
ram:0003d0d2    0171            strb        r1,[param_1,#0x4]                       
ram:0003d0d4    8160            str         r1,[param_1,#0x8]                       
ram:0003d0d6    4161            str         r1,[param_1,#0x14]                      
ram:0003d0d8    0322            movs        r2,#0x3                                 
ram:0003d0da    8161            str         r1,[param_1,#0x18]                      
ram:0003d0dc    0261            str         r2,[param_1,#0x10]                      
ram:0003d0de    c160            str         r1,[param_1,#0xc]                       
ram:0003d0e0    7047            bx          lr                                      
                            ;************************************************************************************************
                            ;*                                           FUNCTION                                           *
                            ;************************************************************************************************
                            ;int FUN_0003d0e2(void)
                                                          ;XREF[2,0]:   0003d17a,0003d200
ram:0003d0e2    70b5            push        {r4,r5,r6,lr}                           
ram:0003d0e4    7f4c            ldr         r4,[DAT_0003d2e4]                       ;= 20003074h
ram:0003d0e6    1822            movs        r2,#0x18                                
ram:0003d0e8    2178            ldrb        r1,[r4,#0x0]=>DAT_20003074              
ram:0003d0ea    0f20            movs        r0,#0xf                                 
ram:0003d0ec    5143            muls        r1,r2                                   
ram:0003d0ee    0a19            adds        r2,r1,r4                                
ram:0003d0f0    7d49            ldr         r1,[DAT_0003d2e8]                       ;= 20002C28h
ram:0003d0f2    1679            ldrb        r6,[r2,#0x4]                            
ram:0003d0f4    5369            ldr         r3,[r2,#0x14]                           
ram:0003d0f6    121d            adds        r2,r2,#0x4                              
ram:0003d0f8    4d68            ldr         r5,[r1,#0x4]=>DAT_20002c2c              
ram:0003d0fa    012e            cmp         r6,#0x1                                 
ram:0003d0fc    0fd0            beq         LAB_0003d11e                            
ram:0003d0fe    032e            cmp         r6,#0x3                                 
ram:0003d100    0cd1            bne         LAB_0003d11c                            
ram:0003d102    0120            movs        r0,#0x1                                 
ram:0003d104    0007            lsls        r0,r0,#0x1c                             
ram:0003d106    0069            ldr         r0,[r0,#offset DAT_10000010 &0xff]      
ram:0003d108    81b2            uxth        r1,r0                                   
ram:0003d10a    1846            mov         r0,r3                                   
ram:0003d10c    01f0aeff        bl          FUN_0003f06c                            ;int FUN_0003f06c(uint param_1, uint ...
ram:0003d110    4019            adds        r0,r0,r5                                
ram:0003d112    28df            svc         0x28                                    
                            LAB_0003d114:                 ;XREF[2,0]:   0003d13a,0003d142
ram:0003d114    0028            cmp         r0,#0x0                                 
ram:0003d116    01d1            bne         LAB_0003d11c                            
ram:0003d118    0121            movs        r1,#0x1                                 
ram:0003d11a    a170            strb        r1,[r4,#0x2]=>DAT_20003076              
                            LAB_0003d11c:                 ;XREF[2,0]:   0003d100,0003d116
ram:0003d11c    70bd            pop         {r4,r5,r6,pc}                           
                            LAB_0003d11e:                 ;XREF[1,0]:   0003d0fc
ram:0003d11e    a802            lsls        r0,r5,#0xa                              
ram:0003d120    5568            ldr         r5,[r2,#0x4]                            
ram:0003d122    5169            ldr         r1,[r2,#0x14]                           
ram:0003d124    2d1a            subs        r5,r5,r0                                
ram:0003d126    0918            adds        r1,r1,r0                                
ram:0003d128    9268            ldr         r2,[r2,#0x8]                            
ram:0003d12a    1818            adds        r0,r3,r0                                
ram:0003d12c    1018            adds        r0,r2,r0                                
ram:0003d12e    0122            movs        r2,#0x1                                 
ram:0003d130    9202            lsls        r2,r2,#0xa                              
ram:0003d132    9542            cmp         r5,r2                                   
ram:0003d134    02d2            bcs         LAB_0003d13c                            
ram:0003d136    aa08            lsrs        r2,r5,#0x2                              
ram:0003d138    29df            svc         0x29                                    
ram:0003d13a    ebe7            b           LAB_0003d114                            
                            LAB_0003d13c:                 ;XREF[1,0]:   0003d134
ram:0003d13c    ff22            movs        r2,#0xff                                
ram:0003d13e    0132            adds        r2,#0x1                                 
ram:0003d140    29df            svc         0x29                                    
ram:0003d142    e7e7            b           LAB_0003d114                            
                            ;************************************************************************************************
                            ;*                                           FUNCTION                                           *
                            ;************************************************************************************************
                            ;int FUN_0003d144(char param_1, undefined4 * param_2, undefined4 param_3, undefined4 param_4, undefined4 param_5)
          ;param_1       char                r0                      
          ;param_2       undefined4 *        r1                      
          ;param_3       undefined4          r2                      
          ;param_4       undefined4          r3                      
          ;param_5       undefined4           0                      ;XREF[1,0]:   0003d148
                                                          ;XREF[2,0]:   0003d29c,0003d2b2
ram:0003d144    f8b5            push        {param_4,r4,r5,r6,r7,lr}                
ram:0003d146    674c            ldr         r4,[DAT_0003d2e4]                       ;= 20003074h
ram:0003d148    069e            ldr         r6,[sp,#param_5+0x18]                   
ram:0003d14a    6578            ldrb        r5,[r4,#0x1]=>DAT_20003075              
ram:0003d14c    0a2d            cmp         r5,#0xa                                 
ram:0003d14e    1dd0            beq         LAB_0003d18c                            
ram:0003d150    2778            ldrb        r7,[r4,#0x0]=>DAT_20003074              
ram:0003d152    7d19            adds        r5,r7,r5                                
ram:0003d154    edb2            uxtb        r5,r5                                   
ram:0003d156    0a2d            cmp         r5,#0xa                                 
ram:0003d158    01d3            bcc         LAB_0003d15e                            
ram:0003d15a    0a3d            subs        r5,#0xa                                 
ram:0003d15c    edb2            uxtb        r5,r5                                   
                            LAB_0003d15e:                 ;XREF[1,0]:   0003d158
ram:0003d15e    1827            movs        r7,#0x18                                
ram:0003d160    7d43            muls        r5,r7                                   
ram:0003d162    2d19            adds        r5,r5,r4                                
ram:0003d164    2871            strb        param_1,[r5,#0x4]                       
ram:0003d166    aa61            str         param_3,[r5,#0x18]                      
ram:0003d168    03c9            ldmia       param_2,{param_1,param_2}               
ram:0003d16a    ee60            str         r6,[r5,#0xc]                            
ram:0003d16c    ab60            str         param_4,[r5,#0x8]                       
ram:0003d16e    6961            str         param_2,[r5,#0x14]                      
ram:0003d170    2861            str         param_1,[r5,#0x10]                      
ram:0003d172    a178            ldrb        param_2,[r4,#0x2]=>DAT_20003076         
ram:0003d174    0020            movs        param_1,#0x0                            
ram:0003d176    0029            cmp         param_2,#0x0                            
ram:0003d178    04d1            bne         LAB_0003d184                            
ram:0003d17a    fff7b2ff        bl          FUN_0003d0e2                            ;int FUN_0003d0e2(void)
ram:0003d17e    1128            cmp         param_1,#0x11                           
ram:0003d180    00d1            bne         LAB_0003d184                            
ram:0003d182    0020            movs        param_1,#0x0                            
                            LAB_0003d184:                 ;XREF[2,0]:   0003d178,0003d180
ram:0003d184    6178            ldrb        param_2,[r4,#0x1]=>DAT_20003075         
ram:0003d186    491c            adds        param_2,param_2,#0x1                    
ram:0003d188    6170            strb        param_2,[r4,#0x1]=>DAT_20003075         
ram:0003d18a    f8bd            pop         {param_4,r4,r5,r6,r7,pc}                
                            LAB_0003d18c:                 ;XREF[1,0]:   0003d14e
ram:0003d18c    0420            movs        param_1,#0x4                            
ram:0003d18e    f8bd            pop         {param_4,r4,r5,r6,r7,pc}                
                            ;************************************************************************************************
                            ;*                                           FUNCTION                                           *
                            ;************************************************************************************************
                            ;undefined FUN_0003d190(int param_1)
          ;param_1       int                 r0                      
                                                          ;XREF[1,0]:   0003c202
ram:0003d190    f8b5            push        {r3,r4,r5,r6,r7,lr}                     
ram:0003d192    544c            ldr         r4,[DAT_0003d2e4]                       ;= 20003074h
ram:0003d194    0022            movs        r2,#0x0                                 
ram:0003d196    a178            ldrb        r1,[r4,#0x2]=>DAT_20003076              
ram:0003d198    0129            cmp         r1,#0x1                                 
ram:0003d19a    3ed1            bne         LAB_0003d21a                            
ram:0003d19c    0023            movs        r3,#0x0                                 
ram:0003d19e    a370            strb        r3,[r4,#0x2]=>DAT_20003076              
ram:0003d1a0    0646            mov         r6,param_1                              
ram:0003d1a2    2146            mov         r1,r4                                   
ram:0003d1a4    0878            ldrb        param_1,[r1,#0x0]=>DAT_20003074         
ram:0003d1a6    1827            movs        r7,#0x18                                
ram:0003d1a8    0546            mov         r5,param_1                              
ram:0003d1aa    7843            muls        param_1,r7                              
ram:0003d1ac    4118            adds        r1,param_1,r1                           
ram:0003d1ae    022e            cmp         r6,#0x2                                 
ram:0003d1b0    03d0            beq         LAB_0003d1ba                            
ram:0003d1b2    032e            cmp         r6,#0x3                                 
ram:0003d1b4    31d1            bne         LAB_0003d21a                            
ram:0003d1b6    0d20            movs        param_1,#0xd                            
ram:0003d1b8    2ce0            b           LAB_0003d214                            
                            LAB_0003d1ba:                 ;XREF[1,0]:   0003d1b0
ram:0003d1ba    4b48            ldr         param_1,[DAT_0003d2e8]                  ;= 20002C28h
ram:0003d1bc    4668            ldr         r6,[param_1,#0x4]=>DAT_20002c2c         
ram:0003d1be    761c            adds        r6,r6,#0x1                              
ram:0003d1c0    4660            str         r6,[param_1,#0x4]=>DAT_20002c2c         
ram:0003d1c2    8968            ldr         r1,[r1,#0x8]                            
ram:0003d1c4    b602            lsls        r6,r6,#0xa                              
ram:0003d1c6    8e42            cmp         r6,r1                                   
ram:0003d1c8    14d3            bcc         LAB_0003d1f4                            
ram:0003d1ca    4360            str         r3,[param_1,#0x4]=>DAT_20002c2c         
ram:0003d1cc    6078            ldrb        param_1,[r4,#0x1]=>DAT_20003075         
ram:0003d1ce    401e            subs        param_1,param_1,#0x1                    
ram:0003d1d0    6070            strb        param_1,[r4,#0x1]=>DAT_20003075         
ram:0003d1d2    681c            adds        param_1,r5,#0x1                         
ram:0003d1d4    c0b2            uxtb        param_1,param_1                         
ram:0003d1d6    2070            strb        param_1,[r4,#0x0]=>DAT_20003074         
ram:0003d1d8    0a28            cmp         param_1,#0xa                            
ram:0003d1da    01d3            bcc         LAB_0003d1e0                            
ram:0003d1dc    0a38            subs        param_1,#0xa                            
ram:0003d1de    2070            strb        param_1,[r4,#0x0]=>DAT_20003074         
                            LAB_0003d1e0:                 ;XREF[1,0]:   0003d1da
ram:0003d1e0    1820            movs        param_1,#0x18                           
ram:0003d1e2    6843            muls        param_1,r5                              
ram:0003d1e4    0119            adds        r1,param_1,r4                           
ram:0003d1e6    1046            mov         param_1,r2                              
ram:0003d1e8    091d            adds        r1,r1,#0x4                              
ram:0003d1ea    00f06bf8        bl          FUN_0003d2c4                            ;undefined FUN_0003d2c4(undefined4 pa...
ram:0003d1ee    2846            mov         param_1,r5                              
ram:0003d1f0    fff76aff        bl          FUN_0003d0c8                            ;undefined FUN_0003d0c8(int param_1)
                            LAB_0003d1f4:                 ;XREF[1,0]:   0003d1c8
ram:0003d1f4    6078            ldrb        param_1,[r4,#0x1]=>DAT_20003075         
ram:0003d1f6    0028            cmp         param_1,#0x0                            
ram:0003d1f8    0fd0            beq         LAB_0003d21a                            
ram:0003d1fa    a078            ldrb        param_1,[r4,#0x2]=>DAT_20003076         
ram:0003d1fc    0028            cmp         param_1,#0x0                            
ram:0003d1fe    0cd1            bne         LAB_0003d21a                            
ram:0003d200    fff76fff        bl          FUN_0003d0e2                            ;int FUN_0003d0e2(void)
ram:0003d204    0028            cmp         param_1,#0x0                            
ram:0003d206    08d0            beq         LAB_0003d21a                            
ram:0003d208    1128            cmp         param_1,#0x11                           
ram:0003d20a    06d0            beq         LAB_0003d21a                            
ram:0003d20c    2178            ldrb        r1,[r4,#0x0]=>DAT_20003074              
ram:0003d20e    1822            movs        r2,#0x18                                
ram:0003d210    5143            muls        r1,r2                                   
ram:0003d212    0919            adds        r1,r1,r4                                
                            LAB_0003d214:                 ;XREF[1,0]:   0003d1b8
ram:0003d214    091d            adds        r1,r1,#0x4                              
ram:0003d216    00f055f8        bl          FUN_0003d2c4                            ;undefined FUN_0003d2c4(undefined4 pa...
                            LAB_0003d21a:                 ;XREF[6,0]:   0003d19a,0003d1b4,0003d1f8,0003d1fe
                                                          ;             0003d206,0003d20a
ram:0003d21a    f8bd            pop         {r3,r4,r5,r6,r7,pc}                     
                            ;************************************************************************************************
                            ;*                                           FUNCTION                                           *
                            ;************************************************************************************************
                            ;undefined4 FUN_0003d21c(void)
                                                          ;XREF[1,0]:   0003dc8e
ram:0003d21c    70b5            push        {r4,r5,r6,lr}                           
ram:0003d21e    0024            movs        r4,#0x0                                 
ram:0003d220    314e            ldr         r6,[DAT_0003d2e8]                       ;= 20002C28h
ram:0003d222    3048            ldr         r0,[DAT_0003d2e4]                       ;= 20003074h
ram:0003d224    7460            str         r4,[r6,#0x4]=>DAT_20002c2c              
ram:0003d226    0470            strb        r4,[r0,#0x0]=>DAT_20003074              
ram:0003d228    4470            strb        r4,[r0,#0x1]=>DAT_20003075              
ram:0003d22a    8470            strb        r4,[r0,#0x2]=>DAT_20003076              
ram:0003d22c    2546            mov         r5,r4                                   
                            LAB_0003d22e:                 ;XREF[1,0]:   0003d238
ram:0003d22e    2846            mov         r0,r5                                   
ram:0003d230    fff74aff        bl          FUN_0003d0c8                            ;undefined FUN_0003d0c8(int param_1)
ram:0003d234    6d1c            adds        r5,r5,#0x1                              
ram:0003d236    0a2d            cmp         r5,#0xa                                 
ram:0003d238    f9d3            bcc         LAB_0003d22e                            
ram:0003d23a    2a49            ldr         r1,[DAT_0003d2e4]                       ;= 20003074h
ram:0003d23c    3460            str         r4,[r6,#0x0]=>DAT_20002c28              
ram:0003d23e    0020            movs        r0,#0x0                                 
ram:0003d240    f431            adds        r1,#0xf4                                
ram:0003d242    7460            str         r4,[r6,#0x4]=>DAT_20002c2c              
                            LAB_0003d244:                 ;XREF[1,0]:   0003d24c
ram:0003d244    8200            lsls        r2,r0,#0x2                              
ram:0003d246    401c            adds        r0,r0,#0x1                              
                                                          ; FWD[2,0]:   20003168,2000316c
ram:0003d248    8c50            str         r4,[r1,r2]=>DAT_20003168                
ram:0003d24a    0328            cmp         r0,#0x3                                 
ram:0003d24c    fad3            bcc         LAB_0003d244                            
ram:0003d24e    0020            movs        r0,#0x0                                 
ram:0003d250    70bd            pop         {r4,r5,r6,pc}                           
                            ;************************************************************************************************
                            ;*                                           FUNCTION                                           *
                            ;************************************************************************************************
                            ;undefined4 FUN_0003d252(undefined4 * param_1, int * param_2)
          ;param_1       undefined4 *        r0                      
          ;param_2       int *               r1                      
                                                          ;XREF[2,0]:   0003dca2,0003e972
ram:0003d252    10b5            push        {r4,lr}                                 
ram:0003d254    244b            ldr         r3,[DAT_0003d2e8]                       ;= 20002C28h
ram:0003d256    1a68            ldr         r2,[r3,#0x0]=>DAT_20002c28              
ram:0003d258    032a            cmp         r2,#0x3                                 
ram:0003d25a    09d0            beq         LAB_0003d270                            
ram:0003d25c    0a60            str         r2,[param_2,#0x0]                       
ram:0003d25e    214c            ldr         r4,[DAT_0003d2e4]                       ;= 20003074h
ram:0003d260    9100            lsls        param_2,r2,#0x2                         
ram:0003d262    f434            adds        r4,#0xf4                                
ram:0003d264    0068            ldr         param_1,[param_1,#0x0]                  
ram:0003d266    6050            str         param_1,[r4,param_2]=>DAT_20003168      
ram:0003d268    521c            adds        r2,r2,#0x1                              
ram:0003d26a    0020            movs        param_1,#0x0                            
ram:0003d26c    1a60            str         r2,[r3,#0x0]=>DAT_20002c28              
ram:0003d26e    10bd            pop         {r4,pc}                                 
                            LAB_0003d270:                 ;XREF[1,0]:   0003d25a
ram:0003d270    0420            movs        param_1,#0x4                            
ram:0003d272    10bd            pop         {r4,pc}                                 
                            ;************************************************************************************************
                            ;*                                           FUNCTION                                           *
                            ;************************************************************************************************
                            ;int FUN_0003d274(undefined4 * param_1, uint param_2, undefined4 param_3, int param_4)
          ;param_1       undefined4 *        r0                      
          ;param_2       uint                r1                      
          ;param_3       undefined4          r2                      
          ;param_4       int                 r3                      
          ;local_18      undefined4         -18                      ;XREF[1,0]:   0003d29a
                                                          ;XREF[2,0]:   0003db9c,0003eaa0
ram:0003d274    f8b5            push        {param_4,r4,r5,r6,r7,lr}                
ram:0003d276    0746            mov         r7,param_1                              
ram:0003d278    1d46            mov         r5,param_4                              
ram:0003d27a    1646            mov         r6,param_3                              
ram:0003d27c    0c46            mov         r4,param_2                              
ram:0003d27e    0846            mov         param_1,param_2                         
ram:0003d280    00f01af8        bl          FUN_0003d2b8                            ;undefined4 FUN_0003d2b8(uint param_1)
ram:0003d284    0028            cmp         param_1,#0x0                            
ram:0003d286    0cd0            beq         LAB_0003d2a2                            
ram:0003d288    6019            adds        param_1,r4,r5                           
ram:0003d28a    00f015f8        bl          FUN_0003d2b8                            ;undefined4 FUN_0003d2b8(uint param_1)
ram:0003d28e    0028            cmp         param_1,#0x0                            
ram:0003d290    07d0            beq         LAB_0003d2a2                            
ram:0003d292    3346            mov         param_4,r6                              
ram:0003d294    2246            mov         param_3,r4                              
ram:0003d296    3946            mov         param_2,r7                              
ram:0003d298    0120            movs        param_1,#0x1                            
ram:0003d29a    0095            str         r5,[sp,#0x0]=>local_18                  
ram:0003d29c    fff752ff        bl          FUN_0003d144                            ;int FUN_0003d144(char param_1, undef...
ram:0003d2a0    f8bd            pop         {param_4,r4,r5,r6,r7,pc}                
                            LAB_0003d2a2:                 ;XREF[2,0]:   0003d286,0003d290
ram:0003d2a2    1020            movs        param_1,#0x10                           
ram:0003d2a4    f8bd            pop         {param_4,r4,r5,r6,r7,pc}                
                            ;************************************************************************************************
                            ;*                                           FUNCTION                                           *
                            ;************************************************************************************************
                            ;undefined FUN_0003d2a6(undefined4 * param_1, undefined4 param_2)
          ;param_1       undefined4 *        r0                      
          ;param_2       undefined4          r1                      
          ;local_8       undefined4          -8                      ;XREF[1,0]:   0003d2b0
                                                          ;XREF[2,0]:   0003db86,0003e882
ram:0003d2a6    08b5            push        {r3,lr}                                 
ram:0003d2a8    0b46            mov         r3,param_2                              
ram:0003d2aa    0022            movs        r2,#0x0                                 
ram:0003d2ac    0146            mov         param_2,param_1                         
ram:0003d2ae    0320            movs        param_1,#0x3                            
ram:0003d2b0    0092            str         r2,[sp,#0x0]=>local_8                   
ram:0003d2b2    fff747ff        bl          FUN_0003d144                            ;int FUN_0003d144(char param_1, undef...
ram:0003d2b6    08bd            pop         {r3,pc}                                 
                            ;************************************************************************************************
                            ;*                                           FUNCTION                                           *
                            ;************************************************************************************************
                            ;undefined4 FUN_0003d2b8(uint param_1)
          ;param_1       uint                r0                      
                                                          ;XREF[2,0]:   0003d280,0003d28a
ram:0003d2b8    8007            lsls        param_1,param_1,#0x1e                   
ram:0003d2ba    01d0            beq         LAB_0003d2c0                            
ram:0003d2bc    0020            movs        param_1,#0x0                            
ram:0003d2be    7047            bx          lr                                      
                            LAB_0003d2c0:                 ;XREF[1,0]:   0003d2ba
ram:0003d2c0    0120            movs        param_1,#0x1                            
ram:0003d2c2    7047            bx          lr                                      
                            ;************************************************************************************************
                            ;*                                           FUNCTION                                           *
                            ;************************************************************************************************
                            ;undefined FUN_0003d2c4(undefined4 param_1, undefined * param_2)
          ;param_1       undefined4          r0                      
          ;param_2       undefined *         r1                      
          ;local_10      undefined4         -10                      ;XREF[1,0]:   0003d2d6
                                                          ;XREF[2,0]:   0003d1ea,0003d216
ram:0003d2c4    38b5            push        {r3,r4,r5,lr}                           
ram:0003d2c6    0c46            mov         r4,param_2                              
ram:0003d2c8    e268            ldr         r2,[r4,#0xc]                            
ram:0003d2ca    064b            ldr         r3,[DAT_0003d2e4]                       ;= 20003074h
ram:0003d2cc    9200            lsls        r2,r2,#0x2                              
ram:0003d2ce    f433            adds        r3,#0xf4                                
ram:0003d2d0    9d58            ldr         r5,[r3,r2]=>DAT_20003168                
ram:0003d2d2    0978            ldrb        param_2,[param_2,#0x0]                  
ram:0003d2d4    6268            ldr         r2,[r4,#0x4]                            
ram:0003d2d6    0092            str         r2,[sp,#0x0]=>local_10                  
ram:0003d2d8    0246            mov         r2,param_1                              
ram:0003d2da    2046            mov         param_1,r4                              
ram:0003d2dc    0c30            adds        param_1,#0xc                            
ram:0003d2de    6369            ldr         r3,[r4,#0x14]                           
ram:0003d2e0    a847            blx         r5                                      
ram:0003d2e2    38bd            pop         {r3,r4,r5,pc}                           
                            DAT_0003d2e4:                 ;XREF[8,0]:   0003d0cc,0003d0e4,0003d146,0003d192
                                                          ;             0003d222,0003d23a,0003d25e,0003d2ca
ram:0003d2e4    74300020        undefined4  20003074h                               
                            DAT_0003d2e8:                 ;XREF[4,0]:   0003d0f0,0003d1ba,0003d220,0003d254
ram:0003d2e8    282c0020        undefined4  20002C28h                               
                            ;************************************************************************************************
                            ;*                                           FUNCTION                                           *
                            ;************************************************************************************************
                            ;undefined FUN_0003d2ec(void)
          ;local_8       undefined4          -8                      ;XREF[1,0]:   0003d2f0
          ;local_c       undefined4          -c                      ;XREF[1,0]:   0003d2f6
          ;local_10      undefined4         -10                      ;XREF[1,0]:   0003d2f2
                                                          ;XREF[59,0]:  0003c228,0003c236,0003c24a,0003c25c
                                                          ;             0003c270,0003c27e,0003c2bc,0003c2d0
                                                          ;             0003c2e4,0003c312,0003c32a,0003c35a
                                                          ;             0003c366,0003c3a8,0003d8b2,0003da7a
                                                          ;             0003db16,0003db26,0003db8e,0003dba4
                                                          ;             0003dc6e,0003dcc8,0003dcfc,0003dd46
                                                          ;             0003dd52,0003dd5e,0003df22,0003df3a
                                                          ;             0003df6a,0003e00e,0003e01a,0003e038
                                                          ;             0003e04a,0003e060,0003e16e,0003e1ec
                                                          ;             0003e2ba,0003e2de,0003e3b6,0003e40c
                                                          ;             0003e420,0003e436,0003e456,0003e476
                                                          ;             0003e4a8,0003e54c,0003e586,0003e61c
                                                          ;             0003e814,0003e854,0003e868,0003e88a
                                                          ;             0003e998,0003e9ac,0003eb88,0003edbc
                                                          ;             0003ede2,0003ee56,0003ef38
ram:0003d2ec    0eb5            push        {r1,r2,r3,lr}                           
ram:0003d2ee    0021            movs        r1,#0x0                                 
ram:0003d2f0    0290            str         r0,[sp,#local_8+0x10]                   
ram:0003d2f2    0091            str         r1,[sp,#0x0]=>local_10                  
ram:0003d2f4    6a46            mov         r2,sp                                   
ram:0003d2f6    0191            str         r1,[sp,#local_c+0x10]                   
ram:0003d2f8    0148            ldr         r0,[DAT_0003d300]                       ;= 00004001h
ram:0003d2fa    00f003f8        bl          FUN_0003d304                            ;undefined FUN_0003d304(void)
ram:0003d2fe    0ebd            pop         {r1,r2,r3,pc}                           
                            DAT_0003d300:                 ;XREF[1,0]:   0003d2f8
ram:0003d300    01400000        undefined4  00004001h                               
                            ;************************************************************************************************
                            ;*                                           FUNCTION                                           *
                            ;************************************************************************************************
                            ;undefined FUN_0003d304(void)
                                                          ;XREF[2,0]:   0003d2fa,0003ed82
ram:0003d304    bff34f8f        dsb         0xf                                     
ram:0003d308    0449            ldr         r1,[DAT_0003d31c]                       ;= E000ED00h
ram:0003d30a    0348            ldr         r0,[DAT_0003d318]                       ;= 05FA0004h
ram:0003d30c    c860            str         r0,[r1,#offset DAT_e000ed0c &0xff]      
ram:0003d30e    bff34f8f        dsb         0xf                                     
                            LAB_0003d312:                 ;XREF[1,0]:   0003d314
ram:0003d312    00bf            nop                                                  
ram:0003d314    fde7            b           LAB_0003d312                            
ram:0003d316    0000            movs        r0,r0                                   
                            DAT_0003d318:                 ;XREF[1,0]:   0003d30a
ram:0003d318    0400fa05        undefined4  05FA0004h                               
                            DAT_0003d31c:                 ;XREF[1,0]:   0003d308
ram:0003d31c    00ed00e0        undefined4  E000ED00h                               
                            ;************************************************************************************************
                            ;*                                           FUNCTION                                           *
                            ;************************************************************************************************
                            ;undefined4 FUN_0003d320(undefined2 param_1, short param_2, uint param_3)
          ;param_1       undefined2          r0                      
          ;param_2       short               r1                      
          ;param_3       uint                r2                      
                                                          ;XREF[1,0]:   0003c3a0
ram:0003d320    30b5            push        {r4,r5,lr}                              
ram:0003d322    cb00            lsls        r3,param_2,#0x3                         
ram:0003d324    0833            adds        r3,#0x8                                 
ram:0003d326    9db2            uxth        r5,r3                                   
ram:0003d328    9307            lsls        r3,param_3,#0x1e                        
ram:0003d32a    0024            movs        r4,#0x0                                 
ram:0003d32c    002b            cmp         r3,#0x0                                 
ram:0003d32e    01d0            beq         LAB_0003d334                            
ram:0003d330    0720            movs        param_1,#0x7                            
ram:0003d332    30bd            pop         {r4,r5,pc}                              
                            LAB_0003d334:                 ;XREF[1,0]:   0003d32e
ram:0003d334    404b            ldr         r3,[DAT_0003d438]                       ;= 20002C30h
ram:0003d336    9a60            str         param_3,[r3,#0x8]=>DAT_20002c38         
ram:0003d338    5219            adds        param_3,param_3,r5                      
ram:0003d33a    da60            str         param_3,[r3,#0xc]=>DAT_20002c3c         
ram:0003d33c    5c70            strb        r4,[r3,#0x1]=>DAT_20002c31              
ram:0003d33e    1c70            strb        r4,[r3,#0x0]=>DAT_20002c30              
ram:0003d340    5880            strh        param_1,[r3,#0x2]=>DAT_20002c32         
ram:0003d342    9980            strh        param_2,[r3,#0x4]=>DAT_20002c34         
ram:0003d344    0020            movs        param_1,#0x0                            
ram:0003d346    30bd            pop         {r4,r5,pc}                              
                            ;************************************************************************************************
                            ;*                                           FUNCTION                                           *
                            ;************************************************************************************************
                            ;undefined4 FUN_0003d348(undefined4 * param_1, uint param_2, undefined4 param_3)
          ;param_1       undefined4 *        r0                      
          ;param_2       uint                r1                      
          ;param_3       undefined4          r2                      
          ;local_18      undefined4         -18                      ;XREF[1,0]:   0003d3a2
          ;local_20      undefined4         -20                      ;XREF[1,0]:   0003d3a6
          ;local_28      undefined1         -28                      ;XREF[3,0]:   0003d35c,0003d37a,0003d394
                                                          ;XREF[2,0]:   0003da92,0003ef4a
ram:0003d348    f7b5            push        {param_1,param_2,param_3,r4,r5,r6,r7,lr}
ram:0003d34a    3b4c            ldr         r4,[DAT_0003d438]                       ;= 20002C30h
ram:0003d34c    82b0            sub         sp,#0x8                                 
ram:0003d34e    6088            ldrh        param_1,[r4,#0x2]=>DAT_20002c32         
ram:0003d350    0e46            mov         r6,param_2                              
ram:0003d352    8142            cmp         param_2,param_1                         
ram:0003d354    3fd8            bhi         LAB_0003d3d6                            
ram:0003d356    0025            movs        r5,#0x0                                 
ram:0003d358    6846            mov         param_1,sp                              
ram:0003d35a    384f            ldr         r7,[DAT_0003d43c]                       ;= 0000FFFFh
ram:0003d35c    0570            strb        r5,[param_1,#0x0]=>local_28             
ram:0003d35e    00f09dfb        bl          FUN_0003da9c                            ;undefined FUN_0003da9c(undefined * p...
ram:0003d362    2278            ldrb        param_3,[r4,#0x0]=>DAT_20002c30         
ram:0003d364    6078            ldrb        param_1,[r4,#0x1]=>DAT_20002c31         
ram:0003d366    a188            ldrh        param_2,[r4,#0x4]=>DAT_20002c34         
ram:0003d368    8842            cmp         param_1,param_2                         
ram:0003d36a    01da            bge         LAB_0003d370                            
ram:0003d36c    401c            adds        param_1,param_1,#0x1                    
ram:0003d36e    00e0            b           LAB_0003d372                            
                            LAB_0003d370:                 ;XREF[1,0]:   0003d36a
ram:0003d370    0020            movs        param_1,#0x0                            
                            LAB_0003d372:                 ;XREF[1,0]:   0003d36e
ram:0003d372    c0b2            uxtb        param_1,param_1                         
ram:0003d374    9042            cmp         param_1,param_3                         
ram:0003d376    04d1            bne         LAB_0003d382                            
ram:0003d378    6846            mov         param_1,sp                              
ram:0003d37a    0078            ldrb        param_1=>local_28,[param_1,#0x0]        
ram:0003d37c    00f0a6fb        bl          FUN_0003dacc                            ;undefined FUN_0003dacc(int param_1)
ram:0003d380    27e0            b           LAB_0003d3d2                            
                            LAB_0003d382:                 ;XREF[1,0]:   0003d376
ram:0003d382    6578            ldrb        r5,[r4,#0x1]=>DAT_20002c31              
ram:0003d384    6078            ldrb        param_1,[r4,#0x1]=>DAT_20002c31         
ram:0003d386    8842            cmp         param_1,param_2                         
ram:0003d388    01da            bge         LAB_0003d38e                            
ram:0003d38a    401c            adds        param_1,param_1,#0x1                    
ram:0003d38c    00e0            b           LAB_0003d390                            
                            LAB_0003d38e:                 ;XREF[1,0]:   0003d388
ram:0003d38e    0020            movs        param_1,#0x0                            
                            LAB_0003d390:                 ;XREF[1,0]:   0003d38c
ram:0003d390    6070            strb        param_1,[r4,#0x1]=>DAT_20002c31         
ram:0003d392    6846            mov         param_1,sp                              
ram:0003d394    0078            ldrb        param_1=>local_28,[param_1,#0x0]        
ram:0003d396    00f099fb        bl          FUN_0003dacc                            ;undefined FUN_0003dacc(int param_1)
ram:0003d39a    bd42            cmp         r5,r7                                   
ram:0003d39c    19d0            beq         LAB_0003d3d2                            
ram:0003d39e    a068            ldr         param_1,[r4,#0x8]=>DAT_20002c38         
ram:0003d3a0    ef00            lsls        r7,r5,#0x3                              
ram:0003d3a2    0499            ldr         param_2,[sp,#local_18+0x28]             
ram:0003d3a4    c151            str         param_2,[param_1,r7]                    
ram:0003d3a6    0299            ldr         param_2,[sp,#local_20+0x28]             
ram:0003d3a8    0029            cmp         param_2,#0x0                            
ram:0003d3aa    0cd0            beq         LAB_0003d3c6                            
ram:0003d3ac    002e            cmp         r6,#0x0                                 
ram:0003d3ae    0ad0            beq         LAB_0003d3c6                            
ram:0003d3b0    6088            ldrh        param_1,[r4,#0x2]=>DAT_20002c32         
ram:0003d3b2    3246            mov         param_3,r6                              
ram:0003d3b4    4543            muls        r5,param_1                              
ram:0003d3b6    e068            ldr         param_1,[r4,#0xc]=>DAT_20002c3c         
ram:0003d3b8    2818            adds        param_1,r5,param_1                      
ram:0003d3ba    01f06dfe        bl          FUN_0003f098                            ;undefined FUN_0003f098(undefined4 * ...
ram:0003d3be    a068            ldr         param_1,[r4,#0x8]=>DAT_20002c38         
ram:0003d3c0    3818            adds        param_1,r7,param_1                      
ram:0003d3c2    8680            strh        r6,[param_1,#0x4]                       
ram:0003d3c4    02e0            b           LAB_0003d3cc                            
                            LAB_0003d3c6:                 ;XREF[2,0]:   0003d3aa,0003d3ae
ram:0003d3c6    0021            movs        param_2,#0x0                            
ram:0003d3c8    3818            adds        param_1,r7,param_1                      
ram:0003d3ca    8180            strh        param_2,[param_1,#0x4]                  
                            LAB_0003d3cc:                 ;XREF[1,0]:   0003d3c4
ram:0003d3cc    0020            movs        param_1,#0x0                            
                            LAB_0003d3ce:                 ;XREF[2,0]:   0003d3d4,0003d3d8
ram:0003d3ce    05b0            add         sp,#0x14                                
ram:0003d3d0    f0bd            pop         {r4,r5,r6,r7,pc}                        
                            LAB_0003d3d2:                 ;XREF[2,0]:   0003d380,0003d39c
ram:0003d3d2    0420            movs        param_1,#0x4                            
ram:0003d3d4    fbe7            b           LAB_0003d3ce                            
                            LAB_0003d3d6:                 ;XREF[1,0]:   0003d354
ram:0003d3d6    0920            movs        param_1,#0x9                            
ram:0003d3d8    f9e7            b           LAB_0003d3ce                            
                            ;************************************************************************************************
                            ;*                                           FUNCTION                                           *
                            ;************************************************************************************************
                            ;undefined FUN_0003d3da(undefined4 param_1, int param_2, uint param_3, undefined * param_4)
          ;param_1       undefined4          r0                      
          ;param_2       int                 r1                      
          ;param_3       uint                r2                      
          ;param_4       undefined *         r3                      
          ;local_8       undefined4          -8                      ;XREF[1,0]:   0003d3e2
          ;local_c       undefined2          -c                      ;XREF[1,0]:   0003d3e0
          ;local_10      undefined4         -10                      ;XREF[1,0]:   0003d3e4
                                                          ;XREF[1,0]:   0003db2a
ram:0003d3da    0eb5            push        {param_2,param_3,param_4,lr}            
ram:0003d3dc    04e0            b           LAB_0003d3e8                            
                            LAB_0003d3de:                 ;XREF[1,0]:   0003d3f4
ram:0003d3de    6846            mov         param_1,sp                              
ram:0003d3e0    8188            ldrh        param_2=>local_c,[param_1,#0x4]         
ram:0003d3e2    029a            ldr         param_3=>local_8,[sp,#0x8]              
ram:0003d3e4    0098            ldr         param_1=>local_10,[sp,#0x0]             
ram:0003d3e6    9047            blx         param_3                                 
                            LAB_0003d3e8:                 ;XREF[1,0]:   0003d3dc
ram:0003d3e8    02aa            add         param_3,sp,#0x8                         
ram:0003d3ea    01a9            add         param_2,sp,#0x4                         
ram:0003d3ec    6846            mov         param_1,sp                              
ram:0003d3ee    00f003f8        bl          FUN_0003d3f8                            ;undefined4 FUN_0003d3f8(int * param_...
ram:0003d3f2    0028            cmp         param_1,#0x0                            
ram:0003d3f4    f3d0            beq         LAB_0003d3de                            
ram:0003d3f6    0ebd            pop         {param_2,param_3,param_4,pc}            
                            ;************************************************************************************************
                            ;*                                           FUNCTION                                           *
                            ;************************************************************************************************
                            ;undefined4 FUN_0003d3f8(int * param_1, undefined2 * param_2, undefined4 * param_3)
          ;param_1       int *               r0                      
          ;param_2       undefined2 *        r1                      
          ;param_3       undefined4 *        r2                      
                                                          ;XREF[1,0]:   0003d3ee
ram:0003d3f8    70b5            push        {r4,r5,r6,lr}                           
ram:0003d3fa    0f4b            ldr         r3,[DAT_0003d438]                       ;= 20002C30h
ram:0003d3fc    0524            movs        r4,#0x5                                 
ram:0003d3fe    1d78            ldrb        r5,[r3,#0x0]=>DAT_20002c30              
ram:0003d400    5e78            ldrb        r6,[r3,#0x1]=>DAT_20002c31              
ram:0003d402    ae42            cmp         r6,r5                                   
ram:0003d404    15d0            beq         LAB_0003d432                            
ram:0003d406    1d78            ldrb        r5,[r3,#0x0]=>DAT_20002c30              
ram:0003d408    1c78            ldrb        r4,[r3,#0x0]=>DAT_20002c30              
ram:0003d40a    9e88            ldrh        r6,[r3,#0x4]=>DAT_20002c34              
ram:0003d40c    b442            cmp         r4,r6                                   
ram:0003d40e    01da            bge         LAB_0003d414                            
ram:0003d410    641c            adds        r4,r4,#0x1                              
ram:0003d412    00e0            b           LAB_0003d416                            
                            LAB_0003d414:                 ;XREF[1,0]:   0003d40e
ram:0003d414    0024            movs        r4,#0x0                                 
                            LAB_0003d416:                 ;XREF[1,0]:   0003d412
ram:0003d416    1c70            strb        r4,[r3,#0x0]=>DAT_20002c30              
ram:0003d418    5c88            ldrh        r4,[r3,#0x2]=>DAT_20002c32              
ram:0003d41a    de68            ldr         r6,[r3,#0xc]=>DAT_20002c3c              
ram:0003d41c    6c43            muls        r4,r5                                   
ram:0003d41e    a419            adds        r4,r4,r6                                
ram:0003d420    0460            str         r4,[param_1,#0x0]                       
ram:0003d422    9b68            ldr         r3,[r3,#0x8]=>DAT_20002c38              
ram:0003d424    e800            lsls        param_1,r5,#0x3                         
ram:0003d426    c418            adds        r4,param_1,r3                           
ram:0003d428    a488            ldrh        r4,[r4,#0x4]                            
ram:0003d42a    0c80            strh        r4,[param_2,#0x0]                       
ram:0003d42c    1858            ldr         param_1,[r3,param_1]                    
ram:0003d42e    0024            movs        r4,#0x0                                 
ram:0003d430    1060            str         param_1,[param_3,#0x0]                  
                            LAB_0003d432:                 ;XREF[1,0]:   0003d404
ram:0003d432    2046            mov         param_1,r4                              
ram:0003d434    70bd            pop         {r4,r5,r6,pc}                           
ram:0003d436    0000            movs        r0,r0                                   
                            DAT_0003d438:                 ;XREF[3,0]:   0003d334,0003d34a,0003d3fa
ram:0003d438    302c0020        undefined4  20002C30h                               
                            DAT_0003d43c:                 ;XREF[1,0]:   0003d35a
ram:0003d43c    ffff0000        undefined4  0000FFFFh                               
                            ;************************************************************************************************
                            ;*                                           FUNCTION                                           *
                            ;************************************************************************************************
                            ;undefined FUN_0003d440(uint param_1, int param_2)
          ;param_1       uint                r0                      
          ;param_2       int                 r1                      
                                                          ;XREF[2,0]:   0003d6a6,0003d6ba
ram:0003d440    8307            lsls        r3,param_1,#0x1e                        
ram:0003d442    ff22            movs        r2,#0xff                                
ram:0003d444    db0e            lsrs        r3,r3,#0x1b                             
ram:0003d446    9a40            lsls        r2,r3                                   
ram:0003d448    8907            lsls        param_2,param_2,#0x1e                   
ram:0003d44a    090e            lsrs        param_2,param_2,#0x18                   
ram:0003d44c    9940            lsls        param_2,r3                              
ram:0003d44e    0028            cmp         param_1,#0x0                            
ram:0003d450    0bda            bge         LAB_0003d46a                            
ram:0003d452    0007            lsls        param_1,param_1,#0x1c                   
ram:0003d454    000f            lsrs        param_1,param_1,#0x1c                   
ram:0003d456    0838            subs        param_1,#0x8                            
ram:0003d458    8308            lsrs        r3,param_1,#0x2                         
ram:0003d45a    f948            ldr         param_1,[DAT_0003d840]                  ;= E000ED00h
ram:0003d45c    9b00            lsls        r3,r3,#0x2                              
ram:0003d45e    1818            adds        param_1,r3,param_1                      
ram:0003d460    c369            ldr         r3,[param_1,#0x1c]                      
ram:0003d462    9343            bics        r3,r2                                   
ram:0003d464    0b43            orrs        r3,param_2                              
ram:0003d466    c361            str         r3,[param_1,#0x1c]                      
ram:0003d468    7047            bx          lr                                      
                            LAB_0003d46a:                 ;XREF[1,0]:   0003d450
ram:0003d46a    8308            lsrs        r3,param_1,#0x2                         
ram:0003d46c    f548            ldr         param_1,[DAT_0003d844]                  ;= E000E400h
ram:0003d46e    9b00            lsls        r3,r3,#0x2                              
ram:0003d470    1b18            adds        r3,r3,param_1                           
ram:0003d472    1868            ldr         param_1,[r3,#0x0]                       
ram:0003d474    9043            bics        param_1,r2                              
ram:0003d476    0843            orrs        param_1,param_2                         
ram:0003d478    1860            str         param_1,[r3,#0x0]                       
ram:0003d47a    7047            bx          lr                                      
                            ;************************************************************************************************
                            ;*                                           FUNCTION                                           *
                            ;************************************************************************************************
                            ;undefined FUN_0003d47c(void)
                                                          ;XREF[2,0]:   0003d666,0003da50
ram:0003d47c    70b5            push        {r4,r5,r6,lr}                           
ram:0003d47e    0124            movs        r4,#0x1                                 
ram:0003d480    f149            ldr         r1,[DAT_0003d848]                       ;= E000E180h
ram:0003d482    6004            lsls        r0,r4,#0x11                             
ram:0003d484    0860            str         r0,[r1,#0x0]=>DAT_e000e180              
ram:0003d486    f149            ldr         r1,[DAT_0003d84c]                       ;= 40011340h
ram:0003d488    4010            asrs        r0,r0,#0x1                              
ram:0003d48a    8860            str         r0,[r1,#0x8]=>DAT_40011348              
ram:0003d48c    ef49            ldr         r1,[DAT_0003d84c]                       ;= 40011340h
ram:0003d48e    4039            subs        r1,#0x40                                
ram:0003d490    8860            str         r0,[r1,#offset DAT_40011308 &0xff]      
ram:0003d492    ef4d            ldr         r5,[DAT_0003d850]                       ;= 40011000h
ram:0003d494    6c60            str         r4,[r5,#offset DAT_40011004 &0xff]      
ram:0003d496    2f20            movs        r0,#0x2f                                
ram:0003d498    fef73efe        bl          FUN_0003c118                            ;undefined FUN_0003c118(int param_1)
ram:0003d49c    ac60            str         r4,[r5,#offset DAT_40011008 &0xff]      
ram:0003d49e    ed4d            ldr         r5,[DAT_0003d854]                       ;= 20002C40h
ram:0003d4a0    0024            movs        r4,#0x0                                 
ram:0003d4a2    2f20            movs        r0,#0x2f                                
ram:0003d4a4    2c61            str         r4,[r5,#0x10]=>DAT_20002c50             
ram:0003d4a6    fef737fe        bl          FUN_0003c118                            ;undefined FUN_0003c118(int param_1)
ram:0003d4aa    ec70            strb        r4,[r5,#0x3]=>DAT_20002c43              
ram:0003d4ac    70bd            pop         {r4,r5,r6,pc}                           
                            ;************************************************************************************************
                            ;*                                           FUNCTION                                           *
                            ;************************************************************************************************
                            ;undefined4 FUN_0003d4ae(void)
          ;local_18      undefined4         -18                      ;XREF[2,0]:   0003d4c0,0003d4c4
                                                          ;XREF[1,0]:   0003d8fc
ram:0003d4ae    f8b5            push        {r3,r4,r5,r6,r7,lr}                     
ram:0003d4b0    e849            ldr         r1,[DAT_0003d854]                       ;= 20002C40h
ram:0003d4b2    c868            ldr         r0,[r1,#0xc]=>DAT_20002c4c              
ram:0003d4b4    0a69            ldr         r2,[r1,#0x10]=>DAT_20002c50             
ram:0003d4b6    0c78            ldrb        r4,[r1,#0x0]=>DAT_20002c40              
ram:0003d4b8    0f79            ldrb        r7,[r1,#0x4]=>DAT_20002c44              
ram:0003d4ba    8968            ldr         r1,[r1,#0x8]=>DAT_20002c48              
ram:0003d4bc    8646            mov         lr,r0                                   
ram:0003d4be    9446            mov         r12,r2                                  
ram:0003d4c0    0091            str         r1,[sp,#0x0]=>local_18                  
ram:0003d4c2    3ee0            b           LAB_0003d542                            
                            LAB_0003d4c4:                 ;XREF[1,0]:   0003d54a
ram:0003d4c4    0099            ldr         r1,[sp,#0x0]=>local_18                  
ram:0003d4c6    e200            lsls        r2,r4,#0x3                              
ram:0003d4c8    5518            adds        r5,r2,r1                                
ram:0003d4ca    2a78            ldrb        r2,[r5,#0x0]                            
ram:0003d4cc    36e0            b           LAB_0003d53c                            
                            LAB_0003d4ce:                 ;XREF[1,0]:   0003d540
ram:0003d4ce    1823            movs        r3,#0x18                                
ram:0003d4d0    5343            muls        r3,r2                                   
ram:0003d4d2    6968            ldr         r1,[r5,#0x4]                            
ram:0003d4d4    521c            adds        r2,r2,#0x1                              
ram:0003d4d6    c918            adds        r1,r1,r3                                
ram:0003d4d8    ab78            ldrb        r3,[r5,#0x2]                            
ram:0003d4da    d2b2            uxtb        r2,r2                                   
ram:0003d4dc    9342            cmp         r3,r2                                   
ram:0003d4de    00d1            bne         LAB_0003d4e2                            
ram:0003d4e0    0022            movs        r2,#0x0                                 
                            LAB_0003d4e2:                 ;XREF[1,0]:   0003d4de
ram:0003d4e2    0b78            ldrb        r3,[r1,#0x0]                            
ram:0003d4e4    022b            cmp         r3,#0x2                                 
ram:0003d4e6    02d0            beq         LAB_0003d4ee                            
ram:0003d4e8    032b            cmp         r3,#0x3                                 
ram:0003d4ea    27d1            bne         LAB_0003d53c                            
ram:0003d4ec    23e0            b           LAB_0003d536                            
                            LAB_0003d4ee:                 ;XREF[1,0]:   0003d4e6
ram:0003d4ee    4e68            ldr         r6,[r1,#0x4]                            
ram:0003d4f0    0346            mov         r3,r0                                   
ram:0003d4f2    0146            mov         r1,r0                                   
ram:0003d4f4    03e0            b           LAB_0003d4fe                            
                            LAB_0003d4f6:                 ;XREF[1,0]:   0003d502
ram:0003d4f6    b142            cmp         r1,r6                                   
ram:0003d4f8    04d0            beq         LAB_0003d504                            
ram:0003d4fa    0b46            mov         r3,r1                                   
ram:0003d4fc    c969            ldr         r1,[r1,#0x1c]                           
                            LAB_0003d4fe:                 ;XREF[1,0]:   0003d4f4
ram:0003d4fe    0029            cmp         r1,#0x0                                 
ram:0003d500    1cd0            beq         LAB_0003d53c                            
ram:0003d502    f8e7            b           LAB_0003d4f6                            
                            LAB_0003d504:                 ;XREF[1,0]:   0003d4f8
ram:0003d504    0029            cmp         r1,#0x0                                 
ram:0003d506    19d0            beq         LAB_0003d53c                            
ram:0003d508    8b42            cmp         r3,r1                                   
ram:0003d50a    08d1            bne         LAB_0003d51e                            
ram:0003d50c    c069            ldr         r0,[r0,#0x1c]                           
ram:0003d50e    0028            cmp         r0,#0x0                                 
ram:0003d510    05d1            bne         LAB_0003d51e                            
ram:0003d512    cf4f            ldr         r7,[DAT_0003d850]                       ;= 40011000h
ram:0003d514    0126            movs        r6,#0x1                                 
ram:0003d516    be60            str         r6,[r7,#offset DAT_40011008 &0xff]      
ram:0003d518    0026            movs        r6,#0x0                                 
ram:0003d51a    b446            mov         r12,r6                                  
ram:0003d51c    0127            movs        r7,#0x1                                 
                            LAB_0003d51e:                 ;XREF[2,0]:   0003d50a,0003d510
ram:0003d51e    0e68            ldr         r6,[r1,#0x0]                            
ram:0003d520    c969            ldr         r1,[r1,#0x1c]                           
ram:0003d522    d961            str         r1,[r3,#0x1c]                           
ram:0003d524    0029            cmp         r1,#0x0                                 
ram:0003d526    09d0            beq         LAB_0003d53c                            
ram:0003d528    0b68            ldr         r3,[r1,#0x0]                            
ram:0003d52a    9b19            adds        r3,r3,r6                                
ram:0003d52c    0b60            str         r3,[r1,#0x0]                            
ram:0003d52e    05e0            b           LAB_0003d53c                            
                            LAB_0003d530:                 ;XREF[1,0]:   0003d53a
ram:0003d530    0174            strb        r1,[r0,#0x10]                           
ram:0003d532    c069            ldr         r0,[r0,#0x1c]                           
ram:0003d534    00e0            b           LAB_0003d538                            
                            LAB_0003d536:                 ;XREF[1,0]:   0003d4ec
ram:0003d536    0021            movs        r1,#0x0                                 
                            LAB_0003d538:                 ;XREF[1,0]:   0003d534
ram:0003d538    0028            cmp         r0,#0x0                                 
ram:0003d53a    f9d1            bne         LAB_0003d530                            
                            LAB_0003d53c:                 ;XREF[6,0]:   0003d4cc,0003d4ea,0003d500,0003d506
                                                          ;             0003d526,0003d52e
ram:0003d53c    6978            ldrb        r1,[r5,#0x1]                            
ram:0003d53e    9142            cmp         r1,r2                                   
ram:0003d540    c5d1            bne         LAB_0003d4ce                            
                            LAB_0003d542:                 ;XREF[1,0]:   0003d4c2
ram:0003d542    2146            mov         r1,r4                                   
ram:0003d544    641e            subs        r4,r4,#0x1                              
ram:0003d546    e4b2            uxtb        r4,r4                                   
ram:0003d548    0029            cmp         r1,#0x0                                 
ram:0003d54a    bbd1            bne         LAB_0003d4c4                            
ram:0003d54c    c149            ldr         r1,[DAT_0003d854]                       ;= 20002C40h
ram:0003d54e    6246            mov         r2,r12                                  
ram:0003d550    0a61            str         r2,[r1,#0x10]=>DAT_20002c50             
ram:0003d552    c860            str         r0,[r1,#0xc]=>DAT_20002c4c              
ram:0003d554    0f71            strb        r7,[r1,#0x4]=>DAT_20002c44              
ram:0003d556    7045            cmp         r0,lr                                   
ram:0003d558    01d0            beq         LAB_0003d55e                            
ram:0003d55a    0120            movs        r0,#0x1                                 
ram:0003d55c    f8bd            pop         {r3,r4,r5,r6,r7,pc}                     
                            LAB_0003d55e:                 ;XREF[1,0]:   0003d558
ram:0003d55e    0020            movs        r0,#0x0                                 
ram:0003d560    f8bd            pop         {r3,r4,r5,r6,r7,pc}                     
                            ;************************************************************************************************
                            ;*                                           FUNCTION                                           *
                            ;************************************************************************************************
                            ;undefined4 FUN_0003d562(uint * param_1)
          ;param_1       uint *              r0                      
          ;local_18      undefined4         -18                      ;XREF[2,0]:   0003d56c,0003d61e
                                                          ;XREF[2,0]:   0003d948,0003d950
ram:0003d562    f8b5            push        {r3,r4,r5,r6,r7,lr}                     
ram:0003d564    0446            mov         r4,param_1                              
ram:0003d566    bb48            ldr         param_1,[DAT_0003d854]                  ;= 20002C40h
ram:0003d568    0026            movs        r6,#0x0                                 
ram:0003d56a    c168            ldr         r1,[param_1,#0xc]=>DAT_20002c4c         
ram:0003d56c    0091            str         r1,[sp,#0x0]=>local_18                  
ram:0003d56e    0778            ldrb        r7,[param_1,#0x0]=>DAT_20002c40         
ram:0003d570    4ee0            b           LAB_0003d610                            
                            LAB_0003d572:                 ;XREF[1,0]:   0003d618
ram:0003d572    b848            ldr         param_1,[DAT_0003d854]                  ;= 20002C40h
ram:0003d574    f900            lsls        r1,r7,#0x3                              
ram:0003d576    8068            ldr         param_1,[param_1,#0x8]=>DAT_20002c48    
ram:0003d578    0d18            adds        r5,r1,param_1                           
ram:0003d57a    43e0            b           LAB_0003d604                            
                            LAB_0003d57c:                 ;XREF[1,0]:   0003d606
ram:0003d57c    002c            cmp         r4,#0x0                                 
ram:0003d57e    02d0            beq         LAB_0003d586                            
ram:0003d580    2046            mov         param_1,r4                              
ram:0003d582    e469            ldr         r4,[r4,#0x1c]                           
ram:0003d584    1fe0            b           LAB_0003d5c6                            
                            LAB_0003d586:                 ;XREF[2,0]:   0003d57e,0003d60e
ram:0003d586    2878            ldrb        param_1,[r5,#0x0]                       
ram:0003d588    1821            movs        r1,#0x18                                
ram:0003d58a    4143            muls        r1,param_1                              
ram:0003d58c    6a68            ldr         r2,[r5,#0x4]                            
ram:0003d58e    401c            adds        param_1,param_1,#0x1                    
ram:0003d590    c0b2            uxtb        param_1,param_1                         
ram:0003d592    5118            adds        r1,r2,r1                                
ram:0003d594    2870            strb        param_1,[r5,#0x0]                       
ram:0003d596    aa78            ldrb        r2,[r5,#0x2]                            
ram:0003d598    9042            cmp         param_1,r2                              
ram:0003d59a    00d1            bne         LAB_0003d59e                            
ram:0003d59c    2e70            strb        r6,[r5,#0x0]                            
                            LAB_0003d59e:                 ;XREF[1,0]:   0003d59a
ram:0003d59e    0a78            ldrb        r2,[r1,#0x0]                            
ram:0003d5a0    4868            ldr         param_1,[r1,#0x4]                       
ram:0003d5a2    012a            cmp         r2,#0x1                                 
ram:0003d5a4    30d1            bne         LAB_0003d608                            
ram:0003d5a6    027c            ldrb        r2,[param_1,#0x10]                      
ram:0003d5a8    002a            cmp         r2,#0x0                                 
ram:0003d5aa    2dd1            bne         LAB_0003d608                            
ram:0003d5ac    8a68            ldr         r2,[r1,#0x8]                            
ram:0003d5ae    4260            str         r2,[param_1,#0x4]                       
ram:0003d5b0    ca68            ldr         r2,[r1,#0xc]                            
ram:0003d5b2    8260            str         r2,[param_1,#0x8]                       
ram:0003d5b4    0a69            ldr         r2,[r1,#0x10]                           
ram:0003d5b6    c260            str         r2,[param_1,#0xc]                       
ram:0003d5b8    4969            ldr         r1,[r1,#0x14]                           
ram:0003d5ba    8161            str         r1,[param_1,#0x18]                      
ram:0003d5bc    a549            ldr         r1,[DAT_0003d854]                       ;= 20002C40h
ram:0003d5be    0979            ldrb        r1,[r1,#0x4]=>DAT_20002c44              
ram:0003d5c0    0029            cmp         r1,#0x0                                 
ram:0003d5c2    00d0            beq         LAB_0003d5c6                            
ram:0003d5c4    4660            str         r6,[param_1,#0x4]                       
                            LAB_0003d5c6:                 ;XREF[2,0]:   0003d584,0003d5c2
ram:0003d5c6    a349            ldr         r1,[DAT_0003d854]                       ;= 20002C40h
ram:0003d5c8    4368            ldr         r3,[param_1,#0x4]                       
ram:0003d5ca    0a69            ldr         r2,[r1,#0x10]=>DAT_20002c50             
ram:0003d5cc    9c46            mov         r12,r3                                  
ram:0003d5ce    991a            subs        r1,r3,r2                                
ram:0003d5d0    0902            lsls        r1,r1,#0x8                              
ram:0003d5d2    a14b            ldr         r3,[DAT_0003d858]                       ;= 007FFFFFh
ram:0003d5d4    090a            lsrs        r1,r1,#0x8                              
ram:0003d5d6    9942            cmp         r1,r3                                   
ram:0003d5d8    02d2            bcs         LAB_0003d5e0                            
ram:0003d5da    8268            ldr         r2,[param_1,#0x8]                       
ram:0003d5dc    8918            adds        r1,r1,r2                                
ram:0003d5de    07e0            b           LAB_0003d5f0                            
                            LAB_0003d5e0:                 ;XREF[1,0]:   0003d5d8
ram:0003d5e0    6146            mov         r1,r12                                  
ram:0003d5e2    511a            subs        r1,r2,r1                                
ram:0003d5e4    0902            lsls        r1,r1,#0x8                              
ram:0003d5e6    8268            ldr         r2,[param_1,#0x8]                       
ram:0003d5e8    090a            lsrs        r1,r1,#0x8                              
ram:0003d5ea    8a42            cmp         r2,r1                                   
ram:0003d5ec    02d9            bls         LAB_0003d5f4                            
ram:0003d5ee    511a            subs        r1,r2,r1                                
                            LAB_0003d5f0:                 ;XREF[1,0]:   0003d5de
ram:0003d5f0    0160            str         r1,[param_1,#0x0]                       
ram:0003d5f2    00e0            b           LAB_0003d5f6                            
                            LAB_0003d5f4:                 ;XREF[1,0]:   0003d5ec
ram:0003d5f4    0660            str         r6,[param_1,#0x0]                       
                            LAB_0003d5f6:                 ;XREF[1,0]:   0003d5f2
ram:0003d5f6    4660            str         r6,[param_1,#0x4]                       
ram:0003d5f8    0121            movs        r1,#0x1                                 
ram:0003d5fa    8660            str         r6,[param_1,#0x8]                       
ram:0003d5fc    0174            strb        r1,[param_1,#0x10]                      
ram:0003d5fe    c661            str         r6,[param_1,#0x1c]                      
ram:0003d600    00f000f9        bl          FUN_0003d804                            ;undefined FUN_0003d804(uint * param_1)
                            LAB_0003d604:                 ;XREF[1,0]:   0003d57a
ram:0003d604    002c            cmp         r4,#0x0                                 
ram:0003d606    b9d1            bne         LAB_0003d57c                            
                            LAB_0003d608:                 ;XREF[2,0]:   0003d5a4,0003d5aa
ram:0003d608    2878            ldrb        param_1,[r5,#0x0]                       
ram:0003d60a    6978            ldrb        r1,[r5,#0x1]                            
ram:0003d60c    8842            cmp         param_1,r1                              
ram:0003d60e    bad1            bne         LAB_0003d586                            
                            LAB_0003d610:                 ;XREF[1,0]:   0003d570
ram:0003d610    3846            mov         param_1,r7                              
ram:0003d612    7f1e            subs        r7,r7,#0x1                              
ram:0003d614    ffb2            uxtb        r7,r7                                   
ram:0003d616    0028            cmp         param_1,#0x0                            
ram:0003d618    abd1            bne         LAB_0003d572                            
ram:0003d61a    8e48            ldr         param_1,[DAT_0003d854]                  ;= 20002C40h
ram:0003d61c    c168            ldr         r1,[param_1,#0xc]=>DAT_20002c4c         
ram:0003d61e    0098            ldr         param_1,[sp,#0x0]=>local_18             
ram:0003d620    8142            cmp         r1,param_1                              
ram:0003d622    01d0            beq         LAB_0003d628                            
ram:0003d624    0120            movs        param_1,#0x1                            
ram:0003d626    f8bd            pop         {r3,r4,r5,r6,r7,pc}                     
                            LAB_0003d628:                 ;XREF[1,0]:   0003d622
ram:0003d628    0020            movs        param_1,#0x0                            
ram:0003d62a    f8bd            pop         {r3,r4,r5,r6,r7,pc}                     
                            ;************************************************************************************************
                            ;*                                           FUNCTION                                           *
                            ;************************************************************************************************
                            ;undefined FUNC_VT_0003d62c(void)
                                                          ;XREF[0,1]:   0003c084
ram:0003d62c    10b5            push        {r4,lr}                                 
ram:0003d62e    8b49            ldr         r1,[DAT_0003d85c]                       ;= 40011140h
ram:0003d630    0020            movs        r0,#0x0                                 
ram:0003d632    0860            str         r0,[r1,#0x0]=>DAT_40011140              
ram:0003d634    4860            str         r0,[r1,#0x4]=>DAT_40011144              
ram:0003d636    8860            str         r0,[r1,#0x8]=>DAT_40011148              
ram:0003d638    c860            str         r0,[r1,#0xc]=>DAT_4001114c              
ram:0003d63a    8849            ldr         r1,[DAT_0003d85c]                       ;= 40011140h
ram:0003d63c    4039            subs        r1=>DAT_40011100,#0x40                  
ram:0003d63e    0860            str         r0,[r1,#0x0]=>DAT_40011100              
ram:0003d640    4860            str         r0,[r1,#offset DAT_40011104 &0xff]      
ram:0003d642    00f016f9        bl          FUN_0003d872                            ;undefined FUN_0003d872(void)
ram:0003d646    10bd            pop         {r4,pc}                                 
                            ;************************************************************************************************
                            ;*                                           FUNCTION                                           *
                            ;************************************************************************************************
                            ;undefined FUNC_VT_0003d648(undefined4 param_1, uint param_2, undefined4 param_3)
          ;param_1       undefined4          r0                      
          ;param_2       uint                r1                      
          ;param_3       undefined4          r2                      
                                                          ;XREF[0,1]:   0003c090
ram:0003d648    10b5            push        {r4,lr}                                 
ram:0003d64a    00f04df9        bl          FUN_0003d8e8                            ;undefined FUN_0003d8e8(undefined4 pa...
ram:0003d64e    10bd            pop         {r4,pc}                                 
                            ;************************************************************************************************
                            ;*                                           FUNCTION                                           *
                            ;************************************************************************************************
                            ;undefined4 FUN_0003d650(undefined4 param_1, int param_2, uint param_3, undefined4 param_4)
          ;param_1       undefined4          r0                      
          ;param_2       int                 r1                      
          ;param_3       uint                r2                      
          ;param_4       undefined4          r3                      
          ;local_18      undefined4         -18                      ;XREF[1,0]:   0003d66a
          ;local_24      undefined4         -24                      ;XREF[1,0]:   0003d6b2
                                                          ;XREF[1,0]:   0003c2dc
ram:0003d650    ffb5            push        {param_1,param_2,param_3,param_4,r4,r...
ram:0003d652    9007            lsls        param_1,param_3,#0x1e                   
ram:0003d654    0025            movs        r5,#0x0                                 
ram:0003d656    81b0            sub         sp,#0x4                                 
ram:0003d658    1446            mov         r4,param_3                              
ram:0003d65a    0e46            mov         r6,param_2                              
ram:0003d65c    0028            cmp         param_1,#0x0                            
ram:0003d65e    33d1            bne         LAB_0003d6c8                            
ram:0003d660    7c4f            ldr         r7,[DAT_0003d854]                       ;= 20002C40h
ram:0003d662    002c            cmp         r4,#0x0                                 
ram:0003d664    32d0            beq         LAB_0003d6cc                            
ram:0003d666    fff709ff        bl          FUN_0003d47c                            ;undefined FUN_0003d47c(void)
ram:0003d66a    0498            ldr         param_1,[sp,#local_18+0x28]             
ram:0003d66c    7861            str         param_1,[r7,#0x14]=>DAT_20002c54        
ram:0003d66e    0320            movs        param_1,#0x3                            
ram:0003d670    3870            strb        param_1,[r7,#0x0]=>DAT_20002c40         
ram:0003d672    3346            mov         param_4,r6                              
ram:0003d674    1821            movs        param_2,#0x18                           
ram:0003d676    2246            mov         param_3,r4                              
ram:0003d678    0020            movs        param_1,#0x0                            
ram:0003d67a    4b43            muls        param_4,param_2                         
ram:0003d67c    bc60            str         r4,[r7,#0x8]=>DAT_20002c48              
ram:0003d67e    1834            adds        r4,#0x18                                
                            LAB_0003d680:                 ;XREF[1,0]:   0003d692
ram:0003d680    c100            lsls        param_2,param_1,#0x3                    
ram:0003d682    8918            adds        param_2,param_2,param_3                 
ram:0003d684    0d70            strb        r5,[param_2,#0x0]                       
ram:0003d686    4d70            strb        r5,[param_2,#0x1]                       
ram:0003d688    8e70            strb        r6,[param_2,#0x2]                       
ram:0003d68a    4c60            str         r4,[param_2,#0x4]                       
ram:0003d68c    1c19            adds        r4,param_4,r4                           
ram:0003d68e    401c            adds        param_1,param_1,#0x1                    
ram:0003d690    0328            cmp         param_1,#0x3                            
ram:0003d692    f5db            blt         LAB_0003d680                            
ram:0003d694    fd60            str         r5,[r7,#0xc]=>DAT_20002c4c              
ram:0003d696    7d70            strb        r5,[r7,#0x1]=>DAT_20002c41              
ram:0003d698    0124            movs        r4,#0x1                                 
ram:0003d69a    7148            ldr         param_1,[DAT_0003d860]                  ;= E000E280h
ram:0003d69c    bd70            strb        r5,[r7,#0x2]=>DAT_20002c42              
ram:0003d69e    2405            lsls        r4,r4,#0x14                             
ram:0003d6a0    0460            str         r4,[param_1,#0x0]=>DAT_e000e280         
ram:0003d6a2    0321            movs        param_2,#0x3                            
ram:0003d6a4    1420            movs        param_1,#0x14                           
ram:0003d6a6    fff7cbfe        bl          FUN_0003d440                            ;undefined FUN_0003d440(uint param_1,...
ram:0003d6aa    6748            ldr         param_1,[DAT_0003d848]                  ;= E000E180h
ram:0003d6ac    8038            subs        param_1,#0x80                           
ram:0003d6ae    0460            str         r4,[param_1,#0x0]=>DAT_e000e100         
ram:0003d6b0    6c4c            ldr         r4,[DAT_0003d864]                       ;= 40011500h
ram:0003d6b2    0198            ldr         param_1,[sp,#local_24+0x28]             
ram:0003d6b4    a060            str         param_1,[r4,#offset DAT_40011508 &0xff] 
ram:0003d6b6    0321            movs        param_2,#0x3                            
ram:0003d6b8    1120            movs        param_1,#0x11                           
ram:0003d6ba    fff7c1fe        bl          FUN_0003d440                            ;undefined FUN_0003d440(uint param_1,...
ram:0003d6be    6068            ldr         param_1,[r4,#offset DAT_40011504 &0xff] 
ram:0003d6c0    3861            str         param_1,[r7,#0x10]=>DAT_20002c50        
ram:0003d6c2    0020            movs        param_1,#0x0                            
                            LAB_0003d6c4:                 ;XREF[1,0]:   0003d6ca
ram:0003d6c4    05b0            add         sp,#0x14                                
ram:0003d6c6    f0bd            pop         {r4,r5,r6,r7,pc}                        
                            LAB_0003d6c8:                 ;XREF[2,0]:   0003d65e,0003d6ce
ram:0003d6c8    0720            movs        param_1,#0x7                            
ram:0003d6ca    fbe7            b           LAB_0003d6c4                            
                            LAB_0003d6cc:                 ;XREF[1,0]:   0003d664
ram:0003d6cc    bd60            str         r5,[r7,#0x8]=>DAT_20002c48              
ram:0003d6ce    fbe7            b           LAB_0003d6c8                            
                            ;************************************************************************************************
                            ;*                                           FUNCTION                                           *
                            ;************************************************************************************************
                            ;undefined4 FUN_0003d6d0(int * param_1, undefined param_2, int param_3)
          ;param_1       int *               r0                      
          ;param_2       undefined           r1                      
          ;param_3       int                 r2                      
                                                          ;XREF[2,0]:   0003caac,0003e990
ram:0003d6d0    604b            ldr         r3,[DAT_0003d854]                       ;= 20002C40h
ram:0003d6d2    9b68            ldr         r3,[r3,#0x8]=>DAT_20002c48              
ram:0003d6d4    002b            cmp         r3,#0x0                                 
ram:0003d6d6    07d0            beq         LAB_0003d6e8                            
ram:0003d6d8    002a            cmp         param_3,#0x0                            
ram:0003d6da    07d0            beq         LAB_0003d6ec                            
ram:0003d6dc    0028            cmp         param_1,#0x0                            
ram:0003d6de    05d0            beq         LAB_0003d6ec                            
ram:0003d6e0    0068            ldr         param_1,[param_1,#0x0]                  
ram:0003d6e2    037c            ldrb        r3,[param_1,#0x10]                      
ram:0003d6e4    002b            cmp         r3,#0x0                                 
ram:0003d6e6    03d0            beq         LAB_0003d6f0                            
                            LAB_0003d6e8:                 ;XREF[1,0]:   0003d6d6
ram:0003d6e8    0820            movs        param_1,#0x8                            
ram:0003d6ea    7047            bx          lr                                      
                            LAB_0003d6ec:                 ;XREF[2,0]:   0003d6da,0003d6de
ram:0003d6ec    0720            movs        param_1,#0x7                            
ram:0003d6ee    7047            bx          lr                                      
                            LAB_0003d6f0:                 ;XREF[1,0]:   0003d6e6
ram:0003d6f0    4174            strb        param_2,[param_1,#0x11]                 
ram:0003d6f2    4261            str         param_3,[param_1,#0x14]                 
ram:0003d6f4    0020            movs        param_1,#0x0                            
ram:0003d6f6    7047            bx          lr                                      
                            ;************************************************************************************************
                            ;*                                           FUNCTION                                           *
                            ;************************************************************************************************
                            ;undefined4 FUN_0003d6f8(void)
                                                          ;XREF[2,0]:   0003d76e,0003d7d0
ram:0003d6f8    eff30580        mrs         r0,ipsr                                 
ram:0003d6fc    c005            lsls        r0,r0,#0x17                             
ram:0003d6fe    c00d            lsrs        r0,r0,#0x17                             
ram:0003d700    1ad0            beq         LAB_0003d738                            
ram:0003d702    1038            subs        r0,#0x10                                
ram:0003d704    40b2            sxtb        r0,r0                                   
ram:0003d706    0028            cmp         r0,#0x0                                 
ram:0003d708    08da            bge         LAB_0003d71c                            
ram:0003d70a    0107            lsls        r1,r0,#0x1c                             
ram:0003d70c    090f            lsrs        r1,r1,#0x1c                             
ram:0003d70e    0839            subs        r1,#0x8                                 
ram:0003d710    8908            lsrs        r1,r1,#0x2                              
ram:0003d712    4b4a            ldr         r2,[DAT_0003d840]                       ;= E000ED00h
ram:0003d714    8900            lsls        r1,r1,#0x2                              
ram:0003d716    8918            adds        r1,r1,r2                                
ram:0003d718    c969            ldr         r1,[r1,#0x1c]                           
ram:0003d71a    04e0            b           LAB_0003d726                            
                            LAB_0003d71c:                 ;XREF[1,0]:   0003d708
ram:0003d71c    8108            lsrs        r1,r0,#0x2                              
ram:0003d71e    494a            ldr         r2,[DAT_0003d844]                       ;= E000E400h
ram:0003d720    8900            lsls        r1,r1,#0x2                              
ram:0003d722    8918            adds        r1,r1,r2                                
ram:0003d724    0968            ldr         r1,[r1,#0x0]                            
                            LAB_0003d726:                 ;XREF[1,0]:   0003d71a
ram:0003d726    8007            lsls        r0,r0,#0x1e                             
ram:0003d728    c00e            lsrs        r0,r0,#0x1b                             
ram:0003d72a    c140            lsrs        r1,r0                                   
ram:0003d72c    0806            lsls        r0,r1,#0x18                             
ram:0003d72e    800f            lsrs        r0,r0,#0x1e                             
ram:0003d730    0128            cmp         r0,#0x1                                 
ram:0003d732    03d0            beq         LAB_0003d73c                            
ram:0003d734    0328            cmp         r0,#0x3                                 
ram:0003d736    03d0            beq         LAB_0003d740                            
                            LAB_0003d738:                 ;XREF[1,0]:   0003d700
ram:0003d738    0220            movs        r0,#0x2                                 
ram:0003d73a    7047            bx          lr                                      
                            LAB_0003d73c:                 ;XREF[1,0]:   0003d732
ram:0003d73c    0020            movs        r0,#0x0                                 
ram:0003d73e    7047            bx          lr                                      
                            LAB_0003d740:                 ;XREF[1,0]:   0003d736
ram:0003d740    0120            movs        r0,#0x1                                 
ram:0003d742    7047            bx          lr                                      
                            ;************************************************************************************************
                            ;*                                           FUNCTION                                           *
                            ;************************************************************************************************
                            ;longlong FUN_0003d744(int param_1, uint param_2, undefined4 param_3, undefined4 param_4)
          ;param_1       int                 r0                      
          ;param_2       uint                r1                      
          ;param_3       undefined4          r2                      
          ;param_4       undefined4          r3                      
          ;local_1c      undefined4         -1c                      ;XREF[2,0]:   0003d776,0003d796
          ;local_20      undefined1         -20                      ;XREF[1,0]:   0003d79e
                                                          ;XREF[3,0]:   0003cb02,0003e860,0003e9a4
ram:0003d744    feb5            push        {param_2,param_3,param_4,r4,r5,r6,r7,lr}
ram:0003d746    0d46            mov         r5,param_2                              
ram:0003d748    4249            ldr         param_2,[DAT_0003d854]                  ;= 20002C40h
ram:0003d74a    1746            mov         r7,param_3                              
ram:0003d74c    8968            ldr         param_2,[param_2,#0x8]=>DAT_20002c48    
ram:0003d74e    0446            mov         r4,param_1                              
ram:0003d750    0029            cmp         param_2,#0x0                            
ram:0003d752    2ad0            beq         LAB_0003d7aa                            
ram:0003d754    002c            cmp         r4,#0x0                                 
ram:0003d756    28d0            beq         LAB_0003d7aa                            
ram:0003d758    052d            cmp         r5,#0x5                                 
ram:0003d75a    01d2            bcs         LAB_0003d760                            
ram:0003d75c    0720            movs        param_1,#0x7                            
ram:0003d75e    febd            pop         {param_2,param_3,param_4,r4,r5,r6,r7,pc}
                            LAB_0003d760:                 ;XREF[1,0]:   0003d75a
ram:0003d760    6069            ldr         param_1,[r4,#0x14]                      
ram:0003d762    0028            cmp         param_1,#0x0                            
ram:0003d764    21d0            beq         LAB_0003d7aa                            
ram:0003d766    607c            ldrb        param_1,[r4,#0x11]                      
ram:0003d768    0128            cmp         param_1,#0x1                            
ram:0003d76a    20d0            beq         LAB_0003d7ae                            
ram:0003d76c    0026            movs        r6,#0x0                                 
                            LAB_0003d76e:                 ;XREF[1,0]:   0003d7b0
ram:0003d76e    fff7c3ff        bl          FUN_0003d6f8                            ;undefined4 FUN_0003d6f8(void)
ram:0003d772    c000            lsls        param_1,param_1,#0x3                    
ram:0003d774    3749            ldr         param_2,[DAT_0003d854]                  ;= 20002C40h
ram:0003d776    0190            str         param_1,[sp,#local_1c+0x20]             
ram:0003d778    8968            ldr         param_2,[param_2,#0x8]=>DAT_20002c48    
ram:0003d77a    4018            adds        param_1,param_1,param_2                 
ram:0003d77c    6946            mov         param_2,sp                              
ram:0003d77e    00f0f3f8        bl          FUN_0003d968                            ;int FUN_0003d968(char * param_1, cha...
ram:0003d782    0028            cmp         param_1,#0x0                            
ram:0003d784    15d0            beq         LAB_0003d7b2                            
ram:0003d786    0121            movs        param_2,#0x1                            
ram:0003d788    0170            strb        param_2,[param_1,#0x0]                  
ram:0003d78a    3649            ldr         param_2,[DAT_0003d864]                  ;= 40011500h
ram:0003d78c    4460            str         r4,[param_1,#0x4]                       
ram:0003d78e    4968            ldr         param_2,[param_2,#offset DAT_40011504...
ram:0003d790    0830            adds        param_1,#0x8                            
ram:0003d792    e2c0            stmia       param_1!,{param_2,r5,r6,r7}             
ram:0003d794    2f49            ldr         param_2,[DAT_0003d854]                  ;= 20002C40h
ram:0003d796    0198            ldr         param_1,[sp,#local_1c+0x20]             
ram:0003d798    8968            ldr         param_2,[param_2,#0x8]=>DAT_20002c48    
ram:0003d79a    4118            adds        param_2,param_1,param_2                 
ram:0003d79c    6846            mov         param_1,sp                              
ram:0003d79e    0078            ldrb        param_1=>local_20,[param_1,#0x0]        
ram:0003d7a0    4870            strb        param_1,[param_2,#0x1]                  
ram:0003d7a2    00f061f8        bl          FUN_0003d868                            ;undefined FUN_0003d868(void)
ram:0003d7a6    0020            movs        param_1,#0x0                            
ram:0003d7a8    febd            pop         {param_2,param_3,param_4,r4,r5,r6,r7,pc}
                            LAB_0003d7aa:                 ;XREF[3,0]:   0003d752,0003d756,0003d764
ram:0003d7aa    0820            movs        param_1,#0x8                            
ram:0003d7ac    febd            pop         {param_2,param_3,param_4,r4,r5,r6,r7,pc}
                            LAB_0003d7ae:                 ;XREF[1,0]:   0003d76a
ram:0003d7ae    2e46            mov         r6,r5                                   
ram:0003d7b0    dde7            b           LAB_0003d76e                            
                            LAB_0003d7b2:                 ;XREF[1,0]:   0003d784
ram:0003d7b2    0420            movs        param_1,#0x4                            
ram:0003d7b4    febd            pop         {param_2,param_3,param_4,r4,r5,r6,r7,pc}
                            ;************************************************************************************************
                            ;*                                           FUNCTION                                           *
                            ;************************************************************************************************
                            ;undefined4 FUN_0003d7b6(int param_1, undefined4 param_2, undefined4 param_3, undefined4 param_4)
          ;param_1       int                 r0                      
          ;param_2       undefined4          r1                      
          ;param_3       undefined4          r2                      
          ;param_4       undefined4          r3                      
          ;local_18      undefined1         -18                      ;XREF[1,0]:   0003d7f0
                                                          ;XREF[4,0]:   0003cab8,0003cb7e,0003e84c,0003eb80
ram:0003d7b6    f8b5            push        {param_4,r4,r5,r6,r7,lr}                
ram:0003d7b8    264d            ldr         r5,[DAT_0003d854]                       ;= 20002C40h
ram:0003d7ba    0446            mov         r4,param_1                              
ram:0003d7bc    a968            ldr         param_2,[r5,#0x8]=>DAT_20002c48         
ram:0003d7be    0029            cmp         param_2,#0x0                            
ram:0003d7c0    1cd0            beq         LAB_0003d7fc                            
ram:0003d7c2    002c            cmp         r4,#0x0                                 
ram:0003d7c4    1ad0            beq         LAB_0003d7fc                            
ram:0003d7c6    6069            ldr         param_1,[r4,#0x14]                      
ram:0003d7c8    0028            cmp         param_1,#0x0                            
ram:0003d7ca    17d0            beq         LAB_0003d7fc                            
ram:0003d7cc    0026            movs        r6,#0x0                                 
ram:0003d7ce    2674            strb        r6,[r4,#0x10]                           
ram:0003d7d0    fff792ff        bl          FUN_0003d6f8                            ;undefined4 FUN_0003d6f8(void)
ram:0003d7d4    c700            lsls        r7,param_1,#0x3                         
ram:0003d7d6    a868            ldr         param_1,[r5,#0x8]=>DAT_20002c48         
ram:0003d7d8    6946            mov         param_2,sp                              
ram:0003d7da    3818            adds        param_1,r7,param_1                      
ram:0003d7dc    00f0c4f8        bl          FUN_0003d968                            ;int FUN_0003d968(char * param_1, cha...
ram:0003d7e0    0028            cmp         param_1,#0x0                            
ram:0003d7e2    0dd0            beq         LAB_0003d800                            
ram:0003d7e4    0221            movs        param_2,#0x2                            
ram:0003d7e6    0170            strb        param_2,[param_1,#0x0]                  
ram:0003d7e8    4460            str         r4,[param_1,#0x4]                       
ram:0003d7ea    a868            ldr         param_1,[r5,#0x8]=>DAT_20002c48         
ram:0003d7ec    3918            adds        param_2,r7,param_1                      
ram:0003d7ee    6846            mov         param_1,sp                              
ram:0003d7f0    0078            ldrb        param_1=>local_18,[param_1,#0x0]        
ram:0003d7f2    4870            strb        param_1,[param_2,#0x1]                  
ram:0003d7f4    00f038f8        bl          FUN_0003d868                            ;undefined FUN_0003d868(void)
ram:0003d7f8    3046            mov         param_1,r6                              
ram:0003d7fa    f8bd            pop         {param_4,r4,r5,r6,r7,pc}                
                            LAB_0003d7fc:                 ;XREF[3,0]:   0003d7c0,0003d7c4,0003d7ca
ram:0003d7fc    0820            movs        param_1,#0x8                            
ram:0003d7fe    f8bd            pop         {param_4,r4,r5,r6,r7,pc}                
                            LAB_0003d800:                 ;XREF[1,0]:   0003d7e2
ram:0003d800    0420            movs        param_1,#0x4                            
ram:0003d802    f8bd            pop         {param_4,r4,r5,r6,r7,pc}                
                            ;************************************************************************************************
                            ;*                                           FUNCTION                                           *
                            ;************************************************************************************************
                            ;undefined FUN_0003d804(uint * param_1)
          ;param_1       uint *              r0                      
                                                          ;XREF[1,0]:   0003d600
ram:0003d804    10b5            push        {r4,lr}                                 
ram:0003d806    134b            ldr         r3,[DAT_0003d854]                       ;= 20002C40h
ram:0003d808    d968            ldr         r1,[r3,#0xc]=>DAT_20002c4c              
ram:0003d80a    0029            cmp         r1,#0x0                                 
ram:0003d80c    06d0            beq         LAB_0003d81c                            
ram:0003d80e    0268            ldr         r2,[param_1,#0x0]                       
ram:0003d810    0c68            ldr         r4,[r1,#0x0]                            
ram:0003d812    a242            cmp         r2,r4                                   
ram:0003d814    04d8            bhi         LAB_0003d820                            
ram:0003d816    a21a            subs        r2,r4,r2                                
ram:0003d818    0a60            str         r2,[r1,#0x0]                            
ram:0003d81a    c161            str         r1,[param_1,#0x1c]                      
                            LAB_0003d81c:                 ;XREF[1,0]:   0003d80c
ram:0003d81c    d860            str         param_1,[r3,#0xc]=>DAT_20002c4c         
ram:0003d81e    10bd            pop         {r4,pc}                                 
                            LAB_0003d820:                 ;XREF[1,0]:   0003d814
ram:0003d820    0b46            mov         r3,r1                                   
ram:0003d822    04e0            b           LAB_0003d82e                            
                            LAB_0003d824:                 ;XREF[1,0]:   0003d832
ram:0003d824    0b46            mov         r3,r1                                   
ram:0003d826    c969            ldr         r1,[r1,#0x1c]                           
ram:0003d828    121b            subs        r2,r2,r4                                
ram:0003d82a    0029            cmp         r1,#0x0                                 
ram:0003d82c    04d0            beq         LAB_0003d838                            
                            LAB_0003d82e:                 ;XREF[1,0]:   0003d822
ram:0003d82e    0c68            ldr         r4,[r1,#0x0]                            
ram:0003d830    9442            cmp         r4,r2                                   
ram:0003d832    f7d3            bcc         LAB_0003d824                            
ram:0003d834    a41a            subs        r4,r4,r2                                
ram:0003d836    0c60            str         r4,[r1,#0x0]                            
                            LAB_0003d838:                 ;XREF[1,0]:   0003d82c
ram:0003d838    0260            str         r2,[param_1,#0x0]                       
ram:0003d83a    c161            str         r1,[param_1,#0x1c]                      
ram:0003d83c    d861            str         param_1,[r3,#0x1c]                      
                            LAB_0003d83e:                 ;XREF[2,0]:   0003d9c0,0003d9c6
ram:0003d83e    10bd            pop         {r4,pc}                                 
                            DAT_0003d840:                 ;XREF[2,0]:   0003d45a,0003d712
ram:0003d840    00ed00e0        undefined4  E000ED00h                               
                            DAT_0003d844:                 ;XREF[2,0]:   0003d46c,0003d71e
ram:0003d844    00e400e0        undefined4  E000E400h                               
                            DAT_0003d848:                 ;XREF[2,0]:   0003d480,0003d6aa
ram:0003d848    80e100e0        undefined4  E000E180h                               
                            DAT_0003d84c:                 ;XREF[2,0]:   0003d486,0003d48c
ram:0003d84c    40130140        undefined4  40011340h                               
                            DAT_0003d850:                 ;XREF[2,0]:   0003d492,0003d512
ram:0003d850    00100140        undefined4  40011000h                               
                            DAT_0003d854:                 ;XREF[15,0]:  0003d49e,0003d4b0,0003d54c,0003d566
                                                          ;             0003d572,0003d5bc,0003d5c6,0003d61a
                                                          ;             0003d660,0003d6d0,0003d748,0003d774
                                                          ;             0003d794,0003d7b8,0003d806
ram:0003d854    402c0020        undefined4  20002C40h                               
                            DAT_0003d858:                 ;XREF[1,0]:   0003d5d2
ram:0003d858    ffff7f00        undefined4  007FFFFFh                               
                            DAT_0003d85c:                 ;XREF[2,0]:   0003d62e,0003d63a
ram:0003d85c    40110140        undefined4  40011140h                               
                            DAT_0003d860:                 ;XREF[1,0]:   0003d69a
ram:0003d860    80e200e0        undefined4  E000E280h                               
                            DAT_0003d864:                 ;XREF[2,0]:   0003d6b0,0003d78a
ram:0003d864    00150140        undefined4  40011500h                               
                            ;************************************************************************************************
                            ;*                                           FUNCTION                                           *
                            ;************************************************************************************************
                            ;undefined FUN_0003d868(void)
                                                          ;XREF[3,0]:   0003d7a2,0003d7f4,0003d8e2
ram:0003d868    0120            movs        r0,#0x1                                 
ram:0003d86a    7b49            ldr         r1,[DAT_0003da58]                       ;= E000E200h
ram:0003d86c    0005            lsls        r0,r0,#0x14                             
ram:0003d86e    0860            str         r0,[r1,#0x0]=>DAT_e000e200              
ram:0003d870    7047            bx          lr                                      
                            ;************************************************************************************************
                            ;*                                           FUNCTION                                           *
                            ;************************************************************************************************
                            ;undefined FUN_0003d872(void)
                                                          ;XREF[1,0]:   0003d642
ram:0003d872    f8b5            push        {r3,r4,r5,r6,r7,lr}                     
ram:0003d874    794d            ldr         r5,[DAT_0003da5c]                       ;= 20002C40h
ram:0003d876    ec68            ldr         r4,[r5,#0xc]=>DAT_20002c4c              
ram:0003d878    002c            cmp         r4,#0x0                                 
ram:0003d87a    34d0            beq         LAB_0003d8e6                            
ram:0003d87c    7848            ldr         r0,[DAT_0003da60]                       ;= 40011500h
ram:0003d87e    0027            movs        r7,#0x0                                 
ram:0003d880    4068            ldr         r0,[r0,#offset DAT_40011504 &0xff]      
ram:0003d882    2969            ldr         r1,[r5,#0x10]=>DAT_20002c50             
ram:0003d884    401a            subs        r0,r0,r1                                
ram:0003d886    0602            lsls        r6,r0,#0x8                              
ram:0003d888    360a            lsrs        r6,r6,#0x8                              
                            LAB_0003d88a:                 ;XREF[1,0]:   0003d8c0
ram:0003d88a    2068            ldr         r0,[r4,#0x0]                            
ram:0003d88c    b042            cmp         r0,r6                                   
ram:0003d88e    18d8            bhi         LAB_0003d8c2                            
ram:0003d890    361a            subs        r6,r6,r0                                
ram:0003d892    c719            adds        r7,r0,r7                                
ram:0003d894    2246            mov         r2,r4                                   
ram:0003d896    107c            ldrb        r0,[r2,#0x10]                           
ram:0003d898    e469            ldr         r4,[r4,#0x1c]                           
ram:0003d89a    0028            cmp         r0,#0x0                                 
ram:0003d89c    0fd0            beq         LAB_0003d8be                            
ram:0003d89e    0020            movs        r0,#0x0                                 
ram:0003d8a0    1074            strb        r0,[r2,#0x10]                           
ram:0003d8a2    6b69            ldr         r3,[r5,#0x14]=>DAT_20002c54             
ram:0003d8a4    002b            cmp         r3,#0x0                                 
ram:0003d8a6    07d0            beq         LAB_0003d8b8                            
ram:0003d8a8    9169            ldr         r1,[r2,#0x18]                           
ram:0003d8aa    5069            ldr         r0,[r2,#0x14]                           
ram:0003d8ac    9847            blx         r3                                      
ram:0003d8ae    0028            cmp         r0,#0x0                                 
ram:0003d8b0    05d0            beq         LAB_0003d8be                            
ram:0003d8b2    fff71bfd        bl          FUN_0003d2ec                            ;undefined FUN_0003d2ec(void)
ram:0003d8b6    02e0            b           LAB_0003d8be                            
                            LAB_0003d8b8:                 ;XREF[1,0]:   0003d8a6
ram:0003d8b8    5169            ldr         r1,[r2,#0x14]                           
ram:0003d8ba    9069            ldr         r0,[r2,#0x18]                           
ram:0003d8bc    8847            blx         r1                                      
                            LAB_0003d8be:                 ;XREF[3,0]:   0003d89c,0003d8b0,0003d8b6
ram:0003d8be    002c            cmp         r4,#0x0                                 
ram:0003d8c0    e3d1            bne         LAB_0003d88a                            
                            LAB_0003d8c2:                 ;XREF[1,0]:   0003d88e
ram:0003d8c2    6978            ldrb        r1,[r5,#0x1]=>DAT_20002c41              
ram:0003d8c4    a878            ldrb        r0,[r5,#0x2]=>DAT_20002c42              
ram:0003d8c6    8142            cmp         r1,r0                                   
ram:0003d8c8    06d1            bne         LAB_0003d8d8                            
ram:0003d8ca    401c            adds        r0,r0,#0x1                              
ram:0003d8cc    c0b2            uxtb        r0,r0                                   
ram:0003d8ce    a870            strb        r0,[r5,#0x2]=>DAT_20002c42              
ram:0003d8d0    0228            cmp         r0,#0x2                                 
ram:0003d8d2    01d1            bne         LAB_0003d8d8                            
ram:0003d8d4    0020            movs        r0,#0x0                                 
ram:0003d8d6    a870            strb        r0,[r5,#0x2]=>DAT_20002c42              
                            LAB_0003d8d8:                 ;XREF[2,0]:   0003d8c8,0003d8d2
ram:0003d8d8    6049            ldr         r1,[DAT_0003da5c]                       ;= 20002C40h
ram:0003d8da    0006            lsls        r0,r0,#0x18                             
ram:0003d8dc    800d            lsrs        r0,r0,#0x16                             
ram:0003d8de    1831            adds        r1=>DAT_20002c58,#0x18                  
ram:0003d8e0    0f50            str         r7,[r1,r0]=>DAT_20002c58                
ram:0003d8e2    fff7c1ff        bl          FUN_0003d868                            ;undefined FUN_0003d868(void)
                            LAB_0003d8e6:                 ;XREF[1,0]:   0003d87a
ram:0003d8e6    f8bd            pop         {r3,r4,r5,r6,r7,pc}                     
                            ;************************************************************************************************
                            ;*                                           FUNCTION                                           *
                            ;************************************************************************************************
                            ;undefined FUN_0003d8e8(undefined4 param_1, uint param_2, undefined4 param_3)
          ;param_1       undefined4          r0                      
          ;param_2       uint                r1                      
          ;param_3       undefined4          r2                      
          ;local_18      undefined4         -18                      ;XREF[2,0]:   0003d8f2,0003d95c
          ;local_1c      undefined4         -1c                      ;XREF[2,0]:   0003d8fa,0003d902
          ;local_20      undefined4         -20                      ;XREF[1,0]:   0003d90a
                                                          ;XREF[1,0]:   0003d64a
ram:0003d8e8    feb5            push        {param_2,param_3,r3,r4,r5,r6,r7,lr}     
ram:0003d8ea    5c4c            ldr         r4,[DAT_0003da5c]                       ;= 20002C40h
ram:0003d8ec    0025            movs        r5,#0x0                                 
ram:0003d8ee    2769            ldr         r7,[r4,#0x10]=>DAT_20002c50             
ram:0003d8f0    e068            ldr         param_1,[r4,#0xc]=>DAT_20002c4c         
ram:0003d8f2    0290            str         param_1,[sp,#local_18+0x20]             
ram:0003d8f4    6846            mov         param_1,sp                              
ram:0003d8f6    00f04af8        bl          FUN_0003d98e                            ;undefined4 FUN_0003d98e(int * param_1)
ram:0003d8fa    0190            str         param_1,[sp,#local_1c+0x20]             
ram:0003d8fc    fff7d7fd        bl          FUN_0003d4ae                            ;undefined4 FUN_0003d4ae(void)
ram:0003d900    0646            mov         r6,param_1                              
ram:0003d902    0198            ldr         param_1,[sp,#local_1c+0x20]             
ram:0003d904    0028            cmp         param_1,#0x0                            
ram:0003d906    22d0            beq         LAB_0003d94e                            
ram:0003d908    0023            movs        r3,#0x0                                 
ram:0003d90a    0098            ldr         param_1,[sp,#0x0]=>local_20             
ram:0003d90c    e168            ldr         param_2,[r4,#0xc]=>DAT_20002c4c         
ram:0003d90e    17e0            b           LAB_0003d940                            
                            LAB_0003d910:                 ;XREF[1,0]:   0003d942
ram:0003d910    0e68            ldr         r6,[param_2,#0x0]                       
ram:0003d912    0a46            mov         param_3,param_2                         
ram:0003d914    8642            cmp         r6,param_1                              
ram:0003d916    02d9            bls         LAB_0003d91e                            
ram:0003d918    301a            subs        param_1,r6,param_1                      
ram:0003d91a    0860            str         param_1,[param_2,#0x0]                  
ram:0003d91c    12e0            b           LAB_0003d944                            
                            LAB_0003d91e:                 ;XREF[1,0]:   0003d916
ram:0003d91e    801b            subs        param_1,param_1,r6                      
ram:0003d920    f318            adds        r3,r6,r3                                
ram:0003d922    0026            movs        r6,#0x0                                 
ram:0003d924    1660            str         r6,[param_3,#0x0]                       
ram:0003d926    d668            ldr         r6,[param_3,#0xc]                       
ram:0003d928    d169            ldr         param_2,[param_3,#0x1c]                 
ram:0003d92a    b446            mov         r12,r6                                  
ram:0003d92c    002e            cmp         r6,#0x0                                 
ram:0003d92e    07d0            beq         LAB_0003d940                            
ram:0003d930    fe18            adds        r6,r7,r3                                
ram:0003d932    3602            lsls        r6,r6,#0x8                              
ram:0003d934    360a            lsrs        r6,r6,#0x8                              
ram:0003d936    5660            str         r6,[param_3,#0x4]                       
ram:0003d938    6646            mov         r6,r12                                  
ram:0003d93a    9660            str         r6,[param_3,#0x8]                       
ram:0003d93c    d561            str         r5,[param_3,#0x1c]                      
ram:0003d93e    1546            mov         r5,param_3                              
                            LAB_0003d940:                 ;XREF[2,0]:   0003d90e,0003d92e
ram:0003d940    0029            cmp         param_2,#0x0                            
ram:0003d942    e5d1            bne         LAB_0003d910                            
                            LAB_0003d944:                 ;XREF[1,0]:   0003d91c
ram:0003d944    2846            mov         param_1,r5                              
ram:0003d946    e160            str         param_2,[r4,#0xc]=>DAT_20002c4c         
ram:0003d948    fff70bfe        bl          FUN_0003d562                            ;undefined4 FUN_0003d562(uint * param_1)
ram:0003d94c    06e0            b           LAB_0003d95c                            
                            LAB_0003d94e:                 ;XREF[1,0]:   0003d906
ram:0003d94e    2846            mov         param_1,r5                              
ram:0003d950    fff707fe        bl          FUN_0003d562                            ;undefined4 FUN_0003d562(uint * param_1)
ram:0003d954    0028            cmp         param_1,#0x0                            
ram:0003d956    01d1            bne         LAB_0003d95c                            
ram:0003d958    002e            cmp         r6,#0x0                                 
ram:0003d95a    02d0            beq         LAB_0003d962                            
                            LAB_0003d95c:                 ;XREF[2,0]:   0003d94c,0003d956
ram:0003d95c    0298            ldr         param_1,[sp,#local_18+0x20]             
ram:0003d95e    00f033f8        bl          FUN_0003d9c8                            ;undefined FUN_0003d9c8(void)
                            LAB_0003d962:                 ;XREF[1,0]:   0003d95a
ram:0003d962    0020            movs        param_1,#0x0                            
ram:0003d964    2071            strb        param_1,[r4,#0x4]=>DAT_20002c44         
ram:0003d966    febd            pop         {param_2,param_3,r3,r4,r5,r6,r7,pc}     
                            ;************************************************************************************************
                            ;*                                           FUNCTION                                           *
                            ;************************************************************************************************
                            ;int FUN_0003d968(char * param_1, char * param_2)
          ;param_1       char *              r0                      
          ;param_2       char *              r1                      
                                                          ;XREF[2,0]:   0003d77e,0003d7dc
ram:0003d968    4278            ldrb        r2,[param_1,#0x1]                       
ram:0003d96a    8378            ldrb        r3,[param_1,#0x2]                       
ram:0003d96c    521c            adds        r2,r2,#0x1                              
ram:0003d96e    d2b2            uxtb        r2,r2                                   
ram:0003d970    9342            cmp         r3,r2                                   
ram:0003d972    00d1            bne         LAB_0003d976                            
ram:0003d974    0022            movs        r2,#0x0                                 
                            LAB_0003d976:                 ;XREF[1,0]:   0003d972
ram:0003d976    0378            ldrb        r3,[param_1,#0x0]                       
ram:0003d978    9342            cmp         r3,r2                                   
ram:0003d97a    01d1            bne         LAB_0003d980                            
ram:0003d97c    0020            movs        param_1,#0x0                            
ram:0003d97e    7047            bx          lr                                      
                            LAB_0003d980:                 ;XREF[1,0]:   0003d97a
ram:0003d980    0a70            strb        r2,[param_2,#0x0]                       
ram:0003d982    4168            ldr         param_2,[param_1,#0x4]                  
ram:0003d984    4078            ldrb        param_1,[param_1,#0x1]                  
ram:0003d986    1822            movs        r2,#0x18                                
ram:0003d988    5043            muls        param_1,r2                              
ram:0003d98a    0818            adds        param_1,param_2,param_1                 
ram:0003d98c    7047            bx          lr                                      
                            ;************************************************************************************************
                            ;*                                           FUNCTION                                           *
                            ;************************************************************************************************
                            ;undefined4 FUN_0003d98e(int * param_1)
          ;param_1       int *               r0                      
                                                          ;XREF[1,0]:   0003d8f6
ram:0003d98e    10b5            push        {r4,lr}                                 
ram:0003d990    3249            ldr         r1,[DAT_0003da5c]                       ;= 20002C40h
ram:0003d992    0023            movs        r3,#0x0                                 
ram:0003d994    4a78            ldrb        r2,[r1,#0x1]=>DAT_20002c41              
ram:0003d996    8c78            ldrb        r4,[r1,#0x2]=>DAT_20002c42              
ram:0003d998    a242            cmp         r2,r4                                   
ram:0003d99a    12d0            beq         LAB_0003d9c2                            
ram:0003d99c    521c            adds        r2,r2,#0x1                              
ram:0003d99e    d2b2            uxtb        r2,r2                                   
ram:0003d9a0    4a70            strb        r2,[r1,#0x1]=>DAT_20002c41              
ram:0003d9a2    022a            cmp         r2,#0x2                                 
ram:0003d9a4    00d1            bne         LAB_0003d9a8                            
ram:0003d9a6    4b70            strb        r3,[r1,#0x1]=>DAT_20002c41              
                            LAB_0003d9a8:                 ;XREF[1,0]:   0003d9a4
ram:0003d9a8    4a78            ldrb        r2,[r1,#0x1]=>DAT_20002c41              
ram:0003d9aa    2c4b            ldr         r3,[DAT_0003da5c]                       ;= 20002C40h
ram:0003d9ac    9200            lsls        r2,r2,#0x2                              
ram:0003d9ae    1833            adds        r3,#0x18                                
ram:0003d9b0    9a58            ldr         r2,[r3,r2]=>DAT_20002c58                
ram:0003d9b2    0260            str         r2,[param_1,#0x0]                       
ram:0003d9b4    0869            ldr         param_1,[r1,#0x10]=>DAT_20002c50        
ram:0003d9b6    1018            adds        param_1,r2,param_1                      
ram:0003d9b8    0002            lsls        param_1,param_1,#0x8                    
ram:0003d9ba    000a            lsrs        param_1,param_1,#0x8                    
ram:0003d9bc    0861            str         param_1,[r1,#0x10]=>DAT_20002c50        
ram:0003d9be    0120            movs        param_1,#0x1                            
ram:0003d9c0    3de7            b           LAB_0003d83e                            
                            LAB_0003d9c2:                 ;XREF[1,0]:   0003d99a
ram:0003d9c2    0360            str         r3,[param_1,#0x0]                       
ram:0003d9c4    0020            movs        param_1,#0x0                            
ram:0003d9c6    3ae7            b           LAB_0003d83e                            
                            ;************************************************************************************************
                            ;*                                           FUNCTION                                           *
                            ;************************************************************************************************
                            ;undefined FUN_0003d9c8(void)
                                                          ;XREF[1,0]:   0003d95e
ram:0003d9c8    f8b5            push        {r3,r4,r5,r6,r7,lr}                     
ram:0003d9ca    2448            ldr         r0=>DAT_20002c40,[DAT_0003da5c]         ;= 20002C40h
ram:0003d9cc    c168            ldr         r1,[r0,#0xc]=>DAT_20002c4c              
ram:0003d9ce    0029            cmp         r1,#0x0                                 
ram:0003d9d0    3ed0            beq         LAB_0003da50                            
ram:0003d9d2    0e68            ldr         r6,[r1,#0x0]                            
ram:0003d9d4    2249            ldr         r1,[DAT_0003da60]                       ;= 40011500h
ram:0003d9d6    4c68            ldr         r4,[r1,#offset DAT_40011504 &0xff]      
ram:0003d9d8    0769            ldr         r7,[r0,#0x10]=>DAT_20002c50             
ram:0003d9da    c078            ldrb        r0,[r0,#0x3]=>DAT_20002c43              
ram:0003d9dc    e11b            subs        r1,r4,r7                                
ram:0003d9de    0d02            lsls        r5,r1,#0x8                              
ram:0003d9e0    2d0a            lsrs        r5,r5,#0x8                              
ram:0003d9e2    ed1c            adds        r5,r5,#0x3                              
ram:0003d9e4    0028            cmp         r0,#0x0                                 
ram:0003d9e6    15d1            bne         LAB_0003da14                            
ram:0003d9e8    0120            movs        r0,#0x1                                 
ram:0003d9ea    1e4a            ldr         r2,[DAT_0003da64]                       ;= 40011340h
ram:0003d9ec    0004            lsls        r0,r0,#0x10                             
ram:0003d9ee    5060            str         r0,[r2,#0x4]=>DAT_40011344              
ram:0003d9f0    1c4a            ldr         r2,[DAT_0003da64]                       ;= 40011340h
ram:0003d9f2    403a            subs        r2,#0x40                                
ram:0003d9f4    5060            str         r0,[r2,#offset DAT_40011304 &0xff]      
ram:0003d9f6    1849            ldr         r1,[DAT_0003da58]                       ;= E000E200h
ram:0003d9f8    4000            lsls        r0,r0,#0x1                              
ram:0003d9fa    8031            adds        r1,#0x80                                
ram:0003d9fc    0860            str         r0,[r1,#0x0]=>DAT_e000e280              
ram:0003d9fe    1a49            ldr         r1,[DAT_0003da68]                       ;= E000E100h
ram:0003da00    0860            str         r0,[r1,#0x0]=>DAT_e000e100              
ram:0003da02    1a49            ldr         r1=>DAT_40011000,[DAT_0003da6c]         ;= 40011000h
ram:0003da04    0120            movs        r0,#0x1                                 
ram:0003da06    0860            str         r0,[r1,#0x0]=>DAT_40011000              
ram:0003da08    2f20            movs        r0,#0x2f                                
ram:0003da0a    fef785fb        bl          FUN_0003c118                            ;undefined FUN_0003c118(int param_1)
ram:0003da0e    1349            ldr         r1,[DAT_0003da5c]                       ;= 20002C40h
ram:0003da10    0120            movs        r0,#0x1                                 
ram:0003da12    c870            strb        r0,[r1,#0x3]=>DAT_20002c43              
                            LAB_0003da14:                 ;XREF[1,0]:   0003d9e6
ram:0003da14    b542            cmp         r5,r6                                   
ram:0003da16    00d2            bcs         LAB_0003da1a                            
ram:0003da18    3546            mov         r5,r6                                   
                            LAB_0003da1a:                 ;XREF[1,0]:   0003da16
ram:0003da1a    e819            adds        r0,r5,r7                                
ram:0003da1c    0002            lsls        r0,r0,#0x8                              
ram:0003da1e    104b            ldr         r3,[DAT_0003da60]                       ;= 40011500h
ram:0003da20    000a            lsrs        r0,r0,#0x8                              
ram:0003da22    4033            adds        r3=>DAT_40011540,#0x40                  
ram:0003da24    1860            str         r0,[r3,#0x0]=>DAT_40011540              
ram:0003da26    0e4a            ldr         r2,[DAT_0003da60]                       ;= 40011500h
ram:0003da28    5168            ldr         r1,[r2,#offset DAT_40011504 &0xff]      
ram:0003da2a    001b            subs        r0,r0,r4                                
ram:0003da2c    091b            subs        r1,r1,r4                                
ram:0003da2e    0902            lsls        r1,r1,#0x8                              
ram:0003da30    090a            lsrs        r1,r1,#0x8                              
ram:0003da32    0002            lsls        r0,r0,#0x8                              
ram:0003da34    000a            lsrs        r0,r0,#0x8                              
ram:0003da36    c91c            adds        r1,r1,#0x3                              
ram:0003da38    8142            cmp         r1,r0                                   
ram:0003da3a    08d9            bls         LAB_0003da4e                            
ram:0003da3c    5068            ldr         r0,[r2,#offset DAT_40011504 &0xff]      
ram:0003da3e    1860            str         r0,[r3,#0x0]=>DAT_40011540              
ram:0003da40    2f20            movs        r0,#0x2f                                
ram:0003da42    fef769fb        bl          FUN_0003c118                            ;undefined FUN_0003c118(int param_1)
ram:0003da46    0120            movs        r0,#0x1                                 
ram:0003da48    0349            ldr         r1,[DAT_0003da58]                       ;= E000E200h
ram:0003da4a    4004            lsls        r0,r0,#0x11                             
ram:0003da4c    0860            str         r0,[r1,#0x0]=>DAT_e000e200              
                            LAB_0003da4e:                 ;XREF[1,0]:   0003da3a
ram:0003da4e    f8bd            pop         {r3,r4,r5,r6,r7,pc}                     
                            LAB_0003da50:                 ;XREF[1,0]:   0003d9d0
ram:0003da50    fff714fd        bl          FUN_0003d47c                            ;undefined FUN_0003d47c(void)
ram:0003da54    f8bd            pop         {r3,r4,r5,r6,r7,pc}                     
ram:0003da56    0000            movs        r0,r0                                   
                            DAT_0003da58:                 ;XREF[3,0]:   0003d86a,0003d9f6,0003da48
ram:0003da58    00e200e0        undefined4  E000E200h                               
                            DAT_0003da5c:                 ;XREF[7,0]:   0003d874,0003d8d8,0003d8ea,0003d990
                                                          ;             0003d9aa,0003d9ca,0003da0e
ram:0003da5c    402c0020        undefined4  20002C40h                               
                            DAT_0003da60:                 ;XREF[4,0]:   0003d87c,0003d9d4,0003da1e,0003da26
ram:0003da60    00150140        undefined4  40011500h                               
                            DAT_0003da64:                 ;XREF[2,0]:   0003d9ea,0003d9f0
ram:0003da64    40130140        undefined4  40011340h                               
                            DAT_0003da68:                 ;XREF[1,0]:   0003d9fe
ram:0003da68    00e100e0        undefined4  E000E100h                               
                            DAT_0003da6c:                 ;XREF[1,0]:   0003da02
ram:0003da6c    00100140        undefined4  40011000h                               
                            ;************************************************************************************************
                            ;*                                           FUNCTION                                           *
                            ;************************************************************************************************
                            ;undefined FUN_0003da70(undefined * * param_1, int param_2)
          ;param_1       undefined * *       r0                      
          ;param_2       int                 r1                      
ram:0003da70    10b5            push        {r4,lr}                                 
ram:0003da72    0446            mov         r4,param_1                              
ram:0003da74    0829            cmp         param_2,#0x8                            
ram:0003da76    02d0            beq         LAB_0003da7e                            
ram:0003da78    0020            movs        param_1,#0x0                            
ram:0003da7a    fff737fc        bl          FUN_0003d2ec                            ;undefined FUN_0003d2ec(void)
                            LAB_0003da7e:                 ;XREF[1,0]:   0003da76
ram:0003da7e    2168            ldr         param_2,[r4,#0x0]                       
ram:0003da80    6068            ldr         param_1,[r4,#0x4]                       
ram:0003da82    8847            blx         param_2                                 
ram:0003da84    10bd            pop         {r4,pc}                                 
                            ;************************************************************************************************
                            ;*                                           FUNCTION                                           *
                            ;************************************************************************************************
                            ;undefined FUN_0003da86(undefined4 param_1, undefined4 param_2)
          ;param_1       undefined4          r0                      
          ;param_2       undefined4          r1                      
          ;local_c       undefined4          -c                      ;XREF[1,0]:   0003da88
          ;local_10      undefined4         -10                      ;XREF[1,0]:   0003da8a
ram:0003da86    1cb5            push        {r2,r3,r4,lr}                           
ram:0003da88    0191            str         param_2,[sp,#local_c+0x10]              
ram:0003da8a    0090            str         param_1,[sp,#0x0]=>local_10             
ram:0003da8c    024a            ldr         r2,[DAT_0003da98]                       ;= 0003DA71h
ram:0003da8e    0821            movs        param_2,#0x8                            
ram:0003da90    6846            mov         param_1,sp                              
ram:0003da92    fff759fc        bl          FUN_0003d348                            ;undefined4 FUN_0003d348(undefined4 *...
ram:0003da96    1cbd            pop         {r2,r3,r4,pc}                           
                            DAT_0003da98:                 ;XREF[1,0]:   0003da8c
ram:0003da98    71da0300        undefined4  0003DA71h                               ;?  ->  0003da71
                            ;************************************************************************************************
                            ;*                                           FUNCTION                                           *
                            ;************************************************************************************************
                            ;undefined FUN_0003da9c(undefined * param_1)
          ;param_1       undefined *         r0                      
                                                          ;XREF[1,0]:   0003d35e
ram:0003da9c    30b5            push        {r4,r5,lr}                              
ram:0003da9e    eff31081        mrs         r1,primask                              
ram:0003daa2    72b6            cpsid       i                                       
ram:0003daa4    134a            ldr         r2,[DAT_0003daf4]                       ;= 20002CCCh
ram:0003daa6    5468            ldr         r4,[r2,#0x4]=>DAT_20002cd0              
ram:0003daa8    0123            movs        r3,#0x1                                 
ram:0003daaa    002c            cmp         r4,#0x0                                 
ram:0003daac    04d0            beq         LAB_0003dab8                            
ram:0003daae    0370            strb        r3,[param_1,#0x0]                       
                            LAB_0003dab0:                 ;XREF[1,0]:   0003daca
ram:0003dab0    0029            cmp         r1,#0x0                                 
ram:0003dab2    00d1            bne         LAB_0003dab6                            
ram:0003dab4    62b6            cpsie       i                                       
                            LAB_0003dab6:                 ;XREF[1,0]:   0003dab2
ram:0003dab6    30bd            pop         {r4,r5,pc}                              
                            LAB_0003dab8:                 ;XREF[1,0]:   0003daac
ram:0003dab8    5360            str         r3,[r2,#0x4]=>DAT_20002cd0              
ram:0003daba    0f4b            ldr         r3,[DAT_0003daf8]                       ;= E000E180h
ram:0003dabc    1d68            ldr         r5,[r3,#0x0]=>DAT_e000e180              
ram:0003dabe    0f4c            ldr         r4,[DAT_0003dafc]                       ;= BCFF06FCh
ram:0003dac0    2540            ands        r5,r4                                   
ram:0003dac2    1560            str         r5,[r2,#0x0]=>DAT_20002ccc              
ram:0003dac4    1c60            str         r4,[r3,#0x0]=>DAT_e000e180              
ram:0003dac6    0022            movs        r2,#0x0                                 
ram:0003dac8    0270            strb        r2,[param_1,#0x0]                       
ram:0003daca    f1e7            b           LAB_0003dab0                            
                            ;************************************************************************************************
                            ;*                                           FUNCTION                                           *
                            ;************************************************************************************************
                            ;undefined FUN_0003dacc(int param_1)
          ;param_1       int                 r0                      
                                                          ;XREF[2,0]:   0003d37c,0003d396
ram:0003dacc    0949            ldr         r1,[DAT_0003daf4]                       ;= 20002CCCh
ram:0003dace    4a68            ldr         r2,[r1,#0x4]=>DAT_20002cd0              
ram:0003dad0    002a            cmp         r2,#0x0                                 
ram:0003dad2    0dd0            beq         LAB_0003daf0                            
ram:0003dad4    0028            cmp         param_1,#0x0                            
ram:0003dad6    0bd1            bne         LAB_0003daf0                            
ram:0003dad8    eff31080        mrs         param_1,primask                         
ram:0003dadc    72b6            cpsid       i                                       
ram:0003dade    0a68            ldr         r2,[r1,#0x0]=>DAT_20002ccc              
ram:0003dae0    054b            ldr         r3,[DAT_0003daf8]                       ;= E000E180h
ram:0003dae2    803b            subs        r3,#0x80                                
ram:0003dae4    1a60            str         r2,[r3,#0x0]=>DAT_e000e100              
ram:0003dae6    0022            movs        r2,#0x0                                 
ram:0003dae8    4a60            str         r2,[r1,#0x4]=>DAT_20002cd0              
ram:0003daea    0028            cmp         param_1,#0x0                            
ram:0003daec    00d1            bne         LAB_0003daf0                            
ram:0003daee    62b6            cpsie       i                                       
                            LAB_0003daf0:                 ;XREF[3,0]:   0003dad2,0003dad6,0003daec
ram:0003daf0    7047            bx          lr                                      
ram:0003daf2    0000            movs        r0,r0                                   
                            DAT_0003daf4:                 ;XREF[2,0]:   0003daa4,0003dacc
ram:0003daf4    cc2c0020        undefined4  20002CCCh                               
                            DAT_0003daf8:                 ;XREF[2,0]:   0003daba,0003dae0
ram:0003daf8    80e100e0        undefined4  E000E180h                               
                            DAT_0003dafc:                 ;XREF[1,0]:   0003dabe
ram:0003dafc    fc06ffbc        undefined4  BCFF06FCh                               
                            ;************************************************************************************************
                            ;*                                           FUNCTION                                           *
                            ;************************************************************************************************
                            ;undefined FUN_0003db00(undefined4 param_1, int param_2, int param_3)
          ;param_1       undefined4          r0                      
          ;param_2       int                 r1                      
          ;param_3       int                 r2                      
ram:0003db00    10b5            push        {r4,lr}                                 
ram:0003db02    ae48            ldr         param_1,[DAT_0003ddbc]                  ;= 20002C60h
ram:0003db04    0378            ldrb        r3,[param_1,#0x0]=>DAT_20002c60         
ram:0003db06    012b            cmp         r3,#0x1                                 
ram:0003db08    03d1            bne         LAB_0003db12                            
ram:0003db0a    0129            cmp         param_2,#0x1                            
ram:0003db0c    01d1            bne         LAB_0003db12                            
ram:0003db0e    0221            movs        param_2,#0x2                            
ram:0003db10    0170            strb        param_2,[param_1,#0x0]=>DAT_20002c60    
                            LAB_0003db12:                 ;XREF[2,0]:   0003db08,0003db0c
ram:0003db12    1000            movs        param_1,param_3                         
ram:0003db14    01d0            beq         LAB_0003db1a                            
ram:0003db16    fff7e9fb        bl          FUN_0003d2ec                            ;undefined FUN_0003d2ec(void)
                            LAB_0003db1a:                 ;XREF[1,0]:   0003db14
ram:0003db1a    10bd            pop         {r4,pc}                                 
                            ;************************************************************************************************
                            ;*                                           FUNCTION                                           *
                            ;************************************************************************************************
                            ;undefined FUN_0003db1c(uint param_1, undefined4 param_2, uint param_3, undefined * param_4)
          ;param_1       uint                r0                      
          ;param_2       undefined4          r1                      
          ;param_3       uint                r2                      
          ;param_4       undefined *         r3                      
                                                          ;XREF[2,0]:   0003dcb8,0003dd82
ram:0003db1c    10b5            push        {r4,lr}                                 
ram:0003db1e    a74c            ldr         r4,[DAT_0003ddbc]                       ;= 20002C60h
                            LAB_0003db20:                 ;XREF[1,0]:   0003db3a
ram:0003db20    48df            svc         0x48                                    
ram:0003db22    0028            cmp         param_1,#0x0                            
ram:0003db24    01d0            beq         LAB_0003db2a                            
ram:0003db26    fff7e1fb        bl          FUN_0003d2ec                            ;undefined FUN_0003d2ec(void)
                            LAB_0003db2a:                 ;XREF[1,0]:   0003db24
ram:0003db2a    fff756fc        bl          FUN_0003d3da                            ;undefined FUN_0003d3da(undefined4 pa...
ram:0003db2e    2078            ldrb        param_1,[r4,#0x0]=>DAT_20002c60         
ram:0003db30    0228            cmp         param_1,#0x2                            
ram:0003db32    03d0            beq         LAB_0003db3c                            
ram:0003db34    0328            cmp         param_1,#0x3                            
ram:0003db36    01d0            beq         LAB_0003db3c                            
ram:0003db38    0428            cmp         param_1,#0x4                            
ram:0003db3a    f1d1            bne         LAB_0003db20                            
                            LAB_0003db3c:                 ;XREF[2,0]:   0003db32,0003db36
ram:0003db3c    10bd            pop         {r4,pc}                                 
                            ;************************************************************************************************
                            ;*                                           FUNCTION                                           *
                            ;************************************************************************************************
                            ;int FUN_0003db3e(int * param_1, undefined4 param_2, undefined4 param_3, char * param_4)
          ;param_1       int *               r0                      
          ;param_2       undefined4          r1                      
          ;param_3       undefined4          r2                      
          ;param_4       char *              r3                      
          ;local_10      undefined4         -10                      ;XREF[2,0]:   0003db4e,0003db6a
                                                          ;XREF[2,0]:   0003c344,0003c36e
ram:0003db3e    38b5            push        {param_4,r4,r5,lr}                      
ram:0003db40    0068            ldr         param_1,[param_1,#0x0]                  
ram:0003db42    401c            adds        param_1,param_1,#0x1                    
ram:0003db44    19d0            beq         LAB_0003db7a                            
ram:0003db46    0024            movs        r4,#0x0                                 
ram:0003db48    6846            mov         param_1,sp                              
ram:0003db4a    00f03ff9        bl          FUN_0003ddcc                            ;undefined FUN_0003ddcc(undefined4 * ...
ram:0003db4e    0098            ldr         param_1,[sp,#0x0]=>local_10             
ram:0003db50    0178            ldrb        param_2,[param_1,#0x0]                  
ram:0003db52    0129            cmp         param_2,#0x1                            
ram:0003db54    10d1            bne         LAB_0003db78                            
ram:0003db56    4188            ldrh        param_2,[param_1,#0x2]                  
ram:0003db58    0029            cmp         param_2,#0x0                            
ram:0003db5a    0ad0            beq         LAB_0003db72                            
ram:0003db5c    8168            ldr         param_2,[param_1,#0x8]                  
ram:0003db5e    0320            movs        param_1,#0x3                            
ram:0003db60    0003            lsls        param_1,param_1,#0xc                    
ram:0003db62    8068            ldr         param_1,[param_1,#offset DAT_00003008...
ram:0003db64    0022            movs        param_3,#0x0                            
ram:0003db66    00f03bf9        bl          FUN_0003dde0                            ;uint FUN_0003dde0(int param_1, uint ...
ram:0003db6a    0099            ldr         param_2,[sp,#0x0]=>local_10             
ram:0003db6c    4988            ldrh        param_2,[param_2,#0x2]                  
ram:0003db6e    8142            cmp         param_2,param_1                         
ram:0003db70    01d1            bne         LAB_0003db76                            
                            LAB_0003db72:                 ;XREF[1,0]:   0003db5a
ram:0003db72    0124            movs        r4,#0x1                                 
ram:0003db74    00e0            b           LAB_0003db78                            
                            LAB_0003db76:                 ;XREF[1,0]:   0003db70
ram:0003db76    0024            movs        r4,#0x0                                 
                            LAB_0003db78:                 ;XREF[2,0]:   0003db54,0003db74
ram:0003db78    2046            mov         param_1,r4                              
                            LAB_0003db7a:                 ;XREF[1,0]:   0003db44
ram:0003db7a    38bd            pop         {param_4,r4,r5,pc}                      
                            ;************************************************************************************************
                            ;*                                           FUNCTION                                           *
                            ;************************************************************************************************
                            ;undefined FUN_0003db7c(uint param_1)
          ;param_1       uint                r0                      
                                                          ;XREF[1,0]:   0003dc1e
ram:0003db7c    10b5            push        {r4,lr}                                 
ram:0003db7e    0446            mov         r4,param_1                              
ram:0003db80    8e48            ldr         param_1,[DAT_0003ddbc]                  ;= 20002C60h
ram:0003db82    1c21            movs        r1,#0x1c                                
ram:0003db84    001d            adds        param_1,param_1,#0x4                    
ram:0003db86    fff78efb        bl          FUN_0003d2a6                            ;undefined FUN_0003d2a6(undefined4 * ...
ram:0003db8a    0028            cmp         param_1,#0x0                            
ram:0003db8c    01d0            beq         LAB_0003db92                            
ram:0003db8e    fff7adfb        bl          FUN_0003d2ec                            ;undefined FUN_0003d2ec(void)
                            LAB_0003db92:                 ;XREF[1,0]:   0003db8c
ram:0003db92    8a48            ldr         param_1,[DAT_0003ddbc]                  ;= 20002C60h
ram:0003db94    0023            movs        r3,#0x0                                 
ram:0003db96    1c22            movs        r2,#0x1c                                
ram:0003db98    2146            mov         r1,r4                                   
ram:0003db9a    001d            adds        param_1,param_1,#0x4                    
ram:0003db9c    fff76afb        bl          FUN_0003d274                            ;int FUN_0003d274(undefined4 * param_...
ram:0003dba0    0028            cmp         param_1,#0x0                            
ram:0003dba2    01d0            beq         LAB_0003dba8                            
ram:0003dba4    fff7a2fb        bl          FUN_0003d2ec                            ;undefined FUN_0003d2ec(void)
                            LAB_0003dba8:                 ;XREF[1,0]:   0003dba2
ram:0003dba8    10bd            pop         {r4,pc}                                 
                            ;************************************************************************************************
                            ;*                                           FUNCTION                                           *
                            ;************************************************************************************************
                            ;undefined FUN_0003dbaa(uint param_1, int param_2, int param_3, char * param_4, undefined4 param_5)
          ;param_1       uint                r0                      
          ;param_2       int                 r1                      
          ;param_3       int                 r2                      
          ;param_4       char *              r3                      
          ;param_5       undefined4           0                      ;XREF[1,0]:   0003dc16
          ;local_4       undefined4          -4                      ;XREF[3,0]:   0003dbee,0003dc00,0003dc3e
          ;local_8       undefined4          -8                      ;XREF[3,0]:   0003dbfa,0003dc10,0003dc3a
          ;local_c       undefined4          -c                      ;XREF[3,0]:   0003dbfc,0003dc0c,0003dc36
          ;local_e       undefined2          -e                      ;XREF[1,0]:   0003dbb8
          ;local_10      undefined1         -10                      ;XREF[1,0]:   0003dbb6
          ;local_28      undefined4         -28                      ;XREF[3,0]:   0003dc24,0003dc42,0003dc7c
                                                          ;XREF[8,0]:   0003dd7e,0003e34e,0003e832,0003e8a8
                                                          ;             0003e8e4,0003e916,0003e94e,0003eba6
ram:0003dbaa    0fb4            push        {param_1,param_2,param_3,param_4}       
ram:0003dbac    f8b5            push        {param_4,r4,r5,r6,r7,lr}                
ram:0003dbae    6846            mov         param_1,sp                              
ram:0003dbb0    00f00cf9        bl          FUN_0003ddcc                            ;undefined FUN_0003ddcc(undefined4 * ...
ram:0003dbb4    6846            mov         param_1,sp                              
ram:0003dbb6    027e            ldrb        param_3,[r0,#local_10+0x28]             
ram:0003dbb8    418b            ldrh        param_2,[r0,#local_e+0x28]              
ram:0003dbba    0123            movs        param_4,#0x1                            
ram:0003dbbc    7f4c            ldr         r4,[DAT_0003ddbc]                       ;= 20002C60h
ram:0003dbbe    ff25            movs        r5,#0xff                                
ram:0003dbc0    7f48            ldr         param_1=>DAT_20003174,[DAT_0003ddc0]    ;= 20003174h
ram:0003dbc2    002a            cmp         param_3,#0x0                            
ram:0003dbc4    12d0            beq         LAB_0003dbec                            
ram:0003dbc6    012a            cmp         param_3,#0x1                            
ram:0003dbc8    16d0            beq         LAB_0003dbf8                            
ram:0003dbca    032a            cmp         param_3,#0x3                            
ram:0003dbcc    2ad0            beq         LAB_0003dc24                            
ram:0003dbce    0021            movs        param_2,#0x0                            
ram:0003dbd0    022a            cmp         param_3,#0x2                            
ram:0003dbd2    36d0            beq         LAB_0003dc42                            
ram:0003dbd4    052a            cmp         param_3,#0x5                            
ram:0003dbd6    46d0            beq         LAB_0003dc66                            
ram:0003dbd8    042a            cmp         param_3,#0x4                            
ram:0003dbda    4cd0            beq         LAB_0003dc76                            
ram:0003dbdc    062a            cmp         param_3,#0x6                            
ram:0003dbde    01d1            bne         LAB_0003dbe4                            
ram:0003dbe0    0420            movs        param_1,#0x4                            
                            LAB_0003dbe2:                 ;XREF[1,0]:   0003dc74
ram:0003dbe2    2070            strb        param_1,[r4,#0x0]=>DAT_20002c60         
                            LAB_0003dbe4:                 ;XREF[2,0]:   0003dbde,0003dc22
ram:0003dbe4    f8bc            pop         {param_4,r4,r5,r6,r7}                   
ram:0003dbe6    08bc            pop         {param_4}                               
ram:0003dbe8    04b0            add         sp,#0x10                                
ram:0003dbea    1847            bx          param_4                                 
                            LAB_0003dbec:                 ;XREF[1,0]:   0003dbc4
ram:0003dbec    4180            strh        param_2,[param_1,#0x2]=>DAT_20003176    
ram:0003dbee    0999            ldr         param_2,[sp,#local_4+0x28]              
ram:0003dbf0    8160            str         param_2,[param_1,#0x8]=>DAT_2000317c    
ram:0003dbf2    0370            strb        param_4,[param_1,#0x0]=>DAT_20003174    
ram:0003dbf4    0571            strb        r5,[param_1,#0x4]=>DAT_20003178         
ram:0003dbf6    10e0            b           LAB_0003dc1a                            
                            LAB_0003dbf8:                 ;XREF[1,0]:   0003dbc8
ram:0003dbf8    4180            strh        param_2,[param_1,#0x2]=>DAT_20003176    
ram:0003dbfa    089a            ldr         param_3,[sp,#local_8+0x28]              
ram:0003dbfc    0799            ldr         param_2,[sp,#local_c+0x28]              
ram:0003dbfe    8918            adds        param_2,param_2,param_3                 
ram:0003dc00    099a            ldr         param_3,[sp,#local_4+0x28]              
ram:0003dc02    8918            adds        param_2,param_2,param_3                 
ram:0003dc04    8160            str         param_2,[param_1,#0x8]=>DAT_2000317c    
ram:0003dc06    a521            movs        param_2,#0xa5                           
ram:0003dc08    0170            strb        param_2,[param_1,#0x0]=>DAT_20003174    
ram:0003dc0a    0571            strb        r5,[param_1,#0x4]=>DAT_20003178         
ram:0003dc0c    0799            ldr         param_2,[sp,#local_c+0x28]              
ram:0003dc0e    c160            str         param_2,[param_1,#0xc]=>DAT_20003180    
ram:0003dc10    0899            ldr         param_2,[sp,#local_8+0x28]              
ram:0003dc12    4261            str         param_3,[param_1,#0x14]=>DAT_20003188   
ram:0003dc14    0161            str         param_2,[param_1,#0x10]=>DAT_20003184   
ram:0003dc16    0a99            ldr         param_2,[sp,#param_5+0x28]              
ram:0003dc18    8161            str         param_2,[param_1,#0x18]=>DAT_2000318c   
                            LAB_0003dc1a:                 ;XREF[2,0]:   0003dbf6,0003dc5c
ram:0003dc1a    2370            strb        param_4,[r4,#0x0]=>DAT_20002c60         
                            LAB_0003dc1c:                 ;XREF[1,0]:   0003dc82
ram:0003dc1c    6848            ldr         param_1=>DAT_20003174,[DAT_0003ddc0]    ;= 20003174h
ram:0003dc1e    fff7adff        bl          FUN_0003db7c                            ;undefined FUN_0003db7c(uint param_1)
ram:0003dc22    dfe7            b           LAB_0003dbe4                            
                            LAB_0003dc24:                 ;XREF[1,0]:   0003dbcc
ram:0003dc24    0099            ldr         param_2,[sp,#0x0]=>local_28             
ram:0003dc26    0a78            ldrb        param_3,[param_2,#0x0]                  
ram:0003dc28    0270            strb        param_3,[param_1,#0x0]=>DAT_20003174    
ram:0003dc2a    4a88            ldrh        param_3,[param_2,#0x2]                  
ram:0003dc2c    4280            strh        param_3,[param_1,#0x2]=>DAT_20003176    
ram:0003dc2e    8968            ldr         param_2,[param_2,#0x8]                  
ram:0003dc30    8160            str         param_2,[param_1,#0x8]=>DAT_2000317c    
ram:0003dc32    aa21            movs        param_2,#0xaa                           
ram:0003dc34    0171            strb        param_2,[param_1,#0x4]=>DAT_20003178    
ram:0003dc36    0799            ldr         param_2,[sp,#local_c+0x28]              
ram:0003dc38    c160            str         param_2,[param_1,#0xc]=>DAT_20003180    
ram:0003dc3a    0899            ldr         param_2,[sp,#local_8+0x28]              
ram:0003dc3c    0161            str         param_2,[param_1,#0x10]=>DAT_20003184   
ram:0003dc3e    0999            ldr         param_2,[sp,#local_4+0x28]              
ram:0003dc40    0be0            b           LAB_0003dc5a                            
                            LAB_0003dc42:                 ;XREF[1,0]:   0003dbd2
ram:0003dc42    009a            ldr         param_3,[sp,#0x0]=>local_28             
ram:0003dc44    1678            ldrb        r6,[param_3,#0x0]                       
ram:0003dc46    a52e            cmp         r6,#0xa5                                
ram:0003dc48    09d0            beq         LAB_0003dc5e                            
ram:0003dc4a    0670            strb        r6,[param_1,#0x0]=>DAT_20003174         
ram:0003dc4c    5688            ldrh        r6,[param_3,#0x2]                       
ram:0003dc4e    4680            strh        r6,[param_1,#0x2]=>DAT_20003176         
ram:0003dc50    9268            ldr         param_3,[param_3,#0x8]                  
ram:0003dc52    8260            str         param_3,[param_1,#0x8]=>DAT_2000317c    
                            LAB_0003dc54:                 ;XREF[1,0]:   0003dc64
ram:0003dc54    0571            strb        r5,[param_1,#0x4]=>DAT_20003178         
ram:0003dc56    c160            str         param_2,[param_1,#0xc]=>DAT_20003180    
ram:0003dc58    0161            str         param_2,[param_1,#0x10]=>DAT_20003184   
                            LAB_0003dc5a:                 ;XREF[1,0]:   0003dc40
ram:0003dc5a    4161            str         param_2,[param_1,#0x14]=>DAT_20003188   
ram:0003dc5c    dde7            b           LAB_0003dc1a                            
                            LAB_0003dc5e:                 ;XREF[1,0]:   0003dc48
ram:0003dc5e    4180            strh        param_2,[param_1,#0x2]=>DAT_20003176    
ram:0003dc60    8160            str         param_2,[param_1,#0x8]=>DAT_2000317c    
ram:0003dc62    0570            strb        r5,[param_1,#0x0]=>DAT_20003174         
ram:0003dc64    f6e7            b           LAB_0003dc54                            
                            LAB_0003dc66:                 ;XREF[1,0]:   0003dbd6
ram:0003dc66    00f0dbf9        bl          FUN_0003e020                            ;undefined4 FUN_0003e020(undefined4 p...
ram:0003dc6a    0028            cmp         param_1,#0x0                            
ram:0003dc6c    01d0            beq         LAB_0003dc72                            
ram:0003dc6e    fff73dfb        bl          FUN_0003d2ec                            ;undefined FUN_0003d2ec(void)
                            LAB_0003dc72:                 ;XREF[1,0]:   0003dc6c
ram:0003dc72    0320            movs        param_1,#0x3                            
ram:0003dc74    b5e7            b           LAB_0003dbe2                            
                            LAB_0003dc76:                 ;XREF[1,0]:   0003dbda
ram:0003dc76    4180            strh        param_2,[param_1,#0x2]=>DAT_20003176    
ram:0003dc78    8160            str         param_2,[param_1,#0x8]=>DAT_2000317c    
ram:0003dc7a    0570            strb        r5,[param_1,#0x0]=>DAT_20003174         
ram:0003dc7c    0099            ldr         param_2,[sp,#0x0]=>local_28             
ram:0003dc7e    0979            ldrb        param_2,[param_2,#0x4]                  
ram:0003dc80    0171            strb        param_2,[param_1,#0x4]=>DAT_20003178    
ram:0003dc82    cbe7            b           LAB_0003dc1c                            
                            ;************************************************************************************************
                            ;*                                           FUNCTION                                           *
                            ;************************************************************************************************
                            ;undefined FUN_0003dc84(void)
          ;local_10      undefined4         -10                      ;XREF[1,0]:   0003dc8c
                                                          ;XREF[1,0]:   0003c2fe
ram:0003dc84    0eb5            push        {r1,r2,r3,lr}                           
ram:0003dc86    4f4a            ldr         r2,[PTR_DAT_0003ddc4]                   ;= 0003f194
ram:0003dc88    6b46            mov         r3,sp                                   
                                                          ; FWD[3,0]:   0003f194,0003f198,0003f19c
ram:0003dc8a    07ca            ldmia       r2,{r0,r1,r2}=>DAT_0003f194             ;= 0003DB01h
ram:0003dc8c    07c3            stmia       r3!=>local_10,{r0,r1,r2}                
ram:0003dc8e    fff7c5fa        bl          FUN_0003d21c                            ;undefined4 FUN_0003d21c(void)
ram:0003dc92    0028            cmp         r0,#0x0                                 
ram:0003dc94    07d1            bne         LAB_0003dca6                            
ram:0003dc96    4949            ldr         r1,[DAT_0003ddbc]                       ;= 20002C60h
ram:0003dc98    ff20            movs        r0,#0xff                                
ram:0003dc9a    8002            lsls        r0,r0,#0xa                              
ram:0003dc9c    091d            adds        r1,r1,#0x4                              
ram:0003dc9e    4860            str         r0,[r1,#0x4]=>DAT_20002c68              
ram:0003dca0    6846            mov         r0,sp                                   
ram:0003dca2    fff7d6fa        bl          FUN_0003d252                            ;undefined4 FUN_0003d252(undefined4 *...
                            LAB_0003dca6:                 ;XREF[1,0]:   0003dc94
ram:0003dca6    0ebd            pop         {r1,r2,r3,pc}                           
                            ;************************************************************************************************
                            ;*                                           FUNCTION                                           *
                            ;************************************************************************************************
                            ;uint FUN_0003dca8(undefined4 param_1, undefined4 param_2, uint param_3, undefined * param_4)
          ;param_1       undefined4          r0                      
          ;param_2       undefined4          r1                      
          ;param_3       uint                r2                      
          ;param_4       undefined *         r3                      
                                                          ;XREF[1,0]:   0003c352
ram:0003dca8    10b5            push        {r4,lr}                                 
ram:0003dcaa    00f054fe        bl          FUN_0003e956                            ;longlong FUN_0003e956(void)
ram:0003dcae    0028            cmp         param_1,#0x0                            
ram:0003dcb0    05d1            bne         LAB_0003dcbe                            
ram:0003dcb2    00f083fb        bl          FUN_0003e3bc                            ;int FUN_0003e3bc(void)
ram:0003dcb6    0446            mov         r4,param_1                              
ram:0003dcb8    fff730ff        bl          FUN_0003db1c                            ;undefined FUN_0003db1c(uint param_1,...
ram:0003dcbc    2046            mov         param_1,r4                              
                            LAB_0003dcbe:                 ;XREF[1,0]:   0003dcb0
ram:0003dcbe    10bd            pop         {r4,pc}                                 
                            ;************************************************************************************************
                            ;*                                           FUNCTION                                           *
                            ;************************************************************************************************
                            ;undefined FUN_0003dcc0(int param_1)
          ;param_1       int                 r0                      
                                                          ;XREF[1,0]:   0003c380
ram:0003dcc0    70b5            push        {r4,r5,r6,lr}                           
ram:0003dcc2    11df            svc         0x11                                    
ram:0003dcc4    0028            cmp         param_1,#0x0                            
ram:0003dcc6    01d0            beq         LAB_0003dccc                            
ram:0003dcc8    fff710fb        bl          FUN_0003d2ec                            ;undefined FUN_0003d2ec(void)
                            LAB_0003dccc:                 ;XREF[1,0]:   0003dcc6
ram:0003dccc    3e49            ldr         r1,[DAT_0003ddc8]                       ;= E000E100h
ram:0003dcce    0020            movs        param_1,#0x0                            
ram:0003dcd0    0a68            ldr         r2,[r1,#0x0]=>DAT_e000e100              
ram:0003dcd2    3d4b            ldr         r3,[DAT_0003ddc8]                       ;= E000E100h
ram:0003dcd4    0121            movs        r1,#0x1                                 
ram:0003dcd6    8033            adds        r3=>DAT_e000e180,#0x80                  
                            LAB_0003dcd8:                 ;XREF[1,0]:   0003dcee
ram:0003dcd8    0c46            mov         r4,r1                                   
ram:0003dcda    8440            lsls        r4,param_1                              
ram:0003dcdc    1442            tst         r4,r2                                   
ram:0003dcde    04d0            beq         LAB_0003dcea                            
ram:0003dce0    c506            lsls        r5,param_1,#0x1b                        
ram:0003dce2    ed0e            lsrs        r5,r5,#0x1b                             
ram:0003dce4    0c46            mov         r4,r1                                   
ram:0003dce6    ac40            lsls        r4,r5                                   
ram:0003dce8    1c60            str         r4,[r3,#0x0]=>DAT_e000e180              
                            LAB_0003dcea:                 ;XREF[1,0]:   0003dcde
ram:0003dcea    401c            adds        param_1,param_1,#0x1                    
ram:0003dcec    2028            cmp         param_1,#0x20                           
ram:0003dcee    f3d3            bcc         LAB_0003dcd8                            
ram:0003dcf0    0324            movs        r4,#0x3                                 
ram:0003dcf2    2403            lsls        r4,r4,#0xc                              
ram:0003dcf4    a068            ldr         param_1,[r4,#offset DAT_00003008 &0xff] 
ram:0003dcf6    13df            svc         0x13                                    
ram:0003dcf8    0028            cmp         param_1,#0x0                            
ram:0003dcfa    01d0            beq         LAB_0003dd00                            
ram:0003dcfc    fff7f6fa        bl          FUN_0003d2ec                            ;undefined FUN_0003d2ec(void)
                            LAB_0003dd00:                 ;XREF[1,0]:   0003dcfa
ram:0003dd00    a068            ldr         param_1,[r4,#offset DAT_00003008 &0xff] 
ram:0003dd02    00f069f8        bl          FUN_0003ddd8                            ;undefined FUN_0003ddd8(undefined4 * ...
ram:0003dd06    70bd            pop         {r4,r5,r6,pc}                           
                            ;************************************************************************************************
                            ;*                                           FUNCTION                                           *
                            ;************************************************************************************************
                            ;undefined4 FUN_0003dd08(void)
          ;local_8       undefined4          -8                      ;XREF[1,0]:   0003dd10
                                                          ;XREF[2,0]:   0003c302,0003c376
ram:0003dd08    08b5            push        {r3,lr}                                 
ram:0003dd0a    6846            mov         r0,sp                                   
ram:0003dd0c    00f05ef8        bl          FUN_0003ddcc                            ;undefined FUN_0003ddcc(undefined4 * ...
ram:0003dd10    0098            ldr         r0,[sp,#0x0]=>local_8                   
ram:0003dd12    0178            ldrb        r1,[r0,#0x0]                            
ram:0003dd14    a529            cmp         r1,#0xa5                                
ram:0003dd16    04d0            beq         LAB_0003dd22                            
ram:0003dd18    0079            ldrb        r0,[r0,#0x4]                            
ram:0003dd1a    aa28            cmp         r0,#0xaa                                
ram:0003dd1c    01d0            beq         LAB_0003dd22                            
ram:0003dd1e    0020            movs        r0,#0x0                                 
ram:0003dd20    08bd            pop         {r3,pc}                                 
                            LAB_0003dd22:                 ;XREF[2,0]:   0003dd16,0003dd1c
ram:0003dd22    0120            movs        r0,#0x1                                 
ram:0003dd24    08bd            pop         {r3,pc}                                 
                            ;************************************************************************************************
                            ;*                                           FUNCTION                                           *
                            ;************************************************************************************************
                            ;undefined * FUN_0003dd26(undefined4 param_1, undefined4 param_2, undefined4 param_3, undefined * param_4)
          ;param_1       undefined4          r0                      
          ;param_2       undefined4          r1                      
          ;param_3       undefined4          r2                      
          ;param_4       undefined *         r3                      
                                                          ;XREF[1,0]:   0003c30a
ram:0003dd26    10b5            push        {r4,lr}                                 
ram:0003dd28    00f0e9ff        bl          FUN_0003ecfe                            ;undefined * FUN_0003ecfe(undefined4 ...
ram:0003dd2c    0028            cmp         param_1,#0x0                            
ram:0003dd2e    03d1            bne         LAB_0003dd38                            
ram:0003dd30    00f0c7ff        bl          FUN_0003ecc2                            ;undefined * FUN_0003ecc2(undefined4 ...
ram:0003dd34    0028            cmp         param_1,#0x0                            
ram:0003dd36    15d0            beq         LAB_0003dd64                            
                            LAB_0003dd38:                 ;XREF[1,0]:   0003dd2e
ram:0003dd38    6420            movs        param_1,#0x64                           
ram:0003dd3a    fff7b7f9        bl          FUN_0003d0ac                            ;undefined FUN_0003d0ac(int param_1)
ram:0003dd3e    00f06aff        bl          FUN_0003ec16                            ;undefined FUN_0003ec16(undefined4 pa...
ram:0003dd42    0028            cmp         param_1,#0x0                            
ram:0003dd44    01d0            beq         LAB_0003dd4a                            
ram:0003dd46    fff7d1fa        bl          FUN_0003d2ec                            ;undefined FUN_0003d2ec(void)
                            LAB_0003dd4a:                 ;XREF[1,0]:   0003dd44
ram:0003dd4a    00f0d8ff        bl          FUN_0003ecfe                            ;undefined * FUN_0003ecfe(undefined4 ...
ram:0003dd4e    0028            cmp         param_1,#0x0                            
ram:0003dd50    01d0            beq         LAB_0003dd56                            
ram:0003dd52    fff7cbfa        bl          FUN_0003d2ec                            ;undefined FUN_0003d2ec(void)
                            LAB_0003dd56:                 ;XREF[1,0]:   0003dd50
ram:0003dd56    00f098ff        bl          FUN_0003ec8a                            ;undefined * FUN_0003ec8a(undefined4 ...
ram:0003dd5a    041e            subs        r4,param_1,#0x0                         
ram:0003dd5c    01d0            beq         LAB_0003dd62                            
ram:0003dd5e    fff7c5fa        bl          FUN_0003d2ec                            ;undefined FUN_0003d2ec(void)
                            LAB_0003dd62:                 ;XREF[1,0]:   0003dd5c
ram:0003dd62    2046            mov         param_1,r4                              
                            LAB_0003dd64:                 ;XREF[1,0]:   0003dd36
ram:0003dd64    10bd            pop         {r4,pc}                                 
                            ;************************************************************************************************
                            ;*                                           FUNCTION                                           *
                            ;************************************************************************************************
                            ;undefined4 FUN_0003dd66(void)
          ;local_c       undefined4          -c                      ;XREF[1,0]:   0003dd76
          ;local_1c      undefined4         -1c                      ;XREF[1,0]:   0003dd7c
          ;local_20      undefined4         -20                      ;XREF[1,0]:   0003dd78
                                                          ;XREF[1,0]:   0003c322
ram:0003dd66    00b5            push        {lr}                                    
ram:0003dd68    1649            ldr         r1,[PTR_DAT_0003ddc4]                   ;= 0003f194
ram:0003dd6a    87b0            sub         sp,#0x1c                                
ram:0003dd6c    1422            movs        r2,#0x14                                
ram:0003dd6e    0c31            adds        r1=>DAT_0003f1a0,#0xc                   ;= 02h
ram:0003dd70    01a8            add         r0,sp,#0x4                              
ram:0003dd72    01f091f9        bl          FUN_0003f098                            ;undefined FUN_0003f098(undefined4 * ...
ram:0003dd76    0598            ldr         r0,[sp,#local_c+0x20]                   
ram:0003dd78    0090            str         r0,[sp,#0x0]=>local_20                  
ram:0003dd7a    01a8            add         r0,sp,#0x4                              
ram:0003dd7c    0fc8            ldmia       r0=>local_1c,{r0,r1,r2,r3}              
ram:0003dd7e    fff714ff        bl          FUN_0003dbaa                            ;undefined FUN_0003dbaa(uint param_1,...
ram:0003dd82    fff7cbfe        bl          FUN_0003db1c                            ;undefined FUN_0003db1c(uint param_1,...
ram:0003dd86    0020            movs        r0,#0x0                                 
ram:0003dd88    07b0            add         sp,#0x1c                                
ram:0003dd8a    00bd            pop         {pc}                                    
                            ;************************************************************************************************
                            ;*                                           FUNCTION                                           *
                            ;************************************************************************************************
                            ;undefined FUN_0003dd8c(undefined * param_1, undefined4 param_2, undefined4 param_3, undefined * param_4)
          ;param_1       undefined *         r0                      
          ;param_2       undefined4          r1                      
          ;param_3       undefined4          r2                      
          ;param_4       undefined *         r3                      
          ;local_10      undefined4         -10                      ;XREF[1,0]:   0003dd96
                                                          ;XREF[4,0]:   0003ec1c,0003ec90,0003ecc8,0003ed04
ram:0003dd8c    38b5            push        {param_4,r4,r5,lr}                      
ram:0003dd8e    0446            mov         r4,param_1                              
ram:0003dd90    6846            mov         param_1,sp                              
ram:0003dd92    00f01bf8        bl          FUN_0003ddcc                            ;undefined FUN_0003ddcc(undefined4 * ...
ram:0003dd96    0098            ldr         param_1,[sp,#0x0]=>local_10             
ram:0003dd98    0178            ldrb        param_2,[param_1,#0x0]                  
ram:0003dd9a    2170            strb        param_2,[r4,#0x0]                       
ram:0003dd9c    4188            ldrh        param_2,[param_1,#0x2]                  
ram:0003dd9e    6180            strh        param_2,[r4,#0x2]                       
ram:0003dda0    8168            ldr         param_2,[param_1,#0x8]                  
ram:0003dda2    a160            str         param_2,[r4,#0x8]                       
ram:0003dda4    0179            ldrb        param_2,[param_1,#0x4]                  
ram:0003dda6    2171            strb        param_2,[r4,#0x4]                       
ram:0003dda8    c168            ldr         param_2,[param_1,#0xc]                  
ram:0003ddaa    e160            str         param_2,[r4,#0xc]                       
ram:0003ddac    0169            ldr         param_2,[param_1,#0x10]                 
ram:0003ddae    2161            str         param_2,[r4,#0x10]                      
ram:0003ddb0    4169            ldr         param_2,[param_1,#0x14]                 
ram:0003ddb2    6161            str         param_2,[r4,#0x14]                      
ram:0003ddb4    8069            ldr         param_1,[param_1,#0x18]                 
ram:0003ddb6    a061            str         param_1,[r4,#0x18]                      
ram:0003ddb8    38bd            pop         {param_4,r4,r5,pc}                      
ram:0003ddba    0000            movs        r0,r0                                   
                            DAT_0003ddbc:                 ;XREF[6,0]:   0003db02,0003db1e,0003db80,0003db92
                                                          ;             0003dbbc,0003dc96
ram:0003ddbc    602c0020        undefined4  20002C60h                               
                            DAT_0003ddc0:                 ;XREF[2,0]:   0003dbc0,0003dc1c
ram:0003ddc0    74310020        undefined4  20003174h                               
                            PTR_DAT_0003ddc4:             ;XREF[2,0]:   0003dc86,0003dd68
ram:0003ddc4    94f10300        addr        DAT_0003f194                            ;= 0003DB01h
                            DAT_0003ddc8:                 ;XREF[2,0]:   0003dccc,0003dcd2
ram:0003ddc8    00e100e0        undefined4  E000E100h                               
                            ;************************************************************************************************
                            ;*                                           FUNCTION                                           *
                            ;************************************************************************************************
                            ;undefined FUN_0003ddcc(undefined4 * param_1)
          ;param_1       undefined4 *        r0                      
                                                          ;XREF[4,0]:   0003db4a,0003dbb0,0003dd0c,0003dd92
ram:0003ddcc    0149            ldr         r1,[DAT_0003ddd4]                       ;= 0003FC00h
ram:0003ddce    0160            str         r1,[param_1,#0x0]                       
ram:0003ddd0    7047            bx          lr                                      
ram:0003ddd2    0000            movs        r0,r0                                   
                            DAT_0003ddd4:                 ;XREF[1,0]:   0003ddcc
ram:0003ddd4    00fc0300        undefined4  0003FC00h                               
                            ;************************************************************************************************
                            ;*                                           FUNCTION                                           *
                            ;************************************************************************************************
                            ;undefined FUN_0003ddd8(undefined4 * param_1)
          ;param_1       undefined4 *        r0                      
                                                          ;XREF[1,0]:   0003dd02
ram:0003ddd8    10b5            push        {r4,lr}                                 
ram:0003ddda    fef7adf9        bl          FUN_0003c138                            ;undefined FUN_0003c138(undefined4 * ...
ram:0003ddde    10bd            pop         {r4,pc}                                 
                            ;************************************************************************************************
                            ;*                                           FUNCTION                                           *
                            ;************************************************************************************************
                            ;uint FUN_0003dde0(int param_1, uint param_2, ushort * param_3)
          ;param_1       int                 r0                      
          ;param_2       uint                r1                      
          ;param_3       ushort *            r2                      
                                                          ;XREF[4,0]:   0003c1b4,0003c1d0,0003db66,0003de96
ram:0003dde0    10b5            push        {r4,lr}                                 
ram:0003dde2    0446            mov         r4,param_1                              
ram:0003dde4    002a            cmp         param_3,#0x0                            
ram:0003dde6    02d0            beq         LAB_0003ddee                            
ram:0003dde8    1088            ldrh        param_1,[param_3,#0x0]                  
                            LAB_0003ddea:                 ;XREF[1,0]:   0003ddf0
ram:0003ddea    0022            movs        param_3,#0x0                            
ram:0003ddec    10e0            b           LAB_0003de10                            
                            LAB_0003ddee:                 ;XREF[1,0]:   0003dde6
ram:0003ddee    0a48            ldr         param_1,[DAT_0003de18]                  ;= 0000FFFFh
ram:0003ddf0    fbe7            b           LAB_0003ddea                            
                            LAB_0003ddf2:                 ;XREF[1,0]:   0003de12
ram:0003ddf2    030a            lsrs        r3,param_1,#0x8                         
ram:0003ddf4    0002            lsls        param_1,param_1,#0x8                    
ram:0003ddf6    0343            orrs        r3,param_1                              
ram:0003ddf8    a05c            ldrb        param_1,[r4,param_3]                    
ram:0003ddfa    5840            eors        param_1,r3                              
ram:0003ddfc    0306            lsls        r3,param_1,#0x18                        
ram:0003ddfe    1b0f            lsrs        r3,r3,#0x1c                             
ram:0003de00    4340            eors        r3,param_1                              
ram:0003de02    1803            lsls        param_1,r3,#0xc                         
ram:0003de04    5840            eors        param_1,r3                              
ram:0003de06    83b2            uxth        r3,param_1                              
ram:0003de08    1806            lsls        param_1,r3,#0x18                        
ram:0003de0a    c00c            lsrs        param_1,param_1,#0x13                   
ram:0003de0c    5840            eors        param_1,r3                              
ram:0003de0e    521c            adds        param_3,param_3,#0x1                    
                            LAB_0003de10:                 ;XREF[1,0]:   0003ddec
ram:0003de10    8a42            cmp         param_3,param_2                         
ram:0003de12    eed3            bcc         LAB_0003ddf2                            
ram:0003de14    10bd            pop         {r4,pc}                                 
ram:0003de16    0000            movs        r0,r0                                   
                            DAT_0003de18:                 ;XREF[1,0]:   0003ddee
ram:0003de18    ffff0000        undefined4  0000FFFFh                               
                            ;************************************************************************************************
                            ;*                                           FUNCTION                                           *
                            ;************************************************************************************************
                            ;undefined4 FUN_0003de1c(ushort * param_1, uint param_2)
          ;param_1       ushort *            r0                      
          ;param_2       uint                r1                      
                                                          ;XREF[1,0]:   0003ead2
ram:0003de1c    70b5            push        {r4,r5,r6,lr}                           
ram:0003de1e    0025            movs        r5,#0x0                                 
ram:0003de20    0c29            cmp         param_2,#0xc                            
ram:0003de22    0ed3            bcc         LAB_0003de42                            
ram:0003de24    0446            mov         r4,param_1                              
ram:0003de26    4318            adds        r3,param_1,param_2                      
ram:0003de28    0089            ldrh        param_1,[param_1,#0x8]                  
ram:0003de2a    4100            lsls        param_2,param_1,#0x1                    
ram:0003de2c    0919            adds        param_2,param_2,r4                      
ram:0003de2e    581a            subs        param_1,r3,param_2                      
ram:0003de30    0a38            subs        param_1,#0xa                            
ram:0003de32    c2b2            uxtb        r2,param_1                              
ram:0003de34    1e48            ldr         param_1,[DAT_0003deb0]                  ;= 20002C6Ch
ram:0003de36    022a            cmp         r2,#0x2                                 
ram:0003de38    0270            strb        r2,[param_1,#0x0]=>DAT_20002c6c         
ram:0003de3a    02d3            bcc         LAB_0003de42                            
ram:0003de3c    0a31            adds        param_2,#0xa                            
ram:0003de3e    8b42            cmp         r3,param_2                              
ram:0003de40    01d2            bcs         LAB_0003de46                            
                            LAB_0003de42:                 ;XREF[2,0]:   0003de22,0003de3a
ram:0003de42    0920            movs        param_1,#0x9                            
ram:0003de44    70bd            pop         {r4,r5,r6,pc}                           
                            LAB_0003de46:                 ;XREF[1,0]:   0003de40
ram:0003de46    1b48            ldr         param_1=>DAT_20003190,[DAT_0003deb4]    ;= 20003190h
ram:0003de48    01f026f9        bl          FUN_0003f098                            ;undefined FUN_0003f098(undefined4 * ...
ram:0003de4c    1a48            ldr         param_1,[DAT_0003deb8]                  ;= 10001080h
ram:0003de4e    1b49            ldr         param_2,[DAT_0003debc]                  ;= 0000FFFFh
ram:0003de50    0288            ldrh        r2,[param_1,#0x0]=>DAT_10001080         
ram:0003de52    8a42            cmp         r2,param_2                              
ram:0003de54    02d0            beq         LAB_0003de5c                            
ram:0003de56    2388            ldrh        r3,[r4,#0x0]                            
ram:0003de58    9342            cmp         r3,r2                                   
ram:0003de5a    18d1            bne         LAB_0003de8e                            
                            LAB_0003de5c:                 ;XREF[1,0]:   0003de54
ram:0003de5c    4088            ldrh        param_1,[param_1,#0x2]=>DAT_10001082    
ram:0003de5e    8842            cmp         param_1,param_2                         
ram:0003de60    02d0            beq         LAB_0003de68                            
ram:0003de62    6188            ldrh        param_2,[r4,#0x2]                       
ram:0003de64    8142            cmp         param_2,param_1                         
ram:0003de66    12d1            bne         LAB_0003de8e                            
                            LAB_0003de68:                 ;XREF[1,0]:   0003de60
ram:0003de68    144a            ldr         r2,[DAT_0003debc]                       ;= 0000FFFFh
ram:0003de6a    0323            movs        r3,#0x3                                 
ram:0003de6c    521e            subs        r2,r2,#0x1                              
ram:0003de6e    2089            ldrh        param_1,[r4,#0x8]                       
ram:0003de70    1b03            lsls        r3,r3,#0xc                              
                            LAB_0003de72:                 ;XREF[1,0]:   0003de88
ram:0003de72    a842            cmp         param_1,r5                              
ram:0003de74    0bd9            bls         LAB_0003de8e                            
ram:0003de76    6900            lsls        param_2,r5,#0x1                         
ram:0003de78    0919            adds        param_2,param_2,r4                      
ram:0003de7a    4989            ldrh        param_2,[param_2,#0xa]                  
ram:0003de7c    9142            cmp         param_2,r2                              
ram:0003de7e    04d0            beq         LAB_0003de8a                            
ram:0003de80    9e89            ldrh        r6,[r3,#offset DAT_0000300c &0xff]      
ram:0003de82    6d1c            adds        r5,r5,#0x1                              
ram:0003de84    b6b2            uxth        r6,r6                                   
ram:0003de86    b142            cmp         param_2,r6                              
ram:0003de88    f3d1            bne         LAB_0003de72                            
                            LAB_0003de8a:                 ;XREF[1,0]:   0003de7e
ram:0003de8a    0020            movs        param_1,#0x0                            
ram:0003de8c    70bd            pop         {r4,r5,r6,pc}                           
                            LAB_0003de8e:                 ;XREF[3,0]:   0003de5a,0003de66,0003de74
ram:0003de8e    0b20            movs        param_1,#0xb                            
ram:0003de90    70bd            pop         {r4,r5,r6,pc}                           
                            ;************************************************************************************************
                            ;*                                           FUNCTION                                           *
                            ;************************************************************************************************
                            ;undefined4 FUN_0003de92(int param_1, uint param_2)
          ;param_1       int                 r0                      
          ;param_2       uint                r1                      
                                                          ;XREF[1,0]:   0003eb5c
ram:0003de92    10b5            push        {r4,lr}                                 
ram:0003de94    0022            movs        r2,#0x0                                 
ram:0003de96    fff7a3ff        bl          FUN_0003dde0                            ;uint FUN_0003dde0(int param_1, uint ...
ram:0003de9a    064a            ldr         r2,[DAT_0003deb4]                       ;= 20003190h
ram:0003de9c    5178            ldrb        param_2,[r2,#0x1]=>DAT_20003191         
ram:0003de9e    1278            ldrb        r2,[r2,#0x0]=>DAT_20003190              
ram:0003dea0    0902            lsls        param_2,param_2,#0x8                    
ram:0003dea2    1143            orrs        param_2,r2                              
ram:0003dea4    8842            cmp         param_1,param_2                         
ram:0003dea6    01d0            beq         LAB_0003deac                            
ram:0003dea8    0b20            movs        param_1,#0xb                            
ram:0003deaa    10bd            pop         {r4,pc}                                 
                            LAB_0003deac:                 ;XREF[1,0]:   0003dea6
ram:0003deac    0020            movs        param_1,#0x0                            
ram:0003deae    10bd            pop         {r4,pc}                                 
                            DAT_0003deb0:                 ;XREF[1,0]:   0003de34
ram:0003deb0    6c2c0020        undefined4  20002C6Ch                               
                            DAT_0003deb4:                 ;XREF[2,0]:   0003de46,0003de9a
ram:0003deb4    90310020        undefined4  20003190h                               
                            DAT_0003deb8:                 ;XREF[1,0]:   0003de4c
ram:0003deb8    80100010        undefined4  10001080h                               
                            DAT_0003debc:                 ;XREF[2,0]:   0003de4e,0003de68
ram:0003debc    ffff0000        undefined4  0000FFFFh                               
                            ;************************************************************************************************
                            ;*                                           FUNCTION                                           *
                            ;************************************************************************************************
                            ;undefined4 FUN_0003dec0(int param_1, int param_2)
          ;param_1       int                 r0                      
          ;param_2       int                 r1                      
                                                          ;XREF[4,0]:   0003df44,0003e53a,0003e5b4,0003e60a
ram:0003dec0    0828            cmp         param_1,#0x8                            
ram:0003dec2    0cd0            beq         LAB_0003dede                            
ram:0003dec4    04dc            bgt         LAB_0003ded0                            
ram:0003dec6    0028            cmp         param_1,#0x0                            
ram:0003dec8    07d0            beq         LAB_0003deda                            
ram:0003deca    0628            cmp         param_1,#0x6                            
ram:0003decc    0fd1            bne         LAB_0003deee                            
ram:0003dece    08e0            b           LAB_0003dee2                            
                            LAB_0003ded0:                 ;XREF[1,0]:   0003dec4
ram:0003ded0    0b28            cmp         param_1,#0xb                            
ram:0003ded2    0ad0            beq         LAB_0003deea                            
ram:0003ded4    0c28            cmp         param_1,#0xc                            
ram:0003ded6    0ad1            bne         LAB_0003deee                            
ram:0003ded8    05e0            b           LAB_0003dee6                            
                            LAB_0003deda:                 ;XREF[1,0]:   0003dec8
ram:0003deda    0120            movs        param_1,#0x1                            
ram:0003dedc    7047            bx          lr                                      
                            LAB_0003dede:                 ;XREF[1,0]:   0003dec2
ram:0003dede    0220            movs        param_1,#0x2                            
ram:0003dee0    7047            bx          lr                                      
                            LAB_0003dee2:                 ;XREF[1,0]:   0003dece
ram:0003dee2    0320            movs        param_1,#0x3                            
ram:0003dee4    7047            bx          lr                                      
                            LAB_0003dee6:                 ;XREF[1,0]:   0003ded8
ram:0003dee6    0420            movs        param_1,#0x4                            
ram:0003dee8    7047            bx          lr                                      
                            LAB_0003deea:                 ;XREF[1,0]:   0003ded2
ram:0003deea    0429            cmp         param_2,#0x4                            
ram:0003deec    01d0            beq         LAB_0003def2                            
                            LAB_0003deee:                 ;XREF[2,0]:   0003decc,0003ded6
ram:0003deee    0620            movs        param_1,#0x6                            
ram:0003def0    7047            bx          lr                                      
                            LAB_0003def2:                 ;XREF[1,0]:   0003deec
ram:0003def2    0520            movs        param_1,#0x5                            
ram:0003def4    7047            bx          lr                                      
                            ;************************************************************************************************
                            ;*                                           FUNCTION                                           *
                            ;************************************************************************************************
                            ;undefined FUN_0003def6(int param_1, int param_2, int param_3)
          ;param_1       int                 r0                      
          ;param_2       int                 r1                      
          ;param_3       int                 r2                      
                                                          ;XREF[0,1]:   0003e664
ram:0003def6    70b5            push        {r4,r5,r6,lr}                           
ram:0003def8    1546            mov         r5,param_3                              
ram:0003defa    0a46            mov         param_3,param_2                         
ram:0003defc    0328            cmp         param_1,#0x3                            
ram:0003defe    1fd0            beq         LAB_0003df40                            
ram:0003df00    0428            cmp         param_1,#0x4                            
ram:0003df02    1cd1            bne         LAB_0003df3e                            
ram:0003df04    fb4c            ldr         r4,[DAT_0003e2f4]                       ;= 20002C70h
ram:0003df06    0029            cmp         param_2,#0x0                            
ram:0003df08    06d0            beq         LAB_0003df18                            
ram:0003df0a    e088            ldrh        param_1,[r4,#0x6]=>DAT_20002c76         
ram:0003df0c    fa49            ldr         param_2,[DAT_0003e2f8]                  ;= 0000FFFFh
ram:0003df0e    8842            cmp         param_1,param_2                         
ram:0003df10    15d0            beq         LAB_0003df3e                            
ram:0003df12    1321            movs        param_2,#0x13                           
ram:0003df14    76df            svc         0x76                                    
ram:0003df16    0ee0            b           LAB_0003df36                            
                            LAB_0003df18:                 ;XREF[1,0]:   0003df08
ram:0003df18    2846            mov         param_1,r5                              
ram:0003df1a    00f0f1fb        bl          FUN_0003e700                            ;undefined4 FUN_0003e700(int param_1)
ram:0003df1e    0028            cmp         param_1,#0x0                            
ram:0003df20    01d0            beq         LAB_0003df26                            
ram:0003df22    fff7e3f9        bl          FUN_0003d2ec                            ;undefined FUN_0003d2ec(void)
                            LAB_0003df26:                 ;XREF[1,0]:   0003df20
ram:0003df26    a069            ldr         param_1,[r4,#0x18]=>DAT_20002c88        
ram:0003df28    a842            cmp         param_1,r5                              
ram:0003df2a    08d1            bne         LAB_0003df3e                            
ram:0003df2c    0122            movs        param_3,#0x1                            
ram:0003df2e    0321            movs        param_2,#0x3                            
                            LAB_0003df30:                 ;XREF[1,0]:   0003df4c
ram:0003df30    f248            ldr         param_1,[DAT_0003e2fc]                  ;= 200031B4h
ram:0003df32    fef74bfe        bl          FUN_0003cbcc                            ;undefined8 FUN_0003cbcc(ushort * par...
                            LAB_0003df36:                 ;XREF[1,0]:   0003df16
ram:0003df36    0028            cmp         param_1,#0x0                            
ram:0003df38    01d0            beq         LAB_0003df3e                            
ram:0003df3a    fff7d7f9        bl          FUN_0003d2ec                            ;undefined FUN_0003d2ec(void)
                            LAB_0003df3e:                 ;XREF[4,0]:   0003df02,0003df10,0003df2a,0003df38
ram:0003df3e    70bd            pop         {r4,r5,r6,pc}                           
                            LAB_0003df40:                 ;XREF[1,0]:   0003defe
ram:0003df40    0121            movs        param_2,#0x1                            
ram:0003df42    1046            mov         param_1,param_3                         
ram:0003df44    fff7bcff        bl          FUN_0003dec0                            ;undefined4 FUN_0003dec0(int param_1,...
ram:0003df48    0246            mov         param_3,param_1                         
ram:0003df4a    0121            movs        param_2,#0x1                            
ram:0003df4c    f0e7            b           LAB_0003df30                            
                            ;************************************************************************************************
                            ;*                                           FUNCTION                                           *
                            ;************************************************************************************************
                            ;undefined FUN_0003df4e(ushort * param_1, int param_2, undefined4 param_3, undefined4 param_4)
          ;param_1       ushort *            r0                      
          ;param_2       int                 r1                      
          ;param_3       undefined4          r2                      
          ;param_4       undefined4          r3                      
          ;local_1c      undefined4         -1c                      ;XREF[1,0]:   0003dfb8
          ;local_20      undefined4         -20                      ;XREF[1,0]:   0003dfb4
          ;local_24      undefined4         -24                      ;XREF[1,0]:   0003dfae
          ;local_28      undefined4         -28                      ;XREF[4,0]:   0003df74,0003df84,0003df8c,0003dfb0
ram:0003df4e    f0b5            push        {r4,r5,r6,r7,lr}                        
ram:0003df50    0546            mov         r5,param_1                              
ram:0003df52    087a            ldrb        param_1,[param_2,#0x8]                  
ram:0003df54    0e46            mov         r6,param_2                              
ram:0003df56    85b0            sub         sp,#0x14                                
ram:0003df58    8107            lsls        param_2,param_1,#0x1e                   
ram:0003df5a    0ad0            beq         LAB_0003df72                            
ram:0003df5c    0322            movs        param_3,#0x3                            
ram:0003df5e    1146            mov         param_2,param_3                         
ram:0003df60    2846            mov         param_1,r5                              
ram:0003df62    fef733fe        bl          FUN_0003cbcc                            ;undefined8 FUN_0003cbcc(ushort * par...
ram:0003df66    0028            cmp         param_1,#0x0                            
ram:0003df68    01d0            beq         LAB_0003df6e                            
ram:0003df6a    fff7bff9        bl          FUN_0003d2ec                            ;undefined FUN_0003d2ec(void)
                            LAB_0003df6e:                 ;XREF[6,0]:   0003df68,0003dfaa,0003dfe8,0003dff6
                                                          ;             0003e002,0003e016
ram:0003df6e    05b0            add         sp,#0x14                                
ram:0003df70    f0bd            pop         {r4,r5,r6,r7,pc}                        
                            LAB_0003df72:                 ;XREF[1,0]:   0003df5a
ram:0003df72    e049            ldr         param_2,[DAT_0003e2f4]                  ;= 20002C70h
ram:0003df74    0090            str         param_1,[sp,#0x0]=>local_28             
ram:0003df76    1431            adds        param_2=>DAT_20002c84,#0x14             
ram:0003df78    00f09bfb        bl          FUN_0003e6b2                            ;undefined4 FUN_0003e6b2(uint param_1...
ram:0003df7c    0100            movs        param_2,param_1                         
ram:0003df7e    11d1            bne         LAB_0003dfa4                            
ram:0003df80    dc4c            ldr         r4,[DAT_0003e2f4]                       ;= 20002C70h
ram:0003df82    7168            ldr         param_2,[r6,#0x4]                       
ram:0003df84    009a            ldr         param_3,[sp,#0x0]=>local_28             
ram:0003df86    6069            ldr         param_1,[r4,#0x14]=>DAT_20002c84        
ram:0003df88    01f086f8        bl          FUN_0003f098                            ;undefined FUN_0003f098(undefined4 * ...
ram:0003df8c    0098            ldr         param_1,[sp,#0x0]=>local_28             
ram:0003df8e    00f0eafb        bl          FUN_0003e766                            ;undefined4 FUN_0003e766(undefined4 p...
ram:0003df92    0100            movs        param_2,param_1                         
ram:0003df94    06d1            bne         LAB_0003dfa4                            
ram:0003df96    2046            mov         param_1,r4                              
ram:0003df98    6946            mov         param_2,sp                              
ram:0003df9a    1430            adds        param_1=>DAT_20002c84,#0x14             
ram:0003df9c    00f0effb        bl          FUN_0003e77e                            ;undefined4 FUN_0003e77e(int * param_...
ram:0003dfa0    0100            movs        param_2,param_1                         
ram:0003dfa2    03d0            beq         LAB_0003dfac                            
                            LAB_0003dfa4:                 ;XREF[3,0]:   0003df7e,0003df94,0003dfda
ram:0003dfa4    2846            mov         param_1,r5                              
ram:0003dfa6    00f0c3fa        bl          FUN_0003e530                            ;undefined FUN_0003e530(ushort * para...
ram:0003dfaa    e0e7            b           LAB_0003df6e                            
                            LAB_0003dfac:                 ;XREF[1,0]:   0003dfa2
ram:0003dfac    0420            movs        param_1,#0x4                            
ram:0003dfae    0190            str         param_1,[sp,#local_24+0x28]             
ram:0003dfb0    0098            ldr         param_1,[sp,#0x0]=>local_28             
ram:0003dfb2    8008            lsrs        param_1,param_1,#0x2                    
ram:0003dfb4    0290            str         param_1,[sp,#local_20+0x28]             
ram:0003dfb6    6069            ldr         param_1,[r4,#0x14]=>DAT_20002c84        
ram:0003dfb8    0390            str         param_1,[sp,#local_1c+0x28]             
ram:0003dfba    01a8            add         param_1,sp,#0x4                         
ram:0003dfbc    00f048fd        bl          FUN_0003ea50                            ;int FUN_0003ea50(int param_1, undefi...
ram:0003dfc0    0700            movs        r7,param_1                              
ram:0003dfc2    0bd0            beq         LAB_0003dfdc                            
ram:0003dfc4    092f            cmp         r7,#0x9                                 
ram:0003dfc6    10d0            beq         LAB_0003dfea                            
ram:0003dfc8    6069            ldr         param_1,[r4,#0x14]=>DAT_20002c84        
ram:0003dfca    00f099fb        bl          FUN_0003e700                            ;undefined4 FUN_0003e700(int param_1)
ram:0003dfce    0100            movs        param_2,param_1                         
ram:0003dfd0    02d0            beq         LAB_0003dfd8                            
ram:0003dfd2    2846            mov         param_1,r5                              
ram:0003dfd4    00f0acfa        bl          FUN_0003e530                            ;undefined FUN_0003e530(ushort * para...
                            LAB_0003dfd8:                 ;XREF[1,0]:   0003dfd0
ram:0003dfd8    3946            mov         param_2,r7                              
ram:0003dfda    e3e7            b           LAB_0003dfa4                            
                            LAB_0003dfdc:                 ;XREF[1,0]:   0003dfc2
ram:0003dfdc    307a            ldrb        param_1,[r6,#0x8]                       
ram:0003dfde    2169            ldr         param_2,[r4,#0x10]=>DAT_20002c80        
ram:0003dfe0    4018            adds        param_1,param_1,param_2                 
ram:0003dfe2    2061            str         param_1,[r4,#0x10]=>DAT_20002c80        
ram:0003dfe4    6069            ldr         param_1,[r4,#0x14]=>DAT_20002c84        
ram:0003dfe6    a061            str         param_1,[r4,#0x18]=>DAT_20002c88        
ram:0003dfe8    c1e7            b           LAB_0003df6e                            
                            LAB_0003dfea:                 ;XREF[1,0]:   0003dfc6
ram:0003dfea    307a            ldrb        param_1,[r6,#0x8]                       
ram:0003dfec    2169            ldr         param_2,[r4,#0x10]=>DAT_20002c80        
ram:0003dfee    4118            adds        param_2,param_1,param_2                 
ram:0003dff0    2161            str         param_2,[r4,#0x10]=>DAT_20002c80        
ram:0003dff2    6078            ldrb        param_1,[r4,#0x1]=>DAT_20002c71         
ram:0003dff4    0028            cmp         param_1,#0x0                            
ram:0003dff6    bad0            beq         LAB_0003df6e                            
ram:0003dff8    6089            ldrh        param_1,[r4,#0xa]=>DAT_20002c7a         
ram:0003dffa    401e            subs        param_1,param_1,#0x1                    
ram:0003dffc    0004            lsls        param_1,param_1,#0x10                   
ram:0003dffe    000c            lsrs        param_1,param_1,#0x10                   
ram:0003e000    6081            strh        param_1,[r4,#0xa]=>DAT_20002c7a         
ram:0003e002    b4d1            bne         LAB_0003df6e                            
ram:0003e004    2846            mov         param_1,r5                              
ram:0003e006    fef742ff        bl          FUN_0003ce8e                            ;undefined8 FUN_0003ce8e(ushort * par...
ram:0003e00a    0028            cmp         param_1,#0x0                            
ram:0003e00c    01d0            beq         LAB_0003e012                            
ram:0003e00e    fff76df9        bl          FUN_0003d2ec                            ;undefined FUN_0003d2ec(void)
                            LAB_0003e012:                 ;XREF[1,0]:   0003e00c
ram:0003e012    2089            ldrh        param_1,[r4,#0x8]=>DAT_20002c78         
ram:0003e014    6081            strh        param_1,[r4,#0xa]=>DAT_20002c7a         
ram:0003e016    aae7            b           LAB_0003df6e                            
                            ;************************************************************************************************
                            ;*                                           FUNCTION                                           *
                            ;************************************************************************************************
                            ;undefined LAB_0003e018+1(void)
                                                          ;XREF[0,2]:   0003e49a,0003e680
ram:0003e018    10b5            push        {r4,lr}                                 
ram:0003e01a    fff767f9        bl          FUN_0003d2ec                            ;undefined FUN_0003d2ec(void)
ram:0003e01e    10bd            pop         {r4,pc}                                 
                            ;************************************************************************************************
                            ;*                                           FUNCTION                                           *
                            ;************************************************************************************************
                            ;undefined4 FUN_0003e020(undefined4 param_1, undefined4 param_2, undefined4 param_3, undefined4 param_4)
          ;param_1       undefined4          r0                      
          ;param_2       undefined4          r1                      
          ;param_3       undefined4          r2                      
          ;param_4       undefined4          r3                      
                                                          ;XREF[1,0]:   0003dc66
ram:0003e020    10b5            push        {r4,lr}                                 
ram:0003e022    b44c            ldr         r4,[DAT_0003e2f4]                       ;= 20002C70h
ram:0003e024    0120            movs        param_1,#0x1                            
ram:0003e026    2070            strb        param_1,[r4,#0x0]=>DAT_20002c70         
ram:0003e028    e088            ldrh        param_1,[r4,#0x6]=>DAT_20002c76         
ram:0003e02a    b349            ldr         param_2,[DAT_0003e2f8]                  ;= 0000FFFFh
ram:0003e02c    8842            cmp         param_1,param_2                         
ram:0003e02e    06d0            beq         LAB_0003e03e                            
ram:0003e030    1321            movs        param_2,#0x13                           
ram:0003e032    76df            svc         0x76                                    
ram:0003e034    0028            cmp         param_1,#0x0                            
ram:0003e036    0fd0            beq         LAB_0003e058                            
ram:0003e038    fff758f9        bl          FUN_0003d2ec                            ;undefined FUN_0003d2ec(void)
ram:0003e03c    0ce0            b           LAB_0003e058                            
                            LAB_0003e03e:                 ;XREF[1,0]:   0003e02e
ram:0003e03e    a078            ldrb        param_1,[r4,#0x2]=>DAT_20002c72         
ram:0003e040    0028            cmp         param_1,#0x0                            
ram:0003e042    09d0            beq         LAB_0003e058                            
ram:0003e044    74df            svc         0x74                                    
ram:0003e046    0028            cmp         param_1,#0x0                            
ram:0003e048    01d0            beq         LAB_0003e04e                            
ram:0003e04a    fff74ff9        bl          FUN_0003d2ec                            ;undefined FUN_0003d2ec(void)
                            LAB_0003e04e:                 ;XREF[1,0]:   0003e048
ram:0003e04e    1520            movs        param_1,#0x15                           
ram:0003e050    00f03cfa        bl          FUN_0003e4cc                            ;undefined FUN_0003e4cc(uint param_1)
ram:0003e054    0020            movs        param_1,#0x0                            
ram:0003e056    a070            strb        param_1,[r4,#0x2]=>DAT_20002c72         
                            LAB_0003e058:                 ;XREF[3,0]:   0003e036,0003e03c,0003e042
ram:0003e058    fef72bfd        bl          FUN_0003cab2                            ;undefined FUN_0003cab2(undefined4 pa...
ram:0003e05c    0028            cmp         param_1,#0x0                            
ram:0003e05e    01d0            beq         LAB_0003e064                            
ram:0003e060    fff744f9        bl          FUN_0003d2ec                            ;undefined FUN_0003d2ec(void)
                            LAB_0003e064:                 ;XREF[1,0]:   0003e05e
ram:0003e064    0020            movs        param_1,#0x0                            
ram:0003e066    10bd            pop         {r4,pc}                                 
                            ;************************************************************************************************
                            ;*                                           FUNCTION                                           *
                            ;************************************************************************************************
                            ;undefined FUN_0003e068(undefined4 param_1, byte * param_2)
          ;param_1       undefined4          r0                      
          ;param_2       byte *              r1                      
                                                          ;XREF[0,1]:   0003e674
ram:0003e068    70b5            push        {r4,r5,r6,lr}                           
ram:0003e06a    0d78            ldrb        r5,[param_2,#0x0]                       
ram:0003e06c    0446            mov         r4,param_1                              
ram:0003e06e    0120            movs        param_1,#0x1                            
ram:0003e070    a04a            ldr         r2,[DAT_0003e2f4]                       ;= 20002C70h
ram:0003e072    2b00            movs        r3,r5                                   
                                                          ; FWD[2,0]:   0003e078,0003f134
ram:0003e074    01f05ef8        bl          __ARM_common_switch8                    ;= 0Ah
                                                                                    ;undefined __ARM_common_switch8(void)
                            DAT_0003e078:                 ;XREF[1,0]:   0003e074
ram:0003e078    0a              undefined1  0Ah                                     
ram:0003e079    25              ??          25h    %                                
ram:0003e07a    2a              ??          2Ah    *                                
ram:0003e07b    3d              ??          3Dh    =                                
ram:0003e07c    06              ??          06h                                     
ram:0003e07d    11              ??          11h                                     
ram:0003e07e    1c              ??          1Ch                                     
ram:0003e07f    51              ??          51h    Q                                
ram:0003e080    56              ??          56h    V                                
ram:0003e081    40              ??          40h    @                                
ram:0003e082    5a              ??          5Ah    Z                                
ram:0003e083    10              ??          10h                                     
ram:0003e084    00              ??          00h                                     
ram:0003e085    f0              ??          F0h                                     
ram:0003e086    58              ??          58h    X                                
ram:0003e087    fd              ??          FDh                                     
ram:0003e088    04              ??          04h                                     
ram:0003e089    21              ??          21h    !                                
ram:0003e08a    ff              ??          FFh                                     
ram:0003e08b    f7              ??          F7h                                     
ram:0003e08c    19              ??          19h                                     
ram:0003e08d    ff              ??          FFh                                     
ram:0003e08e    02              ??          02h                                     
ram:0003e08f    46              ??          46h    F                                
ram:0003e090    04              ??          04h                                     
ram:0003e091    21              ??          21h    !                                
ram:0003e092    28              ??          28h    (                                
ram:0003e093    e0              ??          E0h                                     
ram:0003e094    ff              ??          FFh                                     
ram:0003e095    f7              ??          F7h                                     
ram:0003e096    2a              ??          2Ah    *                                
ram:0003e097    f9              ??          F9h                                     
ram:0003e098    70              ??          70h    p                                
ram:0003e099    bd              ??          BDh                                     
ram:0003e09a    ff              ??          FFh                                     
ram:0003e09b    f7              ??          F7h                                     
ram:0003e09c    c1              ??          C1h                                     
ram:0003e09d    ff              ??          FFh                                     
ram:0003e09e    00              ??          00h                                     
ram:0003e09f    28              ??          28h    (                                
ram:0003e0a0    01              ??          01h                                     
ram:0003e0a1    d0              ??          D0h                                     
ram:0003e0a2    ff              ??          FFh                                     
ram:0003e0a3    f7              ??          F7h                                     
ram:0003e0a4    23              ??          23h    #                                
ram:0003e0a5    f9              ??          F9h                                     
ram:0003e0a6    00              ??          00h                                     
ram:0003e0a7    f0              ??          F0h                                     
ram:0003e0a8    62              ??          62h    b                                
ram:0003e0a9    fd              ??          FDh                                     
ram:0003e0aa    00              ??          00h                                     
ram:0003e0ab    28              ??          28h    (                                
ram:0003e0ac    06              ??          06h                                     
ram:0003e0ad    d1              ??          D1h                                     
ram:0003e0ae    70              ??          70h    p                                
ram:0003e0af    bd              ??          BDh                                     
ram:0003e0b0    ff              ??          FFh                                     
ram:0003e0b1    f7              ??          F7h                                     
ram:0003e0b2    b6              ??          B6h                                     
ram:0003e0b3    ff              ??          FFh                                     
ram:0003e0b4    00              ??          00h                                     
ram:0003e0b5    28              ??          28h    (                                
ram:0003e0b6    01              ??          01h                                     
ram:0003e0b7    d0              ??          D0h                                     
ram:0003e0b8    ff              ??          FFh                                     
ram:0003e0b9    f7              ??          F7h                                     
ram:0003e0ba    18              ??          18h                                     
ram:0003e0bb    f9              ??          F9h                                     
ram:0003e0bc    00              ??          00h                                     
ram:0003e0bd    f0              ??          F0h                                     
ram:0003e0be    6a              ??          6Ah    j                                
ram:0003e0bf    fd              ??          FDh                                     
ram:0003e0c0    70              ??          70h    p                                
ram:0003e0c1    bd              ??          BDh                                     
ram:0003e0c2    10              ??          10h                                     
ram:0003e0c3    71              ??          71h    q                                
ram:0003e0c4    48              ??          48h    H                                
ram:0003e0c5    68              ??          68h    h                                
ram:0003e0c6    00              ??          00h                                     
ram:0003e0c7    78              ??          78h    x                                
ram:0003e0c8    50              ??          50h    P                                
ram:0003e0c9    71              ??          71h    q                                
ram:0003e0ca    70              ??          70h    p                                
ram:0003e0cb    bd              ??          BDh                                     
ram:0003e0cc    02              ??          02h                                     
ram:0003e0cd    20              ??          20h                                     
ram:0003e0ce    10              ??          10h                                     
ram:0003e0cf    71              ??          71h    q                                
ram:0003e0d0    48              ??          48h    H                                
ram:0003e0d1    68              ??          68h    h                                
ram:0003e0d2    00              ??          00h                                     
ram:0003e0d3    78              ??          78h    x                                
ram:0003e0d4    01              ??          01h                                     
ram:0003e0d5    28              ??          28h    (                                
ram:0003e0d6    f8              ??          F8h                                     
ram:0003e0d7    d1              ??          D1h                                     
ram:0003e0d8    00              ??          00h                                     
ram:0003e0d9    f0              ??          F0h                                     
ram:0003e0da    ee              ??          EEh                                     
ram:0003e0db    fc              ??          FCh                                     
ram:0003e0dc    02              ??          02h                                     
ram:0003e0dd    21              ??          21h    !                                
ram:0003e0de    ff              ??          FFh                                     
ram:0003e0df    f7              ??          F7h                                     
ram:0003e0e0    ef              ??          EFh                                     
ram:0003e0e1    fe              ??          FEh                                     
ram:0003e0e2    02              ??          02h                                     
ram:0003e0e3    46              ??          46h    F                                
ram:0003e0e4    02              ??          02h                                     
ram:0003e0e5    21              ??          21h    !                                
ram:0003e0e6    20              ??          20h                                     
ram:0003e0e7    46              ??          46h    F                                
ram:0003e0e8    fe              ??          FEh                                     
ram:0003e0e9    f7              ??          F7h                                     
ram:0003e0ea    70              ??          70h    p                                
ram:0003e0eb    fd              ??          FDh                                     
ram:0003e0ec    00              ??          00h                                     
ram:0003e0ed    28              ??          28h    (                                
ram:0003e0ee    d1              ??          D1h                                     
ram:0003e0ef    d1              ??          D1h                                     
ram:0003e0f0    70              ??          70h    p                                
ram:0003e0f1    bd              ??          BDh                                     
ram:0003e0f2    03              ??          03h                                     
ram:0003e0f3    20              ??          20h                                     
ram:0003e0f4    10              ??          10h                                     
ram:0003e0f5    71              ??          71h    q                                
ram:0003e0f6    70              ??          70h    p                                
ram:0003e0f7    bd              ??          BDh                                     
ram:0003e0f8    12              ??          12h                                     
ram:0003e0f9    79              ??          79h    y                                
ram:0003e0fa    20              ??          20h                                     
ram:0003e0fb    46              ??          46h    F                                
ram:0003e0fc    01              ??          01h                                     
ram:0003e0fd    2a              ??          2Ah    *                                
ram:0003e0fe    06              ??          06h                                     
ram:0003e0ff    d0              ??          D0h                                     
ram:0003e100    02              ??          02h                                     
ram:0003e101    2a              ??          2Ah    *                                
ram:0003e102    07              ??          07h                                     
ram:0003e103    d0              ??          D0h                                     
ram:0003e104    03              ??          03h                                     
ram:0003e105    2a              ??          2Ah    *                                
ram:0003e106    f6              ??          F6h                                     
ram:0003e107    d1              ??          D1h                                     
ram:0003e108    ff              ??          FFh                                     
ram:0003e109    f7              ??          F7h                                     
ram:0003e10a    21              ??          21h    !                                
ram:0003e10b    ff              ??          FFh                                     
ram:0003e10c    70              ??          70h    p                                
ram:0003e10d    bd              ??          BDh                                     
ram:0003e10e    00              ??          00h                                     
ram:0003e10f    f0              ??          F0h                                     
ram:0003e110    20              ??          20h                                     
ram:0003e111    fa              ??          FAh                                     
ram:0003e112    70              ??          70h    p                                
ram:0003e113    bd              ??          BDh                                     
ram:0003e114    00              ??          00h                                     
ram:0003e115    f0              ??          F0h                                     
ram:0003e116    58              ??          58h    X                                
ram:0003e117    fa              ??          FAh                                     
ram:0003e118    70              ??          70h    p                                
ram:0003e119    bd              ??          BDh                                     
ram:0003e11a    50              ??          50h    P                                
ram:0003e11b    70              ??          70h    p                                
ram:0003e11c    88              ??          88h                                     
ram:0003e11d    88              ??          88h                                     
ram:0003e11e    10              ??          10h                                     
ram:0003e11f    81              ??          81h                                     
ram:0003e120    50              ??          50h    P                                
ram:0003e121    81              ??          81h                                     
ram:0003e122    70              ??          70h    p                                
ram:0003e123    bd              ??          BDh                                     
ram:0003e124    00              ??          00h                                     
ram:0003e125    20              ??          20h                                     
ram:0003e126    50              ??          50h    P                                
ram:0003e127    70              ??          70h    p                                
ram:0003e128    10              ??          10h                                     
ram:0003e129    81              ??          81h                                     
ram:0003e12a    70              ??          70h    p                                
ram:0003e12b    bd              ??          BDh                                     
ram:0003e12c    20              ??          20h                                     
ram:0003e12d    46              ??          46h    F                                
ram:0003e12e    11              ??          11h                                     
ram:0003e12f    69              ??          69h    i                                
ram:0003e130    fe              ??          FEh                                     
ram:0003e131    f7              ??          F7h                                     
ram:0003e132    76              ??          76h    v                                
ram:0003e133    fe              ??          FEh                                     
ram:0003e134    da              ??          DAh                                     
ram:0003e135    e7              ??          E7h                                     
                            ;************************************************************************************************
                            ;*                                           FUNCTION                                           *
                            ;************************************************************************************************
                            ;undefined FUN_0003e136(undefined param_1, undefined4 param_2, undefined4 param_3, ushort * param_4)
          ;param_1       undefined           r0                      
          ;param_2       undefined4          r1                      
          ;param_3       undefined4          r2                      
          ;param_4       ushort *            r3                      
          ;local_38      undefined4         -38                      ;XREF[1,0]:   0003e160
          ;local_3c      undefined2         -3c                      ;XREF[1,0]:   0003e15e
          ;local_41      undefined1         -41                      ;XREF[1,0]:   0003e15a
          ;local_42      undefined1         -42                      ;XREF[1,0]:   0003e158
          ;local_44      undefined1         -44                      ;XREF[1,0]:   0003e154
          ;local_46      undefined1         -46                      ;XREF[1,0]:   0003e142
          ;local_48      undefined2         -48                      ;XREF[1,0]:   0003e146
                                                          ;XREF[3,0]:   0003e1ce,0003e202,0003e212
ram:0003e136    10b5            push        {r4,lr}                                 
ram:0003e138    0446            mov         r4,param_1                              
ram:0003e13a    7048            ldr         param_1,[DAT_0003e2fc]                  ;= 200031B4h
ram:0003e13c    90b0            sub         sp,#0x40                                
ram:0003e13e    8179            ldrb        param_2,[param_1,#0x6]=>DAT_200031ba    
ram:0003e140    6846            mov         param_1,sp                              
ram:0003e142    8170            strb        param_2,[r0,#local_46+0x48]             
ram:0003e144    6e49            ldr         param_2,[DAT_0003e300]                  ;= 00001530h
ram:0003e146    0180            strh        param_2,[param_1,#0x0]=>local_48        
ram:0003e148    3821            movs        param_2,#0x38                           
ram:0003e14a    01a8            add         param_1,sp,#0x4                         
ram:0003e14c    00f0bdff        bl          FUN_0003f0ca                            ;undefined FUN_0003f0ca(undefined * p...
ram:0003e150    0221            movs        param_2,#0x2                            
ram:0003e152    6846            mov         param_1,sp                              
ram:0003e154    0171            strb        param_2,[r0,#local_44+0x48]             
ram:0003e156    0021            movs        param_2,#0x0                            
ram:0003e158    8171            strb        param_2,[r0,#local_42+0x48]             
ram:0003e15a    c471            strb        r4,[r0,#local_41+0x48]                  
ram:0003e15c    0121            movs        param_2,#0x1                            
ram:0003e15e    8181            strh        param_2,[r0,#local_3c+0x48]             
ram:0003e160    0490            str         param_1,[sp,#local_38+0x48]             
ram:0003e162    0021            movs        param_2,#0x0                            
ram:0003e164    01a8            add         param_1,sp,#0x4                         
ram:0003e166    fef7b7fa        bl          FUN_0003c6d8                            ;undefined * FUN_0003c6d8(byte * para...
ram:0003e16a    0028            cmp         param_1,#0x0                            
ram:0003e16c    01d0            beq         LAB_0003e172                            
ram:0003e16e    fff7bdf8        bl          FUN_0003d2ec                            ;undefined FUN_0003d2ec(void)
                            LAB_0003e172:                 ;XREF[1,0]:   0003e16c
ram:0003e172    10b0            add         sp,#0x40                                
ram:0003e174    10bd            pop         {r4,pc}                                 
                            ;************************************************************************************************
                            ;*                                           FUNCTION                                           *
                            ;************************************************************************************************
                            ;undefined FUN_0003e176(undefined4 param_1, undefined4 param_2, undefined4 param_3, ushort * param_4)
          ;param_1       undefined4          r0                      
          ;param_2       undefined4          r1                      
          ;param_3       undefined4          r2                      
          ;param_4       ushort *            r3                      
          ;local_1c      undefined4         -1c                      ;XREF[1,0]:   0003e1ba
          ;local_20      undefined4         -20                      ;XREF[1,0]:   0003e1b8
          ;local_24      undefined1         -24                      ;XREF[1,0]:   0003e1c6
          ;local_28      undefined4         -28                      ;XREF[1,0]:   0003e1ca
          ;local_2c      undefined1         -2c                      ;XREF[1,0]:   0003e1be
          ;local_30      undefined4         -30                      ;XREF[1,0]:   0003e1c2
          ;local_34      undefined4         -34                      ;XREF[1,0]:   0003e1ac
          ;local_38      undefined4         -38                      ;XREF[1,0]:   0003e1a4
          ;local_3c      undefined4         -3c                      ;XREF[1,0]:   0003e1a2
          ;local_40      undefined4         -40                      ;XREF[1,0]:   0003e1a0
                                                          ;XREF[3,0]:   0003e29c,0003e2e8,0003e4b0
ram:0003e176    f0b5            push        {r4,r5,r6,r7,lr}                        
ram:0003e178    5e4c            ldr         r4,[DAT_0003e2f4]                       ;= 20002C70h
ram:0003e17a    8bb0            sub         sp,#0x2c                                
ram:0003e17c    a078            ldrb        param_1,[r4,#0x2]=>DAT_20002c72         
ram:0003e17e    0028            cmp         param_1,#0x0                            
ram:0003e180    3cd1            bne         LAB_0003e1fc                            
ram:0003e182    5e48            ldr         param_1,[DAT_0003e2fc]                  ;= 200031B4h
ram:0003e184    1821            movs        param_2,#0x18                           
ram:0003e186    1838            subs        param_1=>DAT_2000319c,#0x18             
ram:0003e188    00f09fff        bl          FUN_0003f0ca                            ;undefined FUN_0003f0ca(undefined * p...
ram:0003e18c    2046            mov         param_1,r4                              
ram:0003e18e    5b4c            ldr         r4,[DAT_0003e2fc]                       ;= 200031B4h
ram:0003e190    c078            ldrb        param_1,[param_1,#0x3]=>DAT_20002c73    
ram:0003e192    183c            subs        r4,#0x18                                
ram:0003e194    0025            movs        r5,#0x0                                 
ram:0003e196    0126            movs        r6,#0x1                                 
ram:0003e198    0028            cmp         param_1,#0x0                            
ram:0003e19a    39d0            beq         LAB_0003e210                            
ram:0003e19c    2746            mov         r7,r4                                   
ram:0003e19e    4837            adds        r7,#0x48                                
ram:0003e1a0    0095            str         r5,[sp,#0x0]=>local_40                  
ram:0003e1a2    0195            str         r5,[sp,#local_3c+0x40]                  
ram:0003e1a4    0295            str         r5,[sp,#local_38+0x40]                  
ram:0003e1a6    1022            movs        param_3,#0x10                           
ram:0003e1a8    6946            mov         param_2,sp                              
ram:0003e1aa    f81d            adds        param_1,r7,#0x7                         
ram:0003e1ac    0395            str         r5,[sp,#local_34+0x40]                  
ram:0003e1ae    00f097ff        bl          FUN_0003f0e0                            ;undefined FUN_0003f0e0(int param_1, ...
ram:0003e1b2    0028            cmp         param_1,#0x0                            
ram:0003e1b4    24d0            beq         LAB_0003e200                            
ram:0003e1b6    f81d            adds        param_1,r7,#0x7                         
ram:0003e1b8    0890            str         param_1,[sp,#local_20+0x40]             
ram:0003e1ba    0997            str         r7,[sp,#local_1c+0x40]                  
ram:0003e1bc    6846            mov         param_1,sp                              
ram:0003e1be    0675            strb        r6,[r0,#local_2c+0x40]                  
ram:0003e1c0    09a8            add         param_1,sp,#0x24                        
ram:0003e1c2    0490            str         param_1,[sp,#local_30+0x40]             
ram:0003e1c4    6846            mov         param_1,sp                              
ram:0003e1c6    0677            strb        r6,[r0,#local_24+0x40]                  
ram:0003e1c8    08a8            add         param_1,sp,#0x20                        
ram:0003e1ca    0690            str         param_1,[sp,#local_28+0x40]             
ram:0003e1cc    0420            movs        param_1,#0x4                            
ram:0003e1ce    fff7b2ff        bl          FUN_0003e136                            ;undefined FUN_0003e136(undefined par...
ram:0003e1d2    2570            strb        r5,[r4,#0x0]=>DAT_2000319c              
ram:0003e1d4    0220            movs        param_1,#0x2                            
ram:0003e1d6    2072            strb        param_1,[r4,#0x8]=>DAT_200031a4         
ram:0003e1d8    04a8            add         param_1,sp,#0x10                        
ram:0003e1da    e060            str         param_1,[r4,#0xc]=>DAT_200031a8         
                            LAB_0003e1dc:                 ;XREF[1,0]:   0003e21c
ram:0003e1dc    2820            movs        param_1,#0x28                           
ram:0003e1de    2082            strh        param_1,[r4,#0x10]=>DAT_200031ac        
                            LAB_0003e1e0:                 ;XREF[1,0]:   0003e20e
ram:0003e1e0    4648            ldr         param_1,[DAT_0003e2fc]                  ;= 200031B4h
ram:0003e1e2    6582            strh        r5,[r4,#0x12]=>DAT_200031ae             
ram:0003e1e4    1838            subs        param_1=>DAT_2000319c,#0x18             
ram:0003e1e6    73df            svc         0x73                                    
ram:0003e1e8    0028            cmp         param_1,#0x0                            
ram:0003e1ea    01d0            beq         LAB_0003e1f0                            
ram:0003e1ec    fff77ef8        bl          FUN_0003d2ec                            ;undefined FUN_0003d2ec(void)
                            LAB_0003e1f0:                 ;XREF[1,0]:   0003e1ea
ram:0003e1f0    0120            movs        param_1,#0x1                            
ram:0003e1f2    4449            ldr         param_2,[DAT_0003e304]                  ;= 50000500h
ram:0003e1f4    4005            lsls        param_1,param_1,#0x15                   
ram:0003e1f6    c860            str         param_1,[param_2,#offset DAT_5000050c...
ram:0003e1f8    3e48            ldr         param_1=>DAT_20002c70,[DAT_0003e2f4]    ;= 20002C70h
ram:0003e1fa    8670            strb        r6,[param_1,#0x2]=>DAT_20002c72         
                            LAB_0003e1fc:                 ;XREF[1,0]:   0003e180
ram:0003e1fc    0bb0            add         sp,#0x2c                                
ram:0003e1fe    f0bd            pop         {r4,r5,r6,r7,pc}                        
                            LAB_0003e200:                 ;XREF[1,0]:   0003e1b4
ram:0003e200    0520            movs        param_1,#0x5                            
ram:0003e202    fff798ff        bl          FUN_0003e136                            ;undefined FUN_0003e136(undefined par...
ram:0003e206    2670            strb        r6,[r4,#0x0]=>DAT_2000319c              
ram:0003e208    6760            str         r7,[r4,#0x4]=>DAT_200031a0              
ram:0003e20a    2572            strb        r5,[r4,#0x8]=>DAT_200031a4              
ram:0003e20c    2582            strh        r5,[r4,#0x10]=>DAT_200031ac             
ram:0003e20e    e7e7            b           LAB_0003e1e0                            
                            LAB_0003e210:                 ;XREF[1,0]:   0003e19a
ram:0003e210    0620            movs        param_1,#0x6                            
ram:0003e212    fff790ff        bl          FUN_0003e136                            ;undefined FUN_0003e136(undefined par...
ram:0003e216    2570            strb        r5,[r4,#0x0]=>DAT_2000319c              
ram:0003e218    6560            str         r5,[r4,#0x4]=>DAT_200031a0              
ram:0003e21a    2572            strb        r5,[r4,#0x8]=>DAT_200031a4              
ram:0003e21c    dee7            b           LAB_0003e1dc                            
                            ;************************************************************************************************
                            ;*                                           FUNCTION                                           *
                            ;************************************************************************************************
                            ;undefined FUN_0003e21e(ushort * param_1, uint param_2, undefined4 param_3, ushort * param_4)
          ;param_1       ushort *            r0                      
          ;param_2       uint                r1                      
          ;param_3       undefined4          r2                      
          ;param_4       ushort *            r3                      
          ;local_84      undefined4         -84                      ;XREF[1,0]:   0003e328
          ;local_88      undefined4         -88                      ;XREF[2,0]:   0003e32c,0003e346
          ;local_98      undefined4         -98                      ;XREF[1,0]:   0003e34c
          ;local_a4      undefined2         -a4                      ;XREF[1,0]:   0003e37e
          ;local_a8      undefined1         -a8                      ;XREF[2,0]:   0003e376,0003e390
          ;local_ac      undefined2         -ac                      ;XREF[1,0]:   0003e2c4
          ;local_b0      undefined4         -b0                      ;XREF[1,0]:   0003e34a
                                                          ;XREF[1,0]:   0003e3ae
ram:0003e21e    f0b5            push        {r4,r5,r6,r7,lr}                        
ram:0003e220    0546            mov         r5,param_1                              
ram:0003e222    344c            ldr         r4,[DAT_0003e2f4]                       ;= 20002C70h
ram:0003e224    0088            ldrh        param_1,[param_1,#0x0]                  
ram:0003e226    0027            movs        r7,#0x0                                 
ram:0003e228    0122            movs        param_3,#0x1                            
ram:0003e22a    e688            ldrh        r6,[r4,#0x6]=>DAT_20002c76              
ram:0003e22c    a7b0            sub         sp,#0x9c                                
ram:0003e22e    1928            cmp         param_1,#0x19                           
ram:0003e230    10d0            beq         LAB_0003e254                            
ram:0003e232    24dc            bgt         LAB_0003e27e                            
ram:0003e234    1128            cmp         param_1,#0x11                           
ram:0003e236    43d0            beq         LAB_0003e2c0                            
ram:0003e238    0edc            bgt         LAB_0003e258                            
ram:0003e23a    0228            cmp         param_1,#0x2                            
ram:0003e23c    7dd0            beq         LAB_0003e33a                            
ram:0003e23e    1028            cmp         param_1,#0x10                           
ram:0003e240    08d1            bne         LAB_0003e254                            
ram:0003e242    3049            ldr         param_2,[DAT_0003e304]                  ;= 50000500h
ram:0003e244    0005            lsls        param_1,param_1,#0x14                   
ram:0003e246    c860            str         param_1,[param_2,#offset DAT_5000050c...
ram:0003e248    1520            movs        param_1,#0x15                           
ram:0003e24a    00f03ff9        bl          FUN_0003e4cc                            ;undefined FUN_0003e4cc(uint param_1)
ram:0003e24e    a888            ldrh        param_1,[r5,#0x4]                       
ram:0003e250    e080            strh        param_1,[r4,#0x6]=>DAT_20002c76         
ram:0003e252    a770            strb        r7,[r4,#0x2]=>DAT_20002c72              
                            LAB_0003e254:                 ;XREF[12,0]:  0003e230,0003e240,0003e266,0003e28a
                                                          ;             0003e290,0003e2a0,0003e2a8,0003e2ae
                                                          ;             0003e2b8,0003e2be,0003e2f2,0003e352
ram:0003e254    27b0            add         sp,#0x9c                                
ram:0003e256    f0bd            pop         {r4,r5,r6,r7,pc}                        
                            LAB_0003e258:                 ;XREF[1,0]:   0003e238
ram:0003e258    284c            ldr         r4,[DAT_0003e2fc]                       ;= 200031B4h
ram:0003e25a    3034            adds        r4,#0x30                                
ram:0003e25c    2746            mov         r7,r4                                   
ram:0003e25e    1837            adds        r7,#0x18                                
ram:0003e260    1328            cmp         param_1,#0x13                           
ram:0003e262    51d0            beq         LAB_0003e308                            
ram:0003e264    1428            cmp         param_1,#0x14                           
ram:0003e266    f5d1            bne         LAB_0003e254                            
ram:0003e268    288a            ldrh        param_1,[r5,#0x10]                      
ram:0003e26a    628d            ldrh        param_3,[r4,#0x2a]=>DAT_2000320e        
ram:0003e26c    0021            movs        param_2,#0x0                            
ram:0003e26e    9042            cmp         param_1,param_3                         
ram:0003e270    00d1            bne         LAB_0003e274                            
ram:0003e272    3946            mov         param_2,r7                              
                            LAB_0003e274:                 ;XREF[1,0]:   0003e270
ram:0003e274    0023            movs        param_4,#0x0                            
ram:0003e276    a888            ldrh        param_1,[r5,#0x4]                       
ram:0003e278    e21d            adds        param_3,r4,#0x7                         
ram:0003e27a    86df            svc         0x86                                    
ram:0003e27c    1be0            b           LAB_0003e2b6                            
                            LAB_0003e27e:                 ;XREF[1,0]:   0003e232
ram:0003e27e    5128            cmp         param_1,#0x51                           
ram:0003e280    6cd0            beq         LAB_0003e35c                            
ram:0003e282    0edc            bgt         LAB_0003e2a2                            
ram:0003e284    1a28            cmp         param_1,#0x1a                           
ram:0003e286    7dd0            beq         LAB_0003e384                            
ram:0003e288    1b28            cmp         param_1,#0x1b                           
ram:0003e28a    e3d1            bne         LAB_0003e254                            
ram:0003e28c    287a            ldrb        param_1,[r5,#0x8]                       
ram:0003e28e    0028            cmp         param_1,#0x0                            
ram:0003e290    e0d1            bne         LAB_0003e254                            
ram:0003e292    a770            strb        r7,[r4,#0x2]=>DAT_20002c72              
ram:0003e294    e068            ldr         param_1,[r4,#0xc]=>DAT_20002c7c         
ram:0003e296    401e            subs        param_1,param_1,#0x1                    
ram:0003e298    e060            str         param_1,[r4,#0xc]=>DAT_20002c7c         
ram:0003e29a    4fd0            beq         LAB_0003e33c                            
ram:0003e29c    fff76bff        bl          FUN_0003e176                            ;undefined FUN_0003e176(undefined4 pa...
                            LAB_0003e2a0:                 ;XREF[2,0]:   0003e360,0003e36e
ram:0003e2a0    d8e7            b           LAB_0003e254                            
                            LAB_0003e2a2:                 ;XREF[1,0]:   0003e282
ram:0003e2a2    5228            cmp         param_1,#0x52                           
ram:0003e2a4    76d0            beq         LAB_0003e394                            
ram:0003e2a6    5528            cmp         param_1,#0x55                           
ram:0003e2a8    d4d1            bne         LAB_0003e254                            
ram:0003e2aa    a879            ldrb        param_1,[r5,#0x6]                       
ram:0003e2ac    0028            cmp         param_1,#0x0                            
ram:0003e2ae    d1d1            bne         LAB_0003e254                            
ram:0003e2b0    1321            movs        param_2,#0x13                           
ram:0003e2b2    3046            mov         param_1,r6                              
ram:0003e2b4    76df            svc         0x76                                    
                            LAB_0003e2b6:                 ;XREF[5,0]:   0003e27c,0003e338,0003e35a,0003e38a
                                                          ;             0003e398
ram:0003e2b6    0028            cmp         param_1,#0x0                            
ram:0003e2b8    ccd0            beq         LAB_0003e254                            
ram:0003e2ba    fff717f8        bl          FUN_0003d2ec                            ;undefined FUN_0003d2ec(void)
ram:0003e2be    c9e7            b           LAB_0003e254                            
                            LAB_0003e2c0:                 ;XREF[1,0]:   0003e236
ram:0003e2c0    8020            movs        param_1,#0x80                           
ram:0003e2c2    6946            mov         param_2,sp                              
ram:0003e2c4    8880            strh        param_1,[r1,#local_ac+0xb0]             
ram:0003e2c6    3220            movs        param_1,#0x32                           
ram:0003e2c8    e060            str         param_1,[r4,#0xc]=>DAT_20002c7c         
ram:0003e2ca    1820            movs        param_1,#0x18                           
ram:0003e2cc    00f0fef8        bl          FUN_0003e4cc                            ;undefined FUN_0003e4cc(uint param_1)
ram:0003e2d0    0123            movs        param_4,#0x1                            
ram:0003e2d2    01aa            add         param_3,sp,#0x4                         
ram:0003e2d4    06a9            add         param_2,sp,#0x18                        
ram:0003e2d6    e088            ldrh        param_1,[r4,#0x6]=>DAT_20002c76         
ram:0003e2d8    aadf            svc         0xaa                                    
ram:0003e2da    0028            cmp         param_1,#0x0                            
ram:0003e2dc    01d0            beq         LAB_0003e2e2                            
ram:0003e2de    fff705f8        bl          FUN_0003d2ec                            ;undefined FUN_0003d2ec(void)
                            LAB_0003e2e2:                 ;XREF[1,0]:   0003e2dc
ram:0003e2e2    2078            ldrb        param_1,[r4,#0x0]=>DAT_20002c70         
ram:0003e2e4    0028            cmp         param_1,#0x0                            
ram:0003e2e6    01d1            bne         LAB_0003e2ec                            
ram:0003e2e8    fff745ff        bl          FUN_0003e176                            ;undefined FUN_0003e176(undefined4 pa...
                            LAB_0003e2ec:                 ;XREF[1,0]:   0003e2e6
ram:0003e2ec    0020            movs        param_1,#0x0                            
ram:0003e2ee    c043            mvns        param_1,param_1                         
ram:0003e2f0    e080            strh        param_1,[r4,#0x6]=>DAT_20002c76         
ram:0003e2f2    afe7            b           LAB_0003e254                            
                            DAT_0003e2f4:                 ;XREF[8,0]:   0003df04,0003df72,0003df80,0003e022
                                                          ;             0003e070,0003e178,0003e1f8,0003e222
ram:0003e2f4    702c0020        undefined4  20002C70h                               
                            DAT_0003e2f8:                 ;XREF[2,0]:   0003df0c,0003e02a
ram:0003e2f8    ffff0000        undefined4  0000FFFFh                               
                            DAT_0003e2fc:                 ;XREF[6,0]:   0003df30,0003e13a,0003e182,0003e18e
                                                          ;             0003e1e0,0003e258
ram:0003e2fc    b4310020        undefined4  200031B4h                               
                            DAT_0003e300:                 ;XREF[1,0]:   0003e144
ram:0003e300    30150000        undefined4  00001530h                               
                            DAT_0003e304:                 ;XREF[2,0]:   0003e1f2,0003e242
ram:0003e304    00050050        undefined4  50000500h                               
                            LAB_0003e308:                 ;XREF[1,0]:   0003e262
ram:0003e308    0722            movs        param_3,#0x7                            
ram:0003e30a    d249            ldr         param_2,[DAT_0003e654]                  ;= 200031E4h
ram:0003e30c    12a8            add         param_1,sp,#0x48                        
ram:0003e30e    00f0c3fe        bl          FUN_0003f098                            ;undefined FUN_0003f098(undefined4 * ...
ram:0003e312    1022            movs        param_3,#0x10                           
ram:0003e314    e11d            adds        param_2,r4,#0x7                         
ram:0003e316    0ea8            add         param_1,sp,#0x38                        
ram:0003e318    00f0befe        bl          FUN_0003f098                            ;undefined FUN_0003f098(undefined4 * ...
ram:0003e31c    1c22            movs        param_3,#0x1c                           
ram:0003e31e    3946            mov         param_2,r7                              
ram:0003e320    14a8            add         param_1,sp,#0x50                        
ram:0003e322    00f0b9fe        bl          FUN_0003f098                            ;undefined FUN_0003f098(undefined4 * ...
ram:0003e326    0ea8            add         param_1,sp,#0x38                        
ram:0003e328    0b90            str         param_1,[sp,#local_84+0xb0]             
ram:0003e32a    14a8            add         param_1,sp,#0x50                        
ram:0003e32c    0a90            str         param_1,[sp,#local_88+0xb0]             
ram:0003e32e    06ab            add         param_4,sp,#0x18                        
ram:0003e330    c94a            ldr         param_3,[DAT_0003e658]                  ;= 20002C8Ch
ram:0003e332    8521            movs        param_2,#0x85                           
ram:0003e334    3046            mov         param_1,r6                              
ram:0003e336    7fdf            svc         0x7f                                    
ram:0003e338    bde7            b           LAB_0003e2b6                            
                            LAB_0003e33a:                 ;XREF[1,0]:   0003e23c
ram:0003e33a    0be0            b           LAB_0003e354                            
                            LAB_0003e33c:                 ;XREF[1,0]:   0003e29a
ram:0003e33c    1422            movs        param_3,#0x14                           
ram:0003e33e    c749            ldr         param_2=>DAT_0003f1c0,[PTR_DAT_0003e65c];= 05h
                                                                                    ;= 0003f1c0
ram:0003e340    06a8            add         param_1,sp,#0x18                        
ram:0003e342    00f0a9fe        bl          FUN_0003f098                            ;undefined FUN_0003f098(undefined4 * ...
ram:0003e346    0a98            ldr         param_1,[sp,#local_88+0xb0]             
ram:0003e348    06ac            add         r4,sp,#0x18                             
ram:0003e34a    0090            str         param_1,[sp,#0x0]=>local_b0             
ram:0003e34c    0fcc            ldmia       r4!=>local_98,{param_1,param_2,param_...
ram:0003e34e    fff72cfc        bl          FUN_0003dbaa                            ;undefined FUN_0003dbaa(uint param_1,...
ram:0003e352    7fe7            b           LAB_0003e254                            
                            LAB_0003e354:                 ;XREF[1,0]:   0003e33a
ram:0003e354    0021            movs        param_2,#0x0                            
ram:0003e356    3046            mov         param_1,r6                              
ram:0003e358    67df            svc         0x67                                    
ram:0003e35a    ace7            b           LAB_0003e2b6                            
                            LAB_0003e35c:                 ;XREF[1,0]:   0003e280
ram:0003e35c    a979            ldrb        param_2,[r5,#0x6]                       
ram:0003e35e    0029            cmp         param_2,#0x0                            
ram:0003e360    9ed0            beq         LAB_0003e2a0                            
ram:0003e362    a87b            ldrb        param_1,[r5,#0xe]                       
ram:0003e364    0428            cmp         param_1,#0x4                            
ram:0003e366    03d0            beq         LAB_0003e370                            
ram:0003e368    0628            cmp         param_1,#0x6                            
ram:0003e36a    01d0            beq         LAB_0003e370                            
ram:0003e36c    0528            cmp         param_1,#0x5                            
ram:0003e36e    97d1            bne         LAB_0003e2a0                            
                            LAB_0003e370:                 ;XREF[2,0]:   0003e366,0003e36a
ram:0003e370    0229            cmp         param_2,#0x2                            
ram:0003e372    0bd0            beq         LAB_0003e38c                            
ram:0003e374    6846            mov         param_1,sp                              
ram:0003e376    0272            strb        param_3,[r0,#local_a8+0xb0]             
                            LAB_0003e378:                 ;XREF[1,0]:   0003e392
ram:0003e378    ff20            movs        param_1,#0xff                           
ram:0003e37a    8330            adds        param_1,#0x83                           
ram:0003e37c    6946            mov         param_2,sp                              
ram:0003e37e    8881            strh        param_1,[r1,#local_a4+0xb0]             
ram:0003e380    02a9            add         param_2,sp,#0x8                         
ram:0003e382    00e0            b           LAB_0003e386                            
                            LAB_0003e384:                 ;XREF[1,0]:   0003e286
ram:0003e384    06e0            b           LAB_0003e394                            
                            LAB_0003e386:                 ;XREF[1,0]:   0003e382
ram:0003e386    3046            mov         param_1,r6                              
ram:0003e388    a8df            svc         0xa8                                    
ram:0003e38a    94e7            b           LAB_0003e2b6                            
                            LAB_0003e38c:                 ;XREF[1,0]:   0003e372
ram:0003e38c    0220            movs        param_1,#0x2                            
ram:0003e38e    6946            mov         param_2,sp                              
ram:0003e390    0872            strb        param_1,[r1,#local_a8+0xb0]             
ram:0003e392    f1e7            b           LAB_0003e378                            
                            LAB_0003e394:                 ;XREF[2,0]:   0003e2a4,0003e384
ram:0003e394    00f09ff8        bl          FUN_0003e4d6                            ;ulonglong FUN_0003e4d6(undefined4 pa...
ram:0003e398    8de7            b           LAB_0003e2b6                            
                            ;************************************************************************************************
                            ;*                                           FUNCTION                                           *
                            ;************************************************************************************************
                            ;undefined FUN_0003e39a(ushort * param_1, undefined4 param_2, undefined4 param_3, ushort * param_4)
          ;param_1       ushort *            r0                      
          ;param_2       undefined4          r1                      
          ;param_3       undefined4          r2                      
          ;param_4       ushort *            r3                      
                                                          ;XREF[0,1]:   0003e660
ram:0003e39a    10b5            push        {r4,lr}                                 
ram:0003e39c    0446            mov         r4,param_1                              
ram:0003e39e    fef7bcfb        bl          FUN_0003cb1a                            ;undefined FUN_0003cb1a(ushort * para...
ram:0003e3a2    ac48            ldr         param_1,[DAT_0003e654]                  ;= 200031E4h
ram:0003e3a4    2146            mov         param_2,r4                              
ram:0003e3a6    3038            subs        param_1,#0x30                           
ram:0003e3a8    fef7f8fc        bl          FUN_0003cd9c                            ;undefined FUN_0003cd9c(ushort * para...
ram:0003e3ac    2046            mov         param_1,r4                              
ram:0003e3ae    fff736ff        bl          FUN_0003e21e                            ;undefined FUN_0003e21e(ushort * para...
ram:0003e3b2    10bd            pop         {r4,pc}                                 
                            ;************************************************************************************************
                            ;*                                           FUNCTION                                           *
                            ;************************************************************************************************
                            ;undefined LAB_0003e3b4+1(void)
                                                          ;XREF[0,1]:   0003e678
ram:0003e3b4    10b5            push        {r4,lr}                                 
ram:0003e3b6    fef799ff        bl          FUN_0003d2ec                            ;undefined FUN_0003d2ec(void)
ram:0003e3ba    10bd            pop         {r4,pc}                                 
                            ;************************************************************************************************
                            ;*                                           FUNCTION                                           *
                            ;************************************************************************************************
                            ;int FUN_0003e3bc(void)
          ;local_10      undefined4         -10                      ;XREF[1,0]:   0003e49a
          ;local_14      undefined4         -14                      ;XREF[1,0]:   0003e49c
          ;local_18      undefined1         -18                      ;XREF[1,0]:   0003e496
          ;local_1a      undefined2         -1a                      ;XREF[1,0]:   0003e494
          ;local_1c      undefined1         -1c                      ;XREF[1,0]:   0003e492
          ;local_20      undefined4         -20                      ;XREF[3,0]:   0003e428,0003e468,0003e48a
          ;local_24      undefined4         -24                      ;XREF[4,1]:   0003e440,0003e44a,0003e464,0003e484,0003e44e
          ;local_28      undefined4         -28                      ;XREF[5,3]:   0003e43a,0003e442,0003e45e,0003e460,0003e48c
                                                                     ;             0003e412,0003e416,0003e446
                                                          ;XREF[1,0]:   0003dcb2
ram:0003e3bc    30b5            push        {r4,r5,lr}                              
ram:0003e3be    a64d            ldr         r5,[DAT_0003e658]                       ;= 20002C8Ch
ram:0003e3c0    87b0            sub         sp,#0x1c                                
ram:0003e3c2    0024            movs        r4,#0x0                                 
ram:0003e3c4    1c3d            subs        r5,#0x1c                                
ram:0003e3c6    2c70            strb        r4,[r5,#0x0]=>DAT_20002c70              
ram:0003e3c8    2c71            strb        r4,[r5,#0x4]=>DAT_20002c74              
ram:0003e3ca    1520            movs        r0,#0x15                                
ram:0003e3cc    00f078f8        bl          FUN_0003e4c0                            ;undefined FUN_0003e4c0(int param_1)
ram:0003e3d0    1820            movs        r0,#0x18                                
ram:0003e3d2    00f075f8        bl          FUN_0003e4c0                            ;undefined FUN_0003e4c0(int param_1)
ram:0003e3d6    1520            movs        r0,#0x15                                
ram:0003e3d8    00f078f8        bl          FUN_0003e4cc                            ;undefined FUN_0003e4cc(uint param_1)
ram:0003e3dc    1820            movs        r0,#0x18                                
ram:0003e3de    00f075f8        bl          FUN_0003e4cc                            ;undefined FUN_0003e4cc(uint param_1)
ram:0003e3e2    9f48            ldr         r0,[PTR_FUN_0003e39a+1_0003e660]        ;= 0003e39b
ram:0003e3e4    00f01ffd        bl          FUN_0003ee26                            ;undefined4 FUN_0003ee26(int param_1)
ram:0003e3e8    0028            cmp         r0,#0x0                                 
ram:0003e3ea    64d1            bne         FUN_0003e4b6                            
ram:0003e3ec    9d48            ldr         r0,[PTR_FUN_0003def6+1_0003e664]        ;= 0003def7
ram:0003e3ee    00f0e4fa        bl          FUN_0003e9ba                            ;undefined FUN_0003e9ba(undefined4 pa...
ram:0003e3f2    00f04ff9        bl          FUN_0003e694                            ;undefined4 FUN_0003e694(void)
ram:0003e3f6    0028            cmp         r0,#0x0                                 
ram:0003e3f8    5dd1            bne         FUN_0003e4b6                            
ram:0003e3fa    9648            ldr         r0,[DAT_0003e654]                       ;= 200031E4h
ram:0003e3fc    fdf7e2fe        bl          FUN_0003c1c4                            ;undefined4 FUN_0003c1c4(undefined4 *...
ram:0003e400    0028            cmp         r0,#0x0                                 
ram:0003e402    5ad0            beq         LAB_0003e4ba                            
ram:0003e404    6846            mov         r0,sp                                   
ram:0003e406    71df            svc         0x71                                    
ram:0003e408    0028            cmp         r0,#0x0                                 
ram:0003e40a    01d0            beq         LAB_0003e410                            
ram:0003e40c    fef76eff        bl          FUN_0003d2ec                            ;undefined FUN_0003d2ec(void)
                            LAB_0003e410:                 ;XREF[1,0]:   0003e40a
ram:0003e410    6946            mov         r1,sp                                   
ram:0003e412    4878            ldrb        r0,[r1,#local_28+0x29]                  
ram:0003e414    401c            adds        r0,r0,#0x1                              
ram:0003e416    4870            strb        r0,[r1,#local_28+0x29]                  
ram:0003e418    0020            movs        r0,#0x0                                 
ram:0003e41a    70df            svc         0x70                                    
ram:0003e41c    0028            cmp         r0,#0x0                                 
ram:0003e41e    01d0            beq         LAB_0003e424                            
ram:0003e420    fef764ff        bl          FUN_0003d2ec                            ;undefined FUN_0003d2ec(void)
                            LAB_0003e424:                 ;XREF[2,0]:   0003e41e,0003e4be
ram:0003e424    1120            movs        r0,#0x11                                
ram:0003e426    6946            mov         r1,sp                                   
ram:0003e428    0872            strb        r0,[r1,#local_20+0x28]                  
ram:0003e42a    0b22            movs        r2,#0xb                                 
ram:0003e42c    8ea1            adr         r1=>s_DFU_Tracke...,[s_DFU_Tracker_00...;= "DFU_Tracker"
ram:0003e42e    02a8            add         r0,sp,#0x8                              
ram:0003e430    7cdf            svc         0x7c                                    
ram:0003e432    0028            cmp         r0,#0x0                                 
ram:0003e434    01d0            beq         LAB_0003e43a                            
ram:0003e436    fef759ff        bl          FUN_0003d2ec                            ;undefined FUN_0003d2ec(void)
                            LAB_0003e43a:                 ;XREF[1,0]:   0003e434
ram:0003e43a    0094            str         r4,[sp,#0x0]=>local_28                  
ram:0003e43c    0c21            movs        r1,#0xc                                 
ram:0003e43e    6846            mov         r0,sp                                   
ram:0003e440    0194            str         r4,[sp,#local_24+0x28]                  
ram:0003e442    0180            strh        r1,[r0,#0x0]=>local_28                  
ram:0003e444    1821            movs        r1,#0x18                                
ram:0003e446    4180            strh        r1,[r0,#local_28+0x2a]                  
ram:0003e448    ff21            movs        r1,#0xff                                
ram:0003e44a    8480            strh        r4,[r0,#local_24+0x28]                  
ram:0003e44c    9131            adds        r1,#0x91                                
ram:0003e44e    c180            strh        r1,[r0,#local_24+0x2a]                  
ram:0003e450    7adf            svc         0x7a                                    
ram:0003e452    0028            cmp         r0,#0x0                                 
ram:0003e454    01d0            beq         LAB_0003e45a                            
ram:0003e456    fef749ff        bl          FUN_0003d2ec                            ;undefined FUN_0003d2ec(void)
                            LAB_0003e45a:                 ;XREF[1,0]:   0003e454
ram:0003e45a    0820            movs        r0,#0x8                                 
ram:0003e45c    6946            mov         r1,sp                                   
ram:0003e45e    0094            str         r4,[sp,#0x0]=>local_28                  
ram:0003e460    0880            strh        r0,[r1,#0x0]=>local_28                  
ram:0003e462    8448            ldr         r0,[PTR_FUN_0003e068+1_0003e674]        ;= 0003e069
ram:0003e464    0190            str         r0,[sp,#local_24+0x28]                  
ram:0003e466    8448            ldr         r0,[PTR_LAB_0003e3b4+1+1_0003e678]      ;= 0003e3b5
ram:0003e468    0290            str         r0,[sp,#local_20+0x28]                  
ram:0003e46a    7a48            ldr         r0,[DAT_0003e654]                       ;= 200031E4h
ram:0003e46c    3038            subs        r0,#0x30                                
ram:0003e46e    fef750fc        bl          FUN_0003cd12                            ;undefined4 * FUN_0003cd12(undefined2...
ram:0003e472    0028            cmp         r0,#0x0                                 
ram:0003e474    01d0            beq         LAB_0003e47a                            
ram:0003e476    fef739ff        bl          FUN_0003d2ec                            ;undefined FUN_0003d2ec(void)
                            LAB_0003e47a:                 ;XREF[1,0]:   0003e474
ram:0003e47a    1c21            movs        r1,#0x1c                                
ram:0003e47c    6846            mov         r0,sp                                   
ram:0003e47e    00f024fe        bl          FUN_0003f0ca                            ;undefined FUN_0003f0ca(undefined * p...
ram:0003e482    7e48            ldr         r0,[DAT_0003e67c]                       ;= 00000CCDh
ram:0003e484    0190            str         r0,[sp,#local_24+0x28]                  
ram:0003e486    0120            movs        r0,#0x1                                 
ram:0003e488    8003            lsls        r0,r0,#0xe                              
ram:0003e48a    0290            str         r0,[sp,#local_20+0x28]                  
ram:0003e48c    0094            str         r4,[sp,#0x0]=>local_28                  
ram:0003e48e    0321            movs        r1,#0x3                                 
ram:0003e490    6846            mov         r0,sp                                   
ram:0003e492    0173            strb        r1,[r0,#local_1c+0x28]                  
ram:0003e494    c481            strh        r4,[r0,#local_1a+0x28]                  
ram:0003e496    0474            strb        r4,[r0,#local_18+0x28]                  
ram:0003e498    7948            ldr         r0,[PTR_LAB_0003e018+1+1_0003e680]      ;= 0003e019
ram:0003e49a    0690            str         r0=>LAB_0003e018+1+1,[sp,#local_10+0x28]
ram:0003e49c    0594            str         r4,[sp,#local_14+0x28]                  
ram:0003e49e    6846            mov         r0,sp                                   
ram:0003e4a0    fef7e5fa        bl          FUN_0003ca6e                            ;undefined FUN_0003ca6e(undefined4 * ...
ram:0003e4a4    0028            cmp         r0,#0x0                                 
ram:0003e4a6    01d0            beq         LAB_0003e4ac                            
ram:0003e4a8    fef720ff        bl          FUN_0003d2ec                            ;undefined FUN_0003d2ec(void)
                            LAB_0003e4ac:                 ;XREF[1,0]:   0003e4a6
ram:0003e4ac    00f0b9f8        bl          FUN_0003e622                            ;undefined FUN_0003e622(void)
ram:0003e4b0    fff761fe        bl          FUN_0003e176                            ;undefined FUN_0003e176(undefined4 pa...
ram:0003e4b4    0020            movs        r0,#0x0                                 
                            ;************************************************************************************************
                            ;*                                           FUNCTION                                           *
                            ;************************************************************************************************
                            ;undefined FUN_0003e4b6(void)
                                                          ;XREF[5,0]:   0003e3ea,0003e3f8,0003e58a,0003e5b0
                                                          ;             0003e5c6
ram:0003e4b6    07b0            add         sp,#0x1c                                
ram:0003e4b8    30bd            pop         {r4,r5,pc}                              
                            LAB_0003e4ba:                 ;XREF[1,0]:   0003e402
ram:0003e4ba    0120            movs        r0,#0x1                                 
ram:0003e4bc    e870            strb        r0,[r5,#0x3]=>DAT_20002c73              
ram:0003e4be    b1e7            b           LAB_0003e424                            
                            ;************************************************************************************************
                            ;*                                           FUNCTION                                           *
                            ;************************************************************************************************
                            ;undefined FUN_0003e4c0(int param_1)
          ;param_1       int                 r0                      
                                                          ;XREF[2,0]:   0003e3cc,0003e3d2
ram:0003e4c0    704a            ldr         r2,[DAT_0003e684]                       ;= 50000700h
ram:0003e4c2    0321            movs        r1,#0x3                                 
ram:0003e4c4    8000            lsls        param_1,param_1,#0x2                    
ram:0003e4c6    8018            adds        param_1,param_1,r2                      
ram:0003e4c8    0160            str         r1,[param_1,#0x0]                       
ram:0003e4ca    7047            bx          lr                                      
                            ;************************************************************************************************
                            ;*                                           FUNCTION                                           *
                            ;************************************************************************************************
                            ;undefined FUN_0003e4cc(uint param_1)
          ;param_1       uint                r0                      
                                                          ;XREF[5,0]:   0003e050,0003e24a,0003e2cc,0003e3d8
                                                          ;             0003e3de
ram:0003e4cc    0121            movs        r1,#0x1                                 
ram:0003e4ce    8140            lsls        r1,param_1                              
ram:0003e4d0    6d48            ldr         param_1,[DAT_0003e688]                  ;= 50000500h
ram:0003e4d2    8160            str         r1,[param_1,#offset DAT_50000508 &0xff] 
ram:0003e4d4    7047            bx          lr                                      
                            ;************************************************************************************************
                            ;*                                           FUNCTION                                           *
                            ;************************************************************************************************
                            ;ulonglong FUN_0003e4d6(undefined4 param_1, uint param_2)
          ;param_1       undefined4          r0                      
          ;param_2       uint                r1                      
                                                          ;XREF[1,0]:   0003e394
ram:0003e4d6    70b5            push        {r4,r5,r6,lr}                           
ram:0003e4d8    5f4c            ldr         r4,[DAT_0003e658]                       ;= 20002C8Ch
ram:0003e4da    6c4d            ldr         r5,[DAT_0003e68c]                       ;= 0000FFFFh
ram:0003e4dc    1c3c            subs        r4,#0x1c                                
ram:0003e4de    e088            ldrh        param_1,[r4,#0x6]=>DAT_20002c76         
ram:0003e4e0    a842            cmp         param_1,r5                              
ram:0003e4e2    01d1            bne         LAB_0003e4e8                            
ram:0003e4e4    0820            movs        param_1,#0x8                            
                            LAB_0003e4e6:                 ;XREF[3,0]:   0003e4fa,0003e508,0003e520
ram:0003e4e6    70bd            pop         {r4,r5,r6,pc}                           
                            LAB_0003e4e8:                 ;XREF[1,0]:   0003e4e2
ram:0003e4e8    e178            ldrb        param_2,[r4,#0x3]=>DAT_20002c73         
ram:0003e4ea    0029            cmp         param_2,#0x0                            
ram:0003e4ec    1bd0            beq         LAB_0003e526                            
ram:0003e4ee    5949            ldr         param_2,[DAT_0003e654]                  ;= 200031E4h
ram:0003e4f0    0123            movs        r3,#0x1                                 
ram:0003e4f2    0822            movs        r2,#0x8                                 
ram:0003e4f4    3431            adds        param_2,#0x34                           
ram:0003e4f6    a9df            svc         0xa9                                    
ram:0003e4f8    0028            cmp         param_1,#0x0                            
ram:0003e4fa    f4d1            bne         LAB_0003e4e6                            
ram:0003e4fc    0223            movs        r3,#0x2                                 
ram:0003e4fe    0022            movs        r2,#0x0                                 
ram:0003e500    1146            mov         param_2,r2                              
ram:0003e502    e088            ldrh        param_1,[r4,#0x6]=>DAT_20002c76         
ram:0003e504    a9df            svc         0xa9                                    
ram:0003e506    0028            cmp         param_1,#0x0                            
ram:0003e508    edd1            bne         LAB_0003e4e6                            
ram:0003e50a    2a46            mov         r2,r5                                   
ram:0003e50c    0c21            movs        param_2,#0xc                            
ram:0003e50e    e088            ldrh        param_1,[r4,#0x6]=>DAT_20002c76         
ram:0003e510    a7df            svc         0xa7                                    
ram:0003e512    5f49            ldr         param_2,[DAT_0003e690]                  ;= 00003002h
ram:0003e514    8842            cmp         param_1,param_2                         
ram:0003e516    04d0            beq         LAB_0003e522                            
ram:0003e518    0828            cmp         param_1,#0x8                            
ram:0003e51a    02d0            beq         LAB_0003e522                            
ram:0003e51c    891c            adds        param_2,param_2,#0x2                    
ram:0003e51e    8842            cmp         param_1,param_2                         
ram:0003e520    e1d1            bne         LAB_0003e4e6                            
                            LAB_0003e522:                 ;XREF[2,0]:   0003e516,0003e51a
ram:0003e522    0020            movs        param_1,#0x0                            
ram:0003e524    70bd            pop         {r4,r5,r6,pc}                           
                            LAB_0003e526:                 ;XREF[1,0]:   0003e4ec
ram:0003e526    0023            movs        r3,#0x0                                 
ram:0003e528    1a46            mov         r2,r3                                   
ram:0003e52a    1946            mov         param_2,r3                              
ram:0003e52c    a9df            svc         0xa9                                    
ram:0003e52e    70bd            pop         {r4,r5,r6,pc}                           
                            ;************************************************************************************************
                            ;*                                           FUNCTION                                           *
                            ;************************************************************************************************
                            ;undefined FUN_0003e530(ushort * param_1, int param_2)
          ;param_1       ushort *            r0                      
          ;param_2       int                 r1                      
                                                          ;XREF[2,0]:   0003dfa6,0003dfd4
ram:0003e530    10b5            push        {r4,lr}                                 
ram:0003e532    0a46            mov         r2,param_2                              
ram:0003e534    0446            mov         r4,param_1                              
ram:0003e536    0321            movs        param_2,#0x3                            
ram:0003e538    1046            mov         param_1,r2                              
ram:0003e53a    fff7c1fc        bl          FUN_0003dec0                            ;undefined4 FUN_0003dec0(int param_1,...
ram:0003e53e    0246            mov         r2,param_1                              
ram:0003e540    0321            movs        param_2,#0x3                            
ram:0003e542    2046            mov         param_1,r4                              
ram:0003e544    fef742fb        bl          FUN_0003cbcc                            ;undefined8 FUN_0003cbcc(ushort * par...
ram:0003e548    0028            cmp         param_1,#0x0                            
ram:0003e54a    01d0            beq         LAB_0003e550                            
ram:0003e54c    fef7cefe        bl          FUN_0003d2ec                            ;undefined FUN_0003d2ec(void)
                            LAB_0003e550:                 ;XREF[1,0]:   0003e54a
ram:0003e550    10bd            pop         {r4,pc}                                 
                            ;************************************************************************************************
                            ;*                                           FUNCTION                                           *
                            ;************************************************************************************************
                            ;undefined FUN_0003e552(ushort * param_1, int param_2)
          ;param_1       ushort *            r0                      
          ;param_2       int                 r1                      
          ;local_10      undefined4         -10                      ;XREF[1,0]:   0003e578
          ;local_14      undefined4         -14                      ;XREF[1,0]:   0003e57a
          ;local_18      undefined4         -18                      ;XREF[1,0]:   0003e574
          ;local_1c      undefined4         -1c                      ;XREF[2,0]:   0003e560,0003e5a6
          ;local_20      undefined4         -20                      ;XREF[2,0]:   0003e55e,0003e59c
          ;local_24      undefined4         -24                      ;XREF[2,0]:   0003e55c,0003e594
          ;local_28      undefined4         -28                      ;XREF[2,0]:   0003e55a,0003e56a
ram:0003e552    30b5            push        {r4,r5,lr}                              
ram:0003e554    0546            mov         r5,param_1                              
ram:0003e556    87b0            sub         sp,#0x1c                                
ram:0003e558    0020            movs        param_1,#0x0                            
ram:0003e55a    0090            str         param_1,[sp,#0x0]=>local_28             
ram:0003e55c    0190            str         param_1,[sp,#local_24+0x28]             
ram:0003e55e    0290            str         param_1,[sp,#local_20+0x28]             
ram:0003e560    0390            str         param_1,[sp,#local_1c+0x28]             
ram:0003e562    3d48            ldr         param_1,[DAT_0003e658]                  ;= 20002C8Ch
ram:0003e564    6a46            mov         r2,sp                                   
ram:0003e566    1c38            subs        param_1,#0x1c                           
ram:0003e568    4079            ldrb        param_1,[param_1,#0x5]=>DAT_20002c75    
ram:0003e56a    1070            strb        param_1,[r2,#0x0]=>local_28             
ram:0003e56c    3b4a            ldr         r2,[PTR_DAT_0003e65c]                   ;= 0003f1c0
ram:0003e56e    0c3a            subs        r2,#0xc                                 
ram:0003e570    1068            ldr         param_1,[r2,#0x0]=>DAT_0003f1b4         ;= 00000003h
ram:0003e572    9268            ldr         r2,[r2,#0x8]=>DAT_0003f1bc              
ram:0003e574    0490            str         param_1,[sp,#local_18+0x28]             
ram:0003e576    6846            mov         param_1,sp                              
ram:0003e578    0692            str         r2,[sp,#local_10+0x28]                  
ram:0003e57a    0590            str         param_1,[sp,#local_14+0x28]             
ram:0003e57c    087a            ldrb        param_1,[param_2,#0x8]                  
ram:0003e57e    0c28            cmp         param_1,#0xc                            
ram:0003e580    04d0            beq         LAB_0003e58c                            
ram:0003e582    0322            movs        r2,#0x3                                 
ram:0003e584    19e0            b           LAB_0003e5ba                            
                            LAB_0003e586:                 ;XREF[1,0]:   0003e5c4
ram:0003e586    fef7b1fe        bl          FUN_0003d2ec                            ;undefined FUN_0003d2ec(void)
ram:0003e58a    94e7            b           FUN_0003e4b6                            
                            LAB_0003e58c:                 ;XREF[1,0]:   0003e580
ram:0003e58c    4c68            ldr         r4,[param_2,#0x4]                       
ram:0003e58e    2046            mov         param_1,r4                              
ram:0003e590    00f056f8        bl          FUN_0003e640                            ;uint FUN_0003e640(int param_1, undef...
ram:0003e594    0190            str         param_1,[sp,#local_24+0x28]             
ram:0003e596    201d            adds        param_1,r4,#0x4                         
ram:0003e598    00f052f8        bl          FUN_0003e640                            ;uint FUN_0003e640(int param_1, undef...
ram:0003e59c    0290            str         param_1,[sp,#local_20+0x28]             
ram:0003e59e    2046            mov         param_1,r4                              
ram:0003e5a0    0830            adds        param_1,#0x8                            
ram:0003e5a2    00f04df8        bl          FUN_0003e640                            ;uint FUN_0003e640(int param_1, undef...
ram:0003e5a6    0390            str         param_1,[sp,#local_1c+0x28]             
ram:0003e5a8    04a8            add         param_1,sp,#0x10                        
ram:0003e5aa    00f009fa        bl          FUN_0003e9c0                            ;int FUN_0003e9c0(int param_1)
ram:0003e5ae    0028            cmp         param_1,#0x0                            
ram:0003e5b0    81d0            beq         FUN_0003e4b6                            
ram:0003e5b2    0121            movs        param_2,#0x1                            
ram:0003e5b4    fff784fc        bl          FUN_0003dec0                            ;undefined4 FUN_0003dec0(int param_1,...
ram:0003e5b8    0246            mov         r2,param_1                              
                            LAB_0003e5ba:                 ;XREF[1,0]:   0003e584
ram:0003e5ba    0121            movs        param_2,#0x1                            
ram:0003e5bc    2846            mov         param_1,r5                              
ram:0003e5be    fef705fb        bl          FUN_0003cbcc                            ;undefined8 FUN_0003cbcc(ushort * par...
ram:0003e5c2    0028            cmp         param_1,#0x0                            
ram:0003e5c4    dfd1            bne         LAB_0003e586                            
ram:0003e5c6    76e7            b           FUN_0003e4b6                            
ram:0003e5c8    feb5            push        {r1,r2,r3,r4,r5,r6,r7,lr}               
ram:0003e5ca    0446            mov         r4,r0                                   
ram:0003e5cc    087a            ldrb        r0,[r1,#0x8]                            
ram:0003e5ce    8207            lsls        r2,r0,#0x1e                             
ram:0003e5d0    0ed0            beq         LAB_0003e5f0                            
ram:0003e5d2    8207            lsls        r2,r0,#0x1e                             
ram:0003e5d4    920f            lsrs        r2,r2,#0x1e                             
ram:0003e5d6    0423            movs        r3,#0x4                                 
ram:0003e5d8    9b1a            subs        r3,r3,r2                                
ram:0003e5da    0022            movs        r2,#0x0                                 
ram:0003e5dc    1546            mov         r5,r2                                   
ram:0003e5de    04e0            b           LAB_0003e5ea                            
                            ;************************************************************************************************
                            ;*                                           FUNCTION                                           *
                            ;************************************************************************************************
                            ;undefined FUN_0003e5e0(uint param_1, int param_2, uint param_3, uint param_4, undefined4 param_5, undefined4 param_6, undefined4 param_7)
          ;param_1       uint                r0                      
          ;param_2       int                 r1                      
          ;param_3       uint                r2                      
          ;param_4       uint                r3                      
          ;param_5       undefined4           0                      ;XREF[1,0]:   0003e5f2
          ;param_6       undefined4           4                      ;XREF[1,0]:   0003e5fc
          ;param_7       undefined4           8                      ;XREF[1,0]:   0003e5f6
                                                          ;XREF[1,0]:   0003e5ec
ram:0003e5e0    4e68            ldr         r6,[param_2,#0x4]                       
ram:0003e5e2    3554            strb        r5,[r6,param_1]                         
ram:0003e5e4    401c            adds        param_1,param_1,#0x1                    
ram:0003e5e6    c0b2            uxtb        param_1,param_1                         
ram:0003e5e8    521c            adds        param_3,param_3,#0x1                    
                            LAB_0003e5ea:                 ;XREF[1,0]:   0003e5de
ram:0003e5ea    9a42            cmp         param_3,param_4                         
ram:0003e5ec    f8d3            bcc         FUN_0003e5e0                            
ram:0003e5ee    0872            strb        param_1,[param_2,#0x8]                  
                            LAB_0003e5f0:                 ;XREF[1,0]:   0003e5d0
ram:0003e5f0    0120            movs        param_1,#0x1                            
ram:0003e5f2    0090            str         param_1,[sp,#0x0]=>param_5              
ram:0003e5f4    4868            ldr         param_1,[param_2,#0x4]                  
ram:0003e5f6    0290            str         param_1,[sp,#param_7]                   
ram:0003e5f8    087a            ldrb        param_1,[param_2,#0x8]                  
ram:0003e5fa    8008            lsrs        param_1,param_1,#0x2                    
ram:0003e5fc    0190            str         param_1,[sp,#param_6]                   
ram:0003e5fe    6846            mov         param_1,sp                              
ram:0003e600    00f071fa        bl          FUN_0003eae6                            ;int FUN_0003eae6(int param_1, undefi...
ram:0003e604    0028            cmp         param_1,#0x0                            
ram:0003e606    0bd0            beq         LAB_0003e620                            
ram:0003e608    0221            movs        param_2,#0x2                            
ram:0003e60a    fff759fc        bl          FUN_0003dec0                            ;undefined4 FUN_0003dec0(int param_1,...
ram:0003e60e    0246            mov         param_3,param_1                         
ram:0003e610    0221            movs        param_2,#0x2                            
ram:0003e612    2046            mov         param_1,r4                              
ram:0003e614    fef7dafa        bl          FUN_0003cbcc                            ;undefined8 FUN_0003cbcc(ushort * par...
ram:0003e618    0028            cmp         param_1,#0x0                            
ram:0003e61a    01d0            beq         LAB_0003e620                            
ram:0003e61c    fef766fe        bl          FUN_0003d2ec                            ;undefined FUN_0003d2ec(void)
                            LAB_0003e620:                 ;XREF[2,0]:   0003e606,0003e61a
ram:0003e620    febd            pop         {param_2,param_3,param_4,r4,r5,r6,r7,pc}
                            ;************************************************************************************************
                            ;*                                           FUNCTION                                           *
                            ;************************************************************************************************
                            ;undefined FUN_0003e622(void)
                                                          ;XREF[1,0]:   0003e4ac
ram:0003e622    0d49            ldr         r1,[DAT_0003e658]                       ;= 20002C8Ch
ram:0003e624    8122            movs        r2,#0x81                                
ram:0003e626    0878            ldrb        r0,[r1,#0x0]=>DAT_20002c8c              
ram:0003e628    4008            lsrs        r0,r0,#0x1                              
ram:0003e62a    4000            lsls        r0,r0,#0x1                              
ram:0003e62c    1040            ands        r0,r2                                   
ram:0003e62e    3030            adds        r0,#0x30                                
ram:0003e630    4006            lsls        r0,r0,#0x19                             
ram:0003e632    400e            lsrs        r0,r0,#0x19                             
ram:0003e634    0870            strb        r0,[r1,#0x0]=>DAT_20002c8c              
ram:0003e636    0720            movs        r0,#0x7                                 
ram:0003e638    4870            strb        r0,[r1,#0x1]=>DAT_20002c8d              
ram:0003e63a    1020            movs        r0,#0x10                                
ram:0003e63c    8870            strb        r0,[r1,#0x2]=>DAT_20002c8e              
ram:0003e63e    7047            bx          lr                                      
                            ;************************************************************************************************
                            ;*                                           FUNCTION                                           *
                            ;************************************************************************************************
                            ;uint FUN_0003e640(int param_1, undefined4 param_2, uint param_3)
          ;param_1       int                 r0                      
          ;param_2       undefined4          r1                      
          ;param_3       uint                r2                      
                                                          ;XREF[3,0]:   0003e590,0003e598,0003e5a2
ram:0003e640    10b5            push        {r4,lr}                                 
ram:0003e642    0446            mov         r4,param_1                              
ram:0003e644    00f059fd        bl          FUN_0003f0fa                            ;uint FUN_0003f0fa(int param_1, undef...
ram:0003e648    0002            lsls        param_1,param_1,#0x8                    
ram:0003e64a    e178            ldrb        param_2,[r4,#0x3]                       
ram:0003e64c    000a            lsrs        param_1,param_1,#0x8                    
ram:0003e64e    0906            lsls        param_2,param_2,#0x18                   
ram:0003e650    0843            orrs        param_1,param_2                         
ram:0003e652    10bd            pop         {r4,pc}                                 
                            DAT_0003e654:                 ;XREF[5,0]:   0003e30a,0003e3a2,0003e3fa,0003e46a
                                                          ;             0003e4ee
ram:0003e654    e4310020        undefined4  200031E4h                               
                            DAT_0003e658:                 ;XREF[5,0]:   0003e330,0003e3be,0003e4d8,0003e562
                                                          ;             0003e622
ram:0003e658    8c2c0020        undefined4  20002C8Ch                               
                            PTR_DAT_0003e65c:             ;XREF[2,0]:   0003e33e,0003e56c
ram:0003e65c    c0f10300        addr        DAT_0003f1c0                            ;= 05h
                            PTR_FUN_0003e39a+1_0003e660:  ;XREF[1,0]:   0003e3e2
ram:0003e660    9be30300        addr        FUN_0003e39a+1                          
                            PTR_FUN_0003def6+1_0003e664:  ;XREF[1,0]:   0003e3ec
ram:0003e664    f7de0300        addr        FUN_0003def6+1                          
                            s_DFU_Tracker_0003e668:       ;XREF[2,0]:   0003e42c,0003e42c
ram:0003e668    4446555f5...    ds          "DFU_Tracker"                           
                            PTR_FUN_0003e068+1_0003e674:  ;XREF[1,0]:   0003e462
ram:0003e674    69e00300        addr        FUN_0003e068+1                          
                            PTR_LAB_0003e3b4+1+1_0003e678:;XREF[1,0]:   0003e466
ram:0003e678    b5e30300        addr        LAB_0003e3b4+1+1                        
                            DAT_0003e67c:                 ;XREF[1,0]:   0003e482
ram:0003e67c    cd0c0000        undefined4  00000CCDh                               
                            PTR_LAB_0003e018+1+1_0003e680:;XREF[1,0]:   0003e498
ram:0003e680    19e00300        addr        LAB_0003e018+1+1                        
                            DAT_0003e684:                 ;XREF[1,0]:   0003e4c0
ram:0003e684    00070050        undefined4  50000700h                               
                            DAT_0003e688:                 ;XREF[1,0]:   0003e4d0
ram:0003e688    00050050        undefined4  50000500h                               
                            DAT_0003e68c:                 ;XREF[1,0]:   0003e4da
ram:0003e68c    ffff0000        undefined4  0000FFFFh                               
                            DAT_0003e690:                 ;XREF[1,0]:   0003e512
ram:0003e690    02300000        undefined4  00003002h                               
                            ;************************************************************************************************
                            ;*                                           FUNCTION                                           *
                            ;************************************************************************************************
                            ;undefined4 FUN_0003e694(void)
                                                          ;XREF[1,0]:   0003e3f2
ram:0003e694    4b48            ldr         r0,[DAT_0003e7c4]                       ;= 20002C91h
ram:0003e696    0021            movs        r1,#0x0                                 
ram:0003e698    0170            strb        r1,[r0,#0x0]=>DAT_20002c91              
ram:0003e69a    4c48            ldr         r0,[DAT_0003e7cc]                       ;= 20003340h
ram:0003e69c    4a4a            ldr         r2,[DAT_0003e7c8]                       ;= 20003220h
ram:0003e69e    0260            str         r2,[r0,#0x0]=>DAT_20003340              
ram:0003e6a0    8160            str         r1,[r0,#0x8]=>DAT_20003348              
ram:0003e6a2    c160            str         r1,[r0,#0xc]=>DAT_2000334c              
ram:0003e6a4    0161            str         r1,[r0,#0x10]=>DAT_20003350             
ram:0003e6a6    0822            movs        r2,#0x8                                 
ram:0003e6a8    4161            str         r1,[r0,#0x14]=>DAT_20003354             
ram:0003e6aa    4260            str         r2,[r0,#0x4]=>DAT_20003344              
ram:0003e6ac    8161            str         r1,[r0,#0x18]=>DAT_20003358             
ram:0003e6ae    0846            mov         r0,r1                                   
ram:0003e6b0    7047            bx          lr                                      
                            ;************************************************************************************************
                            ;*                                           FUNCTION                                           *
                            ;************************************************************************************************
                            ;undefined4 FUN_0003e6b2(uint param_1, int * param_2)
          ;param_1       uint                r0                      
          ;param_2       int *               r1                      
                                                          ;XREF[1,0]:   0003df78
ram:0003e6b2    10b5            push        {r4,lr}                                 
ram:0003e6b4    0029            cmp         param_2,#0x0                            
ram:0003e6b6    1dd0            beq         LAB_0003e6f4                            
ram:0003e6b8    0022            movs        r2,#0x0                                 
ram:0003e6ba    0a60            str         r2,[param_2,#0x0]                       
ram:0003e6bc    434a            ldr         r2,[DAT_0003e7cc]                       ;= 20003340h
ram:0003e6be    5368            ldr         r3,[r2,#0x4]=>DAT_20003344              
ram:0003e6c0    002b            cmp         r3,#0x0                                 
ram:0003e6c2    1bd0            beq         LAB_0003e6fc                            
ram:0003e6c4    2028            cmp         param_1,#0x20                           
ram:0003e6c6    17d8            bhi         LAB_0003e6f8                            
ram:0003e6c8    5b1e            subs        r3,r3,#0x1                              
ram:0003e6ca    5360            str         r3,[r2,#0x4]=>DAT_20003344              
ram:0003e6cc    d068            ldr         param_1,[r2,#0xc]=>DAT_2000334c         
ram:0003e6ce    2423            movs        r3,#0x24                                
ram:0003e6d0    401c            adds        param_1,param_1,#0x1                    
ram:0003e6d2    d060            str         param_1,[r2,#0xc]=>DAT_2000334c         
ram:0003e6d4    1069            ldr         param_1,[r2,#0x10]=>DAT_20003350        
ram:0003e6d6    1468            ldr         r4,[r2,#0x0]=>DAT_20003340              
ram:0003e6d8    4343            muls        r3,param_1                              
ram:0003e6da    e318            adds        r3,r4,r3                                
ram:0003e6dc    0b60            str         r3,[param_2,#0x0]                       
ram:0003e6de    0123            movs        r3,#0x1                                 
ram:0003e6e0    8340            lsls        r3,param_1                              
ram:0003e6e2    9169            ldr         param_2,[r2,#0x18]=>DAT_20003358        
ram:0003e6e4    401c            adds        param_1,param_1,#0x1                    
ram:0003e6e6    1943            orrs        param_2,r3                              
ram:0003e6e8    4007            lsls        param_1,param_1,#0x1d                   
ram:0003e6ea    400f            lsrs        param_1,param_1,#0x1d                   
ram:0003e6ec    9161            str         param_2,[r2,#0x18]=>DAT_20003358        
ram:0003e6ee    1061            str         param_1,[r2,#0x10]=>DAT_20003350        
ram:0003e6f0    0020            movs        param_1,#0x0                            
ram:0003e6f2    10bd            pop         {r4,pc}                                 
                            LAB_0003e6f4:                 ;XREF[1,0]:   0003e6b6
ram:0003e6f4    0e20            movs        param_1,#0xe                            
ram:0003e6f6    10bd            pop         {r4,pc}                                 
                            LAB_0003e6f8:                 ;XREF[1,0]:   0003e6c6
ram:0003e6f8    0c20            movs        param_1,#0xc                            
ram:0003e6fa    10bd            pop         {r4,pc}                                 
                            LAB_0003e6fc:                 ;XREF[1,0]:   0003e6c2
ram:0003e6fc    0420            movs        param_1,#0x4                            
ram:0003e6fe    10bd            pop         {r4,pc}                                 
                            ;************************************************************************************************
                            ;*                                           FUNCTION                                           *
                            ;************************************************************************************************
                            ;undefined4 FUN_0003e700(int param_1)
          ;param_1       int                 r0                      
                                                          ;XREF[2,0]:   0003df1a,0003dfca
ram:0003e700    f0b5            push        {r4,r5,r6,r7,lr}                        
ram:0003e702    324a            ldr         r2,[DAT_0003e7cc]                       ;= 20003340h
ram:0003e704    0646            mov         r6,param_1                              
ram:0003e706    9168            ldr         r1,[r2,#0x8]=>DAT_20003348              
ram:0003e708    0029            cmp         r1,#0x0                                 
ram:0003e70a    2ad0            beq         LAB_0003e762                            
ram:0003e70c    5769            ldr         r7,[r2,#0x14]=>DAT_20003354             
ram:0003e70e    1020            movs        param_1,#0x10                           
ram:0003e710    791a            subs        r1,r7,r1                                
ram:0003e712    4907            lsls        r1,r1,#0x1d                             
ram:0003e714    490f            lsrs        r1,r1,#0x1d                             
ram:0003e716    1468            ldr         r4,[r2,#0x0]=>DAT_20003340              
ram:0003e718    0b46            mov         r3,r1                                   
                            LAB_0003e71a:                 ;XREF[1,0]:   0003e73a
ram:0003e71a    2425            movs        r5,#0x24                                
ram:0003e71c    4d43            muls        r5,r1                                   
ram:0003e71e    6519            adds        r5,r4,r5                                
ram:0003e720    b542            cmp         r5,r6                                   
ram:0003e722    06d1            bne         LAB_0003e732                            
ram:0003e724    0124            movs        r4,#0x1                                 
ram:0003e726    9569            ldr         r5,[r2,#0x18]=>DAT_20003358             
ram:0003e728    8c40            lsls        r4,r1                                   
ram:0003e72a    6540            eors        r5,r4                                   
ram:0003e72c    0020            movs        param_1,#0x0                            
ram:0003e72e    9561            str         r5,[r2,#0x18]=>DAT_20003358             
ram:0003e730    04e0            b           LAB_0003e73c                            
                            LAB_0003e732:                 ;XREF[1,0]:   0003e722
ram:0003e732    491c            adds        r1,r1,#0x1                              
ram:0003e734    4907            lsls        r1,r1,#0x1d                             
ram:0003e736    490f            lsrs        r1,r1,#0x1d                             
ram:0003e738    8f42            cmp         r7,r1                                   
ram:0003e73a    eed1            bne         LAB_0003e71a                            
                            LAB_0003e73c:                 ;XREF[1,0]:   0003e730
ram:0003e73c    491c            adds        r1,r1,#0x1                              
ram:0003e73e    4e07            lsls        r6,r1,#0x1d                             
ram:0003e740    760f            lsrs        r6,r6,#0x1d                             
ram:0003e742    9569            ldr         r5,[r2,#0x18]=>DAT_20003358             
ram:0003e744    0121            movs        r1,#0x1                                 
                            LAB_0003e746:                 ;XREF[1,0]:   0003e760
ram:0003e746    0c46            mov         r4,r1                                   
ram:0003e748    9c40            lsls        r4,r3                                   
ram:0003e74a    2542            tst         r5,r4                                   
ram:0003e74c    0ad1            bne         LAB_0003e764                            
ram:0003e74e    9368            ldr         r3,[r2,#0x8]=>DAT_20003348              
ram:0003e750    002b            cmp         r3,#0x0                                 
ram:0003e752    07d0            beq         LAB_0003e764                            
ram:0003e754    5b1e            subs        r3,r3,#0x1                              
ram:0003e756    9360            str         r3,[r2,#0x8]=>DAT_20003348              
ram:0003e758    5368            ldr         r3,[r2,#0x4]=>DAT_20003344              
ram:0003e75a    5b1c            adds        r3,r3,#0x1                              
ram:0003e75c    5360            str         r3,[r2,#0x4]=>DAT_20003344              
ram:0003e75e    3346            mov         r3,r6                                   
ram:0003e760    f1e7            b           LAB_0003e746                            
                            LAB_0003e762:                 ;XREF[1,0]:   0003e70a
ram:0003e762    0420            movs        param_1,#0x4                            
                            LAB_0003e764:                 ;XREF[2,0]:   0003e74c,0003e752
ram:0003e764    f0bd            pop         {r4,r5,r6,r7,pc}                        
                            ;************************************************************************************************
                            ;*                                           FUNCTION                                           *
                            ;************************************************************************************************
                            ;undefined4 FUN_0003e766(undefined4 param_1)
          ;param_1       undefined4          r0                      
                                                          ;XREF[1,0]:   0003df8e
ram:0003e766    194a            ldr         r2,[DAT_0003e7cc]                       ;= 20003340h
ram:0003e768    2423            movs        r3,#0x24                                
ram:0003e76a    117c            ldrb        r1,[r2,#0x10]=>DAT_20003350             
ram:0003e76c    1268            ldr         r2,[r2,#0x0]=>DAT_20003340              
ram:0003e76e    491e            subs        r1,r1,#0x1                              
ram:0003e770    4907            lsls        r1,r1,#0x1d                             
ram:0003e772    490f            lsrs        r1,r1,#0x1d                             
ram:0003e774    5943            muls        r1,r3                                   
ram:0003e776    2031            adds        r1,#0x20                                
ram:0003e778    5050            str         param_1,[r2,r1]                         
ram:0003e77a    0020            movs        param_1,#0x0                            
ram:0003e77c    7047            bx          lr                                      
                            ;************************************************************************************************
                            ;*                                           FUNCTION                                           *
                            ;************************************************************************************************
                            ;undefined4 FUN_0003e77e(int * param_1, undefined4 * param_2)
          ;param_1       int *               r0                      
          ;param_2       undefined4 *        r1                      
                                                          ;XREF[1,0]:   0003df9c
ram:0003e77e    70b5            push        {r4,r5,r6,lr}                           
ram:0003e780    0028            cmp         param_1,#0x0                            
ram:0003e782    1ad0            beq         LAB_0003e7ba                            
ram:0003e784    0029            cmp         param_2,#0x0                            
ram:0003e786    18d0            beq         LAB_0003e7ba                            
ram:0003e788    104a            ldr         r2,[DAT_0003e7cc]                       ;= 20003340h
ram:0003e78a    d368            ldr         r3,[r2,#0xc]=>DAT_2000334c              
ram:0003e78c    002b            cmp         r3,#0x0                                 
ram:0003e78e    16d0            beq         LAB_0003e7be                            
ram:0003e790    5b1e            subs        r3,r3,#0x1                              
ram:0003e792    d360            str         r3,[r2,#0xc]=>DAT_2000334c              
ram:0003e794    9368            ldr         r3,[r2,#0x8]=>DAT_20003348              
ram:0003e796    2426            movs        r6,#0x24                                
ram:0003e798    5b1c            adds        r3,r3,#0x1                              
ram:0003e79a    9360            str         r3,[r2,#0x8]=>DAT_20003348              
ram:0003e79c    5369            ldr         r3,[r2,#0x14]=>DAT_20003354             
ram:0003e79e    1568            ldr         r5,[r2,#0x0]=>DAT_20003340              
ram:0003e7a0    1c46            mov         r4,r3                                   
ram:0003e7a2    7343            muls        r3,r6                                   
ram:0003e7a4    ee18            adds        r6,r5,r3                                
ram:0003e7a6    2033            adds        r3,#0x20                                
ram:0003e7a8    0660            str         r6,[param_1,#0x0]                       
ram:0003e7aa    e858            ldr         param_1,[r5,r3]                         
ram:0003e7ac    641c            adds        r4,r4,#0x1                              
ram:0003e7ae    0860            str         param_1,[param_2,#0x0]                  
ram:0003e7b0    6007            lsls        param_1,r4,#0x1d                        
ram:0003e7b2    400f            lsrs        param_1,param_1,#0x1d                   
ram:0003e7b4    5061            str         param_1,[r2,#0x14]=>DAT_20003354        
ram:0003e7b6    0020            movs        param_1,#0x0                            
ram:0003e7b8    70bd            pop         {r4,r5,r6,pc}                           
                            LAB_0003e7ba:                 ;XREF[2,0]:   0003e782,0003e786
ram:0003e7ba    0e20            movs        param_1,#0xe                            
ram:0003e7bc    70bd            pop         {r4,r5,r6,pc}                           
                            LAB_0003e7be:                 ;XREF[1,0]:   0003e78e
ram:0003e7be    0420            movs        param_1,#0x4                            
ram:0003e7c0    70bd            pop         {r4,r5,r6,pc}                           
ram:0003e7c2    0000            movs        r0,r0                                   
                            DAT_0003e7c4:                 ;XREF[1,0]:   0003e694
ram:0003e7c4    912c0020        undefined4  20002C91h                               
                            DAT_0003e7c8:                 ;XREF[1,0]:   0003e69c
ram:0003e7c8    20320020        undefined4  20003220h                               
                            DAT_0003e7cc:                 ;XREF[5,0]:   0003e69a,0003e6bc,0003e702,0003e766
                                                          ;             0003e788
ram:0003e7cc    40330020        undefined4  20003340h                               
                            ;************************************************************************************************
                            ;*                                           FUNCTION                                           *
                            ;************************************************************************************************
                            ;undefined FUN_0003e7d0(undefined4 param_1, int param_2, int param_3, undefined4 param_4)
          ;param_1       undefined4          r0                      
          ;param_2       int                 r1                      
          ;param_3       int                 r2                      
          ;param_4       undefined4          r3                      
ram:0003e7d0    70b5            push        {r4,r5,r6,lr}                           
ram:0003e7d2    ff4c            ldr         r4,[DAT_0003ebd0]                       ;= 20002C98h
ram:0003e7d4    1e46            mov         r6,param_4                              
ram:0003e7d6    6078            ldrb        param_1,[r4,#0x1]=>DAT_20002c99         
ram:0003e7d8    1546            mov         r5,param_3                              
ram:0003e7da    0129            cmp         param_2,#0x1                            
ram:0003e7dc    02d0            beq         LAB_0003e7e4                            
ram:0003e7de    0329            cmp         param_2,#0x3                            
ram:0003e7e0    16d1            bne         LAB_0003e810                            
ram:0003e7e2    08e0            b           LAB_0003e7f6                            
                            LAB_0003e7e4:                 ;XREF[1,0]:   0003e7dc
ram:0003e7e4    0528            cmp         param_1,#0x5                            
ram:0003e7e6    13d1            bne         LAB_0003e810                            
ram:0003e7e8    6369            ldr         param_4,[r4,#0x14]=>DAT_20002cac        
ram:0003e7ea    002b            cmp         param_4,#0x0                            
ram:0003e7ec    10d0            beq         LAB_0003e810                            
ram:0003e7ee    3246            mov         param_3,r6                              
ram:0003e7f0    2946            mov         param_2,r5                              
ram:0003e7f2    0420            movs        param_1,#0x4                            
ram:0003e7f4    0be0            b           LAB_0003e80e                            
                            LAB_0003e7f6:                 ;XREF[1,0]:   0003e7e2
ram:0003e7f6    0228            cmp         param_1,#0x2                            
ram:0003e7f8    0ad1            bne         LAB_0003e810                            
ram:0003e7fa    f648            ldr         param_1,[DAT_0003ebd4]                  ;= 200033CCh
ram:0003e7fc    4068            ldr         param_1,[param_1,#0x4]=>DAT_200033d0    
ram:0003e7fe    8047            blx         param_1                                 
ram:0003e800    0320            movs        param_1,#0x3                            
ram:0003e802    6070            strb        param_1,[r4,#0x1]=>DAT_20002c99         
ram:0003e804    6369            ldr         param_4,[r4,#0x14]=>DAT_20002cac        
ram:0003e806    002b            cmp         param_4,#0x0                            
ram:0003e808    02d0            beq         LAB_0003e810                            
ram:0003e80a    3246            mov         param_3,r6                              
ram:0003e80c    2946            mov         param_2,r5                              
                            LAB_0003e80e:                 ;XREF[1,0]:   0003e7f4
ram:0003e80e    9847            blx         param_4                                 
                            LAB_0003e810:                 ;XREF[5,0]:   0003e7e0,0003e7e6,0003e7ec,0003e7f8
                                                          ;             0003e808
ram:0003e810    2800            movs        param_1,r5                              
ram:0003e812    01d0            beq         LAB_0003e818                            
ram:0003e814    fef76afd        bl          FUN_0003d2ec                            ;undefined FUN_0003d2ec(void)
                            LAB_0003e818:                 ;XREF[1,0]:   0003e812
ram:0003e818    70bd            pop         {r4,r5,r6,pc}                           
                            ;************************************************************************************************
                            ;*                                           FUNCTION                                           *
                            ;************************************************************************************************
                            ;undefined FUN_0003e81a(void)
          ;local_c       undefined4          -c                      ;XREF[1,0]:   0003e82a
          ;local_1c      undefined4         -1c                      ;XREF[2,0]:   0003e828,0003e830
          ;local_20      undefined4         -20                      ;XREF[1,0]:   0003e82c
                                                          ;XREF[0,1]:   0003ebdc
ram:0003e81a    00b5            push        {lr}                                    
ram:0003e81c    ec49            ldr         r1,[DAT_0003ebd0]                       ;= 20002C98h
ram:0003e81e    87b0            sub         sp,#0x1c                                
ram:0003e820    0120            movs        r0,#0x1                                 
ram:0003e822    0870            strb        r0,[r1,#0x0]=>DAT_20002c98              
ram:0003e824    0520            movs        r0,#0x5                                 
ram:0003e826    6946            mov         r1,sp                                   
ram:0003e828    0871            strb        r0,[r1,#local_1c+0x20]                  
ram:0003e82a    0598            ldr         r0,[sp,#local_c+0x20]                   
ram:0003e82c    0090            str         r0,[sp,#0x0]=>local_20                  
ram:0003e82e    01a8            add         r0,sp,#0x4                              
ram:0003e830    0fc8            ldmia       r0=>local_1c,{r0,r1,r2,r3}              
ram:0003e832    fff7baf9        bl          FUN_0003dbaa                            ;undefined FUN_0003dbaa(uint param_1,...
                            ;************************************************************************************************
                            ;*                                           FUNCTION                                           *
                            ;************************************************************************************************
                            ;undefined FUN_0003e836(void)
                                                          ;XREF[4,0]:   0003e8ac,0003e8ea,0003e954,0003ebaa
ram:0003e836    07b0            add         sp,#0x1c                                
ram:0003e838    00bd            pop         {pc}                                    
                            ;************************************************************************************************
                            ;*                                           FUNCTION                                           *
                            ;************************************************************************************************
                            ;int FUN_0003e83a(undefined4 param_1, undefined4 param_2, undefined4 param_3, undefined4 param_4)
          ;param_1       undefined4          r0                      
          ;param_2       undefined4          r1                      
          ;param_3       undefined4          r2                      
          ;param_4       undefined4          r3                      
                                                          ;XREF[4,0]:   0003ea40,0003ea90,0003eb0a,0003eb4e
ram:0003e83a    10b5            push        {r4,lr}                                 
ram:0003e83c    e448            ldr         param_1,[DAT_0003ebd0]                  ;= 20002C98h
ram:0003e83e    0078            ldrb        param_1,[param_1,#0x0]=>DAT_20002c98    
ram:0003e840    0028            cmp         param_1,#0x0                            
ram:0003e842    01d0            beq         LAB_0003e848                            
ram:0003e844    0820            movs        param_1,#0x8                            
ram:0003e846    10bd            pop         {r4,pc}                                 
                            LAB_0003e848:                 ;XREF[1,0]:   0003e842
ram:0003e848    e34c            ldr         r4,[PTR_DAT_0003ebd8]                   ;= 0003f1d4
ram:0003e84a    2068            ldr         param_1,[r4,#0x0]=>DAT_0003f1d4         ;= 2000335Ch
ram:0003e84c    fef7b3ff        bl          FUN_0003d7b6                            ;undefined4 FUN_0003d7b6(int param_1,...
ram:0003e850    0028            cmp         param_1,#0x0                            
ram:0003e852    01d0            beq         LAB_0003e858                            
ram:0003e854    fef74afd        bl          FUN_0003d2ec                            ;undefined FUN_0003d2ec(void)
                            LAB_0003e858:                 ;XREF[1,0]:   0003e852
ram:0003e858    0f21            movs        param_2,#0xf                            
ram:0003e85a    0022            movs        param_3,#0x0                            
ram:0003e85c    c904            lsls        param_2,param_2,#0x13                   
ram:0003e85e    2068            ldr         param_1,[r4,#0x0]=>DAT_0003f1d4         ;= 2000335Ch
ram:0003e860    fef770ff        bl          FUN_0003d744                            ;longlong FUN_0003d744(int param_1, u...
ram:0003e864    041e            subs        r4,param_1,#0x0                         
ram:0003e866    01d0            beq         LAB_0003e86c                            
ram:0003e868    fef740fd        bl          FUN_0003d2ec                            ;undefined FUN_0003d2ec(void)
                            LAB_0003e86c:                 ;XREF[1,0]:   0003e866
ram:0003e86c    2046            mov         param_1,r4                              
ram:0003e86e    10bd            pop         {r4,pc}                                 
                            ;************************************************************************************************
                            ;*                                           FUNCTION                                           *
                            ;************************************************************************************************
                            ;undefined FUN_0003e870(void)
                                                          ;XREF[1,2]:   0003ea4c,0003ea1a,0003ea48
ram:0003e870    d749            ldr         r1,[DAT_0003ebd0]                       ;= 20002C98h
ram:0003e872    10b5            push        {r4,lr}                                 
ram:0003e874    d648            ldr         r0,[DAT_0003ebd0]                       ;= 20002C98h
ram:0003e876    1831            adds        r1,#0x18                                
ram:0003e878    0161            str         r1,[r0,#0x10]=>DAT_20002ca8             
ram:0003e87a    0221            movs        r1,#0x2                                 
ram:0003e87c    4170            strb        r1,[r0,#0x1]=>DAT_20002c99              
ram:0003e87e    c168            ldr         r1,[r0,#0xc]=>DAT_20002ca4              
ram:0003e880    1830            adds        r0,#0x18                                
ram:0003e882    fef710fd        bl          FUN_0003d2a6                            ;undefined FUN_0003d2a6(undefined4 * ...
ram:0003e886    0028            cmp         r0,#0x0                                 
ram:0003e888    01d0            beq         LAB_0003e88e                            
ram:0003e88a    fef72ffd        bl          FUN_0003d2ec                            ;undefined FUN_0003d2ec(void)
                            LAB_0003e88e:                 ;XREF[1,0]:   0003e888
ram:0003e88e    10bd            pop         {r4,pc}                                 
                            ;************************************************************************************************
                            ;*                                           FUNCTION                                           *
                            ;************************************************************************************************
                            ;undefined FUN_0003e890(void)
          ;local_c       undefined4          -c                      ;XREF[1,0]:   0003e8a0
          ;local_1c      undefined4         -1c                      ;XREF[1,0]:   0003e8a6
          ;local_20      undefined4         -20                      ;XREF[1,0]:   0003e8a2
                                                          ;XREF[0,2]:   0003ea1e,0003ebe4
ram:0003e890    00b5            push        {lr}                                    
ram:0003e892    d149            ldr         r1,[PTR_DAT_0003ebd8]                   ;= 0003f1d4
ram:0003e894    87b0            sub         sp,#0x1c                                
ram:0003e896    1422            movs        r2,#0x14                                
ram:0003e898    091d            adds        r1=>DAT_0003f1d8,r1,#0x4                ;= 04h
ram:0003e89a    01a8            add         r0,sp,#0x4                              
ram:0003e89c    00f0fcfb        bl          FUN_0003f098                            ;undefined FUN_0003f098(undefined4 * ...
ram:0003e8a0    0598            ldr         r0,[sp,#local_c+0x20]                   
ram:0003e8a2    0090            str         r0,[sp,#0x0]=>local_20                  
ram:0003e8a4    01a8            add         r0,sp,#0x4                              
ram:0003e8a6    0fc8            ldmia       r0=>local_1c,{r0,r1,r2,r3}              
ram:0003e8a8    fff77ff9        bl          FUN_0003dbaa                            ;undefined FUN_0003dbaa(uint param_1,...
ram:0003e8ac    c3e7            b           FUN_0003e836                            
                            ;************************************************************************************************
                            ;*                                           FUNCTION                                           *
                            ;************************************************************************************************
                            ;undefined4 FUN_0003e8ae(void)
          ;local_c       undefined4          -c                      ;XREF[2,0]:   0003e8c6,0003e8d8
          ;local_10      undefined4         -10                      ;XREF[2,0]:   0003e8d6,0003e8de
          ;local_14      undefined4         -14                      ;XREF[1,0]:   0003e8d2
          ;local_18      undefined4         -18                      ;XREF[2,0]:   0003e8ce,0003e8e0
          ;local_1c      undefined4         -1c                      ;XREF[2,1]:   0003e8b6,0003e8e2,0003e8be
          ;local_20      undefined4         -20                      ;XREF[1,0]:   0003e8da
                                                          ;XREF[0,2]:   0003ea32,0003ebe8
ram:0003e8ae    00b5            push        {lr}                                    
ram:0003e8b0    87b0            sub         sp,#0x1c                                
ram:0003e8b2    0121            movs        r1,#0x1                                 
ram:0003e8b4    6846            mov         r0,sp                                   
ram:0003e8b6    0171            strb        r1,[r0,#local_1c+0x20]                  
ram:0003e8b8    c548            ldr         r0,[DAT_0003ebd0]                       ;= 20002C98h
ram:0003e8ba    8188            ldrh        r1,[r0,#0x4]=>DAT_20002c9c              
ram:0003e8bc    6846            mov         r0,sp                                   
ram:0003e8be    c180            strh        r1,[r0,#local_1c+0x22]                  
ram:0003e8c0    0320            movs        r0,#0x3                                 
ram:0003e8c2    0003            lsls        r0,r0,#0xc                              
ram:0003e8c4    8068            ldr         r0,[r0,#offset DAT_00003008 &0xff]      
ram:0003e8c6    0590            str         r0,[sp,#local_c+0x20]                   
ram:0003e8c8    c248            ldr         r0,[DAT_0003ebd4]                       ;= 200033CCh
ram:0003e8ca    5038            subs        r0,#0x50                                
ram:0003e8cc    4168            ldr         r1,[r0,#0x4]=>DAT_20003380              
ram:0003e8ce    0291            str         r1,[sp,#local_18+0x20]                  
ram:0003e8d0    8168            ldr         r1,[r0,#0x8]=>DAT_20003384              
ram:0003e8d2    0391            str         r1,[sp,#local_14+0x20]                  
ram:0003e8d4    c068            ldr         r0,[r0,#0xc]=>DAT_20003388              
ram:0003e8d6    0490            str         r0,[sp,#local_10+0x20]                  
ram:0003e8d8    0598            ldr         r0,[sp,#local_c+0x20]                   
ram:0003e8da    0090            str         r0,[sp,#0x0]=>local_20                  
ram:0003e8dc    0a46            mov         r2,r1                                   
ram:0003e8de    049b            ldr         r3,[sp,#local_10+0x20]                  
ram:0003e8e0    0299            ldr         r1,[sp,#local_18+0x20]                  
ram:0003e8e2    0198            ldr         r0,[sp,#local_1c+0x20]                  
ram:0003e8e4    fff761f9        bl          FUN_0003dbaa                            ;undefined FUN_0003dbaa(uint param_1,...
ram:0003e8e8    0020            movs        r0,#0x0                                 
ram:0003e8ea    a4e7            b           FUN_0003e836                            
                            ;************************************************************************************************
                            ;*                                           FUNCTION                                           *
                            ;************************************************************************************************
                            ;undefined4 FUN_0003e8ec(void)
          ;local_c       undefined4          -c                      ;XREF[1,0]:   0003e90e
          ;local_10      undefined4         -10                      ;XREF[1,0]:   0003e90c
          ;local_1c      undefined4         -1c                      ;XREF[2,1]:   0003e8fc,0003e914,0003e904
          ;local_20      undefined4         -20                      ;XREF[1,0]:   0003e910
                                                          ;XREF[0,2]:   0003ea32,0003ebf0
ram:0003e8ec    10b5            push        {r4,lr}                                 
ram:0003e8ee    86b0            sub         sp,#0x18                                
ram:0003e8f0    1421            movs        r1,#0x14                                
ram:0003e8f2    01a8            add         r0,sp,#0x4                              
ram:0003e8f4    00f0e9fb        bl          FUN_0003f0ca                            ;undefined FUN_0003f0ca(undefined * p...
ram:0003e8f8    0024            movs        r4,#0x0                                 
ram:0003e8fa    6846            mov         r0,sp                                   
ram:0003e8fc    0471            strb        r4,[r0,#local_1c+0x20]                  
ram:0003e8fe    b448            ldr         r0,[DAT_0003ebd0]                       ;= 20002C98h
ram:0003e900    8188            ldrh        r1,[r0,#0x4]=>DAT_20002c9c              
ram:0003e902    6846            mov         r0,sp                                   
ram:0003e904    c180            strh        r1,[r0,#local_1c+0x22]                  
ram:0003e906    b348            ldr         r0,[DAT_0003ebd4]                       ;= 200033CCh
ram:0003e908    5038            subs        r0,#0x50                                
ram:0003e90a    c068            ldr         r0,[r0,#0xc]=>DAT_20003388              
ram:0003e90c    0490            str         r0,[sp,#local_10+0x20]                  
ram:0003e90e    0598            ldr         r0,[sp,#local_c+0x20]                   
ram:0003e910    0090            str         r0,[sp,#0x0]=>local_20                  
ram:0003e912    01a8            add         r0,sp,#0x4                              
ram:0003e914    0fc8            ldmia       r0=>local_1c,{r0,r1,r2,r3}              
ram:0003e916    fff748f9        bl          FUN_0003dbaa                            ;undefined FUN_0003dbaa(uint param_1,...
ram:0003e91a    2046            mov         r0,r4                                   
ram:0003e91c    06b0            add         sp,#0x18                                
ram:0003e91e    10bd            pop         {r4,pc}                                 
                            ;************************************************************************************************
                            ;*                                           FUNCTION                                           *
                            ;************************************************************************************************
                            ;undefined4 FUN_0003e920(void)
          ;local_c       undefined4          -c                      ;XREF[1,0]:   0003e942
          ;local_10      undefined4         -10                      ;XREF[2,0]:   0003e940,0003e948
          ;local_14      undefined4         -14                      ;XREF[1,0]:   0003e93c
          ;local_18      undefined4         -18                      ;XREF[2,0]:   0003e938,0003e94a
          ;local_1c      undefined4         -1c                      ;XREF[2,1]:   0003e928,0003e94c,0003e930
          ;local_20      undefined4         -20                      ;XREF[1,0]:   0003e944
ram:0003e920    00b5            push        {lr}                                    
ram:0003e922    87b0            sub         sp,#0x1c                                
ram:0003e924    0321            movs        r1,#0x3                                 
ram:0003e926    6846            mov         r0,sp                                   
ram:0003e928    0171            strb        r1,[r0,#local_1c+0x20]                  
ram:0003e92a    a948            ldr         r0,[DAT_0003ebd0]                       ;= 20002C98h
ram:0003e92c    8188            ldrh        r1,[r0,#0x4]=>DAT_20002c9c              
ram:0003e92e    6846            mov         r0,sp                                   
ram:0003e930    c180            strh        r1,[r0,#local_1c+0x22]                  
ram:0003e932    a848            ldr         r0,[DAT_0003ebd4]                       ;= 200033CCh
ram:0003e934    5038            subs        r0,#0x50                                
ram:0003e936    4168            ldr         r1,[r0,#0x4]=>DAT_20003380              
ram:0003e938    0291            str         r1,[sp,#local_18+0x20]                  
ram:0003e93a    8168            ldr         r1,[r0,#0x8]=>DAT_20003384              
ram:0003e93c    0391            str         r1,[sp,#local_14+0x20]                  
ram:0003e93e    c068            ldr         r0,[r0,#0xc]=>DAT_20003388              
ram:0003e940    0490            str         r0,[sp,#local_10+0x20]                  
ram:0003e942    0598            ldr         r0,[sp,#local_c+0x20]                   
ram:0003e944    0090            str         r0,[sp,#0x0]=>local_20                  
ram:0003e946    0a46            mov         r2,r1                                   
ram:0003e948    049b            ldr         r3,[sp,#local_10+0x20]                  
ram:0003e94a    0299            ldr         r1,[sp,#local_18+0x20]                  
ram:0003e94c    0198            ldr         r0,[sp,#local_1c+0x20]                  
ram:0003e94e    fff72cf9        bl          FUN_0003dbaa                            ;undefined FUN_0003dbaa(uint param_1,...
ram:0003e952    0020            movs        r0,#0x0                                 
ram:0003e954    6fe7            b           FUN_0003e836                            
                            ;************************************************************************************************
                            ;*                                           FUNCTION                                           *
                            ;************************************************************************************************
                            ;longlong FUN_0003e956(void)
          ;local_20      undefined4         -20                      ;XREF[1,0]:   0003e962
                                                          ;XREF[1,0]:   0003dcaa
ram:0003e956    feb5            push        {r1,r2,r3,r4,r5,r6,r7,lr}               
ram:0003e958    9f4e            ldr         r6,[PTR_DAT_0003ebd8]                   ;= 0003f1d4
ram:0003e95a    6b46            mov         r3,sp                                   
ram:0003e95c    3046            mov         r0,r6                                   
ram:0003e95e    1830            adds        r0,#0x18                                
                                                          ; FWD[3,0]:   0003f1ec,0003f1f0,0003f1f4
ram:0003e960    07c8            ldmia       r0,{r0,r1,r2}=>DAT_0003f1ec             ;= 0003E7D1h
ram:0003e962    07c3            stmia       r3!=>local_20,{r0,r1,r2}                
ram:0003e964    9a4c            ldr         r4,[DAT_0003ebd0]                       ;= 20002C98h
ram:0003e966    0025            movs        r5,#0x0                                 
ram:0003e968    a570            strb        r5,[r4,#0x2]=>DAT_20002c9a              
ram:0003e96a    2146            mov         r1,r4                                   
ram:0003e96c    a580            strh        r5,[r4,#0x4]=>DAT_20002c9c              
ram:0003e96e    1831            adds        r1,#0x18                                
ram:0003e970    6846            mov         r0,sp                                   
ram:0003e972    fef76efc        bl          FUN_0003d252                            ;undefined4 FUN_0003d252(undefined4 *...
ram:0003e976    0028            cmp         r0,#0x0                                 
ram:0003e978    01d0            beq         LAB_0003e97e                            
ram:0003e97a    6570            strb        r5,[r4,#0x1]=>DAT_20002c99              
ram:0003e97c    febd            pop         {r1,r2,r3,r4,r5,r6,r7,pc}               
                            LAB_0003e97e:                 ;XREF[1,0]:   0003e978
ram:0003e97e    0320            movs        r0,#0x3                                 
ram:0003e980    9349            ldr         r1,[DAT_0003ebd0]                       ;= 20002C98h
ram:0003e982    0003            lsls        r0,r0,#0xc                              
ram:0003e984    8068            ldr         r0,[r0,#offset DAT_00003008 &0xff]      
ram:0003e986    1831            adds        r1,#0x18                                
ram:0003e988    4860            str         r0,[r1,#0x4]=>DAT_20002cb4              
ram:0003e98a    944a            ldr         r2,[PTR_FUN_0003e81a+1_0003ebdc]        ;= 0003e81b
ram:0003e98c    0021            movs        r1,#0x0                                 
ram:0003e98e    9248            ldr         r0=>DAT_0003f1d4,[PTR_DAT_0003ebd8]     ;= 2000335Ch
                                                                                    ;= 0003f1d4
ram:0003e990    fef79efe        bl          FUN_0003d6d0                            ;undefined4 FUN_0003d6d0(int * param_...
ram:0003e994    0028            cmp         r0,#0x0                                 
ram:0003e996    01d0            beq         LAB_0003e99c                            
ram:0003e998    fef7a8fc        bl          FUN_0003d2ec                            ;undefined FUN_0003d2ec(void)
                            LAB_0003e99c:                 ;XREF[1,0]:   0003e996
ram:0003e99c    0f21            movs        r1,#0xf                                 
ram:0003e99e    0022            movs        r2,#0x0                                 
ram:0003e9a0    c904            lsls        r1,r1,#0x13                             
ram:0003e9a2    3068            ldr         r0,[r6,#0x0]=>DAT_0003f1d4              ;= 2000335Ch
ram:0003e9a4    fef7cefe        bl          FUN_0003d744                            ;longlong FUN_0003d744(int param_1, u...
ram:0003e9a8    0028            cmp         r0,#0x0                                 
ram:0003e9aa    01d0            beq         LAB_0003e9b0                            
ram:0003e9ac    fef79efc        bl          FUN_0003d2ec                            ;undefined FUN_0003d2ec(void)
                            LAB_0003e9b0:                 ;XREF[1,0]:   0003e9aa
ram:0003e9b0    0120            movs        r0,#0x1                                 
ram:0003e9b2    a560            str         r5,[r4,#0x8]=>DAT_20002ca0              
ram:0003e9b4    6070            strb        r0,[r4,#0x1]=>DAT_20002c99              
ram:0003e9b6    0020            movs        r0,#0x0                                 
ram:0003e9b8    febd            pop         {r1,r2,r3,r4,r5,r6,r7,pc}               
                            ;************************************************************************************************
                            ;*                                           FUNCTION                                           *
                            ;************************************************************************************************
                            ;undefined FUN_0003e9ba(undefined4 param_1)
          ;param_1       undefined4          r0                      
                                                          ;XREF[1,0]:   0003e3ee
ram:0003e9ba    8549            ldr         r1,[DAT_0003ebd0]                       ;= 20002C98h
ram:0003e9bc    4861            str         param_1,[r1,#0x14]=>DAT_20002cac        
ram:0003e9be    7047            bx          lr                                      
                            ;************************************************************************************************
                            ;*                                           FUNCTION                                           *
                            ;************************************************************************************************
                            ;int FUN_0003e9c0(int param_1)
          ;param_1       int                 r0                      
                                                          ;XREF[1,0]:   0003e5aa
ram:0003e9c0    70b5            push        {r4,r5,r6,lr}                           
ram:0003e9c2    4268            ldr         r2,[param_1,#0x4]                       
ram:0003e9c4    8348            ldr         param_1,[DAT_0003ebd4]                  ;= 200033CCh
ram:0003e9c6    1468            ldr         r4,[r2,#0x0]                            
ram:0003e9c8    5368            ldr         r3,[r2,#0x4]                            
ram:0003e9ca    9168            ldr         r1,[r2,#0x8]                            
ram:0003e9cc    5038            subs        param_1,#0x50                           
ram:0003e9ce    d268            ldr         r2,[r2,#0xc]                            
ram:0003e9d0    0460            str         r4,[param_1,#0x0]=>DAT_2000337c         
ram:0003e9d2    4360            str         r3,[param_1,#0x4]=>DAT_20003380         
ram:0003e9d4    c260            str         r2,[param_1,#0xc]=>DAT_20003388         
ram:0003e9d6    8160            str         r1,[param_1,#0x8]=>DAT_20003384         
ram:0003e9d8    0078            ldrb        param_1,[param_1,#0x0]=>DAT_2000337c    
ram:0003e9da    4407            lsls        r4,param_1,#0x1d                        
ram:0003e9dc    01d5            bpl         LAB_0003e9e2                            
ram:0003e9de    8407            lsls        r4,param_1,#0x1e                        
ram:0003e9e0    05d1            bne         LAB_0003e9ee                            
                            LAB_0003e9e2:                 ;XREF[1,0]:   0003e9dc
ram:0003e9e2    9c07            lsls        r4,r3,#0x1e                             
ram:0003e9e4    03d1            bne         LAB_0003e9ee                            
ram:0003e9e6    8c07            lsls        r4,r1,#0x1e                             
ram:0003e9e8    01d1            bne         LAB_0003e9ee                            
ram:0003e9ea    9407            lsls        r4,r2,#0x1e                             
ram:0003e9ec    01d0            beq         LAB_0003e9f2                            
                            LAB_0003e9ee:                 ;XREF[3,0]:   0003e9e0,0003e9e4,0003e9e8
ram:0003e9ee    0620            movs        param_1,#0x6                            
ram:0003e9f0    70bd            pop         {r4,r5,r6,pc}                           
                            LAB_0003e9f2:                 ;XREF[1,0]:   0003e9ec
ram:0003e9f2    5b18            adds        r3,r3,r1                                
ram:0003e9f4    9a18            adds        r2,r3,r2                                
ram:0003e9f6    764d            ldr         r5,[DAT_0003ebd0]                       ;= 20002C98h
ram:0003e9f8    0f23            movs        r3,#0xf                                 
ram:0003e9fa    9b02            lsls        r3,r3,#0xa                              
ram:0003e9fc    ea60            str         r2,[r5,#0xc]=>DAT_20002ca4              
ram:0003e9fe    9942            cmp         r1,r3                                   
ram:0003ea00    07d8            bhi         LAB_0003ea12                            
ram:0003ea02    0321            movs        r1,#0x3                                 
ram:0003ea04    0903            lsls        r1,r1,#0xc                              
ram:0003ea06    8968            ldr         r1,[r1,#offset DAT_00003008 &0xff]      
ram:0003ea08    ed23            movs        r3,#0xed                                
ram:0003ea0a    9b02            lsls        r3,r3,#0xa                              
ram:0003ea0c    591a            subs        r1,r3,r1                                
ram:0003ea0e    9142            cmp         r1,r2                                   
ram:0003ea10    01d2            bcs         LAB_0003ea16                            
                            LAB_0003ea12:                 ;XREF[1,0]:   0003ea00
ram:0003ea12    0c20            movs        param_1,#0xc                            
ram:0003ea14    70bd            pop         {r4,r5,r6,pc}                           
                            LAB_0003ea16:                 ;XREF[1,0]:   0003ea10
ram:0003ea16    6f4c            ldr         r4,[DAT_0003ebd4]                       ;= 200033CCh
ram:0003ea18    7149            ldr         r1,[DAT_0003ebe0]                       ;= 0003E871h
ram:0003ea1a    2160            str         r1=>FUN_0003e870+1,[r4,#0x0]=>DAT_200...
ram:0003ea1c    7149            ldr         r1,[PTR_FUN_0003e890+1_0003ebe4]        ;= 0003e891
ram:0003ea1e    6160            str         r1=>FUN_0003e890+1,[r4,#0x4]=>DAT_200...
ram:0003ea20    c107            lsls        r1,param_1,#0x1f                        
ram:0003ea22    01d0            beq         LAB_0003ea28                            
ram:0003ea24    7048            ldr         param_1,[PTR_FUN_0003e8ae+1_0003ebe8]   ;= 0003e8af
ram:0003ea26    04e0            b           LAB_0003ea32                            
                            LAB_0003ea28:                 ;XREF[1,0]:   0003ea22
ram:0003ea28    8007            lsls        param_1,param_1,#0x1e                   
ram:0003ea2a    01d5            bpl         LAB_0003ea30                            
ram:0003ea2c    6f48            ldr         param_1,[DAT_0003ebec]                  ;= 0003E921h
ram:0003ea2e    00e0            b           LAB_0003ea32                            
                            LAB_0003ea30:                 ;XREF[1,0]:   0003ea2a
ram:0003ea30    6f48            ldr         param_1,[PTR_FUN_0003e8ec+1_0003ebf0]   ;= 0003e8ed
                            LAB_0003ea32:                 ;XREF[2,0]:   0003ea26,0003ea2e
                                                          ; FWD[3,0]:   0003e8af,0003e8ed,200033d4
ram:0003ea32    a060            str         param_1=>FUN_000...,[r4,#0x8]=>DAT_20...
ram:0003ea34    6878            ldrb        param_1,[r5,#0x1]=>DAT_20002c99         
ram:0003ea36    0128            cmp         param_1,#0x1                            
ram:0003ea38    02d0            beq         LAB_0003ea40                            
ram:0003ea3a    0826            movs        r6,#0x8                                 
                            LAB_0003ea3c:                 ;XREF[1,0]:   0003ea4e
ram:0003ea3c    3046            mov         param_1,r6                              
                            LAB_0003ea3e:                 ;XREF[1,0]:   0003ea46
ram:0003ea3e    70bd            pop         {r4,r5,r6,pc}                           
                            LAB_0003ea40:                 ;XREF[1,0]:   0003ea38
ram:0003ea40    fff7fbfe        bl          FUN_0003e83a                            ;int FUN_0003e83a(undefined4 param_1,...
ram:0003ea44    0600            movs        r6,param_1                              
ram:0003ea46    fad1            bne         LAB_0003ea3e                            
ram:0003ea48    2168            ldr         r1=>FUN_0003e870+1,[r4,#0x0]=>DAT_200...
ram:0003ea4a    e868            ldr         param_1,[r5,#0xc]=>DAT_20002ca4         
ram:0003ea4c    8847            blx         r1=>FUN_0003e870                        ;undefined FUN_0003e870(void)
ram:0003ea4e    f5e7            b           LAB_0003ea3c                            
                            ;************************************************************************************************
                            ;*                                           FUNCTION                                           *
                            ;************************************************************************************************
                            ;int FUN_0003ea50(int param_1, undefined4 param_2, undefined4 param_3, undefined4 param_4)
          ;param_1       int                 r0                      
          ;param_2       undefined4          r1                      
          ;param_3       undefined4          r2                      
          ;param_4       undefined4          r3                      
                                                          ;XREF[1,0]:   0003dfbc
ram:0003ea50    70b5            push        {r4,r5,r6,lr}                           
ram:0003ea52    0500            movs        r5,param_1                              
ram:0003ea54    04d0            beq         LAB_0003ea60                            
ram:0003ea56    287a            ldrb        param_1,[r5,#0x8]                       
ram:0003ea58    8007            lsls        param_1,param_1,#0x1e                   
ram:0003ea5a    03d0            beq         LAB_0003ea64                            
ram:0003ea5c    1020            movs        param_1,#0x10                           
ram:0003ea5e    70bd            pop         {r4,r5,r6,pc}                           
                            LAB_0003ea60:                 ;XREF[1,0]:   0003ea54
ram:0003ea60    0e20            movs        param_1,#0xe                            
ram:0003ea62    70bd            pop         {r4,r5,r6,pc}                           
                            LAB_0003ea64:                 ;XREF[1,0]:   0003ea5a
ram:0003ea64    5a4c            ldr         r4,[DAT_0003ebd0]                       ;= 20002C98h
ram:0003ea66    6078            ldrb        param_1,[r4,#0x1]=>DAT_20002c99         
ram:0003ea68    0328            cmp         param_1,#0x3                            
ram:0003ea6a    03d0            beq         LAB_0003ea74                            
ram:0003ea6c    0428            cmp         param_1,#0x4                            
ram:0003ea6e    01d0            beq         LAB_0003ea74                            
ram:0003ea70    0528            cmp         param_1,#0x5                            
ram:0003ea72    01d0            beq         LAB_0003ea78                            
                            LAB_0003ea74:                 ;XREF[2,0]:   0003ea6a,0003ea6e
ram:0003ea74    0820            movs        param_1,#0x8                            
ram:0003ea76    70bd            pop         {r4,r5,r6,pc}                           
                            LAB_0003ea78:                 ;XREF[1,0]:   0003ea72
ram:0003ea78    6868            ldr         param_1,[r5,#0x4]                       
ram:0003ea7a    e168            ldr         param_2,[r4,#0xc]=>DAT_20002ca4         
ram:0003ea7c    8600            lsls        r6,param_1,#0x2                         
ram:0003ea7e    a068            ldr         param_1,[r4,#0x8]=>DAT_20002ca0         
ram:0003ea80    8019            adds        param_1,param_1,r6                      
ram:0003ea82    8842            cmp         param_1,param_2                         
ram:0003ea84    04d9            bls         LAB_0003ea90                            
ram:0003ea86    0020            movs        param_1,#0x0                            
ram:0003ea88    c043            mvns        param_1,param_1                         
ram:0003ea8a    a060            str         param_1,[r4,#0x8]=>DAT_20002ca0         
ram:0003ea8c    0c20            movs        param_1,#0xc                            
                            LAB_0003ea8e:                 ;XREF[3,0]:   0003ea96,0003eaa6,0003eab2
ram:0003ea8e    70bd            pop         {r4,r5,r6,pc}                           
                            LAB_0003ea90:                 ;XREF[1,0]:   0003ea84
ram:0003ea90    fff7d3fe        bl          FUN_0003e83a                            ;int FUN_0003e83a(undefined4 param_1,...
ram:0003ea94    0028            cmp         param_1,#0x0                            
ram:0003ea96    fad1            bne         LAB_0003ea8e                            
ram:0003ea98    a968            ldr         param_2,[r5,#0x8]                       
ram:0003ea9a    3246            mov         param_3,r6                              
ram:0003ea9c    a368            ldr         param_4,[r4,#0x8]=>DAT_20002ca0         
ram:0003ea9e    2069            ldr         param_1,[r4,#0x10]=>DAT_20002ca8        
ram:0003eaa0    fef7e8fb        bl          FUN_0003d274                            ;int FUN_0003d274(undefined4 * param_...
ram:0003eaa4    0028            cmp         param_1,#0x0                            
ram:0003eaa6    f2d1            bne         LAB_0003ea8e                            
ram:0003eaa8    a168            ldr         param_2,[r4,#0x8]=>DAT_20002ca0         
ram:0003eaaa    8919            adds        param_2,param_2,r6                      
ram:0003eaac    a160            str         param_2,[r4,#0x8]=>DAT_20002ca0         
ram:0003eaae    e268            ldr         param_3,[r4,#0xc]=>DAT_20002ca4         
ram:0003eab0    9142            cmp         param_2,param_3                         
ram:0003eab2    ecd0            beq         LAB_0003ea8e                            
ram:0003eab4    0920            movs        param_1,#0x9                            
ram:0003eab6    70bd            pop         {r4,r5,r6,pc}                           
                            ;************************************************************************************************
                            ;*                                           FUNCTION                                           *
                            ;************************************************************************************************
                            ;int FUN_0003eab8(void)
ram:0003eab8    10b5            push        {r4,lr}                                 
ram:0003eaba    454c            ldr         r4,[DAT_0003ebd0]                       ;= 20002C98h
ram:0003eabc    0820            movs        r0,#0x8                                 
ram:0003eabe    a168            ldr         r1,[r4,#0x8]=>DAT_20002ca0              
ram:0003eac0    0029            cmp         r1,#0x0                                 
ram:0003eac2    00d0            beq         LAB_0003eac6                            
                            LAB_0003eac4:                 ;XREF[1,0]:   0003eaca
ram:0003eac4    10bd            pop         {r4,pc}                                 
                            LAB_0003eac6:                 ;XREF[1,0]:   0003eac2
ram:0003eac6    6178            ldrb        r1,[r4,#0x1]=>DAT_20002c99              
ram:0003eac8    0429            cmp         r1,#0x4                                 
ram:0003eaca    fbd1            bne         LAB_0003eac4                            
ram:0003eacc    4148            ldr         r0,[DAT_0003ebd4]                       ;= 200033CCh
ram:0003eace    a178            ldrb        r1,[r4,#0x2]=>DAT_20002c9a              
ram:0003ead0    4038            subs        r0,#0x40                                
ram:0003ead2    fff7a3f9        bl          FUN_0003de1c                            ;undefined4 FUN_0003de1c(ushort * par...
ram:0003ead6    0028            cmp         r0,#0x0                                 
ram:0003ead8    02d0            beq         LAB_0003eae0                            
ram:0003eada    0021            movs        r1,#0x0                                 
ram:0003eadc    a170            strb        r1,[r4,#0x2]=>DAT_20002c9a              
ram:0003eade    10bd            pop         {r4,pc}                                 
                            LAB_0003eae0:                 ;XREF[1,0]:   0003ead8
ram:0003eae0    0521            movs        r1,#0x5                                 
ram:0003eae2    6170            strb        r1,[r4,#0x1]=>DAT_20002c99              
ram:0003eae4    10bd            pop         {r4,pc}                                 
                            ;************************************************************************************************
                            ;*                                           FUNCTION                                           *
                            ;************************************************************************************************
                            ;int FUN_0003eae6(int param_1, undefined4 param_2, undefined4 param_3, undefined4 param_4)
          ;param_1       int                 r0                      
          ;param_2       undefined4          r1                      
          ;param_3       undefined4          r2                      
          ;param_4       undefined4          r3                      
                                                          ;XREF[1,0]:   0003e600
ram:0003eae6    f8b5            push        {param_4,r4,r5,r6,r7,lr}                
ram:0003eae8    394c            ldr         r4,[DAT_0003ebd0]                       ;= 20002C98h
ram:0003eaea    0746            mov         r7,param_1                              
ram:0003eaec    6078            ldrb        param_1,[r4,#0x1]=>DAT_20002c99         
ram:0003eaee    0328            cmp         param_1,#0x3                            
ram:0003eaf0    04d0            beq         LAB_0003eafc                            
ram:0003eaf2    0428            cmp         param_1,#0x4                            
ram:0003eaf4    04d0            beq         LAB_0003eb00                            
ram:0003eaf6    0825            movs        r5,#0x8                                 
                            LAB_0003eaf8:                 ;XREF[1,0]:   0003eb36
ram:0003eaf8    2846            mov         param_1,r5                              
ram:0003eafa    f8bd            pop         {param_4,r4,r5,r6,r7,pc}                
                            LAB_0003eafc:                 ;XREF[1,0]:   0003eaf0
ram:0003eafc    0420            movs        param_1,#0x4                            
ram:0003eafe    6070            strb        param_1,[r4,#0x1]=>DAT_20002c99         
                            LAB_0003eb00:                 ;XREF[1,0]:   0003eaf4
ram:0003eb00    a068            ldr         param_1,[r4,#0x8]=>DAT_20002ca0         
ram:0003eb02    0028            cmp         param_1,#0x0                            
ram:0003eb04    01d0            beq         LAB_0003eb0a                            
ram:0003eb06    0820            movs        param_1,#0x8                            
                            LAB_0003eb08:                 ;XREF[1,0]:   0003eb10
ram:0003eb08    f8bd            pop         {param_4,r4,r5,r6,r7,pc}                
                            LAB_0003eb0a:                 ;XREF[1,0]:   0003eb04
ram:0003eb0a    fff796fe        bl          FUN_0003e83a                            ;int FUN_0003e83a(undefined4 param_1,...
ram:0003eb0e    0500            movs        r5,param_1                              
ram:0003eb10    fad1            bne         LAB_0003eb08                            
ram:0003eb12    7868            ldr         param_1,[r7,#0x4]                       
ram:0003eb14    8600            lsls        r6,param_1,#0x2                         
ram:0003eb16    a078            ldrb        param_1,[r4,#0x2]=>DAT_20002c9a         
ram:0003eb18    8119            adds        param_2,param_1,r6                      
ram:0003eb1a    4029            cmp         param_2,#0x40                           
ram:0003eb1c    01d9            bls         LAB_0003eb22                            
ram:0003eb1e    0920            movs        param_1,#0x9                            
ram:0003eb20    f8bd            pop         {param_4,r4,r5,r6,r7,pc}                
                            LAB_0003eb22:                 ;XREF[1,0]:   0003eb1c
ram:0003eb22    2c4a            ldr         param_3,[DAT_0003ebd4]                  ;= 200033CCh
ram:0003eb24    b968            ldr         param_2,[r7,#0x8]                       
ram:0003eb26    403a            subs        param_3,#0x40                           
ram:0003eb28    1018            adds        param_1,param_3,param_1                 
ram:0003eb2a    3246            mov         param_3,r6                              
ram:0003eb2c    00f0b4fa        bl          FUN_0003f098                            ;undefined FUN_0003f098(undefined4 * ...
ram:0003eb30    a078            ldrb        param_1,[r4,#0x2]=>DAT_20002c9a         
ram:0003eb32    8019            adds        param_1,param_1,r6                      
ram:0003eb34    a070            strb        param_1,[r4,#0x2]=>DAT_20002c9a         
ram:0003eb36    dfe7            b           LAB_0003eaf8                            
                            ;************************************************************************************************
                            ;*                                           FUNCTION                                           *
                            ;************************************************************************************************
                            ;int FUN_0003eb38(undefined4 param_1, undefined4 param_2, undefined4 param_3, undefined4 param_4)
          ;param_1       undefined4          r0                      
          ;param_2       undefined4          r1                      
          ;param_3       undefined4          r2                      
          ;param_4       undefined4          r3                      
ram:0003eb38    10b5            push        {r4,lr}                                 
ram:0003eb3a    254c            ldr         r4,[DAT_0003ebd0]                       ;= 20002C98h
ram:0003eb3c    6078            ldrb        param_1,[r4,#0x1]=>DAT_20002c99         
ram:0003eb3e    0528            cmp         param_1,#0x5                            
ram:0003eb40    13d1            bne         LAB_0003eb6a                            
ram:0003eb42    e168            ldr         param_2,[r4,#0xc]=>DAT_20002ca4         
ram:0003eb44    a068            ldr         param_1,[r4,#0x8]=>DAT_20002ca0         
ram:0003eb46    8842            cmp         param_1,param_2                         
ram:0003eb48    0fd1            bne         LAB_0003eb6a                            
ram:0003eb4a    0620            movs        param_1,#0x6                            
ram:0003eb4c    6070            strb        param_1,[r4,#0x1]=>DAT_20002c99         
ram:0003eb4e    fff774fe        bl          FUN_0003e83a                            ;int FUN_0003e83a(undefined4 param_1,...
ram:0003eb52    0028            cmp         param_1,#0x0                            
ram:0003eb54    08d1            bne         LAB_0003eb68                            
ram:0003eb56    2069            ldr         param_1,[r4,#0x10]=>DAT_20002ca8        
ram:0003eb58    e168            ldr         param_2,[r4,#0xc]=>DAT_20002ca4         
ram:0003eb5a    4068            ldr         param_1,[param_1,#0x4]                  
ram:0003eb5c    fff799f9        bl          FUN_0003de92                            ;undefined4 FUN_0003de92(int param_1,...
ram:0003eb60    0028            cmp         param_1,#0x0                            
ram:0003eb62    01d1            bne         LAB_0003eb68                            
ram:0003eb64    0721            movs        param_2,#0x7                            
ram:0003eb66    6170            strb        param_2,[r4,#0x1]=>DAT_20002c99         
                            LAB_0003eb68:                 ;XREF[2,0]:   0003eb54,0003eb62
ram:0003eb68    10bd            pop         {r4,pc}                                 
                            LAB_0003eb6a:                 ;XREF[2,0]:   0003eb40,0003eb48
ram:0003eb6a    0820            movs        param_1,#0x8                            
ram:0003eb6c    10bd            pop         {r4,pc}                                 
                            ;************************************************************************************************
                            ;*                                           FUNCTION                                           *
                            ;************************************************************************************************
                            ;undefined4 FUN_0003eb6e(undefined4 param_1, undefined4 param_2, undefined4 param_3, undefined4 param_4)
          ;param_1       undefined4          r0                      
          ;param_2       undefined4          r1                      
          ;param_3       undefined4          r2                      
          ;param_4       undefined4          r3                      
ram:0003eb6e    10b5            push        {r4,lr}                                 
ram:0003eb70    1748            ldr         param_1,[DAT_0003ebd0]                  ;= 20002C98h
ram:0003eb72    4078            ldrb        param_1,[param_1,#0x1]=>DAT_20002c99    
ram:0003eb74    0728            cmp         param_1,#0x7                            
ram:0003eb76    01d0            beq         LAB_0003eb7c                            
ram:0003eb78    0820            movs        param_1,#0x8                            
ram:0003eb7a    10bd            pop         {r4,pc}                                 
                            LAB_0003eb7c:                 ;XREF[1,0]:   0003eb76
ram:0003eb7c    1648            ldr         param_1,[PTR_DAT_0003ebd8]              ;= 0003f1d4
ram:0003eb7e    0068            ldr         param_1,[param_1,#0x0]=>DAT_0003f1d4    ;= 2000335Ch
ram:0003eb80    fef719fe        bl          FUN_0003d7b6                            ;undefined4 FUN_0003d7b6(int param_1,...
ram:0003eb84    0028            cmp         param_1,#0x0                            
ram:0003eb86    01d0            beq         LAB_0003eb8c                            
ram:0003eb88    fef7b0fb        bl          FUN_0003d2ec                            ;undefined FUN_0003d2ec(void)
                            LAB_0003eb8c:                 ;XREF[1,0]:   0003eb86
ram:0003eb8c    1148            ldr         param_1,[DAT_0003ebd4]                  ;= 200033CCh
ram:0003eb8e    8068            ldr         param_1,[param_1,#0x8]=>DAT_200033d4    
ram:0003eb90    8047            blx         param_1                                 
ram:0003eb92    10bd            pop         {r4,pc}                                 
                            ;************************************************************************************************
                            ;*                                           FUNCTION                                           *
                            ;************************************************************************************************
                            ;undefined FUN_0003eb94(void)
          ;local_c       undefined4          -c                      ;XREF[1,0]:   0003eb9e
          ;local_1c      undefined4         -1c                      ;XREF[2,0]:   0003eb9c,0003eba4
          ;local_20      undefined4         -20                      ;XREF[1,0]:   0003eba0
ram:0003eb94    00b5            push        {lr}                                    
ram:0003eb96    87b0            sub         sp,#0x1c                                
ram:0003eb98    0620            movs        r0,#0x6                                 
ram:0003eb9a    6946            mov         r1,sp                                   
ram:0003eb9c    0871            strb        r0,[r1,#local_1c+0x20]                  
ram:0003eb9e    0598            ldr         r0,[sp,#local_c+0x20]                   
ram:0003eba0    0090            str         r0,[sp,#0x0]=>local_20                  
ram:0003eba2    01a8            add         r0,sp,#0x4                              
ram:0003eba4    0fc8            ldmia       r0=>local_1c,{r0,r1,r2,r3}              
ram:0003eba6    fff700f8        bl          FUN_0003dbaa                            ;undefined FUN_0003dbaa(uint param_1,...
ram:0003ebaa    44e6            b           FUN_0003e836                            
                            ;************************************************************************************************
                            ;*                                           FUNCTION                                           *
                            ;************************************************************************************************
                            ;undefined FUN_0003ebac(int param_1, uint param_2, undefined4 param_3, int param_4)
          ;param_1       int                 r0                      
          ;param_2       uint                r1                      
          ;param_3       undefined4          r2                      
          ;param_4       int                 r3                      
                                                          ;XREF[3,0]:   0003ebf4,0003ec78,0003ed3e
ram:0003ebac    f8b5            push        {param_4,r4,r5,r6,r7,lr}                
ram:0003ebae    1c46            mov         r4,param_4                              
ram:0003ebb0    1746            mov         r7,param_3                              
ram:0003ebb2    0d46            mov         r5,param_2                              
ram:0003ebb4    0646            mov         r6,param_1                              
ram:0003ebb6    00f0cef8        bl          FUN_0003ed56                            ;undefined * FUN_0003ed56(void)
ram:0003ebba    0028            cmp         param_1,#0x0                            
ram:0003ebbc    2ad0            beq         LAB_0003ec14                            
ram:0003ebbe    0120            movs        param_1,#0x1                            
ram:0003ebc0    0003            lsls        param_1,param_1,#0xc                    
ram:0003ebc2    8542            cmp         r5,param_1                              
ram:0003ebc4    1ad9            bls         LAB_0003ebfc                            
ram:0003ebc6    291b            subs        param_2,r5,r4                           
ram:0003ebc8    2346            mov         param_4,r4                              
ram:0003ebca    301b            subs        param_1,r6,r4                           
ram:0003ebcc    1a46            mov         param_3,param_4                         
ram:0003ebce    11e0            b           LAB_0003ebf4                            
                            DAT_0003ebd0:                 ;XREF[17,0]:  0003e7d2,0003e81c,0003e83c,0003e870
                                                          ;             0003e874,0003e8b8,0003e8fe,0003e92a
                                                          ;             0003e964,0003e980,0003e9ba,0003e9f6
                                                          ;             0003ea64,0003eaba,0003eae8,0003eb3a
                                                          ;             0003eb70
ram:0003ebd0    982c0020        undefined4  20002C98h                               
                            DAT_0003ebd4:                 ;XREF[9,0]:   0003e7fa,0003e8c8,0003e906,0003e932
                                                          ;             0003e9c4,0003ea16,0003eacc,0003eb22
                                                          ;             0003eb8c
ram:0003ebd4    cc330020        undefined4  200033CCh                               
                            PTR_DAT_0003ebd8:             ;XREF[5,0]:   0003e848,0003e892,0003e958,0003e98e
                                                          ;             0003eb7c
ram:0003ebd8    d4f10300        addr        DAT_0003f1d4                            ;= 2000335Ch
                            PTR_FUN_0003e81a+1_0003ebdc:  ;XREF[1,0]:   0003e98a
ram:0003ebdc    1be80300        addr        FUN_0003e81a+1                          
                            DAT_0003ebe0:                 ;XREF[1,0]:   0003ea18
ram:0003ebe0    71e80300        undefined4  0003E871h                               ;?  ->  0003e871
                            PTR_FUN_0003e890+1_0003ebe4:  ;XREF[1,0]:   0003ea1c
ram:0003ebe4    91e80300        addr        FUN_0003e890+1                          
                            PTR_FUN_0003e8ae+1_0003ebe8:  ;XREF[1,0]:   0003ea24
ram:0003ebe8    afe80300        addr        FUN_0003e8ae+1                          
                            DAT_0003ebec:                 ;XREF[1,0]:   0003ea2c
ram:0003ebec    21e90300        undefined4  0003E921h                               ;?  ->  0003e921
                            PTR_FUN_0003e8ec+1_0003ebf0:  ;XREF[1,0]:   0003ea30
ram:0003ebf0    ede80300        addr        FUN_0003e8ec+1                          
                            LAB_0003ebf4:                 ;XREF[1,0]:   0003ebce
ram:0003ebf4    fff7daff        bl          FUN_0003ebac                            ;undefined FUN_0003ebac(int param_1, ...
ram:0003ebf8    0028            cmp         param_1,#0x0                            
ram:0003ebfa    0bd1            bne         LAB_0003ec14                            
                            LAB_0003ebfc:                 ;XREF[1,0]:   0003ebc4
ram:0003ebfc    3a46            mov         param_3,r7                              
ram:0003ebfe    2946            mov         param_2,r5                              
ram:0003ec00    3046            mov         param_1,r6                              
ram:0003ec02    00f0b3f8        bl          FUN_0003ed6c                            ;undefined * FUN_0003ed6c(void)
ram:0003ec06    0028            cmp         param_1,#0x0                            
ram:0003ec08    04d1            bne         LAB_0003ec14                            
ram:0003ec0a    3a46            mov         param_3,r7                              
ram:0003ec0c    2946            mov         param_2,r5                              
ram:0003ec0e    3046            mov         param_1,r6                              
ram:0003ec10    00f0a1f8        bl          FUN_0003ed56                            ;undefined * FUN_0003ed56(void)
                            LAB_0003ec14:                 ;XREF[3,0]:   0003ebbc,0003ebfa,0003ec08
ram:0003ec14    f8bd            pop         {param_4,r4,r5,r6,r7,pc}                
                            ;************************************************************************************************
                            ;*                                           FUNCTION                                           *
                            ;************************************************************************************************
                            ;undefined FUN_0003ec16(undefined4 param_1, undefined4 param_2, undefined4 param_3, undefined * param_4)
          ;param_1       undefined4          r0                      
          ;param_2       undefined4          r1                      
          ;param_3       undefined4          r2                      
          ;param_4       undefined *         r3                      
          ;local_1c      undefined4         -1c                      ;XREF[2,0]:   0003ec46,0003ec76
          ;local_20      undefined4         -20                      ;XREF[2,0]:   0003ec2a,0003ec82
          ;local_2c      undefined4         -2c                      ;XREF[4,0]:   0003ec20,0003ec38,0003ec4e,0003ec80
                                                          ;XREF[1,0]:   0003dd3e
ram:0003ec16    f0b5            push        {r4,r5,r6,r7,lr}                        
ram:0003ec18    89b0            sub         sp,#0x24                                
ram:0003ec1a    6846            mov         param_1,sp                              
ram:0003ec1c    fff7b6f8        bl          FUN_0003dd8c                            ;undefined FUN_0003dd8c(undefined * p...
ram:0003ec20    0398            ldr         param_1,[sp,#local_2c+0x38]             
ram:0003ec22    0028            cmp         param_1,#0x0                            
ram:0003ec24    2ad0            beq         LAB_0003ec7c                            
ram:0003ec26    0121            movs        param_2,#0x1                            
ram:0003ec28    0903            lsls        param_2,param_2,#0xc                    
ram:0003ec2a    069a            ldr         param_3,[sp,#local_20+0x38]             
ram:0003ec2c    4018            adds        param_1,param_1,param_2                 
ram:0003ec2e    9042            cmp         param_1,param_3                         
ram:0003ec30    26d9            bls         LAB_0003ec80                            
ram:0003ec32    501a            subs        param_1,param_3,param_2                 
ram:0003ec34    4508            lsrs        r5,param_1,#0x1                         
ram:0003ec36    1046            mov         param_1,param_3                         
ram:0003ec38    039a            ldr         param_3,[sp,#local_2c+0x38]             
ram:0003ec3a    0c46            mov         r4,param_2                              
ram:0003ec3c    8718            adds        r7,param_1,param_3                      
ram:0003ec3e    0246            mov         param_3,param_1                         
ram:0003ec40    6800            lsls        param_1,r5,#0x1                         
ram:0003ec42    1618            adds        r6,param_3,param_1                      
ram:0003ec44    0019            adds        param_1,param_1,r4                      
ram:0003ec46    0790            str         param_1,[sp,#local_1c+0x38]             
ram:0003ec48    0320            movs        param_1,#0x3                            
ram:0003ec4a    0003            lsls        param_1,param_1,#0xc                    
ram:0003ec4c    8068            ldr         param_1,[param_1,#offset DAT_00003008...
ram:0003ec4e    0399            ldr         param_2,[sp,#local_2c+0x38]             
ram:0003ec50    8842            cmp         param_1,param_2                         
ram:0003ec52    0dd2            bcs         LAB_0003ec70                            
ram:0003ec54    6119            adds        param_2,r4,r5                           
ram:0003ec56    0846            mov         param_1,param_2                         
ram:0003ec58    0422            movs        param_3,#0x4                            
ram:0003ec5a    00f087f8        bl          FUN_0003ed6c                            ;undefined * FUN_0003ed6c(void)
ram:0003ec5e    0028            cmp         param_1,#0x0                            
ram:0003ec60    0cd1            bne         LAB_0003ec7c                            
ram:0003ec62    2146            mov         param_2,r4                              
ram:0003ec64    0422            movs        param_3,#0x4                            
ram:0003ec66    0846            mov         param_1,param_2                         
ram:0003ec68    00f080f8        bl          FUN_0003ed6c                            ;undefined * FUN_0003ed6c(void)
ram:0003ec6c    0028            cmp         param_1,#0x0                            
ram:0003ec6e    05d1            bne         LAB_0003ec7c                            
                            LAB_0003ec70:                 ;XREF[1,0]:   0003ec52
ram:0003ec70    ba1b            subs        param_3,r7,r6                           
ram:0003ec72    2b46            mov         param_4,r5                              
ram:0003ec74    3046            mov         param_1,r6                              
ram:0003ec76    0799            ldr         param_2,[sp,#local_1c+0x38]             
ram:0003ec78    fff798ff        bl          FUN_0003ebac                            ;undefined FUN_0003ebac(int param_1, ...
                            LAB_0003ec7c:                 ;XREF[4,0]:   0003ec24,0003ec60,0003ec6e,0003ec88
ram:0003ec7c    09b0            add         sp,#0x24                                
ram:0003ec7e    f0bd            pop         {r4,r5,r6,r7,pc}                        
                            LAB_0003ec80:                 ;XREF[1,0]:   0003ec30
ram:0003ec80    039a            ldr         param_3,[sp,#local_2c+0x38]             
ram:0003ec82    0698            ldr         param_1,[sp,#local_20+0x38]             
ram:0003ec84    00f072f8        bl          FUN_0003ed6c                            ;undefined * FUN_0003ed6c(void)
ram:0003ec88    f8e7            b           LAB_0003ec7c                            
                            ;************************************************************************************************
                            ;*                                           FUNCTION                                           *
                            ;************************************************************************************************
                            ;undefined * FUN_0003ec8a(undefined4 param_1, undefined4 param_2, undefined4 param_3, undefined * param_4)
          ;param_1       undefined4          r0                      
          ;param_2       undefined4          r1                      
          ;param_3       undefined4          r2                      
          ;param_4       undefined *         r3                      
          ;local_8       undefined4          -8                      ;XREF[1,0]:   0003eca2
          ;local_10      undefined4         -10                      ;XREF[2,0]:   0003ec94,0003ecaa
          ;local_14      undefined4         -14                      ;XREF[2,0]:   0003ec9a,0003eca0
          ;local_28      undefined4         -28                      ;XREF[1,0]:   0003ecb0
          ;local_2c      undefined4         -2c                      ;XREF[1,0]:   0003eca6
          ;local_30      undefined4         -30                      ;XREF[1,0]:   0003ecac
                                                          ;XREF[1,0]:   0003dd56
ram:0003ec8a    00b5            push        {lr}                                    
ram:0003ec8c    8bb0            sub         sp,#0x2c                                
ram:0003ec8e    04a8            add         param_1,sp,#0x10                        
ram:0003ec90    fff77cf8        bl          FUN_0003dd8c                            ;undefined FUN_0003dd8c(undefined * p...
ram:0003ec94    0898            ldr         param_1,[sp,#local_10+0x30]             
ram:0003ec96    0028            cmp         param_1,#0x0                            
ram:0003ec98    0dd0            beq         LAB_0003ecb6                            
ram:0003ec9a    0798            ldr         param_1,[sp,#local_14+0x30]             
ram:0003ec9c    0028            cmp         param_1,#0x0                            
ram:0003ec9e    0cd0            beq         LAB_0003ecba                            
ram:0003eca0    0799            ldr         param_2,[sp,#local_14+0x30]             
ram:0003eca2    0a98            ldr         param_1,[sp,#local_8+0x30]              
ram:0003eca4    4018            adds        param_1,param_1,param_2                 
                            LAB_0003eca6:                 ;XREF[1,0]:   0003ecc0
ram:0003eca6    0190            str         param_1,[sp,#local_2c+0x30]             
ram:0003eca8    0021            movs        param_2,#0x0                            
ram:0003ecaa    0898            ldr         param_1,[sp,#local_10+0x30]             
ram:0003ecac    0091            str         param_2,[sp,#0x0]=>local_30             
ram:0003ecae    8008            lsrs        param_1,param_1,#0x2                    
ram:0003ecb0    0290            str         param_1,[sp,#local_28+0x30]             
ram:0003ecb2    6846            mov         param_1,sp                              
ram:0003ecb4    18df            svc         0x18                                    
                            LAB_0003ecb6:                 ;XREF[3,0]:   0003ec98,0003ecd0,0003ecf4
ram:0003ecb6    0bb0            add         sp,#0x2c                                
ram:0003ecb8    00bd            pop         {pc}                                    
                            LAB_0003ecba:                 ;XREF[1,0]:   0003ec9e
ram:0003ecba    0320            movs        param_1,#0x3                            
ram:0003ecbc    0003            lsls        param_1,param_1,#0xc                    
ram:0003ecbe    8068            ldr         param_1,[param_1,#offset DAT_00003008...
ram:0003ecc0    f1e7            b           LAB_0003eca6                            
                            ;************************************************************************************************
                            ;*                                           FUNCTION                                           *
                            ;************************************************************************************************
                            ;undefined * FUN_0003ecc2(undefined4 param_1, undefined4 param_2, undefined4 param_3, undefined * param_4)
          ;param_1       undefined4          r0                      
          ;param_2       undefined4          r1                      
          ;param_3       undefined4          r2                      
          ;param_4       undefined *         r3                      
          ;local_8       undefined4          -8                      ;XREF[1,0]:   0003ecda
          ;local_10      undefined4         -10                      ;XREF[2,0]:   0003eccc,0003ece8
          ;local_14      undefined4         -14                      ;XREF[2,0]:   0003ecd2,0003ecd8
          ;local_24      undefined4         -24                      ;XREF[1,0]:   0003ecee
          ;local_28      undefined4         -28                      ;XREF[1,0]:   0003ece4
          ;local_2c      undefined4         -2c                      ;XREF[1,0]:   0003ecea
          ;local_30      undefined4         -30                      ;XREF[1,0]:   0003ece0
                                                          ;XREF[1,0]:   0003dd30
ram:0003ecc2    00b5            push        {lr}                                    
ram:0003ecc4    8bb0            sub         sp,#0x2c                                
ram:0003ecc6    04a8            add         param_1,sp,#0x10                        
ram:0003ecc8    fff760f8        bl          FUN_0003dd8c                            ;undefined FUN_0003dd8c(undefined * p...
ram:0003eccc    0898            ldr         param_1,[sp,#local_10+0x30]             
ram:0003ecce    0028            cmp         param_1,#0x0                            
ram:0003ecd0    f1d0            beq         LAB_0003ecb6                            
ram:0003ecd2    0798            ldr         param_1,[sp,#local_14+0x30]             
ram:0003ecd4    0028            cmp         param_1,#0x0                            
ram:0003ecd6    0ed0            beq         LAB_0003ecf6                            
ram:0003ecd8    0799            ldr         param_2,[sp,#local_14+0x30]             
ram:0003ecda    0a98            ldr         param_1,[sp,#local_8+0x30]              
ram:0003ecdc    4018            adds        param_1,param_1,param_2                 
                            LAB_0003ecde:                 ;XREF[1,0]:   0003ecfc
ram:0003ecde    0321            movs        param_2,#0x3                            
ram:0003ece0    0091            str         param_2,[sp,#0x0]=>local_30             
ram:0003ece2    0f21            movs        param_2,#0xf                            
ram:0003ece4    0290            str         param_1,[sp,#local_28+0x30]             
ram:0003ece6    8903            lsls        param_2,param_2,#0xe                    
ram:0003ece8    0898            ldr         param_1,[sp,#local_10+0x30]             
ram:0003ecea    0191            str         param_2=>MasterS...,[sp,#local_2c+0x30] ;= 20003bd8
ram:0003ecec    8008            lsrs        param_1,param_1,#0x2                    
ram:0003ecee    0390            str         param_1,[sp,#local_24+0x30]             
ram:0003ecf0    6846            mov         param_1,sp                              
ram:0003ecf2    18df            svc         0x18                                    
ram:0003ecf4    dfe7            b           LAB_0003ecb6                            
                            LAB_0003ecf6:                 ;XREF[1,0]:   0003ecd6
ram:0003ecf6    0320            movs        param_1,#0x3                            
ram:0003ecf8    0003            lsls        param_1,param_1,#0xc                    
ram:0003ecfa    8068            ldr         param_1,[param_1,#offset DAT_00003008...
ram:0003ecfc    efe7            b           LAB_0003ecde                            
                            ;************************************************************************************************
                            ;*                                           FUNCTION                                           *
                            ;************************************************************************************************
                            ;undefined * FUN_0003ecfe(undefined4 param_1, undefined4 param_2, undefined4 param_3, undefined * param_4)
          ;param_1       undefined4          r0                      
          ;param_2       undefined4          r1                      
          ;param_3       undefined4          r2                      
          ;param_4       undefined *         r3                      
          ;local_10      undefined4         -10                      ;XREF[1,0]:   0003ed4e
          ;local_1c      undefined4         -1c                      ;XREF[1,0]:   0003ed48
          ;local_30      undefined4         -30                      ;XREF[1,0]:   0003ed12
          ;local_3c      undefined4         -3c                      ;XREF[4,0]:   0003ed08,0003ed20,0003ed30,0003ed4a
                                                          ;XREF[2,0]:   0003dd28,0003dd4a
ram:0003ecfe    30b5            push        {r4,r5,lr}                              
ram:0003ed00    8fb0            sub         sp,#0x3c                                
ram:0003ed02    6846            mov         param_1,sp                              
ram:0003ed04    fff742f8        bl          FUN_0003dd8c                            ;undefined FUN_0003dd8c(undefined * p...
ram:0003ed08    0398            ldr         param_1,[sp,#local_3c+0x48]             
ram:0003ed0a    0028            cmp         param_1,#0x0                            
ram:0003ed0c    14d0            beq         LAB_0003ed38                            
ram:0003ed0e    0121            movs        param_2,#0x1                            
ram:0003ed10    0903            lsls        param_2,param_2,#0xc                    
ram:0003ed12    069a            ldr         param_3,[sp,#local_30+0x48]             
ram:0003ed14    4018            adds        param_1,param_1,param_2                 
ram:0003ed16    9042            cmp         param_1,param_3                         
ram:0003ed18    14d9            bls         LAB_0003ed44                            
ram:0003ed1a    501a            subs        param_1,param_3,param_2                 
ram:0003ed1c    4308            lsrs        param_4,param_1,#0x1                    
ram:0003ed1e    1046            mov         param_1,param_3                         
ram:0003ed20    039a            ldr         param_3,[sp,#local_3c+0x48]             
ram:0003ed22    5c00            lsls        r4,param_4,#0x1                         
ram:0003ed24    8218            adds        param_3,param_1,param_3                 
ram:0003ed26    0019            adds        param_1,param_1,r4                      
ram:0003ed28    6118            adds        param_2,r4,param_2                      
ram:0003ed2a    0324            movs        r4,#0x3                                 
ram:0003ed2c    2403            lsls        r4,r4,#0xc                              
ram:0003ed2e    a468            ldr         r4,[r4,#offset DAT_00003008 &0xff]      
ram:0003ed30    039d            ldr         r5,[sp,#local_3c+0x48]                  
ram:0003ed32    ac42            cmp         r4,r5                                   
ram:0003ed34    02d2            bcs         LAB_0003ed3c                            
ram:0003ed36    0e20            movs        param_1,#0xe                            
                            LAB_0003ed38:                 ;XREF[3,0]:   0003ed0c,0003ed42,0003ed54
ram:0003ed38    0fb0            add         sp,#0x3c                                
ram:0003ed3a    30bd            pop         {r4,r5,pc}                              
                            LAB_0003ed3c:                 ;XREF[1,0]:   0003ed34
ram:0003ed3c    121a            subs        param_3,param_3,param_1                 
ram:0003ed3e    fff735ff        bl          FUN_0003ebac                            ;undefined FUN_0003ebac(int param_1, ...
ram:0003ed42    f9e7            b           LAB_0003ed38                            
                            LAB_0003ed44:                 ;XREF[1,0]:   0003ed18
ram:0003ed44    0320            movs        param_1,#0x3                            
ram:0003ed46    0bab            add         param_4,sp,#0x2c                        
ram:0003ed48    07c3            stmia       param_4!=>local_1c,{param_1,param_2,p...
ram:0003ed4a    0398            ldr         param_1,[sp,#local_3c+0x48]             
ram:0003ed4c    8008            lsrs        param_1,param_1,#0x2                    
ram:0003ed4e    0e90            str         param_1,[sp,#local_10+0x48]             
ram:0003ed50    0ba8            add         param_1,sp,#0x2c                        
ram:0003ed52    18df            svc         0x18                                    
ram:0003ed54    f0e7            b           LAB_0003ed38                            
                            ;************************************************************************************************
                            ;*                                           FUNCTION                                           *
                            ;************************************************************************************************
                            ;undefined * FUN_0003ed56(void)
          ;local_c       undefined4          -c                      ;XREF[1,0]:   0003ed5e
          ;local_10      undefined4         -10                      ;XREF[1,0]:   0003ed62
          ;local_14      undefined4         -14                      ;XREF[1,0]:   0003ed5a
          ;local_18      undefined4         -18                      ;XREF[1,0]:   0003ed60
                                                          ;XREF[2,0]:   0003ebb6,0003ec10
ram:0003ed56    1fb5            push        {r0,r1,r2,r3,r4,lr}                     
ram:0003ed58    0323            movs        r3,#0x3                                 
ram:0003ed5a    0190            str         r0,[sp,#local_14+0x18]                  
ram:0003ed5c    9008            lsrs        r0,r2,#0x2                              
ram:0003ed5e    0390            str         r0,[sp,#local_c+0x18]                   
ram:0003ed60    0093            str         r3,[sp,#0x0]=>local_18                  
ram:0003ed62    0291            str         r1,[sp,#local_10+0x18]                  
ram:0003ed64    6846            mov         r0,sp                                   
ram:0003ed66    18df            svc         0x18                                    
                            LAB_0003ed68:                 ;XREF[1,0]:   0003ed7e
ram:0003ed68    04b0            add         sp,#0x10                                
ram:0003ed6a    10bd            pop         {r4,pc}                                 
                            ;************************************************************************************************
                            ;*                                           FUNCTION                                           *
                            ;************************************************************************************************
                            ;undefined * FUN_0003ed6c(void)
          ;local_c       undefined4          -c                      ;XREF[1,0]:   0003ed74
          ;local_10      undefined4         -10                      ;XREF[1,0]:   0003ed78
          ;local_14      undefined4         -14                      ;XREF[1,0]:   0003ed70
          ;local_18      undefined4         -18                      ;XREF[1,0]:   0003ed76
                                                          ;XREF[4,0]:   0003ec02,0003ec5a,0003ec68,0003ec84
ram:0003ed6c    1fb5            push        {r0,r1,r2,r3,r4,lr}                     
ram:0003ed6e    0123            movs        r3,#0x1                                 
ram:0003ed70    0190            str         r0,[sp,#local_14+0x18]                  
ram:0003ed72    9008            lsrs        r0,r2,#0x2                              
ram:0003ed74    0390            str         r0,[sp,#local_c+0x18]                   
ram:0003ed76    0093            str         r3,[sp,#0x0]=>local_18                  
ram:0003ed78    0291            str         r1,[sp,#local_10+0x18]                  
ram:0003ed7a    6846            mov         r0,sp                                   
ram:0003ed7c    18df            svc         0x18                                    
ram:0003ed7e    f3e7            b           LAB_0003ed68                            
                            ;************************************************************************************************
                            ;*                                           FUNCTION                                           *
                            ;************************************************************************************************
                            ;undefined LAB_0003ed80+1(void)
                                                          ;XREF[0,2]:   0003ee12,0003ef14
ram:0003ed80    10b5            push        {r4,lr}                                 
ram:0003ed82    fef7bffa        bl          FUN_0003d304                            ;undefined FUN_0003d304(void)
ram:0003ed86    10bd            pop         {r4,pc}                                 
                            ;************************************************************************************************
                            ;*                                           FUNCTION                                           *
                            ;************************************************************************************************
                            ;undefined FUN_0003ed88(void)
          ;local_18      undefined4         -18                      ;XREF[2,0]:   0003edc8,0003edd4
                                                          ;XREF[2,0]:   0003ee5c,0003ef3c
ram:0003ed88    f8b5            push        {r3,r4,r5,r6,r7,lr}                     
ram:0003ed8a    614c            ldr         r4,[DAT_0003ef10]                       ;= 20002CB8h
ram:0003ed8c    2078            ldrb        r0,[r4,#0x0]=>DAT_20002cb8              
ram:0003ed8e    0028            cmp         r0,#0x0                                 
ram:0003ed90    33d0            beq         LAB_0003edfa                            
ram:0003ed92    2069            ldr         r0,[r4,#0x10]=>DAT_20002cc8             
ram:0003ed94    0028            cmp         r0,#0x0                                 
ram:0003ed96    07d0            beq         LAB_0003eda8                            
ram:0003ed98    0026            movs        r6,#0x0                                 
                            LAB_0003ed9a:                 ;XREF[1,0]:   0003edaa
ram:0003ed9a    e068            ldr         r0,[r4,#0xc]=>DAT_20002cc4              
ram:0003ed9c    0028            cmp         r0,#0x0                                 
ram:0003ed9e    05d0            beq         LAB_0003edac                            
ram:0003eda0    0025            movs        r5,#0x0                                 
                            LAB_0003eda2:                 ;XREF[2,0]:   0003edae,0003edf8
ram:0003eda2    002e            cmp         r6,#0x0                                 
ram:0003eda4    04d0            beq         LAB_0003edb0                            
ram:0003eda6    11e0            b           LAB_0003edcc                            
                            LAB_0003eda8:                 ;XREF[1,0]:   0003ed96
ram:0003eda8    0126            movs        r6,#0x1                                 
ram:0003edaa    f6e7            b           LAB_0003ed9a                            
                            LAB_0003edac:                 ;XREF[1,0]:   0003ed9e
ram:0003edac    0125            movs        r5,#0x1                                 
ram:0003edae    f8e7            b           LAB_0003eda2                            
                            LAB_0003edb0:                 ;XREF[2,0]:   0003eda4,0003edf4
ram:0003edb0    6846            mov         r0,sp                                   
ram:0003edb2    52df            svc         0x52                                    
ram:0003edb4    0528            cmp         r0,#0x5                                 
ram:0003edb6    04d0            beq         LAB_0003edc2                            
ram:0003edb8    0028            cmp         r0,#0x0                                 
ram:0003edba    04d0            beq         LAB_0003edc6                            
ram:0003edbc    fef796fa        bl          FUN_0003d2ec                            ;undefined FUN_0003d2ec(void)
ram:0003edc0    04e0            b           LAB_0003edcc                            
                            LAB_0003edc2:                 ;XREF[1,0]:   0003edb6
ram:0003edc2    0126            movs        r6,#0x1                                 
ram:0003edc4    02e0            b           LAB_0003edcc                            
                            LAB_0003edc6:                 ;XREF[1,0]:   0003edba
ram:0003edc6    2169            ldr         r1,[r4,#0x10]=>DAT_20002cc8             
ram:0003edc8    0098            ldr         r0=>local_18,[sp,#0x0]                  
ram:0003edca    8847            blx         r1                                      
                            LAB_0003edcc:                 ;XREF[3,0]:   0003eda6,0003edc0,0003edc4
ram:0003edcc    002d            cmp         r5,#0x0                                 
ram:0003edce    10d1            bne         LAB_0003edf2                            
ram:0003edd0    6088            ldrh        r0,[r4,#0x2]=>DAT_20002cba              
ram:0003edd2    6946            mov         r1,sp                                   
ram:0003edd4    0880            strh        r0,[r1,#0x0]=>local_18                  
ram:0003edd6    a068            ldr         r0,[r4,#0x8]=>DAT_20002cc0              
ram:0003edd8    61df            svc         0x61                                    
ram:0003edda    0528            cmp         r0,#0x5                                 
ram:0003eddc    04d0            beq         LAB_0003ede8                            
ram:0003edde    0028            cmp         r0,#0x0                                 
ram:0003ede0    04d0            beq         LAB_0003edec                            
ram:0003ede2    fef783fa        bl          FUN_0003d2ec                            ;undefined FUN_0003d2ec(void)
ram:0003ede6    04e0            b           LAB_0003edf2                            
                            LAB_0003ede8:                 ;XREF[1,0]:   0003eddc
ram:0003ede8    0125            movs        r5,#0x1                                 
ram:0003edea    02e0            b           LAB_0003edf2                            
                            LAB_0003edec:                 ;XREF[1,0]:   0003ede0
ram:0003edec    e168            ldr         r1,[r4,#0xc]=>DAT_20002cc4              
ram:0003edee    a068            ldr         r0,[r4,#0x8]=>DAT_20002cc0              
ram:0003edf0    8847            blx         r1                                      
                            LAB_0003edf2:                 ;XREF[3,0]:   0003edce,0003ede6,0003edea
ram:0003edf2    002e            cmp         r6,#0x0                                 
ram:0003edf4    dcd0            beq         LAB_0003edb0                            
ram:0003edf6    002d            cmp         r5,#0x0                                 
ram:0003edf8    d3d0            beq         LAB_0003eda2                            
                            LAB_0003edfa:                 ;XREF[1,0]:   0003ed90
ram:0003edfa    f8bd            pop         {r3,r4,r5,r6,r7,pc}                     
                            ;************************************************************************************************
                            ;*                                           FUNCTION                                           *
                            ;************************************************************************************************
                            ;int FUN_0003edfc(int param_1, uint param_2, undefined2 param_3, undefined4 param_4)
          ;param_1       int                 r0                      
          ;param_2       uint                r1                      
          ;param_3       undefined2          r2                      
          ;param_4       undefined4          r3                      
                                                          ;XREF[1,0]:   0003c242
ram:0003edfc    70b5            push        {r4,r5,r6,lr}                           
ram:0003edfe    0029            cmp         param_2,#0x0                            
ram:0003ee00    01d0            beq         LAB_0003ee06                            
ram:0003ee02    8c07            lsls        r4,param_2,#0x1e                        
ram:0003ee04    01d0            beq         LAB_0003ee0a                            
                            LAB_0003ee06:                 ;XREF[1,0]:   0003ee00
ram:0003ee06    0720            movs        param_1,#0x7                            
                            LAB_0003ee08:                 ;XREF[1,0]:   0003ee1a
ram:0003ee08    70bd            pop         {r4,r5,r6,pc}                           
                            LAB_0003ee0a:                 ;XREF[1,0]:   0003ee04
ram:0003ee0a    414c            ldr         r4,[DAT_0003ef10]                       ;= 20002CB8h
ram:0003ee0c    0125            movs        r5,#0x1                                 
ram:0003ee0e    a160            str         param_2,[r4,#0x8]=>DAT_20002cc0         
ram:0003ee10    6280            strh        param_3,[r4,#0x2]=>DAT_20002cba         
ram:0003ee12    4049            ldr         param_2=>LAB_000...,[PTR_LAB_0003ed80...;= 0003ed81
ram:0003ee14    6360            str         param_4,[r4,#0x4]=>DAT_20002cbc         
ram:0003ee16    10df            svc         0x10                                    
ram:0003ee18    0028            cmp         param_1,#0x0                            
ram:0003ee1a    f5d1            bne         LAB_0003ee08                            
ram:0003ee1c    2570            strb        r5,[r4,#0x0]=>DAT_20002cb8              
ram:0003ee1e    1620            movs        param_1,#0x16                           
ram:0003ee20    00f03af8        bl          FUN_0003ee98                            ;int FUN_0003ee98(uint param_1)
ram:0003ee24    70bd            pop         {r4,r5,r6,pc}                           
                            ;************************************************************************************************
                            ;*                                           FUNCTION                                           *
                            ;************************************************************************************************
                            ;undefined4 FUN_0003ee26(int param_1)
          ;param_1       int                 r0                      
                                                          ;XREF[1,0]:   0003e3e4
ram:0003ee26    0028            cmp         param_1,#0x0                            
ram:0003ee28    03d0            beq         LAB_0003ee32                            
ram:0003ee2a    3949            ldr         r1,[DAT_0003ef10]                       ;= 20002CB8h
ram:0003ee2c    c860            str         param_1,[r1,#0xc]=>DAT_20002cc4         
ram:0003ee2e    0020            movs        param_1,#0x0                            
ram:0003ee30    7047            bx          lr                                      
                            LAB_0003ee32:                 ;XREF[1,0]:   0003ee28
ram:0003ee32    0e20            movs        param_1,#0xe                            
ram:0003ee34    7047            bx          lr                                      
                            ;************************************************************************************************
                            ;*                                           FUNCTION                                           *
                            ;************************************************************************************************
                            ;undefined4 FUN_0003ee36(int param_1)
          ;param_1       int                 r0                      
                                                          ;XREF[1,0]:   0003c276
ram:0003ee36    0028            cmp         param_1,#0x0                            
ram:0003ee38    03d0            beq         LAB_0003ee42                            
ram:0003ee3a    3549            ldr         r1,[DAT_0003ef10]                       ;= 20002CB8h
ram:0003ee3c    0861            str         param_1,[r1,#0x10]=>DAT_20002cc8        
ram:0003ee3e    0020            movs        param_1,#0x0                            
ram:0003ee40    7047            bx          lr                                      
                            LAB_0003ee42:                 ;XREF[1,0]:   0003ee38
ram:0003ee42    0e20            movs        param_1,#0xe                            
ram:0003ee44    7047            bx          lr                                      
                            ;************************************************************************************************
                            ;*                                           FUNCTION                                           *
                            ;************************************************************************************************
                            ;undefined FUNC_VT_0003ee46(void)
                                                          ;XREF[0,1]:   0003c098
ram:0003ee46    10b5            push        {r4,lr}                                 
ram:0003ee48    3148            ldr         r0,[DAT_0003ef10]                       ;= 20002CB8h
ram:0003ee4a    4068            ldr         r0,[r0,#0x4]=>DAT_20002cbc              
ram:0003ee4c    0028            cmp         r0,#0x0                                 
ram:0003ee4e    05d0            beq         LAB_0003ee5c                            
ram:0003ee50    8047            blx         r0                                      
ram:0003ee52    0028            cmp         r0,#0x0                                 
ram:0003ee54    01d0            beq         LAB_0003ee5a                            
ram:0003ee56    fef749fa        bl          FUN_0003d2ec                            ;undefined FUN_0003d2ec(void)
                            LAB_0003ee5a:                 ;XREF[1,0]:   0003ee54
ram:0003ee5a    10bd            pop         {r4,pc}                                 
                            LAB_0003ee5c:                 ;XREF[1,0]:   0003ee4e
ram:0003ee5c    fff794ff        bl          FUN_0003ed88                            ;undefined FUN_0003ed88(void)
ram:0003ee60    10bd            pop         {r4,pc}                                 
                            ;************************************************************************************************
                            ;*                                           FUNCTION                                           *
                            ;************************************************************************************************
                            ;undefined4 FUN_0003ee62(int param_1, undefined param_2, undefined2 * param_3)
          ;param_1       int                 r0                      
          ;param_2       undefined           r1                      
          ;param_3       undefined2 *        r2                      
                                                          ;XREF[1,0]:   0003c254
ram:0003ee62    70b5            push        {r4,r5,r6,lr}                           
ram:0003ee64    0e46            mov         r6,param_2                              
ram:0003ee66    0546            mov         r5,param_1                              
ram:0003ee68    1446            mov         r4,param_3                              
ram:0003ee6a    1421            movs        param_2,#0x14                           
ram:0003ee6c    1046            mov         param_1,param_3                         
ram:0003ee6e    00f02cf9        bl          FUN_0003f0ca                            ;undefined FUN_0003f0ca(undefined * p...
ram:0003ee72    0120            movs        param_1,#0x1                            
ram:0003ee74    0021            movs        param_2,#0x0                            
ram:0003ee76    2080            strh        param_1,[r4,#0x0]                       
ram:0003ee78    2161            str         param_2,[r4,#0x10]                      
ram:0003ee7a    2173            strb        param_2,[r4,#0xc]                       
ram:0003ee7c    2672            strb        r6,[r4,#0x8]                            
ram:0003ee7e    6572            strb        r5,[r4,#0x9]                            
ram:0003ee80    002d            cmp         r5,#0x0                                 
ram:0003ee82    00d0            beq         LAB_0003ee86                            
ram:0003ee84    a072            strb        param_1,[r4,#0xa]                       
                            LAB_0003ee86:                 ;XREF[1,0]:   0003ee82
ram:0003ee86    0020            movs        param_1,#0x0                            
ram:0003ee88    70bd            pop         {r4,r5,r6,pc}                           
                            ;************************************************************************************************
                            ;*                                           FUNCTION                                           *
                            ;************************************************************************************************
                            ;undefined FUN_0003ee8a(void)
          ;local_c       undefined4          -c                      ;XREF[1,0]:   0003ee8e
          ;local_10      undefined4         -10                      ;XREF[1,0]:   0003ee90
                                                          ;XREF[1,0]:   0003c268
ram:0003ee8a    1cb5            push        {r2,r3,r4,lr}                           
ram:0003ee8c    2249            ldr         r1,[DAT_0003ef18]                       ;= 20002C00h
ram:0003ee8e    0191            str         r1=>DAT_20002c00,[sp,#local_c+0x10]     
ram:0003ee90    0091            str         r1=>DAT_20002c00,[sp,#0x0]=>local_10    
ram:0003ee92    6946            mov         r1,sp                                   
ram:0003ee94    60df            svc         0x60                                    
ram:0003ee96    1cbd            pop         {r2,r3,r4,pc}                           
                            ;************************************************************************************************
                            ;*                                           FUNCTION                                           *
                            ;************************************************************************************************
                            ;int FUN_0003ee98(uint param_1)
          ;param_1       uint                r0                      
                                                          ;XREF[1,0]:   0003ee20
ram:0003ee98    10b5            push        {r4,lr}                                 
ram:0003ee9a    0121            movs        r1,#0x1                                 
ram:0003ee9c    2028            cmp         param_1,#0x20                           
ram:0003ee9e    05da            bge         LAB_0003eeac                            
ram:0003eea0    1e4a            ldr         r2,[DAT_0003ef1c]                       ;= BCFF06FCh
ram:0003eea2    8140            lsls        r1,param_1                              
ram:0003eea4    1142            tst         r1,r2                                   
ram:0003eea6    01d1            bne         LAB_0003eeac                            
ram:0003eea8    1d48            ldr         param_1,[DAT_0003ef20]                  ;= 00002001h
ram:0003eeaa    10bd            pop         {r4,pc}                                 
                            LAB_0003eeac:                 ;XREF[2,0]:   0003ee9e,0003eea6
ram:0003eeac    8107            lsls        r1,param_1,#0x1e                        
ram:0003eeae    c90e            lsrs        r1,r1,#0x1b                             
ram:0003eeb0    0028            cmp         param_1,#0x0                            
ram:0003eeb2    08da            bge         LAB_0003eec6                            
ram:0003eeb4    0207            lsls        r2,param_1,#0x1c                        
ram:0003eeb6    120f            lsrs        r2,r2,#0x1c                             
ram:0003eeb8    083a            subs        r2,#0x8                                 
ram:0003eeba    9208            lsrs        r2,r2,#0x2                              
ram:0003eebc    194b            ldr         r3,[DAT_0003ef24]                       ;= E000ED00h
ram:0003eebe    9200            lsls        r2,r2,#0x2                              
ram:0003eec0    d218            adds        r2,r2,r3                                
ram:0003eec2    d269            ldr         r2,[r2,#0x1c]                           
ram:0003eec4    04e0            b           LAB_0003eed0                            
                            LAB_0003eec6:                 ;XREF[1,0]:   0003eeb2
ram:0003eec6    8208            lsrs        r2,param_1,#0x2                         
ram:0003eec8    174b            ldr         r3,[DAT_0003ef28]                       ;= E000E400h
ram:0003eeca    9200            lsls        r2,r2,#0x2                              
ram:0003eecc    d218            adds        r2,r2,r3                                
ram:0003eece    1268            ldr         r2,[r2,#0x0]                            
                            LAB_0003eed0:                 ;XREF[1,0]:   0003eec4
ram:0003eed0    ca40            lsrs        r2,r1                                   
ram:0003eed2    1106            lsls        r1,r2,#0x18                             
ram:0003eed4    890f            lsrs        r1,r1,#0x1e                             
ram:0003eed6    0429            cmp         r1,#0x4                                 
ram:0003eed8    12d2            bcs         LAB_0003ef00                            
ram:0003eeda    0029            cmp         r1,#0x0                                 
ram:0003eedc    10d0            beq         LAB_0003ef00                            
ram:0003eede    0229            cmp         r1,#0x2                                 
ram:0003eee0    0ed0            beq         LAB_0003ef00                            
ram:0003eee2    0b49            ldr         r1,[DAT_0003ef10]                       ;= 20002CB8h
ram:0003eee4    1431            adds        r1,#0x14                                
ram:0003eee6    4c68            ldr         r4,[r1,#0x4]=>DAT_20002cd0              
ram:0003eee8    c306            lsls        r3,param_1,#0x1b                        
ram:0003eeea    db0e            lsrs        r3,r3,#0x1b                             
ram:0003eeec    0122            movs        r2,#0x1                                 
ram:0003eeee    9a40            lsls        r2,r3                                   
ram:0003eef0    002c            cmp         r4,#0x0                                 
ram:0003eef2    08d0            beq         LAB_0003ef06                            
ram:0003eef4    4009            lsrs        param_1,param_1,#0x5                    
ram:0003eef6    8000            lsls        param_1,param_1,#0x2                    
ram:0003eef8    0b58            ldr         r3,[r1,param_1]=>DAT_20002ccc           
ram:0003eefa    1343            orrs        r3,r2                                   
ram:0003eefc    0b50            str         r3,[r1,param_1]=>DAT_20002ccc           
ram:0003eefe    04e0            b           LAB_0003ef0a                            
                            LAB_0003ef00:                 ;XREF[3,0]:   0003eed8,0003eedc,0003eee0
ram:0003ef00    0748            ldr         param_1,[DAT_0003ef20]                  ;= 00002001h
ram:0003ef02    401c            adds        param_1,param_1,#0x1                    
ram:0003ef04    10bd            pop         {r4,pc}                                 
                            LAB_0003ef06:                 ;XREF[1,0]:   0003eef2
ram:0003ef06    0948            ldr         param_1,[DAT_0003ef2c]                  ;= E000E100h
ram:0003ef08    0260            str         r2,[param_1,#0x0]=>DAT_e000e100         
                            LAB_0003ef0a:                 ;XREF[1,0]:   0003eefe
ram:0003ef0a    0020            movs        param_1,#0x0                            
ram:0003ef0c    10bd            pop         {r4,pc}                                 
ram:0003ef0e    0000            movs        r0,r0                                   
                            DAT_0003ef10:                 ;XREF[6,0]:   0003ed8a,0003ee0a,0003ee2a,0003ee3a
                                                          ;             0003ee48,0003eee2
ram:0003ef10    b82c0020        undefined4  20002CB8h                               
                            PTR_LAB_0003ed80+1+1_0003ef14:;XREF[1,0]:   0003ee12
ram:0003ef14    81ed0300        addr        LAB_0003ed80+1+1                        
                            DAT_0003ef18:                 ;XREF[1,0]:   0003ee8c
ram:0003ef18    002c0020        undefined4  20002C00h                               
                            DAT_0003ef1c:                 ;XREF[1,0]:   0003eea0
ram:0003ef1c    fc06ffbc        undefined4  BCFF06FCh                               
                            DAT_0003ef20:                 ;XREF[2,0]:   0003eea8,0003ef00
ram:0003ef20    01200000        undefined4  00002001h                               
                            DAT_0003ef24:                 ;XREF[1,0]:   0003eebc
ram:0003ef24    00ed00e0        undefined4  E000ED00h                               
                            DAT_0003ef28:                 ;XREF[1,0]:   0003eec8
ram:0003ef28    00e400e0        undefined4  E000E400h                               
                            DAT_0003ef2c:                 ;XREF[1,0]:   0003ef06
ram:0003ef2c    00e100e0        undefined4  E000E100h                               
                            ;************************************************************************************************
                            ;*                                           FUNCTION                                           *
                            ;************************************************************************************************
                            ;undefined LAB_0003ef30+1(undefined4 param_1, int param_2)
          ;param_1       undefined4          r0                      
          ;param_2       int                 r1                      
                                                          ;XREF[0,2]:   0003ef46,0003ef50
ram:0003ef30    10b5            push        {r4,lr}                                 
ram:0003ef32    0029            cmp         param_2,#0x0                            
ram:0003ef34    02d0            beq         LAB_0003ef3c                            
ram:0003ef36    0020            movs        param_1,#0x0                            
ram:0003ef38    fef7d8f9        bl          FUN_0003d2ec                            ;undefined FUN_0003d2ec(void)
                            LAB_0003ef3c:                 ;XREF[1,0]:   0003ef34
ram:0003ef3c    fff724ff        bl          FUN_0003ed88                            ;undefined FUN_0003ed88(void)
ram:0003ef40    10bd            pop         {r4,pc}                                 
                            ;************************************************************************************************
                            ;*                                           FUNCTION                                           *
                            ;************************************************************************************************
                            ;undefined LAB_0003ef42+1(void)
                                                          ;XREF[0,1]:   0003c3b4
ram:0003ef42    10b5            push        {r4,lr}                                 
ram:0003ef44    0021            movs        r1,#0x0                                 
ram:0003ef46    024a            ldr         r2=>LAB_0003ef30...,[PTR_LAB_0003ef30...;= 0003ef31
ram:0003ef48    0846            mov         r0,r1                                   
ram:0003ef4a    fef7fdf9        bl          FUN_0003d348                            ;undefined4 FUN_0003d348(undefined4 *...
ram:0003ef4e    10bd            pop         {r4,pc}                                 
                            PTR_LAB_0003ef30+1+1_0003ef50:;XREF[1,0]:   0003ef46
ram:0003ef50    31ef0300        addr        LAB_0003ef30+1+1                        
                            ;************************************************************************************************
                            ;*                                           FUNCTION                                           *
                            ;************************************************************************************************
                            ;undefined FUNC_Reset_0003ef54(void)
                                                          ;XREF[0,1]:   0003c004
ram:0003ef54    0321            movs        r1,#0x3                                 
ram:0003ef56    0948            ldr         r0,[DAT_0003ef7c]                       ;= 40000524h
ram:0003ef58    0268            ldr         r2,[r0,#0x0]=>DAT_40000524              
ram:0003ef5a    0a43            orrs        r2,r1                                   
ram:0003ef5c    0260            str         r2,[r0,#0x0]=>DAT_40000524              
ram:0003ef5e    0848            ldr         r0,[DAT_0003ef80]                       ;= 40000554h
ram:0003ef60    0268            ldr         r2,[r0,#0x0]=>DAT_40000554              
ram:0003ef62    0a43            orrs        r2,r1                                   
ram:0003ef64    0260            str         r2,[r0,#0x0]=>DAT_40000554              
ram:0003ef66    0748            ldr         r0,[PTR_FUN_0003ef8c+1_0003ef84]        ;= 0003ef8d
ram:0003ef68    8047            blx         r0=>FUN_0003ef8c                        ;undefined FUN_0003ef8c(void)
ram:0003ef6a    0748            ldr         r0,[PTR_LAB_0003c0c0+1+1_0003ef88]      ;= 0003c0c1
ram:0003ef6c    0047            bx          r0=>LAB_0003c0c0+1                      ;undefined LAB_0003c0c0+1(void)
                            ;************************************************************************************************
                            ;*                                           FUNCTION                                           *
                            ;************************************************************************************************
                            ;undefined FUNC_NMI_0003ef6e(void)
                                                          ;XREF[1,1]:   0003ef6e,0003c008
ram:0003ef6e    fee7            b           FUNC_NMI_0003ef6e                       
                            ;************************************************************************************************
                            ;*                                           FUNCTION                                           *
                            ;************************************************************************************************
                            ;undefined FUNC_HardFault_0003ef70(void)
                                                          ;XREF[1,1]:   0003ef70,0003c00c
ram:0003ef70    fee7            b           FUNC_HardFault_0003ef70                 
                            ;************************************************************************************************
                            ;*                                           FUNCTION                                           *
                            ;************************************************************************************************
                            ;undefined FUN_0003ef72(void)
                                                          ;XREF[1,0]:   0003ef72
ram:0003ef72    fee7            b           FUN_0003ef72                            
                            ;************************************************************************************************
                            ;*                                           FUNCTION                                           *
                            ;************************************************************************************************
                            ;undefined FUNC_PendSV_0003ef74(void)
                                                          ;XREF[1,1]:   0003ef74,0003c038
ram:0003ef74    fee7            b           FUNC_PendSV_0003ef74                    
                            ;************************************************************************************************
                            ;*                                           FUNCTION                                           *
                            ;************************************************************************************************
                            ;undefined FUNC_SysTick_0003ef76(void)
                                                          ;XREF[1,1]:   0003ef76,0003c03c
ram:0003ef76    fee7            b           FUNC_SysTick_0003ef76                   
                            ;************************************************************************************************
                            ;*                                           FUNCTION                                           *
                            ;************************************************************************************************
                            ;undefined FUNC_IRQ_0003ef78(void)
                                                          ;XREF[1,22]:  0003ef78,0003c040,0003c044,0003c048
                                                          ;             0003c04c,0003c050,0003c058,0003c05c
                                                          ;             0003c060,0003c064,0003c068,0003c06c
                                                          ;             0003c070,0003c074,0003c078,0003c07c
                                                          ;             0003c080,0003c088,0003c08c,0003c094
                                                          ;             0003c09c,0003c0a0,0003c0a4
ram:0003ef78    fee7            b           FUNC_IRQ_0003ef78                       
ram:0003ef7a    0000            movs        r0,r0                                   
                            DAT_0003ef7c:                 ;XREF[1,0]:   0003ef56
ram:0003ef7c    24050040        undefined4  40000524h                               
                            DAT_0003ef80:                 ;XREF[1,0]:   0003ef5e
ram:0003ef80    54050040        undefined4  40000554h                               
                            PTR_FUN_0003ef8c+1_0003ef84:  ;XREF[1,0]:   0003ef66
ram:0003ef84    8def0300        addr        FUN_0003ef8c+1                          
                            PTR_LAB_0003c0c0+1+1_0003ef88:;XREF[1,0]:   0003ef6a
ram:0003ef88    c1c00300        addr        LAB_0003c0c0+1+1                        
                            ;************************************************************************************************
                            ;*                                           FUNCTION                                           *
                            ;************************************************************************************************
                            ;undefined FUN_0003ef8c(void)
                                                          ;XREF[1,1]:   0003ef68,0003ef84
ram:0003ef8c    10b5            push        {r4,lr}                                 
ram:0003ef8e    00f03ef8        bl          FUN_0003f00e                            ;undefined4 FUN_0003f00e(void)
ram:0003ef92    0028            cmp         r0,#0x0                                 
ram:0003ef94    05d0            beq         LAB_0003efa2                            
ram:0003ef96    2f49            ldr         r1,[DAT_0003f054]                       ;= 40000500h
ram:0003ef98    2d48            ldr         r0,[DAT_0003f050]                       ;= C007FFDFh
ram:0003ef9a    4860            str         r0,[r1,#offset DAT_40000504 &0xff]      
ram:0003ef9c    c813            asrs        r0,r1,#0xf                              
ram:0003ef9e    2e49            ldr         r1,[DAT_0003f058]                       ;= 40006C00h
ram:0003efa0    8861            str         r0,[r1,#offset DAT_40006c18 &0xff]      
                            LAB_0003efa2:                 ;XREF[1,0]:   0003ef94
ram:0003efa2    2e48            ldr         r0,[DAT_0003f05c]                       ;= F0000FC0h
ram:0003efa4    018c            ldrh        r1,[r0,#0x20]=>DAT_f0000fe0             
ram:0003efa6    c9b2            uxtb        r1,r1                                   
ram:0003efa8    0129            cmp         r1,#0x1                                 
ram:0003efaa    0bd1            bne         LAB_0003efc4                            
ram:0003efac    828c            ldrh        r2,[r0,#0x24]=>DAT_f0000fe4             
ram:0003efae    1207            lsls        r2,r2,#0x1c                             
ram:0003efb0    08d1            bne         LAB_0003efc4                            
ram:0003efb2    028d            ldrh        r2,[r0,#0x28]=>DAT_f0000fe8             
ram:0003efb4    1206            lsls        r2,r2,#0x18                             
ram:0003efb6    120f            lsrs        r2,r2,#0x1c                             
ram:0003efb8    042a            cmp         r2,#0x4                                 
ram:0003efba    03d1            bne         LAB_0003efc4                            
ram:0003efbc    828d            ldrh        r2,[r0,#0x2c]=>DAT_f0000fec             
ram:0003efbe    1206            lsls        r2,r2,#0x18                             
ram:0003efc0    120f            lsrs        r2,r2,#0x1c                             
ram:0003efc2    0ad0            beq         LAB_0003efda                            
                            LAB_0003efc4:                 ;XREF[3,0]:   0003efaa,0003efb0,0003efba
ram:0003efc4    0129            cmp         r1,#0x1                                 
ram:0003efc6    21d1            bne         LAB_0003f00c                            
ram:0003efc8    818c            ldrh        r1,[r0,#0x24]=>DAT_f0000fe4             
ram:0003efca    0907            lsls        r1,r1,#0x1c                             
ram:0003efcc    1ed1            bne         LAB_0003f00c                            
                            LAB_0003efce:                 ;XREF[1,0]:   0003efe0
ram:0003efce    018d            ldrh        r1,[r0,#0x28]=>DAT_f0000fe8             
ram:0003efd0    0906            lsls        r1,r1,#0x18                             
ram:0003efd2    090f            lsrs        r1,r1,#0x1c                             
ram:0003efd4    0a29            cmp         r1,#0xa                                 
ram:0003efd6    04d0            beq         LAB_0003efe2                            
ram:0003efd8    07e0            b           LAB_0003efea                            
                            LAB_0003efda:                 ;XREF[1,0]:   0003efc2
ram:0003efda    214a            ldr         r2,[DAT_0003f060]                       ;= 40000600h
ram:0003efdc    0121            movs        r1,#0x1                                 
ram:0003efde    9160            str         r1,[r2,#offset DAT_40000608 &0xff]      
ram:0003efe0    f5e7            b           LAB_0003efce                            
                            LAB_0003efe2:                 ;XREF[1,0]:   0003efd6
ram:0003efe2    828d            ldrh        r2,[r0,#0x2c]=>DAT_f0000fec             
ram:0003efe4    1206            lsls        r2,r2,#0x18                             
ram:0003efe6    120f            lsrs        r2,r2,#0x1c                             
ram:0003efe8    05d0            beq         LAB_0003eff6                            
                            LAB_0003efea:                 ;XREF[1,0]:   0003efd8
ram:0003efea    0d29            cmp         r1,#0xd                                 
ram:0003efec    0ed1            bne         LAB_0003f00c                            
ram:0003efee    808d            ldrh        r0,[r0,#0x2c]=>DAT_f0000fec             
ram:0003eff0    0006            lsls        r0,r0,#0x18                             
ram:0003eff2    000f            lsrs        r0,r0,#0x1c                             
ram:0003eff4    0ad1            bne         LAB_0003f00c                            
                            LAB_0003eff6:                 ;XREF[1,0]:   0003efe8
ram:0003eff6    1b48            ldr         r0=>DAT_4006ec00,[DAT_0003f064]         ;= 4006EC00h
ram:0003eff8    0168            ldr         r1,[r0,#0x0]=>DAT_4006ec00              
ram:0003effa    0129            cmp         r1,#0x1                                 
ram:0003effc    04d0            beq         LAB_0003f008                            
ram:0003effe    1a49            ldr         r1,[DAT_0003f068]                       ;= 00009375h
ram:0003f000    0160            str         r1,[r0,#0x0]=>DAT_4006ec00              
                            LAB_0003f002:                 ;XREF[1,0]:   0003f006
ram:0003f002    0168            ldr         r1,[r0,#0x0]=>DAT_4006ec00              
ram:0003f004    0129            cmp         r1,#0x1                                 
ram:0003f006    fcd1            bne         LAB_0003f002                            
                            LAB_0003f008:                 ;XREF[1,0]:   0003effc
ram:0003f008    c021            movs        r1,#0xc0                                
ram:0003f00a    4161            str         r1,[r0,#offset DAT_4006ec14 &0xff]      
                            LAB_0003f00c:                 ;XREF[4,0]:   0003efc6,0003efcc,0003efec,0003eff4
ram:0003f00c    10bd            pop         {r4,pc}                                 
                            ;************************************************************************************************
                            ;*                                           FUNCTION                                           *
                            ;************************************************************************************************
                            ;undefined4 FUN_0003f00e(void)
                                                          ;XREF[1,0]:   0003ef8e
ram:0003f00e    1348            ldr         r0,[DAT_0003f05c]                       ;= F0000FC0h
ram:0003f010    018c            ldrh        r1,[r0,#0x20]=>DAT_f0000fe0             
ram:0003f012    c9b2            uxtb        r1,r1                                   
ram:0003f014    0129            cmp         r1,#0x1                                 
ram:0003f016    17d1            bne         LAB_0003f048                            
ram:0003f018    818c            ldrh        r1,[r0,#0x24]=>DAT_f0000fe4             
ram:0003f01a    0907            lsls        r1,r1,#0x1c                             
ram:0003f01c    14d1            bne         LAB_0003f048                            
ram:0003f01e    018d            ldrh        r1,[r0,#0x28]=>DAT_f0000fe8             
ram:0003f020    0906            lsls        r1,r1,#0x18                             
ram:0003f022    0a0f            lsrs        r2,r1,#0x1c                             
ram:0003f024    03d1            bne         LAB_0003f02e                            
ram:0003f026    828d            ldrh        r2,[r0,#0x2c]=>DAT_f0000fec             
ram:0003f028    1206            lsls        r2,r2,#0x18                             
ram:0003f02a    120f            lsrs        r2,r2,#0x1c                             
ram:0003f02c    0ed0            beq         LAB_0003f04c                            
                            LAB_0003f02e:                 ;XREF[1,0]:   0003f024
ram:0003f02e    090f            lsrs        r1,r1,#0x1c                             
ram:0003f030    0129            cmp         r1,#0x1                                 
ram:0003f032    03d1            bne         LAB_0003f03c                            
ram:0003f034    828d            ldrh        r2,[r0,#0x2c]=>DAT_f0000fec             
ram:0003f036    1206            lsls        r2,r2,#0x18                             
ram:0003f038    120f            lsrs        r2,r2,#0x1c                             
ram:0003f03a    07d0            beq         LAB_0003f04c                            
                            LAB_0003f03c:                 ;XREF[1,0]:   0003f032
ram:0003f03c    0329            cmp         r1,#0x3                                 
ram:0003f03e    03d1            bne         LAB_0003f048                            
ram:0003f040    808d            ldrh        r0,[r0,#0x2c]=>DAT_f0000fec             
ram:0003f042    0006            lsls        r0,r0,#0x18                             
ram:0003f044    000f            lsrs        r0,r0,#0x1c                             
ram:0003f046    01d0            beq         LAB_0003f04c                            
                            LAB_0003f048:                 ;XREF[3,0]:   0003f016,0003f01c,0003f03e
ram:0003f048    0020            movs        r0,#0x0                                 
ram:0003f04a    7047            bx          lr                                      
                            LAB_0003f04c:                 ;XREF[3,0]:   0003f02c,0003f03a,0003f046
ram:0003f04c    0120            movs        r0,#0x1                                 
ram:0003f04e    7047            bx          lr                                      
                            DAT_0003f050:                 ;XREF[1,0]:   0003ef98
ram:0003f050    dfff07c0        undefined4  C007FFDFh                               
                            DAT_0003f054:                 ;XREF[1,0]:   0003ef96
ram:0003f054    00050040        undefined4  40000500h                               
                            DAT_0003f058:                 ;XREF[1,0]:   0003ef9e
ram:0003f058    006c0040        undefined4  40006C00h                               
                            DAT_0003f05c:                 ;XREF[2,0]:   0003efa2,0003f00e
ram:0003f05c    c00f00f0        undefined4  F0000FC0h                               
                            DAT_0003f060:                 ;XREF[1,0]:   0003efda
ram:0003f060    00060040        undefined4  40000600h                               
                            DAT_0003f064:                 ;XREF[1,0]:   0003eff6
ram:0003f064    00ec0640        undefined4  4006EC00h                               
                            DAT_0003f068:                 ;XREF[1,0]:   0003effe
ram:0003f068    75930000        undefined4  00009375h                               
                            ;************************************************************************************************
                            ;*                                           FUNCTION                                           *
                            ;************************************************************************************************
                            ;int FUN_0003f06c(uint param_1, uint param_2)
          ;param_1       uint                r0                      
          ;param_2       uint                r1                      
                                                          ;XREF[1,0]:   0003d10c
ram:0003f06c    30b5            push        {r4,r5,lr}                              
ram:0003f06e    0b46            mov         r3,param_2                              
ram:0003f070    0146            mov         param_2,param_1                         
ram:0003f072    0020            movs        param_1,#0x0                            
ram:0003f074    2022            movs        r2,#0x20                                
ram:0003f076    0124            movs        r4,#0x1                                 
ram:0003f078    09e0            b           LAB_0003f08e                            
                            LAB_0003f07a:                 ;XREF[1,0]:   0003f094
ram:0003f07a    0d46            mov         r5,param_2                              
ram:0003f07c    d540            lsrs        r5,r2                                   
ram:0003f07e    9d42            cmp         r5,r3                                   
ram:0003f080    05d3            bcc         LAB_0003f08e                            
ram:0003f082    1d46            mov         r5,r3                                   
ram:0003f084    9540            lsls        r5,r2                                   
ram:0003f086    491b            subs        param_2,param_2,r5                      
ram:0003f088    2546            mov         r5,r4                                   
ram:0003f08a    9540            lsls        r5,r2                                   
ram:0003f08c    4019            adds        param_1,param_1,r5                      
                            LAB_0003f08e:                 ;XREF[2,0]:   0003f078,0003f080
ram:0003f08e    1546            mov         r5,r2                                   
ram:0003f090    521e            subs        r2,r2,#0x1                              
ram:0003f092    002d            cmp         r5,#0x0                                 
ram:0003f094    f1dc            bgt         LAB_0003f07a                            
ram:0003f096    30bd            pop         {r4,r5,pc}                              
                            ;************************************************************************************************
                            ;*                                           FUNCTION                                           *
                            ;************************************************************************************************
                            ;undefined FUN_0003f098(undefined4 * param_1, undefined4 * param_2, uint param_3)
          ;param_1       undefined4 *        r0                      
          ;param_2       undefined4 *        r1                      
          ;param_3       uint                r2                      
                                                          ;XREF[19,0]:  0003c1aa,0003c1ec,0003c7da,0003c970
                                                          ;             0003c9f2,0003ca78,0003ca8c,0003cb68
                                                          ;             0003cb98,0003d3ba,0003dd72,0003de48
                                                          ;             0003df88,0003e30e,0003e318,0003e322
                                                          ;             0003e342,0003e89c,0003eb2c
ram:0003f098    0346            mov         r3,param_1                              
ram:0003f09a    0b43            orrs        r3,param_2                              
ram:0003f09c    9b07            lsls        r3,r3,#0x1e                             
ram:0003f09e    03d0            beq         LAB_0003f0a8                            
ram:0003f0a0    09e0            b           LAB_0003f0b6                            
                            LAB_0003f0a2:                 ;XREF[1,0]:   0003f0aa
ram:0003f0a2    08c9            ldmia       param_2!,{r3}                           
ram:0003f0a4    121f            subs        param_3,param_3,#0x4                    
ram:0003f0a6    08c0            stmia       param_1!,{r3}                           
                            LAB_0003f0a8:                 ;XREF[1,0]:   0003f09e
ram:0003f0a8    042a            cmp         param_3,#0x4                            
ram:0003f0aa    fad2            bcs         LAB_0003f0a2                            
ram:0003f0ac    03e0            b           LAB_0003f0b6                            
                            LAB_0003f0ae:                 ;XREF[1,0]:   0003f0b8
ram:0003f0ae    0b78            ldrb        r3,[param_2,#0x0]                       
ram:0003f0b0    0370            strb        r3,[param_1,#0x0]                       
ram:0003f0b2    401c            adds        param_1,param_1,#0x1                    
ram:0003f0b4    491c            adds        param_2,param_2,#0x1                    
                            LAB_0003f0b6:                 ;XREF[2,0]:   0003f0a0,0003f0ac
ram:0003f0b6    521e            subs        param_3,param_3,#0x1                    
ram:0003f0b8    f9d2            bcs         LAB_0003f0ae                            
ram:0003f0ba    7047            bx          lr                                      
                            ;************************************************************************************************
                            ;*                                           FUNCTION                                           *
                            ;************************************************************************************************
                            ;undefined FUN_0003f0bc(undefined * param_1, int param_2, undefined param_3)
          ;param_1       undefined *         r0                      
          ;param_2       int                 r1                      
          ;param_3       undefined           r2                      
                                                          ;XREF[2,0]:   0003f0cc,0003f0d8
ram:0003f0bc    d2b2            uxtb        param_3,param_3                         
ram:0003f0be    01e0            b           LAB_0003f0c4                            
                            LAB_0003f0c0:                 ;XREF[1,0]:   0003f0c6
ram:0003f0c0    0270            strb        param_3,[param_1,#0x0]                  
ram:0003f0c2    401c            adds        param_1,param_1,#0x1                    
                            LAB_0003f0c4:                 ;XREF[1,0]:   0003f0be
ram:0003f0c4    491e            subs        param_2,param_2,#0x1                    
ram:0003f0c6    fbd2            bcs         LAB_0003f0c0                            
ram:0003f0c8    7047            bx          lr                                      
                            ;************************************************************************************************
                            ;*                                           FUNCTION                                           *
                            ;************************************************************************************************
                            ;undefined FUN_0003f0ca(undefined * param_1, int param_2)
          ;param_1       undefined *         r0                      
          ;param_2       int                 r1                      
                                                          ;XREF[11,0]:  0003cf0e,0003cf60,0003cf92,0003cffe
                                                          ;             0003d02e,0003d082,0003e14c,0003e188
                                                          ;             0003e47e,0003e8f4,0003ee6e
ram:0003f0ca    0022            movs        r2,#0x0                                 
ram:0003f0cc    f6e7            b           FUN_0003f0bc                            ;undefined FUN_0003f0bc(undefined * p...
                            ;************************************************************************************************
                            ;*                                           FUNCTION                                           *
                            ;************************************************************************************************
                            ;undefined * FUN_0003f0ce(undefined * param_1, undefined param_2, int param_3)
          ;param_1       undefined *         r0                      
          ;param_2       undefined           r1                      
          ;param_3       int                 r2                      
ram:0003f0ce    10b5            push        {r4,lr}                                 
ram:0003f0d0    1346            mov         r3,param_3                              
ram:0003f0d2    0a46            mov         param_3,param_2                         
ram:0003f0d4    0446            mov         r4,param_1                              
ram:0003f0d6    1946            mov         param_2,r3                              
ram:0003f0d8    fff7f0ff        bl          FUN_0003f0bc                            ;undefined FUN_0003f0bc(undefined * p...
ram:0003f0dc    2046            mov         param_1,r4                              
ram:0003f0de    10bd            pop         {r4,pc}                                 
                            ;************************************************************************************************
                            ;*                                           FUNCTION                                           *
                            ;************************************************************************************************
                            ;undefined FUN_0003f0e0(int param_1, int param_2, uint param_3)
          ;param_1       int                 r0                      
          ;param_2       int                 r1                      
          ;param_3       uint                r2                      
                                                          ;XREF[1,0]:   0003e1ae
ram:0003f0e0    30b5            push        {r4,r5,lr}                              
ram:0003f0e2    0446            mov         r4,param_1                              
ram:0003f0e4    0020            movs        param_1,#0x0                            
ram:0003f0e6    0346            mov         r3,param_1                              
ram:0003f0e8    00e0            b           LAB_0003f0ec                            
                            LAB_0003f0ea:                 ;XREF[1,0]:   0003f0f6
ram:0003f0ea    5b1c            adds        r3,r3,#0x1                              
                            LAB_0003f0ec:                 ;XREF[1,0]:   0003f0e8
ram:0003f0ec    9342            cmp         r3,param_3                              
ram:0003f0ee    03d2            bcs         LAB_0003f0f8                            
ram:0003f0f0    e05c            ldrb        param_1,[r4,r3]                         
ram:0003f0f2    cd5c            ldrb        r5,[param_2,r3]                         
ram:0003f0f4    401b            subs        param_1,param_1,r5                      
ram:0003f0f6    f8d0            beq         LAB_0003f0ea                            
                            LAB_0003f0f8:                 ;XREF[1,0]:   0003f0ee
ram:0003f0f8    30bd            pop         {r4,r5,pc}                              
                            ;************************************************************************************************
                            ;*                                           FUNCTION                                           *
                            ;************************************************************************************************
                            ;uint FUN_0003f0fa(int param_1, undefined4 param_2, uint param_3)
          ;param_1       int                 r0                      
          ;param_2       undefined4          r1                      
          ;param_3       uint                r2                      
                                                          ;XREF[1,0]:   0003e644
ram:0003f0fa    0321            movs        param_2,#0x3                            
ram:0003f0fc    001d            adds        param_1,param_1,#0x4                    
                            LAB_0003f0fe:                 ;XREF[1,0]:   0003f108
ram:0003f0fe    401e            subs        param_1,param_1,#0x1                    
ram:0003f100    0378            ldrb        r3,[param_1,#0x0]                       
ram:0003f102    1202            lsls        param_3,param_3,#0x8                    
ram:0003f104    1a43            orrs        param_3,r3                              
ram:0003f106    491e            subs        param_2,param_2,#0x1                    
ram:0003f108    f9d5            bpl         LAB_0003f0fe                            
ram:0003f10a    1046            mov         param_1,param_3                         
ram:0003f10c    7047            bx          lr                                      
ram:0003f10e    0000            movs        r0,r0                                   
                            ;************************************************************************************************
                            ;*                                           FUNCTION                                           *
                            ;************************************************************************************************
                            ;undefined FUN_0003f110(void)
                                                          ;XREF[1,0]:   0003c0c4
ram:0003f110    064c            ldr         r4,[PTR_PTR_DAT_0003f12c]               ;= 0003f1f8
ram:0003f112    0125            movs        r5,#0x1                                 
ram:0003f114    064e            ldr         r6,[PTR_DAT_0003f130]                   ;= 0003f218
ram:0003f116    05e0            b           LAB_0003f124                            
                            LAB_0003f118:                 ;XREF[1,0]:   0003f126
ram:0003f118    e368            ldr         r3,[r4,#0xc]=>->thunk_FUN_0003f156      ;= 0003f14e
                                                          ; FWD[5,0]:   0003f1f8,0003f1fc,0003f200,0003f218
                                                          ;             20002c00
ram:0003f11a    07cc            ldmia       r4!,{r0,r1,r2}=>PTR_DAT_0003f1f8        ;= 0003f218
                                                                                    ;= 20002C00h
                                                                                    ;= 000000D8h
ram:0003f11c    2b43            orrs        r3,r5                                   
ram:0003f11e    0c3c            subs        r4,#0xc                                 
ram:0003f120    9847            blx         r3=>thunk_FUN_0003f156                  ;undefined thunk_FUN_0003f156(undefin...
ram:0003f122    1034            adds        r4,#0x10                                
                            LAB_0003f124:                 ;XREF[1,0]:   0003f116
ram:0003f124    b442            cmp         r4,r6                                   
ram:0003f126    f7d3            bcc         LAB_0003f118                            
ram:0003f128    fcf7ceff        bl          thunk_FUN_0003c286                      ;undefined thunk_FUN_0003c286(void)
                            PTR_PTR_DAT_0003f12c:         ;XREF[1,0]:   0003f110
ram:0003f12c    f8f10300        addr        PTR_DAT_0003f1f8                        ;= 0003f218
                            PTR_DAT_0003f130:             ;XREF[1,0]:   0003f114
ram:0003f130    18f20300        addr        DAT_0003f218                            
                            ;************************************************************************************************
                            ;*                                           FUNCTION                                           *
                            ;************************************************************************************************
                            ;undefined __ARM_common_switch8(void)
                                                          ;XREF[2,0]:   0003cc86,0003e074
ram:0003f134    30b4            push        {r4,r5}                                 
ram:0003f136    7446            mov         r4,lr                                   
ram:0003f138    641e            subs        r4,r4,#0x1                              
ram:0003f13a    2578            ldrb        r5,[r4,#0x0]                            
ram:0003f13c    641c            adds        r4,r4,#0x1                              
ram:0003f13e    ab42            cmp         r3,r5                                   
ram:0003f140    00d2            bcs         FUN_0003f144                            
ram:0003f142    1d46            mov         r5,r3                                   
                            ;************************************************************************************************
                            ;*                                           FUNCTION                                           *
                            ;************************************************************************************************
                            ;undefined FUN_0003f144(void)
                                                          ;XREF[1,0]:   0003f140
ram:0003f144    635d            ldrb        r3,[r4,r5]                              
ram:0003f146    5b00            lsls        r3,r3,#0x1                              
ram:0003f148    e318            adds        r3,r4,r3                                
ram:0003f14a    30bc            pop         {r4,r5}                                 
ram:0003f14c    1847            bx          r3                                      
                            ;************************************************************************************************
                            ;*                                           FUNCTION                                           *
                            ;************************************************************************************************
                            ;undefined thunk_FUN_0003f156(undefined4 * param_1, undefined4 * param_2, int param_3)
          ;param_1       undefined4 *        r0                      
          ;param_2       undefined4 *        r1                      
          ;param_3       int                 r2                      
                                                          ;XREF[2,0]:   0003f120,0003f204
ram:0003f14e    02e0            b           FUN_0003f156                            
                            LAB_0003f150:                 ;XREF[1,0]:   0003f158
ram:0003f150    08c8            ldmia       param_1!,{r3}                           
ram:0003f152    121f            subs        param_3,param_3,#0x4                    
ram:0003f154    08c1            stmia       param_2!,{r3}                           
                            ;************************************************************************************************
                            ;*                                           FUNCTION                                           *
                            ;************************************************************************************************
                            ;undefined FUN_0003f156(undefined4 * param_1, undefined4 * param_2, int param_3)
          ;param_1       undefined4 *        r0                      
          ;param_2       undefined4 *        r1                      
          ;param_3       int                 r2                      
                                                          ;XREF[1,0]:   0003f14e
ram:0003f156    002a            cmp         param_3,#0x0                            
ram:0003f158    fad1            bne         LAB_0003f150                            
ram:0003f15a    7047            bx          lr                                      
ram:0003f15c    7047            bx          lr                                      
ram:0003f15e    0020            movs        r0,#0x0                                 
ram:0003f160    01e0            b           LAB_0003f166                            
                            LAB_0003f162:                 ;XREF[1,0]:   0003f168
ram:0003f162    01c1            stmia       r1!,{r0}                                
ram:0003f164    121f            subs        r2,r2,#0x4                              
                            LAB_0003f166:                 ;XREF[1,0]:   0003f160
ram:0003f166    002a            cmp         r2,#0x0                                 
ram:0003f168    fbd1            bne         LAB_0003f162                            
ram:0003f16a    7047            bx          lr                                      
                            DAT_0003f16c:                 ;XREF[2,0]:   0003c218,0003c3b0
ram:0003f16c    01000007        undefined4  07000001h                               
                            DAT_0003f170:                 ;XREF[1,0]:   0003c210
ram:0003f170    02000000        undefined4  00000002h                               
                            DAT_0003f174:                 ;XREF[1,0]:   0003c210
ram:0003f174    00000000        undefined4  00000000h                               
                            DAT_0003f178:                 ;XREF[1,0]:   0003c210
ram:0003f178    00000000        undefined4  00000000h                               
                            DAT_0003f17c:                 ;XREF[1,0]:   0003c210
ram:0003f17c    00000000        undefined4  00000000h                               
                            DAT_0003f180:                 ;XREF[6,0]:   0003caaa,0003cab6,0003cb00,0003cb2a
                                                          ;             0003cb7c,0003cbc8
ram:0003f180    38300020        undefined4  20003038h                               
                            DAT_0003f184:                 ;XREF[2,0]:   0003cd2e,0003cfd8
ram:0003f184    23d1bcea        undefined4  EABCD123h                               
                            DAT_0003f188:                 ;XREF[1,0]:   0003cd2e
ram:0003f188    5f782315        undefined4  1523785Fh                               
                            DAT_0003f18c:                 ;XREF[1,0]:   0003cd2e
ram:0003f18c    deef1212        undefined4  1212EFDEh                               
                            DAT_0003f190:                 ;XREF[1,0]:   0003cd2e
ram:0003f190    00000000        undefined4  00000000h                               
                            DAT_0003f194:                 ;XREF[2,0]:   0003dc8a,0003ddc4
ram:0003f194    01db0300        undefined4  0003DB01h                               ;?  ->  0003db01
                            DAT_0003f198:                 ;XREF[1,0]:   0003dc8a
ram:0003f198    00000000        undefined4  00000000h                               
                            DAT_0003f19c:                 ;XREF[1,0]:   0003dc8a
ram:0003f19c    00000000        undefined4  00000000h                               
                            DAT_0003f1a0:                 ;XREF[1,0]:   0003dd6e
ram:0003f1a0    02              ??          02h                                     
ram:0003f1a1    00              ??          00h                                     
ram:0003f1a2    00              ??          00h                                     
ram:0003f1a3    00              ??          00h                                     
ram:0003f1a4    00              ??          00h                                     
ram:0003f1a5    00              ??          00h                                     
ram:0003f1a6    00              ??          00h                                     
ram:0003f1a7    00              ??          00h                                     
ram:0003f1a8    00              ??          00h                                     
ram:0003f1a9    00              ??          00h                                     
ram:0003f1aa    00              ??          00h                                     
ram:0003f1ab    00              ??          00h                                     
ram:0003f1ac    00              ??          00h                                     
ram:0003f1ad    00              ??          00h                                     
ram:0003f1ae    00              ??          00h                                     
ram:0003f1af    00              ??          00h                                     
ram:0003f1b0    00              ??          00h                                     
ram:0003f1b1    00              ??          00h                                     
ram:0003f1b2    00              ??          00h                                     
ram:0003f1b3    00              ??          00h                                     
                            DAT_0003f1b4:                 ;XREF[1,0]:   0003e570
ram:0003f1b4    03000000        undefined4  00000003h                               
ram:0003f1b8    00              ??          00h                                     
ram:0003f1b9    00              ??          00h                                     
ram:0003f1ba    00              ??          00h                                     
ram:0003f1bb    00              ??          00h                                     
                            DAT_0003f1bc:                 ;XREF[1,0]:   0003e572
ram:0003f1bc    00000000        undefined4  00000000h                               
                            DAT_0003f1c0:                 ;XREF[2,0]:   0003e33e,0003e65c
ram:0003f1c0    05              ??          05h                                     
ram:0003f1c1    00              ??          00h                                     
ram:0003f1c2    00              ??          00h                                     
ram:0003f1c3    00              ??          00h                                     
ram:0003f1c4    00              ??          00h                                     
ram:0003f1c5    00              ??          00h                                     
ram:0003f1c6    00              ??          00h                                     
ram:0003f1c7    00              ??          00h                                     
ram:0003f1c8    00              ??          00h                                     
ram:0003f1c9    00              ??          00h                                     
ram:0003f1ca    00              ??          00h                                     
ram:0003f1cb    00              ??          00h                                     
ram:0003f1cc    00              ??          00h                                     
ram:0003f1cd    00              ??          00h                                     
ram:0003f1ce    00              ??          00h                                     
ram:0003f1cf    00              ??          00h                                     
ram:0003f1d0    00              ??          00h                                     
ram:0003f1d1    00              ??          00h                                     
ram:0003f1d2    00              ??          00h                                     
ram:0003f1d3    00              ??          00h                                     
                            DAT_0003f1d4:                 ;XREF[6,0]:   0003e84a,0003e85e,0003e98e,0003e9a2
                                                          ;             0003eb7e,0003ebd8
ram:0003f1d4    5c330020        undefined4  2000335Ch                               
                            DAT_0003f1d8:                 ;XREF[1,0]:   0003e898
ram:0003f1d8    04              ??          04h                                     
ram:0003f1d9    00              ??          00h                                     
ram:0003f1da    00              ??          00h                                     
ram:0003f1db    00              ??          00h                                     
ram:0003f1dc    00              ??          00h                                     
ram:0003f1dd    00              ??          00h                                     
ram:0003f1de    00              ??          00h                                     
ram:0003f1df    00              ??          00h                                     
ram:0003f1e0    00              ??          00h                                     
ram:0003f1e1    00              ??          00h                                     
ram:0003f1e2    00              ??          00h                                     
ram:0003f1e3    00              ??          00h                                     
ram:0003f1e4    00              ??          00h                                     
ram:0003f1e5    00              ??          00h                                     
ram:0003f1e6    00              ??          00h                                     
ram:0003f1e7    00              ??          00h                                     
ram:0003f1e8    00              ??          00h                                     
ram:0003f1e9    00              ??          00h                                     
ram:0003f1ea    00              ??          00h                                     
ram:0003f1eb    00              ??          00h                                     
                            DAT_0003f1ec:                 ;XREF[1,0]:   0003e960
ram:0003f1ec    d1e70300        undefined4  0003E7D1h                               ;?  ->  0003e7d1
                            DAT_0003f1f0:                 ;XREF[1,0]:   0003e960
ram:0003f1f0    00000000        undefined4  00000000h                               
                            DAT_0003f1f4:                 ;XREF[1,0]:   0003e960
ram:0003f1f4    00000000        undefined4  00000000h                               
                            PTR_DAT_0003f1f8:             ;XREF[2,0]:   0003f11a,0003f12c
ram:0003f1f8    18f20300        addr        DAT_0003f218                            
                            DAT_0003f1fc:                 ;XREF[1,0]:   0003f11a
ram:0003f1fc    002c0020        undefined4  20002C00h                               
                            DAT_0003f200:                 ;XREF[1,0]:   0003f11a
ram:0003f200    d8000000        undefined4  000000D8h                               
                            PTR_thunk_FUN_0003f156_0003...;XREF[1,0]:   0003f118
ram:0003f204    4ef10300        addr        thunk_FUN_0003f156                      
ram:0003f208    f0              ??          F0h                                     
ram:0003f209    f2              ??          F2h                                     
ram:0003f20a    03              ??          03h                                     
ram:0003f20b    00              ??          00h                                     
ram:0003f20c    d8              ??          D8h                                     
ram:0003f20d    2c              ??          2Ch    ,                                
ram:0003f20e    00              ??          00h                                     
ram:0003f20f    20              ??          20h                                     
ram:0003f210    00              ??          00h                                     
ram:0003f211    0f              ??          0Fh                                     
ram:0003f212    00              ??          00h                                     
ram:0003f213    00              ??          00h                                     
ram:0003f214    5e              ??          5Eh    ^                                ;?  ->  0003f15e
ram:0003f215    f1              ??          F1h                                     
ram:0003f216    03              ??          03h                                     
ram:0003f217    00              ??          00h                                     
                            DAT_0003f218:                 ;XREF[3,0]:   0003f11a,0003f130,0003f1f8
ram:0003f218    00              ??          00h                                     
ram:0003f219    00              ??          00h                                     
ram:0003f21a    00              ??          00h                                     
ram:0003f21b    00              ??          00h                                     
ram:0003f21c    00              ??          00h                                     
ram:0003f21d    00              ??          00h                                     
ram:0003f21e    00              ??          00h                                     
ram:0003f21f    00              ??          00h                                     
ram:0003f220    00              ??          00h                                     
ram:0003f221    00              ??          00h                                     
ram:0003f222    00              ??          00h                                     
ram:0003f223    00              ??          00h                                     
ram:0003f224    00              ??          00h                                     
ram:0003f225    00              ??          00h                                     
ram:0003f226    00              ??          00h                                     
ram:0003f227    00              ??          00h                                     
ram:0003f228    00              ??          00h                                     
ram:0003f229    00              ??          00h                                     
ram:0003f22a    00              ??          00h                                     
ram:0003f22b    00              ??          00h                                     
ram:0003f22c    00              ??          00h                                     
ram:0003f22d    00              ??          00h                                     
ram:0003f22e    00              ??          00h                                     
ram:0003f22f    00              ??          00h                                     
ram:0003f230    00              ??          00h                                     
ram:0003f231    00              ??          00h                                     
ram:0003f232    00              ??          00h                                     
ram:0003f233    00              ??          00h                                     
ram:0003f234    00              ??          00h                                     
ram:0003f235    00              ??          00h                                     
ram:0003f236    00              ??          00h                                     
ram:0003f237    00              ??          00h                                     
ram:0003f238    00              ??          00h                                     
ram:0003f239    00              ??          00h                                     
ram:0003f23a    00              ??          00h                                     
ram:0003f23b    00              ??          00h                                     
ram:0003f23c    00              ??          00h                                     
ram:0003f23d    00              ??          00h                                     
ram:0003f23e    00              ??          00h                                     
ram:0003f23f    00              ??          00h                                     
ram:0003f240    00              ??          00h                                     
ram:0003f241    00              ??          00h                                     
ram:0003f242    00              ??          00h                                     
ram:0003f243    00              ??          00h                                     
ram:0003f244    00              ??          00h                                     
ram:0003f245    00              ??          00h                                     
ram:0003f246    00              ??          00h                                     
ram:0003f247    00              ??          00h                                     
ram:0003f248    00              ??          00h                                     
ram:0003f249    00              ??          00h                                     
ram:0003f24a    00              ??          00h                                     
ram:0003f24b    00              ??          00h                                     
ram:0003f24c    00              ??          00h                                     
ram:0003f24d    00              ??          00h                                     
ram:0003f24e    00              ??          00h                                     
ram:0003f24f    00              ??          00h                                     
ram:0003f250    00              ??          00h                                     
ram:0003f251    00              ??          00h                                     
ram:0003f252    00              ??          00h                                     
ram:0003f253    00              ??          00h                                     
ram:0003f254    00              ??          00h                                     
ram:0003f255    00              ??          00h                                     
ram:0003f256    00              ??          00h                                     
ram:0003f257    00              ??          00h                                     
ram:0003f258    00              ??          00h                                     
ram:0003f259    00              ??          00h                                     
ram:0003f25a    00              ??          00h                                     
ram:0003f25b    00              ??          00h                                     
ram:0003f25c    00              ??          00h                                     
ram:0003f25d    00              ??          00h                                     
ram:0003f25e    00              ??          00h                                     
ram:0003f25f    00              ??          00h                                     
ram:0003f260    00              ??          00h                                     
ram:0003f261    00              ??          00h                                     
ram:0003f262    00              ??          00h                                     
ram:0003f263    00              ??          00h                                     
ram:0003f264    00              ??          00h                                     
ram:0003f265    00              ??          00h                                     
ram:0003f266    00              ??          00h                                     
ram:0003f267    00              ??          00h                                     
ram:0003f268    00              ??          00h                                     
ram:0003f269    00              ??          00h                                     
ram:0003f26a    00              ??          00h                                     
ram:0003f26b    00              ??          00h                                     
ram:0003f26c    00              ??          00h                                     
ram:0003f26d    00              ??          00h                                     
ram:0003f26e    00              ??          00h                                     
ram:0003f26f    00              ??          00h                                     
ram:0003f270    00              ??          00h                                     
ram:0003f271    00              ??          00h                                     
ram:0003f272    00              ??          00h                                     
ram:0003f273    00              ??          00h                                     
ram:0003f274    00              ??          00h                                     
ram:0003f275    00              ??          00h                                     
ram:0003f276    00              ??          00h                                     
ram:0003f277    00              ??          00h                                     
ram:0003f278    00              ??          00h                                     
ram:0003f279    00              ??          00h                                     
ram:0003f27a    00              ??          00h                                     
ram:0003f27b    00              ??          00h                                     
ram:0003f27c    00              ??          00h                                     
ram:0003f27d    00              ??          00h                                     
ram:0003f27e    00              ??          00h                                     
ram:0003f27f    00              ??          00h                                     
ram:0003f280    00              ??          00h                                     
ram:0003f281    00              ??          00h                                     
ram:0003f282    00              ??          00h                                     
ram:0003f283    00              ??          00h                                     
ram:0003f284    00              ??          00h                                     
ram:0003f285    00              ??          00h                                     
ram:0003f286    00              ??          00h                                     
ram:0003f287    00              ??          00h                                     
ram:0003f288    00              ??          00h                                     
ram:0003f289    00              ??          00h                                     
ram:0003f28a    00              ??          00h                                     
ram:0003f28b    00              ??          00h                                     
ram:0003f28c    00              ??          00h                                     
ram:0003f28d    00              ??          00h                                     
ram:0003f28e    ff              ??          FFh                                     
ram:0003f28f    ff              ??          FFh                                     
ram:0003f290    00              ??          00h                                     
ram:0003f291    00              ??          00h                                     
ram:0003f292    00              ??          00h                                     
ram:0003f293    00              ??          00h                                     
ram:0003f294    32              ??          32h    2                                
ram:0003f295    00              ??          00h                                     
ram:0003f296    00              ??          00h                                     
ram:0003f297    00              ??          00h                                     
ram:0003f298    00              ??          00h                                     
ram:0003f299    00              ??          00h                                     
ram:0003f29a    00              ??          00h                                     
ram:0003f29b    00              ??          00h                                     
ram:0003f29c    00              ??          00h                                     
ram:0003f29d    00              ??          00h                                     
ram:0003f29e    00              ??          00h                                     
ram:0003f29f    00              ??          00h                                     
ram:0003f2a0    00              ??          00h                                     
ram:0003f2a1    00              ??          00h                                     
ram:0003f2a2    00              ??          00h                                     
ram:0003f2a3    00              ??          00h                                     
ram:0003f2a4    00              ??          00h                                     
ram:0003f2a5    00              ??          00h                                     
ram:0003f2a6    00              ??          00h                                     
ram:0003f2a7    00              ??          00h                                     
ram:0003f2a8    00              ??          00h                                     
ram:0003f2a9    00              ??          00h                                     
ram:0003f2aa    00              ??          00h                                     
ram:0003f2ab    00              ??          00h                                     
ram:0003f2ac    00              ??          00h                                     
ram:0003f2ad    00              ??          00h                                     
ram:0003f2ae    00              ??          00h                                     
ram:0003f2af    00              ??          00h                                     
ram:0003f2b0    00              ??          00h                                     
ram:0003f2b1    00              ??          00h                                     
ram:0003f2b2    00              ??          00h                                     
ram:0003f2b3    00              ??          00h                                     
ram:0003f2b4    00              ??          00h                                     
ram:0003f2b5    00              ??          00h                                     
ram:0003f2b6    00              ??          00h                                     
ram:0003f2b7    00              ??          00h                                     
ram:0003f2b8    00              ??          00h                                     
ram:0003f2b9    00              ??          00h                                     
ram:0003f2ba    00              ??          00h                                     
ram:0003f2bb    00              ??          00h                                     
ram:0003f2bc    00              ??          00h                                     
ram:0003f2bd    00              ??          00h                                     
ram:0003f2be    00              ??          00h                                     
ram:0003f2bf    00              ??          00h                                     
ram:0003f2c0    00              ??          00h                                     
ram:0003f2c1    00              ??          00h                                     
ram:0003f2c2    00              ??          00h                                     
ram:0003f2c3    00              ??          00h                                     
ram:0003f2c4    00              ??          00h                                     
ram:0003f2c5    00              ??          00h                                     
ram:0003f2c6    00              ??          00h                                     
ram:0003f2c7    00              ??          00h                                     
ram:0003f2c8    00              ??          00h                                     
ram:0003f2c9    00              ??          00h                                     
ram:0003f2ca    00              ??          00h                                     
ram:0003f2cb    00              ??          00h                                     
ram:0003f2cc    00              ??          00h                                     
ram:0003f2cd    00              ??          00h                                     
ram:0003f2ce    00              ??          00h                                     
ram:0003f2cf    00              ??          00h                                     
ram:0003f2d0    00              ??          00h                                     
ram:0003f2d1    00              ??          00h                                     
ram:0003f2d2    00              ??          00h                                     
ram:0003f2d3    00              ??          00h                                     
ram:0003f2d4    00              ??          00h                                     
ram:0003f2d5    00              ??          00h                                     
ram:0003f2d6    00              ??          00h                                     
ram:0003f2d7    00              ??          00h                                     
ram:0003f2d8    00              ??          00h                                     
ram:0003f2d9    00              ??          00h                                     
ram:0003f2da    00              ??          00h                                     
ram:0003f2db    00              ??          00h                                     
ram:0003f2dc    00              ??          00h                                     
ram:0003f2dd    00              ??          00h                                     
ram:0003f2de    00              ??          00h                                     
ram:0003f2df    00              ??          00h                                     
ram:0003f2e0    00              ??          00h                                     
ram:0003f2e1    00              ??          00h                                     
ram:0003f2e2    00              ??          00h                                     
ram:0003f2e3    00              ??          00h                                     
ram:0003f2e4    00              ??          00h                                     
ram:0003f2e5    00              ??          00h                                     
ram:0003f2e6    00              ??          00h                                     
ram:0003f2e7    00              ??          00h                                     
ram:0003f2e8    00              ??          00h                                     
ram:0003f2e9    00              ??          00h                                     
ram:0003f2ea    00              ??          00h                                     
ram:0003f2eb    00              ??          00h                                     
ram:0003f2ec    00              ??          00h                                     
ram:0003f2ed    24              ??          24h    $                                
ram:0003f2ee    f4              ??          F4h                                     
ram:0003f2ef    00              ??          00h                                     
