                            MasterStackPointer:           ;XREF[3,0]:   0003d718,0003d71e,0003e5b8
ram:0003c000    807f0020        addr        DAT_20007f80                            
                            Reset:                        ;XREF[1,0]:   Entry Point
ram:0003c004    f1f40300        addr        FUNC_Reset_0003f4f0+1                   
                            NMI:                          ;XREF[1,0]:   Entry Point
ram:0003c008    39f50300        addr        FUNC_NMI_0003f538+1                     
                            HardFault:                    ;XREF[1,0]:   Entry Point
ram:0003c00c    3bf50300        addr        FUNC_HardFault_0003f53a+1               
                            MemManage:                    ;XREF[1,0]:   Entry Point
ram:0003c010    00000000        addr        00000000                                
                            BusFault:                     ;XREF[1,0]:   Entry Point
ram:0003c014    00000000        addr        00000000                                
                            UsageFault:                   ;XREF[1,0]:   Entry Point
ram:0003c018    00000000        addr        00000000                                
                            Reserved1:                    ;XREF[1,0]:   Entry Point
ram:0003c01c    00000000        addr        00000000                                
                            Reserved2:                    ;XREF[1,0]:   Entry Point
ram:0003c020    00000000        addr        00000000                                
                            Reserved3:                    ;XREF[1,0]:   Entry Point
ram:0003c024    00000000        addr        00000000                                
                            Reserved5:                    ;XREF[1,0]:   Entry Point
                            Reserved6:                    
                            Reserved4:                    
ram:0003c028    00000000        addr        00000000                                
                            SVCall:                       ;XREF[1,0]:   Entry Point
ram:0003c02c    2de50300        addr        FUNC_SVCall_0003e52c+1                  
ram:0003c030    00000000        addr        00000000                                
ram:0003c034    00000000        addr        00000000                                
                            PendSV:                       ;XREF[1,0]:   Entry Point
ram:0003c038    3ff50300        addr        FUNC_PendSV_0003f53e+1                  
                            SysTick:                      ;XREF[1,0]:   Entry Point
ram:0003c03c    41f50300        addr        FUNC_SysTick_0003f540+1                 
                            IRQ:                          ;XREF[1,0]:   Entry Point
ram:0003c040    43f50300        addr        FUNC_IRQ_0003f542+1                     
ram:0003c044    43f50300        addr        FUNC_IRQ_0003f542+1                     
ram:0003c048    43f50300        addr        FUNC_IRQ_0003f542+1                     
ram:0003c04c    43f50300        addr        FUNC_IRQ_0003f542+1                     
ram:0003c050    43f50300        addr        FUNC_IRQ_0003f542+1                     
ram:0003c054    00000000        addr        00000000                                
ram:0003c058    43f50300        addr        FUNC_IRQ_0003f542+1                     
ram:0003c05c    43f50300        addr        FUNC_IRQ_0003f542+1                     
ram:0003c060    43f50300        addr        FUNC_IRQ_0003f542+1                     
ram:0003c064    43f50300        addr        FUNC_IRQ_0003f542+1                     
ram:0003c068    43f50300        addr        FUNC_IRQ_0003f542+1                     
ram:0003c06c    43f50300        addr        FUNC_IRQ_0003f542+1                     
ram:0003c070    43f50300        addr        FUNC_IRQ_0003f542+1                     
ram:0003c074    43f50300        addr        FUNC_IRQ_0003f542+1                     
ram:0003c078    43f50300        addr        FUNC_IRQ_0003f542+1                     
ram:0003c07c    43f50300        addr        FUNC_IRQ_0003f542+1                     
ram:0003c080    43f50300        addr        FUNC_IRQ_0003f542+1                     
ram:0003c084    cdc40300        addr        FUNC_VT_0003c4cc+1                      
ram:0003c088    43f50300        addr        FUNC_IRQ_0003f542+1                     
ram:0003c08c    43f50300        addr        FUNC_IRQ_0003f542+1                     
ram:0003c090    8dc50300        addr        FUNC_VT_0003c58c+1                      
ram:0003c094    43f50300        addr        FUNC_IRQ_0003f542+1                     
ram:0003c098    a1f40300        addr        FUNC_VT_0003f4a0+1                      
ram:0003c09c    43f50300        addr        FUNC_IRQ_0003f542+1                     
ram:0003c0a0    43f50300        addr        FUNC_IRQ_0003f542+1                     
ram:0003c0a4    43f50300        addr        FUNC_IRQ_0003f542+1                     
ram:0003c0a8    00000000        addr        00000000                                
ram:0003c0ac    00000000        addr        00000000                                
ram:0003c0b0    00000000        addr        00000000                                
ram:0003c0b4    00000000        addr        00000000                                
ram:0003c0b8    00000000        addr        00000000                                
ram:0003c0bc    00              ??          00h                                     
ram:0003c0bd    00              ??          00h                                     
ram:0003c0be    00              ??          00h                                     
ram:0003c0bf    00              ??          00h                                     
                            ;************************************************************************************************
                            ;*                                           FUNCTION                                           *
                            ;************************************************************************************************
                            ;undefined LAB_0003c0c0+1(void)
                                                          ;XREF[1,1]:   0003f51a,0003f534
ram:0003c0c0    164b            ldr         r3,[LAB_0003c11c]                       
ram:0003c0c2    002b            cmp         r3,#0x0                                 
ram:0003c0c4    00d1            bne         LAB_0003c0c8                            
ram:0003c0c6    144b            ldr         r3,[LAB_0003c118]                       
                            LAB_0003c0c8:                 ;XREF[1,0]:   0003c0c4
ram:0003c0c8    9d46            mov         sp,r3                                   
ram:0003c0ca    4022            movs        r2,#0x40                                
ram:0003c0cc    9202            lsls        r2,r2,#0xa                              
ram:0003c0ce    9a1a            subs        r2,r3,r2                                
ram:0003c0d0    9246            mov         r10,r2                                  
ram:0003c0d2    0021            movs        r1,#0x0                                 
ram:0003c0d4    8b46            mov         r11,r1                                  
ram:0003c0d6    0f46            mov         r7,r1                                   
ram:0003c0d8    1348            ldr         r0=>DAT_20002c68,[LAB_0003c128]         
ram:0003c0da    144a            ldr         r2,[LAB_0003c12c]                       
ram:0003c0dc    121a            subs        r2,r2,r0                                
ram:0003c0de    00f065f8        bl          FUN_0003c1ac                            ;undefined FUN_0003c1ac(undefined * p...
ram:0003c0e2    0f4b            ldr         r3,[LAB_0003c120]                       
ram:0003c0e4    002b            cmp         r3,#0x0                                 
ram:0003c0e6    00d0            beq         LAB_0003c0ea                            
ram:0003c0e8    9847            blx         r3                                      
                            LAB_0003c0ea:                 ;XREF[1,0]:   0003c0e6
ram:0003c0ea    0e4b            ldr         r3,[LAB_0003c124]                       
ram:0003c0ec    002b            cmp         r3,#0x0                                 
ram:0003c0ee    00d0            beq         LAB_0003c0f2                            
ram:0003c0f0    9847            blx         r3                                      
                            LAB_0003c0f2:                 ;XREF[1,0]:   0003c0ee
ram:0003c0f2    0020            movs        r0,#0x0                                 
ram:0003c0f4    0021            movs        r1,#0x0                                 
ram:0003c0f6    0400            movs        r4,r0                                   
ram:0003c0f8    0d00            movs        r5,r1                                   
ram:0003c0fa    0d48            ldr         r0,[LAB_0003c130]                       
ram:0003c0fc    0028            cmp         r0,#0x0                                 
ram:0003c0fe    02d0            beq         LAB_0003c106                            
ram:0003c100    0c48            ldr         r0,[LAB_0003c134]                       
ram:0003c102    00e0            b           LAB_0003c106                            
ram:0003c104    00bf            nop                                                  
                            LAB_0003c106:                 ;XREF[2,0]:   0003c0fe,0003c102
ram:0003c106    00f02df8        bl          FUN_0003c164                            ;undefined FUN_0003c164(void)
ram:0003c10a    2000            movs        r0,r4                                   
ram:0003c10c    2900            movs        r1,r5                                   
ram:0003c10e    02f0adfa        bl          FUN_0003e66c                            ;undefined FUN_0003e66c(void)
ram:0003c112    00f011f8        bl          FUN_0003c138                            ;undefined FUN_0003c138(undefined4 pa...
ram:0003c116    c046            mov         r8,r8                                   
                            LAB_0003c118:                 ;XREF[1,0]:   0003c0c6
ram:0003c118    0000            movs        r0,r0                                   
ram:0003c11a    0800            movs        r0,r1                                   
                            LAB_0003c11c:                 ;XREF[1,0]:   0003c0c0
ram:0003c11c    807f            ldrb        r0,[r0,#DAT_0000001e]                   
ram:0003c11e    0020            movs        r0,#0x0                                 
                            LAB_0003c120:                 ;XREF[1,0]:   0003c0e2
ram:0003c120    0000            movs        r0,r0                                   
ram:0003c122    0000            movs        r0,r0                                   
                            LAB_0003c124:                 ;XREF[1,0]:   0003c0ea
ram:0003c124    0000            movs        r0,r0                                   
ram:0003c126    0000            movs        r0,r0                                   
                            LAB_0003c128:                 ;XREF[1,0]:   0003c0d8
ram:0003c128    682c            cmp         r4,#0x68                                
ram:0003c12a    0020            movs        r0,#0x0                                 
                            LAB_0003c12c:                 ;XREF[1,0]:   0003c0da
ram:0003c12c    7c34            adds        r4,#0x7c                                
ram:0003c12e    0020            movs        r0,#0x0                                 
                            LAB_0003c130:                 ;XREF[1,0]:   0003c0fa
ram:0003c130    0000            movs        r0,r0                                   
ram:0003c132    0000            movs        r0,r0                                   
                            LAB_0003c134:                 ;XREF[1,0]:   0003c100
ram:0003c134    0000            movs        r0,r0                                   
ram:0003c136    0000            movs        r0,r0                                   
                            ;************************************************************************************************
                            ;*                                           FUNCTION                                           *
                            ;************************************************************************************************
                            ;undefined FUN_0003c138(undefined4 param_1, undefined4 param_2)
          ;param_1       undefined4          r0                      
          ;param_2       undefined4          r1                      
                                                          ;XREF[1,0]:   0003c112
ram:0003c138    084b            ldr         r3,[LAB_0003c15c]                       
                                                          ; FWD[2,0]:   0007fff8,0007fffc
ram:0003c13a    10b5            push        {r4,lr}=>DAT_0007fffc                   
ram:0003c13c    0400            movs        r4,param_1                              
ram:0003c13e    002b            cmp         r3,#0x0                                 
ram:0003c140    02d0            beq         LAB_0003c148                            
ram:0003c142    0021            movs        param_2,#0x0                            
ram:0003c144    00e0            b           LAB_0003c148                            
ram:0003c146    00bf            nop                                                  
                            LAB_0003c148:                 ;XREF[2,0]:   0003c140,0003c144
ram:0003c148    054b            ldr         r3,[->FUN_0003f6dc]                     ;= 0003f6dc
ram:0003c14a    1868            ldr         param_1,[r3,#0x0]=>FUN_0003f6dc         
ram:0003c14c    836a            ldr         r3,[param_1,#offset DAT_20002c28 &0xff] 
ram:0003c14e    002b            cmp         r3,#0x0                                 
ram:0003c150    00d0            beq         LAB_0003c154                            
ram:0003c152    9847            blx         r3                                      
                            LAB_0003c154:                 ;XREF[1,0]:   0003c150
ram:0003c154    2000            movs        param_1,r4                              
ram:0003c156    00f031f8        bl          FUN_0003c1bc                            ;undefined FUN_0003c1bc(void)
ram:0003c15a    c046            mov         r8,r8                                   
                            LAB_0003c15c:                 ;XREF[1,0]:   0003c138
ram:0003c15c    0000            movs        param_1,param_1                         
ram:0003c15e    0000            movs        param_1,param_1                         
                            PTR_FUN_0003c160:             ;XREF[1,0]:   0003c148
ram:0003c160    dcf60300        addr        FUN_0003f6dc                            
                            ;************************************************************************************************
                            ;*                                           FUNCTION                                           *
                            ;************************************************************************************************
                            ;undefined FUN_0003c164(void)
                                                          ;XREF[1,0]:   0003c106
ram:0003c164    70b5            push        {r4,r5,r6,lr}                           
ram:0003c166    0026            movs        r6,#0x0                                 
ram:0003c168    0c4d            ldr         r5,[DAT_0003c19c]                       ;= 20002C68h
ram:0003c16a    0d4c            ldr         r4,[DAT_0003c1a0]                       ;= 20002C68h
ram:0003c16c    641b            subs        r4,r4,r5                                
ram:0003c16e    a410            asrs        r4,r4,#0x2                              
                            LAB_0003c170:                 ;XREF[1,0]:   0003c190
ram:0003c170    a642            cmp         r6,r4                                   
ram:0003c172    09d1            bne         LAB_0003c188                            
ram:0003c174    0026            movs        r6,#0x0                                 
ram:0003c176    03f0a5fa        bl          FUN_0003f6c4                            ;undefined FUN_0003f6c4(void)
ram:0003c17a    0a4d            ldr         r5,[DAT_0003c1a4]                       ;= 20002C68h
ram:0003c17c    0a4c            ldr         r4,[DAT_0003c1a8]                       ;= 20002C68h
ram:0003c17e    641b            subs        r4,r4,r5                                
ram:0003c180    a410            asrs        r4,r4,#0x2                              
                            LAB_0003c182:                 ;XREF[1,0]:   0003c19a
ram:0003c182    a642            cmp         r6,r4                                   
ram:0003c184    05d1            bne         LAB_0003c192                            
ram:0003c186    70bd            pop         {r4,r5,r6,pc}                           
                            LAB_0003c188:                 ;XREF[1,0]:   0003c172
ram:0003c188    b300            lsls        r3,r6,#0x2                              
ram:0003c18a    eb58            ldr         r3,[r5,r3]=>DAT_20002c68                
ram:0003c18c    9847            blx         r3                                      
ram:0003c18e    0136            adds        r6,#0x1                                 
ram:0003c190    eee7            b           LAB_0003c170                            
                            LAB_0003c192:                 ;XREF[1,0]:   0003c184
ram:0003c192    b300            lsls        r3,r6,#0x2                              
ram:0003c194    eb58            ldr         r3,[r5,r3]=>DAT_20002c68                
ram:0003c196    9847            blx         r3                                      
ram:0003c198    0136            adds        r6,#0x1                                 
ram:0003c19a    f2e7            b           LAB_0003c182                            
                            DAT_0003c19c:                 ;XREF[1,0]:   0003c168
ram:0003c19c    682c0020        undefined4  20002C68h                               
                            DAT_0003c1a0:                 ;XREF[1,0]:   0003c16a
ram:0003c1a0    682c0020        undefined4  20002C68h                               
                            DAT_0003c1a4:                 ;XREF[1,0]:   0003c17a
ram:0003c1a4    682c0020        undefined4  20002C68h                               
                            DAT_0003c1a8:                 ;XREF[1,0]:   0003c17c
ram:0003c1a8    682c0020        undefined4  20002C68h                               
                            ;************************************************************************************************
                            ;*                                           FUNCTION                                           *
                            ;************************************************************************************************
                            ;undefined FUN_0003c1ac(undefined * param_1, undefined param_2, int param_3)
          ;param_1       undefined *         r0                      
          ;param_2       undefined           r1                      
          ;param_3       int                 r2                      
                                                          ;XREF[30,0]:  0003c0de,0003ce3c,0003cf4c,0003d128
                                                          ;             0003d1ea,0003d2d4,0003d910,0003d9cc
                                                          ;             0003d9de,0003db26,0003dd2a,0003dd58
                                                          ;             0003dd82,0003df76,0003df86,0003e598
                                                          ;             0003e5e8,0003ee54,0003ee7e,0003eeae
                                                          ;             0003eedc,0003ef08,0003ef42,0003ef70
                                                          ;             0003ef98,0003efd2,0003f07c,0003f0ee
                                                          ;             0003f154,0003f1d2
ram:0003c1ac    0300            movs        r3,param_1                              
ram:0003c1ae    8218            adds        param_3,param_1,param_3                 
                            LAB_0003c1b0:                 ;XREF[1,0]:   0003c1ba
ram:0003c1b0    9342            cmp         r3,param_3                              
ram:0003c1b2    00d1            bne         LAB_0003c1b6                            
ram:0003c1b4    7047            bx          lr                                      
                            LAB_0003c1b6:                 ;XREF[1,0]:   0003c1b2
ram:0003c1b6    1970            strb        param_2,[r3,#0x0]                       
ram:0003c1b8    0133            adds        r3,#0x1                                 
ram:0003c1ba    f9e7            b           LAB_0003c1b0                            
                            ;************************************************************************************************
                            ;*                                           FUNCTION                                           *
                            ;************************************************************************************************
                            ;undefined FUN_0003c1bc(void)
                                                          ;XREF[2,0]:   0003c156,0003c1bc
ram:0003c1bc    fee7            b           FUN_0003c1bc                            
ram:0003c1be    c046            mov         r8,r8                                   
                            ;************************************************************************************************
                            ;*                                           FUNCTION                                           *
                            ;************************************************************************************************
                            ;undefined FUN_0003c1c0(void)
                                                          ;XREF[61,0]:  0003c2d6,0003c32c,0003c522,0003cc2a
                                                          ;             0003cc6a,0003cc9e,0003ccbc,0003ccd4
                                                          ;             0003ce00,0003ce8e,0003cebe,0003cf0e
                                                          ;             0003cf1e,0003cf2e,0003d044,0003d16c
                                                          ;             0003d19e,0003d1cc,0003d23c,0003d254
                                                          ;             0003d32e,0003d346,0003d5dc,0003d8c2
                                                          ;             0003d8ee,0003d932,0003d96e,0003d982
                                                          ;             0003da40,0003db5e,0003dbb4,0003dd20
                                                          ;             0003dd4e,0003dd78,0003ddb0,0003dde6
                                                          ;             0003ddfc,0003de5c,0003de6c,0003de88
                                                          ;             0003def2,0003df04,0003df24,0003e0a8
                                                          ;             0003e5b2,0003e5c6,0003e5de,0003e60a
                                                          ;             0003e61c,0003e64c,0003e660,0003e6a4
                                                          ;             0003e6bc,0003e6d8,0003e704,0003e722
                                                          ;             0003e750,0003f3be,0003f404,0003f4b4
                                                          ;             0003f4d0
ram:0003c1c0    bff34f8f        dsb         0xf                                     
ram:0003c1c4    024a            ldr         r2,[DAT_0003c1d0]                       ;= 05FA0004h
ram:0003c1c6    034b            ldr         r3,[DAT_0003c1d4]                       ;= E000ED00h
ram:0003c1c8    da60            str         r2,[r3,#offset DAT_e000ed0c &0xff]      
ram:0003c1ca    bff34f8f        dsb         0xf                                     
                            LAB_0003c1ce:                 ;XREF[1,0]:   0003c1ce
ram:0003c1ce    fee7            b           LAB_0003c1ce                            
                            DAT_0003c1d0:                 ;XREF[1,0]:   0003c1c4
ram:0003c1d0    0400fa05        undefined4  05FA0004h                               
                            DAT_0003c1d4:                 ;XREF[1,0]:   0003c1c6
ram:0003c1d4    00ed00e0        undefined4  E000ED00h                               
                            ;************************************************************************************************
                            ;*                                           FUNCTION                                           *
                            ;************************************************************************************************
                            ;undefined FUN_0003c1d8(void)
                                                          ;XREF[1,0]:   0003c282
ram:0003c1d8    36df            svc         0x36                                    
ram:0003c1da    7047            bx          lr                                      
                            ;************************************************************************************************
                            ;*                                           FUNCTION                                           *
                            ;************************************************************************************************
                            ;undefined FUN_0003c1dc(void)
                                                          ;XREF[1,0]:   0003c2c6
ram:0003c1dc    37df            svc         0x37                                    
ram:0003c1de    7047            bx          lr                                      
                            ;************************************************************************************************
                            ;*                                           FUNCTION                                           *
                            ;************************************************************************************************
                            ;uint FUN_0003c1e0(undefined2 param_1, short param_2, uint param_3)
          ;param_1       undefined2          r0                      
          ;param_2       short               r1                      
          ;param_3       uint                r2                      
                                                          ;XREF[1,0]:   0003e640
ram:0003c1e0    0323            movs        r3,#0x3                                 
ram:0003c1e2    10b5            push        {r4,lr}                                 
ram:0003c1e4    1340            ands        r3,param_3                              
ram:0003c1e6    0724            movs        r4,#0x7                                 
ram:0003c1e8    002b            cmp         r3,#0x0                                 
ram:0003c1ea    10d1            bne         LAB_0003c20e                            
ram:0003c1ec    094c            ldr         r4,[DAT_0003c214]                       ;= 20002C70h
ram:0003c1ee    2260            str         param_3,[r4,#0x0]=>DAT_20002c70         
ram:0003c1f0    4c1c            adds        r4,param_2,#0x1                         
ram:0003c1f2    e400            lsls        r4,r4,#0x3                              
ram:0003c1f4    a4b2            uxth        r4,r4                                   
ram:0003c1f6    1219            adds        param_3,param_3,r4                      
ram:0003c1f8    074c            ldr         r4,[DAT_0003c218]                       ;= 20002C6Ch
ram:0003c1fa    2260            str         param_3,[r4,#0x0]=>DAT_20002c6c         
ram:0003c1fc    1c00            movs        r4,r3                                   
ram:0003c1fe    074a            ldr         param_3,[DAT_0003c21c]                  ;= 20002C68h
ram:0003c200    1370            strb        r3,[param_3,#0x0]=>DAT_20002c68         
ram:0003c202    074a            ldr         param_3,[DAT_0003c220]                  ;= 20002C78h
ram:0003c204    1370            strb        r3,[param_3,#0x0]=>DAT_20002c78         
ram:0003c206    074a            ldr         param_3,[DAT_0003c224]                  ;= 20002C74h
ram:0003c208    1080            strh        param_1,[param_3,#0x0]=>DAT_20002c74    
ram:0003c20a    074a            ldr         param_3,[DAT_0003c228]                  ;= 20002C76h
ram:0003c20c    1180            strh        param_2,[param_3,#0x0]=>DAT_20002c76    
                            LAB_0003c20e:                 ;XREF[1,0]:   0003c1ea
ram:0003c20e    2000            movs        param_1,r4                              
ram:0003c210    10bd            pop         {r4,pc}                                 
ram:0003c212    c046            mov         r8,r8                                   
                            DAT_0003c214:                 ;XREF[1,0]:   0003c1ec
ram:0003c214    702c0020        undefined4  20002C70h                               
                            DAT_0003c218:                 ;XREF[1,0]:   0003c1f8
ram:0003c218    6c2c0020        undefined4  20002C6Ch                               
                            DAT_0003c21c:                 ;XREF[1,0]:   0003c1fe
ram:0003c21c    682c0020        undefined4  20002C68h                               
                            DAT_0003c220:                 ;XREF[1,0]:   0003c202
ram:0003c220    782c0020        undefined4  20002C78h                               
                            DAT_0003c224:                 ;XREF[1,0]:   0003c206
ram:0003c224    742c0020        undefined4  20002C74h                               
                            DAT_0003c228:                 ;XREF[1,0]:   0003c20a
ram:0003c228    762c0020        undefined4  20002C76h                               
                            ;************************************************************************************************
                            ;*                                           FUNCTION                                           *
                            ;************************************************************************************************
                            ;undefined4 FUN_0003c22c(int param_1, uint param_2, undefined4 param_3)
          ;param_1       int                 r0                      
          ;param_2       uint                r1                      
          ;param_3       undefined4          r2                      
          ;local_19      undefined1         -19                      ;XREF[2,0]:   0003c246,0003c2c4
          ;local_24      undefined4         -24                      ;XREF[2,0]:   0003c238,0003c2e4
          ;local_28      undefined4         -28                      ;XREF[3,0]:   0003c234,0003c2ee,0003c304
                                                          ;XREF[2,0]:   0003cc44,0003f4e4
ram:0003c22c    f0b5            push        {r4,r5,r6,r7,lr}                        
ram:0003c22e    464b            ldr         r3,[DAT_0003c348]                       ;= 20002C74h
ram:0003c230    85b0            sub         sp,#0x14                                
ram:0003c232    1b88            ldrh        r3,[r3,#0x0]=>DAT_20002c74              
ram:0003c234    0090            str         param_1,[sp,#0x0]=>local_28             
ram:0003c236    0e00            movs        r6,param_2                              
ram:0003c238    0192            str         param_3,[sp,#local_24+0x28]             
ram:0003c23a    0920            movs        param_1,#0x9                            
ram:0003c23c    8b42            cmp         r3,param_2                              
ram:0003c23e    69d3            bcc         LAB_0003c314                            
ram:0003c240    02ab            add         r3,sp,#0x8                              
ram:0003c242    df1d            adds        r7,r3,#0x7                              
ram:0003c244    0023            movs        r3,#0x0                                 
ram:0003c246    3b70            strb        r3,[r7,#0x0]=>local_19                  
ram:0003c248    404b            ldr         r3,[DAT_0003c34c]                       ;= E000ED00h
ram:0003c24a    0425            movs        r5,#0x4                                 
ram:0003c24c    5a68            ldr         param_3,[r3,#offset DAT_e000ed04 &0xff] 
ram:0003c24e    d205            lsls        param_3,param_3,#0x17                   
ram:0003c250    d20d            lsrs        param_3,param_3,#0x17                   
ram:0003c252    15d0            beq         LAB_0003c280                            
ram:0003c254    103a            subs        param_3,#0x10                           
ram:0003c256    53b2            sxtb        r3,param_3                              
ram:0003c258    002b            cmp         r3,#0x0                                 
ram:0003c25a    5dda            bge         LAB_0003c318                            
ram:0003c25c    0f23            movs        r3,#0xf                                 
ram:0003c25e    d2b2            uxtb        param_3,param_3                         
ram:0003c260    1340            ands        r3,param_3                              
ram:0003c262    083b            subs        r3,#0x8                                 
ram:0003c264    9b08            lsrs        r3,r3,#0x2                              
ram:0003c266    3a49            ldr         param_2,[DAT_0003c350]                  ;= E000ED18h
ram:0003c268    9b00            lsls        r3,r3,#0x2                              
ram:0003c26a    5b18            adds        r3,r3,param_2                           
ram:0003c26c    5b68            ldr         r3,[r3,#0x4]                            
                            LAB_0003c26e:                 ;XREF[1,0]:   0003c322
ram:0003c26e    0321            movs        param_2,#0x3                            
ram:0003c270    0a40            ands        param_3,param_2                         
ram:0003c272    8a40            lsls        param_3,param_2                         
ram:0003c274    d340            lsrs        r3,param_3                              
ram:0003c276    9b09            lsrs        r3,r3,#0x6                              
ram:0003c278    0b40            ands        r3,param_2                              
ram:0003c27a    ddb2            uxtb        r5,r3                                   
ram:0003c27c    012b            cmp         r3,#0x1                                 
ram:0003c27e    58d0            beq         LAB_0003c332                            
                            LAB_0003c280:                 ;XREF[1,0]:   0003c252
ram:0003c280    3800            movs        param_1,r7                              
ram:0003c282    fff7a9ff        bl          FUN_0003c1d8                            ;undefined FUN_0003c1d8(void)
ram:0003c286    0228            cmp         param_1,#0x2                            
ram:0003c288    4cd1            bne         LAB_0003c324                            
ram:0003c28a    72b6            cpsid       i                                       
                            LAB_0003c28c:                 ;XREF[3,0]:   0003c326,0003c330,0003c334
ram:0003c28c    314b            ldr         r3,[DAT_0003c354]                       ;= 20002C78h
ram:0003c28e    3249            ldr         param_2=>DAT_20002c68,[DAT_0003c358]    ;= 20002C68h
ram:0003c290    324a            ldr         param_3,[DAT_0003c35c]                  ;= 20002C76h
ram:0003c292    1878            ldrb        param_1,[r3,#0x0]=>DAT_20002c78         
ram:0003c294    0b78            ldrb        r3,[param_2,#0x0]=>DAT_20002c68         
ram:0003c296    1288            ldrh        param_3,[param_3,#0x0]=>DAT_20002c76    
ram:0003c298    dbb2            uxtb        r3,r3                                   
ram:0003c29a    c0b2            uxtb        param_1,param_1                         
ram:0003c29c    0024            movs        r4,#0x0                                 
ram:0003c29e    9342            cmp         r3,param_3                              
ram:0003c2a0    01d2            bcs         LAB_0003c2a6                            
ram:0003c2a2    0133            adds        r3,#0x1                                 
ram:0003c2a4    dcb2            uxtb        r4,r3                                   
                            LAB_0003c2a6:                 ;XREF[1,0]:   0003c2a0
ram:0003c2a6    a042            cmp         param_1,r4                              
ram:0003c2a8    4ad0            beq         LAB_0003c340                            
ram:0003c2aa    0c78            ldrb        r4,[param_2,#0x0]=>DAT_20002c68         
ram:0003c2ac    0b78            ldrb        r3,[param_2,#0x0]=>DAT_20002c68         
ram:0003c2ae    0021            movs        param_2,#0x0                            
ram:0003c2b0    dbb2            uxtb        r3,r3                                   
ram:0003c2b2    9a42            cmp         param_3,r3                              
ram:0003c2b4    01d9            bls         LAB_0003c2ba                            
ram:0003c2b6    0133            adds        r3,#0x1                                 
ram:0003c2b8    d9b2            uxtb        param_2,r3                              
                            LAB_0003c2ba:                 ;XREF[1,0]:   0003c2b4
ram:0003c2ba    274b            ldr         r3=>DAT_20002c68,[DAT_0003c358]         ;= 20002C68h
ram:0003c2bc    1970            strb        param_2,[r3,#0x0]=>DAT_20002c68         
ram:0003c2be    012d            cmp         r5,#0x1                                 
ram:0003c2c0    0fd0            beq         LAB_0003c2e2                            
                            LAB_0003c2c2:                 ;XREF[1,0]:   0003c338
ram:0003c2c2    62b6            cpsie       i                                       
ram:0003c2c4    3878            ldrb        param_1,[r7,#0x0]=>local_19             
ram:0003c2c6    fff789ff        bl          FUN_0003c1dc                            ;undefined FUN_0003c1dc(void)
ram:0003c2ca    0223            movs        r3,#0x2                                 
ram:0003c2cc    0200            movs        param_3,param_1                         
ram:0003c2ce    9a43            bics        param_3,r3                              
ram:0003c2d0    03d0            beq         LAB_0003c2da                            
ram:0003c2d2    0022            movs        param_3,#0x0                            
ram:0003c2d4    1100            movs        param_2,param_3                         
ram:0003c2d6    fff773ff        bl          FUN_0003c1c0                            ;undefined FUN_0003c1c0(void)
                            LAB_0003c2da:                 ;XREF[1,0]:   0003c2d0
ram:0003c2da    214b            ldr         r3,[DAT_0003c360]                       ;= 0000FFFFh
ram:0003c2dc    0420            movs        param_1,#0x4                            
ram:0003c2de    9c42            cmp         r4,r3                                   
ram:0003c2e0    18d0            beq         LAB_0003c314                            
                            LAB_0003c2e2:                 ;XREF[1,0]:   0003c2c0
ram:0003c2e2    204f            ldr         r7,[DAT_0003c364]                       ;= 20002C70h
ram:0003c2e4    019a            ldr         param_3,[sp,#local_24+0x28]             
ram:0003c2e6    3b68            ldr         r3,[r7,#0x0]=>DAT_20002c70              
ram:0003c2e8    e500            lsls        r5,r4,#0x3                              
ram:0003c2ea    5b19            adds        r3,r3,r5                                
ram:0003c2ec    1a60            str         param_3,[r3,#0x0]                       
ram:0003c2ee    009a            ldr         param_3,[sp,#0x0]=>local_28             
ram:0003c2f0    002a            cmp         param_3,#0x0                            
ram:0003c2f2    22d0            beq         LAB_0003c33a                            
ram:0003c2f4    002e            cmp         r6,#0x0                                 
ram:0003c2f6    20d0            beq         LAB_0003c33a                            
ram:0003c2f8    134b            ldr         r3,[DAT_0003c348]                       ;= 20002C74h
ram:0003c2fa    3200            movs        param_3,r6                              
ram:0003c2fc    1888            ldrh        param_1,[r3,#0x0]=>DAT_20002c74         
ram:0003c2fe    1a4b            ldr         r3=>DAT_20002c6c,[DAT_0003c368]         ;= 20002C6Ch
ram:0003c300    4443            muls        r4,param_1                              
ram:0003c302    1868            ldr         param_1,[r3,#0x0]=>DAT_20002c6c         
ram:0003c304    0099            ldr         param_2,[sp,#0x0]=>local_28             
ram:0003c306    0019            adds        param_1,param_1,r4                      
ram:0003c308    03f0cbf9        bl          FUN_0003f6a2                            ;undefined FUN_0003f6a2(int param_1, ...
ram:0003c30c    0020            movs        param_1,#0x0                            
ram:0003c30e    3b68            ldr         r3,[r7,#0x0]=>DAT_20002c70              
ram:0003c310    5d19            adds        r5,r3,r5                                
ram:0003c312    ae80            strh        r6,[r5,#0x4]                            
                            LAB_0003c314:                 ;XREF[4,0]:   0003c23e,0003c2e0,0003c33e,0003c346
ram:0003c314    05b0            add         sp,#0x14                                
ram:0003c316    f0bd            pop         {r4,r5,r6,r7,pc}                        
                            LAB_0003c318:                 ;XREF[1,0]:   0003c25a
ram:0003c318    9b08            lsrs        r3,r3,#0x2                              
ram:0003c31a    c033            adds        r3,#0xc0                                
ram:0003c31c    1349            ldr         param_2,[DAT_0003c36c]                  ;= E000E100h
ram:0003c31e    9b00            lsls        r3,r3,#0x2                              
ram:0003c320    5b58            ldr         r3,[r3,param_2]=>DAT_e000e100           
ram:0003c322    a4e7            b           LAB_0003c26e                            
                            LAB_0003c324:                 ;XREF[1,0]:   0003c288
ram:0003c324    0028            cmp         param_1,#0x0                            
ram:0003c326    b1d0            beq         LAB_0003c28c                            
ram:0003c328    0022            movs        param_3,#0x0                            
ram:0003c32a    1100            movs        param_2,param_3                         
ram:0003c32c    fff748ff        bl          FUN_0003c1c0                            ;undefined FUN_0003c1c0(void)
ram:0003c330    ace7            b           LAB_0003c28c                            
                            LAB_0003c332:                 ;XREF[1,0]:   0003c27e
ram:0003c332    1d00            movs        r5,r3                                   
ram:0003c334    aae7            b           LAB_0003c28c                            
                            LAB_0003c336:                 ;XREF[1,0]:   0003c342
ram:0003c336    0a4c            ldr         r4,[DAT_0003c360]                       ;= 0000FFFFh
ram:0003c338    c3e7            b           LAB_0003c2c2                            
                            LAB_0003c33a:                 ;XREF[2,0]:   0003c2f2,0003c2f6
ram:0003c33a    0020            movs        param_1,#0x0                            
ram:0003c33c    9880            strh        param_1,[r3,#0x4]                       
ram:0003c33e    e9e7            b           LAB_0003c314                            
                            LAB_0003c340:                 ;XREF[1,0]:   0003c2a8
ram:0003c340    012d            cmp         r5,#0x1                                 
ram:0003c342    f8d1            bne         LAB_0003c336                            
ram:0003c344    0420            movs        param_1,#0x4                            
ram:0003c346    e5e7            b           LAB_0003c314                            
                            DAT_0003c348:                 ;XREF[2,0]:   0003c22e,0003c2f8
ram:0003c348    742c0020        undefined4  20002C74h                               
                            DAT_0003c34c:                 ;XREF[1,0]:   0003c248
ram:0003c34c    00ed00e0        undefined4  E000ED00h                               
                            DAT_0003c350:                 ;XREF[1,0]:   0003c266
ram:0003c350    18ed00e0        undefined4  E000ED18h                               
                            DAT_0003c354:                 ;XREF[1,0]:   0003c28c
ram:0003c354    782c0020        undefined4  20002C78h                               
                            DAT_0003c358:                 ;XREF[2,0]:   0003c28e,0003c2ba
ram:0003c358    682c0020        undefined4  20002C68h                               
                            DAT_0003c35c:                 ;XREF[1,0]:   0003c290
ram:0003c35c    762c0020        undefined4  20002C76h                               
                            DAT_0003c360:                 ;XREF[2,0]:   0003c2da,0003c336
ram:0003c360    ffff0000        undefined4  0000FFFFh                               
                            DAT_0003c364:                 ;XREF[1,0]:   0003c2e2
ram:0003c364    702c0020        undefined4  20002C70h                               
                            DAT_0003c368:                 ;XREF[1,0]:   0003c2fe
ram:0003c368    6c2c0020        undefined4  20002C6Ch                               
                            DAT_0003c36c:                 ;XREF[1,0]:   0003c31c
ram:0003c36c    00e100e0        undefined4  E000E100h                               
                            ;************************************************************************************************
                            ;*                                           FUNCTION                                           *
                            ;************************************************************************************************
                            ;undefined FUN_0003c370(void)
                                                          ;XREF[1,0]:   0003cc6e
ram:0003c370    10b5            push        {r4,lr}                                 
                            LAB_0003c372:                 ;XREF[1,0]:   0003c3b0
ram:0003c372    104a            ldr         r2,[DAT_0003c3b4]                       ;= 20002C78h
ram:0003c374    104b            ldr         r3,[DAT_0003c3b8]                       ;= 20002C68h
ram:0003c376    1178            ldrb        r1,[r2,#0x0]=>DAT_20002c78              
ram:0003c378    1b78            ldrb        r3,[r3,#0x0]=>DAT_20002c68              
ram:0003c37a    9942            cmp         r1,r3                                   
ram:0003c37c    19d0            beq         LAB_0003c3b2                            
ram:0003c37e    0f49            ldr         r1,[DAT_0003c3bc]                       ;= 20002C76h
ram:0003c380    1078            ldrb        r0,[r2,#0x0]=>DAT_20002c78              
ram:0003c382    1378            ldrb        r3,[r2,#0x0]=>DAT_20002c78              
ram:0003c384    0c88            ldrh        r4,[r1,#0x0]=>DAT_20002c76              
ram:0003c386    dbb2            uxtb        r3,r3                                   
ram:0003c388    c0b2            uxtb        r0,r0                                   
ram:0003c38a    0021            movs        r1,#0x0                                 
ram:0003c38c    9c42            cmp         r4,r3                                   
ram:0003c38e    01d9            bls         LAB_0003c394                            
ram:0003c390    0133            adds        r3,#0x1                                 
ram:0003c392    d9b2            uxtb        r1,r3                                   
                            LAB_0003c394:                 ;XREF[1,0]:   0003c38e
ram:0003c394    0a4b            ldr         r3,[DAT_0003c3c0]                       ;= 20002C70h
ram:0003c396    1170            strb        r1,[r2,#0x0]=>DAT_20002c78              
ram:0003c398    1b68            ldr         r3,[r3,#0x0]=>DAT_20002c70              
ram:0003c39a    c200            lsls        r2,r0,#0x3                              
ram:0003c39c    9b18            adds        r3,r3,r2                                
ram:0003c39e    094a            ldr         r2,[DAT_0003c3c4]                       ;= 20002C74h
ram:0003c3a0    9988            ldrh        r1,[r3,#0x4]                            
ram:0003c3a2    1288            ldrh        r2,[r2,#0x0]=>DAT_20002c74              
ram:0003c3a4    1b68            ldr         r3,[r3,#0x0]                            
ram:0003c3a6    5043            muls        r0,r2                                   
ram:0003c3a8    074a            ldr         r2,[DAT_0003c3c8]                       ;= 20002C6Ch
ram:0003c3aa    1268            ldr         r2,[r2,#0x0]=>DAT_20002c6c              
ram:0003c3ac    1018            adds        r0,r2,r0                                
ram:0003c3ae    9847            blx         r3                                      
ram:0003c3b0    dfe7            b           LAB_0003c372                            
                            LAB_0003c3b2:                 ;XREF[1,0]:   0003c37c
ram:0003c3b2    10bd            pop         {r4,pc}                                 
                            DAT_0003c3b4:                 ;XREF[1,0]:   0003c372
ram:0003c3b4    782c0020        undefined4  20002C78h                               
                            DAT_0003c3b8:                 ;XREF[1,0]:   0003c374
ram:0003c3b8    682c0020        undefined4  20002C68h                               
                            DAT_0003c3bc:                 ;XREF[1,0]:   0003c37e
ram:0003c3bc    762c0020        undefined4  20002C76h                               
                            DAT_0003c3c0:                 ;XREF[1,0]:   0003c394
ram:0003c3c0    702c0020        undefined4  20002C70h                               
                            DAT_0003c3c4:                 ;XREF[1,0]:   0003c39e
ram:0003c3c4    742c0020        undefined4  20002C74h                               
                            DAT_0003c3c8:                 ;XREF[1,0]:   0003c3a8
ram:0003c3c8    6c2c0020        undefined4  20002C6Ch                               
                            ;************************************************************************************************
                            ;*                                           FUNCTION                                           *
                            ;************************************************************************************************
                            ;undefined FUN_0003c3cc(void)
                                                          ;XREF[2,0]:   0003c9c2,0003c9f4
ram:0003c3cc    8022            movs        r2,#0x80                                
ram:0003c3ce    194b            ldr         r3,[DAT_0003c434]                       ;= E000E104h
ram:0003c3d0    9202            lsls        r2,r2,#0xa                              
ram:0003c3d2    da67            str         r2,[r3,#0x7c]=>DAT_e000e180             
ram:0003c3d4    d221            movs        r1,#0xd2                                
ram:0003c3d6    8022            movs        r2,#0x80                                
ram:0003c3d8    174b            ldr         r3,[DAT_0003c438]                       ;= 40011000h
ram:0003c3da    5202            lsls        r2,r2,#0x9                              
ram:0003c3dc    8900            lsls        r1,r1,#0x2                              
ram:0003c3de    5a50            str         r2,[r3,r1]=>DAT_40011348                
ram:0003c3e0    4039            subs        r1,#0x40                                
ram:0003c3e2    5a50            str         r2,[r3,r1]=>DAT_40011308                
ram:0003c3e4    0121            movs        r1,#0x1                                 
ram:0003c3e6    2f22            movs        r2,#0x2f                                
ram:0003c3e8    5960            str         r1,[r3,#offset DAT_40011004 &0xff]      
ram:0003c3ea    1000            movs        r0,r2                                   
                            LAB_0003c3ec:                 ;XREF[1,0]:   0003c406
ram:0003c3ec    0138            subs        r0,#0x1                                 
ram:0003c3ee    c046            mov         r8,r8                                   
ram:0003c3f0    c046            mov         r8,r8                                   
ram:0003c3f2    c046            mov         r8,r8                                   
ram:0003c3f4    c046            mov         r8,r8                                   
ram:0003c3f6    c046            mov         r8,r8                                   
ram:0003c3f8    c046            mov         r8,r8                                   
ram:0003c3fa    c046            mov         r8,r8                                   
ram:0003c3fc    c046            mov         r8,r8                                   
ram:0003c3fe    c046            mov         r8,r8                                   
ram:0003c400    c046            mov         r8,r8                                   
ram:0003c402    c046            mov         r8,r8                                   
ram:0003c404    c046            mov         r8,r8                                   
ram:0003c406    f1d1            bne         LAB_0003c3ec                            
ram:0003c408    9960            str         r1,[r3,#offset DAT_40011008 &0xff]      
ram:0003c40a    0023            movs        r3,#0x0                                 
ram:0003c40c    0b49            ldr         r1,[DAT_0003c43c]                       ;= 20002C90h
ram:0003c40e    1000            movs        r0,r2                                   
ram:0003c410    0b60            str         r3,[r1,#0x0]=>DAT_20002c90              
                            LAB_0003c412:                 ;XREF[1,0]:   0003c42c
ram:0003c412    0138            subs        r0,#0x1                                 
ram:0003c414    c046            mov         r8,r8                                   
ram:0003c416    c046            mov         r8,r8                                   
ram:0003c418    c046            mov         r8,r8                                   
ram:0003c41a    c046            mov         r8,r8                                   
ram:0003c41c    c046            mov         r8,r8                                   
ram:0003c41e    c046            mov         r8,r8                                   
ram:0003c420    c046            mov         r8,r8                                   
ram:0003c422    c046            mov         r8,r8                                   
ram:0003c424    c046            mov         r8,r8                                   
ram:0003c426    c046            mov         r8,r8                                   
ram:0003c428    c046            mov         r8,r8                                   
ram:0003c42a    c046            mov         r8,r8                                   
ram:0003c42c    f1d1            bne         LAB_0003c412                            
ram:0003c42e    044a            ldr         r2,[DAT_0003c440]                       ;= 20002C82h
ram:0003c430    1370            strb        r3,[r2,#0x0]=>DAT_20002c82              
ram:0003c432    7047            bx          lr                                      
                            DAT_0003c434:                 ;XREF[1,0]:   0003c3ce
ram:0003c434    04e100e0        undefined4  E000E104h                               
                            DAT_0003c438:                 ;XREF[1,0]:   0003c3d8
ram:0003c438    00100140        undefined4  40011000h                               
                            DAT_0003c43c:                 ;XREF[1,0]:   0003c40c
ram:0003c43c    902c0020        undefined4  20002C90h                               
                            DAT_0003c440:                 ;XREF[1,0]:   0003c42e
ram:0003c440    822c0020        undefined4  20002C82h                               
                            ;************************************************************************************************
                            ;*                                           FUNCTION                                           *
                            ;************************************************************************************************
                            ;int FUN_0003c444(byte * param_1, uint * param_2)
          ;param_1       byte *              r0                      
          ;param_2       uint *              r1                      
                                                          ;XREF[2,0]:   0003cb66,0003cbe8
ram:0003c444    10b5            push        {r4,lr}                                 
ram:0003c446    4378            ldrb        r3,[param_1,#0x1]                       
ram:0003c448    0200            movs        r2,param_1                              
ram:0003c44a    8078            ldrb        param_1,[param_1,#0x2]                  
ram:0003c44c    0133            adds        r3,#0x1                                 
ram:0003c44e    8342            cmp         r3,param_1                              
ram:0003c450    00d1            bne         LAB_0003c454                            
ram:0003c452    0023            movs        r3,#0x0                                 
                            LAB_0003c454:                 ;XREF[1,0]:   0003c450
ram:0003c454    1478            ldrb        r4,[r2,#0x0]                            
ram:0003c456    0020            movs        param_1,#0x0                            
ram:0003c458    a342            cmp         r3,r4                                   
ram:0003c45a    05d0            beq         LAB_0003c468                            
ram:0003c45c    0b60            str         r3,[param_2,#0x0]                       
ram:0003c45e    5378            ldrb        r3,[r2,#0x1]                            
ram:0003c460    1830            adds        param_1,#0x18                           
ram:0003c462    4343            muls        r3,param_1                              
ram:0003c464    5068            ldr         param_1,[r2,#0x4]                       
ram:0003c466    c018            adds        param_1,param_1,r3                      
                            LAB_0003c468:                 ;XREF[1,0]:   0003c45a
ram:0003c468    10bd            pop         {r4,pc}                                 
ram:0003c46a    0000            movs        r0,r0                                   
                            ;************************************************************************************************
                            ;*                                           FUNCTION                                           *
                            ;************************************************************************************************
                            ;int FUN_0003c46c(void)
                                                          ;XREF[2,0]:   0003cb56,0003cbd8
ram:0003c46c    144b            ldr         r3,[DAT_0003c4c0]                       ;= E000ED00h
ram:0003c46e    0220            movs        r0,#0x2                                 
ram:0003c470    5a68            ldr         r2,[r3,#offset DAT_e000ed04 &0xff]      
ram:0003c472    d205            lsls        r2,r2,#0x17                             
ram:0003c474    d20d            lsrs        r2,r2,#0x17                             
ram:0003c476    1bd0            beq         LAB_0003c4b0                            
ram:0003c478    103a            subs        r2,#0x10                                
ram:0003c47a    53b2            sxtb        r3,r2                                   
ram:0003c47c    002b            cmp         r3,#0x0                                 
ram:0003c47e    18da            bge         LAB_0003c4b2                            
ram:0003c480    0f23            movs        r3,#0xf                                 
ram:0003c482    d2b2            uxtb        r2,r2                                   
ram:0003c484    1340            ands        r3,r2                                   
ram:0003c486    083b            subs        r3,#0x8                                 
ram:0003c488    c340            lsrs        r3,r0                                   
ram:0003c48a    8340            lsls        r3,r0                                   
ram:0003c48c    0d49            ldr         r1,[DAT_0003c4c4]                       ;= E000ED18h
ram:0003c48e    5b18            adds        r3,r3,r1                                
ram:0003c490    5b68            ldr         r3,[r3,#0x4]                            
                            LAB_0003c492:                 ;XREF[1,0]:   0003c4bc
ram:0003c492    0320            movs        r0,#0x3                                 
ram:0003c494    0240            ands        r2,r0                                   
ram:0003c496    8240            lsls        r2,r0                                   
ram:0003c498    d340            lsrs        r3,r2                                   
ram:0003c49a    9b09            lsrs        r3,r3,#0x6                              
ram:0003c49c    0340            ands        r3,r0                                   
ram:0003c49e    dbb2            uxtb        r3,r3                                   
ram:0003c4a0    0020            movs        r0,#0x0                                 
ram:0003c4a2    012b            cmp         r3,#0x1                                 
ram:0003c4a4    04d0            beq         LAB_0003c4b0                            
ram:0003c4a6    033b            subs        r3,#0x3                                 
ram:0003c4a8    1800            movs        r0,r3                                   
ram:0003c4aa    431e            subs        r3,r0,#0x1                              
ram:0003c4ac    9841            sbcs        r0,r3                                   
ram:0003c4ae    0130            adds        r0,#0x1                                 
                            LAB_0003c4b0:                 ;XREF[2,0]:   0003c476,0003c4a4
ram:0003c4b0    7047            bx          lr                                      
                            LAB_0003c4b2:                 ;XREF[1,0]:   0003c47e
ram:0003c4b2    9b08            lsrs        r3,r3,#0x2                              
ram:0003c4b4    c033            adds        r3,#0xc0                                
ram:0003c4b6    0449            ldr         r1,[DAT_0003c4c8]                       ;= E000E100h
ram:0003c4b8    9b00            lsls        r3,r3,#0x2                              
ram:0003c4ba    5b58            ldr         r3,[r3,r1]=>DAT_e000e100                
ram:0003c4bc    e9e7            b           LAB_0003c492                            
ram:0003c4be    c046            mov         r8,r8                                   
                            DAT_0003c4c0:                 ;XREF[1,0]:   0003c46c
ram:0003c4c0    00ed00e0        undefined4  E000ED00h                               
                            DAT_0003c4c4:                 ;XREF[1,0]:   0003c48c
ram:0003c4c4    18ed00e0        undefined4  E000ED18h                               
                            DAT_0003c4c8:                 ;XREF[1,0]:   0003c4b6
ram:0003c4c8    00e100e0        undefined4  E000E100h                               
                            ;************************************************************************************************
                            ;*                                           FUNCTION                                           *
                            ;************************************************************************************************
                            ;undefined FUNC_VT_0003c4cc(void)
                                                          ;XREF[0,1]:   0003c084
ram:0003c4cc    f8b5            push        {r3,r4,r5,r6,r7,lr}                     
ram:0003c4ce    0024            movs        r4,#0x0                                 
ram:0003c4d0    234b            ldr         r3,[DAT_0003c560]                       ;= 400110FCh
ram:0003c4d2    5c64            str         r4,[r3,#0x44]=>DAT_40011140             
ram:0003c4d4    9c64            str         r4,[r3,#0x48]=>DAT_40011144             
ram:0003c4d6    dc64            str         r4,[r3,#0x4c]=>DAT_40011148             
ram:0003c4d8    1c65            str         r4,[r3,#0x50]=>DAT_4001114c             
ram:0003c4da    5c60            str         r4,[r3,#0x4]=>DAT_40011100              
ram:0003c4dc    9c60            str         r4,[r3,#0x8]=>DAT_40011104              
ram:0003c4de    214b            ldr         r3,[DAT_0003c564]                       ;= 20002C94h
ram:0003c4e0    1e68            ldr         r6,[r3,#0x0]=>DAT_20002c94              
ram:0003c4e2    731c            adds        r3,r6,#0x1                              
ram:0003c4e4    34d0            beq         LAB_0003c550                            
ram:0003c4e6    2427            movs        r7,#0x24                                
ram:0003c4e8    1f4b            ldr         r3,[DAT_0003c568]                       ;= 00000504h
ram:0003c4ea    204a            ldr         r2,[DAT_0003c56c]                       ;= 40011000h
ram:0003c4ec    d558            ldr         r5,[r2,r3]=>DAT_40011504                
ram:0003c4ee    204b            ldr         r3,[DAT_0003c570]                       ;= 20002C90h
ram:0003c4f0    1b68            ldr         r3,[r3,#0x0]=>DAT_20002c90              
ram:0003c4f2    ed1a            subs        r5,r5,r3                                
ram:0003c4f4    2d02            lsls        r5,r5,#0x8                              
ram:0003c4f6    2d0a            lsrs        r5,r5,#0x8                              
                            LAB_0003c4f8:                 ;XREF[1,0]:   0003c528
ram:0003c4f8    7e43            muls        r6,r7                                   
ram:0003c4fa    1e4b            ldr         r3,[DAT_0003c574]                       ;= 20002C9Ch
ram:0003c4fc    1b68            ldr         r3,[r3,#0x0]=>DAT_20002c9c              
ram:0003c4fe    9b19            adds        r3,r3,r6                                
ram:0003c500    5a68            ldr         r2,[r3,#0x4]                            
ram:0003c502    aa42            cmp         r2,r5                                   
ram:0003c504    11d8            bhi         LAB_0003c52a                            
ram:0003c506    ad1a            subs        r5,r5,r2                                
ram:0003c508    a418            adds        r4,r4,r2                                
ram:0003c50a    1b4a            ldr         r2,[DAT_0003c578]                       ;= 20002C7Ch
ram:0003c50c    1e6a            ldr         r6,[r3,#0x20]                           
ram:0003c50e    1268            ldr         r2,[r2,#0x0]=>DAT_20002c7c              
ram:0003c510    002a            cmp         r2,#0x0                                 
ram:0003c512    1ed0            beq         LAB_0003c552                            
ram:0003c514    d969            ldr         r1,[r3,#0x1c]                           
ram:0003c516    9869            ldr         r0,[r3,#0x18]                           
ram:0003c518    9047            blx         r2                                      
ram:0003c51a    0028            cmp         r0,#0x0                                 
ram:0003c51c    03d0            beq         LAB_0003c526                            
ram:0003c51e    0022            movs        r2,#0x0                                 
ram:0003c520    1100            movs        r1,r2                                   
ram:0003c522    fff74dfe        bl          FUN_0003c1c0                            ;undefined FUN_0003c1c0(void)
                            LAB_0003c526:                 ;XREF[2,0]:   0003c51c,0003c558
ram:0003c526    731c            adds        r3,r6,#0x1                              
ram:0003c528    e6d1            bne         LAB_0003c4f8                            
                            LAB_0003c52a:                 ;XREF[1,0]:   0003c504
ram:0003c52a    144b            ldr         r3,[DAT_0003c57c]                       ;= 20002C8Ch
ram:0003c52c    144a            ldr         r2,[DAT_0003c580]                       ;= 20002C8Dh
ram:0003c52e    1978            ldrb        r1,[r3,#0x0]=>DAT_20002c8c              
ram:0003c530    1378            ldrb        r3,[r2,#0x0]=>DAT_20002c8d              
ram:0003c532    8b42            cmp         r3,r1                                   
ram:0003c534    04d1            bne         LAB_0003c540                            
ram:0003c536    0133            adds        r3,#0x1                                 
ram:0003c538    dbb2            uxtb        r3,r3                                   
ram:0003c53a    022b            cmp         r3,#0x2                                 
ram:0003c53c    0dd0            beq         LAB_0003c55a                            
                            LAB_0003c53e:                 ;XREF[1,0]:   0003c55c
ram:0003c53e    1370            strb        r3,[r2,#0x0]=>DAT_20002c8d              
                            LAB_0003c540:                 ;XREF[1,0]:   0003c534
ram:0003c540    1378            ldrb        r3,[r2,#0x0]=>DAT_20002c8d              
ram:0003c542    104a            ldr         r2,[DAT_0003c584]                       ;= 20002C84h
ram:0003c544    9b00            lsls        r3,r3,#0x2                              
ram:0003c546    9c50            str         r4,[r3,r2]=>DAT_20002c84                
ram:0003c548    8022            movs        r2,#0x80                                
ram:0003c54a    0f4b            ldr         r3,[DAT_0003c588]                       ;= E000E1FCh
ram:0003c54c    5203            lsls        r2,r2,#0xd                              
ram:0003c54e    5a60            str         r2,[r3,#0x4]=>DAT_e000e200              
                            LAB_0003c550:                 ;XREF[1,0]:   0003c4e4
ram:0003c550    f8bd            pop         {r3,r4,r5,r6,r7,pc}                     
                            LAB_0003c552:                 ;XREF[1,0]:   0003c512
ram:0003c552    9a69            ldr         r2,[r3,#0x18]                           
ram:0003c554    d869            ldr         r0,[r3,#0x1c]                           
ram:0003c556    9047            blx         r2                                      
ram:0003c558    e5e7            b           LAB_0003c526                            
                            LAB_0003c55a:                 ;XREF[1,0]:   0003c53c
ram:0003c55a    0023            movs        r3,#0x0                                 
ram:0003c55c    efe7            b           LAB_0003c53e                            
ram:0003c55e    c046            mov         r8,r8                                   
                            DAT_0003c560:                 ;XREF[1,0]:   0003c4d0
ram:0003c560    fc100140        undefined4  400110FCh                               
                            DAT_0003c564:                 ;XREF[1,0]:   0003c4de
ram:0003c564    942c0020        undefined4  20002C94h                               
                            DAT_0003c568:                 ;XREF[1,0]:   0003c4e8
ram:0003c568    04050000        undefined4  00000504h                               
                            DAT_0003c56c:                 ;XREF[1,0]:   0003c4ea
ram:0003c56c    00100140        undefined4  40011000h                               
                            DAT_0003c570:                 ;XREF[1,0]:   0003c4ee
ram:0003c570    902c0020        undefined4  20002C90h                               
                            DAT_0003c574:                 ;XREF[1,0]:   0003c4fa
ram:0003c574    9c2c0020        undefined4  20002C9Ch                               
                            DAT_0003c578:                 ;XREF[1,0]:   0003c50a
ram:0003c578    7c2c0020        undefined4  20002C7Ch                               
                            DAT_0003c57c:                 ;XREF[1,0]:   0003c52a
ram:0003c57c    8c2c0020        undefined4  20002C8Ch                               
                            DAT_0003c580:                 ;XREF[1,0]:   0003c52c
ram:0003c580    8d2c0020        undefined4  20002C8Dh                               
                            DAT_0003c584:                 ;XREF[1,0]:   0003c542
ram:0003c584    842c0020        undefined4  20002C84h                               
                            DAT_0003c588:                 ;XREF[1,0]:   0003c54a
ram:0003c588    fce100e0        undefined4  E000E1FCh                               
                            ;************************************************************************************************
                            ;*                                           FUNCTION                                           *
                            ;************************************************************************************************
                            ;undefined FUNC_VT_0003c58c(void)
          ;local_1c      undefined4         -1c                      ;XREF[2,0]:   0003c5e4,0003c750
          ;local_20      undefined4         -20                      ;XREF[3,0]:   0003c5e2,0003c61c,0003c7fe
          ;local_24      undefined4         -24                      ;XREF[3,0]:   0003c5f2,0003c624,0003c804
          ;local_28      undefined4         -28                      ;XREF[3,0]:   0003c5f8,0003c618,0003c802
          ;local_2c      undefined4         -2c                      ;XREF[5,0]:   0003c5e8,0003c60a,0003c664,0003c800,0003c906
          ;local_30      undefined4         -30                      ;XREF[5,0]:   0003c5d0,0003c5fa,0003c638,0003c658,0003c8b4
          ;local_34      undefined4         -34                      ;XREF[6,0]:   0003c598,0003c5be,0003c85e,0003c98c,0003c9a4
                                                                     ;             0003c9ba
          ;local_38      undefined4         -38                      ;XREF[7,0]:   0003c66a,0003c7a2,0003c7bc,0003c7d2,0003c922
                                                                     ;             0003c970,0003c9ca
          ;local_3c      undefined4         -3c                      ;XREF[8,0]:   0003c650,0003c654,0003c68a,0003c796,0003c7ae
                                                                     ;             0003c7d4,0003c7ec,0003c9c8
          ;local_40      undefined4         -40                      ;XREF[7,0]:   0003c5dc,0003c5fc,0003c602,0003c66e,0003c67e
                                                                     ;             0003c74c,0003c96c
          ;local_44      undefined4         -44                      ;XREF[5,0]:   0003c5d6,0003c5d8,0003c670,0003c676,0003c8b0
          ;local_48      undefined4         -48                      ;XREF[7,0]:   0003c5ca,0003c630,0003c644,0003c690,0003c6c0
                                                                     ;             0003c71a,0003c870
          ;local_4c      undefined4         -4c                      ;XREF[16,0]:  0003c5ba,0003c5bc,0003c65e,0003c6ae,0003c706
                                                                     ;             0003c746,0003c832,0003c840,0003c848,0003c84e
                                                                     ;             0003c8ec,0003c916,0003c94a,0003c956,0003c998
                                                                     ;             0003c9aa
                                                          ;XREF[0,1]:   0003c090
ram:0003c58c    f0b5            push        {r4,r5,r6,r7,lr}                        
ram:0003c58e    ba4a            ldr         r2,[DAT_0003c878]                       ;= 20002C90h
ram:0003c590    ba48            ldr         r0,[DAT_0003c87c]                       ;= 20002C8Dh
ram:0003c592    1368            ldr         r3,[r2,#0x0]=>DAT_20002c90              
ram:0003c594    ba49            ldr         r1,[DAT_0003c880]                       ;= 20002C8Ch
ram:0003c596    8fb0            sub         sp,#0x3c                                
ram:0003c598    0793            str         r3,[sp,#local_34+0x50]                  
ram:0003c59a    0478            ldrb        r4,[r0,#0x0]=>DAT_20002c8d              
ram:0003c59c    0b78            ldrb        r3,[r1,#0x0]=>DAT_20002c8c              
ram:0003c59e    0020            movs        r0,#0x0                                 
ram:0003c5a0    9c42            cmp         r4,r3                                   
ram:0003c5a2    00d1            bne         LAB_0003c5a6                            
ram:0003c5a4    cfe0            b           LAB_0003c746                            
                            LAB_0003c5a6:                 ;XREF[1,0]:   0003c5a2
ram:0003c5a6    0133            adds        r3,#0x1                                 
ram:0003c5a8    dbb2            uxtb        r3,r3                                   
ram:0003c5aa    022b            cmp         r3,#0x2                                 
ram:0003c5ac    00d1            bne         LAB_0003c5b0                            
ram:0003c5ae    c8e0            b           LAB_0003c742                            
                            LAB_0003c5b0:                 ;XREF[1,0]:   0003c5ac
ram:0003c5b0    0b70            strb        r3,[r1,#0x0]=>DAT_20002c8c              
                            LAB_0003c5b2:                 ;XREF[1,0]:   0003c744
ram:0003c5b2    0b78            ldrb        r3,[r1,#0x0]=>DAT_20002c8c              
ram:0003c5b4    b349            ldr         r1,[DAT_0003c884]                       ;= 20002C84h
ram:0003c5b6    9b00            lsls        r3,r3,#0x2                              
ram:0003c5b8    5b58            ldr         r3,[r3,r1]=>DAT_20002c84                
ram:0003c5ba    0193            str         r3,[sp,#local_4c+0x50]                  
ram:0003c5bc    0199            ldr         r1,[sp,#local_4c+0x50]                  
ram:0003c5be    079b            ldr         r3,[sp,#local_34+0x50]                  
ram:0003c5c0    5b18            adds        r3,r3,r1                                
ram:0003c5c2    1b02            lsls        r3,r3,#0x8                              
ram:0003c5c4    1b0a            lsrs        r3,r3,#0x8                              
ram:0003c5c6    1360            str         r3,[r2,#0x0]=>DAT_20002c90              
ram:0003c5c8    0123            movs        r3,#0x1                                 
                            LAB_0003c5ca:                 ;XREF[1,0]:   0003c74a
ram:0003c5ca    0293            str         r3,[sp,#local_48+0x50]                  
ram:0003c5cc    ae4b            ldr         r3,[DAT_0003c888]                       ;= 20002C94h
ram:0003c5ce    1b68            ldr         r3,[r3,#0x0]=>DAT_20002c94              
ram:0003c5d0    0893            str         r3,[sp,#local_30+0x50]                  
ram:0003c5d2    ae4b            ldr         r3,[DAT_0003c88c]                       ;= 20002C98h
ram:0003c5d4    1b78            ldrb        r3,[r3,#0x0]=>DAT_20002c98              
ram:0003c5d6    0393            str         r3,[sp,#local_44+0x50]                  
ram:0003c5d8    039a            ldr         r2,[sp,#local_44+0x50]                  
ram:0003c5da    ad4b            ldr         r3,[DAT_0003c890]                       ;= 20002CA0h
ram:0003c5dc    0492            str         r2,[sp,#local_40+0x50]                  
ram:0003c5de    0022            movs        r2,#0x0                                 
ram:0003c5e0    1b68            ldr         r3,[r3,#0x0]=>DAT_20002ca0              
ram:0003c5e2    0c92            str         r2,[sp,#local_20+0x50]                  
ram:0003c5e4    0d93            str         r3,[sp,#local_1c+0x50]                  
ram:0003c5e6    ab4b            ldr         r3,[DAT_0003c894]                       ;= 20002C9Ch
ram:0003c5e8    0992            str         r2,[sp,#local_2c+0x50]                  
ram:0003c5ea    1b68            ldr         r3,[r3,#0x0]=>DAT_20002c9c              
ram:0003c5ec    9c46            mov         r12,r3                                  
ram:0003c5ee    a24b            ldr         r3,[DAT_0003c878]                       ;= 20002C90h
ram:0003c5f0    1b68            ldr         r3,[r3,#0x0]=>DAT_20002c90              
ram:0003c5f2    0b93            str         r3,[sp,#local_24+0x50]                  
ram:0003c5f4    a84b            ldr         r3,[DAT_0003c898]                       ;= 20002C81h
ram:0003c5f6    1b78            ldrb        r3,[r3,#0x0]=>DAT_20002c81              
ram:0003c5f8    0a93            str         r3,[sp,#local_28+0x50]                  
ram:0003c5fa    089b            ldr         r3,[sp,#local_30+0x50]                  
                            LAB_0003c5fc:                 ;XREF[1,0]:   0003c75c
ram:0003c5fc    0499            ldr         r1,[sp,#local_40+0x50]                  
ram:0003c5fe    0139            subs        r1,#0x1                                 
ram:0003c600    c9b2            uxtb        r1,r1                                   
ram:0003c602    0491            str         r1,[sp,#local_40+0x50]                  
ram:0003c604    ff29            cmp         r1,#0xff                                
ram:0003c606    00d0            beq         LAB_0003c60a                            
ram:0003c608    a0e0            b           LAB_0003c74c                            
                            LAB_0003c60a:                 ;XREF[1,0]:   0003c606
ram:0003c60a    0999            ldr         r1,[sp,#local_2c+0x50]                  
ram:0003c60c    0029            cmp         r1,#0x0                                 
ram:0003c60e    05d0            beq         LAB_0003c61c                            
ram:0003c610    6846            mov         r0,sp                                   
ram:0003c612    2824            movs        r4,#0x28                                
ram:0003c614    0019            adds        r0,r0,r4                                
ram:0003c616    a049            ldr         r1,[DAT_0003c898]                       ;= 20002C81h
ram:0003c618    0078            ldrb        r0=>local_28,[r0,#0x0]                  
ram:0003c61a    0870            strb        r0,[r1,#0x0]=>DAT_20002c81              
                            LAB_0003c61c:                 ;XREF[1,0]:   0003c60e
ram:0003c61c    0c99            ldr         r1,[sp,#local_20+0x50]                  
ram:0003c61e    0029            cmp         r1,#0x0                                 
ram:0003c620    02d0            beq         LAB_0003c628                            
ram:0003c622    9549            ldr         r1,[DAT_0003c878]                       ;= 20002C90h
ram:0003c624    0b98            ldr         r0,[sp,#local_24+0x50]                  
ram:0003c626    0860            str         r0,[r1,#0x0]=>DAT_20002c90              
                            LAB_0003c628:                 ;XREF[1,0]:   0003c620
ram:0003c628    9749            ldr         r1,[DAT_0003c888]                       ;= 20002C94h
ram:0003c62a    002a            cmp         r2,#0x0                                 
ram:0003c62c    00d0            beq         LAB_0003c630                            
ram:0003c62e    0b60            str         r3,[r1,#0x0]=>DAT_20002c94              
                            LAB_0003c630:                 ;XREF[1,0]:   0003c62c
ram:0003c630    029b            ldr         r3,[sp,#local_48+0x50]                  
ram:0003c632    002b            cmp         r3,#0x0                                 
ram:0003c634    00d0            beq         LAB_0003c638                            
ram:0003c636    e7e0            b           LAB_0003c808                            
                            LAB_0003c638:                 ;XREF[1,0]:   0003c634
ram:0003c638    089a            ldr         r2,[sp,#local_30+0x50]                  
ram:0003c63a    0b68            ldr         r3,[r1,#0x0]=>DAT_20002c94              
ram:0003c63c    9b1a            subs        r3,r3,r2                                
ram:0003c63e    5a1e            subs        r2,r3,#0x1                              
ram:0003c640    9341            sbcs        r3,r2                                   
ram:0003c642    dbb2            uxtb        r3,r3                                   
ram:0003c644    0293            str         r3,[sp,#local_48+0x50]                  
ram:0003c646    0123            movs        r3,#0x1                                 
ram:0003c648    5b42            rsbs        r3,r3                                   
ram:0003c64a    9c46            mov         r12,r3                                  
                            LAB_0003c64c:                 ;XREF[3,0]:   0003c822,0003c828,0003c846
ram:0003c64c    8e4b            ldr         r3,[DAT_0003c888]                       ;= 20002C94h
ram:0003c64e    1b68            ldr         r3,[r3,#0x0]=>DAT_20002c94              
ram:0003c650    0593            str         r3,[sp,#local_3c+0x50]                  
ram:0003c652    8f4b            ldr         r3,[DAT_0003c890]                       ;= 20002CA0h
ram:0003c654    059a            ldr         r2,[sp,#local_3c+0x50]                  
ram:0003c656    1b68            ldr         r3,[r3,#0x0]=>DAT_20002ca0              
ram:0003c658    0893            str         r3,[sp,#local_30+0x50]                  
ram:0003c65a    8e4b            ldr         r3,[DAT_0003c894]                       ;= 20002C9Ch
ram:0003c65c    1b68            ldr         r3,[r3,#0x0]=>DAT_20002c9c              
ram:0003c65e    0193            str         r3,[sp,#local_4c+0x50]                  
ram:0003c660    8d4b            ldr         r3,[DAT_0003c898]                       ;= 20002C81h
ram:0003c662    1b78            ldrb        r3,[r3,#0x0]=>DAT_20002c81              
ram:0003c664    0993            str         r3,[sp,#local_2c+0x50]                  
ram:0003c666    844b            ldr         r3,[DAT_0003c878]                       ;= 20002C90h
ram:0003c668    1b68            ldr         r3,[r3,#0x0]=>DAT_20002c90              
ram:0003c66a    0693            str         r3,[sp,#local_38+0x50]                  
ram:0003c66c    0023            movs        r3,#0x0                                 
ram:0003c66e    0493            str         r3,[sp,#local_40+0x50]                  
                            LAB_0003c670:                 ;XREF[1,0]:   0003c8c6
ram:0003c670    039b            ldr         r3,[sp,#local_44+0x50]                  
ram:0003c672    013b            subs        r3,#0x1                                 
ram:0003c674    dbb2            uxtb        r3,r3                                   
ram:0003c676    0393            str         r3,[sp,#local_44+0x50]                  
ram:0003c678    ff2b            cmp         r3,#0xff                                
ram:0003c67a    00d0            beq         LAB_0003c67e                            
ram:0003c67c    18e1            b           LAB_0003c8b0                            
                            LAB_0003c67e:                 ;XREF[1,0]:   0003c67a
ram:0003c67e    0499            ldr         r1,[sp,#local_40+0x50]                  
ram:0003c680    814b            ldr         r3,[DAT_0003c888]                       ;= 20002C94h
ram:0003c682    0029            cmp         r1,#0x0                                 
ram:0003c684    00d0            beq         LAB_0003c688                            
ram:0003c686    1a60            str         r2,[r3,#0x0]=>DAT_20002c94              
                            LAB_0003c688:                 ;XREF[1,0]:   0003c684
ram:0003c688    1968            ldr         r1,[r3,#0x0]=>DAT_20002c94              
ram:0003c68a    059b            ldr         r3,[sp,#local_3c+0x50]                  
ram:0003c68c    8b42            cmp         r3,r1                                   
ram:0003c68e    02d1            bne         LAB_0003c696                            
ram:0003c690    029b            ldr         r3,[sp,#local_48+0x50]                  
ram:0003c692    002b            cmp         r3,#0x0                                 
ram:0003c694    50d0            beq         LAB_0003c738                            
                            LAB_0003c696:                 ;XREF[1,0]:   0003c68e
ram:0003c696    4b1c            adds        r3,r1,#0x1                              
ram:0003c698    00d1            bne         LAB_0003c69c                            
ram:0003c69a    92e1            b           LAB_0003c9c2                            
                            LAB_0003c69c:                 ;XREF[1,0]:   0003c698
ram:0003c69c    2422            movs        r2,#0x24                                
ram:0003c69e    7d4b            ldr         r3,[DAT_0003c894]                       ;= 20002C9Ch
ram:0003c6a0    4a43            muls        r2,r1                                   
ram:0003c6a2    1b68            ldr         r3,[r3,#0x0]=>DAT_20002c9c              
ram:0003c6a4    7d48            ldr         r0,[DAT_0003c89c]                       ;= 00000504h
ram:0003c6a6    9b18            adds        r3,r3,r2                                
ram:0003c6a8    5b68            ldr         r3,[r3,#0x4]                            
ram:0003c6aa    7349            ldr         r1,[DAT_0003c878]                       ;= 20002C90h
ram:0003c6ac    7c4a            ldr         r2,[DAT_0003c8a0]                       ;= 40011000h
ram:0003c6ae    0193            str         r3,[sp,#local_4c+0x50]                  
ram:0003c6b0    1458            ldr         r4,[r2,r0]=>DAT_40011504                
ram:0003c6b2    0d68            ldr         r5,[r1,#0x0]=>DAT_20002c90              
ram:0003c6b4    7b4e            ldr         r6,[DAT_0003c8a4]                       ;= 20002C82h
ram:0003c6b6    611b            subs        r1,r4,r5                                
ram:0003c6b8    0902            lsls        r1,r1,#0x8                              
ram:0003c6ba    3778            ldrb        r7,[r6,#0x0]=>DAT_20002c82              
ram:0003c6bc    090a            lsrs        r1,r1,#0x8                              
ram:0003c6be    0331            adds        r1,#0x3                                 
ram:0003c6c0    0290            str         r0,[sp,#local_48+0x50]                  
ram:0003c6c2    002f            cmp         r7,#0x0                                 
ram:0003c6c4    1fd1            bne         LAB_0003c706                            
ram:0003c6c6    8020            movs        r0,#0x80                                
ram:0003c6c8    d127            movs        r7,#0xd1                                
ram:0003c6ca    4002            lsls        r0,r0,#0x9                              
ram:0003c6cc    bf00            lsls        r7,r7,#0x2                              
ram:0003c6ce    d051            str         r0,[r2,r7]=>DAT_40011344                
ram:0003c6d0    403f            subs        r7,#0x40                                
ram:0003c6d2    d051            str         r0,[r2,r7]=>DAT_40011304                
ram:0003c6d4    c023            movs        r3,#0xc0                                
ram:0003c6d6    8027            movs        r7,#0x80                                
ram:0003c6d8    7348            ldr         r0,[DAT_0003c8a8]                       ;= E000E100h
ram:0003c6da    bf02            lsls        r7,r7,#0xa                              
ram:0003c6dc    5b00            lsls        r3,r3,#0x1                              
ram:0003c6de    c750            str         r7,[r0,r3]=>DAT_e000e280                
ram:0003c6e0    0760            str         r7,[r0,#0x0]=>DAT_e000e100              
ram:0003c6e2    0127            movs        r7,#0x1                                 
ram:0003c6e4    2f20            movs        r0,#0x2f                                
ram:0003c6e6    1760            str         r7,[r2,#0x0]=>DAT_40011000              
                            LAB_0003c6e8:                 ;XREF[1,0]:   0003c702
ram:0003c6e8    0138            subs        r0,#0x1                                 
ram:0003c6ea    c046            mov         r8,r8                                   
ram:0003c6ec    c046            mov         r8,r8                                   
ram:0003c6ee    c046            mov         r8,r8                                   
ram:0003c6f0    c046            mov         r8,r8                                   
ram:0003c6f2    c046            mov         r8,r8                                   
ram:0003c6f4    c046            mov         r8,r8                                   
ram:0003c6f6    c046            mov         r8,r8                                   
ram:0003c6f8    c046            mov         r8,r8                                   
ram:0003c6fa    c046            mov         r8,r8                                   
ram:0003c6fc    c046            mov         r8,r8                                   
ram:0003c6fe    c046            mov         r8,r8                                   
ram:0003c700    c046            mov         r8,r8                                   
ram:0003c702    f1d1            bne         LAB_0003c6e8                            
ram:0003c704    3770            strb        r7,[r6,#0x0]=>DAT_20002c82              
                            LAB_0003c706:                 ;XREF[1,0]:   0003c6c4
ram:0003c706    019b            ldr         r3,[sp,#local_4c+0x50]                  
ram:0003c708    8b42            cmp         r3,r1                                   
ram:0003c70a    00d2            bcs         LAB_0003c70e                            
ram:0003c70c    0b00            movs        r3,r1                                   
                            LAB_0003c70e:                 ;XREF[1,0]:   0003c70a
ram:0003c70e    a821            movs        r1,#0xa8                                
ram:0003c710    5b19            adds        r3,r3,r5                                
ram:0003c712    1b02            lsls        r3,r3,#0x8                              
ram:0003c714    1b0a            lsrs        r3,r3,#0x8                              
ram:0003c716    c900            lsls        r1,r1,#0x3                              
ram:0003c718    5350            str         r3,[r2,r1]=>DAT_40011540                
ram:0003c71a    0299            ldr         r1,[sp,#local_48+0x50]                  
ram:0003c71c    1b1b            subs        r3,r3,r4                                
ram:0003c71e    5258            ldr         r2,[r2,r1]=>DAT_40011504                
ram:0003c720    1b02            lsls        r3,r3,#0x8                              
ram:0003c722    121b            subs        r2,r2,r4                                
ram:0003c724    1202            lsls        r2,r2,#0x8                              
ram:0003c726    120a            lsrs        r2,r2,#0x8                              
ram:0003c728    0332            adds        r2,#0x3                                 
ram:0003c72a    1b0a            lsrs        r3,r3,#0x8                              
ram:0003c72c    9a42            cmp         r2,r3                                   
ram:0003c72e    03d9            bls         LAB_0003c738                            
ram:0003c730    8022            movs        r2,#0x80                                
ram:0003c732    5e4b            ldr         r3,[DAT_0003c8ac]                       ;= E000E1FCh
ram:0003c734    9202            lsls        r2,r2,#0xa                              
ram:0003c736    5a60            str         r2,[r3,#0x4]=>DAT_e000e200              
                            LAB_0003c738:                 ;XREF[3,0]:   0003c694,0003c72e,0003c9c6
ram:0003c738    0022            movs        r2,#0x0                                 
ram:0003c73a    574b            ldr         r3,[DAT_0003c898]                       ;= 20002C81h
ram:0003c73c    1a70            strb        r2,[r3,#0x0]=>DAT_20002c81              
ram:0003c73e    0fb0            add         sp,#0x3c                                
ram:0003c740    f0bd            pop         {r4,r5,r6,r7,pc}                        
                            LAB_0003c742:                 ;XREF[1,0]:   0003c5ae
ram:0003c742    0870            strb        r0,[r1,#0x0]=>DAT_20002c8c              
ram:0003c744    35e7            b           LAB_0003c5b2                            
                            LAB_0003c746:                 ;XREF[1,0]:   0003c5a4
ram:0003c746    0190            str         r0,[sp,#local_4c+0x50]                  
ram:0003c748    0300            movs        r3,r0                                   
ram:0003c74a    3ee7            b           LAB_0003c5ca                            
                            LAB_0003c74c:                 ;XREF[1,0]:   0003c608
ram:0003c74c    0499            ldr         r1,[sp,#local_40+0x50]                  
ram:0003c74e    c800            lsls        r0,r1,#0x3                              
ram:0003c750    0d99            ldr         r1,[sp,#local_1c+0x50]                  
ram:0003c752    0818            adds        r0,r1,r0                                
ram:0003c754    0778            ldrb        r7,[r0,#0x0]                            
                            LAB_0003c756:                 ;XREF[4,0]:   0003c77c,0003c780,0003c79e,0003c7ac
ram:0003c756    4178            ldrb        r1,[r0,#0x1]                            
ram:0003c758    b942            cmp         r1,r7                                   
ram:0003c75a    00d1            bne         LAB_0003c75e                            
ram:0003c75c    4ee7            b           LAB_0003c5fc                            
                            LAB_0003c75e:                 ;XREF[1,0]:   0003c75a
ram:0003c75e    1821            movs        r1,#0x18                                
ram:0003c760    7943            muls        r1,r7                                   
ram:0003c762    4468            ldr         r4,[r0,#0x4]                            
ram:0003c764    0137            adds        r7,#0x1                                 
ram:0003c766    6118            adds        r1,r4,r1                                
ram:0003c768    8478            ldrb        r4,[r0,#0x2]                            
ram:0003c76a    ffb2            uxtb        r7,r7                                   
ram:0003c76c    bc42            cmp         r4,r7                                   
ram:0003c76e    00d1            bne         LAB_0003c772                            
ram:0003c770    0027            movs        r7,#0x0                                 
                            LAB_0003c772:                 ;XREF[1,0]:   0003c76e
ram:0003c772    0c78            ldrb        r4,[r1,#0x0]                            
ram:0003c774    022c            cmp         r4,#0x2                                 
ram:0003c776    0bd0            beq         LAB_0003c790                            
ram:0003c778    0021            movs        r1,#0x0                                 
ram:0003c77a    032c            cmp         r4,#0x3                                 
ram:0003c77c    ebd1            bne         LAB_0003c756                            
                            LAB_0003c77e:                 ;XREF[1,0]:   0003c78e
ram:0003c77e    5c1c            adds        r4,r3,#0x1                              
ram:0003c780    e9d0            beq         LAB_0003c756                            
ram:0003c782    2422            movs        r2,#0x24                                
ram:0003c784    5343            muls        r3,r2                                   
ram:0003c786    6344            add         r3,r12                                  
ram:0003c788    1975            strb        r1,[r3,#0x14]                           
ram:0003c78a    233a            subs        r2,#0x23                                
ram:0003c78c    1b6a            ldr         r3,[r3,#0x20]                           
ram:0003c78e    f6e7            b           LAB_0003c77e                            
                            LAB_0003c790:                 ;XREF[1,0]:   0003c776
ram:0003c790    2424            movs        r4,#0x24                                
ram:0003c792    4968            ldr         r1,[r1,#0x4]                            
ram:0003c794    4c43            muls        r4,r1                                   
ram:0003c796    0591            str         r1,[sp,#local_3c+0x50]                  
ram:0003c798    6444            add         r4,r12                                  
ram:0003c79a    267d            ldrb        r6,[r4,#0x14]                           
ram:0003c79c    002e            cmp         r6,#0x0                                 
ram:0003c79e    dad0            beq         LAB_0003c756                            
ram:0003c7a0    1d00            movs        r5,r3                                   
ram:0003c7a2    0693            str         r3,[sp,#local_38+0x50]                  
                            LAB_0003c7a4:                 ;XREF[1,0]:   0003c7c0
ram:0003c7a4    691c            adds        r1,r5,#0x1                              
ram:0003c7a6    02d1            bne         LAB_0003c7ae                            
                            LAB_0003c7a8:                 ;XREF[2,0]:   0003c7e2,0003c7f2
ram:0003c7a8    0021            movs        r1,#0x0                                 
ram:0003c7aa    2175            strb        r1,[r4,#0x14]                           
ram:0003c7ac    d3e7            b           LAB_0003c756                            
                            LAB_0003c7ae:                 ;XREF[1,0]:   0003c7a6
ram:0003c7ae    0599            ldr         r1,[sp,#local_3c+0x50]                  
ram:0003c7b0    a942            cmp         r1,r5                                   
ram:0003c7b2    00d1            bne         LAB_0003c7b6                            
ram:0003c7b4    08e1            b           LAB_0003c9c8                            
                            LAB_0003c7b6:                 ;XREF[1,0]:   0003c7b2
ram:0003c7b6    2421            movs        r1,#0x24                                
ram:0003c7b8    6943            muls        r1,r5                                   
ram:0003c7ba    6144            add         r1,r12                                  
ram:0003c7bc    0695            str         r5,[sp,#local_38+0x50]                  
ram:0003c7be    0d6a            ldr         r5,[r1,#0x20]                           
ram:0003c7c0    f0e7            b           LAB_0003c7a4                            
                            LAB_0003c7c2:                 ;XREF[1,0]:   0003c9d0
ram:0003c7c2    2422            movs        r2,#0x24                                
ram:0003c7c4    5343            muls        r3,r2                                   
ram:0003c7c6    6344            add         r3,r12                                  
ram:0003c7c8    1b6a            ldr         r3,[r3,#0x20]                           
ram:0003c7ca    5a1c            adds        r2,r3,#0x1                              
ram:0003c7cc    12d0            beq         LAB_0003c7f4                            
                            LAB_0003c7ce:                 ;XREF[1,0]:   0003c9d4
ram:0003c7ce    3200            movs        r2,r6                                   
                            LAB_0003c7d0:                 ;XREF[1,0]:   0003c806
ram:0003c7d0    6168            ldr         r1,[r4,#0x4]                            
ram:0003c7d2    069e            ldr         r6,[sp,#local_38+0x50]                  
ram:0003c7d4    0591            str         r1,[sp,#local_3c+0x50]                  
ram:0003c7d6    2421            movs        r1,#0x24                                
ram:0003c7d8    7143            muls        r1,r6                                   
ram:0003c7da    256a            ldr         r5,[r4,#0x20]                           
ram:0003c7dc    6144            add         r1,r12                                  
ram:0003c7de    0d62            str         r5,[r1,#0x20]                           
ram:0003c7e0    691c            adds        r1,r5,#0x1                              
ram:0003c7e2    e1d0            beq         LAB_0003c7a8                            
ram:0003c7e4    2421            movs        r1,#0x24                                
ram:0003c7e6    4d43            muls        r5,r1                                   
ram:0003c7e8    6544            add         r5,r12                                  
ram:0003c7ea    6968            ldr         r1,[r5,#0x4]                            
ram:0003c7ec    059e            ldr         r6,[sp,#local_3c+0x50]                  
ram:0003c7ee    8e19            adds        r6,r1,r6                                
ram:0003c7f0    6e60            str         r6,[r5,#0x4]                            
ram:0003c7f2    d9e7            b           LAB_0003c7a8                            
                            LAB_0003c7f4:                 ;XREF[1,0]:   0003c7cc
ram:0003c7f4    0121            movs        r1,#0x1                                 
ram:0003c7f6    2a4a            ldr         r2,[DAT_0003c8a0]                       ;= 40011000h
ram:0003c7f8    9160            str         r1,[r2,#offset DAT_40011008 &0xff]      
ram:0003c7fa    0021            movs        r1,#0x0                                 
ram:0003c7fc    3200            movs        r2,r6                                   
ram:0003c7fe    0c96            str         r6,[sp,#local_20+0x50]                  
ram:0003c800    0996            str         r6,[sp,#local_2c+0x50]                  
ram:0003c802    0a96            str         r6,[sp,#local_28+0x50]                  
ram:0003c804    0b91            str         r1,[sp,#local_24+0x50]                  
ram:0003c806    e3e7            b           LAB_0003c7d0                            
                            LAB_0003c808:                 ;XREF[1,0]:   0003c636
ram:0003c808    224b            ldr         r3,[DAT_0003c894]                       ;= 20002C9Ch
ram:0003c80a    0a68            ldr         r2,[r1,#0x0]=>DAT_20002c94              
ram:0003c80c    1e68            ldr         r6,[r3,#0x0]=>DAT_20002c9c              
ram:0003c80e    0123            movs        r3,#0x1                                 
ram:0003c810    0021            movs        r1,#0x0                                 
ram:0003c812    5b42            rsbs        r3,r3                                   
ram:0003c814    9c46            mov         r12,r3                                  
ram:0003c816    0800            movs        r0,r1                                   
ram:0003c818    0c00            movs        r4,r1                                   
                            LAB_0003c81a:                 ;XREF[1,0]:   0003c874
ram:0003c81a    531c            adds        r3,r2,#0x1                              
ram:0003c81c    05d1            bne         LAB_0003c82a                            
ram:0003c81e    0029            cmp         r1,#0x0                                 
ram:0003c820    00d1            bne         LAB_0003c824                            
ram:0003c822    13e7            b           LAB_0003c64c                            
                            LAB_0003c824:                 ;XREF[1,0]:   0003c820
ram:0003c824    184b            ldr         r3,[DAT_0003c888]                       ;= 20002C94h
ram:0003c826    1a60            str         r2,[r3,#0x0]=>DAT_20002c94              
ram:0003c828    10e7            b           LAB_0003c64c                            
                            LAB_0003c82a:                 ;XREF[1,0]:   0003c81c
ram:0003c82a    2423            movs        r3,#0x24                                
ram:0003c82c    5343            muls        r3,r2                                   
ram:0003c82e    f318            adds        r3,r6,r3                                
ram:0003c830    5d68            ldr         r5,[r3,#0x4]                            
ram:0003c832    019f            ldr         r7,[sp,#local_4c+0x50]                  
ram:0003c834    bd42            cmp         r5,r7                                   
ram:0003c836    07d9            bls         LAB_0003c848                            
ram:0003c838    0029            cmp         r1,#0x0                                 
ram:0003c83a    01d0            beq         LAB_0003c840                            
ram:0003c83c    1249            ldr         r1,[DAT_0003c888]                       ;= 20002C94h
ram:0003c83e    0a60            str         r2,[r1,#0x0]=>DAT_20002c94              
                            LAB_0003c840:                 ;XREF[1,0]:   0003c83a
ram:0003c840    019a            ldr         r2,[sp,#local_4c+0x50]                  
ram:0003c842    ad1a            subs        r5,r5,r2                                
ram:0003c844    5d60            str         r5,[r3,#0x4]                            
ram:0003c846    01e7            b           LAB_0003c64c                            
                            LAB_0003c848:                 ;XREF[1,0]:   0003c836
ram:0003c848    0199            ldr         r1,[sp,#local_4c+0x50]                  
ram:0003c84a    4019            adds        r0,r0,r5                                
ram:0003c84c    491b            subs        r1,r1,r5                                
ram:0003c84e    0191            str         r1,[sp,#local_4c+0x50]                  
ram:0003c850    1d69            ldr         r5,[r3,#0x10]                           
ram:0003c852    196a            ldr         r1,[r3,#0x20]                           
ram:0003c854    5c60            str         r4,[r3,#0x4]                            
ram:0003c856    1c75            strb        r4,[r3,#0x14]                           
ram:0003c858    0f00            movs        r7,r1                                   
ram:0003c85a    002d            cmp         r5,#0x0                                 
ram:0003c85c    08d0            beq         LAB_0003c870                            
ram:0003c85e    0799            ldr         r1,[sp,#local_34+0x50]                  
ram:0003c860    dd60            str         r5,[r3,#0xc]                            
ram:0003c862    0918            adds        r1,r1,r0                                
ram:0003c864    0902            lsls        r1,r1,#0x8                              
ram:0003c866    090a            lsrs        r1,r1,#0x8                              
ram:0003c868    9960            str         r1,[r3,#0x8]                            
ram:0003c86a    6146            mov         r1,r12                                  
ram:0003c86c    9446            mov         r12,r2                                  
ram:0003c86e    1962            str         r1,[r3,#0x20]                           
                            LAB_0003c870:                 ;XREF[1,0]:   0003c85c
ram:0003c870    0299            ldr         r1,[sp,#local_48+0x50]                  
ram:0003c872    3a00            movs        r2,r7                                   
ram:0003c874    d1e7            b           LAB_0003c81a                            
ram:0003c876    c046            mov         r8,r8                                   
                            DAT_0003c878:                 ;XREF[5,0]:   0003c58e,0003c5ee,0003c622,0003c666
                                                          ;             0003c6aa
ram:0003c878    902c0020        undefined4  20002C90h                               
                            DAT_0003c87c:                 ;XREF[1,0]:   0003c590
ram:0003c87c    8d2c0020        undefined4  20002C8Dh                               
                            DAT_0003c880:                 ;XREF[1,0]:   0003c594
ram:0003c880    8c2c0020        undefined4  20002C8Ch                               
                            DAT_0003c884:                 ;XREF[1,0]:   0003c5b4
ram:0003c884    842c0020        undefined4  20002C84h                               
                            DAT_0003c888:                 ;XREF[6,0]:   0003c5cc,0003c628,0003c64c,0003c680
                                                          ;             0003c824,0003c83c
ram:0003c888    942c0020        undefined4  20002C94h                               
                            DAT_0003c88c:                 ;XREF[1,0]:   0003c5d2
ram:0003c88c    982c0020        undefined4  20002C98h                               
                            DAT_0003c890:                 ;XREF[2,0]:   0003c5da,0003c652
ram:0003c890    a02c0020        undefined4  20002CA0h                               
                            DAT_0003c894:                 ;XREF[4,0]:   0003c5e6,0003c65a,0003c69e,0003c808
ram:0003c894    9c2c0020        undefined4  20002C9Ch                               
                            DAT_0003c898:                 ;XREF[4,0]:   0003c5f4,0003c616,0003c660,0003c73a
ram:0003c898    812c0020        undefined4  20002C81h                               
                            DAT_0003c89c:                 ;XREF[1,0]:   0003c6a4
ram:0003c89c    04050000        undefined4  00000504h                               
                            DAT_0003c8a0:                 ;XREF[2,0]:   0003c6ac,0003c7f6
ram:0003c8a0    00100140        undefined4  40011000h                               
                            DAT_0003c8a4:                 ;XREF[1,0]:   0003c6b4
ram:0003c8a4    822c0020        undefined4  20002C82h                               
                            DAT_0003c8a8:                 ;XREF[1,0]:   0003c6d8
ram:0003c8a8    00e100e0        undefined4  E000E100h                               
                            DAT_0003c8ac:                 ;XREF[1,0]:   0003c732
ram:0003c8ac    fce100e0        undefined4  E000E1FCh                               
                            LAB_0003c8b0:                 ;XREF[1,0]:   0003c67c
ram:0003c8b0    039b            ldr         r3,[sp,#local_44+0x50]                  
ram:0003c8b2    d900            lsls        r1,r3,#0x3                              
ram:0003c8b4    089b            ldr         r3,[sp,#local_30+0x50]                  
ram:0003c8b6    5918            adds        r1,r3,r1                                
                            LAB_0003c8b8:                 ;XREF[2,0]:   0003c96e,0003c9a0
ram:0003c8b8    6346            mov         r3,r12                                  
ram:0003c8ba    0133            adds        r3,#0x1                                 
ram:0003c8bc    28d1            bne         LAB_0003c910                            
                            LAB_0003c8be:                 ;XREF[2,0]:   0003c8e4,0003c8f4
ram:0003c8be    0b78            ldrb        r3,[r1,#0x0]                            
ram:0003c8c0    4878            ldrb        r0,[r1,#0x1]                            
ram:0003c8c2    9842            cmp         r0,r3                                   
ram:0003c8c4    00d1            bne         LAB_0003c8c8                            
ram:0003c8c6    d3e6            b           LAB_0003c670                            
                            LAB_0003c8c8:                 ;XREF[1,0]:   0003c8c4
ram:0003c8c8    1820            movs        r0,#0x18                                
ram:0003c8ca    5843            muls        r0,r3                                   
ram:0003c8cc    4c68            ldr         r4,[r1,#0x4]                            
ram:0003c8ce    0133            adds        r3,#0x1                                 
ram:0003c8d0    2018            adds        r0,r4,r0                                
ram:0003c8d2    8c78            ldrb        r4,[r1,#0x2]                            
ram:0003c8d4    dbb2            uxtb        r3,r3                                   
ram:0003c8d6    0b70            strb        r3,[r1,#0x0]                            
ram:0003c8d8    9c42            cmp         r4,r3                                   
ram:0003c8da    01d1            bne         LAB_0003c8e0                            
ram:0003c8dc    0023            movs        r3,#0x0                                 
ram:0003c8de    0b70            strb        r3,[r1,#0x0]                            
                            LAB_0003c8e0:                 ;XREF[1,0]:   0003c8da
ram:0003c8e0    0378            ldrb        r3,[r0,#0x0]                            
ram:0003c8e2    012b            cmp         r3,#0x1                                 
ram:0003c8e4    ebd1            bne         LAB_0003c8be                            
ram:0003c8e6    4468            ldr         r4,[r0,#0x4]                            
ram:0003c8e8    2333            adds        r3,#0x23                                
ram:0003c8ea    6343            muls        r3,r4                                   
ram:0003c8ec    019d            ldr         r5,[sp,#local_4c+0x50]                  
ram:0003c8ee    eb18            adds        r3,r5,r3                                
ram:0003c8f0    1d7d            ldrb        r5,[r3,#0x14]                           
ram:0003c8f2    002d            cmp         r5,#0x0                                 
ram:0003c8f4    e3d1            bne         LAB_0003c8be                            
ram:0003c8f6    8668            ldr         r6,[r0,#0x8]                            
ram:0003c8f8    9e60            str         r6,[r3,#0x8]                            
ram:0003c8fa    c668            ldr         r6,[r0,#0xc]                            
ram:0003c8fc    de60            str         r6,[r3,#0xc]                            
ram:0003c8fe    0669            ldr         r6,[r0,#0x10]                           
ram:0003c900    1e61            str         r6,[r3,#0x10]                           
ram:0003c902    4069            ldr         r0,[r0,#0x14]                           
ram:0003c904    d861            str         r0,[r3,#0x1c]                           
ram:0003c906    0998            ldr         r0,[sp,#local_2c+0x50]                  
ram:0003c908    0028            cmp         r0,#0x0                                 
ram:0003c90a    09d0            beq         LAB_0003c920                            
ram:0003c90c    9d60            str         r5,[r3,#0x8]                            
ram:0003c90e    07e0            b           LAB_0003c920                            
                            LAB_0003c910:                 ;XREF[1,0]:   0003c8bc
ram:0003c910    6046            mov         r0,r12                                  
ram:0003c912    2423            movs        r3,#0x24                                
ram:0003c914    4343            muls        r3,r0                                   
ram:0003c916    0198            ldr         r0,[sp,#local_4c+0x50]                  
ram:0003c918    6446            mov         r4,r12                                  
ram:0003c91a    c318            adds        r3,r0,r3                                
ram:0003c91c    186a            ldr         r0,[r3,#0x20]                           
ram:0003c91e    8446            mov         r12,r0                                  
                            LAB_0003c920:                 ;XREF[2,0]:   0003c90a,0003c90e
ram:0003c920    9868            ldr         r0,[r3,#0x8]                            
ram:0003c922    069d            ldr         r5,[sp,#local_38+0x50]                  
ram:0003c924    2c4f            ldr         r7,[DAT_0003c9d8]                       ;= 007FFFFEh
ram:0003c926    451b            subs        r5,r0,r5                                
ram:0003c928    2d02            lsls        r5,r5,#0x8                              
ram:0003c92a    2d0a            lsrs        r5,r5,#0x8                              
ram:0003c92c    de68            ldr         r6,[r3,#0xc]                            
ram:0003c92e    bd42            cmp         r5,r7                                   
ram:0003c930    1ed8            bhi         LAB_0003c970                            
ram:0003c932    7519            adds        r5,r6,r5                                
ram:0003c934    5d60            str         r5,[r3,#0x4]                            
                            LAB_0003c936:                 ;XREF[2,0]:   0003c980,0003c986
ram:0003c936    0020            movs        r0,#0x0                                 
ram:0003c938    2425            movs        r5,#0x24                                
ram:0003c93a    9860            str         r0,[r3,#0x8]                            
ram:0003c93c    d860            str         r0,[r3,#0xc]                            
ram:0003c93e    0130            adds        r0,#0x1                                 
ram:0003c940    1875            strb        r0,[r3,#0x14]                           
ram:0003c942    0120            movs        r0,#0x1                                 
ram:0003c944    6543            muls        r5,r4                                   
ram:0003c946    4042            rsbs        r0,r0                                   
ram:0003c948    1862            str         r0,[r3,#0x20]                           
ram:0003c94a    019b            ldr         r3,[sp,#local_4c+0x50]                  
ram:0003c94c    5d19            adds        r5,r3,r5                                
ram:0003c94e    531c            adds        r3,r2,#0x1                              
ram:0003c950    0ad0            beq         LAB_0003c968                            
ram:0003c952    2423            movs        r3,#0x24                                
ram:0003c954    5343            muls        r3,r2                                   
ram:0003c956    019e            ldr         r6,[sp,#local_4c+0x50]                  
ram:0003c958    6868            ldr         r0,[r5,#0x4]                            
ram:0003c95a    f318            adds        r3,r6,r3                                
ram:0003c95c    5e68            ldr         r6,[r3,#0x4]                            
ram:0003c95e    b042            cmp         r0,r6                                   
ram:0003c960    1fd8            bhi         LAB_0003c9a2                            
ram:0003c962    301a            subs        r0,r6,r0                                
ram:0003c964    5860            str         r0,[r3,#0x4]                            
ram:0003c966    2a62            str         r2,[r5,#0x20]                           
                            LAB_0003c968:                 ;XREF[1,0]:   0003c950
ram:0003c968    0123            movs        r3,#0x1                                 
ram:0003c96a    2200            movs        r2,r4                                   
ram:0003c96c    0493            str         r3,[sp,#local_40+0x50]                  
ram:0003c96e    a3e7            b           LAB_0003c8b8                            
                            LAB_0003c970:                 ;XREF[1,0]:   0003c930
ram:0003c970    069d            ldr         r5,[sp,#local_38+0x50]                  
ram:0003c972    281a            subs        r0,r5,r0                                
ram:0003c974    0002            lsls        r0,r0,#0x8                              
ram:0003c976    000a            lsrs        r0,r0,#0x8                              
ram:0003c978    b042            cmp         r0,r6                                   
ram:0003c97a    02d2            bcs         LAB_0003c982                            
ram:0003c97c    361a            subs        r6,r6,r0                                
ram:0003c97e    5e60            str         r6,[r3,#0x4]                            
ram:0003c980    d9e7            b           LAB_0003c936                            
                            LAB_0003c982:                 ;XREF[1,0]:   0003c97a
ram:0003c982    0020            movs        r0,#0x0                                 
ram:0003c984    5860            str         r0,[r3,#0x4]                            
ram:0003c986    d6e7            b           LAB_0003c936                            
                            LAB_0003c988:                 ;XREF[1,0]:   0003c9b2
ram:0003c988    366a            ldr         r6,[r6,#0x20]                           
ram:0003c98a    c01b            subs        r0,r0,r7                                
ram:0003c98c    0793            str         r3,[sp,#local_34+0x50]                  
ram:0003c98e    771c            adds        r7,r6,#0x1                              
ram:0003c990    15d1            bne         LAB_0003c9be                            
                            LAB_0003c992:                 ;XREF[1,0]:   0003c9bc
ram:0003c992    6860            str         r0,[r5,#0x4]                            
ram:0003c994    2420            movs        r0,#0x24                                
ram:0003c996    4343            muls        r3,r0                                   
ram:0003c998    0198            ldr         r0,[sp,#local_4c+0x50]                  
ram:0003c99a    2e62            str         r6,[r5,#0x20]                           
ram:0003c99c    c318            adds        r3,r0,r3                                
ram:0003c99e    1c62            str         r4,[r3,#0x20]                           
ram:0003c9a0    8ae7            b           LAB_0003c8b8                            
                            LAB_0003c9a2:                 ;XREF[1,0]:   0003c960
ram:0003c9a2    1300            movs        r3,r2                                   
ram:0003c9a4    0792            str         r2,[sp,#local_34+0x50]                  
                            LAB_0003c9a6:                 ;XREF[1,0]:   0003c9c0
ram:0003c9a6    2426            movs        r6,#0x24                                
ram:0003c9a8    5e43            muls        r6,r3                                   
ram:0003c9aa    019f            ldr         r7,[sp,#local_4c+0x50]                  
ram:0003c9ac    be19            adds        r6,r7,r6                                
ram:0003c9ae    7768            ldr         r7,[r6,#0x4]                            
ram:0003c9b0    8742            cmp         r7,r0                                   
ram:0003c9b2    e9d3            bcc         LAB_0003c988                            
ram:0003c9b4    3f1a            subs        r7,r7,r0                                
ram:0003c9b6    7760            str         r7,[r6,#0x4]                            
ram:0003c9b8    1e00            movs        r6,r3                                   
ram:0003c9ba    079b            ldr         r3,[sp,#local_34+0x50]                  
ram:0003c9bc    e9e7            b           LAB_0003c992                            
                            LAB_0003c9be:                 ;XREF[1,0]:   0003c990
ram:0003c9be    3300            movs        r3,r6                                   
ram:0003c9c0    f1e7            b           LAB_0003c9a6                            
                            LAB_0003c9c2:                 ;XREF[1,0]:   0003c69a
ram:0003c9c2    fff703fd        bl          FUN_0003c3cc                            ;undefined FUN_0003c3cc(void)
ram:0003c9c6    b7e6            b           LAB_0003c738                            
                            LAB_0003c9c8:                 ;XREF[1,0]:   0003c7b4
ram:0003c9c8    0599            ldr         r1,[sp,#local_3c+0x50]                  
ram:0003c9ca    069d            ldr         r5,[sp,#local_38+0x50]                  
ram:0003c9cc    a942            cmp         r1,r5                                   
ram:0003c9ce    00d1            bne         LAB_0003c9d2                            
ram:0003c9d0    f7e6            b           LAB_0003c7c2                            
                            LAB_0003c9d2:                 ;XREF[1,0]:   0003c9ce
ram:0003c9d2    1600            movs        r6,r2                                   
ram:0003c9d4    fbe6            b           LAB_0003c7ce                            
ram:0003c9d6    c046            mov         r8,r8                                   
                            DAT_0003c9d8:                 ;XREF[1,0]:   0003c924
ram:0003c9d8    feff7f00        undefined4  007FFFFEh                               
                            ;************************************************************************************************
                            ;*                                           FUNCTION                                           *
                            ;************************************************************************************************
                            ;undefined8 FUN_0003c9dc(undefined4 param_1, int param_2, int param_3, undefined * param_4, undefined4 param_5)
          ;param_1       undefined4          r0                      
          ;param_2       int                 r1                      
          ;param_3       int                 r2                      
          ;param_4       undefined *         r3                      
          ;param_5       undefined4           0                      ;XREF[1,0]:   0003c9fa
          ;local_1c      undefined4         -1c                      ;XREF[2,0]:   0003c9e0,0003ca6a
                                                          ;XREF[1,0]:   0003e6cc
ram:0003c9dc    f7b5            push        {param_1,param_2,param_3,r4,r5,r6,r7,lr}
ram:0003c9de    0325            movs        r5,#0x3                                 
ram:0003c9e0    0190            str         param_1,[sp,#local_1c+0x20]             
ram:0003c9e2    0f00            movs        r7,param_2                              
ram:0003c9e4    1600            movs        r6,param_3                              
ram:0003c9e6    1c00            movs        r4,param_4                              
ram:0003c9e8    1d40            ands        r5,param_4                              
ram:0003c9ea    0720            movs        param_1,#0x7                            
ram:0003c9ec    002d            cmp         r5,#0x0                                 
ram:0003c9ee    4dd1            bne         LAB_0003ca8c                            
ram:0003c9f0    002b            cmp         param_4,#0x0                            
ram:0003c9f2    4bd0            beq         LAB_0003ca8c                            
ram:0003c9f4    fff7eafc        bl          FUN_0003c3cc                            ;undefined FUN_0003c3cc(void)
ram:0003c9f8    274b            ldr         param_4,[DAT_0003ca98]                  ;= 20002C7Ch
ram:0003c9fa    089a            ldr         param_3,[sp,#param_5+0x20]              
ram:0003c9fc    1a60            str         param_3,[param_4,#0x0]=>DAT_20002c7c    
ram:0003c9fe    274b            ldr         param_4,[DAT_0003ca9c]                  ;= 20002C80h
ram:0003ca00    1f70            strb        r7,[param_4,#0x0]=>DAT_20002c80         
ram:0003ca02    274b            ldr         param_4,[DAT_0003caa0]                  ;= 20002C9Ch
ram:0003ca04    1c60            str         r4,[param_4,#0x0]=>DAT_20002c9c         
ram:0003ca06    2423            movs        param_4,#0x24                           
ram:0003ca08    5f43            muls        r7,param_4                              
ram:0003ca0a    e719            adds        r7,r4,r7                                
                            LAB_0003ca0c:                 ;XREF[1,0]:   0003ca94
ram:0003ca0c    a742            cmp         r7,r4                                   
ram:0003ca0e    3ed1            bne         LAB_0003ca8e                            
ram:0003ca10    0322            movs        param_3,#0x3                            
ram:0003ca12    244b            ldr         param_4,[DAT_0003caa4]                  ;= 20002C98h
ram:0003ca14    1821            movs        param_2,#0x18                           
ram:0003ca16    1a70            strb        param_3,[param_4,#0x0]=>DAT_20002c98    
ram:0003ca18    2200            movs        param_3,r4                              
ram:0003ca1a    234b            ldr         param_4,[DAT_0003caa8]                  ;= 20002CA0h
ram:0003ca1c    1832            adds        param_3,#0x18                           
ram:0003ca1e    1c60            str         r4,[param_4,#0x0]=>DAT_20002ca0         
ram:0003ca20    1000            movs        param_1,param_3                         
ram:0003ca22    0023            movs        param_4,#0x0                            
ram:0003ca24    7143            muls        param_2,r6                              
                            LAB_0003ca26:                 ;XREF[1,0]:   0003ca34
ram:0003ca26    6260            str         param_3,[r4,#0x4]                       
ram:0003ca28    2370            strb        param_4,[r4,#0x0]                       
ram:0003ca2a    6370            strb        param_4,[r4,#0x1]                       
ram:0003ca2c    a670            strb        r6,[r4,#0x2]                            
ram:0003ca2e    0834            adds        r4,#0x8                                 
ram:0003ca30    5218            adds        param_3,param_3,param_2                 
ram:0003ca32    a042            cmp         param_1,r4                              
ram:0003ca34    f7d1            bne         LAB_0003ca26                            
ram:0003ca36    0121            movs        param_2,#0x1                            
ram:0003ca38    1c4a            ldr         param_3,[DAT_0003caac]                  ;= 20002C94h
ram:0003ca3a    4942            rsbs        param_2,param_2                         
ram:0003ca3c    1160            str         param_2,[param_3,#0x0]=>DAT_20002c94    
ram:0003ca3e    1c4a            ldr         param_3,[DAT_0003cab0]                  ;= 20002C8Ch
ram:0003ca40    8020            movs        param_1,#0x80                           
ram:0003ca42    1370            strb        param_4,[param_3,#0x0]=>DAT_20002c8c    
ram:0003ca44    1b4a            ldr         param_3,[DAT_0003cab4]                  ;= 20002C8Dh
ram:0003ca46    c524            movs        r4,#0xc5                                
ram:0003ca48    1370            strb        param_4,[param_3,#0x0]=>DAT_20002c8d    
ram:0003ca4a    c022            movs        param_3,#0xc0                           
ram:0003ca4c    1a4b            ldr         param_4,[DAT_0003cab8]                  ;= E000E100h
ram:0003ca4e    4003            lsls        param_1,param_1,#0xd                    
ram:0003ca50    5200            lsls        param_3,param_3,#0x1                    
ram:0003ca52    9850            str         param_1,[param_4,param_3]=>DAT_e000e280 
ram:0003ca54    a400            lsls        r4,r4,#0x2                              
ram:0003ca56    1a59            ldr         param_3,[param_4,r4]=>DAT_e000e414      
ram:0003ca58    0131            adds        param_2,#0x1                            
ram:0003ca5a    ff31            adds        param_2,#0xff                           
ram:0003ca5c    8a43            bics        param_3,param_2                         
ram:0003ca5e    1100            movs        param_2,param_3                         
ram:0003ca60    c022            movs        param_3,#0xc0                           
ram:0003ca62    0a43            orrs        param_3,param_2                         
ram:0003ca64    1a51            str         param_3,[param_4,r4]=>DAT_e000e414      
ram:0003ca66    a122            movs        param_3,#0xa1                           
ram:0003ca68    1860            str         param_1,[param_4,#0x0]=>DAT_e000e100    
ram:0003ca6a    0199            ldr         param_2,[sp,#local_1c+0x20]             
ram:0003ca6c    1348            ldr         param_1,[DAT_0003cabc]                  ;= 40011000h
ram:0003ca6e    d200            lsls        param_3,param_3,#0x3                    
ram:0003ca70    8150            str         param_2,[param_1,param_3]=>DAT_40011508 
ram:0003ca72    043c            subs        r4,#0x4                                 
ram:0003ca74    1a59            ldr         param_3,[param_4,r4]=>DAT_e000e410      
ram:0003ca76    1249            ldr         param_2,[DAT_0003cac0]                  ;= FFFF00FFh
ram:0003ca78    1140            ands        param_2,param_3                         
ram:0003ca7a    c022            movs        param_3,#0xc0                           
ram:0003ca7c    1202            lsls        param_3,param_3,#0x8                    
ram:0003ca7e    0a43            orrs        param_3,param_2                         
ram:0003ca80    1a51            str         param_3,[param_4,r4]=>DAT_e000e410      
ram:0003ca82    104b            ldr         param_4,[DAT_0003cac4]                  ;= 00000504h
ram:0003ca84    c258            ldr         param_3,[param_1,param_4]=>DAT_40011504 
ram:0003ca86    0020            movs        param_1,#0x0                            
ram:0003ca88    0f4b            ldr         param_4,[DAT_0003cac8]                  ;= 20002C90h
ram:0003ca8a    1a60            str         param_3,[param_4,#0x0]=>DAT_20002c90    
                            LAB_0003ca8c:                 ;XREF[2,0]:   0003c9ee,0003c9f2
ram:0003ca8c    febd            pop         {param_2,param_3,param_4,r4,r5,r6,r7,pc}
                            LAB_0003ca8e:                 ;XREF[1,0]:   0003ca0e
ram:0003ca8e    2570            strb        r5,[r4,#0x0]                            
ram:0003ca90    2575            strb        r5,[r4,#0x14]                           
ram:0003ca92    2434            adds        r4,#0x24                                
ram:0003ca94    bae7            b           LAB_0003ca0c                            
ram:0003ca96    c046            mov         r8,r8                                   
                            DAT_0003ca98:                 ;XREF[1,0]:   0003c9f8
ram:0003ca98    7c2c0020        undefined4  20002C7Ch                               
                            DAT_0003ca9c:                 ;XREF[1,0]:   0003c9fe
ram:0003ca9c    802c0020        undefined4  20002C80h                               
                            DAT_0003caa0:                 ;XREF[1,0]:   0003ca02
ram:0003caa0    9c2c0020        undefined4  20002C9Ch                               
                            DAT_0003caa4:                 ;XREF[1,0]:   0003ca12
ram:0003caa4    982c0020        undefined4  20002C98h                               
                            DAT_0003caa8:                 ;XREF[1,0]:   0003ca1a
ram:0003caa8    a02c0020        undefined4  20002CA0h                               
                            DAT_0003caac:                 ;XREF[1,0]:   0003ca38
ram:0003caac    942c0020        undefined4  20002C94h                               
                            DAT_0003cab0:                 ;XREF[1,0]:   0003ca3e
ram:0003cab0    8c2c0020        undefined4  20002C8Ch                               
                            DAT_0003cab4:                 ;XREF[1,0]:   0003ca44
ram:0003cab4    8d2c0020        undefined4  20002C8Dh                               
                            DAT_0003cab8:                 ;XREF[1,0]:   0003ca4c
ram:0003cab8    00e100e0        undefined4  E000E100h                               
                            DAT_0003cabc:                 ;XREF[1,0]:   0003ca6c
ram:0003cabc    00100140        undefined4  40011000h                               
                            DAT_0003cac0:                 ;XREF[1,0]:   0003ca76
ram:0003cac0    ff00ffff        undefined4  FFFF00FFh                               
                            DAT_0003cac4:                 ;XREF[1,0]:   0003ca82
ram:0003cac4    04050000        undefined4  00000504h                               
                            DAT_0003cac8:                 ;XREF[1,0]:   0003ca88
ram:0003cac8    902c0020        undefined4  20002C90h                               
                            ;************************************************************************************************
                            ;*                                           FUNCTION                                           *
                            ;************************************************************************************************
                            ;undefined FUN_0003cacc(int * param_1, char param_2, int param_3)
          ;param_1       int *               r0                      
          ;param_2       char                r1                      
          ;param_3       int                 r2                      
                                                          ;XREF[2,0]:   0003d322,0003ecee
ram:0003cacc    f0b5            push        {r4,r5,r6,r7,lr}                        
ram:0003cace    114b            ldr         r3,[DAT_0003cb14]                       ;= 20002C9Ch
ram:0003cad0    0700            movs        r7,param_1                              
ram:0003cad2    1c68            ldr         r4,[r3,#0x0]=>DAT_20002c9c              
ram:0003cad4    0820            movs        param_1,#0x8                            
ram:0003cad6    002c            cmp         r4,#0x0                                 
ram:0003cad8    18d0            beq         LAB_0003cb0c                            
ram:0003cada    0138            subs        param_1,#0x1                            
ram:0003cadc    002a            cmp         param_3,#0x0                            
ram:0003cade    15d0            beq         LAB_0003cb0c                            
ram:0003cae0    002f            cmp         r7,#0x0                                 
ram:0003cae2    13d0            beq         LAB_0003cb0c                            
ram:0003cae4    0025            movs        r5,#0x0                                 
ram:0003cae6    0c4b            ldr         r3,[DAT_0003cb18]                       ;= 20002C80h
ram:0003cae8    1878            ldrb        param_1,[r3,#0x0]=>DAT_20002c80         
                            LAB_0003caea:                 ;XREF[1,0]:   0003cb10
ram:0003caea    8542            cmp         r5,param_1                              
ram:0003caec    01db            blt         LAB_0003caf2                            
ram:0003caee    0420            movs        param_1,#0x4                            
ram:0003caf0    0ce0            b           LAB_0003cb0c                            
                            LAB_0003caf2:                 ;XREF[1,0]:   0003caec
ram:0003caf2    2600            movs        r6,r4                                   
ram:0003caf4    2434            adds        r4,#0x24                                
ram:0003caf6    2300            movs        r3,r4                                   
ram:0003caf8    243b            subs        r3,#0x24                                
ram:0003cafa    1b78            ldrb        r3,[r3,#0x0]                            
ram:0003cafc    002b            cmp         r3,#0x0                                 
ram:0003cafe    06d1            bne         LAB_0003cb0e                            
ram:0003cb00    0120            movs        param_1,#0x1                            
ram:0003cb02    3070            strb        param_1,[r6,#0x0]                       
ram:0003cb04    1800            movs        param_1,r3                              
ram:0003cb06    7170            strb        param_2,[r6,#0x1]                       
ram:0003cb08    b261            str         param_3,[r6,#0x18]                      
ram:0003cb0a    3d60            str         r5,[r7,#0x0]                            
                            LAB_0003cb0c:                 ;XREF[4,0]:   0003cad8,0003cade,0003cae2,0003caf0
ram:0003cb0c    f0bd            pop         {r4,r5,r6,r7,pc}                        
                            LAB_0003cb0e:                 ;XREF[1,0]:   0003cafe
ram:0003cb0e    0135            adds        r5,#0x1                                 
ram:0003cb10    ebe7            b           LAB_0003caea                            
ram:0003cb12    c046            mov         r8,r8                                   
                            DAT_0003cb14:                 ;XREF[1,0]:   0003cace
ram:0003cb14    9c2c0020        undefined4  20002C9Ch                               
                            DAT_0003cb18:                 ;XREF[1,0]:   0003cae6
ram:0003cb18    802c0020        undefined4  20002C80h                               
                            ;************************************************************************************************
                            ;*                                           FUNCTION                                           *
                            ;************************************************************************************************
                            ;undefined4 FUN_0003cb1c(uint param_1, uint param_2, undefined4 param_3)
          ;param_1       uint                r0                      
          ;param_2       uint                r1                      
          ;param_3       undefined4          r2                      
          ;local_1c      undefined1         -1c                      ;XREF[1,0]:   0003cb8e
          ;local_24      undefined4         -24                      ;XREF[2,0]:   0003cb28,0003cb82
                                                          ;XREF[3,0]:   0003d248,0003d33a,0003ec78
ram:0003cb1c    f0b5            push        {r4,r5,r6,r7,lr}                        
ram:0003cb1e    1f4b            ldr         r3,[DAT_0003cb9c]                       ;= 20002C9Ch
ram:0003cb20    85b0            sub         sp,#0x14                                
ram:0003cb22    1b68            ldr         r3,[r3,#0x0]=>DAT_20002c9c              
ram:0003cb24    0600            movs        r6,param_1                              
ram:0003cb26    0d00            movs        r5,param_2                              
ram:0003cb28    0192            str         param_3,[sp,#local_24+0x28]             
ram:0003cb2a    0820            movs        param_1,#0x8                            
ram:0003cb2c    002b            cmp         r3,#0x0                                 
ram:0003cb2e    33d0            beq         LAB_0003cb98                            
ram:0003cb30    1b4a            ldr         param_3,[DAT_0003cba0]                  ;= 20002C80h
ram:0003cb32    0138            subs        param_1,#0x1                            
ram:0003cb34    1278            ldrb        param_3,[param_3,#0x0]=>DAT_20002c80    
ram:0003cb36    b242            cmp         param_3,r6                              
ram:0003cb38    2ed9            bls         LAB_0003cb98                            
ram:0003cb3a    0429            cmp         param_2,#0x4                            
ram:0003cb3c    2cd9            bls         LAB_0003cb98                            
ram:0003cb3e    2422            movs        param_3,#0x24                           
ram:0003cb40    7243            muls        param_3,r6                              
ram:0003cb42    9b18            adds        r3,r3,param_3                           
ram:0003cb44    1a78            ldrb        param_3,[r3,#0x0]                       
ram:0003cb46    0130            adds        param_1,#0x1                            
ram:0003cb48    012a            cmp         param_3,#0x1                            
ram:0003cb4a    25d1            bne         LAB_0003cb98                            
ram:0003cb4c    5b78            ldrb        r3,[r3,#0x1]                            
ram:0003cb4e    0f00            movs        r7,param_2                              
ram:0003cb50    012b            cmp         r3,#0x1                                 
ram:0003cb52    00d0            beq         LAB_0003cb56                            
ram:0003cb54    0027            movs        r7,#0x0                                 
                            LAB_0003cb56:                 ;XREF[1,0]:   0003cb52
ram:0003cb56    fff789fc        bl          FUN_0003c46c                            ;int FUN_0003c46c(void)
ram:0003cb5a    124b            ldr         r3=>DAT_20002ca0,[DAT_0003cba4]         ;= 20002CA0h
ram:0003cb5c    c000            lsls        param_1,param_1,#0x3                    
ram:0003cb5e    1c68            ldr         r4,[r3,#0x0]=>DAT_20002ca0              
ram:0003cb60    03a9            add         param_2,sp,#0xc                         
ram:0003cb62    2418            adds        r4,r4,param_1                           
ram:0003cb64    2000            movs        param_1,r4                              
ram:0003cb66    fff76dfc        bl          FUN_0003c444                            ;int FUN_0003c444(byte * param_1, uin...
ram:0003cb6a    0300            movs        r3,param_1                              
ram:0003cb6c    0420            movs        param_1,#0x4                            
ram:0003cb6e    002b            cmp         r3,#0x0                                 
ram:0003cb70    12d0            beq         LAB_0003cb98                            
ram:0003cb72    0122            movs        param_3,#0x1                            
ram:0003cb74    0c49            ldr         param_2,[DAT_0003cba8]                  ;= 40011000h
ram:0003cb76    1a70            strb        param_3,[r3,#0x0]                       
ram:0003cb78    0c4a            ldr         param_3,[DAT_0003cbac]                  ;= 00000504h
ram:0003cb7a    5e60            str         r6,[r3,#0x4]                            
ram:0003cb7c    8a58            ldr         param_3,[param_2,param_3]=>DAT_40011504 
ram:0003cb7e    0020            movs        param_1,#0x0                            
ram:0003cb80    9a60            str         param_3,[r3,#0x8]                       
ram:0003cb82    019a            ldr         param_3,[sp,#local_24+0x28]             
ram:0003cb84    dd60            str         r5,[r3,#0xc]                            
ram:0003cb86    5a61            str         param_3,[r3,#0x14]                      
ram:0003cb88    8022            movs        param_3,#0x80                           
ram:0003cb8a    1f61            str         r7,[r3,#0x10]                           
ram:0003cb8c    02ab            add         r3,sp,#0x8                              
ram:0003cb8e    1b79            ldrb        r3,[r3,#local_1c+0x20]                  
ram:0003cb90    5203            lsls        param_3,param_3,#0xd                    
ram:0003cb92    6370            strb        r3,[r4,#0x1]                            
ram:0003cb94    064b            ldr         r3,[DAT_0003cbb0]                       ;= E000E1FCh
ram:0003cb96    5a60            str         param_3,[r3,#0x4]=>DAT_e000e200         
                            LAB_0003cb98:                 ;XREF[5,0]:   0003cb2e,0003cb38,0003cb3c,0003cb4a
                                                          ;             0003cb70
ram:0003cb98    05b0            add         sp,#0x14                                
ram:0003cb9a    f0bd            pop         {r4,r5,r6,r7,pc}                        
                            DAT_0003cb9c:                 ;XREF[1,0]:   0003cb1e
ram:0003cb9c    9c2c0020        undefined4  20002C9Ch                               
                            DAT_0003cba0:                 ;XREF[1,0]:   0003cb30
ram:0003cba0    802c0020        undefined4  20002C80h                               
                            DAT_0003cba4:                 ;XREF[1,0]:   0003cb5a
ram:0003cba4    a02c0020        undefined4  20002CA0h                               
                            DAT_0003cba8:                 ;XREF[1,0]:   0003cb74
ram:0003cba8    00100140        undefined4  40011000h                               
                            DAT_0003cbac:                 ;XREF[1,0]:   0003cb78
ram:0003cbac    04050000        undefined4  00000504h                               
                            DAT_0003cbb0:                 ;XREF[1,0]:   0003cb94
ram:0003cbb0    fce100e0        undefined4  E000E1FCh                               
                            ;************************************************************************************************
                            ;*                                           FUNCTION                                           *
                            ;************************************************************************************************
                            ;undefined8 FUN_0003cbb4(uint param_1, uint param_2, undefined4 param_3)
          ;param_1       uint                r0                      
          ;param_2       uint                r1                      
          ;param_3       undefined4          r2                      
          ;local_14      undefined1         -14                      ;XREF[1,0]:   0003cbfa
                                                          ;XREF[5,0]:   0003d230,0003d5d0,0003ed1e,0003ed5c
                                                          ;             0003eda0
ram:0003cbb4    37b5            push        {param_1,param_2,param_3,r4,r5,lr}      
ram:0003cbb6    154b            ldr         r3,[DAT_0003cc0c]                       ;= 20002C9Ch
ram:0003cbb8    0500            movs        r5,param_1                              
ram:0003cbba    1a68            ldr         param_3,[r3,#0x0]=>DAT_20002c9c         
ram:0003cbbc    0823            movs        r3,#0x8                                 
ram:0003cbbe    002a            cmp         param_3,#0x0                            
ram:0003cbc0    22d0            beq         LAB_0003cc08                            
ram:0003cbc2    134b            ldr         r3,[DAT_0003cc10]                       ;= 20002C80h
ram:0003cbc4    1978            ldrb        param_2,[r3,#0x0]=>DAT_20002c80         
ram:0003cbc6    0723            movs        r3,#0x7                                 
ram:0003cbc8    8142            cmp         param_2,param_1                         
ram:0003cbca    1dd9            bls         LAB_0003cc08                            
ram:0003cbcc    1d33            adds        r3,#0x1d                                
ram:0003cbce    4343            muls        r3,param_1                              
ram:0003cbd0    9a5c            ldrb        param_3,[r3,param_3]                    
ram:0003cbd2    0823            movs        r3,#0x8                                 
ram:0003cbd4    012a            cmp         param_3,#0x1                            
ram:0003cbd6    17d1            bne         LAB_0003cc08                            
ram:0003cbd8    fff748fc        bl          FUN_0003c46c                            ;int FUN_0003c46c(void)
ram:0003cbdc    0d4b            ldr         r3=>DAT_20002ca0,[DAT_0003cc14]         ;= 20002CA0h
ram:0003cbde    c000            lsls        param_1,param_1,#0x3                    
ram:0003cbe0    1c68            ldr         r4,[r3,#0x0]=>DAT_20002ca0              
ram:0003cbe2    01a9            add         param_2,sp,#0x4                         
ram:0003cbe4    2418            adds        r4,r4,param_1                           
ram:0003cbe6    2000            movs        param_1,r4                              
ram:0003cbe8    fff72cfc        bl          FUN_0003c444                            ;int FUN_0003c444(byte * param_1, uin...
ram:0003cbec    0423            movs        r3,#0x4                                 
ram:0003cbee    0028            cmp         param_1,#0x0                            
ram:0003cbf0    0ad0            beq         LAB_0003cc08                            
ram:0003cbf2    023b            subs        r3,#0x2                                 
ram:0003cbf4    0370            strb        r3,[param_1,#0x0]                       
ram:0003cbf6    6b46            mov         r3,sp                                   
ram:0003cbf8    8022            movs        param_3,#0x80                           
ram:0003cbfa    1b79            ldrb        r3,[r3,#local_14+0x18]                  
ram:0003cbfc    4560            str         r5,[param_1,#0x4]                       
ram:0003cbfe    6370            strb        r3,[r4,#0x1]                            
ram:0003cc00    054b            ldr         r3,[DAT_0003cc18]                       ;= E000E1FCh
ram:0003cc02    5203            lsls        param_3,param_3,#0xd                    
ram:0003cc04    5a60            str         param_3,[r3,#0x4]=>DAT_e000e200         
ram:0003cc06    0023            movs        r3,#0x0                                 
                            LAB_0003cc08:                 ;XREF[4,0]:   0003cbc0,0003cbca,0003cbd6,0003cbf0
ram:0003cc08    1800            movs        param_1,r3                              
ram:0003cc0a    3ebd            pop         {param_2,param_3,r3,r4,r5,pc}           
                            DAT_0003cc0c:                 ;XREF[1,0]:   0003cbb6
ram:0003cc0c    9c2c0020        undefined4  20002C9Ch                               
                            DAT_0003cc10:                 ;XREF[1,0]:   0003cbc2
ram:0003cc10    802c0020        undefined4  20002C80h                               
                            DAT_0003cc14:                 ;XREF[1,0]:   0003cbdc
ram:0003cc14    a02c0020        undefined4  20002CA0h                               
                            DAT_0003cc18:                 ;XREF[1,0]:   0003cc00
ram:0003cc18    fce100e0        undefined4  E000E1FCh                               
                            ;************************************************************************************************
                            ;*                                           FUNCTION                                           *
                            ;************************************************************************************************
                            ;undefined LAB_0003cc1c+1(undefined * * param_1, int param_2)
          ;param_1       undefined * *       r0                      
          ;param_2       int                 r1                      
                                                          ;XREF[0,2]:   0003cc3a,0003cc4c
ram:0003cc1c    10b5            push        {r4,lr}                                 
ram:0003cc1e    0400            movs        r4,param_1                              
ram:0003cc20    0829            cmp         param_2,#0x8                            
ram:0003cc22    04d0            beq         LAB_0003cc2e                            
ram:0003cc24    0022            movs        r2,#0x0                                 
ram:0003cc26    1100            movs        param_2,r2                              
ram:0003cc28    1000            movs        param_1,r2                              
ram:0003cc2a    fff7c9fa        bl          FUN_0003c1c0                            ;undefined FUN_0003c1c0(void)
                            LAB_0003cc2e:                 ;XREF[1,0]:   0003cc22
ram:0003cc2e    2368            ldr         r3,[r4,#0x0]                            
ram:0003cc30    6068            ldr         param_1,[r4,#0x4]                       
ram:0003cc32    9847            blx         r3                                      
ram:0003cc34    10bd            pop         {r4,pc}                                 
ram:0003cc36    0000            movs        r0,r0                                   
                            ;************************************************************************************************
                            ;*                                           FUNCTION                                           *
                            ;************************************************************************************************
                            ;undefined LAB_0003cc38+1(undefined4 param_1, undefined4 param_2, undefined4 param_3)
          ;param_1       undefined4          r0                      
          ;param_2       undefined4          r1                      
          ;param_3       undefined4          r2                      
          ;local_c       undefined4          -c                      ;XREF[1,0]:   0003cc3e
          ;local_10      undefined4         -10                      ;XREF[1,0]:   0003cc3c
                                                          ;XREF[0,2]:   0003e6c4,0003e7b4
ram:0003cc38    07b5            push        {param_1,param_2,param_3,lr}            
ram:0003cc3a    044a            ldr         param_3=>LAB_000...,[PTR_LAB_0003cc1c...;= 0003cc1d
ram:0003cc3c    0090            str         param_1,[sp,#0x0]=>local_10             
ram:0003cc3e    0191            str         param_2,[sp,#local_c+0x10]              
ram:0003cc40    6846            mov         param_1,sp                              
ram:0003cc42    0821            movs        param_2,#0x8                            
ram:0003cc44    fff7f2fa        bl          FUN_0003c22c                            ;undefined4 FUN_0003c22c(int param_1,...
ram:0003cc48    0ebd            pop         {param_2,param_3,r3,pc}                 
ram:0003cc4a    c046            mov         r8,r8                                   
                            PTR_LAB_0003cc1c+1+1_0003cc4c:;XREF[1,0]:   0003cc3a
ram:0003cc4c    1dcc0300        addr        LAB_0003cc1c+1+1                        
                            ;************************************************************************************************
                            ;*                                           FUNCTION                                           *
                            ;************************************************************************************************
                            ;undefined FUN_0003cc50(void)
                                                          ;XREF[1,0]:   0003cc5e
ram:0003cc50    48df            svc         0x48                                    
ram:0003cc52    7047            bx          lr                                      
                            ;************************************************************************************************
                            ;*                                           FUNCTION                                           *
                            ;************************************************************************************************
                            ;undefined FUN_0003cc54(void)
                                                          ;XREF[1,0]:   0003ce82
ram:0003cc54    11df            svc         0x11                                    
ram:0003cc56    7047            bx          lr                                      
                            ;************************************************************************************************
                            ;*                                           FUNCTION                                           *
                            ;************************************************************************************************
                            ;undefined FUN_0003cc58(void)
                                                          ;XREF[1,0]:   0003ceb2
ram:0003cc58    13df            svc         0x13                                    
ram:0003cc5a    7047            bx          lr                                      
                            ;************************************************************************************************
                            ;*                                           FUNCTION                                           *
                            ;************************************************************************************************
                            ;undefined FUN_0003cc5c(void)
                                                          ;XREF[2,0]:   0003ce78,0003cf62
ram:0003cc5c    10b5            push        {r4,lr}                                 
                            LAB_0003cc5e:                 ;XREF[1,0]:   0003cc7a
ram:0003cc5e    fff7f7ff        bl          FUN_0003cc50                            ;undefined FUN_0003cc50(void)
ram:0003cc62    0028            cmp         r0,#0x0                                 
ram:0003cc64    03d0            beq         LAB_0003cc6e                            
ram:0003cc66    0022            movs        r2,#0x0                                 
ram:0003cc68    1100            movs        r1,r2                                   
ram:0003cc6a    fff7a9fa        bl          FUN_0003c1c0                            ;undefined FUN_0003c1c0(void)
                            LAB_0003cc6e:                 ;XREF[1,0]:   0003cc64
ram:0003cc6e    fff77ffb        bl          FUN_0003c370                            ;undefined FUN_0003c370(void)
ram:0003cc72    034b            ldr         r3,[DAT_0003cc80]                       ;= 20002CACh
ram:0003cc74    1b78            ldrb        r3,[r3,#0x0]=>DAT_20002cac              
ram:0003cc76    023b            subs        r3,#0x2                                 
ram:0003cc78    022b            cmp         r3,#0x2                                 
ram:0003cc7a    f0d8            bhi         LAB_0003cc5e                            
ram:0003cc7c    10bd            pop         {r4,pc}                                 
ram:0003cc7e    c046            mov         r8,r8                                   
                            DAT_0003cc80:                 ;XREF[1,0]:   0003cc72
ram:0003cc80    ac2c0020        undefined4  20002CACh                               
                            ;************************************************************************************************
                            ;*                                           FUNCTION                                           *
                            ;************************************************************************************************
                            ;undefined FUN_0003cc84(undefined4 param_1, int param_2, int param_3)
          ;param_1       undefined4          r0                      
          ;param_2       int                 r1                      
          ;param_3       int                 r2                      
                                                          ;XREF[0,3]:   0003ce40,0003ce42,0003ce60
ram:0003cc84    10b5            push        {r4,lr}                                 
ram:0003cc86    074b            ldr         r3,[DAT_0003cca4]                       ;= 20002CACh
ram:0003cc88    1000            movs        param_1,param_3                         
ram:0003cc8a    1a78            ldrb        param_3,[r3,#0x0]=>DAT_20002cac         
ram:0003cc8c    012a            cmp         param_3,#0x1                            
ram:0003cc8e    02d1            bne         LAB_0003cc96                            
ram:0003cc90    0229            cmp         param_2,#0x2                            
ram:0003cc92    00d1            bne         LAB_0003cc96                            
ram:0003cc94    1970            strb        param_2,[r3,#0x0]=>DAT_20002cac         
                            LAB_0003cc96:                 ;XREF[2,0]:   0003cc8e,0003cc92
ram:0003cc96    0028            cmp         param_1,#0x0                            
ram:0003cc98    03d0            beq         LAB_0003cca2                            
ram:0003cc9a    0022            movs        param_3,#0x0                            
ram:0003cc9c    1100            movs        param_2,param_3                         
ram:0003cc9e    fff78ffa        bl          FUN_0003c1c0                            ;undefined FUN_0003c1c0(void)
                            LAB_0003cca2:                 ;XREF[1,0]:   0003cc98
ram:0003cca2    10bd            pop         {r4,pc}                                 
                            DAT_0003cca4:                 ;XREF[1,0]:   0003cc86
ram:0003cca4    ac2c0020        undefined4  20002CACh                               
                            ;************************************************************************************************
                            ;*                                           FUNCTION                                           *
                            ;************************************************************************************************
                            ;undefined FUN_0003cca8(void)
                                                          ;XREF[1,0]:   0003cd8c
ram:0003cca8    10b5            push        {r4,lr}                                 
ram:0003ccaa    0c4c            ldr         r4,[DAT_0003ccdc]                       ;= 20002CA4h
ram:0003ccac    1c21            movs        r1,#0x1c                                
ram:0003ccae    2000            movs        r0,r4                                   
ram:0003ccb0    01f00bfc        bl          FUN_0003e4ca                            ;undefined FUN_0003e4ca(undefined4 * ...
ram:0003ccb4    0028            cmp         r0,#0x0                                 
ram:0003ccb6    03d0            beq         LAB_0003ccc0                            
ram:0003ccb8    0022            movs        r2,#0x0                                 
ram:0003ccba    1100            movs        r1,r2                                   
ram:0003ccbc    fff780fa        bl          FUN_0003c1c0                            ;undefined FUN_0003c1c0(void)
                            LAB_0003ccc0:                 ;XREF[1,0]:   0003ccb6
ram:0003ccc0    0023            movs        r3,#0x0                                 
ram:0003ccc2    1c22            movs        r2,#0x1c                                
ram:0003ccc4    0649            ldr         r1=>DAT_20002cb0,[DAT_0003cce0]         ;= 20002CB0h
ram:0003ccc6    2000            movs        r0,r4                                   
ram:0003ccc8    01f0f0fb        bl          FUN_0003e4ac                            ;undefined FUN_0003e4ac(undefined4 * ...
ram:0003cccc    0028            cmp         r0,#0x0                                 
ram:0003ccce    03d0            beq         LAB_0003ccd8                            
ram:0003ccd0    0022            movs        r2,#0x0                                 
ram:0003ccd2    1100            movs        r1,r2                                   
ram:0003ccd4    fff774fa        bl          FUN_0003c1c0                            ;undefined FUN_0003c1c0(void)
                            LAB_0003ccd8:                 ;XREF[1,0]:   0003ccce
ram:0003ccd8    10bd            pop         {r4,pc}                                 
ram:0003ccda    c046            mov         r8,r8                                   
                            DAT_0003ccdc:                 ;XREF[1,0]:   0003ccaa
ram:0003ccdc    a42c0020        undefined4  20002CA4h                               
                            DAT_0003cce0:                 ;XREF[1,0]:   0003ccc4
ram:0003cce0    b02c0020        undefined4  20002CB0h                               
                            ;************************************************************************************************
                            ;*                                           FUNCTION                                           *
                            ;************************************************************************************************
                            ;undefined8 FUN_0003cce4(int * param_1, char * param_2, undefined4 param_3)
          ;param_1       int *               r0                      
          ;param_2       char *              r1                      
          ;param_3       undefined4          r2                      
          ;local_c       undefined4          -c                      ;XREF[2,0]:   0003ccf6,0003cd14
                                                          ;XREF[2,0]:   0003e772,0003e780
ram:0003cce4    07b5            push        {param_1,param_2,param_3,lr}            
ram:0003cce6    0368            ldr         r3,[param_1,#0x0]                       
ram:0003cce8    0133            adds        r3,#0x1                                 
ram:0003ccea    01d1            bne         LAB_0003ccf0                            
                            LAB_0003ccec:                 ;XREF[1,0]:   0003ccfc
ram:0003ccec    0020            movs        param_1,#0x0                            
                            LAB_0003ccee:                 ;XREF[1,0]:   0003cd20
ram:0003ccee    0ebd            pop         {param_2,param_3,r3,pc}                 
                            LAB_0003ccf0:                 ;XREF[1,0]:   0003ccea
ram:0003ccf0    01a8            add         param_1,sp,#0x4                         
ram:0003ccf2    00f053f9        bl          FUN_0003cf9c                            ;undefined FUN_0003cf9c(undefined4 * ...
ram:0003ccf6    019b            ldr         r3,[sp,#local_c+0x10]                   
ram:0003ccf8    1a78            ldrb        param_3,[r3,#0x0]                       
ram:0003ccfa    012a            cmp         param_3,#0x1                            
ram:0003ccfc    f6d1            bne         LAB_0003ccec                            
ram:0003ccfe    0020            movs        param_1,#0x0                            
ram:0003cd00    5a88            ldrh        param_3,[r3,#0x2]                       
ram:0003cd02    8242            cmp         param_3,param_1                         
ram:0003cd04    06d0            beq         LAB_0003cd14                            
ram:0003cd06    9968            ldr         param_2,[r3,#0x8]                       
ram:0003cd08    c023            movs        r3,#0xc0                                
ram:0003cd0a    9b01            lsls        r3,r3,#0x6                              
ram:0003cd0c    0200            movs        param_3,param_1                         
ram:0003cd0e    9868            ldr         param_1,[r3,#offset DAT_00003008 &0xff] 
ram:0003cd10    00f068f9        bl          FUN_0003cfe4                            ;uint FUN_0003cfe4(byte * param_1, in...
                            LAB_0003cd14:                 ;XREF[1,0]:   0003cd04
ram:0003cd14    019b            ldr         r3,[sp,#local_c+0x10]                   
ram:0003cd16    5b88            ldrh        r3,[r3,#0x2]                            
ram:0003cd18    181a            subs        param_1,r3,param_1                      
ram:0003cd1a    4242            rsbs        param_3,param_1                         
ram:0003cd1c    5041            adcs        param_1,param_3                         
ram:0003cd1e    c0b2            uxtb        param_1,param_1                         
ram:0003cd20    e5e7            b           LAB_0003ccee                            
ram:0003cd22    0000            movs        r0,r0                                   
                            ;************************************************************************************************
                            ;*                                           FUNCTION                                           *
                            ;************************************************************************************************
                            ;undefined FUN_0003cd24(uint param_1, int param_2, int param_3, int param_4, undefined4 param_5)
          ;param_1       uint                r0                      
          ;param_2       int                 r1                      
          ;param_3       int                 r2                      
          ;param_4       int                 r3                      
          ;param_5       undefined4           0                      ;XREF[1,0]:   0003cd80
          ;local_4       undefined4          -4                      ;XREF[1,0]:   0003cd2e
          ;local_8       undefined4          -8                      ;XREF[1,0]:   0003cd40
          ;local_c       undefined4          -c                      ;XREF[1,0]:   0003cd3c
          ;local_10      undefined4         -10                      ;XREF[1,0]:   0003cd34
          ;local_2c      undefined4         -2c                      ;XREF[3,0]:   0003cd9e,0003cdc0,0003ce1c
          ;local_34      undefined4         -34                      ;XREF[3,0]:   0003cd42,0003cd50,0003cd6c
                                                          ;XREF[8,0]:   0003cf5e,0003d0ac,0003d0d6,0003d10a
                                                          ;             0003d13a,0003d204,0003d60a,0003db38
ram:0003cd24    8446            mov         r12,param_1                             
ram:0003cd26    84b0            sub         sp,#0x10                                
ram:0003cd28    f0b5            push        {r4,r5,r6,r7,lr}                        
ram:0003cd2a    85b0            sub         sp,#0x14                                
ram:0003cd2c    1d00            movs        r5,param_4                              
ram:0003cd2e    0d93            str         param_4,[sp,#local_4+0x38]              
ram:0003cd30    6346            mov         param_4,r12                             
ram:0003cd32    c4b2            uxtb        r4,param_1                              
ram:0003cd34    0a90            str         param_1,[sp,#local_10+0x38]             
ram:0003cd36    1b0c            lsrs        param_4,param_4,#0x10                   
ram:0003cd38    03a8            add         param_1,sp,#0xc                         
ram:0003cd3a    0f00            movs        r7,param_2                              
ram:0003cd3c    0b91            str         param_2,[sp,#local_c+0x38]              
ram:0003cd3e    1600            movs        r6,param_3                              
ram:0003cd40    0c92            str         param_3,[sp,#local_8+0x38]              
ram:0003cd42    0193            str         param_4,[sp,#local_34+0x38]             
ram:0003cd44    00f02af9        bl          FUN_0003cf9c                            ;undefined FUN_0003cf9c(undefined4 * ...
ram:0003cd48    002c            cmp         r4,#0x0                                 
ram:0003cd4a    0bd1            bne         LAB_0003cd64                            
ram:0003cd4c    6a46            mov         param_3,sp                              
ram:0003cd4e    374b            ldr         param_4=>DAT_20002cb0,[DAT_0003ce2c]    ;= 20002CB0h
ram:0003cd50    9288            ldrh        param_3,[r2,#local_34+0x38]             
ram:0003cd52    ff21            movs        param_2,#0xff                           
ram:0003cd54    5a80            strh        param_3,[param_4,#0x2]=>DAT_20002cb2    
ram:0003cd56    0122            movs        param_3,#0x1                            
ram:0003cd58    9d60            str         r5,[param_4,#0x8]=>DAT_20002cb8         
ram:0003cd5a    1a70            strb        param_3,[param_4,#0x0]=>DAT_20002cb0    
ram:0003cd5c    1971            strb        param_2,[param_4,#0x4]=>DAT_20002cb4    
                            LAB_0003cd5e:                 ;XREF[2,0]:   0003cdba,0003cde2
ram:0003cd5e    344b            ldr         param_4=>DAT_20002cac,[DAT_0003ce30]    ;= 20002CACh
ram:0003cd60    1a70            strb        param_3,[param_4,#0x0]=>DAT_20002cac    
ram:0003cd62    13e0            b           LAB_0003cd8c                            
                            LAB_0003cd64:                 ;XREF[1,0]:   0003cd4a
ram:0003cd64    012c            cmp         r4,#0x1                                 
ram:0003cd66    18d1            bne         LAB_0003cd9a                            
ram:0003cd68    6a46            mov         param_3,sp                              
ram:0003cd6a    304b            ldr         param_4,[DAT_0003ce2c]                  ;= 20002CB0h
ram:0003cd6c    9288            ldrh        param_3,[r2,#local_34+0x38]             
ram:0003cd6e    df60            str         r7,[param_4,#0xc]=>DAT_20002cbc         
ram:0003cd70    5a80            strh        param_3,[param_4,#0x2]=>DAT_20002cb2    
ram:0003cd72    ba19            adds        param_3,r7,r6                           
ram:0003cd74    5219            adds        param_3,param_3,r5                      
ram:0003cd76    9a60            str         param_3,[param_4,#0x8]=>DAT_20002cb8    
ram:0003cd78    a522            movs        param_3,#0xa5                           
ram:0003cd7a    1a70            strb        param_3,[param_4,#0x0]=>DAT_20002cb0    
ram:0003cd7c    5a32            adds        param_3,#0x5a                           
ram:0003cd7e    1a71            strb        param_3,[param_4,#0x4]=>DAT_20002cb4    
ram:0003cd80    0e9a            ldr         param_3,[sp,#param_5+0x38]              
ram:0003cd82    1e61            str         r6,[param_4,#0x10]=>DAT_20002cc0        
ram:0003cd84    5d61            str         r5,[param_4,#0x14]=>DAT_20002cc4        
ram:0003cd86    9a61            str         param_3,[param_4,#0x18]=>DAT_20002cc8   
ram:0003cd88    294b            ldr         param_4=>DAT_20002cac,[DAT_0003ce30]    ;= 20002CACh
ram:0003cd8a    1c70            strb        r4,[param_4,#0x0]=>DAT_20002cac         
                            LAB_0003cd8c:                 ;XREF[2,0]:   0003cd62,0003ce22
ram:0003cd8c    fff78cff        bl          FUN_0003cca8                            ;undefined FUN_0003cca8(void)
                            LAB_0003cd90:                 ;XREF[2,0]:   0003ce0a,0003ce26
ram:0003cd90    05b0            add         sp,#0x14                                
ram:0003cd92    f0bc            pop         {r4,r5,r6,r7}                           
ram:0003cd94    08bc            pop         {param_4}                               
ram:0003cd96    04b0            add         sp,#0x10                                
ram:0003cd98    1847            bx          param_4                                 
                            LAB_0003cd9a:                 ;XREF[1,0]:   0003cd66
ram:0003cd9a    032c            cmp         r4,#0x3                                 
ram:0003cd9c    0ed1            bne         LAB_0003cdbc                            
ram:0003cd9e    039a            ldr         param_3,[sp,#local_2c+0x38]             
ram:0003cda0    224b            ldr         param_4,[DAT_0003ce2c]                  ;= 20002CB0h
ram:0003cda2    1178            ldrb        param_2,[param_3,#0x0]                  
ram:0003cda4    1970            strb        param_2,[param_4,#0x0]=>DAT_20002cb0    
ram:0003cda6    5188            ldrh        param_2,[param_3,#0x2]                  
ram:0003cda8    9268            ldr         param_3,[param_3,#0x8]                  
ram:0003cdaa    5980            strh        param_2,[param_4,#0x2]=>DAT_20002cb2    
ram:0003cdac    9a60            str         param_3,[param_4,#0x8]=>DAT_20002cb8    
ram:0003cdae    aa22            movs        param_3,#0xaa                           
ram:0003cdb0    df60            str         r7,[param_4,#0xc]=>DAT_20002cbc         
ram:0003cdb2    1a71            strb        param_3,[param_4,#0x4]=>DAT_20002cb4    
ram:0003cdb4    1e61            str         r6,[param_4,#0x10]=>DAT_20002cc0        
ram:0003cdb6    5d61            str         r5,[param_4,#0x14]=>DAT_20002cc4        
ram:0003cdb8    a93a            subs        param_3,#0xa9                           
ram:0003cdba    d0e7            b           LAB_0003cd5e                            
                            LAB_0003cdbc:                 ;XREF[1,0]:   0003cd9c
ram:0003cdbc    022c            cmp         r4,#0x2                                 
ram:0003cdbe    17d1            bne         LAB_0003cdf0                            
ram:0003cdc0    039a            ldr         param_3,[sp,#local_2c+0x38]             
ram:0003cdc2    1a4b            ldr         param_4,[DAT_0003ce2c]                  ;= 20002CB0h
ram:0003cdc4    1178            ldrb        param_2,[param_3,#0x0]                  
ram:0003cdc6    a529            cmp         param_2,#0xa5                           
ram:0003cdc8    0cd1            bne         LAB_0003cde4                            
ram:0003cdca    0022            movs        param_3,#0x0                            
ram:0003cdcc    5a80            strh        param_3,[param_4,#0x2]=>DAT_20002cb2    
ram:0003cdce    9a60            str         param_3,[param_4,#0x8]=>DAT_20002cb8    
ram:0003cdd0    ff32            adds        param_3,#0xff                           
ram:0003cdd2    1a70            strb        param_3,[param_4,#0x0]=>DAT_20002cb0    
                            LAB_0003cdd4:                 ;XREF[1,0]:   0003cdee
ram:0003cdd4    ff22            movs        param_3,#0xff                           
ram:0003cdd6    1a71            strb        param_3,[param_4,#0x4]=>DAT_20002cb4    
ram:0003cdd8    0022            movs        param_3,#0x0                            
ram:0003cdda    da60            str         param_3,[param_4,#0xc]=>DAT_20002cbc    
ram:0003cddc    1a61            str         param_3,[param_4,#0x10]=>DAT_20002cc0   
ram:0003cdde    5a61            str         param_3,[param_4,#0x14]=>DAT_20002cc4   
ram:0003cde0    0132            adds        param_3,#0x1                            
ram:0003cde2    bce7            b           LAB_0003cd5e                            
                            LAB_0003cde4:                 ;XREF[1,0]:   0003cdc8
ram:0003cde4    1970            strb        param_2,[param_4,#0x0]=>DAT_20002cb0    
ram:0003cde6    5188            ldrh        param_2,[param_3,#0x2]                  
ram:0003cde8    9268            ldr         param_3,[param_3,#0x8]                  
ram:0003cdea    5980            strh        param_2,[param_4,#0x2]=>DAT_20002cb2    
ram:0003cdec    9a60            str         param_3,[param_4,#0x8]=>DAT_20002cb8    
ram:0003cdee    f1e7            b           LAB_0003cdd4                            
                            LAB_0003cdf0:                 ;XREF[1,0]:   0003cdbe
ram:0003cdf0    052c            cmp         r4,#0x5                                 
ram:0003cdf2    0bd1            bne         LAB_0003ce0c                            
ram:0003cdf4    01f022f8        bl          FUN_0003de3c                            ;undefined4 FUN_0003de3c(undefined4 p...
ram:0003cdf8    0028            cmp         param_1,#0x0                            
ram:0003cdfa    03d0            beq         LAB_0003ce04                            
ram:0003cdfc    0022            movs        param_3,#0x0                            
ram:0003cdfe    1100            movs        param_2,param_3                         
ram:0003ce00    fff7def9        bl          FUN_0003c1c0                            ;undefined FUN_0003c1c0(void)
                            LAB_0003ce04:                 ;XREF[1,0]:   0003cdfa
ram:0003ce04    0322            movs        param_3,#0x3                            
                            LAB_0003ce06:                 ;XREF[1,0]:   0003ce2a
ram:0003ce06    0a4b            ldr         param_4,[DAT_0003ce30]                  ;= 20002CACh
ram:0003ce08    1a70            strb        param_3,[param_4,#0x0]=>DAT_20002cac    
ram:0003ce0a    c1e7            b           LAB_0003cd90                            
                            LAB_0003ce0c:                 ;XREF[1,0]:   0003cdf2
ram:0003ce0c    042c            cmp         r4,#0x4                                 
ram:0003ce0e    09d1            bne         LAB_0003ce24                            
ram:0003ce10    0022            movs        param_3,#0x0                            
ram:0003ce12    064b            ldr         param_4,[DAT_0003ce2c]                  ;= 20002CB0h
ram:0003ce14    5a80            strh        param_3,[param_4,#0x2]=>DAT_20002cb2    
ram:0003ce16    9a60            str         param_3,[param_4,#0x8]=>DAT_20002cb8    
ram:0003ce18    ff32            adds        param_3,#0xff                           
ram:0003ce1a    1a70            strb        param_3,[param_4,#0x0]=>DAT_20002cb0    
ram:0003ce1c    039a            ldr         param_3,[sp,#local_2c+0x38]             
ram:0003ce1e    1279            ldrb        param_3,[param_3,#0x4]                  
ram:0003ce20    1a71            strb        param_3,[param_4,#0x4]=>DAT_20002cb4    
ram:0003ce22    b3e7            b           LAB_0003cd8c                            
                            LAB_0003ce24:                 ;XREF[1,0]:   0003ce0e
ram:0003ce24    062c            cmp         r4,#0x6                                 
ram:0003ce26    b3d1            bne         LAB_0003cd90                            
ram:0003ce28    0422            movs        param_3,#0x4                            
ram:0003ce2a    ece7            b           LAB_0003ce06                            
                            DAT_0003ce2c:                 ;XREF[5,0]:   0003cd4e,0003cd6a,0003cda0,0003cdc2
                                                          ;             0003ce12
ram:0003ce2c    b02c0020        undefined4  20002CB0h                               
                            DAT_0003ce30:                 ;XREF[3,0]:   0003cd5e,0003cd88,0003ce06
ram:0003ce30    ac2c0020        undefined4  20002CACh                               
                            ;************************************************************************************************
                            ;*                                           FUNCTION                                           *
                            ;************************************************************************************************
                            ;undefined FUN_0003ce34(undefined4 param_1, undefined * param_2, undefined4 param_3, undefined4 param_4)
          ;param_1       undefined4          r0                      
          ;param_2       undefined *         r1                      
          ;param_3       undefined4          r2                      
          ;param_4       undefined4          r3                      
          ;local_14      undefined4         -14                      ;XREF[1,0]:   0003ce42
                                                          ;XREF[1,0]:   0003e6dc
ram:0003ce34    1fb5            push        {param_1,param_2,param_3,param_4,r4,lr} 
ram:0003ce36    0c22            movs        param_3,#0xc                            
ram:0003ce38    0021            movs        param_2,#0x0                            
ram:0003ce3a    01a8            add         param_1,sp,#0x4                         
ram:0003ce3c    fff7b6f9        bl          FUN_0003c1ac                            ;undefined FUN_0003c1ac(undefined * p...
ram:0003ce40    074b            ldr         param_4=>FUN_000...,[PTR_FUN_0003cc84...;= 0003cc85
ram:0003ce42    0193            str         param_4=>FUN_000...,[sp,#local_14+0x18] 
ram:0003ce44    01f0fcfa        bl          FUN_0003e440                            ;undefined4 FUN_0003e440(void)
ram:0003ce48    0028            cmp         param_1,#0x0                            
ram:0003ce4a    06d1            bne         LAB_0003ce5a                            
ram:0003ce4c    ff23            movs        param_4,#0xff                           
ram:0003ce4e    0549            ldr         param_2,[DAT_0003ce64]                  ;= 20002CA4h
ram:0003ce50    9b02            lsls        param_4,param_4,#0xa                    
ram:0003ce52    01a8            add         param_1,sp,#0x4                         
ram:0003ce54    4b60            str         param_4,[param_2,#0x4]=>DAT_20002ca8    
ram:0003ce56    01f015fb        bl          FUN_0003e484                            ;undefined4 FUN_0003e484(undefined4 *...
                            LAB_0003ce5a:                 ;XREF[1,0]:   0003ce4a
ram:0003ce5a    05b0            add         sp,#0x14                                
ram:0003ce5c    00bd            pop         {pc}                                    
ram:0003ce5e    c046            mov         r8,r8                                   
                            PTR_FUN_0003cc84+1_0003ce60:  ;XREF[1,0]:   0003ce40
ram:0003ce60    85cc0300        addr        FUN_0003cc84+1                          
                            DAT_0003ce64:                 ;XREF[1,0]:   0003ce4e
ram:0003ce64    a42c0020        undefined4  20002CA4h                               
                            ;************************************************************************************************
                            ;*                                           FUNCTION                                           *
                            ;************************************************************************************************
                            ;int FUN_0003ce68(void)
                                                          ;XREF[1,0]:   0003e744
ram:0003ce68    10b5            push        {r4,lr}                                 
ram:0003ce6a    00f02dfa        bl          FUN_0003d2c8                            ;int FUN_0003d2c8(void)
ram:0003ce6e    041e            subs        r4,r0,#0x0                              
ram:0003ce70    04d1            bne         LAB_0003ce7c                            
ram:0003ce72    00f019ff        bl          FUN_0003dca8                            ;int FUN_0003dca8(void)
ram:0003ce76    0400            movs        r4,r0                                   
ram:0003ce78    fff7f0fe        bl          FUN_0003cc5c                            ;undefined FUN_0003cc5c(void)
                            LAB_0003ce7c:                 ;XREF[1,0]:   0003ce70
ram:0003ce7c    2000            movs        r0,r4                                   
ram:0003ce7e    10bd            pop         {r4,pc}                                 
                            ;************************************************************************************************
                            ;*                                           FUNCTION                                           *
                            ;************************************************************************************************
                            ;undefined FUN_0003ce80(void)
                                                          ;XREF[1,0]:   0003e792
ram:0003ce80    10b5            push        {r4,lr}                                 
ram:0003ce82    fff7e7fe        bl          FUN_0003cc54                            ;undefined FUN_0003cc54(void)
ram:0003ce86    0028            cmp         r0,#0x0                                 
ram:0003ce88    03d0            beq         LAB_0003ce92                            
ram:0003ce8a    0022            movs        r2,#0x0                                 
ram:0003ce8c    1100            movs        r1,r2                                   
ram:0003ce8e    fff797f9        bl          FUN_0003c1c0                            ;undefined FUN_0003c1c0(void)
                            LAB_0003ce92:                 ;XREF[1,0]:   0003ce88
ram:0003ce92    0e4b            ldr         r3,[DAT_0003cecc]                       ;= E000E100h
ram:0003ce94    0120            movs        r0,#0x1                                 
ram:0003ce96    1968            ldr         r1,[r3,#0x0]=>DAT_e000e100              
ram:0003ce98    0023            movs        r3,#0x0                                 
ram:0003ce9a    0d4c            ldr         r4,[DAT_0003ced0]                       ;= E000E104h
                            LAB_0003ce9c:                 ;XREF[1,0]:   0003ceaa
ram:0003ce9c    0200            movs        r2,r0                                   
ram:0003ce9e    9a40            lsls        r2,r3                                   
ram:0003cea0    1142            tst         r1,r2                                   
ram:0003cea2    00d0            beq         LAB_0003cea6                            
ram:0003cea4    e267            str         r2,[r4,#0x7c]=>DAT_e000e180             
                            LAB_0003cea6:                 ;XREF[1,0]:   0003cea2
ram:0003cea6    0133            adds        r3,#0x1                                 
ram:0003cea8    202b            cmp         r3,#0x20                                
ram:0003ceaa    f7d1            bne         LAB_0003ce9c                            
ram:0003ceac    c024            movs        r4,#0xc0                                
ram:0003ceae    a401            lsls        r4,r4,#0x6                              
ram:0003ceb0    a068            ldr         r0,[r4,#offset DAT_00003008 &0xff]      
ram:0003ceb2    fff7d1fe        bl          FUN_0003cc58                            ;undefined FUN_0003cc58(void)
ram:0003ceb6    0028            cmp         r0,#0x0                                 
ram:0003ceb8    03d0            beq         LAB_0003cec2                            
ram:0003ceba    0022            movs        r2,#0x0                                 
ram:0003cebc    1100            movs        r1,r2                                   
ram:0003cebe    fff77ff9        bl          FUN_0003c1c0                            ;undefined FUN_0003c1c0(void)
                            LAB_0003cec2:                 ;XREF[1,0]:   0003ceb8
ram:0003cec2    a068            ldr         r0,[r4,#offset DAT_00003008 &0xff]      
ram:0003cec4    00f070f8        bl          FUN_0003cfa8                            ;undefined FUN_0003cfa8(undefined4 * ...
ram:0003cec8    10bd            pop         {r4,pc}                                 
ram:0003ceca    c046            mov         r8,r8                                   
                            DAT_0003cecc:                 ;XREF[1,0]:   0003ce92
ram:0003cecc    00e100e0        undefined4  E000E100h                               
                            DAT_0003ced0:                 ;XREF[1,0]:   0003ce9a
ram:0003ced0    04e100e0        undefined4  E000E104h                               
                            ;************************************************************************************************
                            ;*                                           FUNCTION                                           *
                            ;************************************************************************************************
                            ;undefined8 FUN_0003ced4(undefined4 param_1, char * param_2, undefined4 param_3)
          ;param_1       undefined4          r0                      
          ;param_2       char *              r1                      
          ;param_3       undefined4          r2                      
          ;local_c       undefined4          -c                      ;XREF[1,0]:   0003cedc
                                                          ;XREF[2,0]:   0003e6e2,0003e788
ram:0003ced4    07b5            push        {param_1,param_2,param_3,lr}            
ram:0003ced6    01a8            add         param_1,sp,#0x4                         
ram:0003ced8    00f060f8        bl          FUN_0003cf9c                            ;undefined FUN_0003cf9c(undefined4 * ...
ram:0003cedc    019b            ldr         r3,[sp,#local_c+0x10]                   
ram:0003cede    0120            movs        param_1,#0x1                            
ram:0003cee0    1a78            ldrb        param_3,[r3,#0x0]                       
ram:0003cee2    a52a            cmp         param_3,#0xa5                           
ram:0003cee4    04d0            beq         LAB_0003cef0                            
ram:0003cee6    1879            ldrb        param_1,[r3,#0x4]                       
ram:0003cee8    aa38            subs        param_1,#0xaa                           
ram:0003ceea    4342            rsbs        r3,param_1                              
ram:0003ceec    5841            adcs        param_1,r3                              
ram:0003ceee    c0b2            uxtb        param_1,param_1                         
                            LAB_0003cef0:                 ;XREF[1,0]:   0003cee4
ram:0003cef0    0ebd            pop         {param_2,param_3,r3,pc}                 
                            ;************************************************************************************************
                            ;*                                           FUNCTION                                           *
                            ;************************************************************************************************
                            ;int FUN_0003cef2(undefined4 param_1, undefined * param_2)
          ;param_1       undefined4          r0                      
          ;param_2       undefined *         r1                      
                                                          ;XREF[1,0]:   0003e6f8
ram:0003cef2    10b5            push        {r4,lr}                                 
ram:0003cef4    00f01afc        bl          FUN_0003d72c                            ;uint FUN_0003d72c(undefined4 param_1...
ram:0003cef8    0028            cmp         param_1,#0x0                            
ram:0003cefa    1bd0            beq         LAB_0003cf34                            
                            LAB_0003cefc:                 ;XREF[1,0]:   0003cf3a
ram:0003cefc    6420            movs        param_1,#0x64                           
ram:0003cefe    01f0b7f9        bl          FUN_0003e270                            ;undefined FUN_0003e270(int param_1)
ram:0003cf02    00f087fb        bl          FUN_0003d614                            ;undefined FUN_0003d614(undefined4 pa...
ram:0003cf06    0028            cmp         param_1,#0x0                            
ram:0003cf08    03d0            beq         LAB_0003cf12                            
ram:0003cf0a    0022            movs        r2,#0x0                                 
ram:0003cf0c    1100            movs        param_2,r2                              
ram:0003cf0e    fff757f9        bl          FUN_0003c1c0                            ;undefined FUN_0003c1c0(void)
                            LAB_0003cf12:                 ;XREF[1,0]:   0003cf08
ram:0003cf12    00f00bfc        bl          FUN_0003d72c                            ;uint FUN_0003d72c(undefined4 param_1...
ram:0003cf16    0028            cmp         param_1,#0x0                            
ram:0003cf18    03d0            beq         LAB_0003cf22                            
ram:0003cf1a    0022            movs        r2,#0x0                                 
ram:0003cf1c    1100            movs        param_2,r2                              
ram:0003cf1e    fff74ff9        bl          FUN_0003c1c0                            ;undefined FUN_0003c1c0(void)
                            LAB_0003cf22:                 ;XREF[1,0]:   0003cf18
ram:0003cf22    00f0c3fb        bl          FUN_0003d6ac                            ;undefined FUN_0003d6ac(undefined4 pa...
ram:0003cf26    041e            subs        r4,param_1,#0x0                         
ram:0003cf28    08d0            beq         LAB_0003cf3c                            
ram:0003cf2a    0022            movs        r2,#0x0                                 
ram:0003cf2c    1100            movs        param_2,r2                              
ram:0003cf2e    fff747f9        bl          FUN_0003c1c0                            ;undefined FUN_0003c1c0(void)
ram:0003cf32    03e0            b           LAB_0003cf3c                            
                            LAB_0003cf34:                 ;XREF[1,0]:   0003cefa
ram:0003cf34    00f0d8fb        bl          FUN_0003d6e8                            ;undefined FUN_0003d6e8(undefined4 pa...
ram:0003cf38    041e            subs        r4,param_1,#0x0                         
ram:0003cf3a    dfd1            bne         LAB_0003cefc                            
                            LAB_0003cf3c:                 ;XREF[2,0]:   0003cf28,0003cf32
ram:0003cf3c    2000            movs        param_1,r4                              
ram:0003cf3e    10bd            pop         {r4,pc}                                 
                            ;************************************************************************************************
                            ;*                                           FUNCTION                                           *
                            ;************************************************************************************************
                            ;undefined4 FUN_0003cf40(void)
          ;local_18      undefined4         -18                      ;XREF[1,0]:   0003cf5c
          ;local_1c      undefined4         -1c                      ;XREF[2,0]:   0003cf52,0003cf5a
          ;local_28      undefined4         -28                      ;XREF[1,0]:   0003cf58
                                                          ;XREF[1,0]:   0003e716
ram:0003cf40    10b5            push        {r4,lr}                                 
ram:0003cf42    88b0            sub         sp,#0x20                                
ram:0003cf44    03ac            add         r4,sp,#0xc                              
ram:0003cf46    1422            movs        r2,#0x14                                
ram:0003cf48    0021            movs        r1,#0x0                                 
ram:0003cf4a    2000            movs        r0,r4                                   
ram:0003cf4c    fff72ef9        bl          FUN_0003c1ac                            ;undefined FUN_0003c1ac(undefined * p...
ram:0003cf50    0223            movs        r3,#0x2                                 
ram:0003cf52    2370            strb        r3,[r4,#0x0]=>local_1c                  
ram:0003cf54    0023            movs        r3,#0x0                                 
ram:0003cf56    0434            adds        r4,#0x4                                 
ram:0003cf58    0093            str         r3,[sp,#0x0]=>local_28                  
ram:0003cf5a    0398            ldr         r0,[sp,#local_1c+0x28]                  
ram:0003cf5c    0ecc            ldmia       r4!=>local_18,{r1,r2,r3}                
ram:0003cf5e    fff7e1fe        bl          FUN_0003cd24                            ;undefined FUN_0003cd24(uint param_1,...
ram:0003cf62    fff77bfe        bl          FUN_0003cc5c                            ;undefined FUN_0003cc5c(void)
ram:0003cf66    0020            movs        r0,#0x0                                 
ram:0003cf68    08b0            add         sp,#0x20                                
ram:0003cf6a    10bd            pop         {r4,pc}                                 
                            ;************************************************************************************************
                            ;*                                           FUNCTION                                           *
                            ;************************************************************************************************
                            ;undefined8 FUN_0003cf6c(undefined * param_1, undefined * param_2)
          ;param_1       undefined *         r0                      
          ;param_2       undefined *         r1                      
          ;local_c       undefined4          -c                      ;XREF[1,0]:   0003cf76
                                                          ;XREF[4,0]:   0003d61a,0003d6b2,0003d6ee,0003d732
ram:0003cf6c    13b5            push        {param_1,param_2,r4,lr}                 
ram:0003cf6e    0400            movs        r4,param_1                              
ram:0003cf70    01a8            add         param_1,sp,#0x4                         
ram:0003cf72    00f013f8        bl          FUN_0003cf9c                            ;undefined FUN_0003cf9c(undefined4 * ...
ram:0003cf76    019b            ldr         r3,[sp,#local_c+0x10]                   
ram:0003cf78    1a78            ldrb        r2,[r3,#0x0]                            
ram:0003cf7a    2270            strb        r2,[r4,#0x0]                            
ram:0003cf7c    5a88            ldrh        r2,[r3,#0x2]                            
ram:0003cf7e    6280            strh        r2,[r4,#0x2]                            
ram:0003cf80    9a68            ldr         r2,[r3,#0x8]                            
ram:0003cf82    a260            str         r2,[r4,#0x8]                            
ram:0003cf84    1a79            ldrb        r2,[r3,#0x4]                            
ram:0003cf86    2271            strb        r2,[r4,#0x4]                            
ram:0003cf88    da68            ldr         r2,[r3,#0xc]                            
ram:0003cf8a    e260            str         r2,[r4,#0xc]                            
ram:0003cf8c    1a69            ldr         r2,[r3,#0x10]                           
ram:0003cf8e    2261            str         r2,[r4,#0x10]                           
ram:0003cf90    5a69            ldr         r2,[r3,#0x14]                           
ram:0003cf92    6261            str         r2,[r4,#0x14]                           
ram:0003cf94    9b69            ldr         r3,[r3,#0x18]                           
ram:0003cf96    a361            str         r3,[r4,#0x18]                           
ram:0003cf98    13bd            pop         {param_1,param_2,r4,pc}                 
ram:0003cf9a    0000            movs        r0,r0                                   
                            ;************************************************************************************************
                            ;*                                           FUNCTION                                           *
                            ;************************************************************************************************
                            ;undefined FUN_0003cf9c(undefined4 * param_1)
          ;param_1       undefined4 *        r0                      
                                                          ;XREF[4,0]:   0003ccf2,0003cd44,0003ced8,0003cf72
ram:0003cf9c    014b            ldr         r3,[DAT_0003cfa4]                       ;= 0003FC00h
ram:0003cf9e    0360            str         r3,[param_1,#0x0]                       
ram:0003cfa0    7047            bx          lr                                      
ram:0003cfa2    c046            mov         r8,r8                                   
                            DAT_0003cfa4:                 ;XREF[1,0]:   0003cf9c
ram:0003cfa4    00fc0300        undefined4  0003FC00h                               
                            ;************************************************************************************************
                            ;*                                           FUNCTION                                           *
                            ;************************************************************************************************
                            ;undefined FUN_0003cfa8(undefined4 * param_1)
          ;param_1       undefined4 *        r0                      
                                                          ;XREF[1,0]:   0003cec4
ram:0003cfa8    f0b5            push        {r4,r5,r6,r7,lr}                        
ram:0003cfaa    0300            movs        r3,param_1                              
ram:0003cfac    1868            ldr         param_1,[r3,#0x0]                       
ram:0003cfae    80f30888        msr         msp,param_1                             
ram:0003cfb2    5868            ldr         param_1,[r3,#0x4]                       
ram:0003cfb4    ff24            movs        r4,#0xff                                
ram:0003cfb6    64b2            sxtb        r4,r4                                   
ram:0003cfb8    eff30585        mrs         r5,ipsr                                 
ram:0003cfbc    002d            cmp         r5,#0x0                                 
ram:0003cfbe    01d1            bne         LAB_0003cfc4                            
ram:0003cfc0    a646            mov         lr,r4                                   
ram:0003cfc2    0047            bx          param_1                                 
                            LAB_0003cfc4:                 ;XREF[1,0]:   0003cfbe
ram:0003cfc4    251c            adds        r5,r4,#0x0                              
ram:0003cfc6    061c            adds        r6,param_1,#0x0                         
ram:0003cfc8    2127            movs        r7,#0x21                                
ram:0003cfca    3fba            rev         r7,r7                                   
ram:0003cfcc    f0b4            push        {r4,r5,r6,r7}                           
ram:0003cfce    0024            movs        r4,#0x0                                 
ram:0003cfd0    0025            movs        r5,#0x0                                 
ram:0003cfd2    0026            movs        r6,#0x0                                 
ram:0003cfd4    0027            movs        r7,#0x0                                 
ram:0003cfd6    f0b4            push        {r4,r5,r6,r7}                           
ram:0003cfd8    f920            movs        param_1,#0xf9                           
ram:0003cfda    40b2            sxtb        param_1,param_1                         
ram:0003cfdc    0047            bx          param_1=>LAB_fffffff8                   
ram:0003cfde    c046            mov         r8,r8                                   
ram:0003cfe0    f0bd            pop         {r4,r5,r6,r7,pc}                        
ram:0003cfe2    c046            mov         r8,r8                                   
                            ;************************************************************************************************
                            ;*                                           FUNCTION                                           *
                            ;************************************************************************************************
                            ;uint FUN_0003cfe4(byte * param_1, int param_2, ushort * param_3)
          ;param_1       byte *              r0                      
          ;param_2       int                 r1                      
          ;param_3       ushort *            r2                      
                                                          ;XREF[4,0]:   0003cd10,0003d818,0003e50a,0003e55c
ram:0003cfe4    10b5            push        {r4,lr}                                 
ram:0003cfe6    002a            cmp         param_3,#0x0                            
ram:0003cfe8    07d0            beq         LAB_0003cffa                            
ram:0003cfea    1388            ldrh        r3,[param_3,#0x0]                       
                            LAB_0003cfec:                 ;XREF[1,0]:   0003cffc
ram:0003cfec    ff22            movs        param_3,#0xff                           
ram:0003cfee    4118            adds        param_2,param_1,param_2                 
ram:0003cff0    5201            lsls        param_3,param_3,#0x5                    
                            LAB_0003cff2:                 ;XREF[1,0]:   0003d01c
ram:0003cff2    8842            cmp         param_1,param_2                         
ram:0003cff4    03d1            bne         LAB_0003cffe                            
ram:0003cff6    1800            movs        param_1,r3                              
ram:0003cff8    10bd            pop         {r4,pc}                                 
                            LAB_0003cffa:                 ;XREF[1,0]:   0003cfe8
ram:0003cffa    094b            ldr         r3,[DAT_0003d020]                       ;= 0000FFFFh
ram:0003cffc    f6e7            b           LAB_0003cfec                            
                            LAB_0003cffe:                 ;XREF[1,0]:   0003cff4
ram:0003cffe    0478            ldrb        r4,[param_1,#0x0]                       
ram:0003d000    5bba            rev16       r3,r3                                   
ram:0003d002    9bb2            uxth        r3,r3                                   
ram:0003d004    6340            eors        r3,r4                                   
ram:0003d006    dcb2            uxtb        r4,r3                                   
ram:0003d008    2409            lsrs        r4,r4,#0x4                              
ram:0003d00a    6340            eors        r3,r4                                   
ram:0003d00c    1c03            lsls        r4,r3,#0xc                              
ram:0003d00e    6340            eors        r3,r4                                   
ram:0003d010    1bb2            sxth        r3,r3                                   
ram:0003d012    5c01            lsls        r4,r3,#0x5                              
ram:0003d014    1440            ands        r4,param_3                              
ram:0003d016    6340            eors        r3,r4                                   
ram:0003d018    9bb2            uxth        r3,r3                                   
ram:0003d01a    0130            adds        param_1,#0x1                            
ram:0003d01c    e9e7            b           LAB_0003cff2                            
ram:0003d01e    c046            mov         r8,r8                                   
                            DAT_0003d020:                 ;XREF[1,0]:   0003cffa
ram:0003d020    ffff0000        undefined4  0000FFFFh                               
                            ;************************************************************************************************
                            ;*                                           FUNCTION                                           *
                            ;************************************************************************************************
                            ;undefined FUN_0003d024(void)
                                                          ;XREF[9,0]:   0003d27c,0003d298,0003d2ac,0003d670
                                                          ;             0003d686,0003d6a2,0003d6e0,0003d722
                                                          ;             0003d786
ram:0003d024    18df            svc         0x18                                    
ram:0003d026    7047            bx          lr                                      
                            ;************************************************************************************************
                            ;*                                           FUNCTION                                           *
                            ;************************************************************************************************
                            ;undefined LAB_0003d028+1(void)
                                                          ;XREF[0,1]:   0003d44c
ram:0003d028    7047            bx          lr                                      
ram:0003d02a    0000            movs        r0,r0                                   
                            ;************************************************************************************************
                            ;*                                           FUNCTION                                           *
                            ;************************************************************************************************
                            ;undefined LAB_0003d02c+1(undefined4 param_1, int param_2, int param_3, undefined4 param_4)
          ;param_1       undefined4          r0                      
          ;param_2       int                 r1                      
          ;param_3       int                 r2                      
          ;param_4       undefined4          r3                      
                                                          ;XREF[0,2]:   0003d2dc,0003d358
ram:0003d02c    70b5            push        {r4,r5,r6,lr}                           
ram:0003d02e    1400            movs        r4,param_3                              
ram:0003d030    1d00            movs        r5,param_4                              
ram:0003d032    0229            cmp         param_2,#0x2                            
ram:0003d034    09d0            beq         LAB_0003d04a                            
ram:0003d036    0429            cmp         param_2,#0x4                            
ram:0003d038    14d0            beq         LAB_0003d064                            
                            LAB_0003d03a:                 ;XREF[5,0]:   0003d050,0003d058,0003d062,0003d06a
                                                          ;             0003d07c
ram:0003d03a    002c            cmp         r4,#0x0                                 
ram:0003d03c    04d0            beq         LAB_0003d048                            
ram:0003d03e    0022            movs        param_3,#0x0                            
ram:0003d040    2000            movs        param_1,r4                              
ram:0003d042    1100            movs        param_2,param_3                         
ram:0003d044    fff7bcf8        bl          FUN_0003c1c0                            ;undefined FUN_0003c1c0(void)
                            LAB_0003d048:                 ;XREF[1,0]:   0003d03c
ram:0003d048    70bd            pop         {r4,r5,r6,pc}                           
                            LAB_0003d04a:                 ;XREF[1,0]:   0003d034
ram:0003d04a    0e4b            ldr         param_4,[DAT_0003d084]                  ;= 20002CD4h
ram:0003d04c    1b78            ldrb        param_4,[param_4,#0x0]=>DAT_20002cd4    
ram:0003d04e    052b            cmp         param_4,#0x5                            
ram:0003d050    f3d1            bne         LAB_0003d03a                            
ram:0003d052    0d4b            ldr         param_4,[DAT_0003d088]                  ;= 20002CCCh
ram:0003d054    1b68            ldr         param_4,[param_4,#0x0]=>DAT_20002ccc    
ram:0003d056    002b            cmp         param_4,#0x0                            
ram:0003d058    efd0            beq         LAB_0003d03a                            
ram:0003d05a    2a00            movs        param_3,r5                              
ram:0003d05c    2100            movs        param_2,r4                              
ram:0003d05e    0420            movs        param_1,#0x4                            
                            LAB_0003d060:                 ;XREF[1,0]:   0003d082
ram:0003d060    9847            blx         param_4                                 
ram:0003d062    eae7            b           LAB_0003d03a                            
                            LAB_0003d064:                 ;XREF[1,0]:   0003d038
ram:0003d064    074e            ldr         r6,[DAT_0003d084]                       ;= 20002CD4h
ram:0003d066    3378            ldrb        param_4,[r6,#0x0]=>DAT_20002cd4         
ram:0003d068    022b            cmp         param_4,#0x2                            
ram:0003d06a    e6d1            bne         LAB_0003d03a                            
ram:0003d06c    074b            ldr         param_4,[DAT_0003d08c]                  ;= 20002CDCh
ram:0003d06e    5b68            ldr         param_4,[param_4,#0x4]=>DAT_20002ce0    
ram:0003d070    9847            blx         param_4                                 
ram:0003d072    0320            movs        param_1,#0x3                            
ram:0003d074    044b            ldr         param_4,[DAT_0003d088]                  ;= 20002CCCh
ram:0003d076    3070            strb        param_1,[r6,#0x0]=>DAT_20002cd4         
ram:0003d078    1b68            ldr         param_4,[param_4,#0x0]=>DAT_20002ccc    
ram:0003d07a    002b            cmp         param_4,#0x0                            
ram:0003d07c    ddd0            beq         LAB_0003d03a                            
ram:0003d07e    2a00            movs        param_3,r5                              
ram:0003d080    2100            movs        param_2,r4                              
ram:0003d082    ede7            b           LAB_0003d060                            
                            DAT_0003d084:                 ;XREF[2,0]:   0003d04a,0003d064
ram:0003d084    d42c0020        undefined4  20002CD4h                               
                            DAT_0003d088:                 ;XREF[2,0]:   0003d052,0003d074
ram:0003d088    cc2c0020        undefined4  20002CCCh                               
                            DAT_0003d08c:                 ;XREF[1,0]:   0003d06c
ram:0003d08c    dc2c0020        undefined4  20002CDCh                               
                            ;************************************************************************************************
                            ;*                                           FUNCTION                                           *
                            ;************************************************************************************************
                            ;undefined LAB_0003d090+1(void)
          ;local_c       undefined4          -c                      ;XREF[1,0]:   0003d0a0
          ;local_10      undefined4         -10                      ;XREF[1,0]:   0003d0aa
          ;local_14      undefined4         -14                      ;XREF[1,0]:   0003d0a8
          ;local_18      undefined4         -18                      ;XREF[1,0]:   0003d0a6
          ;local_1c      undefined4         -1c                      ;XREF[2,0]:   0003d09e,0003d0a2
          ;local_28      undefined4         -28                      ;XREF[1,0]:   0003d0a4
                                                          ;XREF[0,2]:   0003d31e,0003d374
ram:0003d090    0122            movs        r2,#0x1                                 
ram:0003d092    00b5            push        {lr}                                    
ram:0003d094    074b            ldr         r3,[DAT_0003d0b4]                       ;= 20002CD5h
ram:0003d096    89b0            sub         sp,#0x24                                
ram:0003d098    1a70            strb        r2,[r3,#0x0]=>DAT_20002cd5              
ram:0003d09a    03ab            add         r3,sp,#0xc                              
ram:0003d09c    0432            adds        r2,#0x4                                 
ram:0003d09e    1a70            strb        r2,[r3,#0x0]=>local_1c                  
ram:0003d0a0    079a            ldr         r2,[sp,#local_c+0x28]                   
ram:0003d0a2    0398            ldr         r0,[sp,#local_1c+0x28]                  
ram:0003d0a4    0092            str         r2,[sp,#0x0]=>local_28                  
ram:0003d0a6    0499            ldr         r1,[sp,#local_18+0x28]                  
ram:0003d0a8    059a            ldr         r2,[sp,#local_14+0x28]                  
ram:0003d0aa    069b            ldr         r3,[sp,#local_10+0x28]                  
ram:0003d0ac    fff73afe        bl          FUN_0003cd24                            ;undefined FUN_0003cd24(uint param_1,...
ram:0003d0b0    09b0            add         sp,#0x24                                
ram:0003d0b2    00bd            pop         {pc}                                    
                            DAT_0003d0b4:                 ;XREF[1,0]:   0003d094
ram:0003d0b4    d52c0020        undefined4  20002CD5h                               
                            ;************************************************************************************************
                            ;*                                           FUNCTION                                           *
                            ;************************************************************************************************
                            ;undefined4 LAB_0003d0b8+1(void)
          ;local_c       undefined4          -c                      ;XREF[1,0]:   0003d0ca
          ;local_1c      undefined4         -1c                      ;XREF[2,1]:   0003d0c0,0003d0d4,0003d0c6
          ;local_28      undefined4         -28                      ;XREF[1,0]:   0003d0d2
                                                          ;XREF[0,1]:   0003d450
ram:0003d0b8    0323            movs        r3,#0x3                                 
ram:0003d0ba    00b5            push        {lr}                                    
ram:0003d0bc    89b0            sub         sp,#0x24                                
ram:0003d0be    03a8            add         r0,sp,#0xc                              
ram:0003d0c0    0370            strb        r3,[r0,#0x0]=>local_1c                  
ram:0003d0c2    074b            ldr         r3,[DAT_0003d0e0]                       ;= 20002CE8h
ram:0003d0c4    1b88            ldrh        r3,[r3,#0x0]=>DAT_20002ce8              
ram:0003d0c6    4380            strh        r3,[r0,#local_1c+0x1e]                  
ram:0003d0c8    064b            ldr         r3,[DAT_0003d0e4]                       ;= 20002D34h
ram:0003d0ca    0798            ldr         r0,[sp,#local_c+0x28]                   
ram:0003d0cc    5968            ldr         r1,[r3,#0x4]=>DAT_20002d38              
ram:0003d0ce    9a68            ldr         r2,[r3,#0x8]=>DAT_20002d3c              
ram:0003d0d0    db68            ldr         r3,[r3,#0xc]=>DAT_20002d40              
ram:0003d0d2    0090            str         r0,[sp,#0x0]=>local_28                  
ram:0003d0d4    0398            ldr         r0,[sp,#local_1c+0x28]                  
ram:0003d0d6    fff725fe        bl          FUN_0003cd24                            ;undefined FUN_0003cd24(uint param_1,...
ram:0003d0da    0020            movs        r0,#0x0                                 
ram:0003d0dc    09b0            add         sp,#0x24                                
ram:0003d0de    00bd            pop         {pc}                                    
                            DAT_0003d0e0:                 ;XREF[1,0]:   0003d0c2
ram:0003d0e0    e82c0020        undefined4  20002CE8h                               
                            DAT_0003d0e4:                 ;XREF[1,0]:   0003d0c8
ram:0003d0e4    342d0020        undefined4  20002D34h                               
                            ;************************************************************************************************
                            ;*                                           FUNCTION                                           *
                            ;************************************************************************************************
                            ;undefined4 LAB_0003d0e8+1(void)
          ;local_1c      undefined4         -1c                      ;XREF[2,1]:   0003d0f0,0003d0fe,0003d0f6
          ;local_28      undefined4         -28                      ;XREF[1,0]:   0003d100
                                                          ;XREF[0,1]:   0003d440
ram:0003d0e8    0122            movs        r2,#0x1                                 
ram:0003d0ea    00b5            push        {lr}                                    
ram:0003d0ec    89b0            sub         sp,#0x24                                
ram:0003d0ee    03ab            add         r3,sp,#0xc                              
ram:0003d0f0    1a70            strb        r2,[r3,#0x0]=>local_1c                  
ram:0003d0f2    084a            ldr         r2,[DAT_0003d114]                       ;= 20002CE8h
ram:0003d0f4    1288            ldrh        r2,[r2,#0x0]=>DAT_20002ce8              
ram:0003d0f6    5a80            strh        r2,[r3,#local_1c+0x1e]                  
ram:0003d0f8    c023            movs        r3,#0xc0                                
ram:0003d0fa    9b01            lsls        r3,r3,#0x6                              
ram:0003d0fc    9b68            ldr         r3,[r3,#offset DAT_00003008 &0xff]      
ram:0003d0fe    0398            ldr         r0,[sp,#local_1c+0x28]                  
ram:0003d100    0093            str         r3,[sp,#0x0]=>local_28                  
ram:0003d102    054b            ldr         r3,[DAT_0003d118]                       ;= 20002D34h
ram:0003d104    5968            ldr         r1,[r3,#0x4]=>DAT_20002d38              
ram:0003d106    9a68            ldr         r2,[r3,#0x8]=>DAT_20002d3c              
ram:0003d108    db68            ldr         r3,[r3,#0xc]=>DAT_20002d40              
ram:0003d10a    fff70bfe        bl          FUN_0003cd24                            ;undefined FUN_0003cd24(uint param_1,...
ram:0003d10e    0020            movs        r0,#0x0                                 
ram:0003d110    09b0            add         sp,#0x24                                
ram:0003d112    00bd            pop         {pc}                                    
                            DAT_0003d114:                 ;XREF[1,0]:   0003d0f2
ram:0003d114    e82c0020        undefined4  20002CE8h                               
                            DAT_0003d118:                 ;XREF[1,0]:   0003d102
ram:0003d118    342d0020        undefined4  20002D34h                               
                            ;************************************************************************************************
                            ;*                                           FUNCTION                                           *
                            ;************************************************************************************************
                            ;undefined FUN_0003d11c(void)
          ;local_18      undefined4         -18                      ;XREF[1,0]:   0003d138
          ;local_1c      undefined4         -1c                      ;XREF[2,0]:   0003d12e,0003d136
          ;local_28      undefined4         -28                      ;XREF[1,0]:   0003d134
                                                          ;XREF[0,1]:   0003d43c
ram:0003d11c    10b5            push        {r4,lr}                                 
ram:0003d11e    88b0            sub         sp,#0x20                                
ram:0003d120    03ac            add         r4,sp,#0xc                              
ram:0003d122    1422            movs        r2,#0x14                                
ram:0003d124    0021            movs        r1,#0x0                                 
ram:0003d126    2000            movs        r0,r4                                   
ram:0003d128    fff740f8        bl          FUN_0003c1ac                            ;undefined FUN_0003c1ac(undefined * p...
ram:0003d12c    0423            movs        r3,#0x4                                 
ram:0003d12e    2370            strb        r3,[r4,#0x0]=>local_1c                  
ram:0003d130    0023            movs        r3,#0x0                                 
ram:0003d132    0434            adds        r4,#0x4                                 
ram:0003d134    0093            str         r3,[sp,#0x0]=>local_28                  
ram:0003d136    0398            ldr         r0,[sp,#local_1c+0x28]                  
ram:0003d138    0ecc            ldmia       r4!=>local_18,{r1,r2,r3}                
ram:0003d13a    fff7f3fd        bl          FUN_0003cd24                            ;undefined FUN_0003cd24(uint param_1,...
ram:0003d13e    08b0            add         sp,#0x20                                
ram:0003d140    10bd            pop         {r4,pc}                                 
ram:0003d142    0000            movs        r0,r0                                   
                            ;************************************************************************************************
                            ;*                                           FUNCTION                                           *
                            ;************************************************************************************************
                            ;undefined LAB_0003d144+1(void)
                                                          ;XREF[0,1]:   0003d448
ram:0003d144    0222            movs        r2,#0x2                                 
ram:0003d146    0b4b            ldr         r3,[DAT_0003d174]                       ;= 20002D54h
ram:0003d148    0b48            ldr         r0=>DAT_20002d4c,[DAT_0003d178]         ;= 20002D4Ch
ram:0003d14a    10b5            push        {r4,lr}                                 
ram:0003d14c    1860            str         r0=>DAT_20002d4c,[r3,#0x0]=>DAT_20002d54
ram:0003d14e    0b4b            ldr         r3,[DAT_0003d17c]                       ;= 20002CD4h
ram:0003d150    ec21            movs        r1,#0xec                                
ram:0003d152    1a70            strb        r2,[r3,#0x0]=>DAT_20002cd4              
ram:0003d154    c023            movs        r3,#0xc0                                
ram:0003d156    9b01            lsls        r3,r3,#0x6                              
ram:0003d158    9b68            ldr         r3,[r3,#offset DAT_00003008 &0xff]      
ram:0003d15a    8902            lsls        r1,r1,#0xa                              
ram:0003d15c    c91a            subs        r1,r1,r3                                
ram:0003d15e    4908            lsrs        r1,r1,#0x1                              
ram:0003d160    01f0b3f9        bl          FUN_0003e4ca                            ;undefined FUN_0003e4ca(undefined4 * ...
ram:0003d164    0028            cmp         r0,#0x0                                 
ram:0003d166    03d0            beq         LAB_0003d170                            
ram:0003d168    0022            movs        r2,#0x0                                 
ram:0003d16a    1100            movs        r1,r2                                   
ram:0003d16c    fff728f8        bl          FUN_0003c1c0                            ;undefined FUN_0003c1c0(void)
                            LAB_0003d170:                 ;XREF[1,0]:   0003d166
ram:0003d170    10bd            pop         {r4,pc}                                 
ram:0003d172    c046            mov         r8,r8                                   
                            DAT_0003d174:                 ;XREF[1,0]:   0003d146
ram:0003d174    542d0020        undefined4  20002D54h                               
                            DAT_0003d178:                 ;XREF[1,0]:   0003d148
ram:0003d178    4c2d0020        undefined4  20002D4Ch                               
                            DAT_0003d17c:                 ;XREF[1,0]:   0003d14e
ram:0003d17c    d42c0020        undefined4  20002CD4h                               
                            ;************************************************************************************************
                            ;*                                           FUNCTION                                           *
                            ;************************************************************************************************
                            ;undefined FUN_0003d180(void)
                                                          ;XREF[1,1]:   0003d406,0003d438
ram:0003d180    0222            movs        r2,#0x2                                 
ram:0003d182    084b            ldr         r3,[DAT_0003d1a4]                       ;= 20002D54h
ram:0003d184    0848            ldr         r0,[DAT_0003d1a8]                       ;= 20002D44h
ram:0003d186    10b5            push        {r4,lr}                                 
ram:0003d188    1860            str         r0,[r3,#0x0]=>DAT_20002d54              
ram:0003d18a    084b            ldr         r3,[DAT_0003d1ac]                       ;= 20002CD4h
ram:0003d18c    1a70            strb        r2,[r3,#0x0]=>DAT_20002cd4              
ram:0003d18e    084b            ldr         r3=>DAT_20002cec,[DAT_0003d1b0]         ;= 20002CECh
ram:0003d190    1968            ldr         r1,[r3,#0x0]=>DAT_20002cec              
ram:0003d192    01f09af9        bl          FUN_0003e4ca                            ;undefined FUN_0003e4ca(undefined4 * ...
ram:0003d196    0028            cmp         r0,#0x0                                 
ram:0003d198    03d0            beq         LAB_0003d1a2                            
ram:0003d19a    0022            movs        r2,#0x0                                 
ram:0003d19c    1100            movs        r1,r2                                   
ram:0003d19e    fff70ff8        bl          FUN_0003c1c0                            ;undefined FUN_0003c1c0(void)
                            LAB_0003d1a2:                 ;XREF[1,0]:   0003d198
ram:0003d1a2    10bd            pop         {r4,pc}                                 
                            DAT_0003d1a4:                 ;XREF[1,0]:   0003d182
ram:0003d1a4    542d0020        undefined4  20002D54h                               
                            DAT_0003d1a8:                 ;XREF[1,0]:   0003d184
ram:0003d1a8    442d0020        undefined4  20002D44h                               
                            DAT_0003d1ac:                 ;XREF[1,0]:   0003d18a
ram:0003d1ac    d42c0020        undefined4  20002CD4h                               
                            DAT_0003d1b0:                 ;XREF[1,0]:   0003d18e
ram:0003d1b0    ec2c0020        undefined4  20002CECh                               
                            ;************************************************************************************************
                            ;*                                           FUNCTION                                           *
                            ;************************************************************************************************
                            ;int FUN_0003d1b4(void)
          ;local_14      undefined4         -14                      ;XREF[1,0]:   0003d1f0
          ;local_18      undefined4         -18                      ;XREF[1,0]:   0003d1fc
          ;local_1c      undefined4         -1c                      ;XREF[1,0]:   0003d202
          ;local_20      undefined4         -20                      ;XREF[1,0]:   0003d200
          ;local_24      undefined4         -24                      ;XREF[2,1]:   0003d1f4,0003d1fa,0003d1f6
          ;local_30      undefined4         -30                      ;XREF[1,0]:   0003d1fe
                                                          ;XREF[0,1]:   0003d454
ram:0003d1b4    70b5            push        {r4,r5,r6,lr}                           
ram:0003d1b6    164e            ldr         r6,[DAT_0003d210]                       ;= 20002D34h
ram:0003d1b8    164c            ldr         r4,[DAT_0003d214]                       ;= 20002D44h
ram:0003d1ba    88b0            sub         sp,#0x20                                
ram:0003d1bc    f168            ldr         r1,[r6,#0xc]=>DAT_20002d40              
ram:0003d1be    2000            movs        r0,r4                                   
ram:0003d1c0    01f083f9        bl          FUN_0003e4ca                            ;undefined FUN_0003e4ca(undefined4 * ...
ram:0003d1c4    0028            cmp         r0,#0x0                                 
ram:0003d1c6    03d0            beq         LAB_0003d1d0                            
ram:0003d1c8    0022            movs        r2,#0x0                                 
ram:0003d1ca    1100            movs        r1,r2                                   
ram:0003d1cc    fef7f8ff        bl          FUN_0003c1c0                            ;undefined FUN_0003c1c0(void)
                            LAB_0003d1d0:                 ;XREF[1,0]:   0003d1c6
ram:0003d1d0    1149            ldr         r1,[DAT_0003d218]                       ;= 20002D4Ch
ram:0003d1d2    0023            movs        r3,#0x0                                 
ram:0003d1d4    f268            ldr         r2,[r6,#0xc]=>DAT_20002d40              
ram:0003d1d6    4968            ldr         r1,[r1,#0x4]=>DAT_20002d50              
ram:0003d1d8    2000            movs        r0,r4                                   
ram:0003d1da    01f067f9        bl          FUN_0003e4ac                            ;undefined FUN_0003e4ac(undefined4 * ...
ram:0003d1de    051e            subs        r5,r0,#0x0                              
ram:0003d1e0    12d1            bne         LAB_0003d208                            
ram:0003d1e2    03ac            add         r4,sp,#0xc                              
ram:0003d1e4    0100            movs        r1,r0                                   
ram:0003d1e6    1422            movs        r2,#0x14                                
ram:0003d1e8    2000            movs        r0,r4                                   
ram:0003d1ea    fef7dfff        bl          FUN_0003c1ac                            ;undefined FUN_0003c1ac(undefined * p...
ram:0003d1ee    0b4b            ldr         r3,[DAT_0003d21c]                       ;= 20002CE8h
ram:0003d1f0    2269            ldr         r2,[r4,#local_14+0x24]                  
ram:0003d1f2    1b88            ldrh        r3,[r3,#0x0]=>DAT_20002ce8              
ram:0003d1f4    2570            strb        r5,[r4,#0x0]=>local_24                  
ram:0003d1f6    6380            strh        r3,[r4,#local_24+0x26]                  
ram:0003d1f8    f368            ldr         r3,[r6,#0xc]=>DAT_20002d40              
ram:0003d1fa    0398            ldr         r0,[sp,#local_24+0x30]                  
ram:0003d1fc    e360            str         r3,[r4,#local_18+0x24]                  
ram:0003d1fe    0092            str         r2,[sp,#0x0]=>local_30                  
ram:0003d200    6168            ldr         r1,[r4,#local_20+0x24]                  
ram:0003d202    a268            ldr         r2,[r4,#local_1c+0x24]                  
ram:0003d204    fff78efd        bl          FUN_0003cd24                            ;undefined FUN_0003cd24(uint param_1,...
                            LAB_0003d208:                 ;XREF[1,0]:   0003d1e0
ram:0003d208    2800            movs        r0,r5                                   
ram:0003d20a    08b0            add         sp,#0x20                                
ram:0003d20c    70bd            pop         {r4,r5,r6,pc}                           
ram:0003d20e    c046            mov         r8,r8                                   
                            DAT_0003d210:                 ;XREF[1,0]:   0003d1b6
ram:0003d210    342d0020        undefined4  20002D34h                               
                            DAT_0003d214:                 ;XREF[1,0]:   0003d1b8
ram:0003d214    442d0020        undefined4  20002D44h                               
                            DAT_0003d218:                 ;XREF[1,0]:   0003d1d0
ram:0003d218    4c2d0020        undefined4  20002D4Ch                               
                            DAT_0003d21c:                 ;XREF[1,0]:   0003d1ee
ram:0003d21c    e82c0020        undefined4  20002CE8h                               
                            ;************************************************************************************************
                            ;*                                           FUNCTION                                           *
                            ;************************************************************************************************
                            ;int FUN_0003d220(undefined4 param_1, uint param_2, undefined4 param_3)
          ;param_1       undefined4          r0                      
          ;param_2       uint                r1                      
          ;param_3       undefined4          r2                      
                                                          ;XREF[4,0]:   0003d3f8,0003d49a,0003d532,0003d592
ram:0003d220    70b5            push        {r4,r5,r6,lr}                           
ram:0003d222    0e4b            ldr         r3=>DAT_20002cd5,[DAT_0003d25c]         ;= 20002CD5h
ram:0003d224    0824            movs        r4,#0x8                                 
ram:0003d226    1d78            ldrb        r5,[r3,#0x0]=>DAT_20002cd5              
ram:0003d228    002d            cmp         r5,#0x0                                 
ram:0003d22a    15d1            bne         LAB_0003d258                            
ram:0003d22c    0c4c            ldr         r4,[DAT_0003d260]                       ;= 20002CD8h
ram:0003d22e    2068            ldr         param_1,[r4,#0x0]=>DAT_20002cd8         
ram:0003d230    fff7c0fc        bl          FUN_0003cbb4                            ;undefined8 FUN_0003cbb4(uint param_1...
ram:0003d234    0028            cmp         param_1,#0x0                            
ram:0003d236    03d0            beq         LAB_0003d240                            
ram:0003d238    2a00            movs        param_3,r5                              
ram:0003d23a    2900            movs        param_2,r5                              
ram:0003d23c    fef7c0ff        bl          FUN_0003c1c0                            ;undefined FUN_0003c1c0(void)
                            LAB_0003d240:                 ;XREF[1,0]:   0003d236
ram:0003d240    f021            movs        param_2,#0xf0                           
ram:0003d242    2068            ldr         param_1,[r4,#0x0]=>DAT_20002cd8         
ram:0003d244    0022            movs        param_3,#0x0                            
ram:0003d246    8903            lsls        param_2,param_2,#0xe                    
ram:0003d248    fff768fc        bl          FUN_0003cb1c                            ;undefined4 FUN_0003cb1c(uint param_1...
ram:0003d24c    041e            subs        r4,param_1,#0x0                         
ram:0003d24e    03d0            beq         LAB_0003d258                            
ram:0003d250    0022            movs        param_3,#0x0                            
ram:0003d252    1100            movs        param_2,param_3                         
ram:0003d254    fef7b4ff        bl          FUN_0003c1c0                            ;undefined FUN_0003c1c0(void)
                            LAB_0003d258:                 ;XREF[2,0]:   0003d22a,0003d24e
ram:0003d258    2000            movs        param_1,r4                              
ram:0003d25a    70bd            pop         {r4,r5,r6,pc}                           
                            DAT_0003d25c:                 ;XREF[1,0]:   0003d222
ram:0003d25c    d52c0020        undefined4  20002CD5h                               
                            DAT_0003d260:                 ;XREF[1,0]:   0003d22c
ram:0003d260    d82c0020        undefined4  20002CD8h                               
                            ;************************************************************************************************
                            ;*                                           FUNCTION                                           *
                            ;************************************************************************************************
                            ;undefined FUN_0003d264(int param_1, uint param_2, uint param_3, int param_4)
          ;param_1       int                 r0                      
          ;param_2       uint                r1                      
          ;param_3       uint                r2                      
          ;param_4       int                 r3                      
          ;local_1c      undefined4         -1c                      ;XREF[3,0]:   0003d27a,0003d296,0003d2aa
          ;local_20      undefined4         -20                      ;XREF[3,0]:   0003d278,0003d294,0003d2a8
          ;local_24      undefined4         -24                      ;XREF[3,0]:   0003d26e,0003d292,0003d2a6
          ;local_28      undefined4         -28                      ;XREF[3,0]:   0003d276,0003d290,0003d2a4
                                                          ;XREF[3,0]:   0003d2ba,0003d656,0003d76c
ram:0003d264    f0b5            push        {r4,r5,r6,r7,lr}                        
ram:0003d266    1f00            movs        r7,param_4                              
ram:0003d268    0323            movs        param_4,#0x3                            
ram:0003d26a    85b0            sub         sp,#0x14                                
ram:0003d26c    0600            movs        r6,param_1                              
ram:0003d26e    0190            str         param_1,[sp,#local_24+0x28]             
ram:0003d270    9408            lsrs        r4,param_3,#0x2                         
ram:0003d272    6846            mov         param_1,sp                              
ram:0003d274    0d00            movs        r5,param_2                              
ram:0003d276    0093            str         param_4,[sp,#0x0]=>local_28             
ram:0003d278    0291            str         param_2,[sp,#local_20+0x28]             
ram:0003d27a    0394            str         r4,[sp,#local_1c+0x28]                  
ram:0003d27c    fff7d2fe        bl          FUN_0003d024                            ;undefined FUN_0003d024(void)
ram:0003d280    0028            cmp         param_1,#0x0                            
ram:0003d282    1ed0            beq         LAB_0003d2c2                            
ram:0003d284    8023            movs        param_4,#0x80                           
ram:0003d286    5b01            lsls        param_4,param_4,#0x5                    
ram:0003d288    9d42            cmp         r5,param_4                              
ram:0003d28a    12d8            bhi         LAB_0003d2b2                            
                            LAB_0003d28c:                 ;XREF[1,0]:   0003d2c0
ram:0003d28c    0123            movs        param_4,#0x1                            
ram:0003d28e    6846            mov         param_1,sp                              
ram:0003d290    0093            str         param_4,[sp,#0x0]=>local_28             
ram:0003d292    0196            str         r6,[sp,#local_24+0x28]                  
ram:0003d294    0295            str         r5,[sp,#local_20+0x28]                  
ram:0003d296    0394            str         r4,[sp,#local_1c+0x28]                  
ram:0003d298    fff7c4fe        bl          FUN_0003d024                            ;undefined FUN_0003d024(void)
ram:0003d29c    0028            cmp         param_1,#0x0                            
ram:0003d29e    10d1            bne         LAB_0003d2c2                            
ram:0003d2a0    0323            movs        param_4,#0x3                            
ram:0003d2a2    6846            mov         param_1,sp                              
ram:0003d2a4    0093            str         param_4,[sp,#0x0]=>local_28             
ram:0003d2a6    0196            str         r6,[sp,#local_24+0x28]                  
ram:0003d2a8    0295            str         r5,[sp,#local_20+0x28]                  
ram:0003d2aa    0394            str         r4,[sp,#local_1c+0x28]                  
ram:0003d2ac    fff7bafe        bl          FUN_0003d024                            ;undefined FUN_0003d024(void)
ram:0003d2b0    07e0            b           LAB_0003d2c2                            
                            LAB_0003d2b2:                 ;XREF[1,0]:   0003d28a
ram:0003d2b2    e91b            subs        param_2,r5,r7                           
ram:0003d2b4    f01b            subs        param_1,r6,r7                           
ram:0003d2b6    3b00            movs        param_4,r7                              
ram:0003d2b8    3a00            movs        param_3,r7                              
ram:0003d2ba    fff7d3ff        bl          FUN_0003d264                            ;undefined FUN_0003d264(int param_1, ...
ram:0003d2be    0028            cmp         param_1,#0x0                            
ram:0003d2c0    e4d0            beq         LAB_0003d28c                            
                            LAB_0003d2c2:                 ;XREF[3,0]:   0003d282,0003d29e,0003d2b0
ram:0003d2c2    05b0            add         sp,#0x14                                
ram:0003d2c4    f0bd            pop         {r4,r5,r6,r7,pc}                        
ram:0003d2c6    0000            movs        r0,r0                                   
                            ;************************************************************************************************
                            ;*                                           FUNCTION                                           *
                            ;************************************************************************************************
                            ;int FUN_0003d2c8(void)
          ;local_24      undefined4         -24                      ;XREF[1,0]:   0003d2dc
                                                          ;XREF[1,0]:   0003ce6a
ram:0003d2c8    f0b5            push        {r4,r5,r6,r7,lr}                        
ram:0003d2ca    0027            movs        r7,#0x0                                 
ram:0003d2cc    85b0            sub         sp,#0x14                                
ram:0003d2ce    0c22            movs        r2,#0xc                                 
ram:0003d2d0    0021            movs        r1,#0x0                                 
ram:0003d2d2    01a8            add         r0,sp,#0x4                              
ram:0003d2d4    fef76aff        bl          FUN_0003c1ac                            ;undefined FUN_0003c1ac(undefined * p...
ram:0003d2d8    1f4b            ldr         r3,[PTR_LAB_0003d02c+1+1_0003d358]      ;= 0003d02d
ram:0003d2da    204e            ldr         r6,[DAT_0003d35c]                       ;= 20002D44h
ram:0003d2dc    0193            str         r3=>LAB_0003d02c+1+1,[sp,#local_24+0x28]
ram:0003d2de    204b            ldr         r3,[DAT_0003d360]                       ;= 20002D30h
ram:0003d2e0    3100            movs        r1=>DAT_20002d44,r6                     
ram:0003d2e2    1f70            strb        r7,[r3,#0x0]=>DAT_20002d30              
ram:0003d2e4    1f4b            ldr         r3=>DAT_20002ce8,[DAT_0003d364]         ;= 20002CE8h
ram:0003d2e6    01a8            add         r0,sp,#0x4                              
ram:0003d2e8    1f80            strh        r7,[r3,#0x0]=>DAT_20002ce8              
ram:0003d2ea    01f0cbf8        bl          FUN_0003e484                            ;undefined4 FUN_0003e484(undefined4 *...
ram:0003d2ee    1e4d            ldr         r5,[DAT_0003d368]                       ;= 20002CD4h
ram:0003d2f0    0400            movs        r4,r0                                   
ram:0003d2f2    b842            cmp         r0,r7                                   
ram:0003d2f4    03d0            beq         LAB_0003d2fe                            
ram:0003d2f6    2f70            strb        r7,[r5,#0x0]=>DAT_20002cd4              
                            LAB_0003d2f8:                 ;XREF[1,0]:   0003d354
ram:0003d2f8    2000            movs        r0,r4                                   
ram:0003d2fa    05b0            add         sp,#0x14                                
ram:0003d2fc    f0bd            pop         {r4,r5,r6,r7,pc}                        
                            LAB_0003d2fe:                 ;XREF[1,0]:   0003d2f4
ram:0003d2fe    c023            movs        r3,#0xc0                                
ram:0003d300    1a4a            ldr         r2,[DAT_0003d36c]                       ;= 20002D4Ch
ram:0003d302    9b01            lsls        r3,r3,#0x6                              
ram:0003d304    9968            ldr         r1,[r3,#offset DAT_00003008 &0xff]      
ram:0003d306    1300            movs        r3,r2                                   
ram:0003d308    7160            str         r1,[r6,#0x4]=>DAT_20002d48              
ram:0003d30a    81ce            ldmia       r6!=>DAT_20002d44,{r0,r7}=>DAT_20002d48 
ram:0003d30c    81c3            stmia       r3!=>DAT_20002d4c,{r0,r7}=>DAT_20002d50 
ram:0003d30e    ec23            movs        r3,#0xec                                
ram:0003d310    9b02            lsls        r3,r3,#0xa                              
ram:0003d312    5b1a            subs        r3,r3,r1                                
ram:0003d314    5b08            lsrs        r3,r3,#0x1                              
ram:0003d316    164e            ldr         r6,[DAT_0003d370]                       ;= 20002CD8h
ram:0003d318    5b18            adds        r3,r3,r1                                
ram:0003d31a    5360            str         r3,[r2,#0x4]=>DAT_20002d50              
ram:0003d31c    2100            movs        r1,r4                                   
ram:0003d31e    154a            ldr         r2=>LAB_0003d090...,[PTR_LAB_0003d090...;= 0003d091
ram:0003d320    3000            movs        r0=>DAT_20002cd8,r6                     
ram:0003d322    fff7d3fb        bl          FUN_0003cacc                            ;undefined FUN_0003cacc(int * param_1...
ram:0003d326    0028            cmp         r0,#0x0                                 
ram:0003d328    03d0            beq         LAB_0003d332                            
ram:0003d32a    2200            movs        r2,r4                                   
ram:0003d32c    2100            movs        r1,r4                                   
ram:0003d32e    fef747ff        bl          FUN_0003c1c0                            ;undefined FUN_0003c1c0(void)
                            LAB_0003d332:                 ;XREF[1,0]:   0003d328
ram:0003d332    f021            movs        r1,#0xf0                                
ram:0003d334    0022            movs        r2,#0x0                                 
ram:0003d336    8903            lsls        r1,r1,#0xe                              
ram:0003d338    3068            ldr         r0,[r6,#0x0]=>DAT_20002cd8              
ram:0003d33a    fff7effb        bl          FUN_0003cb1c                            ;undefined4 FUN_0003cb1c(uint param_1...
ram:0003d33e    0028            cmp         r0,#0x0                                 
ram:0003d340    03d0            beq         LAB_0003d34a                            
ram:0003d342    0022            movs        r2,#0x0                                 
ram:0003d344    1100            movs        r1,r2                                   
ram:0003d346    fef73bff        bl          FUN_0003c1c0                            ;undefined FUN_0003c1c0(void)
                            LAB_0003d34a:                 ;XREF[1,0]:   0003d340
ram:0003d34a    0022            movs        r2,#0x0                                 
ram:0003d34c    0a4b            ldr         r3,[DAT_0003d378]                       ;= 20002CD0h
ram:0003d34e    1a60            str         r2,[r3,#0x0]=>DAT_20002cd0              
ram:0003d350    0123            movs        r3,#0x1                                 
ram:0003d352    2b70            strb        r3,[r5,#0x0]=>DAT_20002cd4              
ram:0003d354    d0e7            b           LAB_0003d2f8                            
ram:0003d356    c046            mov         r8,r8                                   
                            PTR_LAB_0003d02c+1+1_0003d358:;XREF[1,0]:   0003d2d8
ram:0003d358    2dd00300        addr        LAB_0003d02c+1+1                        
                            DAT_0003d35c:                 ;XREF[1,0]:   0003d2da
ram:0003d35c    442d0020        undefined4  20002D44h                               
                            DAT_0003d360:                 ;XREF[1,0]:   0003d2de
ram:0003d360    302d0020        undefined4  20002D30h                               
                            DAT_0003d364:                 ;XREF[1,0]:   0003d2e4
ram:0003d364    e82c0020        undefined4  20002CE8h                               
                            DAT_0003d368:                 ;XREF[1,0]:   0003d2ee
ram:0003d368    d42c0020        undefined4  20002CD4h                               
                            DAT_0003d36c:                 ;XREF[1,0]:   0003d300
ram:0003d36c    4c2d0020        undefined4  20002D4Ch                               
                            DAT_0003d370:                 ;XREF[1,0]:   0003d316
ram:0003d370    d82c0020        undefined4  20002CD8h                               
                            PTR_LAB_0003d090+1+1_0003d374:;XREF[1,0]:   0003d31e
ram:0003d374    91d00300        addr        LAB_0003d090+1+1                        
                            DAT_0003d378:                 ;XREF[1,0]:   0003d34c
ram:0003d378    d02c0020        undefined4  20002CD0h                               
                            ;************************************************************************************************
                            ;*                                           FUNCTION                                           *
                            ;************************************************************************************************
                            ;undefined FUN_0003d37c(undefined4 param_1)
          ;param_1       undefined4          r0                      
                                                          ;XREF[1,0]:   0003dce0
ram:0003d37c    014b            ldr         r3,[DAT_0003d384]                       ;= 20002CCCh
ram:0003d37e    1860            str         param_1,[r3,#0x0]=>DAT_20002ccc         
ram:0003d380    7047            bx          lr                                      
ram:0003d382    c046            mov         r8,r8                                   
                            DAT_0003d384:                 ;XREF[1,0]:   0003d37c
ram:0003d384    cc2c0020        undefined4  20002CCCh                               
                            ;************************************************************************************************
                            ;*                                           FUNCTION                                           *
                            ;************************************************************************************************
                            ;int FUN_0003d388(int param_1)
          ;param_1       int                 r0                      
                                                          ;XREF[1,0]:   0003dfb4
ram:0003d388    284b            ldr         r3,[DAT_0003d42c]                       ;= 20002D34h
ram:0003d38a    70b5            push        {r4,r5,r6,lr}                           
ram:0003d38c    1900            movs        r1,r3                                   
ram:0003d38e    4268            ldr         r2,[param_1,#0x4]                       
ram:0003d390    31ca            ldmia       r2!,{param_1,r4,r5}                     
                                                          ; FWD[3,0]:   20002d34,20002d38,20002d3c
ram:0003d392    31c1            stmia       r1!=>DAT_20002d34,{param_1,r4,r5}=>DA...
ram:0003d394    1268            ldr         r2,[r2,#0x0]                            
ram:0003d396    0a60            str         r2,[r1,#0x0]=>DAT_20002d40              
ram:0003d398    1978            ldrb        r1,[r3,#0x0]=>DAT_20002d34              
ram:0003d39a    4a07            lsls        r2,r1,#0x1d                             
ram:0003d39c    02d5            bpl         LAB_0003d3a4                            
ram:0003d39e    0624            movs        r4,#0x6                                 
ram:0003d3a0    8a07            lsls        r2,r1,#0x1e                             
ram:0003d3a2    31d1            bne         LAB_0003d408                            
                            LAB_0003d3a4:                 ;XREF[1,0]:   0003d39c
ram:0003d3a4    0325            movs        r5,#0x3                                 
ram:0003d3a6    5a68            ldr         r2,[r3,#0x4]=>DAT_20002d38              
ram:0003d3a8    0624            movs        r4,#0x6                                 
ram:0003d3aa    2a42            tst         r2,r5                                   
ram:0003d3ac    2cd1            bne         LAB_0003d408                            
ram:0003d3ae    9868            ldr         param_1,[r3,#0x8]=>DAT_20002d3c         
ram:0003d3b0    2842            tst         param_1,r5                              
ram:0003d3b2    29d1            bne         LAB_0003d408                            
ram:0003d3b4    db68            ldr         r3,[r3,#0xc]=>DAT_20002d40              
ram:0003d3b6    2b42            tst         r3,r5                                   
ram:0003d3b8    26d1            bne         LAB_0003d408                            
ram:0003d3ba    1218            adds        r2,r2,param_1                           
ram:0003d3bc    d218            adds        r2,r2,r3                                
ram:0003d3be    f023            movs        r3,#0xf0                                
ram:0003d3c0    1b4d            ldr         r5,[DAT_0003d430]                       ;= 20002CECh
ram:0003d3c2    9b01            lsls        r3,r3,#0x6                              
ram:0003d3c4    2a60            str         r2,[r5,#0x0]=>DAT_20002cec              
ram:0003d3c6    2419            adds        r4,r4,r4                                
ram:0003d3c8    9842            cmp         param_1,r3                              
ram:0003d3ca    1dd8            bhi         LAB_0003d408                            
ram:0003d3cc    c020            movs        param_1,#0xc0                           
ram:0003d3ce    ec23            movs        r3,#0xec                                
ram:0003d3d0    8001            lsls        param_1,param_1,#0x6                    
ram:0003d3d2    9b02            lsls        r3,r3,#0xa                              
ram:0003d3d4    ce07            lsls        r6,r1,#0x1f                             
ram:0003d3d6    19d5            bpl         LAB_0003d40c                            
ram:0003d3d8    8168            ldr         r1,[param_1,#offset DAT_00003008 &0xff] 
ram:0003d3da    5b1a            subs        r3,r3,r1                                
ram:0003d3dc    9a42            cmp         r2,r3                                   
ram:0003d3de    13d8            bhi         LAB_0003d408                            
ram:0003d3e0    144b            ldr         r3,[DAT_0003d434]                       ;= 20002CDCh
ram:0003d3e2    154a            ldr         r2,[PTR_FUN_0003d180+1_0003d438]        ;= 0003d181
ram:0003d3e4    1a60            str         r2,[r3,#0x0]=>DAT_20002cdc              
ram:0003d3e6    154a            ldr         r2,[PTR_FUN_0003d11c+1_0003d43c]        ;= 0003d11d
ram:0003d3e8    5a60            str         r2,[r3,#0x4]=>DAT_20002ce0              
ram:0003d3ea    154a            ldr         r2,[PTR_LAB_0003d0e8+1+1_0003d440]      ;= 0003d0e9
                            LAB_0003d3ec:                 ;XREF[2,0]:   0003d426,0003d42a
ram:0003d3ec    9a60            str         r2,[r3,#0x8]=>DAT_20002ce4              
ram:0003d3ee    154b            ldr         r3,[DAT_0003d444]                       ;= 20002CD4h
ram:0003d3f0    0824            movs        r4,#0x8                                 
ram:0003d3f2    1b78            ldrb        r3,[r3,#0x0]=>DAT_20002cd4              
ram:0003d3f4    012b            cmp         r3,#0x1                                 
ram:0003d3f6    07d1            bne         LAB_0003d408                            
ram:0003d3f8    fff712ff        bl          FUN_0003d220                            ;int FUN_0003d220(undefined4 param_1,...
ram:0003d3fc    041e            subs        r4,param_1,#0x0                         
ram:0003d3fe    03d1            bne         LAB_0003d408                            
ram:0003d400    0c4b            ldr         r3,[DAT_0003d434]                       ;= 20002CDCh
ram:0003d402    2868            ldr         param_1,[r5,#0x0]=>DAT_20002cec         
ram:0003d404    1b68            ldr         r3,[r3,#0x0]=>DAT_20002cdc              
ram:0003d406    9847            blx         r3=>FUN_0003d180                        ;undefined FUN_0003d180(void)
                            LAB_0003d408:                 ;XREF[9,0]:   0003d3a2,0003d3ac,0003d3b2,0003d3b8
                                                          ;             0003d3ca,0003d3de,0003d3f6,0003d3fe
                                                          ;             0003d414
ram:0003d408    2000            movs        param_1,r4                              
ram:0003d40a    70bd            pop         {r4,r5,r6,pc}                           
                            LAB_0003d40c:                 ;XREF[1,0]:   0003d3d6
ram:0003d40c    8068            ldr         param_1,[param_1,#offset DAT_00003008...
ram:0003d40e    1b1a            subs        r3,r3,param_1                           
ram:0003d410    5b08            lsrs        r3,r3,#0x1                              
ram:0003d412    9a42            cmp         r2,r3                                   
ram:0003d414    f8d8            bhi         LAB_0003d408                            
ram:0003d416    074b            ldr         r3,[DAT_0003d434]                       ;= 20002CDCh
ram:0003d418    0b4a            ldr         r2,[PTR_LAB_0003d144+1+1_0003d448]      ;= 0003d145
ram:0003d41a    1a60            str         r2,[r3,#0x0]=>DAT_20002cdc              
ram:0003d41c    0b4a            ldr         r2,[PTR_LAB_0003d028+1+1_0003d44c]      ;= 0003d029
ram:0003d41e    5a60            str         r2,[r3,#0x4]=>DAT_20002ce0              
ram:0003d420    8a07            lsls        r2,r1,#0x1e                             
ram:0003d422    01d5            bpl         LAB_0003d428                            
ram:0003d424    0a4a            ldr         r2,[PTR_LAB_0003d0b8+1+1_0003d450]      ;= 0003d0b9
ram:0003d426    e1e7            b           LAB_0003d3ec                            
                            LAB_0003d428:                 ;XREF[1,0]:   0003d422
ram:0003d428    0a4a            ldr         r2,[PTR_FUN_0003d1b4+1_0003d454]        ;= 0003d1b5
ram:0003d42a    dfe7            b           LAB_0003d3ec                            
                            DAT_0003d42c:                 ;XREF[1,0]:   0003d388
ram:0003d42c    342d0020        undefined4  20002D34h                               
                            DAT_0003d430:                 ;XREF[1,0]:   0003d3c0
ram:0003d430    ec2c0020        undefined4  20002CECh                               
                            DAT_0003d434:                 ;XREF[3,0]:   0003d3e0,0003d400,0003d416
ram:0003d434    dc2c0020        undefined4  20002CDCh                               
                            PTR_FUN_0003d180+1_0003d438:  ;XREF[1,0]:   0003d3e2
ram:0003d438    81d10300        addr        FUN_0003d180+1                          
                            PTR_FUN_0003d11c+1_0003d43c:  ;XREF[1,0]:   0003d3e6
ram:0003d43c    1dd10300        addr        FUN_0003d11c+1                          
                            PTR_LAB_0003d0e8+1+1_0003d440:;XREF[1,0]:   0003d3ea
ram:0003d440    e9d00300        addr        LAB_0003d0e8+1+1                        
                            DAT_0003d444:                 ;XREF[1,0]:   0003d3ee
ram:0003d444    d42c0020        undefined4  20002CD4h                               
                            PTR_LAB_0003d144+1+1_0003d448:;XREF[1,0]:   0003d418
ram:0003d448    45d10300        addr        LAB_0003d144+1+1                        
                            PTR_LAB_0003d028+1+1_0003d44c:;XREF[1,0]:   0003d41c
ram:0003d44c    29d00300        addr        LAB_0003d028+1+1                        
                            PTR_LAB_0003d0b8+1+1_0003d450:;XREF[1,0]:   0003d424
ram:0003d450    b9d00300        addr        LAB_0003d0b8+1+1                        
                            PTR_FUN_0003d1b4+1_0003d454:  ;XREF[1,0]:   0003d428
ram:0003d454    b5d10300        addr        FUN_0003d1b4+1                          
                            ;************************************************************************************************
                            ;*                                           FUNCTION                                           *
                            ;************************************************************************************************
                            ;int FUN_0003d458(int param_1, uint param_2)
          ;param_1       int                 r0                      
          ;param_2       uint                r1                      
                                                          ;XREF[1,0]:   0003e058
ram:0003d458    f8b5            push        {r3,r4,r5,r6,r7,lr}                     
ram:0003d45a    0600            movs        r6,param_1                              
ram:0003d45c    0e20            movs        param_1,#0xe                            
ram:0003d45e    002e            cmp         r6,#0x0                                 
ram:0003d460    1ad0            beq         LAB_0003d498                            
ram:0003d462    b368            ldr         r3,[r6,#0x8]                            
ram:0003d464    0230            adds        param_1,#0x2                            
ram:0003d466    9b07            lsls        r3,r3,#0x1e                             
ram:0003d468    16d1            bne         LAB_0003d498                            
ram:0003d46a    164b            ldr         r3,[DAT_0003d4c4]                       ;= 20002CD4h
ram:0003d46c    1a78            ldrb        r2,[r3,#0x0]=>DAT_20002cd4              
ram:0003d46e    032a            cmp         r2,#0x3                                 
ram:0003d470    03d0            beq         LAB_0003d47a                            
ram:0003d472    052a            cmp         r2,#0x5                                 
ram:0003d474    03d0            beq         LAB_0003d47e                            
ram:0003d476    0820            movs        param_1,#0x8                            
ram:0003d478    0ee0            b           LAB_0003d498                            
                            LAB_0003d47a:                 ;XREF[1,0]:   0003d470
ram:0003d47a    0522            movs        r2,#0x5                                 
ram:0003d47c    1a70            strb        r2,[r3,#0x0]=>DAT_20002cd4              
                            LAB_0003d47e:                 ;XREF[1,0]:   0003d474
ram:0003d47e    7368            ldr         r3,[r6,#0x4]                            
ram:0003d480    114d            ldr         r5,[DAT_0003d4c8]                       ;= 20002CD0h
ram:0003d482    124f            ldr         r7,[DAT_0003d4cc]                       ;= 20002CECh
ram:0003d484    9c00            lsls        r4,r3,#0x2                              
ram:0003d486    2b68            ldr         r3,[r5,#0x0]=>DAT_20002cd0              
ram:0003d488    3a68            ldr         r2,[r7,#0x0]=>DAT_20002cec              
ram:0003d48a    e318            adds        r3,r4,r3                                
ram:0003d48c    9342            cmp         r3,r2                                   
ram:0003d48e    04d9            bls         LAB_0003d49a                            
ram:0003d490    0123            movs        r3,#0x1                                 
ram:0003d492    0c20            movs        param_1,#0xc                            
ram:0003d494    5b42            rsbs        r3,r3                                   
ram:0003d496    2b60            str         r3,[r5,#0x0]=>DAT_20002cd0              
                            LAB_0003d498:                 ;XREF[7,0]:   0003d460,0003d468,0003d478,0003d4a0
                                                          ;             0003d4b2,0003d4be,0003d4c2
ram:0003d498    f8bd            pop         {r3,r4,r5,r6,r7,pc}                     
                            LAB_0003d49a:                 ;XREF[1,0]:   0003d48e
ram:0003d49a    fff7c1fe        bl          FUN_0003d220                            ;int FUN_0003d220(undefined4 param_1,...
ram:0003d49e    0028            cmp         param_1,#0x0                            
ram:0003d4a0    fad1            bne         LAB_0003d498                            
ram:0003d4a2    0b48            ldr         param_1,[DAT_0003d4d0]                  ;= 20002D54h
ram:0003d4a4    2b68            ldr         r3,[r5,#0x0]=>DAT_20002cd0              
ram:0003d4a6    2200            movs        r2,r4                                   
ram:0003d4a8    b168            ldr         param_2,[r6,#0x8]                       
ram:0003d4aa    0068            ldr         param_1,[param_1,#0x0]=>DAT_20002d54    
ram:0003d4ac    00f0feff        bl          FUN_0003e4ac                            ;undefined FUN_0003e4ac(undefined4 * ...
ram:0003d4b0    0028            cmp         param_1,#0x0                            
ram:0003d4b2    f1d1            bne         LAB_0003d498                            
ram:0003d4b4    2b68            ldr         r3,[r5,#0x0]=>DAT_20002cd0              
ram:0003d4b6    e418            adds        r4,r4,r3                                
ram:0003d4b8    3b68            ldr         r3,[r7,#0x0]=>DAT_20002cec              
ram:0003d4ba    2c60            str         r4,[r5,#0x0]=>DAT_20002cd0              
ram:0003d4bc    9c42            cmp         r4,r3                                   
ram:0003d4be    ebd0            beq         LAB_0003d498                            
ram:0003d4c0    0920            movs        param_1,#0x9                            
ram:0003d4c2    e9e7            b           LAB_0003d498                            
                            DAT_0003d4c4:                 ;XREF[1,0]:   0003d46a
ram:0003d4c4    d42c0020        undefined4  20002CD4h                               
                            DAT_0003d4c8:                 ;XREF[1,0]:   0003d480
ram:0003d4c8    d02c0020        undefined4  20002CD0h                               
                            DAT_0003d4cc:                 ;XREF[1,0]:   0003d482
ram:0003d4cc    ec2c0020        undefined4  20002CECh                               
                            DAT_0003d4d0:                 ;XREF[1,0]:   0003d4a2
ram:0003d4d0    542d0020        undefined4  20002D54h                               
                            ;************************************************************************************************
                            ;*                                           FUNCTION                                           *
                            ;************************************************************************************************
                            ;int FUN_0003d4d4(void)
                                                          ;XREF[1,0]:   0003df48
ram:0003d4d4    70b5            push        {r4,r5,r6,lr}                           
ram:0003d4d6    0a4b            ldr         r3,[DAT_0003d500]                       ;= 20002CD0h
ram:0003d4d8    0820            movs        r0,#0x8                                 
ram:0003d4da    1d68            ldr         r5,[r3,#0x0]=>DAT_20002cd0              
ram:0003d4dc    002d            cmp         r5,#0x0                                 
ram:0003d4de    0cd1            bne         LAB_0003d4fa                            
ram:0003d4e0    084e            ldr         r6,[DAT_0003d504]                       ;= 20002CD4h
ram:0003d4e2    3378            ldrb        r3,[r6,#0x0]=>DAT_20002cd4              
ram:0003d4e4    042b            cmp         r3,#0x4                                 
ram:0003d4e6    08d1            bne         LAB_0003d4fa                            
ram:0003d4e8    074c            ldr         r4,[DAT_0003d508]                       ;= 20002D30h
ram:0003d4ea    0848            ldr         r0,[DAT_0003d50c]                       ;= 20002CF0h
ram:0003d4ec    2178            ldrb        r1,[r4,#0x0]=>DAT_20002d30              
ram:0003d4ee    00f051f9        bl          FUN_0003d794                            ;undefined4 FUN_0003d794(ushort * par...
ram:0003d4f2    0028            cmp         r0,#0x0                                 
ram:0003d4f4    02d1            bne         LAB_0003d4fc                            
ram:0003d4f6    0523            movs        r3,#0x5                                 
ram:0003d4f8    3370            strb        r3,[r6,#0x0]=>DAT_20002cd4              
                            LAB_0003d4fa:                 ;XREF[3,0]:   0003d4de,0003d4e6,0003d4fe
ram:0003d4fa    70bd            pop         {r4,r5,r6,pc}                           
                            LAB_0003d4fc:                 ;XREF[1,0]:   0003d4f4
ram:0003d4fc    2570            strb        r5,[r4,#0x0]=>DAT_20002d30              
ram:0003d4fe    fce7            b           LAB_0003d4fa                            
                            DAT_0003d500:                 ;XREF[1,0]:   0003d4d6
ram:0003d500    d02c0020        undefined4  20002CD0h                               
                            DAT_0003d504:                 ;XREF[1,0]:   0003d4e0
ram:0003d504    d42c0020        undefined4  20002CD4h                               
                            DAT_0003d508:                 ;XREF[1,0]:   0003d4e8
ram:0003d508    302d0020        undefined4  20002D30h                               
                            DAT_0003d50c:                 ;XREF[1,0]:   0003d4ea
ram:0003d50c    f02c0020        undefined4  20002CF0h                               
                            ;************************************************************************************************
                            ;*                                           FUNCTION                                           *
                            ;************************************************************************************************
                            ;int FUN_0003d510(int param_1, uint param_2)
          ;param_1       int                 r0                      
          ;param_2       uint                r1                      
                                                          ;XREF[1,0]:   0003dff4
ram:0003d510    f8b5            push        {r3,r4,r5,r6,r7,lr}                     
ram:0003d512    144b            ldr         r3,[DAT_0003d564]                       ;= 20002CD4h
ram:0003d514    0700            movs        r7,param_1                              
ram:0003d516    1a78            ldrb        r2,[r3,#0x0]=>DAT_20002cd4              
ram:0003d518    032a            cmp         r2,#0x3                                 
ram:0003d51a    03d0            beq         LAB_0003d524                            
ram:0003d51c    042a            cmp         r2,#0x4                                 
ram:0003d51e    03d0            beq         LAB_0003d528                            
ram:0003d520    0824            movs        r4,#0x8                                 
ram:0003d522    1ae0            b           LAB_0003d55a                            
                            LAB_0003d524:                 ;XREF[1,0]:   0003d51a
ram:0003d524    0422            movs        r2,#0x4                                 
ram:0003d526    1a70            strb        r2,[r3,#0x0]=>DAT_20002cd4              
                            LAB_0003d528:                 ;XREF[1,0]:   0003d51e
ram:0003d528    0f4b            ldr         r3,[DAT_0003d568]                       ;= 20002CD0h
ram:0003d52a    0824            movs        r4,#0x8                                 
ram:0003d52c    1b68            ldr         r3,[r3,#0x0]=>DAT_20002cd0              
ram:0003d52e    002b            cmp         r3,#0x0                                 
ram:0003d530    13d1            bne         LAB_0003d55a                            
ram:0003d532    fff775fe        bl          FUN_0003d220                            ;int FUN_0003d220(undefined4 param_1,...
ram:0003d536    041e            subs        r4,param_1,#0x0                         
ram:0003d538    0fd1            bne         LAB_0003d55a                            
ram:0003d53a    7b68            ldr         r3,[r7,#0x4]                            
ram:0003d53c    0b4e            ldr         r6,[DAT_0003d56c]                       ;= 20002D30h
ram:0003d53e    9d00            lsls        r5,r3,#0x2                              
ram:0003d540    3378            ldrb        r3,[r6,#0x0]=>DAT_20002d30              
ram:0003d542    ea18            adds        r2,r5,r3                                
ram:0003d544    402a            cmp         r2,#0x40                                
ram:0003d546    0ad8            bhi         LAB_0003d55e                            
ram:0003d548    0948            ldr         param_1,[DAT_0003d570]                  ;= 20002CF0h
ram:0003d54a    2a00            movs        r2,r5                                   
ram:0003d54c    c018            adds        param_1,param_1,r3                      
ram:0003d54e    b968            ldr         param_2,[r7,#0x8]                       
ram:0003d550    02f0a7f8        bl          FUN_0003f6a2                            ;undefined FUN_0003f6a2(int param_1, ...
ram:0003d554    3378            ldrb        r3,[r6,#0x0]=>DAT_20002d30              
ram:0003d556    5d19            adds        r5,r3,r5                                
ram:0003d558    3570            strb        r5,[r6,#0x0]=>DAT_20002d30              
                            LAB_0003d55a:                 ;XREF[4,0]:   0003d522,0003d530,0003d538,0003d560
ram:0003d55a    2000            movs        param_1,r4                              
ram:0003d55c    f8bd            pop         {r3,r4,r5,r6,r7,pc}                     
                            LAB_0003d55e:                 ;XREF[1,0]:   0003d546
ram:0003d55e    0924            movs        r4,#0x9                                 
ram:0003d560    fbe7            b           LAB_0003d55a                            
ram:0003d562    c046            mov         r8,r8                                   
                            DAT_0003d564:                 ;XREF[1,0]:   0003d512
ram:0003d564    d42c0020        undefined4  20002CD4h                               
                            DAT_0003d568:                 ;XREF[1,0]:   0003d528
ram:0003d568    d02c0020        undefined4  20002CD0h                               
                            DAT_0003d56c:                 ;XREF[1,0]:   0003d53c
ram:0003d56c    302d0020        undefined4  20002D30h                               
                            DAT_0003d570:                 ;XREF[1,0]:   0003d548
ram:0003d570    f02c0020        undefined4  20002CF0h                               
                            ;************************************************************************************************
                            ;*                                           FUNCTION                                           *
                            ;************************************************************************************************
                            ;int FUN_0003d574(undefined4 param_1, uint param_2)
          ;param_1       undefined4          r0                      
          ;param_2       uint                r1                      
                                                          ;XREF[1,0]:   0003ded6
ram:0003d574    70b5            push        {r4,r5,r6,lr}                           
ram:0003d576    0e4c            ldr         r4,[DAT_0003d5b0]                       ;= 20002CD4h
ram:0003d578    0820            movs        param_1,#0x8                            
ram:0003d57a    2378            ldrb        r3,[r4,#0x0]=>DAT_20002cd4              
ram:0003d57c    052b            cmp         r3,#0x5                                 
ram:0003d57e    16d1            bne         LAB_0003d5ae                            
ram:0003d580    0c4d            ldr         r5,[DAT_0003d5b4]                       ;= 20002CECh
ram:0003d582    0d4b            ldr         r3,[DAT_0003d5b8]                       ;= 20002CD0h
ram:0003d584    2a68            ldr         r2,[r5,#0x0]=>DAT_20002cec              
ram:0003d586    1b68            ldr         r3,[r3,#0x0]=>DAT_20002cd0              
ram:0003d588    0820            movs        param_1,#0x8                            
ram:0003d58a    9342            cmp         r3,r2                                   
ram:0003d58c    0fd1            bne         LAB_0003d5ae                            
ram:0003d58e    0623            movs        r3,#0x6                                 
ram:0003d590    2370            strb        r3,[r4,#0x0]=>DAT_20002cd4              
ram:0003d592    fff745fe        bl          FUN_0003d220                            ;int FUN_0003d220(undefined4 param_1,...
ram:0003d596    0028            cmp         param_1,#0x0                            
ram:0003d598    09d1            bne         LAB_0003d5ae                            
ram:0003d59a    084b            ldr         r3,[DAT_0003d5bc]                       ;= 20002D54h
ram:0003d59c    2968            ldr         param_2,[r5,#0x0]=>DAT_20002cec         
ram:0003d59e    1b68            ldr         r3,[r3,#0x0]=>DAT_20002d54              
ram:0003d5a0    5868            ldr         param_1,[r3,#0x4]                       
ram:0003d5a2    00f037f9        bl          FUN_0003d814                            ;undefined4 FUN_0003d814(byte * param...
ram:0003d5a6    0028            cmp         param_1,#0x0                            
ram:0003d5a8    01d1            bne         LAB_0003d5ae                            
ram:0003d5aa    0723            movs        r3,#0x7                                 
ram:0003d5ac    2370            strb        r3,[r4,#0x0]=>DAT_20002cd4              
                            LAB_0003d5ae:                 ;XREF[4,0]:   0003d57e,0003d58c,0003d598,0003d5a8
ram:0003d5ae    70bd            pop         {r4,r5,r6,pc}                           
                            DAT_0003d5b0:                 ;XREF[1,0]:   0003d576
ram:0003d5b0    d42c0020        undefined4  20002CD4h                               
                            DAT_0003d5b4:                 ;XREF[1,0]:   0003d580
ram:0003d5b4    ec2c0020        undefined4  20002CECh                               
                            DAT_0003d5b8:                 ;XREF[1,0]:   0003d582
ram:0003d5b8    d02c0020        undefined4  20002CD0h                               
                            DAT_0003d5bc:                 ;XREF[1,0]:   0003d59a
ram:0003d5bc    542d0020        undefined4  20002D54h                               
                            ;************************************************************************************************
                            ;*                                           FUNCTION                                           *
                            ;************************************************************************************************
                            ;undefined4 FUN_0003d5c0(undefined4 param_1, uint param_2, undefined4 param_3)
          ;param_1       undefined4          r0                      
          ;param_2       uint                r1                      
          ;param_3       undefined4          r2                      
                                                          ;XREF[1,0]:   0003df08
ram:0003d5c0    10b5            push        {r4,lr}                                 
ram:0003d5c2    094b            ldr         r3,[DAT_0003d5e8]                       ;= 20002CD4h
ram:0003d5c4    0820            movs        param_1,#0x8                            
ram:0003d5c6    1b78            ldrb        r3,[r3,#0x0]=>DAT_20002cd4              
ram:0003d5c8    072b            cmp         r3,#0x7                                 
ram:0003d5ca    0cd1            bne         LAB_0003d5e6                            
ram:0003d5cc    074b            ldr         r3=>DAT_20002cd8,[DAT_0003d5ec]         ;= 20002CD8h
ram:0003d5ce    1868            ldr         param_1,[r3,#0x0]=>DAT_20002cd8         
ram:0003d5d0    fff7f0fa        bl          FUN_0003cbb4                            ;undefined8 FUN_0003cbb4(uint param_1...
ram:0003d5d4    0028            cmp         param_1,#0x0                            
ram:0003d5d6    03d0            beq         LAB_0003d5e0                            
ram:0003d5d8    0022            movs        param_3,#0x0                            
ram:0003d5da    1100            movs        param_2,param_3                         
ram:0003d5dc    fef7f0fd        bl          FUN_0003c1c0                            ;undefined FUN_0003c1c0(void)
                            LAB_0003d5e0:                 ;XREF[1,0]:   0003d5d6
ram:0003d5e0    034b            ldr         r3,[DAT_0003d5f0]                       ;= 20002CDCh
ram:0003d5e2    9b68            ldr         r3,[r3,#0x8]=>DAT_20002ce4              
ram:0003d5e4    9847            blx         r3                                      
                            LAB_0003d5e6:                 ;XREF[1,0]:   0003d5ca
ram:0003d5e6    10bd            pop         {r4,pc}                                 
                            DAT_0003d5e8:                 ;XREF[1,0]:   0003d5c2
ram:0003d5e8    d42c0020        undefined4  20002CD4h                               
                            DAT_0003d5ec:                 ;XREF[1,0]:   0003d5cc
ram:0003d5ec    d82c0020        undefined4  20002CD8h                               
                            DAT_0003d5f0:                 ;XREF[1,0]:   0003d5e0
ram:0003d5f0    dc2c0020        undefined4  20002CDCh                               
                            ;************************************************************************************************
                            ;*                                           FUNCTION                                           *
                            ;************************************************************************************************
                            ;undefined FUN_0003d5f4(void)
          ;local_c       undefined4          -c                      ;XREF[1,0]:   0003d5fe
          ;local_10      undefined4         -10                      ;XREF[1,0]:   0003d608
          ;local_14      undefined4         -14                      ;XREF[1,0]:   0003d606
          ;local_18      undefined4         -18                      ;XREF[1,0]:   0003d604
          ;local_1c      undefined4         -1c                      ;XREF[2,0]:   0003d5fc,0003d600
          ;local_28      undefined4         -28                      ;XREF[1,0]:   0003d602
                                                          ;XREF[1,0]:   0003df10
ram:0003d5f4    0622            movs        r2,#0x6                                 
ram:0003d5f6    00b5            push        {lr}                                    
ram:0003d5f8    89b0            sub         sp,#0x24                                
ram:0003d5fa    03ab            add         r3,sp,#0xc                              
ram:0003d5fc    1a70            strb        r2,[r3,#0x0]=>local_1c                  
ram:0003d5fe    079a            ldr         r2,[sp,#local_c+0x28]                   
ram:0003d600    0398            ldr         r0,[sp,#local_1c+0x28]                  
ram:0003d602    0092            str         r2,[sp,#0x0]=>local_28                  
ram:0003d604    0499            ldr         r1,[sp,#local_18+0x28]                  
ram:0003d606    059a            ldr         r2,[sp,#local_14+0x28]                  
ram:0003d608    069b            ldr         r3,[sp,#local_10+0x28]                  
ram:0003d60a    fff78bfb        bl          FUN_0003cd24                            ;undefined FUN_0003cd24(uint param_1,...
ram:0003d60e    09b0            add         sp,#0x24                                
ram:0003d610    00bd            pop         {pc}                                    
ram:0003d612    0000            movs        r0,r0                                   
                            ;************************************************************************************************
                            ;*                                           FUNCTION                                           *
                            ;************************************************************************************************
                            ;undefined FUN_0003d614(undefined4 param_1, undefined * param_2)
          ;param_1       undefined4          r0                      
          ;param_2       undefined *         r1                      
          ;local_1c      undefined4         -1c                      ;XREF[1,0]:   0003d628
          ;local_28      undefined4         -28                      ;XREF[1,0]:   0003d620
          ;local_38      undefined4         -38                      ;XREF[3,0]:   0003d66e,0003d684,0003d6a0
          ;local_3c      undefined4         -3c                      ;XREF[3,0]:   0003d66c,0003d682,0003d69e
          ;local_40      undefined4         -40                      ;XREF[3,0]:   0003d66a,0003d680,0003d69c
          ;local_44      undefined4         -44                      ;XREF[3,0]:   0003d668,0003d67e,0003d692
          ;local_4c      undefined4         -4c                      ;XREF[2,0]:   0003d636,0003d646
                                                          ;XREF[1,0]:   0003cf02
ram:0003d614    f0b5            push        {r4,r5,r6,r7,lr}                        
ram:0003d616    8fb0            sub         sp,#0x3c                                
ram:0003d618    07a8            add         param_1,sp,#0x1c                        
ram:0003d61a    fff7a7fc        bl          FUN_0003cf6c                            ;undefined8 FUN_0003cf6c(undefined * ...
ram:0003d61e    0020            movs        param_1,#0x0                            
ram:0003d620    0a9c            ldr         r4,[sp,#local_28+0x50]                  
ram:0003d622    8442            cmp         r4,param_1                              
ram:0003d624    19d0            beq         LAB_0003d65a                            
ram:0003d626    8023            movs        r3,#0x80                                
ram:0003d628    0d9d            ldr         r5,[sp,#local_1c+0x50]                  
ram:0003d62a    5b01            lsls        r3,r3,#0x5                              
ram:0003d62c    e318            adds        r3,r4,r3                                
ram:0003d62e    ab42            cmp         r3,r5                                   
ram:0003d630    2ed9            bls         LAB_0003d690                            
ram:0003d632    1d4b            ldr         r3,[DAT_0003d6a8]                       ;= FFFFF000h
ram:0003d634    eb18            adds        r3,r5,r3                                
ram:0003d636    0193            str         r3,[sp,#local_4c+0x50]                  
ram:0003d638    5f08            lsrs        r7,r3,#0x1                              
ram:0003d63a    c023            movs        r3,#0xc0                                
ram:0003d63c    9b01            lsls        r3,r3,#0x6                              
ram:0003d63e    9b68            ldr         r3,[r3,#offset DAT_00003008 &0xff]      
ram:0003d640    9c42            cmp         r4,r3                                   
ram:0003d642    0cd8            bhi         LAB_0003d65e                            
                            LAB_0003d644:                 ;XREF[1,0]:   0003d68e
ram:0003d644    0123            movs        r3,#0x1                                 
ram:0003d646    0199            ldr         param_2,[sp,#local_4c+0x50]             
ram:0003d648    9943            bics        param_2,r3                              
ram:0003d64a    8023            movs        r3,#0x80                                
ram:0003d64c    5b01            lsls        r3,r3,#0x5                              
ram:0003d64e    6818            adds        param_1,r5,param_2                      
ram:0003d650    621a            subs        r2,r4,param_2                           
ram:0003d652    c918            adds        param_2,param_2,r3                      
ram:0003d654    3b00            movs        r3,r7                                   
ram:0003d656    fff705fe        bl          FUN_0003d264                            ;undefined FUN_0003d264(int param_1, ...
                            LAB_0003d65a:                 ;XREF[4,0]:   0003d624,0003d676,0003d68c,0003d6a6
ram:0003d65a    0fb0            add         sp,#0x3c                                
ram:0003d65c    f0bd            pop         {r4,r5,r6,r7,pc}                        
                            LAB_0003d65e:                 ;XREF[1,0]:   0003d642
ram:0003d65e    8023            movs        r3,#0x80                                
ram:0003d660    0126            movs        r6,#0x1                                 
ram:0003d662    5b01            lsls        r3,r3,#0x5                              
ram:0003d664    fb18            adds        r3,r7,r3                                
ram:0003d666    03a8            add         param_1,sp,#0xc                         
ram:0003d668    0396            str         r6,[sp,#local_44+0x50]                  
ram:0003d66a    0493            str         r3,[sp,#local_40+0x50]                  
ram:0003d66c    0593            str         r3,[sp,#local_3c+0x50]                  
ram:0003d66e    0696            str         r6,[sp,#local_38+0x50]                  
ram:0003d670    fff7d8fc        bl          FUN_0003d024                            ;undefined FUN_0003d024(void)
ram:0003d674    0028            cmp         param_1,#0x0                            
ram:0003d676    f0d1            bne         LAB_0003d65a                            
ram:0003d678    8023            movs        r3,#0x80                                
ram:0003d67a    03a8            add         param_1,sp,#0xc                         
ram:0003d67c    5b01            lsls        r3,r3,#0x5                              
ram:0003d67e    0396            str         r6,[sp,#local_44+0x50]                  
ram:0003d680    0493            str         r3,[sp,#local_40+0x50]                  
ram:0003d682    0593            str         r3,[sp,#local_3c+0x50]                  
ram:0003d684    0696            str         r6,[sp,#local_38+0x50]                  
ram:0003d686    fff7cdfc        bl          FUN_0003d024                            ;undefined FUN_0003d024(void)
ram:0003d68a    0028            cmp         param_1,#0x0                            
ram:0003d68c    e5d1            bne         LAB_0003d65a                            
ram:0003d68e    d9e7            b           LAB_0003d644                            
                            LAB_0003d690:                 ;XREF[1,0]:   0003d630
ram:0003d690    0123            movs        r3,#0x1                                 
ram:0003d692    0393            str         r3,[sp,#local_44+0x50]                  
ram:0003d694    8023            movs        r3,#0x80                                
ram:0003d696    a408            lsrs        r4,r4,#0x2                              
ram:0003d698    5b01            lsls        r3,r3,#0x5                              
ram:0003d69a    03a8            add         param_1,sp,#0xc                         
ram:0003d69c    0495            str         r5,[sp,#local_40+0x50]                  
ram:0003d69e    0593            str         r3,[sp,#local_3c+0x50]                  
ram:0003d6a0    0694            str         r4,[sp,#local_38+0x50]                  
ram:0003d6a2    fff7bffc        bl          FUN_0003d024                            ;undefined FUN_0003d024(void)
ram:0003d6a6    d8e7            b           LAB_0003d65a                            
                            DAT_0003d6a8:                 ;XREF[1,0]:   0003d632
ram:0003d6a8    00f0ffff        undefined4  FFFFF000h                               
                            ;************************************************************************************************
                            ;*                                           FUNCTION                                           *
                            ;************************************************************************************************
                            ;undefined FUN_0003d6ac(undefined4 param_1, undefined * param_2)
          ;param_1       undefined4          r0                      
          ;param_2       undefined *         r1                      
          ;local_c       undefined4          -c                      ;XREF[1,0]:   0003d6be
          ;local_14      undefined4         -14                      ;XREF[1,0]:   0003d6b6
          ;local_18      undefined4         -18                      ;XREF[1,0]:   0003d6bc
          ;local_2c      undefined4         -2c                      ;XREF[1,0]:   0003d6d8
          ;local_30      undefined4         -30                      ;XREF[1,0]:   0003d6de
          ;local_34      undefined4         -34                      ;XREF[1,0]:   0003d6dc
                                                          ;XREF[1,0]:   0003cf22
ram:0003d6ac    00b5            push        {lr}                                    
ram:0003d6ae    8db0            sub         sp,#0x34                                
ram:0003d6b0    05a8            add         param_1,sp,#0x14                        
ram:0003d6b2    fff75bfc        bl          FUN_0003cf6c                            ;undefined8 FUN_0003cf6c(undefined * ...
ram:0003d6b6    0998            ldr         param_1,[sp,#local_14+0x38]             
ram:0003d6b8    0028            cmp         param_1,#0x0                            
ram:0003d6ba    13d0            beq         LAB_0003d6e4                            
ram:0003d6bc    089b            ldr         r3,[sp,#local_18+0x38]                  
ram:0003d6be    0b9a            ldr         r2,[sp,#local_c+0x38]                   
ram:0003d6c0    002b            cmp         r3,#0x0                                 
ram:0003d6c2    06d1            bne         LAB_0003d6d2                            
ram:0003d6c4    c023            movs        r3,#0xc0                                
ram:0003d6c6    9b01            lsls        r3,r3,#0x6                              
ram:0003d6c8    9a68            ldr         r2,[r3,#offset DAT_00003008 &0xff]      
ram:0003d6ca    ec23            movs        r3,#0xec                                
ram:0003d6cc    9b02            lsls        r3,r3,#0xa                              
ram:0003d6ce    9b1a            subs        r3,r3,r2                                
ram:0003d6d0    5b08            lsrs        r3,r3,#0x1                              
                            LAB_0003d6d2:                 ;XREF[1,0]:   0003d6c2
ram:0003d6d2    9b18            adds        r3,r3,r2                                
ram:0003d6d4    0022            movs        r2,#0x0                                 
ram:0003d6d6    8008            lsrs        param_1,param_1,#0x2                    
ram:0003d6d8    0390            str         param_1,[sp,#local_2c+0x38]             
ram:0003d6da    01a8            add         param_1,sp,#0x4                         
ram:0003d6dc    0192            str         r2,[sp,#local_34+0x38]                  
ram:0003d6de    0293            str         r3,[sp,#local_30+0x38]                  
ram:0003d6e0    fff7a0fc        bl          FUN_0003d024                            ;undefined FUN_0003d024(void)
                            LAB_0003d6e4:                 ;XREF[1,0]:   0003d6ba
ram:0003d6e4    0db0            add         sp,#0x34                                
ram:0003d6e6    00bd            pop         {pc}                                    
                            ;************************************************************************************************
                            ;*                                           FUNCTION                                           *
                            ;************************************************************************************************
                            ;undefined FUN_0003d6e8(undefined4 param_1, undefined * param_2)
          ;param_1       undefined4          r0                      
          ;param_2       undefined *         r1                      
          ;local_c       undefined4          -c                      ;XREF[1,0]:   0003d6fa
          ;local_14      undefined4         -14                      ;XREF[1,0]:   0003d6f2
          ;local_18      undefined4         -18                      ;XREF[1,0]:   0003d6f8
          ;local_28      undefined4         -28                      ;XREF[1,0]:   0003d71a
          ;local_2c      undefined4         -2c                      ;XREF[1,0]:   0003d720
          ;local_30      undefined4         -30                      ;XREF[1,0]:   0003d71e
          ;local_34      undefined4         -34                      ;XREF[1,0]:   0003d712
                                                          ;XREF[1,0]:   0003cf34
ram:0003d6e8    00b5            push        {lr}                                    
ram:0003d6ea    8db0            sub         sp,#0x34                                
ram:0003d6ec    05a8            add         param_1,sp,#0x14                        
ram:0003d6ee    fff73dfc        bl          FUN_0003cf6c                            ;undefined8 FUN_0003cf6c(undefined * ...
ram:0003d6f2    0998            ldr         param_1,[sp,#local_14+0x38]             
ram:0003d6f4    0028            cmp         param_1,#0x0                            
ram:0003d6f6    16d0            beq         LAB_0003d726                            
ram:0003d6f8    089b            ldr         r3,[sp,#local_18+0x38]                  
ram:0003d6fa    0b9a            ldr         r2,[sp,#local_c+0x38]                   
ram:0003d6fc    002b            cmp         r3,#0x0                                 
ram:0003d6fe    06d1            bne         LAB_0003d70e                            
ram:0003d700    c023            movs        r3,#0xc0                                
ram:0003d702    9b01            lsls        r3,r3,#0x6                              
ram:0003d704    9a68            ldr         r2,[r3,#offset DAT_00003008 &0xff]      
ram:0003d706    ec23            movs        r3,#0xec                                
ram:0003d708    9b02            lsls        r3,r3,#0xa                              
ram:0003d70a    9b1a            subs        r3,r3,r2                                
ram:0003d70c    5b08            lsrs        r3,r3,#0x1                              
                            LAB_0003d70e:                 ;XREF[1,0]:   0003d6fe
ram:0003d70e    9b18            adds        r3,r3,r2                                
ram:0003d710    0322            movs        r2,#0x3                                 
ram:0003d712    0192            str         r2,[sp,#local_34+0x38]                  
ram:0003d714    f022            movs        r2,#0xf0                                
ram:0003d716    8008            lsrs        param_1,param_1,#0x2                    
ram:0003d718    9202            lsls        r2=>MasterStackPointer,r2,#0xa          ;= 20007f80
ram:0003d71a    0490            str         param_1,[sp,#local_28+0x38]             
ram:0003d71c    01a8            add         param_1,sp,#0x4                         
ram:0003d71e    0292            str         r2=>MasterStackP...,[sp,#local_30+0x38] ;= 20007f80
ram:0003d720    0393            str         r3,[sp,#local_2c+0x38]                  
ram:0003d722    fff77ffc        bl          FUN_0003d024                            ;undefined FUN_0003d024(void)
                            LAB_0003d726:                 ;XREF[1,0]:   0003d6f6
ram:0003d726    0db0            add         sp,#0x34                                
ram:0003d728    00bd            pop         {pc}                                    
ram:0003d72a    0000            movs        r0,r0                                   
                            ;************************************************************************************************
                            ;*                                           FUNCTION                                           *
                            ;************************************************************************************************
                            ;uint FUN_0003d72c(undefined4 param_1, undefined * param_2)
          ;param_1       undefined4          r0                      
          ;param_2       undefined *         r1                      
          ;local_c       undefined4          -c                      ;XREF[1,0]:   0003d73e
          ;local_18      undefined4         -18                      ;XREF[1,0]:   0003d736
          ;local_28      undefined4         -28                      ;XREF[1,0]:   0003d77e
          ;local_2c      undefined4         -2c                      ;XREF[1,0]:   0003d784
          ;local_30      undefined4         -30                      ;XREF[1,0]:   0003d782
          ;local_34      undefined4         -34                      ;XREF[1,0]:   0003d776
                                                          ;XREF[2,0]:   0003cef4,0003cf12
ram:0003d72c    10b5            push        {r4,lr}                                 
ram:0003d72e    8cb0            sub         sp,#0x30                                
ram:0003d730    05a8            add         param_1,sp,#0x14                        
ram:0003d732    fff71bfc        bl          FUN_0003cf6c                            ;undefined8 FUN_0003cf6c(undefined * ...
ram:0003d736    0898            ldr         param_1,[sp,#local_18+0x38]             
ram:0003d738    0028            cmp         param_1,#0x0                            
ram:0003d73a    19d0            beq         LAB_0003d770                            
ram:0003d73c    8023            movs        r3,#0x80                                
ram:0003d73e    0b9c            ldr         r4,[sp,#local_c+0x38]                   
ram:0003d740    5b01            lsls        r3,r3,#0x5                              
ram:0003d742    c318            adds        r3,param_1,r3                           
ram:0003d744    a342            cmp         r3,r4                                   
ram:0003d746    15d9            bls         LAB_0003d774                            
ram:0003d748    c023            movs        r3,#0xc0                                
ram:0003d74a    9b01            lsls        r3,r3,#0x6                              
ram:0003d74c    9b68            ldr         r3,[r3,#offset DAT_00003008 &0xff]      
ram:0003d74e    9842            cmp         param_1,r3                              
ram:0003d750    1cd8            bhi         LAB_0003d78c                            
ram:0003d752    0f4b            ldr         r3,[DAT_0003d790]                       ;= FFFFF000h
ram:0003d754    0121            movs        param_2,#0x1                            
ram:0003d756    e318            adds        r3,r4,r3                                
ram:0003d758    1a00            movs        r2,r3                                   
ram:0003d75a    8a43            bics        r2,param_2                              
ram:0003d75c    1100            movs        param_2,r2                              
ram:0003d75e    a418            adds        r4,r4,r2                                
ram:0003d760    821a            subs        r2,param_1,r2                           
ram:0003d762    8020            movs        param_1,#0x80                           
ram:0003d764    4001            lsls        param_1,param_1,#0x5                    
ram:0003d766    0918            adds        param_2,param_2,param_1                 
ram:0003d768    5b08            lsrs        r3,r3,#0x1                              
ram:0003d76a    2000            movs        param_1,r4                              
ram:0003d76c    fff77afd        bl          FUN_0003d264                            ;undefined FUN_0003d264(int param_1, ...
                            LAB_0003d770:                 ;XREF[3,0]:   0003d73a,0003d78a,0003d78e
ram:0003d770    0cb0            add         sp,#0x30                                
ram:0003d772    10bd            pop         {r4,pc}                                 
                            LAB_0003d774:                 ;XREF[1,0]:   0003d746
ram:0003d774    0323            movs        r3,#0x3                                 
ram:0003d776    0193            str         r3,[sp,#local_34+0x38]                  
ram:0003d778    8023            movs        r3,#0x80                                
ram:0003d77a    8008            lsrs        param_1,param_1,#0x2                    
ram:0003d77c    5b01            lsls        r3,r3,#0x5                              
ram:0003d77e    0490            str         param_1,[sp,#local_28+0x38]             
ram:0003d780    01a8            add         param_1,sp,#0x4                         
ram:0003d782    0293            str         r3,[sp,#local_30+0x38]                  
ram:0003d784    0394            str         r4,[sp,#local_2c+0x38]                  
ram:0003d786    fff74dfc        bl          FUN_0003d024                            ;undefined FUN_0003d024(void)
ram:0003d78a    f1e7            b           LAB_0003d770                            
                            LAB_0003d78c:                 ;XREF[1,0]:   0003d750
ram:0003d78c    0e20            movs        param_1,#0xe                            
ram:0003d78e    efe7            b           LAB_0003d770                            
                            DAT_0003d790:                 ;XREF[1,0]:   0003d752
ram:0003d790    00f0ffff        undefined4  FFFFF000h                               
                            ;************************************************************************************************
                            ;*                                           FUNCTION                                           *
                            ;************************************************************************************************
                            ;undefined4 FUN_0003d794(ushort * param_1, uint param_2)
          ;param_1       ushort *            r0                      
          ;param_2       uint                r1                      
                                                          ;XREF[1,0]:   0003d4ee
ram:0003d794    70b5            push        {r4,r5,r6,lr}                           
ram:0003d796    0400            movs        r4,param_1                              
ram:0003d798    0920            movs        param_1,#0x9                            
ram:0003d79a    0b29            cmp         param_2,#0xb                            
ram:0003d79c    26d9            bls         LAB_0003d7ec                            
ram:0003d79e    2389            ldrh        r3,[r4,#0x8]                            
ram:0003d7a0    6118            adds        param_2,r4,param_2                      
ram:0003d7a2    0533            adds        r3,#0x5                                 
ram:0003d7a4    5b00            lsls        r3,r3,#0x1                              
ram:0003d7a6    e318            adds        r3,r4,r3                                
ram:0003d7a8    ca1a            subs        r2,param_2,r3                           
ram:0003d7aa    d2b2            uxtb        r2,r2                                   
ram:0003d7ac    012a            cmp         r2,#0x1                                 
ram:0003d7ae    1dd9            bls         LAB_0003d7ec                            
ram:0003d7b0    8b42            cmp         r3,param_2                              
ram:0003d7b2    1bd8            bhi         LAB_0003d7ec                            
ram:0003d7b4    1900            movs        param_2,r3                              
ram:0003d7b6    1348            ldr         param_1=>DAT_20002d58,[DAT_0003d804]    ;= 20002D58h
ram:0003d7b8    01f073ff        bl          FUN_0003f6a2                            ;undefined FUN_0003f6a2(int param_1, ...
ram:0003d7bc    124b            ldr         r3,[DAT_0003d808]                       ;= 10001080h
ram:0003d7be    134a            ldr         r2,[DAT_0003d80c]                       ;= 0000FFFFh
ram:0003d7c0    1988            ldrh        param_2,[r3,#0x0]=>DAT_10001080         
ram:0003d7c2    9142            cmp         param_2,r2                              
ram:0003d7c4    03d0            beq         LAB_0003d7ce                            
ram:0003d7c6    2588            ldrh        r5,[r4,#0x0]                            
ram:0003d7c8    0b20            movs        param_1,#0xb                            
ram:0003d7ca    8d42            cmp         r5,param_2                              
ram:0003d7cc    0ed1            bne         LAB_0003d7ec                            
                            LAB_0003d7ce:                 ;XREF[1,0]:   0003d7c4
ram:0003d7ce    5b88            ldrh        r3,[r3,#0x2]=>DAT_10001082              
ram:0003d7d0    9342            cmp         r3,r2                                   
ram:0003d7d2    03d0            beq         LAB_0003d7dc                            
ram:0003d7d4    6288            ldrh        r2,[r4,#0x2]                            
ram:0003d7d6    0b20            movs        param_1,#0xb                            
ram:0003d7d8    9a42            cmp         r2,r3                                   
ram:0003d7da    07d1            bne         LAB_0003d7ec                            
                            LAB_0003d7dc:                 ;XREF[1,0]:   0003d7d2
ram:0003d7dc    c025            movs        r5,#0xc0                                
ram:0003d7de    0023            movs        r3,#0x0                                 
ram:0003d7e0    2189            ldrh        param_2,[r4,#0x8]                       
ram:0003d7e2    0b48            ldr         param_1,[DAT_0003d810]                  ;= 0000FFFEh
ram:0003d7e4    ad01            lsls        r5,r5,#0x6                              
                            LAB_0003d7e6:                 ;XREF[1,0]:   0003d7fe
ram:0003d7e6    8b42            cmp         r3,param_2                              
ram:0003d7e8    01d3            bcc         LAB_0003d7ee                            
ram:0003d7ea    0b20            movs        param_1,#0xb                            
                            LAB_0003d7ec:                 ;XREF[6,0]:   0003d79c,0003d7ae,0003d7b2,0003d7cc
                                                          ;             0003d7da,0003d802
ram:0003d7ec    70bd            pop         {r4,r5,r6,pc}                           
                            LAB_0003d7ee:                 ;XREF[1,0]:   0003d7e8
ram:0003d7ee    5a00            lsls        r2,r3,#0x1                              
ram:0003d7f0    a218            adds        r2,r4,r2                                
ram:0003d7f2    5289            ldrh        r2,[r2,#0xa]                            
ram:0003d7f4    8242            cmp         r2,param_1                              
ram:0003d7f6    03d0            beq         LAB_0003d800                            
ram:0003d7f8    ae89            ldrh        r6,[r5,#offset DAT_0000300c &0xff]      
ram:0003d7fa    0133            adds        r3,#0x1                                 
ram:0003d7fc    9642            cmp         r6,r2                                   
ram:0003d7fe    f2d1            bne         LAB_0003d7e6                            
                            LAB_0003d800:                 ;XREF[1,0]:   0003d7f6
ram:0003d800    0020            movs        param_1,#0x0                            
ram:0003d802    f3e7            b           LAB_0003d7ec                            
                            DAT_0003d804:                 ;XREF[1,0]:   0003d7b6
ram:0003d804    582d0020        undefined4  20002D58h                               
                            DAT_0003d808:                 ;XREF[1,0]:   0003d7bc
ram:0003d808    80100010        undefined4  10001080h                               
                            DAT_0003d80c:                 ;XREF[1,0]:   0003d7be
ram:0003d80c    ffff0000        undefined4  0000FFFFh                               
                            DAT_0003d810:                 ;XREF[1,0]:   0003d7e2
ram:0003d810    feff0000        undefined4  0000FFFEh                               
                            ;************************************************************************************************
                            ;*                                           FUNCTION                                           *
                            ;************************************************************************************************
                            ;undefined4 FUN_0003d814(byte * param_1, int param_2)
          ;param_1       byte *              r0                      
          ;param_2       int                 r1                      
                                                          ;XREF[1,0]:   0003d5a2
ram:0003d814    0022            movs        r2,#0x0                                 
ram:0003d816    10b5            push        {r4,lr}                                 
ram:0003d818    fff7e4fb        bl          FUN_0003cfe4                            ;uint FUN_0003cfe4(byte * param_1, in...
ram:0003d81c    0549            ldr         param_2,[DAT_0003d834]                  ;= 20002D58h
ram:0003d81e    4a78            ldrb        r2,[param_2,#0x1]=>DAT_20002d59         
ram:0003d820    0b78            ldrb        r3,[param_2,#0x0]=>DAT_20002d58         
ram:0003d822    1202            lsls        r2,r2,#0x8                              
ram:0003d824    1343            orrs        r3,r2                                   
ram:0003d826    0b22            movs        r2,#0xb                                 
ram:0003d828    9842            cmp         param_1,r3                              
ram:0003d82a    00d1            bne         LAB_0003d82e                            
ram:0003d82c    0022            movs        r2,#0x0                                 
                            LAB_0003d82e:                 ;XREF[1,0]:   0003d82a
ram:0003d82e    1000            movs        param_1,r2                              
ram:0003d830    10bd            pop         {r4,pc}                                 
ram:0003d832    c046            mov         r8,r8                                   
                            DAT_0003d834:                 ;XREF[1,0]:   0003d81c
ram:0003d834    582d0020        undefined4  20002D58h                               
                            ;************************************************************************************************
                            ;*                                           FUNCTION                                           *
                            ;************************************************************************************************
                            ;undefined4 FUN_0003d838(undefined4 * param_1)
          ;param_1       undefined4 *        r0                      
                                                          ;XREF[3,0]:   0003df9a,0003dfa2,0003dfac
ram:0003d838    4378            ldrb        r3,[param_1,#0x1]                       
ram:0003d83a    0278            ldrb        r2,[param_1,#0x0]                       
ram:0003d83c    1b02            lsls        r3,r3,#0x8                              
ram:0003d83e    1a43            orrs        r2,r3                                   
ram:0003d840    8378            ldrb        r3,[param_1,#0x2]                       
ram:0003d842    c078            ldrb        param_1,[param_1,#0x3]                  
ram:0003d844    1b04            lsls        r3,r3,#0x10                             
ram:0003d846    1343            orrs        r3,r2                                   
ram:0003d848    0006            lsls        param_1,param_1,#0x18                   
ram:0003d84a    1843            orrs        param_1,r3                              
ram:0003d84c    7047            bx          lr                                      
                            ;************************************************************************************************
                            ;*                                           FUNCTION                                           *
                            ;************************************************************************************************
                            ;undefined FUN_0003d84e(void)
                                                          ;XREF[1,0]:   0003ddee
ram:0003d84e    70df            svc         0x70                                    
ram:0003d850    7047            bx          lr                                      
                            ;************************************************************************************************
                            ;*                                           FUNCTION                                           *
                            ;************************************************************************************************
                            ;undefined FUN_0003d852(void)
                                                          ;XREF[1,0]:   0003ddda
ram:0003d852    71df            svc         0x71                                    
ram:0003d854    7047            bx          lr                                      
                            ;************************************************************************************************
                            ;*                                           FUNCTION                                           *
                            ;************************************************************************************************
                            ;undefined FUN_0003d856(void)
                                                          ;XREF[1,0]:   0003da34
ram:0003d856    73df            svc         0x73                                    
ram:0003d858    7047            bx          lr                                      
                            ;************************************************************************************************
                            ;*                                           FUNCTION                                           *
                            ;************************************************************************************************
                            ;undefined FUN_0003d85a(void)
                                                          ;XREF[1,0]:   0003de7c
ram:0003d85a    74df            svc         0x74                                    
ram:0003d85c    7047            bx          lr                                      
                            ;************************************************************************************************
                            ;*                                           FUNCTION                                           *
                            ;************************************************************************************************
                            ;undefined FUN_0003d85e(void)
                                                          ;XREF[3,0]:   0003d962,0003db52,0003de50
ram:0003d85e    76df            svc         0x76                                    
ram:0003d860    7047            bx          lr                                      
                            ;************************************************************************************************
                            ;*                                           FUNCTION                                           *
                            ;************************************************************************************************
                            ;undefined FUN_0003d862(void)
                                                          ;XREF[1,0]:   0003dd42
ram:0003d862    7adf            svc         0x7a                                    
ram:0003d864    7047            bx          lr                                      
                            ;************************************************************************************************
                            ;*                                           FUNCTION                                           *
                            ;************************************************************************************************
                            ;undefined FUN_0003d866(void)
                                                          ;XREF[1,0]:   0003dd14
ram:0003d866    7cdf            svc         0x7c                                    
ram:0003d868    7047            bx          lr                                      
                            ;************************************************************************************************
                            ;*                                           FUNCTION                                           *
                            ;************************************************************************************************
                            ;undefined FUN_0003d86a(void)
                                                          ;XREF[1,0]:   0003daec
ram:0003d86a    7fdf            svc         0x7f                                    
ram:0003d86c    7047            bx          lr                                      
                            ;************************************************************************************************
                            ;*                                           FUNCTION                                           *
                            ;************************************************************************************************
                            ;undefined FUN_0003d86e(void)
                                                          ;XREF[1,0]:   0003dc22
ram:0003d86e    82df            svc         0x82                                    
ram:0003d870    7047            bx          lr                                      
                            ;************************************************************************************************
                            ;*                                           FUNCTION                                           *
                            ;************************************************************************************************
                            ;undefined FUN_0003d872(void)
                                                          ;XREF[1,0]:   0003dc54
ram:0003d872    a7df            svc         0xa7                                    
ram:0003d874    7047            bx          lr                                      
                            ;************************************************************************************************
                            ;*                                           FUNCTION                                           *
                            ;************************************************************************************************
                            ;undefined FUN_0003d876(void)
                                                          ;XREF[1,0]:   0003dc02
ram:0003d876    a8df            svc         0xa8                                    
ram:0003d878    7047            bx          lr                                      
                            ;************************************************************************************************
                            ;*                                           FUNCTION                                           *
                            ;************************************************************************************************
                            ;undefined FUN_0003d87a(void)
                                                          ;XREF[2,0]:   0003dc44,0003dc72
ram:0003d87a    a9df            svc         0xa9                                    
ram:0003d87c    7047            bx          lr                                      
                            ;************************************************************************************************
                            ;*                                           FUNCTION                                           *
                            ;************************************************************************************************
                            ;undefined FUN_0003d87e(void)
                                                          ;XREF[1,0]:   0003dba8
ram:0003d87e    aadf            svc         0xaa                                    
ram:0003d880    7047            bx          lr                                      
                            ;************************************************************************************************
                            ;*                                           FUNCTION                                           *
                            ;************************************************************************************************
                            ;undefined FUN_0003d882(void)
                                                          ;XREF[1,0]:   0003dbd8
ram:0003d882    67df            svc         0x67                                    
ram:0003d884    7047            bx          lr                                      
                            ;************************************************************************************************
                            ;*                                           FUNCTION                                           *
                            ;************************************************************************************************
                            ;int FUN_0003d886(undefined4 param_1, int param_2)
          ;param_1       undefined4          r0                      
          ;param_2       int                 r1                      
                                                          ;XREF[5,0]:   0003d8d8,0003d99e,0003dedc,0003df4e
                                                          ;             0003e000
ram:0003d886    00b5            push        {lr}                                    
ram:0003d888    0c28            cmp         param_1,#0xc                            
ram:0003d88a    13d8            bhi         switchD_0003d88c::caseD_1               
                            switchD:                      ; FWD[7,0]:   0003d89e,0003d8a2,0003d8a6,0003d8aa
                                                          ;             0003d8b4,0003d8b8,0003f544
ram:0003d88c    01f05afe        bl          __gnu_thumb1_case_uqi                   ;undefined __gnu_thumb1_case_uqi(void)
                            switchdataD_0003d890:         
ram:0003d890    14              db          14h                                     
ram:0003d891    12              db          12h                                     
ram:0003d892    12              db          12h                                     
ram:0003d893    12              db          12h                                     
ram:0003d894    12              db          12h                                     
ram:0003d895    12              db          12h                                     
ram:0003d896    09              db          9h                                      
ram:0003d897    12              db          12h                                     
ram:0003d898    07              db          7h                                      
ram:0003d899    12              db          12h                                     
ram:0003d89a    12              db          12h                                     
ram:0003d89b    0d              db          Dh                                      
ram:0003d89c    0b              db          Bh                                      
ram:0003d89d    00              ??          00h                                     
                            caseD_8:                      ;XREF[1,0]:   0003d88c
ram:0003d89e    0220            movs        param_1,#0x2                            
                            LAB_0003d8a0:                 ;XREF[5,0]:   0003d8a4,0003d8a8,0003d8b2,0003d8b6
                                                          ;             0003d8ba
ram:0003d8a0    00bd            pop         {pc}                                    
                            caseD_6:                      ;XREF[1,0]:   0003d88c
ram:0003d8a2    0320            movs        param_1,#0x3                            
ram:0003d8a4    fce7            b           LAB_0003d8a0                            
                            caseD_c:                      ;XREF[1,0]:   0003d88c
ram:0003d8a6    0420            movs        param_1,#0x4                            
ram:0003d8a8    fae7            b           LAB_0003d8a0                            
                            caseD_b:                      ;XREF[1,0]:   0003d88c
ram:0003d8aa    081f            subs        param_1,param_2,#0x4                    
ram:0003d8ac    411e            subs        param_2,param_1,#0x1                    
ram:0003d8ae    8841            sbcs        param_1,param_2                         
ram:0003d8b0    0530            adds        param_1,#0x5                            
ram:0003d8b2    f5e7            b           LAB_0003d8a0                            
                            caseD_2:                      ;XREF[2,0]:   0003d88a,0003d88c
                            caseD_3:                      
                            caseD_4:                      
                            caseD_5:                      
                            caseD_7:                      
                            caseD_9:                      
                            caseD_a:                      
                            caseD_1:                      
ram:0003d8b4    0620            movs        param_1,#0x6                            
ram:0003d8b6    f3e7            b           LAB_0003d8a0                            
                            caseD_0:                      ;XREF[1,0]:   0003d88c
ram:0003d8b8    0120            movs        param_1,#0x1                            
ram:0003d8ba    f1e7            b           LAB_0003d8a0                            
                            ;************************************************************************************************
                            ;*                                           FUNCTION                                           *
                            ;************************************************************************************************
                            ;undefined FUN_0003d8bc(void)
                                                          ;XREF[1,1]:   0003d8ca,0003de28
ram:0003d8bc    0022            movs        r2,#0x0                                 
ram:0003d8be    10b5            push        {r4,lr}                                 
ram:0003d8c0    1100            movs        r1,r2                                   
ram:0003d8c2    fef77dfc        bl          FUN_0003c1c0                            ;undefined FUN_0003c1c0(void)
ram:0003d8c6    10bd            pop         {r4,pc}                                 
                            ;************************************************************************************************
                            ;*                                           FUNCTION                                           *
                            ;************************************************************************************************
                            ;undefined LAB_0003d8c8+1(void)
                                                          ;XREF[0,3]:   0003dd96,0003dda2,0003de34
ram:0003d8c8    10b5            push        {r4,lr}                                 
ram:0003d8ca    fff7f7ff        bl          FUN_0003d8bc                            ;undefined FUN_0003d8bc(void)
ram:0003d8ce    10bd            pop         {r4,pc}                                 
                            ;************************************************************************************************
                            ;*                                           FUNCTION                                           *
                            ;************************************************************************************************
                            ;undefined FUN_0003d8d0(ushort * param_1, undefined4 param_2)
          ;param_1       ushort *            r0                      
          ;param_2       undefined4          r1                      
                                                          ;XREF[2,0]:   0003e022,0003e0c0
ram:0003d8d0    10b5            push        {r4,lr}                                 
ram:0003d8d2    0400            movs        r4,param_1                              
ram:0003d8d4    0800            movs        param_1,param_2                         
ram:0003d8d6    0321            movs        param_2,#0x3                            
ram:0003d8d8    fff7d5ff        bl          FUN_0003d886                            ;int FUN_0003d886(undefined4 param_1,...
ram:0003d8dc    0321            movs        param_2,#0x3                            
ram:0003d8de    0200            movs        r2,param_1                              
ram:0003d8e0    2000            movs        param_1,r4                              
ram:0003d8e2    01f01bfc        bl          FUN_0003f11c                            ;undefined4 FUN_0003f11c(ushort * par...
ram:0003d8e6    0028            cmp         param_1,#0x0                            
ram:0003d8e8    03d0            beq         LAB_0003d8f2                            
ram:0003d8ea    0022            movs        r2,#0x0                                 
ram:0003d8ec    1100            movs        param_2,r2                              
ram:0003d8ee    fef767fc        bl          FUN_0003c1c0                            ;undefined FUN_0003c1c0(void)
                            LAB_0003d8f2:                 ;XREF[1,0]:   0003d8e8
ram:0003d8f2    10bd            pop         {r4,pc}                                 
                            ;************************************************************************************************
                            ;*                                           FUNCTION                                           *
                            ;************************************************************************************************
                            ;undefined FUN_0003d8f4(undefined param_1)
          ;param_1       undefined           r0                      
          ;local_3c      undefined4         -3c                      ;XREF[1,0]:   0003d924
          ;local_40      undefined2         -40                      ;XREF[1,0]:   0003d922
          ;local_45      undefined1         -45                      ;XREF[1,0]:   0003d920
          ;local_46      undefined1         -46                      ;XREF[1,0]:   0003d91e
          ;local_48      undefined1         -48                      ;XREF[1,0]:   0003d918
          ;local_4a      undefined1         -4a                      ;XREF[1,0]:   0003d900
          ;local_4c      undefined2         -4c                      ;XREF[1,0]:   0003d90e
                                                          ;XREF[3,0]:   0003d9f4,0003da20,0003da5c
ram:0003d8f4    f0b5            push        {r4,r5,r6,r7,lr}                        
ram:0003d8f6    114b            ldr         r3,[DAT_0003d93c]                       ;= 20002DBCh
ram:0003d8f8    8fb0            sub         sp,#0x3c                                
ram:0003d8fa    9b79            ldrb        r3,[r3,#0x6]=>DAT_20002dc2              
ram:0003d8fc    01ae            add         r6,sp,#0x4                              
ram:0003d8fe    02ac            add         r4,sp,#0x8                              
ram:0003d900    b370            strb        r3,[r6,#local_4a+0x4c]                  
ram:0003d902    0f4b            ldr         r3,[DAT_0003d940]                       ;= 00001530h
ram:0003d904    0700            movs        r7,param_1                              
ram:0003d906    0021            movs        r1,#0x0                                 
ram:0003d908    3022            movs        r2,#0x30                                
ram:0003d90a    2000            movs        param_1,r4                              
ram:0003d90c    0025            movs        r5,#0x0                                 
ram:0003d90e    3380            strh        r3,[r6,#0x0]=>local_4c                  
ram:0003d910    fef74cfc        bl          FUN_0003c1ac                            ;undefined FUN_0003c1ac(undefined * p...
ram:0003d914    0223            movs        r3,#0x2                                 
ram:0003d916    2900            movs        r1,r5                                   
ram:0003d918    2370            strb        r3,[r4,#0x0]=>local_48                  
ram:0003d91a    2000            movs        param_1,r4                              
ram:0003d91c    013b            subs        r3,#0x1                                 
ram:0003d91e    a570            strb        r5,[r4,#local_46+0x48]                  
ram:0003d920    e770            strb        r7,[r4,#local_45+0x48]                  
ram:0003d922    2381            strh        r3,[r4,#local_40+0x48]                  
ram:0003d924    e660            str         r6,[r4,#local_3c+0x48]                  
ram:0003d926    01f011f9        bl          FUN_0003eb4c                            ;int FUN_0003eb4c(char * param_1, cha...
ram:0003d92a    a842            cmp         param_1,r5                              
ram:0003d92c    03d0            beq         LAB_0003d936                            
ram:0003d92e    2a00            movs        r2,r5                                   
ram:0003d930    2900            movs        r1,r5                                   
ram:0003d932    fef745fc        bl          FUN_0003c1c0                            ;undefined FUN_0003c1c0(void)
                            LAB_0003d936:                 ;XREF[1,0]:   0003d92c
ram:0003d936    0fb0            add         sp,#0x3c                                
ram:0003d938    f0bd            pop         {r4,r5,r6,r7,pc}                        
ram:0003d93a    c046            mov         r8,r8                                   
                            DAT_0003d93c:                 ;XREF[1,0]:   0003d8f6
ram:0003d93c    bc2d0020        undefined4  20002DBCh                               
                            DAT_0003d940:                 ;XREF[1,0]:   0003d902
ram:0003d940    30150000        undefined4  00001530h                               
                            ;************************************************************************************************
                            ;*                                           FUNCTION                                           *
                            ;************************************************************************************************
                            ;undefined LAB_0003d944+1(int param_1, int param_2, int param_3)
          ;param_1       int                 r0                      
          ;param_2       int                 r1                      
          ;param_3       int                 r2                      
                                                          ;XREF[0,1]:   0003de14
ram:0003d944    70b5            push        {r4,r5,r6,lr}                           
ram:0003d946    0c00            movs        r4,param_2                              
ram:0003d948    1500            movs        r5,param_3                              
ram:0003d94a    0328            cmp         param_1,#0x3                            
ram:0003d94c    25d0            beq         LAB_0003d99a                            
ram:0003d94e    0428            cmp         param_1,#0x4                            
ram:0003d950    0fd1            bne         LAB_0003d972                            
ram:0003d952    0029            cmp         param_2,#0x0                            
ram:0003d954    0ed0            beq         LAB_0003d974                            
ram:0003d956    144b            ldr         r3,[DAT_0003d9a8]                       ;= 20002C60h
ram:0003d958    1888            ldrh        param_1,[r3,#0x0]=>DAT_20002c60         
ram:0003d95a    144b            ldr         r3,[DAT_0003d9ac]                       ;= 0000FFFFh
ram:0003d95c    9842            cmp         param_1,r3                              
ram:0003d95e    08d0            beq         LAB_0003d972                            
ram:0003d960    1321            movs        param_2,#0x13                           
ram:0003d962    fff77cff        bl          FUN_0003d85e                            ;undefined FUN_0003d85e(void)
                            LAB_0003d966:                 ;XREF[1,0]:   0003d998
ram:0003d966    0028            cmp         param_1,#0x0                            
ram:0003d968    03d0            beq         LAB_0003d972                            
ram:0003d96a    0022            movs        param_3,#0x0                            
ram:0003d96c    1100            movs        param_2,param_3                         
ram:0003d96e    fef727fc        bl          FUN_0003c1c0                            ;undefined FUN_0003c1c0(void)
                            LAB_0003d972:                 ;XREF[4,0]:   0003d950,0003d95e,0003d968,0003d98c
ram:0003d972    70bd            pop         {r4,r5,r6,pc}                           
                            LAB_0003d974:                 ;XREF[1,0]:   0003d954
ram:0003d974    1000            movs        param_1,param_3                         
ram:0003d976    00f007fc        bl          FUN_0003e188                            ;undefined4 FUN_0003e188(int param_1)
ram:0003d97a    0028            cmp         param_1,#0x0                            
ram:0003d97c    03d0            beq         LAB_0003d986                            
ram:0003d97e    2200            movs        param_3,r4                              
ram:0003d980    2100            movs        param_2,r4                              
ram:0003d982    fef71dfc        bl          FUN_0003c1c0                            ;undefined FUN_0003c1c0(void)
                            LAB_0003d986:                 ;XREF[1,0]:   0003d97c
ram:0003d986    0a4b            ldr         r3,[DAT_0003d9b0]                       ;= 20002E04h
ram:0003d988    1b68            ldr         r3,[r3,#0x0]=>DAT_20002e04              
ram:0003d98a    9d42            cmp         r5,r3                                   
ram:0003d98c    f1d1            bne         LAB_0003d972                            
ram:0003d98e    0122            movs        param_3,#0x1                            
ram:0003d990    0321            movs        param_2,#0x3                            
                            LAB_0003d992:                 ;XREF[1,0]:   0003d9a6
ram:0003d992    0848            ldr         param_1,[DAT_0003d9b4]                  ;= 20002DBCh
ram:0003d994    01f0c2fb        bl          FUN_0003f11c                            ;undefined4 FUN_0003f11c(ushort * par...
ram:0003d998    e5e7            b           LAB_0003d966                            
                            LAB_0003d99a:                 ;XREF[1,0]:   0003d94c
ram:0003d99a    0121            movs        param_2,#0x1                            
ram:0003d99c    2000            movs        param_1,r4                              
ram:0003d99e    fff772ff        bl          FUN_0003d886                            ;int FUN_0003d886(undefined4 param_1,...
ram:0003d9a2    0121            movs        param_2,#0x1                            
ram:0003d9a4    0200            movs        param_3,param_1                         
ram:0003d9a6    f4e7            b           LAB_0003d992                            
                            DAT_0003d9a8:                 ;XREF[1,0]:   0003d956
ram:0003d9a8    602c0020        undefined4  20002C60h                               
                            DAT_0003d9ac:                 ;XREF[1,0]:   0003d95a
ram:0003d9ac    ffff0000        undefined4  0000FFFFh                               
                            DAT_0003d9b0:                 ;XREF[1,0]:   0003d986
ram:0003d9b0    042e0020        undefined4  20002E04h                               
                            DAT_0003d9b4:                 ;XREF[1,0]:   0003d992
ram:0003d9b4    bc2d0020        undefined4  20002DBCh                               
                            ;************************************************************************************************
                            ;*                                           FUNCTION                                           *
                            ;************************************************************************************************
                            ;undefined FUN_0003d9b8(void)
          ;local_1c      undefined1         -1c                      ;XREF[1,0]:   0003da16
          ;local_20      undefined4         -20                      ;XREF[1,0]:   0003da1c
          ;local_24      undefined1         -24                      ;XREF[1,0]:   0003da0e
          ;local_28      undefined4         -28                      ;XREF[1,0]:   0003da12
          ;local_3c      undefined4         -3c                      ;XREF[1,0]:   0003da1e
          ;local_40      undefined4         -40                      ;XREF[1,0]:   0003da0a
                                                          ;XREF[3,0]:   0003dbc0,0003dbcc,0003ddce
ram:0003d9b8    f0b5            push        {r4,r5,r6,r7,lr}                        
ram:0003d9ba    2c4b            ldr         r3=>DAT_20002dec,[DAT_0003da6c]         ;= 20002DECh
ram:0003d9bc    8bb0            sub         sp,#0x2c                                
ram:0003d9be    1d78            ldrb        r5,[r3,#0x0]=>DAT_20002dec              
ram:0003d9c0    002d            cmp         r5,#0x0                                 
ram:0003d9c2    48d1            bne         LAB_0003da56                            
ram:0003d9c4    2a4c            ldr         r4,[DAT_0003da70]                       ;= 20002D64h
ram:0003d9c6    1822            movs        r2,#0x18                                
ram:0003d9c8    2900            movs        r1,r5                                   
ram:0003d9ca    2000            movs        r0=>DAT_20002d64,r4                     
ram:0003d9cc    fef7eefb        bl          FUN_0003c1ac                            ;undefined FUN_0003c1ac(undefined * p...
ram:0003d9d0    284b            ldr         r3=>DAT_20002db8,[DAT_0003da74]         ;= 20002DB8h
ram:0003d9d2    1e78            ldrb        r6,[r3,#0x0]=>DAT_20002db8              
ram:0003d9d4    002e            cmp         r6,#0x0                                 
ram:0003d9d6    40d0            beq         LAB_0003da5a                            
ram:0003d9d8    1022            movs        r2,#0x10                                
ram:0003d9da    2900            movs        r1,r5                                   
ram:0003d9dc    02a8            add         r0,sp,#0x8                              
ram:0003d9de    fef7e5fb        bl          FUN_0003c1ac                            ;undefined FUN_0003c1ac(undefined * p...
ram:0003d9e2    1022            movs        r2,#0x10                                
ram:0003d9e4    02a9            add         r1,sp,#0x8                              
ram:0003d9e6    2448            ldr         r0,[DAT_0003da78]                       ;= 20002D83h
ram:0003d9e8    244f            ldr         r7,[DAT_0003da7c]                       ;= 20002D7Ch
ram:0003d9ea    01f04bfe        bl          FUN_0003f684                            ;int FUN_0003f684(int param_1, int pa...
ram:0003d9ee    061e            subs        r6,r0,#0x0                              
ram:0003d9f0    09d1            bne         LAB_0003da06                            
ram:0003d9f2    0520            movs        r0,#0x5                                 
ram:0003d9f4    fff77eff        bl          FUN_0003d8f4                            ;undefined FUN_0003d8f4(undefined par...
ram:0003d9f8    0123            movs        r3,#0x1                                 
ram:0003d9fa    6760            str         r7,[r4,#0x4]=>DAT_20002d68              
ram:0003d9fc    2370            strb        r3,[r4,#0x0]=>DAT_20002d64              
ram:0003d9fe    2672            strb        r6,[r4,#0x8]=>DAT_20002d6c              
ram:0003da00    2682            strh        r6,[r4,#0x10]=>DAT_20002d74             
                            LAB_0003da02:                 ;XREF[1,0]:   0003da6a
ram:0003da02    6682            strh        r6,[r4,#0x12]=>DAT_20002d76             
ram:0003da04    15e0            b           LAB_0003da32                            
                            LAB_0003da06:                 ;XREF[1,0]:   0003d9f0
ram:0003da06    1c4b            ldr         r3,[DAT_0003da78]                       ;= 20002D83h
ram:0003da08    06ae            add         r6,sp,#0x18                             
ram:0003da0a    0093            str         r3,[sp,#0x0]=>local_40                  
ram:0003da0c    0123            movs        r3,#0x1                                 
ram:0003da0e    3371            strb        r3,[r6,#local_24+0x28]                  
ram:0003da10    01ab            add         r3,sp,#0x4                              
ram:0003da12    0693            str         r3,[sp,#local_28+0x40]                  
ram:0003da14    0123            movs        r3,#0x1                                 
ram:0003da16    3373            strb        r3,[r6,#local_1c+0x28]                  
ram:0003da18    6b46            mov         r3,sp                                   
ram:0003da1a    0420            movs        r0,#0x4                                 
ram:0003da1c    0893            str         r3,[sp,#local_20+0x40]                  
ram:0003da1e    0197            str         r7,[sp,#local_3c+0x40]                  
ram:0003da20    fff768ff        bl          FUN_0003d8f4                            ;undefined FUN_0003d8f4(undefined par...
ram:0003da24    0223            movs        r3,#0x2                                 
ram:0003da26    2372            strb        r3,[r4,#0x8]=>DAT_20002d6c              
ram:0003da28    2633            adds        r3,#0x26                                
ram:0003da2a    2570            strb        r5,[r4,#0x0]=>DAT_20002d64              
ram:0003da2c    e660            str         r6,[r4,#0xc]=>DAT_20002d70              
ram:0003da2e    2382            strh        r3,[r4,#0x10]=>DAT_20002d74             
ram:0003da30    6582            strh        r5,[r4,#0x12]=>DAT_20002d76             
                            LAB_0003da32:                 ;XREF[1,0]:   0003da04
ram:0003da32    2000            movs        r0=>DAT_20002d64,r4                     
ram:0003da34    fff70fff        bl          FUN_0003d856                            ;undefined FUN_0003d856(void)
ram:0003da38    0028            cmp         r0,#0x0                                 
ram:0003da3a    03d0            beq         LAB_0003da44                            
ram:0003da3c    0022            movs        r2,#0x0                                 
ram:0003da3e    1100            movs        r1,r2                                   
ram:0003da40    fef7befb        bl          FUN_0003c1c0                            ;undefined FUN_0003c1c0(void)
                            LAB_0003da44:                 ;XREF[1,0]:   0003da3a
ram:0003da44    8021            movs        r1,#0x80                                
ram:0003da46    a022            movs        r2,#0xa0                                
ram:0003da48    0d4b            ldr         r3,[DAT_0003da80]                       ;= 0000050Ch
ram:0003da4a    d205            lsls        r2,r2,#0x17                             
ram:0003da4c    8903            lsls        r1,r1,#0xe                              
ram:0003da4e    d150            str         r1,[r2,r3]=>DAT_5000050c                
ram:0003da50    0123            movs        r3,#0x1                                 
ram:0003da52    064a            ldr         r2,[DAT_0003da6c]                       ;= 20002DECh
ram:0003da54    1370            strb        r3,[r2,#0x0]=>DAT_20002dec              
                            LAB_0003da56:                 ;XREF[1,0]:   0003d9c2
ram:0003da56    0bb0            add         sp,#0x2c                                
ram:0003da58    f0bd            pop         {r4,r5,r6,r7,pc}                        
                            LAB_0003da5a:                 ;XREF[1,0]:   0003d9d6
ram:0003da5a    0620            movs        r0,#0x6                                 
ram:0003da5c    fff74aff        bl          FUN_0003d8f4                            ;undefined FUN_0003d8f4(undefined par...
ram:0003da60    2823            movs        r3,#0x28                                
ram:0003da62    2670            strb        r6,[r4,#0x0]=>DAT_20002d64              
ram:0003da64    6660            str         r6,[r4,#0x4]=>DAT_20002d68              
ram:0003da66    2672            strb        r6,[r4,#0x8]=>DAT_20002d6c              
ram:0003da68    2382            strh        r3,[r4,#0x10]=>DAT_20002d74             
ram:0003da6a    cae7            b           LAB_0003da02                            
                            DAT_0003da6c:                 ;XREF[2,0]:   0003d9ba,0003da52
ram:0003da6c    ec2d0020        undefined4  20002DECh                               
                            DAT_0003da70:                 ;XREF[1,0]:   0003d9c4
ram:0003da70    642d0020        undefined4  20002D64h                               
                            DAT_0003da74:                 ;XREF[1,0]:   0003d9d0
ram:0003da74    b82d0020        undefined4  20002DB8h                               
                            DAT_0003da78:                 ;XREF[2,0]:   0003d9e6,0003da06
ram:0003da78    832d0020        undefined4  20002D83h                               
                            DAT_0003da7c:                 ;XREF[1,0]:   0003d9e8
ram:0003da7c    7c2d0020        undefined4  20002D7Ch                               
                            DAT_0003da80:                 ;XREF[1,0]:   0003da48
ram:0003da80    0c050000        undefined4  0000050Ch                               
                            ;************************************************************************************************
                            ;*                                           FUNCTION                                           *
                            ;************************************************************************************************
                            ;undefined LAB_0003da84+1(ushort * param_1, uint param_2)
          ;param_1       ushort *            r0                      
          ;param_2       uint                r1                      
          ;local_80      undefined4         -80                      ;XREF[1,0]:   0003db2e
          ;local_8c      undefined4         -8c                      ;XREF[2,0]:   0003db36,0003dbfc
          ;local_90      undefined4         -90                      ;XREF[3,0]:   0003db2c,0003db34,0003dbf6
          ;local_98      undefined4         -98                      ;XREF[1,0]:   0003dae8
          ;local_9c      undefined4         -9c                      ;XREF[1,0]:   0003daea
          ;local_a8      undefined2         -a8                      ;XREF[1,0]:   0003db8c
          ;local_c8      undefined4         -c8                      ;XREF[1,0]:   0003db32
                                                          ;XREF[0,1]:   0003de10
ram:0003da84    70b5            push        {r4,r5,r6,lr}                           
ram:0003da86    0400            movs        r4,param_1                              
ram:0003da88    aeb0            sub         sp,#0xb8                                
ram:0003da8a    01f04df9        bl          FUN_0003ed28                            ;ushort * FUN_0003ed28(ushort * param...
ram:0003da8e    2100            movs        param_2,r4                              
ram:0003da90    7a48            ldr         param_1,[DAT_0003dc7c]                  ;= 20002DBCh
ram:0003da92    01f075fb        bl          FUN_0003f180                            ;undefined FUN_0003f180(ushort * para...
ram:0003da96    2388            ldrh        r3,[r4,#0x0]                            
ram:0003da98    142b            cmp         r3,#0x14                                
ram:0003da9a    00d1            bne         LAB_0003da9e                            
ram:0003da9c    b6e0            b           LAB_0003dc0c                            
                            LAB_0003da9e:                 ;XREF[1,0]:   0003da9a
ram:0003da9e    2cd8            bhi         LAB_0003dafa                            
ram:0003daa0    102b            cmp         r3,#0x10                                
ram:0003daa2    5fd0            beq         LAB_0003db64                            
ram:0003daa4    04d8            bhi         LAB_0003dab0                            
ram:0003daa6    022b            cmp         r3,#0x2                                 
ram:0003daa8    00d1            bne         LAB_0003daac                            
ram:0003daaa    92e0            b           LAB_0003dbd2                            
                            LAB_0003daac:                 ;XREF[17,0]:  0003daa8,0003dab6,0003daf2,0003db08
                                                          ;             0003db0e,0003db3c,0003db44,0003db4a
                                                          ;             0003db58,0003db62,0003db84,0003dbca
                                                          ;             0003dbd0,0003dbe4,0003dbee,0003dc62
                                                          ;             0003dc6a
ram:0003daac    2eb0            add         sp,#0xb8                                
ram:0003daae    70bd            pop         {r4,r5,r6,pc}                           
                            LAB_0003dab0:                 ;XREF[1,0]:   0003daa4
ram:0003dab0    112b            cmp         r3,#0x11                                
ram:0003dab2    68d0            beq         LAB_0003db86                            
ram:0003dab4    132b            cmp         r3,#0x13                                
ram:0003dab6    f9d1            bne         LAB_0003daac                            
ram:0003dab8    714c            ldr         r4,[DAT_0003dc80]                       ;= 20002D7Ch
ram:0003daba    02ae            add         r6,sp,#0x8                              
ram:0003dabc    0722            movs        r2,#0x7                                 
ram:0003dabe    2100            movs        param_2,r4                              
ram:0003dac0    06a8            add         param_1,sp,#0x18                        
ram:0003dac2    01f0eefd        bl          FUN_0003f6a2                            ;undefined FUN_0003f6a2(int param_1, ...
ram:0003dac6    e11d            adds        param_2,r4,#0x7                         
ram:0003dac8    1022            movs        r2,#0x10                                
ram:0003daca    3000            movs        param_1,r6                              
ram:0003dacc    01f0e9fd        bl          FUN_0003f6a2                            ;undefined FUN_0003f6a2(int param_1, ...
ram:0003dad0    2100            movs        param_2,r4                              
ram:0003dad2    0ead            add         r5,sp,#0x38                             
ram:0003dad4    1831            adds        param_2,#0x18                           
ram:0003dad6    1c22            movs        r2,#0x1c                                
ram:0003dad8    2800            movs        param_1,r5                              
ram:0003dada    01f0e2fd        bl          FUN_0003f6a2                            ;undefined FUN_0003f6a2(int param_1, ...
ram:0003dade    694b            ldr         r3,[DAT_0003dc84]                       ;= 20002C60h
ram:0003dae0    694a            ldr         r2,[DAT_0003dc88]                       ;= 20002DFAh
ram:0003dae2    1888            ldrh        param_1,[r3,#0x0]=>DAT_20002c60         
ram:0003dae4    8521            movs        param_2,#0x85                           
ram:0003dae6    08ab            add         r3,sp,#0x20                             
ram:0003dae8    0c96            str         r6,[sp,#local_98+0xc8]                  
ram:0003daea    0b95            str         r5,[sp,#local_9c+0xc8]                  
ram:0003daec    fff7bdfe        bl          FUN_0003d86a                            ;undefined FUN_0003d86a(void)
                            LAB_0003daf0:                 ;XREF[5,0]:   0003dbdc,0003dc06,0003dc26,0003dc68
                                                          ;             0003dc76
ram:0003daf0    0028            cmp         param_1,#0x0                            
ram:0003daf2    dbd0            beq         LAB_0003daac                            
                            LAB_0003daf4:                 ;XREF[2,0]:   0003dc4c,0003dc7a
ram:0003daf4    0022            movs        r2,#0x0                                 
ram:0003daf6    1100            movs        param_2,r2                              
ram:0003daf8    31e0            b           LAB_0003db5e                            
                            LAB_0003dafa:                 ;XREF[1,0]:   0003da9e
ram:0003dafa    512b            cmp         r3,#0x51                                
ram:0003dafc    6fd0            beq         LAB_0003dbde                            
ram:0003dafe    1ed8            bhi         LAB_0003db3e                            
ram:0003db00    182b            cmp         r3,#0x18                                
ram:0003db02    00d1            bne         LAB_0003db06                            
ram:0003db04    90e0            b           LAB_0003dc28                            
                            LAB_0003db06:                 ;XREF[1,0]:   0003db02
ram:0003db06    192b            cmp         r3,#0x19                                
ram:0003db08    d0d1            bne         LAB_0003daac                            
ram:0003db0a    a379            ldrb        r3,[r4,#0x6]                            
ram:0003db0c    002b            cmp         r3,#0x0                                 
ram:0003db0e    cdd1            bne         LAB_0003daac                            
ram:0003db10    5e4a            ldr         r2,[DAT_0003dc8c]                       ;= 20002DECh
ram:0003db12    1370            strb        r3,[r2,#0x0]=>DAT_20002dec              
ram:0003db14    5e4b            ldr         r3=>DAT_20002c64,[DAT_0003dc90]         ;= 20002C64h
ram:0003db16    1a68            ldr         r2,[r3,#0x0]=>DAT_20002c64              
ram:0003db18    511e            subs        param_2,r2,#0x1                         
ram:0003db1a    1960            str         param_2,[r3,#0x0]=>DAT_20002c64         
ram:0003db1c    0029            cmp         param_2,#0x0                            
ram:0003db1e    55d1            bne         LAB_0003dbcc                            
ram:0003db20    0eac            add         r4,sp,#0x38                             
ram:0003db22    1422            movs        r2,#0x14                                
ram:0003db24    2000            movs        param_1,r4                              
ram:0003db26    fef741fb        bl          FUN_0003c1ac                            ;undefined FUN_0003c1ac(undefined * p...
ram:0003db2a    0523            movs        r3,#0x5                                 
ram:0003db2c    2370            strb        r3,[r4,#0x0]=>local_90                  
ram:0003db2e    2369            ldr         r3,[r4,#local_80+0x90]                  
ram:0003db30    0434            adds        r4,#0x4                                 
ram:0003db32    0093            str         r3,[sp,#0x0]=>local_c8                  
ram:0003db34    0e98            ldr         param_1,[sp,#local_90+0xc8]             
ram:0003db36    0ecc            ldmia       r4!=>local_8c,{param_2,r2,r3}           
ram:0003db38    fff7f4f8        bl          FUN_0003cd24                            ;undefined FUN_0003cd24(uint param_1,...
ram:0003db3c    b6e7            b           LAB_0003daac                            
                            LAB_0003db3e:                 ;XREF[1,0]:   0003dafe
ram:0003db3e    522b            cmp         r3,#0x52                                
ram:0003db40    72d0            beq         LAB_0003dc28                            
ram:0003db42    552b            cmp         r3,#0x55                                
ram:0003db44    b2d1            bne         LAB_0003daac                            
ram:0003db46    a479            ldrb        r4,[r4,#0x6]                            
ram:0003db48    002c            cmp         r4,#0x0                                 
ram:0003db4a    afd1            bne         LAB_0003daac                            
ram:0003db4c    4d4b            ldr         r3=>DAT_20002c60,[DAT_0003dc84]         ;= 20002C60h
ram:0003db4e    1321            movs        param_2,#0x13                           
ram:0003db50    1888            ldrh        param_1,[r3,#0x0]=>DAT_20002c60         
ram:0003db52    fff784fe        bl          FUN_0003d85e                            ;undefined FUN_0003d85e(void)
ram:0003db56    0028            cmp         param_1,#0x0                            
ram:0003db58    a8d0            beq         LAB_0003daac                            
ram:0003db5a    2200            movs        r2,r4                                   
ram:0003db5c    2100            movs        param_2,r4                              
                            LAB_0003db5e:                 ;XREF[1,0]:   0003daf8
ram:0003db5e    fef72ffb        bl          FUN_0003c1c0                            ;undefined FUN_0003c1c0(void)
ram:0003db62    a3e7            b           LAB_0003daac                            
                            LAB_0003db64:                 ;XREF[1,0]:   0003daa2
ram:0003db64    a023            movs        r3,#0xa0                                
ram:0003db66    8021            movs        param_2,#0x80                           
ram:0003db68    4a4a            ldr         r2,[DAT_0003dc94]                       ;= 0000050Ch
ram:0003db6a    db05            lsls        r3,r3,#0x17                             
ram:0003db6c    c903            lsls        param_2,param_2,#0xf                    
ram:0003db6e    9950            str         param_2,[r3,r2]=>DAT_5000050c           
ram:0003db70    8021            movs        param_2,#0x80                           
ram:0003db72    043a            subs        r2,#0x4                                 
ram:0003db74    8903            lsls        param_2,param_2,#0xe                    
ram:0003db76    9950            str         param_2,[r3,r2]=>DAT_50000508           
ram:0003db78    a288            ldrh        r2,[r4,#0x4]                            
ram:0003db7a    424b            ldr         r3,[DAT_0003dc84]                       ;= 20002C60h
ram:0003db7c    1a80            strh        r2,[r3,#0x0]=>DAT_20002c60              
ram:0003db7e    0022            movs        r2,#0x0                                 
ram:0003db80    424b            ldr         r3,[DAT_0003dc8c]                       ;= 20002DECh
ram:0003db82    1a70            strb        r2,[r3,#0x0]=>DAT_20002dec              
ram:0003db84    92e7            b           LAB_0003daac                            
                            LAB_0003db86:                 ;XREF[1,0]:   0003dab2
ram:0003db86    8023            movs        r3,#0x80                                
ram:0003db88    3221            movs        param_2,#0x32                           
ram:0003db8a    08aa            add         r2,sp,#0x20                             
ram:0003db8c    1380            strh        r3,[r2,#0x0]=>local_a8                  
ram:0003db8e    404b            ldr         r3,[DAT_0003dc90]                       ;= 20002C64h
ram:0003db90    8020            movs        param_1,#0x80                           
ram:0003db92    1960            str         param_2,[r3,#0x0]=>DAT_20002c64         
ram:0003db94    a123            movs        r3,#0xa1                                
ram:0003db96    a021            movs        param_2,#0xa0                           
ram:0003db98    c003            lsls        param_1,param_1,#0xf                    
ram:0003db9a    db00            lsls        r3,r3,#0x3                              
ram:0003db9c    c905            lsls        param_2,param_2,#0x17                   
ram:0003db9e    394c            ldr         r4,[DAT_0003dc84]                       ;= 20002C60h
ram:0003dba0    c850            str         param_1,[param_2,r3]=>DAT_50000508      
ram:0003dba2    2088            ldrh        param_1,[r4,#0x0]=>DAT_20002c60         
ram:0003dba4    0123            movs        r3,#0x1                                 
ram:0003dba6    0ea9            add         param_2,sp,#0x38                        
ram:0003dba8    fff769fe        bl          FUN_0003d87e                            ;undefined FUN_0003d87e(void)
ram:0003dbac    0028            cmp         param_1,#0x0                            
ram:0003dbae    03d0            beq         LAB_0003dbb8                            
ram:0003dbb0    0022            movs        r2,#0x0                                 
ram:0003dbb2    1100            movs        param_2,r2                              
ram:0003dbb4    fef704fb        bl          FUN_0003c1c0                            ;undefined FUN_0003c1c0(void)
                            LAB_0003dbb8:                 ;XREF[1,0]:   0003dbae
ram:0003dbb8    374b            ldr         r3,[DAT_0003dc98]                       ;= 20002DFFh
ram:0003dbba    1b78            ldrb        r3,[r3,#0x0]=>DAT_20002dff              
ram:0003dbbc    002b            cmp         r3,#0x0                                 
ram:0003dbbe    01d1            bne         LAB_0003dbc4                            
ram:0003dbc0    fff7fafe        bl          FUN_0003d9b8                            ;undefined FUN_0003d9b8(void)
                            LAB_0003dbc4:                 ;XREF[1,0]:   0003dbbe
ram:0003dbc4    0123            movs        r3,#0x1                                 
ram:0003dbc6    5b42            rsbs        r3,r3                                   
ram:0003dbc8    2380            strh        r3,[r4,#0x0]=>DAT_20002c60              
ram:0003dbca    6fe7            b           LAB_0003daac                            
                            LAB_0003dbcc:                 ;XREF[1,0]:   0003db1e
ram:0003dbcc    fff7f4fe        bl          FUN_0003d9b8                            ;undefined FUN_0003d9b8(void)
ram:0003dbd0    6ce7            b           LAB_0003daac                            
                            LAB_0003dbd2:                 ;XREF[1,0]:   0003daaa
ram:0003dbd2    2c4b            ldr         r3=>DAT_20002c60,[DAT_0003dc84]         ;= 20002C60h
ram:0003dbd4    0021            movs        param_2,#0x0                            
ram:0003dbd6    1888            ldrh        param_1,[r3,#0x0]=>DAT_20002c60         
ram:0003dbd8    fff753fe        bl          FUN_0003d882                            ;undefined FUN_0003d882(void)
ram:0003dbdc    88e7            b           LAB_0003daf0                            
                            LAB_0003dbde:                 ;XREF[1,0]:   0003dafc
ram:0003dbde    a379            ldrb        r3,[r4,#0x6]                            
ram:0003dbe0    002b            cmp         r3,#0x0                                 
ram:0003dbe2    00d1            bne         LAB_0003dbe6                            
ram:0003dbe4    62e7            b           LAB_0003daac                            
                            LAB_0003dbe6:                 ;XREF[1,0]:   0003dbe2
ram:0003dbe6    a27a            ldrb        r2,[r4,#0xa]                            
ram:0003dbe8    043a            subs        r2,#0x4                                 
ram:0003dbea    022a            cmp         r2,#0x2                                 
ram:0003dbec    00d9            bls         LAB_0003dbf0                            
ram:0003dbee    5de7            b           LAB_0003daac                            
                            LAB_0003dbf0:                 ;XREF[1,0]:   0003dbec
ram:0003dbf0    0ea9            add         param_2,sp,#0x38                        
ram:0003dbf2    022b            cmp         r3,#0x2                                 
ram:0003dbf4    08d1            bne         LAB_0003dc08                            
                            LAB_0003dbf6:                 ;XREF[1,0]:   0003dc0a
ram:0003dbf6    0b70            strb        r3,[param_2,#0x0]=>local_90             
ram:0003dbf8    c123            movs        r3,#0xc1                                
ram:0003dbfa    5b00            lsls        r3,r3,#0x1                              
ram:0003dbfc    8b80            strh        r3,[r1,#local_8c+0x90]                  
ram:0003dbfe    214b            ldr         r3=>DAT_20002c60,[DAT_0003dc84]         ;= 20002C60h
ram:0003dc00    1888            ldrh        param_1,[r3,#0x0]=>DAT_20002c60         
ram:0003dc02    fff738fe        bl          FUN_0003d876                            ;undefined FUN_0003d876(void)
ram:0003dc06    73e7            b           LAB_0003daf0                            
                            LAB_0003dc08:                 ;XREF[1,0]:   0003dbf4
ram:0003dc08    0123            movs        r3,#0x1                                 
ram:0003dc0a    f4e7            b           LAB_0003dbf6                            
                            LAB_0003dc0c:                 ;XREF[1,0]:   0003da9c
ram:0003dc0c    1c4a            ldr         r2,[DAT_0003dc80]                       ;= 20002D7Ch
ram:0003dc0e    e089            ldrh        param_1,[r4,#0xe]                       
ram:0003dc10    538d            ldrh        r3,[r2,#0x2a]=>DAT_20002da6             
ram:0003dc12    0021            movs        param_2,#0x0                            
ram:0003dc14    9842            cmp         param_1,r3                              
ram:0003dc16    01d1            bne         LAB_0003dc1c                            
ram:0003dc18    1100            movs        param_2,r2                              
ram:0003dc1a    1831            adds        param_2,#0x18                           
                            LAB_0003dc1c:                 ;XREF[1,0]:   0003dc16
ram:0003dc1c    0732            adds        r2,#0x7                                 
ram:0003dc1e    a088            ldrh        param_1,[r4,#0x4]                       
ram:0003dc20    0023            movs        r3,#0x0                                 
ram:0003dc22    fff724fe        bl          FUN_0003d86e                            ;undefined FUN_0003d86e(void)
ram:0003dc26    63e7            b           LAB_0003daf0                            
                            LAB_0003dc28:                 ;XREF[2,0]:   0003db04,0003db40
ram:0003dc28    164b            ldr         r3,[DAT_0003dc84]                       ;= 20002C60h
ram:0003dc2a    1c4d            ldr         r5,[DAT_0003dc9c]                       ;= 0000FFFFh
ram:0003dc2c    1c88            ldrh        r4,[r3,#0x0]=>DAT_20002c60              
ram:0003dc2e    ac42            cmp         r4,r5                                   
ram:0003dc30    22d0            beq         LAB_0003dc78                            
ram:0003dc32    1b4b            ldr         r3,[DAT_0003dca0]                       ;= 20002DB8h
ram:0003dc34    1978            ldrb        param_2,[r3,#0x0]=>DAT_20002db8         
ram:0003dc36    0029            cmp         param_2,#0x0                            
ram:0003dc38    18d0            beq         LAB_0003dc6c                            
ram:0003dc3a    1149            ldr         param_2,[DAT_0003dc80]                  ;= 20002D7Ch
ram:0003dc3c    0123            movs        r3,#0x1                                 
ram:0003dc3e    0822            movs        r2,#0x8                                 
ram:0003dc40    3431            adds        param_2,#0x34                           
ram:0003dc42    2000            movs        param_1,r4                              
ram:0003dc44    fff719fe        bl          FUN_0003d87a                            ;undefined FUN_0003d87a(void)
ram:0003dc48    0028            cmp         param_1,#0x0                            
ram:0003dc4a    00d0            beq         LAB_0003dc4e                            
ram:0003dc4c    52e7            b           LAB_0003daf4                            
                            LAB_0003dc4e:                 ;XREF[1,0]:   0003dc4a
ram:0003dc4e    2a00            movs        r2,r5                                   
ram:0003dc50    0c21            movs        param_2,#0xc                            
ram:0003dc52    2000            movs        param_1,r4                              
ram:0003dc54    fff70dfe        bl          FUN_0003d872                            ;undefined FUN_0003d872(void)
ram:0003dc58    0222            movs        r2,#0x2                                 
ram:0003dc5a    124b            ldr         r3,[DAT_0003dca4]                       ;= FFFFCFFEh
ram:0003dc5c    c318            adds        r3,param_1,r3                           
ram:0003dc5e    9343            bics        r3,r2                                   
ram:0003dc60    00d1            bne         LAB_0003dc64                            
ram:0003dc62    23e7            b           LAB_0003daac                            
                            LAB_0003dc64:                 ;XREF[1,0]:   0003dc60
ram:0003dc64    0828            cmp         param_1,#0x8                            
ram:0003dc66    00d0            beq         LAB_0003dc6a                            
ram:0003dc68    42e7            b           LAB_0003daf0                            
                            LAB_0003dc6a:                 ;XREF[1,0]:   0003dc66
ram:0003dc6a    1fe7            b           LAB_0003daac                            
                            LAB_0003dc6c:                 ;XREF[1,0]:   0003dc38
ram:0003dc6c    0b00            movs        r3,param_2                              
ram:0003dc6e    0a00            movs        r2,param_2                              
ram:0003dc70    2000            movs        param_1,r4                              
ram:0003dc72    fff702fe        bl          FUN_0003d87a                            ;undefined FUN_0003d87a(void)
ram:0003dc76    3be7            b           LAB_0003daf0                            
                            LAB_0003dc78:                 ;XREF[1,0]:   0003dc30
ram:0003dc78    0820            movs        param_1,#0x8                            
ram:0003dc7a    3be7            b           LAB_0003daf4                            
                            DAT_0003dc7c:                 ;XREF[1,0]:   0003da90
ram:0003dc7c    bc2d0020        undefined4  20002DBCh                               
                            DAT_0003dc80:                 ;XREF[3,0]:   0003dab8,0003dc0c,0003dc3a
ram:0003dc80    7c2d0020        undefined4  20002D7Ch                               
                            DAT_0003dc84:                 ;XREF[7,0]:   0003dade,0003db4c,0003db7a,0003db9e
                                                          ;             0003dbd2,0003dbfe,0003dc28
ram:0003dc84    602c0020        undefined4  20002C60h                               
                            DAT_0003dc88:                 ;XREF[1,0]:   0003dae0
ram:0003dc88    fa2d0020        undefined4  20002DFAh                               
                            DAT_0003dc8c:                 ;XREF[2,0]:   0003db10,0003db80
ram:0003dc8c    ec2d0020        undefined4  20002DECh                               
                            DAT_0003dc90:                 ;XREF[2,0]:   0003db14,0003db8e
ram:0003dc90    642c0020        undefined4  20002C64h                               
                            DAT_0003dc94:                 ;XREF[1,0]:   0003db68
ram:0003dc94    0c050000        undefined4  0000050Ch                               
                            DAT_0003dc98:                 ;XREF[1,0]:   0003dbb8
ram:0003dc98    ff2d0020        undefined4  20002DFFh                               
                            DAT_0003dc9c:                 ;XREF[1,0]:   0003dc2a
ram:0003dc9c    ffff0000        undefined4  0000FFFFh                               
                            DAT_0003dca0:                 ;XREF[1,0]:   0003dc32
ram:0003dca0    b82d0020        undefined4  20002DB8h                               
                            DAT_0003dca4:                 ;XREF[1,0]:   0003dc5a
ram:0003dca4    fecfffff        undefined4  FFFFCFFEh                               
                            ;************************************************************************************************
                            ;*                                           FUNCTION                                           *
                            ;************************************************************************************************
                            ;int FUN_0003dca8(void)
          ;local_14      undefined4         -14                      ;XREF[1,0]:   0003dda2
          ;local_18      undefined4         -18                      ;XREF[1,0]:   0003dda0
          ;local_1c      undefined1         -1c                      ;XREF[1,0]:   0003dd9e
          ;local_1e      undefined2         -1e                      ;XREF[1,0]:   0003dd9c
          ;local_20      undefined1         -20                      ;XREF[1,0]:   0003dd94
          ;local_24      undefined4         -24                      ;XREF[2,0]:   0003dd6a,0003dd90
          ;local_28      undefined4         -28                      ;XREF[3,1]:   0003dd3e,0003dd64,0003dd8a,0003dd40
          ;local_2c      undefined4         -2c                      ;XREF[3,1]:   0003dd32,0003dd5e,0003dd9a,0003dd36
          ;local_30      undefined1         -30                      ;XREF[1,0]:   0003dd06
                                                          ;XREF[1,0]:   0003ce72
ram:0003dca8    0023            movs        r3,#0x0                                 
ram:0003dcaa    564a            ldr         r2,[DAT_0003de04]                       ;= 20002DFFh
ram:0003dcac    70b5            push        {r4,r5,r6,lr}                           
ram:0003dcae    1370            strb        r3,[r2,#0x0]=>DAT_20002dff              
ram:0003dcb0    554a            ldr         r2,[DAT_0003de08]                       ;= 20002DF9h
ram:0003dcb2    5649            ldr         r1,[DAT_0003de0c]                       ;= 00000754h
ram:0003dcb4    1370            strb        r3,[r2,#0x0]=>DAT_20002df9              
ram:0003dcb6    a023            movs        r3,#0xa0                                
ram:0003dcb8    0322            movs        r2,#0x3                                 
ram:0003dcba    db05            lsls        r3,r3,#0x17                             
ram:0003dcbc    5a50            str         r2,[r3,r1]=>DAT_50000754                
ram:0003dcbe    0431            adds        r1,#0x4                                 
ram:0003dcc0    5a50            str         r2,[r3,r1]=>DAT_50000758                
ram:0003dcc2    a122            movs        r2,#0xa1                                
ram:0003dcc4    8021            movs        r1,#0x80                                
ram:0003dcc6    d200            lsls        r2,r2,#0x3                              
ram:0003dcc8    8903            lsls        r1,r1,#0xe                              
ram:0003dcca    9950            str         r1,[r3,r2]=>DAT_50000508                
ram:0003dccc    8021            movs        r1,#0x80                                
ram:0003dcce    c903            lsls        r1,r1,#0xf                              
ram:0003dcd0    88b0            sub         sp,#0x20                                
ram:0003dcd2    9950            str         r1,[r3,r2]=>DAT_50000508                
ram:0003dcd4    4e48            ldr         r0,[PTR_LAB_0003da84+1+1_0003de10]      ;= 0003da85
ram:0003dcd6    01f0cffb        bl          FUN_0003f478                            ;undefined4 FUN_0003f478(int param_1)
ram:0003dcda    051e            subs        r5,r0,#0x0                              
ram:0003dcdc    79d1            bne         LAB_0003ddd2                            
ram:0003dcde    4d48            ldr         r0,[PTR_LAB_0003d944+1+1_0003de14]      ;= 0003d945
ram:0003dce0    fff74cfb        bl          FUN_0003d37c                            ;undefined FUN_0003d37c(undefined4 pa...
ram:0003dce4    00f014fa        bl          FUN_0003e110                            ;undefined FUN_0003e110(void)
ram:0003dce8    051e            subs        r5,r0,#0x0                              
ram:0003dcea    72d1            bne         LAB_0003ddd2                            
ram:0003dcec    4a48            ldr         r0,[DAT_0003de18]                       ;= 20002D7Ch
ram:0003dcee    00f02dfc        bl          FUN_0003e54c                            ;undefined4 FUN_0003e54c(int param_1)
ram:0003dcf2    01ac            add         r4,sp,#0x4                              
ram:0003dcf4    0028            cmp         r0,#0x0                                 
ram:0003dcf6    00d0            beq         LAB_0003dcfa                            
ram:0003dcf8    6ee0            b           LAB_0003ddd8                            
                            LAB_0003dcfa:                 ;XREF[1,0]:   0003dcf6
ram:0003dcfa    0122            movs        r2,#0x1                                 
ram:0003dcfc    474b            ldr         r3,[DAT_0003de1c]                       ;= 20002DB8h
ram:0003dcfe    1a70            strb        r2,[r3,#0x0]=>DAT_20002db8              
                            LAB_0003dd00:                 ;XREF[2,0]:   0003ddf6,0003de00
ram:0003dd00    6a46            mov         r2,sp                                   
ram:0003dd02    1123            movs        r3,#0x11                                
ram:0003dd04    464e            ldr         r6,[PTR_s_DfuTarg_0003de20]             ;= 0003f6e0
ram:0003dd06    1370            strb        r3,[r2,#0x0]=>local_30                  
ram:0003dd08    3000            movs        r0=>s_DfuTarg_0003f6df+1,r6             ;= "DfuTarg"
ram:0003dd0a    01f0d3fc        bl          FUN_0003f6b4                            ;int FUN_0003f6b4(int param_1)
ram:0003dd0e    3100            movs        r1=>s_DfuTarg_0003f6df+1,r6             ;= "DfuTarg"
ram:0003dd10    82b2            uxth        r2,r0                                   
ram:0003dd12    6846            mov         r0,sp                                   
ram:0003dd14    fff7a7fd        bl          FUN_0003d866                            ;undefined FUN_0003d866(void)
ram:0003dd18    0028            cmp         r0,#0x0                                 
ram:0003dd1a    03d0            beq         LAB_0003dd24                            
ram:0003dd1c    0022            movs        r2,#0x0                                 
ram:0003dd1e    1100            movs        r1,r2                                   
ram:0003dd20    fef74efa        bl          FUN_0003c1c0                            ;undefined FUN_0003c1c0(void)
                            LAB_0003dd24:                 ;XREF[1,0]:   0003dd1a
ram:0003dd24    0822            movs        r2,#0x8                                 
ram:0003dd26    0021            movs        r1,#0x0                                 
ram:0003dd28    2000            movs        r0,r4                                   
ram:0003dd2a    fef73ffa        bl          FUN_0003c1ac                            ;undefined FUN_0003c1ac(undefined * p...
ram:0003dd2e    0c23            movs        r3,#0xc                                 
ram:0003dd30    0026            movs        r6,#0x0                                 
ram:0003dd32    2380            strh        r3,[r4,#0x0]=>local_2c                  
ram:0003dd34    db18            adds        r3,r3,r3                                
ram:0003dd36    6380            strh        r3,[r4,#local_2c+0x2e]                  
ram:0003dd38    7933            adds        r3,#0x79                                
ram:0003dd3a    ff33            adds        r3,#0xff                                
ram:0003dd3c    2000            movs        r0,r4                                   
ram:0003dd3e    a680            strh        r6,[r4,#local_28+0x2c]                  
ram:0003dd40    e380            strh        r3,[r4,#local_28+0x2e]                  
ram:0003dd42    fff78efd        bl          FUN_0003d862                            ;undefined FUN_0003d862(void)
ram:0003dd46    b042            cmp         r0,r6                                   
ram:0003dd48    03d0            beq         LAB_0003dd52                            
ram:0003dd4a    3200            movs        r2,r6                                   
ram:0003dd4c    3100            movs        r1,r6                                   
ram:0003dd4e    fef737fa        bl          FUN_0003c1c0                            ;undefined FUN_0003c1c0(void)
                            LAB_0003dd52:                 ;XREF[1,0]:   0003dd48
ram:0003dd52    0021            movs        r1,#0x0                                 
ram:0003dd54    0c22            movs        r2,#0xc                                 
ram:0003dd56    2000            movs        r0,r4                                   
ram:0003dd58    fef728fa        bl          FUN_0003c1ac                            ;undefined FUN_0003c1ac(undefined * p...
ram:0003dd5c    0423            movs        r3,#0x4                                 
ram:0003dd5e    2380            strh        r3,[r4,#0x0]=>local_2c                  
ram:0003dd60    304b            ldr         r3,[PTR_LAB_0003deb0+1+1_0003de24]      ;= 0003deb1
ram:0003dd62    2100            movs        r1,r4                                   
ram:0003dd64    6360            str         r3,[r4,#local_28+0x2c]                  
ram:0003dd66    304b            ldr         r3,[PTR_FUN_0003d8bc+1_0003de28]        ;= 0003d8bd
ram:0003dd68    3048            ldr         r0,[DAT_0003de2c]                       ;= 20002DBCh
ram:0003dd6a    a360            str         r3,[r4,#local_24+0x2c]                  
ram:0003dd6c    01f03ef8        bl          FUN_0003edec                            ;int FUN_0003edec(undefined2 * param_...
ram:0003dd70    0028            cmp         r0,#0x0                                 
ram:0003dd72    03d0            beq         LAB_0003dd7c                            
ram:0003dd74    0022            movs        r2,#0x0                                 
ram:0003dd76    1100            movs        r1,r2                                   
ram:0003dd78    fef722fa        bl          FUN_0003c1c0                            ;undefined FUN_0003c1c0(void)
                            LAB_0003dd7c:                 ;XREF[1,0]:   0003dd72
ram:0003dd7c    1c22            movs        r2,#0x1c                                
ram:0003dd7e    0021            movs        r1,#0x0                                 
ram:0003dd80    2000            movs        r0,r4                                   
ram:0003dd82    fef713fa        bl          FUN_0003c1ac                            ;undefined FUN_0003c1ac(undefined * p...
ram:0003dd86    2a4b            ldr         r3,[DAT_0003de30]                       ;= 00000CCDh
ram:0003dd88    0026            movs        r6,#0x0                                 
ram:0003dd8a    6360            str         r3,[r4,#local_28+0x2c]                  
ram:0003dd8c    8023            movs        r3,#0x80                                
ram:0003dd8e    db01            lsls        r3,r3,#0x7                              
ram:0003dd90    a360            str         r3,[r4,#local_24+0x2c]                  
ram:0003dd92    0323            movs        r3,#0x3                                 
ram:0003dd94    2373            strb        r3,[r4,#local_20+0x2c]                  
ram:0003dd96    274b            ldr         r3=>LAB_0003d8c8...,[PTR_LAB_0003d8c8...;= 0003d8c9
ram:0003dd98    2000            movs        r0,r4                                   
ram:0003dd9a    0196            str         r6,[sp,#local_2c+0x30]                  
ram:0003dd9c    e681            strh        r6,[r4,#local_1e+0x2c]                  
ram:0003dd9e    2674            strb        r6,[r4,#local_1c+0x2c]                  
ram:0003dda0    6661            str         r6,[r4,#local_18+0x2c]                  
ram:0003dda2    a361            str         r3=>LAB_0003d8c8+1+1,[r4,#local_14+0x2c]
ram:0003dda4    00f080ff        bl          FUN_0003eca8                            ;undefined FUN_0003eca8(int * param_1)
ram:0003dda8    b042            cmp         r0,r6                                   
ram:0003ddaa    03d0            beq         LAB_0003ddb4                            
ram:0003ddac    3200            movs        r2,r6                                   
ram:0003ddae    3100            movs        r1,r6                                   
ram:0003ddb0    fef706fa        bl          FUN_0003c1c0                            ;undefined FUN_0003c1c0(void)
                            LAB_0003ddb4:                 ;XREF[1,0]:   0003ddaa
ram:0003ddb4    e021            movs        r1,#0xe0                                
ram:0003ddb6    204a            ldr         r2,[DAT_0003de38]                       ;= 20002DFAh
ram:0003ddb8    1378            ldrb        r3,[r2,#0x0]=>DAT_20002dfa              
ram:0003ddba    1940            ands        r1,r3                                   
ram:0003ddbc    0c23            movs        r3,#0xc                                 
ram:0003ddbe    0b43            orrs        r3,r1                                   
ram:0003ddc0    2021            movs        r1,#0x20                                
ram:0003ddc2    8b43            bics        r3,r1                                   
ram:0003ddc4    1370            strb        r3,[r2,#0x0]=>DAT_20002dfa              
ram:0003ddc6    0723            movs        r3,#0x7                                 
ram:0003ddc8    5370            strb        r3,[r2,#0x1]=>DAT_20002dfb              
ram:0003ddca    0933            adds        r3,#0x9                                 
ram:0003ddcc    9370            strb        r3,[r2,#0x2]=>DAT_20002dfc              
ram:0003ddce    fff7f3fd        bl          FUN_0003d9b8                            ;undefined FUN_0003d9b8(void)
                            LAB_0003ddd2:                 ;XREF[2,0]:   0003dcdc,0003dcea
ram:0003ddd2    2800            movs        r0,r5                                   
ram:0003ddd4    08b0            add         sp,#0x20                                
ram:0003ddd6    70bd            pop         {r4,r5,r6,pc}                           
                            LAB_0003ddd8:                 ;XREF[1,0]:   0003dcf8
ram:0003ddd8    2000            movs        r0,r4                                   
ram:0003ddda    fff73afd        bl          FUN_0003d852                            ;undefined FUN_0003d852(void)
ram:0003ddde    0028            cmp         r0,#0x0                                 
ram:0003dde0    03d0            beq         LAB_0003ddea                            
ram:0003dde2    2a00            movs        r2,r5                                   
ram:0003dde4    2900            movs        r1,r5                                   
ram:0003dde6    fef7ebf9        bl          FUN_0003c1c0                            ;undefined FUN_0003c1c0(void)
                            LAB_0003ddea:                 ;XREF[1,0]:   0003dde0
ram:0003ddea    2100            movs        r1,r4                                   
ram:0003ddec    0020            movs        r0,#0x0                                 
ram:0003ddee    fff72efd        bl          FUN_0003d84e                            ;undefined FUN_0003d84e(void)
ram:0003ddf2    0028            cmp         r0,#0x0                                 
ram:0003ddf4    00d1            bne         LAB_0003ddf8                            
ram:0003ddf6    83e7            b           LAB_0003dd00                            
                            LAB_0003ddf8:                 ;XREF[1,0]:   0003ddf4
ram:0003ddf8    0022            movs        r2,#0x0                                 
ram:0003ddfa    1100            movs        r1,r2                                   
ram:0003ddfc    fef7e0f9        bl          FUN_0003c1c0                            ;undefined FUN_0003c1c0(void)
ram:0003de00    7ee7            b           LAB_0003dd00                            
ram:0003de02    c046            mov         r8,r8                                   
                            DAT_0003de04:                 ;XREF[1,0]:   0003dcaa
ram:0003de04    ff2d0020        undefined4  20002DFFh                               
                            DAT_0003de08:                 ;XREF[1,0]:   0003dcb0
ram:0003de08    f92d0020        undefined4  20002DF9h                               
                            DAT_0003de0c:                 ;XREF[1,0]:   0003dcb2
ram:0003de0c    54070000        undefined4  00000754h                               
                            PTR_LAB_0003da84+1+1_0003de10:;XREF[1,0]:   0003dcd4
ram:0003de10    85da0300        addr        LAB_0003da84+1+1                        
                            PTR_LAB_0003d944+1+1_0003de14:;XREF[1,0]:   0003dcde
ram:0003de14    45d90300        addr        LAB_0003d944+1+1                        
                            DAT_0003de18:                 ;XREF[1,0]:   0003dcec
ram:0003de18    7c2d0020        undefined4  20002D7Ch                               
                            DAT_0003de1c:                 ;XREF[1,0]:   0003dcfc
ram:0003de1c    b82d0020        undefined4  20002DB8h                               
                            PTR_s_DfuTarg_0003de20:       ;XREF[1,0]:   0003dd04
ram:0003de20    e0f60300        addr        s_DfuTarg_0003f6df+1                    ;= "DfuTarg"
                            PTR_LAB_0003deb0+1+1_0003de24:;XREF[1,0]:   0003dd60
ram:0003de24    b1de0300        addr        LAB_0003deb0+1+1                        
                            PTR_FUN_0003d8bc+1_0003de28:  ;XREF[1,0]:   0003dd66
ram:0003de28    bdd80300        addr        FUN_0003d8bc+1                          
                            DAT_0003de2c:                 ;XREF[1,0]:   0003dd68
ram:0003de2c    bc2d0020        undefined4  20002DBCh                               
                            DAT_0003de30:                 ;XREF[1,0]:   0003dd86
ram:0003de30    cd0c0000        undefined4  00000CCDh                               
                            PTR_LAB_0003d8c8+1+1_0003de34:;XREF[1,0]:   0003dd96
ram:0003de34    c9d80300        addr        LAB_0003d8c8+1+1                        
                            DAT_0003de38:                 ;XREF[1,0]:   0003ddb6
ram:0003de38    fa2d0020        undefined4  20002DFAh                               
                            ;************************************************************************************************
                            ;*                                           FUNCTION                                           *
                            ;************************************************************************************************
                            ;undefined4 FUN_0003de3c(undefined4 param_1, uint param_2)
          ;param_1       undefined4          r0                      
          ;param_2       uint                r1                      
                                                          ;XREF[3,0]:   0003cdf4,0003def8,0003df18
ram:0003de3c    0122            movs        r2,#0x1                                 
ram:0003de3e    10b5            push        {r4,lr}                                 
ram:0003de40    174b            ldr         r3,[DAT_0003dea0]                       ;= 20002DFFh
ram:0003de42    1a70            strb        r2,[r3,#0x0]=>DAT_20002dff              
ram:0003de44    174b            ldr         r3,[DAT_0003dea4]                       ;= 20002C60h
ram:0003de46    1888            ldrh        param_1,[r3,#0x0]=>DAT_20002c60         
ram:0003de48    174b            ldr         r3,[DAT_0003dea8]                       ;= 0000FFFFh
ram:0003de4a    9842            cmp         param_1,r3                              
ram:0003de4c    12d0            beq         LAB_0003de74                            
ram:0003de4e    1321            movs        param_2,#0x13                           
ram:0003de50    fff705fd        bl          FUN_0003d85e                            ;undefined FUN_0003d85e(void)
ram:0003de54    0028            cmp         param_1,#0x0                            
ram:0003de56    03d0            beq         LAB_0003de60                            
ram:0003de58    0022            movs        r2,#0x0                                 
ram:0003de5a    1100            movs        param_2,r2                              
ram:0003de5c    fef7b0f9        bl          FUN_0003c1c0                            ;undefined FUN_0003c1c0(void)
                            LAB_0003de60:                 ;XREF[3,0]:   0003de56,0003de7a,0003de9e
ram:0003de60    00f05aff        bl          FUN_0003ed18                            ;undefined8 FUN_0003ed18(undefined4 p...
ram:0003de64    0028            cmp         param_1,#0x0                            
ram:0003de66    03d0            beq         LAB_0003de70                            
ram:0003de68    0022            movs        r2,#0x0                                 
ram:0003de6a    1100            movs        param_2,r2                              
ram:0003de6c    fef7a8f9        bl          FUN_0003c1c0                            ;undefined FUN_0003c1c0(void)
                            LAB_0003de70:                 ;XREF[1,0]:   0003de66
ram:0003de70    0020            movs        param_1,#0x0                            
ram:0003de72    10bd            pop         {r4,pc}                                 
                            LAB_0003de74:                 ;XREF[1,0]:   0003de4c
ram:0003de74    0d4c            ldr         r4,[DAT_0003deac]                       ;= 20002DECh
ram:0003de76    2378            ldrb        r3,[r4,#0x0]=>DAT_20002dec              
ram:0003de78    002b            cmp         r3,#0x0                                 
ram:0003de7a    f1d0            beq         LAB_0003de60                            
ram:0003de7c    fff7edfc        bl          FUN_0003d85a                            ;undefined FUN_0003d85a(void)
ram:0003de80    0028            cmp         param_1,#0x0                            
ram:0003de82    03d0            beq         LAB_0003de8c                            
ram:0003de84    0022            movs        r2,#0x0                                 
ram:0003de86    1100            movs        param_2,r2                              
ram:0003de88    fef79af9        bl          FUN_0003c1c0                            ;undefined FUN_0003c1c0(void)
                            LAB_0003de8c:                 ;XREF[1,0]:   0003de82
ram:0003de8c    8021            movs        param_2,#0x80                           
ram:0003de8e    a123            movs        r3,#0xa1                                
ram:0003de90    a022            movs        r2,#0xa0                                
ram:0003de92    db00            lsls        r3,r3,#0x3                              
ram:0003de94    8903            lsls        param_2,param_2,#0xe                    
ram:0003de96    d205            lsls        r2,r2,#0x17                             
ram:0003de98    d150            str         param_2,[r2,r3]=>DAT_50000508           
ram:0003de9a    0023            movs        r3,#0x0                                 
ram:0003de9c    2370            strb        r3,[r4,#0x0]=>DAT_20002dec              
ram:0003de9e    dfe7            b           LAB_0003de60                            
                            DAT_0003dea0:                 ;XREF[1,0]:   0003de40
ram:0003dea0    ff2d0020        undefined4  20002DFFh                               
                            DAT_0003dea4:                 ;XREF[1,0]:   0003de44
ram:0003dea4    602c0020        undefined4  20002C60h                               
                            DAT_0003dea8:                 ;XREF[1,0]:   0003de48
ram:0003dea8    ffff0000        undefined4  0000FFFFh                               
                            DAT_0003deac:                 ;XREF[1,0]:   0003de74
ram:0003deac    ec2d0020        undefined4  20002DECh                               
                            ;************************************************************************************************
                            ;*                                           FUNCTION                                           *
                            ;************************************************************************************************
                            ;undefined LAB_0003deb0+1(ushort * param_1, byte * param_2, undefined4 param_3)
          ;param_1       ushort *            r0                      
          ;param_2       byte *              r1                      
          ;param_3       undefined4          r2                      
          ;local_1c      undefined4         -1c                      ;XREF[1,0]:   0003dfb0
          ;local_20      undefined4         -20                      ;XREF[3,0]:   0003dfa6,0003dfec,0003e056
          ;local_24      undefined4         -24                      ;XREF[3,0]:   0003df9e,0003dff2,0003e052
          ;local_28      undefined4         -28                      ;XREF[3,0]:   0003df84,0003dfe6,0003e04a
          ;local_30      undefined4         -30                      ;XREF[1,0]:   0003df8c
          ;local_34      undefined4         -34                      ;XREF[5,0]:   0003df8e,0003e014,0003e02a,0003e032,0003e04c
                                                          ;XREF[0,1]:   0003de24
ram:0003deb0    f0b5            push        {r4,r5,r6,r7,lr}                        
ram:0003deb2    0500            movs        r5,param_1                              
ram:0003deb4    0878            ldrb        param_1,[param_2,#0x0]                  
ram:0003deb6    89b0            sub         sp,#0x24                                
ram:0003deb8    0c00            movs        r4,param_2                              
ram:0003deba    0928            cmp         param_1,#0x9                            
ram:0003debc    2ad8            bhi         switchD_0003debe::caseD_a               
                            switchD:                      ; FWD[12,0]:  0003ded6,0003def8,0003df14,0003df18
                                                          ;             0003df2a,0003df3a,0003df58,0003df5e
                                                          ;             0003e0c8,0003e0da,0003e0e4,0003f558
ram:0003debe    01f04bfb        bl          __gnu_thumb1_case_uhi                   ;undefined8 __gnu_thumb1_case_uhi(und...
                            switchdataD_0003dec2:         
ram:0003dec2    3400            ushort      34h                                     
ram:0003dec4    3c00            ushort      3Ch                                     
ram:0003dec6    4b00            ushort      4Bh                                     
ram:0003dec8    0a00            ushort      Ah                                      
ram:0003deca    1b00            ushort      1Bh                                     
ram:0003decc    2b00            ushort      2Bh                                     
ram:0003dece    0301            ushort      103h                                    
ram:0003ded0    0c01            ushort      10Ch                                    
ram:0003ded2    4e00            ushort      4Eh                                     
ram:0003ded4    1101            ushort      111h                                    
                            caseD_3:                      ;XREF[1,0]:   0003debe
ram:0003ded6    fff74dfb        bl          FUN_0003d574                            ;int FUN_0003d574(undefined4 param_1,...
ram:0003deda    0421            movs        param_2,#0x4                            
ram:0003dedc    fff7d3fc        bl          FUN_0003d886                            ;int FUN_0003d886(undefined4 param_1,...
ram:0003dee0    0421            movs        param_2,#0x4                            
ram:0003dee2    0200            movs        param_3,param_1                         
                            LAB_0003dee4:                 ;XREF[2,0]:   0003df56,0003e008
ram:0003dee4    2800            movs        param_1,r5                              
ram:0003dee6    01f019f9        bl          FUN_0003f11c                            ;undefined4 FUN_0003f11c(ushort * par...
                            LAB_0003deea:                 ;XREF[1,0]:   0003e0ee
ram:0003deea    0028            cmp         param_1,#0x0                            
ram:0003deec    12d0            beq         switchD_0003debe::caseD_a               
ram:0003deee    0022            movs        param_3,#0x0                            
ram:0003def0    1100            movs        param_2,param_3                         
ram:0003def2    fef765f9        bl          FUN_0003c1c0                            ;undefined FUN_0003c1c0(void)
ram:0003def6    0de0            b           switchD_0003debe::caseD_a               
                            caseD_4:                      ;XREF[1,0]:   0003debe
ram:0003def8    fff7a0ff        bl          FUN_0003de3c                            ;undefined4 FUN_0003de3c(undefined4 p...
ram:0003defc    0028            cmp         param_1,#0x0                            
ram:0003defe    03d0            beq         LAB_0003df08                            
ram:0003df00    0022            movs        param_3,#0x0                            
ram:0003df02    1100            movs        param_2,param_3                         
ram:0003df04    fef75cf9        bl          FUN_0003c1c0                            ;undefined FUN_0003c1c0(void)
                            LAB_0003df08:                 ;XREF[1,0]:   0003defe
ram:0003df08    fff75afb        bl          FUN_0003d5c0                            ;undefined4 FUN_0003d5c0(undefined4 p...
ram:0003df0c    0028            cmp         param_1,#0x0                            
ram:0003df0e    01d0            beq         switchD_0003debe::caseD_a               
                            LAB_0003df10:                 ;XREF[2,0]:   0003df1e,0003df28
ram:0003df10    fff770fb        bl          FUN_0003d5f4                            ;undefined FUN_0003d5f4(void)
                            caseD_a:                      ;XREF[16,0]:  0003debc,0003debe,0003deec,0003def6
                                                          ;             0003df0e,0003df38,0003df46,0003df6c
                                                          ;             0003dfba,0003dffc,0003e026,0003e070
                                                          ;             0003e088,0003e098,0003e0b2,0003e0d8
ram:0003df14    09b0            add         sp,#0x24                                
ram:0003df16    f0bd            pop         {r4,r5,r6,r7,pc}                        
                            caseD_5:                      ;XREF[1,0]:   0003debe
ram:0003df18    fff790ff        bl          FUN_0003de3c                            ;undefined4 FUN_0003de3c(undefined4 p...
ram:0003df1c    0028            cmp         param_1,#0x0                            
ram:0003df1e    f7d0            beq         LAB_0003df10                            
ram:0003df20    0022            movs        param_3,#0x0                            
ram:0003df22    1100            movs        param_2,param_3                         
ram:0003df24    fef74cf9        bl          FUN_0003c1c0                            ;undefined FUN_0003c1c0(void)
ram:0003df28    f2e7            b           LAB_0003df10                            
                            caseD_0:                      ;XREF[1,0]:   0003debe
ram:0003df2a    0122            movs        param_3,#0x1                            
ram:0003df2c    704b            ldr         r3,[DAT_0003e0f0]                       ;= 20002DF9h
ram:0003df2e    1a70            strb        param_3,[r3,#0x0]=>DAT_20002df9         
ram:0003df30    8b68            ldr         r3,[param_2,#0x8]                       
ram:0003df32    1a78            ldrb        param_3,[r3,#0x0]                       
ram:0003df34    6f4b            ldr         r3,[DAT_0003e0f4]                       ;= 20002E00h
                            LAB_0003df36:                 ;XREF[1,0]:   0003df5c
                                                          ; FWD[2,0]:   20002df9,20002e00
ram:0003df36    1a70            strb        param_3,[r3,#0x0]=>DAT_20002df9         
ram:0003df38    ece7            b           switchD_0003debe::caseD_a               
                            caseD_1:                      ;XREF[1,0]:   0003debe
ram:0003df3a    0226            movs        r6,#0x2                                 
ram:0003df3c    6c4b            ldr         r3,[DAT_0003e0f0]                       ;= 20002DF9h
ram:0003df3e    1e70            strb        r6,[r3,#0x0]=>DAT_20002df9              
ram:0003df40    8b68            ldr         r3,[param_2,#0x8]                       
ram:0003df42    1b78            ldrb        r3,[r3,#0x0]                            
ram:0003df44    012b            cmp         r3,#0x1                                 
ram:0003df46    e5d1            bne         switchD_0003debe::caseD_a               
ram:0003df48    fff7c4fa        bl          FUN_0003d4d4                            ;int FUN_0003d4d4(void)
                            LAB_0003df4c:                 ;XREF[1,0]:   0003dfbc
ram:0003df4c    3100            movs        param_2,r6                              
ram:0003df4e    fff79afc        bl          FUN_0003d886                            ;int FUN_0003d886(undefined4 param_1,...
ram:0003df52    0200            movs        param_3,param_1                         
                            LAB_0003df54:                 ;XREF[2,0]:   0003df94,0003e010
ram:0003df54    3100            movs        param_2,r6                              
ram:0003df56    c5e7            b           LAB_0003dee4                            
                            caseD_2:                      ;XREF[1,0]:   0003debe
ram:0003df58    0322            movs        param_3,#0x3                            
ram:0003df5a    654b            ldr         r3,[DAT_0003e0f0]                       ;= 20002DF9h
ram:0003df5c    ebe7            b           LAB_0003df36                            
                            caseD_8:                      ;XREF[1,0]:   0003debe
ram:0003df5e    644b            ldr         r3=>DAT_20002df9,[DAT_0003e0f0]         ;= 20002DF9h
ram:0003df60    1e78            ldrb        r6,[r3,#0x0]=>DAT_20002df9              
ram:0003df62    022e            cmp         r6,#0x2                                 
ram:0003df64    2bd0            beq         LAB_0003dfbe                            
ram:0003df66    032e            cmp         r6,#0x3                                 
ram:0003df68    4fd0            beq         LAB_0003e00a                            
ram:0003df6a    012e            cmp         r6,#0x1                                 
ram:0003df6c    d2d1            bne         switchD_0003debe::caseD_a               
ram:0003df6e    04af            add         r7,sp,#0x10                             
ram:0003df70    1022            movs        param_3,#0x10                           
ram:0003df72    0021            movs        param_2,#0x0                            
ram:0003df74    3800            movs        param_1,r7                              
ram:0003df76    fef719f9        bl          FUN_0003c1ac                            ;undefined FUN_0003c1ac(undefined * p...
ram:0003df7a    5e4b            ldr         r3,[DAT_0003e0f4]                       ;= 20002E00h
ram:0003df7c    0c22            movs        param_3,#0xc                            
ram:0003df7e    1b78            ldrb        r3,[r3,#0x0]=>DAT_20002e00              
ram:0003df80    0021            movs        param_2,#0x0                            
ram:0003df82    01a8            add         param_1,sp,#0x4                         
ram:0003df84    3b70            strb        r3,[r7,#0x0]=>local_28                  
ram:0003df86    fef711f9        bl          FUN_0003c1ac                            ;undefined FUN_0003c1ac(undefined * p...
ram:0003df8a    0322            movs        param_3,#0x3                            
ram:0003df8c    0297            str         r7,[sp,#local_30+0x38]                  
ram:0003df8e    0192            str         param_3,[sp,#local_34+0x38]             
ram:0003df90    2379            ldrb        r3,[r4,#0x4]                            
ram:0003df92    0c2b            cmp         r3,#0xc                                 
ram:0003df94    ded1            bne         LAB_0003df54                            
ram:0003df96    a468            ldr         r4,[r4,#0x8]                            
ram:0003df98    2000            movs        param_1,r4                              
ram:0003df9a    fff74dfc        bl          FUN_0003d838                            ;undefined4 FUN_0003d838(undefined4 *...
ram:0003df9e    7860            str         param_1,[r7,#local_24+0x28]             
ram:0003dfa0    201d            adds        param_1,r4,#0x4                         
ram:0003dfa2    fff749fc        bl          FUN_0003d838                            ;undefined4 FUN_0003d838(undefined4 *...
ram:0003dfa6    b860            str         param_1,[r7,#local_20+0x28]             
ram:0003dfa8    2000            movs        param_1,r4                              
ram:0003dfaa    0830            adds        param_1,#0x8                            
ram:0003dfac    fff744fc        bl          FUN_0003d838                            ;undefined4 FUN_0003d838(undefined4 *...
ram:0003dfb0    f860            str         param_1,[r7,#local_1c+0x28]             
ram:0003dfb2    01a8            add         param_1,sp,#0x4                         
ram:0003dfb4    fff7e8f9        bl          FUN_0003d388                            ;int FUN_0003d388(int param_1)
ram:0003dfb8    0028            cmp         param_1,#0x0                            
ram:0003dfba    abd0            beq         switchD_0003debe::caseD_a               
ram:0003dfbc    c6e7            b           LAB_0003df4c                            
                            LAB_0003dfbe:                 ;XREF[1,0]:   0003df64
ram:0003dfbe    0322            movs        param_3,#0x3                            
ram:0003dfc0    0b79            ldrb        r3,[param_2,#0x4]                       
ram:0003dfc2    1a40            ands        param_3,r3                              
ram:0003dfc4    0ed0            beq         LAB_0003dfe4                            
ram:0003dfc6    991a            subs        param_2,r3,param_3                      
ram:0003dfc8    0431            adds        param_2,#0x4                            
ram:0003dfca    c9b2            uxtb        param_2,param_2                         
ram:0003dfcc    8c46            mov         r12,param_2                             
ram:0003dfce    1800            movs        param_1,r3                              
ram:0003dfd0    0027            movs        r7,#0x0                                 
                            LAB_0003dfd2:                 ;XREF[1,0]:   0003dfdc
ram:0003dfd2    a168            ldr         param_2,[r4,#0x8]                       
ram:0003dfd4    461c            adds        r6,param_1,#0x1                         
ram:0003dfd6    0f54            strb        r7,[param_2,param_1]                    
ram:0003dfd8    f0b2            uxtb        param_1,r6                              
ram:0003dfda    8445            cmp         r12,param_1                             
ram:0003dfdc    f9d1            bne         LAB_0003dfd2                            
ram:0003dfde    9b1a            subs        r3,r3,param_3                           
ram:0003dfe0    0433            adds        r3,#0x4                                 
ram:0003dfe2    2371            strb        r3,[r4,#0x4]                            
                            LAB_0003dfe4:                 ;XREF[1,0]:   0003dfc4
ram:0003dfe4    0123            movs        r3,#0x1                                 
ram:0003dfe6    0493            str         r3,[sp,#local_28+0x38]                  
ram:0003dfe8    a368            ldr         r3,[r4,#0x8]                            
ram:0003dfea    04a8            add         param_1,sp,#0x10                        
ram:0003dfec    0693            str         r3,[sp,#local_20+0x38]                  
ram:0003dfee    2379            ldrb        r3,[r4,#0x4]                            
ram:0003dff0    9b08            lsrs        r3,r3,#0x2                              
ram:0003dff2    0593            str         r3,[sp,#local_24+0x38]                  
ram:0003dff4    fff78cfa        bl          FUN_0003d510                            ;int FUN_0003d510(int param_1, uint p...
ram:0003dff8    0028            cmp         param_1,#0x0                            
ram:0003dffa    00d1            bne         LAB_0003dffe                            
ram:0003dffc    8ae7            b           switchD_0003debe::caseD_a               
                            LAB_0003dffe:                 ;XREF[1,0]:   0003dffa
ram:0003dffe    0221            movs        param_2,#0x2                            
ram:0003e000    fff741fc        bl          FUN_0003d886                            ;int FUN_0003d886(undefined4 param_1,...
ram:0003e004    0221            movs        param_2,#0x2                            
ram:0003e006    0200            movs        param_3,param_1                         
ram:0003e008    6ce7            b           LAB_0003dee4                            
                            LAB_0003e00a:                 ;XREF[1,0]:   0003df68
ram:0003e00a    0879            ldrb        param_1,[param_2,#0x4]                  
ram:0003e00c    3200            movs        param_3,r6                              
ram:0003e00e    3042            tst         param_1,r6                              
ram:0003e010    a0d1            bne         LAB_0003df54                            
ram:0003e012    394e            ldr         r6,[DAT_0003e0f8]                       ;= 20002E08h
ram:0003e014    0190            str         param_1,[sp,#local_34+0x38]             
ram:0003e016    3100            movs        param_2=>DAT_20002e08,r6                
ram:0003e018    00f08ef8        bl          FUN_0003e138                            ;undefined4 FUN_0003e138(uint param_1...
ram:0003e01c    011e            subs        param_2,param_1,#0x0                    
ram:0003e01e    03d0            beq         LAB_0003e028                            
                            LAB_0003e020:                 ;XREF[3,0]:   0003e03a,0003e046,0003e0c6
ram:0003e020    2800            movs        param_1,r5                              
ram:0003e022    fff755fc        bl          FUN_0003d8d0                            ;undefined FUN_0003d8d0(ushort * para...
ram:0003e026    75e7            b           switchD_0003debe::caseD_a               
                            LAB_0003e028:                 ;XREF[1,0]:   0003e01e
ram:0003e028    a168            ldr         param_2,[r4,#0x8]                       
ram:0003e02a    019a            ldr         param_3,[sp,#local_34+0x38]             
ram:0003e02c    3068            ldr         param_1,[r6,#0x0]=>DAT_20002e08         
ram:0003e02e    01f038fb        bl          FUN_0003f6a2                            ;undefined FUN_0003f6a2(int param_1, ...
ram:0003e032    0198            ldr         param_1,[sp,#local_34+0x38]             
ram:0003e034    00f0ecf8        bl          FUN_0003e210                            ;undefined4 FUN_0003e210(undefined4 p...
ram:0003e038    011e            subs        param_2,param_1,#0x0                    
ram:0003e03a    f1d1            bne         LAB_0003e020                            
ram:0003e03c    01a9            add         param_2,sp,#0x4                         
ram:0003e03e    3000            movs        param_1=>DAT_20002e08,r6                
ram:0003e040    00f0f4f8        bl          FUN_0003e22c                            ;undefined4 FUN_0003e22c(int * param_...
ram:0003e044    011e            subs        param_2,param_1,#0x0                    
ram:0003e046    ebd1            bne         LAB_0003e020                            
ram:0003e048    0423            movs        r3,#0x4                                 
ram:0003e04a    0493            str         r3,[sp,#local_28+0x38]                  
ram:0003e04c    019b            ldr         r3,[sp,#local_34+0x38]                  
ram:0003e04e    04a8            add         param_1,sp,#0x10                        
ram:0003e050    9b08            lsrs        r3,r3,#0x2                              
ram:0003e052    0593            str         r3,[sp,#local_24+0x38]                  
ram:0003e054    3368            ldr         r3,[r6,#0x0]=>DAT_20002e08              
ram:0003e056    0693            str         r3,[sp,#local_20+0x38]                  
ram:0003e058    fff7fef9        bl          FUN_0003d458                            ;int FUN_0003d458(int param_1, uint p...
ram:0003e05c    071e            subs        r7,param_1,#0x0                         
ram:0003e05e    08d1            bne         LAB_0003e072                            
ram:0003e060    264a            ldr         param_3,[DAT_0003e0fc]                  ;= 20002DF0h
ram:0003e062    2379            ldrb        r3,[r4,#0x4]                            
ram:0003e064    1168            ldr         param_2,[param_3,#0x0]=>DAT_20002df0    
ram:0003e066    5b18            adds        r3,r3,param_2                           
ram:0003e068    1360            str         r3,[param_3,#0x0]=>DAT_20002df0         
ram:0003e06a    3268            ldr         param_3,[r6,#0x0]=>DAT_20002e08         
ram:0003e06c    244b            ldr         r3,[DAT_0003e100]                       ;= 20002E04h
ram:0003e06e    1a60            str         param_3,[r3,#0x0]=>DAT_20002e04         
ram:0003e070    50e7            b           switchD_0003debe::caseD_a               
                            LAB_0003e072:                 ;XREF[1,0]:   0003e05e
ram:0003e072    0928            cmp         param_1,#0x9                            
ram:0003e074    1ed1            bne         LAB_0003e0b4                            
ram:0003e076    214b            ldr         r3,[DAT_0003e0fc]                       ;= 20002DF0h
ram:0003e078    2179            ldrb        param_2,[r4,#0x4]                       
ram:0003e07a    1a68            ldr         param_3,[r3,#0x0]=>DAT_20002df0         
ram:0003e07c    8918            adds        param_2,param_2,param_3                 
ram:0003e07e    1960            str         param_2,[r3,#0x0]=>DAT_20002df0         
ram:0003e080    204b            ldr         r3,[DAT_0003e104]                       ;= 20002DF8h
ram:0003e082    1b78            ldrb        r3,[r3,#0x0]=>DAT_20002df8              
ram:0003e084    002b            cmp         r3,#0x0                                 
ram:0003e086    00d1            bne         LAB_0003e08a                            
ram:0003e088    44e7            b           switchD_0003debe::caseD_a               
                            LAB_0003e08a:                 ;XREF[1,0]:   0003e086
ram:0003e08a    1f4c            ldr         r4,[DAT_0003e108]                       ;= 20002DF6h
ram:0003e08c    2388            ldrh        r3,[r4,#0x0]=>DAT_20002df6              
ram:0003e08e    013b            subs        r3,#0x1                                 
ram:0003e090    9bb2            uxth        r3,r3                                   
ram:0003e092    2380            strh        r3,[r4,#0x0]=>DAT_20002df6              
ram:0003e094    002b            cmp         r3,#0x0                                 
ram:0003e096    00d0            beq         LAB_0003e09a                            
ram:0003e098    3ce7            b           switchD_0003debe::caseD_a               
                            LAB_0003e09a:                 ;XREF[1,0]:   0003e096
ram:0003e09a    2800            movs        param_1,r5                              
ram:0003e09c    01f006f8        bl          FUN_0003f0ac                            ;undefined4 FUN_0003f0ac(ushort * par...
ram:0003e0a0    0028            cmp         param_1,#0x0                            
ram:0003e0a2    03d0            beq         LAB_0003e0ac                            
ram:0003e0a4    0022            movs        param_3,#0x0                            
ram:0003e0a6    1100            movs        param_2,param_3                         
ram:0003e0a8    fef78af8        bl          FUN_0003c1c0                            ;undefined FUN_0003c1c0(void)
                            LAB_0003e0ac:                 ;XREF[1,0]:   0003e0a2
ram:0003e0ac    174b            ldr         r3,[DAT_0003e10c]                       ;= 20002DF4h
ram:0003e0ae    1b88            ldrh        r3,[r3,#0x0]=>DAT_20002df4              
ram:0003e0b0    2380            strh        r3,[r4,#0x0]=>DAT_20002df6              
ram:0003e0b2    2fe7            b           switchD_0003debe::caseD_a               
                            LAB_0003e0b4:                 ;XREF[1,0]:   0003e074
ram:0003e0b4    3068            ldr         param_1,[r6,#0x0]=>DAT_20002e08         
ram:0003e0b6    00f067f8        bl          FUN_0003e188                            ;undefined4 FUN_0003e188(int param_1)
ram:0003e0ba    011e            subs        param_2,param_1,#0x0                    
ram:0003e0bc    02d0            beq         LAB_0003e0c4                            
ram:0003e0be    2800            movs        param_1,r5                              
ram:0003e0c0    fff706fc        bl          FUN_0003d8d0                            ;undefined FUN_0003d8d0(ushort * para...
                            LAB_0003e0c4:                 ;XREF[1,0]:   0003e0bc
ram:0003e0c4    3900            movs        param_2,r7                              
ram:0003e0c6    abe7            b           LAB_0003e020                            
                            caseD_6:                      ;XREF[1,0]:   0003debe
ram:0003e0c8    0122            movs        param_3,#0x1                            
ram:0003e0ca    0e4b            ldr         r3,[DAT_0003e104]                       ;= 20002DF8h
ram:0003e0cc    1a70            strb        param_3,[r3,#0x0]=>DAT_20002df8         
ram:0003e0ce    8b88            ldrh        r3,[param_2,#0x4]                       
ram:0003e0d0    0e4a            ldr         param_3,[DAT_0003e10c]                  ;= 20002DF4h
ram:0003e0d2    1380            strh        r3,[param_3,#0x0]=>DAT_20002df4         
ram:0003e0d4    0c4a            ldr         param_3,[DAT_0003e108]                  ;= 20002DF6h
                            LAB_0003e0d6:                 ;XREF[1,0]:   0003e0e2
                                                          ; FWD[2,0]:   20002df4,20002df6
ram:0003e0d6    1380            strh        r3,[param_3,#0x0]=>DAT_20002df4         
ram:0003e0d8    1ce7            b           switchD_0003debe::caseD_a               
                            caseD_7:                      ;XREF[1,0]:   0003debe
ram:0003e0da    0023            movs        r3,#0x0                                 
ram:0003e0dc    094a            ldr         param_3,[DAT_0003e104]                  ;= 20002DF8h
ram:0003e0de    1370            strb        r3,[param_3,#0x0]=>DAT_20002df8         
ram:0003e0e0    0a4a            ldr         param_3,[DAT_0003e10c]                  ;= 20002DF4h
ram:0003e0e2    f8e7            b           LAB_0003e0d6                            
                            caseD_9:                      ;XREF[1,0]:   0003debe
ram:0003e0e4    054b            ldr         r3=>DAT_20002df0,[DAT_0003e0fc]         ;= 20002DF0h
ram:0003e0e6    2800            movs        param_1,r5                              
ram:0003e0e8    1968            ldr         param_2,[r3,#0x0]=>DAT_20002df0         
ram:0003e0ea    00f0a5ff        bl          FUN_0003f038                            ;undefined4 FUN_0003f038(ushort * par...
ram:0003e0ee    fce6            b           LAB_0003deea                            
                            DAT_0003e0f0:                 ;XREF[4,0]:   0003df2c,0003df3c,0003df5a,0003df5e
ram:0003e0f0    f92d0020        undefined4  20002DF9h                               
                            DAT_0003e0f4:                 ;XREF[2,0]:   0003df34,0003df7a
ram:0003e0f4    002e0020        undefined4  20002E00h                               
                            DAT_0003e0f8:                 ;XREF[1,0]:   0003e012
ram:0003e0f8    082e0020        undefined4  20002E08h                               
                            DAT_0003e0fc:                 ;XREF[3,0]:   0003e060,0003e076,0003e0e4
ram:0003e0fc    f02d0020        undefined4  20002DF0h                               
                            DAT_0003e100:                 ;XREF[1,0]:   0003e06c
ram:0003e100    042e0020        undefined4  20002E04h                               
                            DAT_0003e104:                 ;XREF[3,0]:   0003e080,0003e0ca,0003e0dc
ram:0003e104    f82d0020        undefined4  20002DF8h                               
                            DAT_0003e108:                 ;XREF[2,0]:   0003e08a,0003e0d4
ram:0003e108    f62d0020        undefined4  20002DF6h                               
                            DAT_0003e10c:                 ;XREF[3,0]:   0003e0ac,0003e0d0,0003e0e0
ram:0003e10c    f42d0020        undefined4  20002DF4h                               
                            ;************************************************************************************************
                            ;*                                           FUNCTION                                           *
                            ;************************************************************************************************
                            ;undefined FUN_0003e110(void)
                                                          ;XREF[1,0]:   0003dce4
ram:0003e110    0020            movs        r0,#0x0                                 
ram:0003e112    064b            ldr         r3,[DAT_0003e12c]                       ;= 20002E0Ch
ram:0003e114    064a            ldr         r2,[DAT_0003e130]                       ;= 20002E10h
ram:0003e116    1870            strb        r0,[r3,#0x0]=>DAT_20002e0c              
ram:0003e118    064b            ldr         r3,[DAT_0003e134]                       ;= 20002F30h
ram:0003e11a    1a60            str         r2,[r3,#0x0]=>DAT_20002f30              
ram:0003e11c    0822            movs        r2,#0x8                                 
ram:0003e11e    9860            str         r0,[r3,#0x8]=>DAT_20002f38              
ram:0003e120    5a60            str         r2,[r3,#0x4]=>DAT_20002f34              
ram:0003e122    d860            str         r0,[r3,#0xc]=>DAT_20002f3c              
ram:0003e124    1861            str         r0,[r3,#0x10]=>DAT_20002f40             
ram:0003e126    5861            str         r0,[r3,#0x14]=>DAT_20002f44             
ram:0003e128    9861            str         r0,[r3,#0x18]=>DAT_20002f48             
ram:0003e12a    7047            bx          lr                                      
                            DAT_0003e12c:                 ;XREF[1,0]:   0003e112
ram:0003e12c    0c2e0020        undefined4  20002E0Ch                               
                            DAT_0003e130:                 ;XREF[1,0]:   0003e114
ram:0003e130    102e0020        undefined4  20002E10h                               
                            DAT_0003e134:                 ;XREF[1,0]:   0003e118
ram:0003e134    302f0020        undefined4  20002F30h                               
                            ;************************************************************************************************
                            ;*                                           FUNCTION                                           *
                            ;************************************************************************************************
                            ;undefined4 FUN_0003e138(uint param_1, int * param_2)
          ;param_1       uint                r0                      
          ;param_2       int *               r1                      
                                                          ;XREF[1,0]:   0003e018
ram:0003e138    30b5            push        {r4,r5,lr}                              
ram:0003e13a    0e22            movs        r2,#0xe                                 
ram:0003e13c    0029            cmp         param_2,#0x0                            
ram:0003e13e    1ed0            beq         LAB_0003e17e                            
ram:0003e140    0025            movs        r5,#0x0                                 
ram:0003e142    104b            ldr         r3,[DAT_0003e184]                       ;= 20002F30h
ram:0003e144    0d60            str         r5,[param_2,#0x0]                       
ram:0003e146    5c68            ldr         r4,[r3,#0x4]=>DAT_20002f34              
ram:0003e148    0a3a            subs        r2,#0xa                                 
ram:0003e14a    ac42            cmp         r4,r5                                   
ram:0003e14c    17d0            beq         LAB_0003e17e                            
ram:0003e14e    0832            adds        r2,#0x8                                 
ram:0003e150    2028            cmp         param_1,#0x20                           
ram:0003e152    14d8            bhi         LAB_0003e17e                            
ram:0003e154    2420            movs        param_1,#0x24                           
ram:0003e156    da68            ldr         r2,[r3,#0xc]=>DAT_20002f3c              
ram:0003e158    013c            subs        r4,#0x1                                 
ram:0003e15a    0132            adds        r2,#0x1                                 
ram:0003e15c    da60            str         r2,[r3,#0xc]=>DAT_20002f3c              
ram:0003e15e    1a69            ldr         r2,[r3,#0x10]=>DAT_20002f40             
ram:0003e160    5c60            str         r4,[r3,#0x4]=>DAT_20002f34              
ram:0003e162    5043            muls        param_1,r2                              
ram:0003e164    1c68            ldr         r4,[r3,#0x0]=>DAT_20002f30              
ram:0003e166    2018            adds        param_1,r4,param_1                      
ram:0003e168    0860            str         param_1,[param_2,#0x0]                  
ram:0003e16a    0121            movs        param_2,#0x1                            
ram:0003e16c    9140            lsls        param_2,r2                              
ram:0003e16e    9869            ldr         param_1,[r3,#0x18]=>DAT_20002f48        
ram:0003e170    0132            adds        r2,#0x1                                 
ram:0003e172    0143            orrs        param_2,param_1                         
ram:0003e174    9961            str         param_2,[r3,#0x18]=>DAT_20002f48        
ram:0003e176    0721            movs        param_2,#0x7                            
ram:0003e178    0a40            ands        r2,param_2                              
ram:0003e17a    1a61            str         r2,[r3,#0x10]=>DAT_20002f40             
ram:0003e17c    2a00            movs        r2,r5                                   
                            LAB_0003e17e:                 ;XREF[3,0]:   0003e13e,0003e14c,0003e152
ram:0003e17e    1000            movs        param_1,r2                              
ram:0003e180    30bd            pop         {r4,r5,pc}                              
ram:0003e182    c046            mov         r8,r8                                   
                            DAT_0003e184:                 ;XREF[1,0]:   0003e142
ram:0003e184    302f0020        undefined4  20002F30h                               
                            ;************************************************************************************************
                            ;*                                           FUNCTION                                           *
                            ;************************************************************************************************
                            ;undefined4 FUN_0003e188(int param_1)
          ;param_1       int                 r0                      
          ;local_1c      undefined4         -1c                      ;XREF[2,0]:   0003e1d2,0003e206
          ;local_20      undefined4         -20                      ;XREF[2,0]:   0003e1ca,0003e1d4
          ;local_24      undefined4         -24                      ;XREF[2,0]:   0003e1c2,0003e1e0
                                                          ;XREF[2,0]:   0003d976,0003e0b6
ram:0003e188    f0b5            push        {r4,r5,r6,r7,lr}                        
ram:0003e18a    204b            ldr         r3,[DAT_0003e20c]                       ;= 20002F30h
ram:0003e18c    85b0            sub         sp,#0x14                                
ram:0003e18e    9a68            ldr         r2,[r3,#0x8]=>DAT_20002f38              
ram:0003e190    0426            movs        r6,#0x4                                 
ram:0003e192    9446            mov         r12,r2                                  
ram:0003e194    002a            cmp         r2,#0x0                                 
ram:0003e196    2ad0            beq         LAB_0003e1ee                            
ram:0003e198    6146            mov         r1,r12                                  
ram:0003e19a    0725            movs        r5,#0x7                                 
ram:0003e19c    5a69            ldr         r2,[r3,#0x14]=>DAT_20002f44             
ram:0003e19e    1f68            ldr         r7,[r3,#0x0]=>DAT_20002f30              
ram:0003e1a0    541a            subs        r4,r2,r1                                
ram:0003e1a2    2c40            ands        r4,r5                                   
ram:0003e1a4    2100            movs        r1,r4                                   
                            LAB_0003e1a6:                 ;XREF[1,0]:   0003e1fa
ram:0003e1a6    2426            movs        r6,#0x24                                
ram:0003e1a8    4e43            muls        r6,r1                                   
ram:0003e1aa    be19            adds        r6,r7,r6                                
ram:0003e1ac    b042            cmp         param_1,r6                              
ram:0003e1ae    21d1            bne         LAB_0003e1f4                            
ram:0003e1b0    0122            movs        r2,#0x1                                 
ram:0003e1b2    8a40            lsls        r2,r1                                   
ram:0003e1b4    9869            ldr         param_1,[r3,#0x18]=>DAT_20002f48        
ram:0003e1b6    0026            movs        r6,#0x0                                 
ram:0003e1b8    4240            eors        r2,param_1                              
ram:0003e1ba    9a61            str         r2,[r3,#0x18]=>DAT_20002f48             
ram:0003e1bc    0a00            movs        r2,r1                                   
                            LAB_0003e1be:                 ;XREF[1,0]:   0003e1fe
ram:0003e1be    9969            ldr         r1,[r3,#0x18]=>DAT_20002f48             
ram:0003e1c0    0127            movs        r7,#0x1                                 
ram:0003e1c2    0191            str         r1,[sp,#local_24+0x28]                  
ram:0003e1c4    0725            movs        r5,#0x7                                 
ram:0003e1c6    5968            ldr         r1,[r3,#0x4]=>DAT_20002f34              
ram:0003e1c8    0020            movs        param_1,#0x0                            
ram:0003e1ca    0291            str         r1,[sp,#local_20+0x28]                  
ram:0003e1cc    6146            mov         r1,r12                                  
ram:0003e1ce    d219            adds        r2,r2,r7                                
ram:0003e1d0    2a40            ands        r2,r5                                   
ram:0003e1d2    0392            str         r2,[sp,#local_1c+0x28]                  
                            LAB_0003e1d4:                 ;XREF[1,0]:   0003e20a
ram:0003e1d4    029a            ldr         r2,[sp,#local_20+0x28]                  
ram:0003e1d6    6244            add         r2,r12                                  
ram:0003e1d8    551a            subs        r5,r2,r1                                
ram:0003e1da    3a00            movs        r2,r7                                   
ram:0003e1dc    a240            lsls        r2,r4                                   
ram:0003e1de    1400            movs        r4,r2                                   
ram:0003e1e0    019a            ldr         r2,[sp,#local_24+0x28]                  
ram:0003e1e2    2242            tst         r2,r4                                   
ram:0003e1e4    0cd0            beq         LAB_0003e200                            
                            LAB_0003e1e6:                 ;XREF[1,0]:   0003e202
ram:0003e1e6    0028            cmp         param_1,#0x0                            
ram:0003e1e8    01d0            beq         LAB_0003e1ee                            
ram:0003e1ea    9960            str         r1,[r3,#0x8]=>DAT_20002f38              
ram:0003e1ec    5d60            str         r5,[r3,#0x4]=>DAT_20002f34              
                            LAB_0003e1ee:                 ;XREF[2,0]:   0003e196,0003e1e8
ram:0003e1ee    3000            movs        param_1,r6                              
ram:0003e1f0    05b0            add         sp,#0x14                                
ram:0003e1f2    f0bd            pop         {r4,r5,r6,r7,pc}                        
                            LAB_0003e1f4:                 ;XREF[1,0]:   0003e1ae
ram:0003e1f4    0131            adds        r1,#0x1                                 
ram:0003e1f6    2940            ands        r1,r5                                   
ram:0003e1f8    8a42            cmp         r2,r1                                   
ram:0003e1fa    d4d1            bne         LAB_0003e1a6                            
ram:0003e1fc    1026            movs        r6,#0x10                                
ram:0003e1fe    dee7            b           LAB_0003e1be                            
                            LAB_0003e200:                 ;XREF[1,0]:   0003e1e4
ram:0003e200    0029            cmp         r1,#0x0                                 
ram:0003e202    f0d0            beq         LAB_0003e1e6                            
ram:0003e204    0139            subs        r1,#0x1                                 
ram:0003e206    039c            ldr         r4,[sp,#local_1c+0x28]                  
ram:0003e208    3800            movs        param_1,r7                              
ram:0003e20a    e3e7            b           LAB_0003e1d4                            
                            DAT_0003e20c:                 ;XREF[1,0]:   0003e18a
ram:0003e20c    302f0020        undefined4  20002F30h                               
                            ;************************************************************************************************
                            ;*                                           FUNCTION                                           *
                            ;************************************************************************************************
                            ;undefined4 FUN_0003e210(undefined4 param_1)
          ;param_1       undefined4          r0                      
                                                          ;XREF[1,0]:   0003e034
ram:0003e210    0721            movs        r1,#0x7                                 
ram:0003e212    054a            ldr         r2,[DAT_0003e228]                       ;= 20002F30h
ram:0003e214    1369            ldr         r3,[r2,#0x10]=>DAT_20002f40             
ram:0003e216    1268            ldr         r2,[r2,#0x0]=>DAT_20002f30              
ram:0003e218    013b            subs        r3,#0x1                                 
ram:0003e21a    0b40            ands        r3,r1                                   
ram:0003e21c    1d31            adds        r1,#0x1d                                
ram:0003e21e    4b43            muls        r3,r1                                   
ram:0003e220    d318            adds        r3,r2,r3                                
ram:0003e222    1862            str         param_1,[r3,#0x20]                      
ram:0003e224    0020            movs        param_1,#0x0                            
ram:0003e226    7047            bx          lr                                      
                            DAT_0003e228:                 ;XREF[1,0]:   0003e212
ram:0003e228    302f0020        undefined4  20002F30h                               
                            ;************************************************************************************************
                            ;*                                           FUNCTION                                           *
                            ;************************************************************************************************
                            ;undefined4 FUN_0003e22c(int * param_1, undefined4 * param_2)
          ;param_1       int *               r0                      
          ;param_2       undefined4 *        r1                      
                                                          ;XREF[1,0]:   0003e040
ram:0003e22c    30b5            push        {r4,r5,lr}                              
ram:0003e22e    0e22            movs        r2,#0xe                                 
ram:0003e230    0028            cmp         param_1,#0x0                            
ram:0003e232    18d0            beq         LAB_0003e266                            
ram:0003e234    0029            cmp         param_2,#0x0                            
ram:0003e236    16d0            beq         LAB_0003e266                            
ram:0003e238    0c4b            ldr         r3,[DAT_0003e26c]                       ;= 20002F30h
ram:0003e23a    0a3a            subs        r2,#0xa                                 
ram:0003e23c    dc68            ldr         r4,[r3,#0xc]=>DAT_20002f3c              
ram:0003e23e    002c            cmp         r4,#0x0                                 
ram:0003e240    11d0            beq         LAB_0003e266                            
ram:0003e242    013c            subs        r4,#0x1                                 
ram:0003e244    dc60            str         r4,[r3,#0xc]=>DAT_20002f3c              
ram:0003e246    2424            movs        r4,#0x24                                
ram:0003e248    9a68            ldr         r2,[r3,#0x8]=>DAT_20002f38              
ram:0003e24a    1d68            ldr         r5,[r3,#0x0]=>DAT_20002f30              
ram:0003e24c    0132            adds        r2,#0x1                                 
ram:0003e24e    9a60            str         r2,[r3,#0x8]=>DAT_20002f38              
ram:0003e250    5a69            ldr         r2,[r3,#0x14]=>DAT_20002f44             
ram:0003e252    5443            muls        r4,r2                                   
ram:0003e254    2c19            adds        r4,r5,r4                                
ram:0003e256    0460            str         r4,[param_1,#0x0]                       
ram:0003e258    206a            ldr         param_1,[r4,#0x20]                      
ram:0003e25a    0132            adds        r2,#0x1                                 
ram:0003e25c    0860            str         param_1,[param_2,#0x0]                  
ram:0003e25e    0721            movs        param_2,#0x7                            
ram:0003e260    0a40            ands        r2,param_2                              
ram:0003e262    5a61            str         r2,[r3,#0x14]=>DAT_20002f44             
ram:0003e264    0022            movs        r2,#0x0                                 
                            LAB_0003e266:                 ;XREF[3,0]:   0003e232,0003e236,0003e240
ram:0003e266    1000            movs        param_1,r2                              
ram:0003e268    30bd            pop         {r4,r5,pc}                              
ram:0003e26a    c046            mov         r8,r8                                   
                            DAT_0003e26c:                 ;XREF[1,0]:   0003e238
ram:0003e26c    302f0020        undefined4  20002F30h                               
                            ;************************************************************************************************
                            ;*                                           FUNCTION                                           *
                            ;************************************************************************************************
                            ;undefined FUN_0003e270(int param_1)
          ;param_1       int                 r0                      
          ;local_4       undefined4          -4                      ;XREF[4,0]:   0003e272,0003e274,0003e27e,0003e284
                                                          ;XREF[1,0]:   0003cefe
ram:0003e270    82b0            sub         sp,#0x8                                 
ram:0003e272    0190            str         param_1,[sp,#local_4+0x8]               
                            LAB_0003e274:                 ;XREF[1,0]:   0003e2a2
ram:0003e274    019b            ldr         r3,[sp,#local_4+0x8]                    
ram:0003e276    002b            cmp         r3,#0x0                                 
ram:0003e278    01d1            bne         LAB_0003e27e                            
ram:0003e27a    02b0            add         sp,#0x8                                 
ram:0003e27c    7047            bx          lr                                      
                            LAB_0003e27e:                 ;XREF[1,0]:   0003e278
ram:0003e27e    019b            ldr         r3,[sp,#local_4+0x8]                    
ram:0003e280    0848            ldr         param_1,[DAT_0003e2a4]                  ;= 000003E7h
ram:0003e282    013b            subs        r3,#0x1                                 
ram:0003e284    0193            str         r3,[sp,#local_4+0x8]                    
                            LAB_0003e286:                 ;XREF[1,0]:   0003e2a0
ram:0003e286    0138            subs        param_1,#0x1                            
ram:0003e288    c046            mov         r8,r8                                   
ram:0003e28a    c046            mov         r8,r8                                   
ram:0003e28c    c046            mov         r8,r8                                   
ram:0003e28e    c046            mov         r8,r8                                   
ram:0003e290    c046            mov         r8,r8                                   
ram:0003e292    c046            mov         r8,r8                                   
ram:0003e294    c046            mov         r8,r8                                   
ram:0003e296    c046            mov         r8,r8                                   
ram:0003e298    c046            mov         r8,r8                                   
ram:0003e29a    c046            mov         r8,r8                                   
ram:0003e29c    c046            mov         r8,r8                                   
ram:0003e29e    c046            mov         r8,r8                                   
ram:0003e2a0    f1d1            bne         LAB_0003e286                            
ram:0003e2a2    e7e7            b           LAB_0003e274                            
                            DAT_0003e2a4:                 ;XREF[1,0]:   0003e280
ram:0003e2a4    e7030000        undefined4  000003E7h                               
                            ;************************************************************************************************
                            ;*                                           FUNCTION                                           *
                            ;************************************************************************************************
                            ;undefined FUN_0003e2a8(void)
                                                          ;XREF[1,0]:   0003e30c
ram:0003e2a8    29df            svc         0x29                                    
ram:0003e2aa    7047            bx          lr                                      
                            ;************************************************************************************************
                            ;*                                           FUNCTION                                           *
                            ;************************************************************************************************
                            ;undefined FUN_0003e2ac(void)
                                                          ;XREF[1,0]:   0003e332
ram:0003e2ac    28df            svc         0x28                                    
ram:0003e2ae    7047            bx          lr                                      
                            ;************************************************************************************************
                            ;*                                           FUNCTION                                           *
                            ;************************************************************************************************
                            ;undefined8 FUN_0003e2b0(undefined4 param_1, undefined * param_2, undefined4 param_3)
          ;param_1       undefined4          r0                      
          ;param_2       undefined *         r1                      
          ;param_3       undefined4          r2                      
          ;local_18      undefined4         -18                      ;XREF[1,0]:   0003e2be
                                                          ;XREF[2,0]:   0003e3e4,0003e430
ram:0003e2b0    0b00            movs        r3,param_2                              
ram:0003e2b2    37b5            push        {param_1,param_2,param_3,r4,r5,lr}      
ram:0003e2b4    0200            movs        param_3,param_1                         
ram:0003e2b6    1800            movs        param_1,r3                              
ram:0003e2b8    5d68            ldr         r5,[r3,#0x4]                            
ram:0003e2ba    dc68            ldr         r4,[r3,#0xc]                            
ram:0003e2bc    0978            ldrb        param_2,[param_2,#0x0]                  
ram:0003e2be    0095            str         r5,[sp,#0x0]=>local_18                  
ram:0003e2c0    034d            ldr         r5,[DAT_0003e2d0]                       ;= 20002F4Ch
ram:0003e2c2    a400            lsls        r4,r4,#0x2                              
ram:0003e2c4    6459            ldr         r4,[r4,r5]                              
ram:0003e2c6    0c30            adds        param_1,#0xc                            
ram:0003e2c8    5b69            ldr         r3,[r3,#0x14]                           
ram:0003e2ca    a047            blx         r4                                      
ram:0003e2cc    37bd            pop         {param_1,param_2,param_3,r4,r5,pc}      
ram:0003e2ce    c046            mov         r8,r8                                   
                            DAT_0003e2d0:                 ;XREF[1,0]:   0003e2c0
ram:0003e2d0    4c2f0020        undefined4  20002F4Ch                               
                            ;************************************************************************************************
                            ;*                                           FUNCTION                                           *
                            ;************************************************************************************************
                            ;int FUN_0003e2d4(void)
                                                          ;XREF[2,0]:   0003e388,0003e406
ram:0003e2d4    1823            movs        r3,#0x18                                
ram:0003e2d6    70b5            push        {r4,r5,r6,lr}                           
ram:0003e2d8    174c            ldr         r4,[DAT_0003e338]                       ;= 20002F54h
ram:0003e2da    2278            ldrb        r2,[r4,#0x0]=>DAT_20002f54              
ram:0003e2dc    5343            muls        r3,r2                                   
ram:0003e2de    e318            adds        r3,r4,r3                                
ram:0003e2e0    1a79            ldrb        r2,[r3,#0x4]                            
ram:0003e2e2    5869            ldr         r0,[r3,#0x14]                           
ram:0003e2e4    022a            cmp         r2,#0x2                                 
ram:0003e2e6    03d0            beq         LAB_0003e2f0                            
ram:0003e2e8    042a            cmp         r2,#0x4                                 
ram:0003e2ea    19d0            beq         LAB_0003e320                            
ram:0003e2ec    0f20            movs        r0,#0xf                                 
ram:0003e2ee    13e0            b           LAB_0003e318                            
                            LAB_0003e2f0:                 ;XREF[1,0]:   0003e2e6
ram:0003e2f0    124a            ldr         r2,[DAT_0003e33c]                       ;= 2000304Ch
ram:0003e2f2    9969            ldr         r1,[r3,#0x18]                           
ram:0003e2f4    1568            ldr         r5,[r2,#0x0]=>DAT_2000304c              
ram:0003e2f6    9a68            ldr         r2,[r3,#0x8]                            
ram:0003e2f8    db68            ldr         r3,[r3,#0xc]                            
ram:0003e2fa    ad02            lsls        r5,r5,#0xa                              
ram:0003e2fc    c018            adds        r0,r0,r3                                
ram:0003e2fe    104b            ldr         r3,[DAT_0003e340]                       ;= 000003FFh
ram:0003e300    521b            subs        r2,r2,r5                                
ram:0003e302    4919            adds        r1,r1,r5                                
ram:0003e304    2818            adds        r0,r5,r0                                
ram:0003e306    9a42            cmp         r2,r3                                   
ram:0003e308    07d8            bhi         LAB_0003e31a                            
ram:0003e30a    9208            lsrs        r2,r2,#0x2                              
                            LAB_0003e30c:                 ;XREF[1,0]:   0003e31e
ram:0003e30c    fff7ccff        bl          FUN_0003e2a8                            ;undefined FUN_0003e2a8(void)
                            LAB_0003e310:                 ;XREF[1,0]:   0003e336
ram:0003e310    0028            cmp         r0,#0x0                                 
ram:0003e312    01d1            bne         LAB_0003e318                            
ram:0003e314    0123            movs        r3,#0x1                                 
ram:0003e316    a370            strb        r3,[r4,#0x2]=>DAT_20002f56              
                            LAB_0003e318:                 ;XREF[2,0]:   0003e2ee,0003e312
ram:0003e318    70bd            pop         {r4,r5,r6,pc}                           
                            LAB_0003e31a:                 ;XREF[1,0]:   0003e308
ram:0003e31a    8022            movs        r2,#0x80                                
ram:0003e31c    5200            lsls        r2,r2,#0x1                              
ram:0003e31e    f5e7            b           LAB_0003e30c                            
                            LAB_0003e320:                 ;XREF[1,0]:   0003e2ea
ram:0003e320    8023            movs        r3,#0x80                                
ram:0003e322    5b05            lsls        r3,r3,#0x15                             
ram:0003e324    1969            ldr         r1,[r3,#offset DAT_10000010 &0xff]      
ram:0003e326    89b2            uxth        r1,r1                                   
ram:0003e328    01f020f9        bl          FUN_0003f56c                            ;undefined8 FUN_0003f56c(uint param_1...
ram:0003e32c    034b            ldr         r3,[DAT_0003e33c]                       ;= 2000304Ch
ram:0003e32e    1b68            ldr         r3,[r3,#0x0]=>DAT_2000304c              
ram:0003e330    c018            adds        r0,r0,r3                                
ram:0003e332    fff7bbff        bl          FUN_0003e2ac                            ;undefined FUN_0003e2ac(void)
ram:0003e336    ebe7            b           LAB_0003e310                            
                            DAT_0003e338:                 ;XREF[1,0]:   0003e2d8
ram:0003e338    542f0020        undefined4  20002F54h                               
                            DAT_0003e33c:                 ;XREF[2,0]:   0003e2f0,0003e32c
ram:0003e33c    4c300020        undefined4  2000304Ch                               
                            DAT_0003e340:                 ;XREF[1,0]:   0003e2fe
ram:0003e340    ff030000        undefined4  000003FFh                               
                            ;************************************************************************************************
                            ;*                                           FUNCTION                                           *
                            ;************************************************************************************************
                            ;int FUN_0003e344(char param_1, undefined4 * param_2, undefined4 param_3, undefined4 param_4, undefined4 param_5)
          ;param_1       char                r0                      
          ;param_2       undefined4 *        r1                      
          ;param_3       undefined4          r2                      
          ;param_4       undefined4          r3                      
          ;param_5       undefined4           0                      ;XREF[1,0]:   0003e374
                                                          ;XREF[2,0]:   0003e4c4,0003e4d6
ram:0003e344    70b5            push        {r4,r5,r6,lr}                           
ram:0003e346    134d            ldr         r5,[DAT_0003e394]                       ;= 20002F54h
ram:0003e348    0600            movs        r6,param_1                              
ram:0003e34a    6c78            ldrb        r4,[r5,#0x1]=>DAT_20002f55              
ram:0003e34c    0420            movs        param_1,#0x4                            
ram:0003e34e    0a2c            cmp         r4,#0xa                                 
ram:0003e350    19d0            beq         LAB_0003e386                            
ram:0003e352    2878            ldrb        param_1,[r5,#0x0]=>DAT_20002f54         
ram:0003e354    2418            adds        r4,r4,param_1                           
ram:0003e356    e4b2            uxtb        r4,r4                                   
ram:0003e358    092c            cmp         r4,#0x9                                 
ram:0003e35a    01d9            bls         LAB_0003e360                            
ram:0003e35c    0a3c            subs        r4,#0xa                                 
ram:0003e35e    e4b2            uxtb        r4,r4                                   
                            LAB_0003e360:                 ;XREF[1,0]:   0003e35a
ram:0003e360    1820            movs        param_1,#0x18                           
ram:0003e362    4443            muls        r4,param_1                              
ram:0003e364    2c19            adds        r4,r5,r4                                
ram:0003e366    a261            str         param_3,[r4,#0x18]                      
ram:0003e368    2200            movs        param_3,r4                              
ram:0003e36a    2671            strb        r6,[r4,#0x4]                            
ram:0003e36c    1032            adds        param_3,#0x10                           
ram:0003e36e    41c9            ldmia       param_2!,{param_1,r6}                   
ram:0003e370    41c2            stmia       param_3!,{param_1,r6}                   
ram:0003e372    a360            str         param_4,[r4,#0x8]                       
ram:0003e374    049b            ldr         param_4,[sp,#param_5+0x10]              
ram:0003e376    e360            str         param_4,[r4,#0xc]                       
ram:0003e378    ab78            ldrb        param_4,[r5,#0x2]=>DAT_20002f56         
ram:0003e37a    002b            cmp         param_4,#0x0                            
ram:0003e37c    04d0            beq         LAB_0003e388                            
                            LAB_0003e37e:                 ;XREF[1,0]:   0003e390
ram:0003e37e    0020            movs        param_1,#0x0                            
                            LAB_0003e380:                 ;XREF[1,0]:   0003e38e
ram:0003e380    6b78            ldrb        param_4,[r5,#0x1]=>DAT_20002f55         
ram:0003e382    0133            adds        param_4,#0x1                            
ram:0003e384    6b70            strb        param_4,[r5,#0x1]=>DAT_20002f55         
                            LAB_0003e386:                 ;XREF[1,0]:   0003e350
ram:0003e386    70bd            pop         {r4,r5,r6,pc}                           
                            LAB_0003e388:                 ;XREF[1,0]:   0003e37c
ram:0003e388    fff7a4ff        bl          FUN_0003e2d4                            ;int FUN_0003e2d4(void)
ram:0003e38c    1128            cmp         param_1,#0x11                           
ram:0003e38e    f7d1            bne         LAB_0003e380                            
ram:0003e390    f5e7            b           LAB_0003e37e                            
ram:0003e392    c046            mov         r8,r8                                   
                            DAT_0003e394:                 ;XREF[1,0]:   0003e346
ram:0003e394    542f0020        undefined4  20002F54h                               
                            ;************************************************************************************************
                            ;*                                           FUNCTION                                           *
                            ;************************************************************************************************
                            ;int FUN_0003e398(int param_1, undefined4 param_2, uint param_3)
          ;param_1       int                 r0                      
          ;param_2       undefined4          r1                      
          ;param_3       uint                r2                      
                                                          ;XREF[1,0]:   0003e632
ram:0003e398    70b5            push        {r4,r5,r6,lr}                           
ram:0003e39a    274c            ldr         r4,[DAT_0003e438]                       ;= 20002F54h
ram:0003e39c    a378            ldrb        r3,[r4,#0x2]=>DAT_20002f56              
ram:0003e39e    002b            cmp         r3,#0x0                                 
ram:0003e3a0    05d0            beq         LAB_0003e3ae                            
ram:0003e3a2    0026            movs        r6,#0x0                                 
ram:0003e3a4    a670            strb        r6,[r4,#0x2]=>DAT_20002f56              
ram:0003e3a6    0228            cmp         param_1,#0x2                            
ram:0003e3a8    02d0            beq         LAB_0003e3b0                            
ram:0003e3aa    0328            cmp         param_1,#0x3                            
ram:0003e3ac    3ad0            beq         LAB_0003e424                            
                            LAB_0003e3ae:                 ;XREF[6,0]:   0003e3a0,0003e3fe,0003e404,0003e40c
                                                          ;             0003e410,0003e434
ram:0003e3ae    70bd            pop         {r4,r5,r6,pc}                           
                            LAB_0003e3b0:                 ;XREF[1,0]:   0003e3a8
ram:0003e3b0    1821            movs        param_2,#0x18                           
ram:0003e3b2    2578            ldrb        r5,[r4,#0x0]=>DAT_20002f54              
ram:0003e3b4    214b            ldr         r3,[DAT_0003e43c]                       ;= 2000304Ch
ram:0003e3b6    6943            muls        param_2,r5                              
ram:0003e3b8    1a68            ldr         param_3,[r3,#0x0]=>DAT_2000304c         
ram:0003e3ba    6118            adds        param_2,r4,param_2                      
ram:0003e3bc    8968            ldr         param_2,[param_2,#0x8]                  
ram:0003e3be    0132            adds        param_3,#0x1                            
ram:0003e3c0    1a60            str         param_3,[r3,#0x0]=>DAT_2000304c         
ram:0003e3c2    9202            lsls        param_3,param_3,#0xa                    
ram:0003e3c4    8a42            cmp         param_3,param_2                         
ram:0003e3c6    18d3            bcc         LAB_0003e3fa                            
ram:0003e3c8    1e60            str         r6,[r3,#0x0]=>DAT_2000304c              
ram:0003e3ca    6378            ldrb        r3,[r4,#0x1]=>DAT_20002f55              
ram:0003e3cc    013b            subs        r3,#0x1                                 
ram:0003e3ce    6370            strb        r3,[r4,#0x1]=>DAT_20002f55              
ram:0003e3d0    6b1c            adds        r3,r5,#0x1                              
ram:0003e3d2    dbb2            uxtb        r3,r3                                   
ram:0003e3d4    092b            cmp         r3,#0x9                                 
ram:0003e3d6    22d8            bhi         LAB_0003e41e                            
                            LAB_0003e3d8:                 ;XREF[1,0]:   0003e422
ram:0003e3d8    2370            strb        r3,[r4,#0x0]=>DAT_20002f54              
ram:0003e3da    1823            movs        r3,#0x18                                
ram:0003e3dc    5d43            muls        r5,r3                                   
ram:0003e3de    291d            adds        param_2,r5,#0x4                         
ram:0003e3e0    6118            adds        param_2,r4,param_2                      
ram:0003e3e2    0020            movs        param_1,#0x0                            
ram:0003e3e4    fff764ff        bl          FUN_0003e2b0                            ;undefined8 FUN_0003e2b0(undefined4 p...
ram:0003e3e8    0022            movs        param_3,#0x0                            
ram:0003e3ea    0221            movs        param_2,#0x2                            
ram:0003e3ec    6519            adds        r5,r4,r5                                
ram:0003e3ee    2a71            strb        param_3,[r5,#0x4]                       
ram:0003e3f0    aa60            str         param_3,[r5,#0x8]                       
ram:0003e3f2    2961            str         param_2,[r5,#0x10]                      
ram:0003e3f4    6a61            str         param_3,[r5,#0x14]                      
ram:0003e3f6    aa61            str         param_3,[r5,#0x18]                      
ram:0003e3f8    ea60            str         param_3,[r5,#0xc]                       
                            LAB_0003e3fa:                 ;XREF[1,0]:   0003e3c6
ram:0003e3fa    6378            ldrb        r3,[r4,#0x1]=>DAT_20002f55              
ram:0003e3fc    002b            cmp         r3,#0x0                                 
ram:0003e3fe    d6d0            beq         LAB_0003e3ae                            
ram:0003e400    a378            ldrb        r3,[r4,#0x2]=>DAT_20002f56              
ram:0003e402    002b            cmp         r3,#0x0                                 
ram:0003e404    d3d1            bne         LAB_0003e3ae                            
ram:0003e406    fff765ff        bl          FUN_0003e2d4                            ;int FUN_0003e2d4(void)
ram:0003e40a    0028            cmp         param_1,#0x0                            
ram:0003e40c    cfd0            beq         LAB_0003e3ae                            
ram:0003e40e    1128            cmp         param_1,#0x11                           
ram:0003e410    cdd0            beq         LAB_0003e3ae                            
ram:0003e412    1821            movs        param_2,#0x18                           
ram:0003e414    2378            ldrb        r3,[r4,#0x0]=>DAT_20002f54              
ram:0003e416    5943            muls        param_2,r3                              
ram:0003e418    0431            adds        param_2,#0x4                            
ram:0003e41a    6118            adds        param_2,r4,param_2                      
ram:0003e41c    08e0            b           LAB_0003e430                            
                            LAB_0003e41e:                 ;XREF[1,0]:   0003e3d6
ram:0003e41e    2b00            movs        r3,r5                                   
ram:0003e420    093b            subs        r3,#0x9                                 
ram:0003e422    d9e7            b           LAB_0003e3d8                            
                            LAB_0003e424:                 ;XREF[1,0]:   0003e3ac
ram:0003e424    1821            movs        param_2,#0x18                           
ram:0003e426    0d20            movs        param_1,#0xd                            
ram:0003e428    2378            ldrb        r3,[r4,#0x0]=>DAT_20002f54              
ram:0003e42a    5943            muls        param_2,r3                              
ram:0003e42c    0431            adds        param_2,#0x4                            
ram:0003e42e    6118            adds        param_2,r4,param_2                      
                            LAB_0003e430:                 ;XREF[1,0]:   0003e41c
ram:0003e430    fff73eff        bl          FUN_0003e2b0                            ;undefined8 FUN_0003e2b0(undefined4 p...
ram:0003e434    bbe7            b           LAB_0003e3ae                            
ram:0003e436    c046            mov         r8,r8                                   
                            DAT_0003e438:                 ;XREF[1,0]:   0003e39a
ram:0003e438    542f0020        undefined4  20002F54h                               
                            DAT_0003e43c:                 ;XREF[1,0]:   0003e3b4
ram:0003e43c    4c300020        undefined4  2000304Ch                               
                            ;************************************************************************************************
                            ;*                                           FUNCTION                                           *
                            ;************************************************************************************************
                            ;undefined4 FUN_0003e440(void)
                                                          ;XREF[1,0]:   0003ce44
ram:0003e440    0023            movs        r3,#0x0                                 
ram:0003e442    0220            movs        r0,#0x2                                 
ram:0003e444    0b49            ldr         r1,[DAT_0003e474]                       ;= 20002F54h
ram:0003e446    0c4a            ldr         r2,[DAT_0003e478]                       ;= 2000304Ch
ram:0003e448    0b70            strb        r3,[r1,#0x0]=>DAT_20002f54              
ram:0003e44a    1360            str         r3,[r2,#0x0]=>DAT_2000304c              
ram:0003e44c    4b70            strb        r3,[r1,#0x1]=>DAT_20002f55              
ram:0003e44e    8b70            strb        r3,[r1,#0x2]=>DAT_20002f56              
ram:0003e450    0a1d            adds        r2,r1,#0x4                              
ram:0003e452    f431            adds        r1,#0xf4                                
                            LAB_0003e454:                 ;XREF[1,0]:   0003e464
                                                          ; FWD[2,0]:   20002f58,20002f70
ram:0003e454    1370            strb        r3,[r2,#0x0]=>DAT_20002f58              
                                                          ; FWD[2,0]:   20002f5c,20002f74
ram:0003e456    5360            str         r3,[r2,#0x4]=>DAT_20002f5c              
                                                          ; FWD[2,0]:   20002f64,20002f7c
ram:0003e458    d060            str         r0,[r2,#0xc]=>DAT_20002f64              
                                                          ; FWD[2,0]:   20002f68,20002f80
ram:0003e45a    1361            str         r3,[r2,#0x10]=>DAT_20002f68             
                                                          ; FWD[2,0]:   20002f6c,20002f84
ram:0003e45c    5361            str         r3,[r2,#0x14]=>DAT_20002f6c             
                                                          ; FWD[2,0]:   20002f60,20002f78
ram:0003e45e    9360            str         r3,[r2,#0x8]=>DAT_20002f60              
ram:0003e460    1832            adds        r2,#0x18                                
ram:0003e462    8a42            cmp         r2,r1                                   
ram:0003e464    f6d1            bne         LAB_0003e454                            
ram:0003e466    054a            ldr         r2,[DAT_0003e47c]                       ;= 20003048h
ram:0003e468    0020            movs        r0,#0x0                                 
ram:0003e46a    1360            str         r3,[r2,#0x0]=>DAT_20003048              
ram:0003e46c    044a            ldr         r2,[DAT_0003e480]                       ;= 20002F4Ch
ram:0003e46e    1360            str         r3,[r2,#0x0]=>DAT_20002f4c              
ram:0003e470    5360            str         r3,[r2,#0x4]=>DAT_20002f50              
ram:0003e472    7047            bx          lr                                      
                            DAT_0003e474:                 ;XREF[1,0]:   0003e444
ram:0003e474    542f0020        undefined4  20002F54h                               
                            DAT_0003e478:                 ;XREF[1,0]:   0003e446
ram:0003e478    4c300020        undefined4  2000304Ch                               
                            DAT_0003e47c:                 ;XREF[1,0]:   0003e466
ram:0003e47c    48300020        undefined4  20003048h                               
                            DAT_0003e480:                 ;XREF[1,0]:   0003e46c
ram:0003e480    4c2f0020        undefined4  20002F4Ch                               
                            ;************************************************************************************************
                            ;*                                           FUNCTION                                           *
                            ;************************************************************************************************
                            ;undefined4 FUN_0003e484(undefined4 * param_1, int * param_2)
          ;param_1       undefined4 *        r0                      
          ;param_2       int *               r1                      
                                                          ;XREF[2,0]:   0003ce56,0003d2ea
ram:0003e484    10b5            push        {r4,lr}                                 
ram:0003e486    074c            ldr         r4,[DAT_0003e4a4]                       ;= 20003048h
ram:0003e488    0422            movs        r2,#0x4                                 
ram:0003e48a    2368            ldr         r3,[r4,#0x0]=>DAT_20003048              
ram:0003e48c    022b            cmp         r3,#0x2                                 
ram:0003e48e    07d0            beq         LAB_0003e4a0                            
ram:0003e490    5a1c            adds        r2,r3,#0x1                              
ram:0003e492    0b60            str         r3,[param_2,#0x0]                       
ram:0003e494    2260            str         r2,[r4,#0x0]=>DAT_20003048              
ram:0003e496    0168            ldr         param_2,[param_1,#0x0]                  
ram:0003e498    034a            ldr         r2,[DAT_0003e4a8]                       ;= 20002F4Ch
ram:0003e49a    9b00            lsls        r3,r3,#0x2                              
ram:0003e49c    9950            str         param_2,[r3,r2]                         
ram:0003e49e    0022            movs        r2,#0x0                                 
                            LAB_0003e4a0:                 ;XREF[1,0]:   0003e48e
ram:0003e4a0    1000            movs        param_1,r2                              
ram:0003e4a2    10bd            pop         {r4,pc}                                 
                            DAT_0003e4a4:                 ;XREF[1,0]:   0003e486
ram:0003e4a4    48300020        undefined4  20003048h                               
                            DAT_0003e4a8:                 ;XREF[1,0]:   0003e498
ram:0003e4a8    4c2f0020        undefined4  20002F4Ch                               
                            ;************************************************************************************************
                            ;*                                           FUNCTION                                           *
                            ;************************************************************************************************
                            ;undefined FUN_0003e4ac(undefined4 * param_1, uint param_2, undefined4 param_3, int param_4)
          ;param_1       undefined4 *        r0                      
          ;param_2       uint                r1                      
          ;param_3       undefined4          r2                      
          ;param_4       int                 r3                      
          ;local_18      undefined4         -18                      ;XREF[1,0]:   0003e4ba
                                                          ;XREF[3,0]:   0003ccc8,0003d1da,0003d4ac
ram:0003e4ac    37b5            push        {param_1,param_2,param_3,r4,r5,lr}      
ram:0003e4ae    cc18            adds        r4,param_2,param_4                      
ram:0003e4b0    0c43            orrs        r4,param_2                              
ram:0003e4b2    0500            movs        r5,param_1                              
ram:0003e4b4    1020            movs        param_1,#0x10                           
ram:0003e4b6    a407            lsls        r4,r4,#0x1e                             
ram:0003e4b8    06d1            bne         LAB_0003e4c8                            
ram:0003e4ba    0093            str         param_4,[sp,#0x0]=>local_18             
ram:0003e4bc    0e38            subs        param_1,#0xe                            
ram:0003e4be    1300            movs        param_4,param_3                         
ram:0003e4c0    0a00            movs        param_3,param_2                         
ram:0003e4c2    2900            movs        param_2,r5                              
ram:0003e4c4    fff73eff        bl          FUN_0003e344                            ;int FUN_0003e344(char param_1, undef...
                            LAB_0003e4c8:                 ;XREF[1,0]:   0003e4b8
ram:0003e4c8    3ebd            pop         {param_2,param_3,param_4,r4,r5,pc}      
                            ;************************************************************************************************
                            ;*                                           FUNCTION                                           *
                            ;************************************************************************************************
                            ;undefined FUN_0003e4ca(undefined4 * param_1, undefined4 param_2)
          ;param_1       undefined4 *        r0                      
          ;param_2       undefined4          r1                      
          ;local_10      undefined4         -10                      ;XREF[1,0]:   0003e4d0
                                                          ;XREF[4,0]:   0003ccb0,0003d160,0003d192,0003d1c0
ram:0003e4ca    07b5            push        {param_1,param_2,r2,lr}                 
ram:0003e4cc    0022            movs        r2,#0x0                                 
ram:0003e4ce    0b00            movs        r3,param_2                              
ram:0003e4d0    0092            str         r2,[sp,#0x0]=>local_10                  
ram:0003e4d2    0100            movs        param_2,param_1                         
ram:0003e4d4    0420            movs        param_1,#0x4                            
ram:0003e4d6    fff735ff        bl          FUN_0003e344                            ;int FUN_0003e344(char param_1, undef...
ram:0003e4da    0ebd            pop         {param_2,r2,r3,pc}                      
                            ;************************************************************************************************
                            ;*                                           FUNCTION                                           *
                            ;************************************************************************************************
                            ;undefined FUN_0003e4dc(int param_1, byte * * param_2)
          ;param_1       int                 r0                      
          ;param_2       byte * *            r1                      
                                                          ;XREF[1,0]:   0003e546
ram:0003e4dc    70b5            push        {r4,r5,r6,lr}                           
ram:0003e4de    0123            movs        r3,#0x1                                 
ram:0003e4e0    0d00            movs        r5,param_2                              
ram:0003e4e2    0028            cmp         param_1,#0x0                            
ram:0003e4e4    15d1            bne         LAB_0003e512                            
ram:0003e4e6    0968            ldr         param_2,[param_2,#0x0]                  
ram:0003e4e8    0e23            movs        r3,#0xe                                 
ram:0003e4ea    0029            cmp         param_2,#0x0                            
ram:0003e4ec    11d0            beq         LAB_0003e512                            
ram:0003e4ee    0e4c            ldr         r4,[DAT_0003e528]                       ;= 20007F80h
ram:0003e4f0    a142            cmp         param_2,r4                              
ram:0003e4f2    07d0            beq         LAB_0003e504                            
ram:0003e4f4    621a            subs        r2,r4,param_2                           
ram:0003e4f6    3b2a            cmp         r2,#0x3b                                
ram:0003e4f8    11d8            bhi         LAB_0003e51e                            
ram:0003e4fa    0b00            movs        r3,param_2                              
ram:0003e4fc    0139            subs        param_2,#0x1                            
ram:0003e4fe    3c33            adds        r3,#0x3c                                
                            LAB_0003e500:                 ;XREF[1,0]:   0003e51c
ram:0003e500    8b42            cmp         r3,param_2                              
ram:0003e502    08d1            bne         LAB_0003e516                            
                            LAB_0003e504:                 ;XREF[2,0]:   0003e4f2,0003e526
ram:0003e504    0022            movs        r2,#0x0                                 
ram:0003e506    3c21            movs        param_2,#0x3c                           
ram:0003e508    2000            movs        param_1=>DAT_20007f80,r4                
ram:0003e50a    fef76bfd        bl          FUN_0003cfe4                            ;uint FUN_0003cfe4(byte * param_1, in...
ram:0003e50e    0023            movs        r3,#0x0                                 
ram:0003e510    a087            strh        param_1,[r4,#0x3c]=>DAT_20007fbc        
                            LAB_0003e512:                 ;XREF[2,0]:   0003e4e4,0003e4ec
ram:0003e512    2b60            str         r3,[r5,#0x0]                            
ram:0003e514    70bd            pop         {r4,r5,r6,pc}                           
                            LAB_0003e516:                 ;XREF[1,0]:   0003e502
ram:0003e516    1878            ldrb        param_1,[r3,#0x0]                       
ram:0003e518    d054            strb        param_1,[r2,r3]                         
ram:0003e51a    013b            subs        r3,#0x1                                 
ram:0003e51c    f0e7            b           LAB_0003e500                            
                            LAB_0003e51e:                 ;XREF[1,0]:   0003e4f8
ram:0003e51e    3c22            movs        r2,#0x3c                                
ram:0003e520    2000            movs        param_1=>DAT_20007f80,r4                
ram:0003e522    01f0bef8        bl          FUN_0003f6a2                            ;undefined FUN_0003f6a2(int param_1, ...
ram:0003e526    ede7            b           LAB_0003e504                            
                            DAT_0003e528:                 ;XREF[1,0]:   0003e4ee
ram:0003e528    807f0020        undefined4  20007F80h                               
                            ;************************************************************************************************
                            ;*                                           FUNCTION                                           *
                            ;************************************************************************************************
                            ;undefined FUNC_SVCall_0003e52c(void)
                                                          ;XREF[0,1]:   0003c02c
ram:0003e52c    0323            movs        r3,#0x3                                 
ram:0003e52e    064a            ldr         r2,[DAT_0003e548]                       ;= 0003E4DDh
ram:0003e530    5b42            rsbs        r3,r3                                   
ram:0003e532    9e45            cmp         lr,r3                                   
ram:0003e534    02d1            bne         LAB_0003e53c                            
ram:0003e536    eff30981        mrs         r1,psp                                  
ram:0003e53a    01e0            b           LAB_0003e540                            
                            LAB_0003e53c:                 ;XREF[1,0]:   0003e534
ram:0003e53c    eff30881        mrs         r1,msp                                  
                            LAB_0003e540:                 ;XREF[1,0]:   0003e53a
ram:0003e540    8869            ldr         r0,[r1,#0x18]                           
ram:0003e542    0238            subs        r0,#0x2                                 
ram:0003e544    0078            ldrb        r0,[r0,#0x0]                            
ram:0003e546    1047            bx          r2=>FUN_0003e4dc                        
                            DAT_0003e548:                 ;XREF[1,0]:   0003e52e
ram:0003e548    dde40300        undefined4  0003E4DDh                               ;?  ->  0003e4dd
                            ;************************************************************************************************
                            ;*                                           FUNCTION                                           *
                            ;************************************************************************************************
                            ;undefined4 FUN_0003e54c(int param_1)
          ;param_1       int                 r0                      
                                                          ;XREF[1,0]:   0003dcee
ram:0003e54c    70b5            push        {r4,r5,r6,lr}                           
ram:0003e54e    0e23            movs        r3,#0xe                                 
ram:0003e550    061e            subs        r6,param_1,#0x0                         
ram:0003e552    11d0            beq         LAB_0003e578                            
ram:0003e554    094c            ldr         r4,[DAT_0003e57c]                       ;= 20007F80h
ram:0003e556    0022            movs        r2,#0x0                                 
ram:0003e558    3c21            movs        r1,#0x3c                                
ram:0003e55a    2000            movs        param_1=>DAT_20007f80,r4                
ram:0003e55c    fef742fd        bl          FUN_0003cfe4                            ;uint FUN_0003cfe4(byte * param_1, in...
ram:0003e560    a58f            ldrh        r5,[r4,#0x3c]=>DAT_20007fbc             
ram:0003e562    0b23            movs        r3,#0xb                                 
ram:0003e564    8542            cmp         r5,param_1                              
ram:0003e566    07d1            bne         LAB_0003e578                            
ram:0003e568    3c22            movs        r2,#0x3c                                
ram:0003e56a    2100            movs        r1=>DAT_20007f80,r4                     
ram:0003e56c    3000            movs        param_1,r6                              
ram:0003e56e    01f098f8        bl          FUN_0003f6a2                            ;undefined FUN_0003f6a2(int param_1, ...
ram:0003e572    0023            movs        r3,#0x0                                 
ram:0003e574    0135            adds        r5,#0x1                                 
ram:0003e576    a587            strh        r5,[r4,#0x3c]=>DAT_20007fbc             
                            LAB_0003e578:                 ;XREF[2,0]:   0003e552,0003e566
ram:0003e578    1800            movs        param_1,r3                              
ram:0003e57a    70bd            pop         {r4,r5,r6,pc}                           
                            DAT_0003e57c:                 ;XREF[1,0]:   0003e554
ram:0003e57c    807f0020        undefined4  20007F80h                               
                            ;************************************************************************************************
                            ;*                                           FUNCTION                                           *
                            ;************************************************************************************************
                            ;undefined FUN_0003e580(void)
                                                          ;XREF[1,0]:   0003e5fe
ram:0003e580    60df            svc         0x60                                    
ram:0003e582    7047            bx          lr                                      
                            ;************************************************************************************************
                            ;*                                           FUNCTION                                           *
                            ;************************************************************************************************
                            ;undefined FUN_0003e584(void)
                                                          ;XREF[1,0]:   0003e5ba
ram:0003e584    13df            svc         0x13                                    
ram:0003e586    7047            bx          lr                                      
                            ;************************************************************************************************
                            ;*                                           FUNCTION                                           *
                            ;************************************************************************************************
                            ;undefined FUN_0003e588(void)
                                                          ;XREF[1,0]:   0003e5a6
ram:0003e588    18df            svc         0x18                                    
ram:0003e58a    7047            bx          lr                                      
                            ;************************************************************************************************
                            ;*                                           FUNCTION                                           *
                            ;************************************************************************************************
                            ;undefined FUN_0003e58c(int param_1)
          ;param_1       int                 r0                      
          ;local_18      undefined4         -18                      ;XREF[1,0]:   0003e59e
          ;local_1c      undefined4         -1c                      ;XREF[1,0]:   0003e5fa
          ;local_20      undefined1         -20                      ;XREF[2,0]:   0003e5ee,0003e5fc
                                                          ;XREF[2,0]:   0003e70e,0003e762
ram:0003e58c    10b5            push        {r4,lr}                                 
ram:0003e58e    86b0            sub         sp,#0x18                                
ram:0003e590    0400            movs        r4,param_1                              
ram:0003e592    1022            movs        r2,#0x10                                
ram:0003e594    0021            movs        r1,#0x0                                 
ram:0003e596    02a8            add         param_1,sp,#0x8                         
ram:0003e598    fdf708fe        bl          FUN_0003c1ac                            ;undefined FUN_0003c1ac(undefined * p...
ram:0003e59c    0223            movs        r3,#0x2                                 
ram:0003e59e    0293            str         r3,[sp,#local_18+0x20]                  
ram:0003e5a0    002c            cmp         r4,#0x0                                 
ram:0003e5a2    08d0            beq         LAB_0003e5b6                            
ram:0003e5a4    02a8            add         param_1,sp,#0x8                         
ram:0003e5a6    fff7efff        bl          FUN_0003e588                            ;undefined FUN_0003e588(void)
ram:0003e5aa    0028            cmp         param_1,#0x0                            
ram:0003e5ac    03d0            beq         LAB_0003e5b6                            
ram:0003e5ae    0022            movs        r2,#0x0                                 
ram:0003e5b0    1100            movs        r1,r2                                   
ram:0003e5b2    fdf705fe        bl          FUN_0003c1c0                            ;undefined FUN_0003c1c0(void)
                            LAB_0003e5b6:                 ;XREF[2,0]:   0003e5a2,0003e5ac
ram:0003e5b6    f020            movs        param_1,#0xf0                           
ram:0003e5b8    8002            lsls        param_1=>MasterStackPointer,param_1,#0xa;= 20007f80
ram:0003e5ba    fff7e3ff        bl          FUN_0003e584                            ;undefined FUN_0003e584(void)
ram:0003e5be    0028            cmp         param_1,#0x0                            
ram:0003e5c0    03d0            beq         LAB_0003e5ca                            
ram:0003e5c2    0022            movs        r2,#0x0                                 
ram:0003e5c4    1100            movs        r1,r2                                   
ram:0003e5c6    fdf7fbfd        bl          FUN_0003c1c0                            ;undefined FUN_0003c1c0(void)
                            LAB_0003e5ca:                 ;XREF[1,0]:   0003e5c0
ram:0003e5ca    164b            ldr         r3=>LAB_0003f4dc...,[PTR_LAB_0003f4dc...;= 0003f4dd
ram:0003e5cc    4822            movs        r2,#0x48                                
ram:0003e5ce    1649            ldr         r1,[DAT_0003e628]                       ;= 200033E0h
ram:0003e5d0    0e20            movs        param_1,#0xe                            
ram:0003e5d2    00f02dff        bl          FUN_0003f430                            ;int FUN_0003f430(undefined4 param_1,...
ram:0003e5d6    0028            cmp         param_1,#0x0                            
ram:0003e5d8    03d0            beq         LAB_0003e5e2                            
ram:0003e5da    0022            movs        r2,#0x0                                 
ram:0003e5dc    1100            movs        r1,r2                                   
ram:0003e5de    fdf7effd        bl          FUN_0003c1c0                            ;undefined FUN_0003c1c0(void)
                            LAB_0003e5e2:                 ;XREF[1,0]:   0003e5d8
ram:0003e5e2    0822            movs        r2,#0x8                                 
ram:0003e5e4    0021            movs        r1,#0x0                                 
ram:0003e5e6    6846            mov         param_1,sp                              
ram:0003e5e8    fdf7e0fd        bl          FUN_0003c1ac                            ;undefined FUN_0003c1ac(undefined * p...
ram:0003e5ec    6b46            mov         r3,sp                                   
ram:0003e5ee    1a78            ldrb        r2,[r3,#0x0]=>local_20                  
ram:0003e5f0    0123            movs        r3,#0x1                                 
ram:0003e5f2    0024            movs        r4,#0x0                                 
ram:0003e5f4    1343            orrs        r3,r2                                   
ram:0003e5f6    6a46            mov         r2,sp                                   
ram:0003e5f8    6846            mov         param_1,sp                              
ram:0003e5fa    0194            str         r4,[sp,#local_1c+0x20]                  
ram:0003e5fc    1370            strb        r3,[r2,#0x0]=>local_20                  
ram:0003e5fe    fff7bfff        bl          FUN_0003e580                            ;undefined FUN_0003e580(void)
ram:0003e602    a042            cmp         param_1,r4                              
ram:0003e604    03d0            beq         LAB_0003e60e                            
ram:0003e606    2200            movs        r2,r4                                   
ram:0003e608    2100            movs        r1,r4                                   
ram:0003e60a    fdf7d9fd        bl          FUN_0003c1c0                            ;undefined FUN_0003c1c0(void)
                            LAB_0003e60e:                 ;XREF[1,0]:   0003e604
ram:0003e60e    0748            ldr         param_1=>LAB_000...,[PTR_LAB_0003e630...;= 0003e631
ram:0003e610    00f03cff        bl          FUN_0003f48c                            ;undefined4 FUN_0003f48c(int param_1)
ram:0003e614    0028            cmp         param_1,#0x0                            
ram:0003e616    03d0            beq         LAB_0003e620                            
ram:0003e618    0022            movs        r2,#0x0                                 
ram:0003e61a    1100            movs        r1,r2                                   
ram:0003e61c    fdf7d0fd        bl          FUN_0003c1c0                            ;undefined FUN_0003c1c0(void)
                            LAB_0003e620:                 ;XREF[1,0]:   0003e616
ram:0003e620    06b0            add         sp,#0x18                                
ram:0003e622    10bd            pop         {r4,pc}                                 
                            PTR_LAB_0003f4dc+1+1_0003e624:;XREF[1,0]:   0003e5ca
ram:0003e624    ddf40300        addr        LAB_0003f4dc+1+1                        
                            DAT_0003e628:                 ;XREF[1,0]:   0003e5ce
ram:0003e628    e0330020        undefined4  200033E0h                               
                            PTR_LAB_0003e630+1+1_0003e62c:;XREF[1,0]:   0003e60e
ram:0003e62c    31e60300        addr        LAB_0003e630+1+1                        
                            ;************************************************************************************************
                            ;*                                           FUNCTION                                           *
                            ;************************************************************************************************
                            ;undefined LAB_0003e630+1(int param_1, undefined4 param_2, uint param_3)
          ;param_1       int                 r0                      
          ;param_2       undefined4          r1                      
          ;param_3       uint                r2                      
                                                          ;XREF[0,2]:   0003e60e,0003e62c
ram:0003e630    10b5            push        {r4,lr}                                 
ram:0003e632    fff7b1fe        bl          FUN_0003e398                            ;int FUN_0003e398(int param_1, undefi...
ram:0003e636    10bd            pop         {r4,pc}                                 
                            ;************************************************************************************************
                            ;*                                           FUNCTION                                           *
                            ;************************************************************************************************
                            ;undefined FUN_0003e638(void)
                                                          ;XREF[2,0]:   0003e712,0003e766
ram:0003e638    10b5            push        {r4,lr}                                 
ram:0003e63a    064a            ldr         r2,[DAT_0003e654]                       ;= 20003050h
ram:0003e63c    1421            movs        r1,#0x14                                
ram:0003e63e    0820            movs        r0,#0x8                                 
ram:0003e640    fdf7cefd        bl          FUN_0003c1e0                            ;uint FUN_0003c1e0(undefined2 param_1...
ram:0003e644    0028            cmp         r0,#0x0                                 
ram:0003e646    03d0            beq         LAB_0003e650                            
ram:0003e648    0022            movs        r2,#0x0                                 
ram:0003e64a    1100            movs        r1,r2                                   
ram:0003e64c    fdf7b8fd        bl          FUN_0003c1c0                            ;undefined FUN_0003c1c0(void)
                            LAB_0003e650:                 ;XREF[1,0]:   0003e646
ram:0003e650    10bd            pop         {r4,pc}                                 
ram:0003e652    c046            mov         r8,r8                                   
                            DAT_0003e654:                 ;XREF[1,0]:   0003e63a
ram:0003e654    50300020        undefined4  20003050h                               
                            ;************************************************************************************************
                            ;*                                           FUNCTION                                           *
                            ;************************************************************************************************
                            ;undefined FUN_0003e658(void)
                                                          ;XREF[1,0]:   0003f37e
ram:0003e658    10b5            push        {r4,lr}                                 
ram:0003e65a    0a00            movs        r2,r1                                   
ram:0003e65c    0100            movs        r1,r0                                   
ram:0003e65e    0248            ldr         r0,[DAT_0003e668]                       ;= DEADBEEFh
ram:0003e660    fdf7aefd        bl          FUN_0003c1c0                            ;undefined FUN_0003c1c0(void)
ram:0003e664    10bd            pop         {r4,pc}                                 
ram:0003e666    c046            mov         r8,r8                                   
                            DAT_0003e668:                 ;XREF[1,0]:   0003e65e
ram:0003e668    efbeadde        undefined4  DEADBEEFh                               
                            ;************************************************************************************************
                            ;*                                           FUNCTION                                           *
                            ;************************************************************************************************
                            ;undefined FUN_0003e66c(void)
          ;local_18      undefined4         -18                      ;XREF[1,0]:   0003e6c4
                                                          ;XREF[1,0]:   0003c10e
ram:0003e66c    37b5            push        {r0,r1,r2,r4,r5,lr}                     
ram:0003e66e    8022            movs        r2,#0x80                                
ram:0003e670    4d4b            ldr         r3,[DAT_0003e7a8]                       ;= 0000051Ch
ram:0003e672    d205            lsls        r2,r2,#0x17                             
ram:0003e674    d558            ldr         r5,[r2,r3]=>DAT_4000051c                
ram:0003e676    b12d            cmp         r5,#0xb1                                
ram:0003e678    01d1            bne         LAB_0003e67e                            
ram:0003e67a    0021            movs        r1,#0x0                                 
ram:0003e67c    d150            str         r1,[r2,r3]=>DAT_4000051c                
                            LAB_0003e67e:                 ;XREF[1,0]:   0003e678
ram:0003e67e    a023            movs        r3,#0xa0                                
ram:0003e680    0321            movs        r1,#0x3                                 
ram:0003e682    4a4a            ldr         r2,[DAT_0003e7ac]                       ;= 0000075Ch
ram:0003e684    db05            lsls        r3,r3,#0x17                             
ram:0003e686    9950            str         r1,[r3,r2]=>DAT_5000075c                
ram:0003e688    8021            movs        r1,#0x80                                
ram:0003e68a    a122            movs        r2,#0xa1                                
ram:0003e68c    0904            lsls        r1,r1,#0x10                             
ram:0003e68e    d200            lsls        r2,r2,#0x3                              
ram:0003e690    9950            str         r1,[r3,r2]=>DAT_50000508                
ram:0003e692    f023            movs        r3,#0xf0                                
ram:0003e694    464a            ldr         r2,[DAT_0003e7b0]                       ;= 10001014h
ram:0003e696    9b02            lsls        r3,r3,#0xa                              
ram:0003e698    1268            ldr         r2,[r2,#0x0]=>DAT_10001014              
ram:0003e69a    9a42            cmp         r2,r3                                   
ram:0003e69c    04d0            beq         LAB_0003e6a8                            
ram:0003e69e    0022            movs        r2,#0x0                                 
ram:0003e6a0    1100            movs        r1,r2                                   
ram:0003e6a2    1000            movs        r0,r2                                   
ram:0003e6a4    fdf78cfd        bl          FUN_0003c1c0                            ;undefined FUN_0003c1c0(void)
                            LAB_0003e6a8:                 ;XREF[1,0]:   0003e69c
ram:0003e6a8    8023            movs        r3,#0x80                                
ram:0003e6aa    5b05            lsls        r3,r3,#0x15                             
ram:0003e6ac    1a69            ldr         r2,[r3,#offset DAT_10000010 &0xff]      
ram:0003e6ae    8023            movs        r3,#0x80                                
ram:0003e6b0    db00            lsls        r3,r3,#0x3                              
ram:0003e6b2    9a42            cmp         r2,r3                                   
ram:0003e6b4    04d0            beq         LAB_0003e6c0                            
ram:0003e6b6    0022            movs        r2,#0x0                                 
ram:0003e6b8    1100            movs        r1,r2                                   
ram:0003e6ba    1000            movs        r0,r2                                   
ram:0003e6bc    fdf780fd        bl          FUN_0003c1c0                            ;undefined FUN_0003c1c0(void)
                            LAB_0003e6c0:                 ;XREF[1,0]:   0003e6b4
ram:0003e6c0    3c4b            ldr         r3,[PTR_LAB_0003cc38+1+1_0003e7b4]      ;= 0003cc39
ram:0003e6c2    0522            movs        r2,#0x5                                 
ram:0003e6c4    0093            str         r3=>LAB_0003cc38+1+1,[sp,#0x0]=>local_18
ram:0003e6c6    0321            movs        r1,#0x3                                 
ram:0003e6c8    3b4b            ldr         r3,[DAT_0003e7b8]                       ;= 200031A0h
ram:0003e6ca    0020            movs        r0,#0x0                                 
ram:0003e6cc    fef786f9        bl          FUN_0003c9dc                            ;undefined8 FUN_0003c9dc(undefined4 p...
ram:0003e6d0    0028            cmp         r0,#0x0                                 
ram:0003e6d2    03d0            beq         LAB_0003e6dc                            
ram:0003e6d4    0022            movs        r2,#0x0                                 
ram:0003e6d6    1100            movs        r1,r2                                   
ram:0003e6d8    fdf772fd        bl          FUN_0003c1c0                            ;undefined FUN_0003c1c0(void)
                            LAB_0003e6dc:                 ;XREF[1,0]:   0003e6d2
ram:0003e6dc    fef7aafb        bl          FUN_0003ce34                            ;undefined FUN_0003ce34(undefined4 pa...
ram:0003e6e0    2c00            movs        r4,r5                                   
ram:0003e6e2    fef7f7fb        bl          FUN_0003ced4                            ;undefined8 FUN_0003ced4(undefined4 p...
ram:0003e6e6    b13c            subs        r4,#0xb1                                
ram:0003e6e8    0028            cmp         r0,#0x0                                 
ram:0003e6ea    37d0            beq         LAB_0003e75c                            
ram:0003e6ec    8021            movs        r1,#0x80                                
ram:0003e6ee    a022            movs        r2,#0xa0                                
ram:0003e6f0    324b            ldr         r3,[DAT_0003e7bc]                       ;= 0000050Ch
ram:0003e6f2    0904            lsls        r1,r1,#0x10                             
ram:0003e6f4    d205            lsls        r2,r2,#0x17                             
ram:0003e6f6    d150            str         r1,[r2,r3]=>DAT_5000050c                
ram:0003e6f8    fef7fbfb        bl          FUN_0003cef2                            ;int FUN_0003cef2(undefined4 param_1,...
ram:0003e6fc    0028            cmp         r0,#0x0                                 
ram:0003e6fe    03d0            beq         LAB_0003e708                            
ram:0003e700    0022            movs        r2,#0x0                                 
ram:0003e702    1100            movs        r1,r2                                   
ram:0003e704    fdf75cfd        bl          FUN_0003c1c0                            ;undefined FUN_0003c1c0(void)
                            LAB_0003e708:                 ;XREF[1,0]:   0003e6fe
ram:0003e708    601e            subs        r0,r4,#0x1                              
ram:0003e70a    8441            sbcs        r4,r0                                   
ram:0003e70c    e0b2            uxtb        r0,r4                                   
ram:0003e70e    fff73dff        bl          FUN_0003e58c                            ;undefined FUN_0003e58c(int param_1)
ram:0003e712    fff791ff        bl          FUN_0003e638                            ;undefined FUN_0003e638(void)
ram:0003e716    fef713fc        bl          FUN_0003cf40                            ;undefined4 FUN_0003cf40(void)
ram:0003e71a    0028            cmp         r0,#0x0                                 
ram:0003e71c    03d0            beq         LAB_0003e726                            
ram:0003e71e    0022            movs        r2,#0x0                                 
ram:0003e720    1100            movs        r1,r2                                   
ram:0003e722    fdf74dfd        bl          FUN_0003c1c0                            ;undefined FUN_0003c1c0(void)
                            LAB_0003e726:                 ;XREF[1,0]:   0003e71c
ram:0003e726    8021            movs        r1,#0x80                                
ram:0003e728    a123            movs        r3,#0xa1                                
ram:0003e72a    a022            movs        r2,#0xa0                                
ram:0003e72c    0904            lsls        r1,r1,#0x10                             
ram:0003e72e    db00            lsls        r3,r3,#0x3                              
ram:0003e730    d205            lsls        r2,r2,#0x17                             
ram:0003e732    d150            str         r1,[r2,r3]=>DAT_50000508                
                            LAB_0003e734:                 ;XREF[1,0]:   0003e76a
ram:0003e734    b12d            cmp         r5,#0xb1                                
ram:0003e736    19d1            bne         LAB_0003e76c                            
                            LAB_0003e738:                 ;XREF[1,0]:   0003e778
ram:0003e738    a025            movs        r5,#0xa0                                
ram:0003e73a    8024            movs        r4,#0x80                                
ram:0003e73c    1f4b            ldr         r3,[DAT_0003e7bc]                       ;= 0000050Ch
ram:0003e73e    ed05            lsls        r5,r5,#0x17                             
ram:0003e740    2404            lsls        r4,r4,#0x10                             
ram:0003e742    ec50            str         r4,[r5,r3]=>DAT_5000050c                
ram:0003e744    fef790fb        bl          FUN_0003ce68                            ;int FUN_0003ce68(void)
ram:0003e748    0028            cmp         r0,#0x0                                 
ram:0003e74a    03d0            beq         LAB_0003e754                            
ram:0003e74c    0022            movs        r2,#0x0                                 
ram:0003e74e    1100            movs        r1,r2                                   
ram:0003e750    fdf736fd        bl          FUN_0003c1c0                            ;undefined FUN_0003c1c0(void)
                            LAB_0003e754:                 ;XREF[1,0]:   0003e74a
ram:0003e754    a123            movs        r3,#0xa1                                
ram:0003e756    db00            lsls        r3,r3,#0x3                              
ram:0003e758    ec50            str         r4,[r5,r3]=>DAT_50000508                
ram:0003e75a    0ee0            b           LAB_0003e77a                            
                            LAB_0003e75c:                 ;XREF[1,0]:   0003e6ea
ram:0003e75c    601e            subs        r0,r4,#0x1                              
ram:0003e75e    8441            sbcs        r4,r0                                   
ram:0003e760    e0b2            uxtb        r0,r4                                   
ram:0003e762    fff713ff        bl          FUN_0003e58c                            ;undefined FUN_0003e58c(int param_1)
ram:0003e766    fff767ff        bl          FUN_0003e638                            ;undefined FUN_0003e638(void)
ram:0003e76a    e3e7            b           LAB_0003e734                            
                            LAB_0003e76c:                 ;XREF[1,0]:   0003e736
ram:0003e76c    c023            movs        r3,#0xc0                                
ram:0003e76e    9b01            lsls        r3,r3,#0x6                              
ram:0003e770    9868            ldr         r0,[r3,#offset DAT_00003008 &0xff]      
ram:0003e772    fef7b7fa        bl          FUN_0003cce4                            ;undefined8 FUN_0003cce4(int * param_...
ram:0003e776    0028            cmp         r0,#0x0                                 
ram:0003e778    ded0            beq         LAB_0003e738                            
                            LAB_0003e77a:                 ;XREF[1,0]:   0003e75a
ram:0003e77a    c024            movs        r4,#0xc0                                
ram:0003e77c    a401            lsls        r4,r4,#0x6                              
ram:0003e77e    a068            ldr         r0,[r4,#offset DAT_00003008 &0xff]      
ram:0003e780    fef7b0fa        bl          FUN_0003cce4                            ;undefined8 FUN_0003cce4(int * param_...
ram:0003e784    0028            cmp         r0,#0x0                                 
ram:0003e786    06d0            beq         LAB_0003e796                            
ram:0003e788    fef7a4fb        bl          FUN_0003ced4                            ;undefined8 FUN_0003ced4(undefined4 p...
ram:0003e78c    0028            cmp         r0,#0x0                                 
ram:0003e78e    02d1            bne         LAB_0003e796                            
ram:0003e790    a068            ldr         r0,[r4,#offset DAT_00003008 &0xff]      
ram:0003e792    fef775fb        bl          FUN_0003ce80                            ;undefined FUN_0003ce80(void)
                            LAB_0003e796:                 ;XREF[2,0]:   0003e786,0003e78e
ram:0003e796    bff34f8f        dsb         0xf                                     
ram:0003e79a    094a            ldr         r2,[DAT_0003e7c0]                       ;= 05FA0004h
ram:0003e79c    094b            ldr         r3,[DAT_0003e7c4]                       ;= E000ED00h
ram:0003e79e    da60            str         r2,[r3,#offset DAT_e000ed0c &0xff]      
ram:0003e7a0    bff34f8f        dsb         0xf                                     
                            LAB_0003e7a4:                 ;XREF[1,0]:   0003e7a4
ram:0003e7a4    fee7            b           LAB_0003e7a4                            
ram:0003e7a6    c046            mov         r8,r8                                   
                            DAT_0003e7a8:                 ;XREF[1,0]:   0003e670
ram:0003e7a8    1c050000        undefined4  0000051Ch                               
                            DAT_0003e7ac:                 ;XREF[1,0]:   0003e682
ram:0003e7ac    5c070000        undefined4  0000075Ch                               
                            DAT_0003e7b0:                 ;XREF[1,0]:   0003e694
ram:0003e7b0    14100010        undefined4  10001014h                               
                            PTR_LAB_0003cc38+1+1_0003e7b4:;XREF[1,0]:   0003e6c0
ram:0003e7b4    39cc0300        addr        LAB_0003cc38+1+1                        
                            DAT_0003e7b8:                 ;XREF[1,0]:   0003e6c8
ram:0003e7b8    a0310020        undefined4  200031A0h                               
                            DAT_0003e7bc:                 ;XREF[2,0]:   0003e6f0,0003e73c
ram:0003e7bc    0c050000        undefined4  0000050Ch                               
                            DAT_0003e7c0:                 ;XREF[1,0]:   0003e79a
ram:0003e7c0    0400fa05        undefined4  05FA0004h                               
                            DAT_0003e7c4:                 ;XREF[1,0]:   0003e79c
ram:0003e7c4    00ed00e0        undefined4  E000ED00h                               
                            ;************************************************************************************************
                            ;*                                           FUNCTION                                           *
                            ;************************************************************************************************
                            ;undefined FUN_0003e7c8(void)
                                                          ;XREF[1,0]:   0003eb96
ram:0003e7c8    72df            svc         0x72                                    
ram:0003e7ca    7047            bx          lr                                      
                            ;************************************************************************************************
                            ;*                                           FUNCTION                                           *
                            ;************************************************************************************************
                            ;undefined FUN_0003e7cc(void)
                                                          ;XREF[1,0]:   0003e920
ram:0003e7cc    79df            svc         0x79                                    
ram:0003e7ce    7047            bx          lr                                      
                            ;************************************************************************************************
                            ;*                                           FUNCTION                                           *
                            ;************************************************************************************************
                            ;undefined FUN_0003e7d0(void)
                                                          ;XREF[1,0]:   0003e8d2
ram:0003e7d0    7ddf            svc         0x7d                                    
ram:0003e7d2    7047            bx          lr                                      
                            ;************************************************************************************************
                            ;*                                           FUNCTION                                           *
                            ;************************************************************************************************
                            ;undefined FUN_0003e7d4(void)
                                                          ;XREF[2,0]:   0003e820,0003e864
ram:0003e7d4    65df            svc         0x65                                    
ram:0003e7d6    7047            bx          lr                                      
                            ;************************************************************************************************
                            ;*                                           FUNCTION                                           *
                            ;************************************************************************************************
                            ;int FUN_0003e7d8(ushort * param_1, undefined param_2, uint param_3, int param_4, byte * param_5)
          ;param_1       ushort *            r0                      
          ;param_2       undefined           r1                      
          ;param_3       uint                r2                      
          ;param_4       int                 r3                      
          ;param_5       byte *               0                      ;XREF[1,0]:   0003e7e2
          ;local_1d      undefined1         -1d                      ;XREF[2,0]:   0003e82a,0003e86c
          ;local_24      undefined4         -24                      ;XREF[2,0]:   0003e7e8,0003e850
          ;local_28      undefined4         -28                      ;XREF[2,0]:   0003e7ea,0003e82c
          ;local_2c      undefined4         -2c                      ;XREF[3,0]:   0003e7ec,0003e7fc,0003e802
          ;local_30      undefined4         -30                      ;XREF[4,0]:   0003e7e4,0003e804,0003e84e,0003e856
                                                          ;XREF[2,0]:   0003e88e,0003e8a0
ram:0003e7d8    f0b5            push        {r4,r5,r6,r7,lr}                        
ram:0003e7da    0024            movs        r4,#0x0                                 
ram:0003e7dc    0600            movs        r6,param_1                              
ram:0003e7de    2500            movs        r5,r4                                   
ram:0003e7e0    87b0            sub         sp,#0x1c                                
ram:0003e7e2    0c9f            ldr         r7,[sp,#param_5+0x30]                   
ram:0003e7e4    0093            str         param_4,[sp,#0x0]=>local_30             
ram:0003e7e6    3b78            ldrb        param_4,[r7,#0x0]                       
ram:0003e7e8    0391            str         param_2,[sp,#local_24+0x30]             
ram:0003e7ea    0292            str         param_3,[sp,#local_28+0x30]             
ram:0003e7ec    0193            str         param_4,[sp,#local_2c+0x30]             
                            LAB_0003e7ee:                 ;XREF[1,0]:   0003e878
ram:0003e7ee    3388            ldrh        param_4,[r6,#0x0]                       
ram:0003e7f0    9d42            cmp         r5,param_4                              
ram:0003e7f2    0adb            blt         LAB_0003e80a                            
ram:0003e7f4    0020            movs        param_1,#0x0                            
ram:0003e7f6    8442            cmp         r4,param_1                              
ram:0003e7f8    40d0            beq         LAB_0003e87c                            
ram:0003e7fa    3b78            ldrb        param_4,[r7,#0x0]                       
ram:0003e7fc    019a            ldr         param_3,[sp,#local_2c+0x30]             
ram:0003e7fe    013b            subs        param_4,#0x1                            
ram:0003e800    9b1a            subs        param_4,param_4,param_3                 
ram:0003e802    0199            ldr         param_2,[sp,#local_2c+0x30]             
ram:0003e804    009a            ldr         param_3,[sp,#0x0]=>local_30             
ram:0003e806    5354            strb        param_4,[param_3,param_2]               
ram:0003e808    38e0            b           LAB_0003e87c                            
                            LAB_0003e80a:                 ;XREF[1,0]:   0003e7f2
ram:0003e80a    7368            ldr         param_4,[r6,#0x4]                       
ram:0003e80c    a900            lsls        param_2,r5,#0x2                         
ram:0003e80e    5918            adds        param_2,param_4,param_2                 
ram:0003e810    0422            movs        param_3,#0x4                            
ram:0003e812    05a8            add         param_1,sp,#0x14                        
ram:0003e814    00f045ff        bl          FUN_0003f6a2                            ;undefined FUN_0003f6a2(int param_1, ...
ram:0003e818    04ab            add         param_4,sp,#0x10                        
ram:0003e81a    0022            movs        param_3,#0x0                            
ram:0003e81c    d91c            adds        param_2,param_4,#0x3                    
ram:0003e81e    05a8            add         param_1,sp,#0x14                        
ram:0003e820    fff7d8ff        bl          FUN_0003e7d4                            ;undefined FUN_0003e7d4(void)
ram:0003e824    0028            cmp         param_1,#0x0                            
ram:0003e826    29d1            bne         LAB_0003e87c                            
ram:0003e828    04ab            add         param_4,sp,#0x10                        
ram:0003e82a    db78            ldrb        param_4,[r3,#local_1d+0x20]             
ram:0003e82c    029a            ldr         param_3,[sp,#local_28+0x30]             
ram:0003e82e    9342            cmp         param_4,param_3                         
ram:0003e830    21d1            bne         LAB_0003e876                            
ram:0003e832    6142            rsbs        param_2,r4                              
ram:0003e834    6141            adcs        param_2,r4                              
ram:0003e836    3b78            ldrb        param_4,[r7,#0x0]                       
ram:0003e838    4900            lsls        param_2,param_2,#0x1                    
ram:0003e83a    9a18            adds        param_3,param_4,param_3                 
ram:0003e83c    5218            adds        param_3,param_3,param_2                 
ram:0003e83e    1f2a            cmp         param_3,#0x1f                           
ram:0003e840    1bdc            bgt         LAB_0003e87a                            
ram:0003e842    002c            cmp         r4,#0x0                                 
ram:0003e844    07d1            bne         LAB_0003e856                            
ram:0003e846    6946            mov         param_2,sp                              
ram:0003e848    9a1c            adds        param_3,param_4,#0x2                    
ram:0003e84a    3a70            strb        param_3,[r7,#0x0]                       
ram:0003e84c    0133            adds        param_4,#0x1                            
ram:0003e84e    009a            ldr         param_3,[sp,#0x0]=>local_30             
ram:0003e850    097b            ldrb        param_2,[r1,#local_24+0x30]             
ram:0003e852    dbb2            uxtb        param_4,param_4                         
ram:0003e854    d154            strb        param_2,[param_3,param_4]               
                            LAB_0003e856:                 ;XREF[1,0]:   0003e844
ram:0003e856    009b            ldr         param_4,[sp,#0x0]=>local_30             
ram:0003e858    3a78            ldrb        param_3,[r7,#0x0]                       
ram:0003e85a    05a8            add         param_1,sp,#0x14                        
ram:0003e85c    9a18            adds        param_3,param_4,param_3                 
ram:0003e85e    04ab            add         param_4,sp,#0x10                        
ram:0003e860    dc1c            adds        r4,param_4,#0x3                         
ram:0003e862    2100            movs        param_2,r4                              
ram:0003e864    fff7b6ff        bl          FUN_0003e7d4                            ;undefined FUN_0003e7d4(void)
ram:0003e868    0028            cmp         param_1,#0x0                            
ram:0003e86a    07d1            bne         LAB_0003e87c                            
ram:0003e86c    2278            ldrb        param_3,[r4,#0x0]=>local_1d             
ram:0003e86e    0124            movs        r4,#0x1                                 
ram:0003e870    3b78            ldrb        param_4,[r7,#0x0]                       
ram:0003e872    9b18            adds        param_4,param_4,param_3                 
ram:0003e874    3b70            strb        param_4,[r7,#0x0]                       
                            LAB_0003e876:                 ;XREF[1,0]:   0003e830
ram:0003e876    0135            adds        r5,#0x1                                 
ram:0003e878    b9e7            b           LAB_0003e7ee                            
                            LAB_0003e87a:                 ;XREF[1,0]:   0003e840
ram:0003e87a    0c20            movs        param_1,#0xc                            
                            LAB_0003e87c:                 ;XREF[4,0]:   0003e7f8,0003e808,0003e826,0003e86a
ram:0003e87c    07b0            add         sp,#0x1c                                
ram:0003e87e    f0bd            pop         {r4,r5,r6,r7,pc}                        
                            ;************************************************************************************************
                            ;*                                           FUNCTION                                           *
                            ;************************************************************************************************
                            ;undefined FUN_0003e880(ushort * param_1, undefined param_2, undefined param_3, int param_4, byte * param_5)
          ;param_1       ushort *            r0                      
          ;param_2       undefined           r1                      
          ;param_3       undefined           r2                      
          ;param_4       int                 r3                      
          ;param_5       byte *               0                      ;XREF[1,0]:   0003e882
          ;local_20      undefined4         -20                      ;XREF[2,0]:   0003e886,0003e896
                                                          ;XREF[3,0]:   0003e9ba,0003e9d4,0003ea54
ram:0003e880    f7b5            push        {param_1,param_2,param_3,r4,r5,r6,r7,lr}
ram:0003e882    089e            ldr         r6,[sp,#param_5+0x20]                   
ram:0003e884    1700            movs        r7,param_3                              
ram:0003e886    0096            str         r6,[sp,#0x0]=>local_20                  
ram:0003e888    0222            movs        param_3,#0x2                            
ram:0003e88a    0400            movs        r4,param_1                              
ram:0003e88c    1d00            movs        r5,param_4                              
ram:0003e88e    fff7a3ff        bl          FUN_0003e7d8                            ;int FUN_0003e7d8(ushort * param_1, u...
ram:0003e892    0028            cmp         param_1,#0x0                            
ram:0003e894    06d1            bne         LAB_0003e8a4                            
ram:0003e896    0096            str         r6,[sp,#0x0]=>local_20                  
ram:0003e898    2b00            movs        param_4,r5                              
ram:0003e89a    1022            movs        param_3,#0x10                           
ram:0003e89c    3900            movs        param_2,r7                              
ram:0003e89e    2000            movs        param_1,r4                              
ram:0003e8a0    fff79aff        bl          FUN_0003e7d8                            ;int FUN_0003e7d8(ushort * param_1, u...
                            LAB_0003e8a4:                 ;XREF[1,0]:   0003e894
ram:0003e8a4    febd            pop         {param_2,param_3,param_4,r4,r5,r6,r7,pc}
ram:0003e8a6    0000            movs        r0,r0                                   
                            ;************************************************************************************************
                            ;*                                           FUNCTION                                           *
                            ;************************************************************************************************
                            ;int FUN_0003e8a8(char * param_1, char * param_2, byte * param_3)
          ;param_1       char *              r0                      
          ;param_2       char *              r1                      
          ;param_3       byte *              r2                      
          ;local_1a      undefined2         -1a                      ;XREF[4,0]:   0003e8d0,0003e8e0,0003e8f8,0003e93e
          ;local_24      undefined4         -24                      ;XREF[2,0]:   0003ea3c,0003eae0
          ;local_28      undefined4         -28                      ;XREF[4,0]:   0003eade,0003eae2,0003eaec,0003eb38
          ;local_30      undefined4         -30                      ;XREF[3,0]:   0003e9b0,0003e9ca,0003ea4a
                                                          ;XREF[2,0]:   0003eb82,0003eba0
ram:0003e8a8    0023            movs        r3,#0x0                                 
ram:0003e8aa    f0b5            push        {r4,r5,r6,r7,lr}                        
ram:0003e8ac    1370            strb        r3,[param_3,#0x0]                       
ram:0003e8ae    0378            ldrb        r3,[param_1,#0x0]                       
ram:0003e8b0    87b0            sub         sp,#0x1c                                
ram:0003e8b2    0600            movs        r6,param_1                              
ram:0003e8b4    0d00            movs        r5,param_2                              
ram:0003e8b6    1400            movs        r4,param_3                              
ram:0003e8b8    002b            cmp         r3,#0x0                                 
ram:0003e8ba    26d0            beq         LAB_0003e90a                            
ram:0003e8bc    4378            ldrb        r3,[param_1,#0x1]                       
ram:0003e8be    0c20            movs        param_1,#0xc                            
ram:0003e8c0    1d2b            cmp         r3,#0x1d                                
ram:0003e8c2    5ddc            bgt         LAB_0003e980                            
ram:0003e8c4    0e27            movs        r7,#0xe                                 
ram:0003e8c6    02ab            add         r3,sp,#0x8                              
ram:0003e8c8    ff18            adds        r7,r7,r3                                
ram:0003e8ca    1d23            movs        r3,#0x1d                                
ram:0003e8cc    881c            adds        param_1,param_2,#0x2                    
ram:0003e8ce    3900            movs        param_2,r7                              
ram:0003e8d0    3b80            strh        r3,[r7,#0x0]=>local_1a                  
ram:0003e8d2    fff77dff        bl          FUN_0003e7d0                            ;undefined FUN_0003e7d0(void)
ram:0003e8d6    0028            cmp         param_1,#0x0                            
ram:0003e8d8    52d1            bne         LAB_0003e980                            
ram:0003e8da    3378            ldrb        r3,[r6,#0x0]                            
ram:0003e8dc    022b            cmp         r3,#0x2                                 
ram:0003e8de    03d1            bne         LAB_0003e8e8                            
ram:0003e8e0    3b88            ldrh        r3,[r7,#0x0]=>local_1a                  
ram:0003e8e2    0922            movs        param_3,#0x9                            
ram:0003e8e4    1d2b            cmp         r3,#0x1d                                
ram:0003e8e6    08d9            bls         LAB_0003e8fa                            
                            LAB_0003e8e8:                 ;XREF[1,0]:   0003e8de
ram:0003e8e8    7378            ldrb        r3,[r6,#0x1]                            
ram:0003e8ea    002b            cmp         r3,#0x0                                 
ram:0003e8ec    03d0            beq         LAB_0003e8f6                            
ram:0003e8ee    9bb2            uxth        r3,r3                                   
ram:0003e8f0    0822            movs        param_3,#0x8                            
ram:0003e8f2    1d2b            cmp         r3,#0x1d                                
ram:0003e8f4    01d9            bls         LAB_0003e8fa                            
                            LAB_0003e8f6:                 ;XREF[1,0]:   0003e8ec
ram:0003e8f6    0822            movs        param_3,#0x8                            
ram:0003e8f8    3b88            ldrh        r3,[r7,#0x0]=>local_1a                  
                            LAB_0003e8fa:                 ;XREF[2,0]:   0003e8e6,0003e8f4
ram:0003e8fa    dbb2            uxtb        r3,r3                                   
ram:0003e8fc    591c            adds        param_2,r3,#0x1                         
ram:0003e8fe    2970            strb        param_2,[r5,#0x0]                       
ram:0003e900    6a70            strb        param_3,[r5,#0x1]                       
ram:0003e902    2278            ldrb        param_3,[r4,#0x0]                       
ram:0003e904    0232            adds        param_3,#0x2                            
ram:0003e906    9b18            adds        r3,r3,param_3                           
ram:0003e908    2370            strb        r3,[r4,#0x0]                            
                            LAB_0003e90a:                 ;XREF[1,0]:   0003e8ba
ram:0003e90a    b378            ldrb        r3,[r6,#0x2]                            
ram:0003e90c    002b            cmp         r3,#0x0                                 
ram:0003e90e    1ed0            beq         LAB_0003e94e                            
ram:0003e910    2378            ldrb        r3,[r4,#0x0]                            
ram:0003e912    0c20            movs        param_1,#0xc                            
ram:0003e914    1b2b            cmp         r3,#0x1b                                
ram:0003e916    33dc            bgt         LAB_0003e980                            
ram:0003e918    0e27            movs        r7,#0xe                                 
ram:0003e91a    02ab            add         r3,sp,#0x8                              
ram:0003e91c    ff18            adds        r7,r7,r3                                
ram:0003e91e    3800            movs        param_1,r7                              
ram:0003e920    fff754ff        bl          FUN_0003e7cc                            ;undefined FUN_0003e7cc(void)
ram:0003e924    0028            cmp         param_1,#0x0                            
ram:0003e926    2bd1            bne         LAB_0003e980                            
ram:0003e928    2378            ldrb        r3,[r4,#0x0]                            
ram:0003e92a    5a1c            adds        param_3,r3,#0x1                         
ram:0003e92c    2270            strb        param_3,[r4,#0x0]                       
ram:0003e92e    0322            movs        param_3,#0x3                            
ram:0003e930    ea54            strb        param_3,[r5,r3]                         
ram:0003e932    2378            ldrb        r3,[r4,#0x0]                            
ram:0003e934    5a1c            adds        param_3,r3,#0x1                         
ram:0003e936    2270            strb        param_3,[r4,#0x0]                       
ram:0003e938    1922            movs        param_3,#0x19                           
ram:0003e93a    ea54            strb        param_3,[r5,r3]                         
ram:0003e93c    2378            ldrb        r3,[r4,#0x0]                            
ram:0003e93e    3a88            ldrh        param_3,[r7,#0x0]=>local_1a             
ram:0003e940    eb18            adds        r3,r5,r3                                
ram:0003e942    1a70            strb        param_3,[r3,#0x0]                       
ram:0003e944    120a            lsrs        param_3,param_3,#0x8                    
ram:0003e946    5a70            strb        param_3,[r3,#0x1]                       
ram:0003e948    2378            ldrb        r3,[r4,#0x0]                            
ram:0003e94a    0233            adds        r3,#0x2                                 
ram:0003e94c    2370            strb        r3,[r4,#0x0]                            
                            LAB_0003e94e:                 ;XREF[1,0]:   0003e90e
ram:0003e94e    f378            ldrb        r3,[r6,#0x3]                            
ram:0003e950    002b            cmp         r3,#0x0                                 
ram:0003e952    0ed0            beq         LAB_0003e972                            
ram:0003e954    2378            ldrb        r3,[r4,#0x0]                            
ram:0003e956    5a1c            adds        param_3,r3,#0x1                         
ram:0003e958    2270            strb        param_3,[r4,#0x0]                       
ram:0003e95a    0222            movs        param_3,#0x2                            
ram:0003e95c    ea54            strb        param_3,[r5,r3]                         
ram:0003e95e    2378            ldrb        r3,[r4,#0x0]                            
ram:0003e960    5a1c            adds        param_3,r3,#0x1                         
ram:0003e962    2270            strb        param_3,[r4,#0x0]                       
ram:0003e964    0122            movs        param_3,#0x1                            
ram:0003e966    ea54            strb        param_3,[r5,r3]                         
ram:0003e968    2378            ldrb        r3,[r4,#0x0]                            
ram:0003e96a    9a18            adds        param_3,r3,param_3                      
ram:0003e96c    2270            strb        param_3,[r4,#0x0]                       
ram:0003e96e    f278            ldrb        param_3,[r6,#0x3]                       
ram:0003e970    ea54            strb        param_3,[r5,r3]                         
                            LAB_0003e972:                 ;XREF[1,0]:   0003e952
ram:0003e972    7268            ldr         param_3,[r6,#0x4]                       
ram:0003e974    002a            cmp         param_3,#0x0                            
ram:0003e976    14d0            beq         LAB_0003e9a2                            
ram:0003e978    2378            ldrb        r3,[r4,#0x0]                            
ram:0003e97a    1c2b            cmp         r3,#0x1c                                
ram:0003e97c    02dd            ble         LAB_0003e984                            
                            LAB_0003e97e:                 ;XREF[2,0]:   0003e9f6,0003ea66
ram:0003e97e    0c20            movs        param_1,#0xc                            
                            LAB_0003e980:                 ;XREF[9,0]:   0003e8c2,0003e8d8,0003e916,0003e926
                                                          ;             0003e9c0,0003e9da,0003ea46,0003ea5c
                                                          ;             0003ea70
ram:0003e980    07b0            add         sp,#0x1c                                
ram:0003e982    f0bd            pop         {r4,r5,r6,r7,pc}                        
                            LAB_0003e984:                 ;XREF[1,0]:   0003e97c
ram:0003e984    591c            adds        param_2,r3,#0x1                         
ram:0003e986    1278            ldrb        param_3,[param_3,#0x0]                  
ram:0003e988    2170            strb        param_2,[r4,#0x0]                       
ram:0003e98a    0221            movs        param_2,#0x2                            
ram:0003e98c    e954            strb        param_2,[r5,r3]                         
ram:0003e98e    2378            ldrb        r3,[r4,#0x0]                            
ram:0003e990    52b2            sxtb        param_3,param_3                         
ram:0003e992    591c            adds        param_2,r3,#0x1                         
ram:0003e994    2170            strb        param_2,[r4,#0x0]                       
ram:0003e996    0a21            movs        param_2,#0xa                            
ram:0003e998    e954            strb        param_2,[r5,r3]                         
ram:0003e99a    2378            ldrb        r3,[r4,#0x0]                            
ram:0003e99c    591c            adds        param_2,r3,#0x1                         
ram:0003e99e    2170            strb        param_2,[r4,#0x0]                       
ram:0003e9a0    ea54            strb        param_3,[r5,r3]                         
                            LAB_0003e9a2:                 ;XREF[1,0]:   0003e976
ram:0003e9a2    3389            ldrh        r3,[r6,#0x8]                            
ram:0003e9a4    002b            cmp         r3,#0x0                                 
ram:0003e9a6    4fd1            bne         LAB_0003ea48                            
                            LAB_0003e9a8:                 ;XREF[1,0]:   0003ea5a
ram:0003e9a8    338a            ldrh        r3,[r6,#0x10]                           
ram:0003e9aa    002b            cmp         r3,#0x0                                 
ram:0003e9ac    09d0            beq         LAB_0003e9c2                            
ram:0003e9ae    3000            movs        param_1,r6                              
ram:0003e9b0    0094            str         r4,[sp,#0x0]=>local_30                  
ram:0003e9b2    2b00            movs        r3,r5                                   
ram:0003e9b4    0722            movs        param_3,#0x7                            
ram:0003e9b6    0321            movs        param_2,#0x3                            
ram:0003e9b8    1030            adds        param_1,#0x10                           
ram:0003e9ba    fff761ff        bl          FUN_0003e880                            ;undefined FUN_0003e880(ushort * para...
ram:0003e9be    0028            cmp         param_1,#0x0                            
ram:0003e9c0    ded1            bne         LAB_0003e980                            
                            LAB_0003e9c2:                 ;XREF[1,0]:   0003e9ac
ram:0003e9c2    338b            ldrh        r3,[r6,#0x18]                           
ram:0003e9c4    002b            cmp         r3,#0x0                                 
ram:0003e9c6    09d0            beq         LAB_0003e9dc                            
ram:0003e9c8    3000            movs        param_1,r6                              
ram:0003e9ca    0094            str         r4,[sp,#0x0]=>local_30                  
ram:0003e9cc    2b00            movs        r3,r5                                   
ram:0003e9ce    1522            movs        param_3,#0x15                           
ram:0003e9d0    1421            movs        param_2,#0x14                           
ram:0003e9d2    1830            adds        param_1,#0x18                           
ram:0003e9d4    fff754ff        bl          FUN_0003e880                            ;undefined FUN_0003e880(ushort * para...
ram:0003e9d8    0028            cmp         param_1,#0x0                            
ram:0003e9da    d1d1            bne         LAB_0003e980                            
                            LAB_0003e9dc:                 ;XREF[1,0]:   0003e9c6
ram:0003e9dc    326a            ldr         param_3,[r6,#0x20]                      
ram:0003e9de    002a            cmp         param_3,#0x0                            
ram:0003e9e0    3dd1            bne         LAB_0003ea5e                            
                            LAB_0003e9e2:                 ;XREF[1,0]:   0003ead4
ram:0003e9e2    776a            ldr         r7,[r6,#0x24]                           
ram:0003e9e4    002f            cmp         r7,#0x0                                 
ram:0003e9e6    27d0            beq         LAB_0003ea38                            
ram:0003e9e8    3b79            ldrb        r3,[r7,#0x4]                            
ram:0003e9ea    2278            ldrb        param_3,[r4,#0x0]                       
ram:0003e9ec    981c            adds        param_1,r3,#0x2                         
ram:0003e9ee    911c            adds        param_2,param_3,#0x2                    
ram:0003e9f0    c0b2            uxtb        param_1,param_1                         
ram:0003e9f2    0918            adds        param_2,param_2,param_1                 
ram:0003e9f4    1f29            cmp         param_2,#0x1f                           
ram:0003e9f6    c2dc            bgt         LAB_0003e97e                            
ram:0003e9f8    511c            adds        param_2,param_3,#0x1                    
ram:0003e9fa    0333            adds        r3,#0x3                                 
ram:0003e9fc    2170            strb        param_2,[r4,#0x0]                       
ram:0003e9fe    ab54            strb        r3,[r5,param_3]                         
ram:0003ea00    2378            ldrb        r3,[r4,#0x0]                            
ram:0003ea02    5a1c            adds        param_3,r3,#0x1                         
ram:0003ea04    2270            strb        param_3,[r4,#0x0]                       
ram:0003ea06    ff22            movs        param_3,#0xff                           
ram:0003ea08    ea54            strb        param_3,[r5,r3]                         
ram:0003ea0a    2378            ldrb        r3,[r4,#0x0]                            
ram:0003ea0c    3a88            ldrh        param_3,[r7,#0x0]                       
ram:0003ea0e    eb18            adds        r3,r5,r3                                
ram:0003ea10    1a70            strb        param_3,[r3,#0x0]                       
ram:0003ea12    120a            lsrs        param_3,param_3,#0x8                    
ram:0003ea14    5a70            strb        param_3,[r3,#0x1]                       
ram:0003ea16    2078            ldrb        param_1,[r4,#0x0]                       
ram:0003ea18    0230            adds        param_1,#0x2                            
ram:0003ea1a    c0b2            uxtb        param_1,param_1                         
ram:0003ea1c    2070            strb        param_1,[r4,#0x0]                       
ram:0003ea1e    ba88            ldrh        param_3,[r7,#0x4]                       
ram:0003ea20    002a            cmp         param_3,#0x0                            
ram:0003ea22    09d0            beq         LAB_0003ea38                            
ram:0003ea24    b968            ldr         param_2,[r7,#0x8]                       
ram:0003ea26    0029            cmp         param_2,#0x0                            
ram:0003ea28    21d0            beq         LAB_0003ea6e                            
ram:0003ea2a    2818            adds        param_1,r5,param_1                      
ram:0003ea2c    00f039fe        bl          FUN_0003f6a2                            ;undefined FUN_0003f6a2(int param_1, ...
ram:0003ea30    bb88            ldrh        r3,[r7,#0x4]                            
ram:0003ea32    2278            ldrb        param_3,[r4,#0x0]                       
ram:0003ea34    9b18            adds        r3,r3,param_3                           
ram:0003ea36    2370            strb        r3,[r4,#0x0]                            
                            LAB_0003ea38:                 ;XREF[2,0]:   0003e9e6,0003ea22
ram:0003ea38    3300            movs        r3,r6                                   
ram:0003ea3a    2c33            adds        r3,#0x2c                                
ram:0003ea3c    0393            str         r3,[sp,#local_24+0x30]                  
ram:0003ea3e    1b78            ldrb        r3,[r3,#0x0]                            
ram:0003ea40    002b            cmp         r3,#0x0                                 
ram:0003ea42    48d1            bne         LAB_0003ead6                            
                            LAB_0003ea44:                 ;XREF[1,0]:   0003eae8
ram:0003ea44    0020            movs        param_1,#0x0                            
ram:0003ea46    9be7            b           LAB_0003e980                            
                            LAB_0003ea48:                 ;XREF[1,0]:   0003e9a6
ram:0003ea48    3000            movs        param_1,r6                              
ram:0003ea4a    0094            str         r4,[sp,#0x0]=>local_30                  
ram:0003ea4c    2b00            movs        r3,r5                                   
ram:0003ea4e    0622            movs        param_3,#0x6                            
ram:0003ea50    0221            movs        param_2,#0x2                            
ram:0003ea52    0830            adds        param_1,#0x8                            
ram:0003ea54    fff714ff        bl          FUN_0003e880                            ;undefined FUN_0003e880(ushort * para...
ram:0003ea58    0028            cmp         param_1,#0x0                            
ram:0003ea5a    a5d0            beq         LAB_0003e9a8                            
ram:0003ea5c    90e7            b           LAB_0003e980                            
                            LAB_0003ea5e:                 ;XREF[1,0]:   0003e9e0
ram:0003ea5e    2078            ldrb        param_1,[r4,#0x0]                       
ram:0003ea60    831d            adds        r3,param_1,#0x6                         
ram:0003ea62    1f2b            cmp         r3,#0x1f                                
ram:0003ea64    00d9            bls         LAB_0003ea68                            
ram:0003ea66    8ae7            b           LAB_0003e97e                            
                            LAB_0003ea68:                 ;XREF[1,0]:   0003ea64
ram:0003ea68    1188            ldrh        param_2,[param_3,#0x0]                  
ram:0003ea6a    0529            cmp         param_2,#0x5                            
ram:0003ea6c    01d8            bhi         LAB_0003ea72                            
                            LAB_0003ea6e:                 ;XREF[7,0]:   0003ea28,0003ea7e,0003ea84,0003ea8e
                                                          ;             0003ea9c,0003eada,0003eb28
ram:0003ea6e    0720            movs        param_1,#0x7                            
ram:0003ea70    86e7            b           LAB_0003e980                            
                            LAB_0003ea72:                 ;XREF[1,0]:   0003ea6c
ram:0003ea72    334b            ldr         r3,[DAT_0003eb40]                       ;= FFFFF37Fh
ram:0003ea74    334f            ldr         r7,[DAT_0003eb44]                       ;= 0000F37Dh
ram:0003ea76    cb18            adds        r3,param_2,r3                           
ram:0003ea78    9bb2            uxth        r3,r3                                   
ram:0003ea7a    bc46            mov         r12,r7                                  
ram:0003ea7c    bb42            cmp         r3,r7                                   
ram:0003ea7e    f6d9            bls         LAB_0003ea6e                            
ram:0003ea80    5388            ldrh        r3,[param_3,#0x2]                       
ram:0003ea82    052b            cmp         r3,#0x5                                 
ram:0003ea84    f3d9            bls         LAB_0003ea6e                            
ram:0003ea86    2e4f            ldr         r7,[DAT_0003eb40]                       ;= FFFFF37Fh
ram:0003ea88    df19            adds        r7,r3,r7                                
ram:0003ea8a    bfb2            uxth        r7,r7                                   
ram:0003ea8c    6745            cmp         r7,r12                                  
ram:0003ea8e    eed9            bls         LAB_0003ea6e                            
ram:0003ea90    2d4f            ldr         r7,[DAT_0003eb48]                       ;= 0000FFFFh
ram:0003ea92    b942            cmp         param_2,r7                              
ram:0003ea94    03d0            beq         LAB_0003ea9e                            
ram:0003ea96    bb42            cmp         r3,r7                                   
ram:0003ea98    01d0            beq         LAB_0003ea9e                            
ram:0003ea9a    9942            cmp         param_2,r3                              
ram:0003ea9c    e7d8            bhi         LAB_0003ea6e                            
                            LAB_0003ea9e:                 ;XREF[2,0]:   0003ea94,0003ea98
ram:0003ea9e    431c            adds        r3,param_1,#0x1                         
ram:0003eaa0    2370            strb        r3,[r4,#0x0]                            
ram:0003eaa2    0523            movs        r3,#0x5                                 
ram:0003eaa4    2b54            strb        r3,[r5,param_1]                         
ram:0003eaa6    2378            ldrb        r3,[r4,#0x0]                            
ram:0003eaa8    591c            adds        param_2,r3,#0x1                         
ram:0003eaaa    2170            strb        param_2,[r4,#0x0]                       
ram:0003eaac    1221            movs        param_2,#0x12                           
ram:0003eaae    e954            strb        param_2,[r5,r3]                         
ram:0003eab0    2378            ldrb        r3,[r4,#0x0]                            
ram:0003eab2    1188            ldrh        param_2,[param_3,#0x0]                  
ram:0003eab4    eb18            adds        r3,r5,r3                                
ram:0003eab6    1970            strb        param_2,[r3,#0x0]                       
ram:0003eab8    090a            lsrs        param_2,param_2,#0x8                    
ram:0003eaba    5970            strb        param_2,[r3,#0x1]                       
ram:0003eabc    2378            ldrb        r3,[r4,#0x0]                            
ram:0003eabe    0233            adds        r3,#0x2                                 
ram:0003eac0    dbb2            uxtb        r3,r3                                   
ram:0003eac2    2370            strb        r3,[r4,#0x0]                            
ram:0003eac4    5288            ldrh        param_3,[param_3,#0x2]                  
ram:0003eac6    eb18            adds        r3,r5,r3                                
ram:0003eac8    1a70            strb        param_3,[r3,#0x0]                       
ram:0003eaca    120a            lsrs        param_3,param_3,#0x8                    
ram:0003eacc    5a70            strb        param_3,[r3,#0x1]                       
ram:0003eace    2378            ldrb        r3,[r4,#0x0]                            
ram:0003ead0    0233            adds        r3,#0x2                                 
ram:0003ead2    2370            strb        r3,[r4,#0x0]                            
ram:0003ead4    85e7            b           LAB_0003e9e2                            
                            LAB_0003ead6:                 ;XREF[1,0]:   0003ea42
ram:0003ead6    b36a            ldr         r3,[r6,#0x28]                           
ram:0003ead8    002b            cmp         r3,#0x0                                 
ram:0003eada    c8d0            beq         LAB_0003ea6e                            
ram:0003eadc    0023            movs        r3,#0x0                                 
                            LAB_0003eade:                 ;XREF[1,0]:   0003eb3e
ram:0003eade    0293            str         r3,[sp,#local_28+0x30]                  
ram:0003eae0    039b            ldr         r3,[sp,#local_24+0x30]                  
ram:0003eae2    029a            ldr         param_3,[sp,#local_28+0x30]             
ram:0003eae4    1b78            ldrb        r3,[r3,#0x0]                            
ram:0003eae6    9342            cmp         r3,param_3                              
ram:0003eae8    acd9            bls         LAB_0003ea44                            
ram:0003eaea    0c27            movs        r7,#0xc                                 
ram:0003eaec    029b            ldr         r3,[sp,#local_28+0x30]                  
ram:0003eaee    2278            ldrb        param_3,[r4,#0x0]                       
ram:0003eaf0    5f43            muls        r7,r3                                   
ram:0003eaf2    b36a            ldr         r3,[r6,#0x28]                           
ram:0003eaf4    511c            adds        param_2,param_3,#0x1                    
ram:0003eaf6    df19            adds        r7,r3,r7                                
ram:0003eaf8    3b79            ldrb        r3,[r7,#0x4]                            
ram:0003eafa    2170            strb        param_2,[r4,#0x0]                       
ram:0003eafc    0333            adds        r3,#0x3                                 
ram:0003eafe    ab54            strb        r3,[r5,param_3]                         
ram:0003eb00    2378            ldrb        r3,[r4,#0x0]                            
ram:0003eb02    5a1c            adds        param_3,r3,#0x1                         
ram:0003eb04    2270            strb        param_3,[r4,#0x0]                       
ram:0003eb06    1622            movs        param_3,#0x16                           
ram:0003eb08    ea54            strb        param_3,[r5,r3]                         
ram:0003eb0a    2378            ldrb        r3,[r4,#0x0]                            
ram:0003eb0c    3a88            ldrh        param_3,[r7,#0x0]                       
ram:0003eb0e    eb18            adds        r3,r5,r3                                
ram:0003eb10    1a70            strb        param_3,[r3,#0x0]                       
ram:0003eb12    120a            lsrs        param_3,param_3,#0x8                    
ram:0003eb14    5a70            strb        param_3,[r3,#0x1]                       
ram:0003eb16    2078            ldrb        param_1,[r4,#0x0]                       
ram:0003eb18    0230            adds        param_1,#0x2                            
ram:0003eb1a    c0b2            uxtb        param_1,param_1                         
ram:0003eb1c    2070            strb        param_1,[r4,#0x0]                       
ram:0003eb1e    ba88            ldrh        param_3,[r7,#0x4]                       
ram:0003eb20    002a            cmp         param_3,#0x0                            
ram:0003eb22    09d0            beq         LAB_0003eb38                            
ram:0003eb24    b968            ldr         param_2,[r7,#0x8]                       
ram:0003eb26    0029            cmp         param_2,#0x0                            
ram:0003eb28    a1d0            beq         LAB_0003ea6e                            
ram:0003eb2a    2818            adds        param_1,r5,param_1                      
ram:0003eb2c    00f0b9fd        bl          FUN_0003f6a2                            ;undefined FUN_0003f6a2(int param_1, ...
ram:0003eb30    bb88            ldrh        r3,[r7,#0x4]                            
ram:0003eb32    2278            ldrb        param_3,[r4,#0x0]                       
ram:0003eb34    9b18            adds        r3,r3,param_3                           
ram:0003eb36    2370            strb        r3,[r4,#0x0]                            
                            LAB_0003eb38:                 ;XREF[1,0]:   0003eb22
ram:0003eb38    029b            ldr         r3,[sp,#local_28+0x30]                  
ram:0003eb3a    0133            adds        r3,#0x1                                 
ram:0003eb3c    dbb2            uxtb        r3,r3                                   
ram:0003eb3e    cee7            b           LAB_0003eade                            
                            DAT_0003eb40:                 ;XREF[2,0]:   0003ea72,0003ea86
ram:0003eb40    7ff3ffff        undefined4  FFFFF37Fh                               
                            DAT_0003eb44:                 ;XREF[1,0]:   0003ea74
ram:0003eb44    7df30000        undefined4  0000F37Dh                               
                            DAT_0003eb48:                 ;XREF[1,0]:   0003ea90
ram:0003eb48    ffff0000        undefined4  0000FFFFh                               
                            ;************************************************************************************************
                            ;*                                           FUNCTION                                           *
                            ;************************************************************************************************
                            ;int FUN_0003eb4c(char * param_1, char * param_2)
          ;param_1       char *              r0                      
          ;param_2       char *              r1                      
          ;local_59      undefined1         -59                      ;XREF[2,0]:   0003eb5e,0003eb90
          ;local_5a      undefined1         -5a                      ;XREF[2,0]:   0003eb5c,0003eb92
                                                          ;XREF[1,0]:   0003d926
ram:0003eb4c    f0b5            push        {r4,r5,r6,r7,lr}                        
ram:0003eb4e    93b0            sub         sp,#0x4c                                
ram:0003eb50    6b46            mov         r3,sp                                   
ram:0003eb52    6a46            mov         r2,sp                                   
ram:0003eb54    9e1d            adds        r6,r3,#0x6                              
ram:0003eb56    0023            movs        r3,#0x0                                 
ram:0003eb58    d71d            adds        r7,r2,#0x7                              
ram:0003eb5a    0d00            movs        r5,param_2                              
ram:0003eb5c    3370            strb        r3,[r6,#0x0]=>local_5a                  
ram:0003eb5e    3b70            strb        r3,[r7,#0x0]=>local_59                  
ram:0003eb60    9842            cmp         param_1,r3                              
ram:0003eb62    05d0            beq         LAB_0003eb70                            
ram:0003eb64    c378            ldrb        r3,[param_1,#0x3]                       
ram:0003eb66    5b07            lsls        r3,r3,#0x1d                             
ram:0003eb68    18d4            bmi         LAB_0003eb9c                            
                            LAB_0003eb6a:                 ;XREF[1,0]:   0003eb7a
ram:0003eb6a    0720            movs        param_1,#0x7                            
                            LAB_0003eb6c:                 ;XREF[3,0]:   0003eb8c,0003eb9a,0003ebaa
ram:0003eb6c    13b0            add         sp,#0x4c                                
ram:0003eb6e    f0bd            pop         {r4,r5,r6,r7,pc}                        
                            LAB_0003eb70:                 ;XREF[1,0]:   0003eb62
ram:0003eb70    0400            movs        r4,param_1                              
                            LAB_0003eb72:                 ;XREF[1,0]:   0003eba8
ram:0003eb72    002d            cmp         r5,#0x0                                 
ram:0003eb74    0bd0            beq         LAB_0003eb8e                            
ram:0003eb76    eb78            ldrb        r3,[r5,#0x3]                            
ram:0003eb78    002b            cmp         r3,#0x0                                 
ram:0003eb7a    f6d1            bne         LAB_0003eb6a                            
ram:0003eb7c    3a00            movs        r2,r7                                   
ram:0003eb7e    0aa9            add         param_2,sp,#0x28                        
ram:0003eb80    2800            movs        param_1,r5                              
ram:0003eb82    fff791fe        bl          FUN_0003e8a8                            ;int FUN_0003e8a8(char * param_1, cha...
ram:0003eb86    0aaa            add         r2,sp,#0x28                             
ram:0003eb88    0028            cmp         param_1,#0x0                            
ram:0003eb8a    01d0            beq         LAB_0003eb90                            
ram:0003eb8c    eee7            b           LAB_0003eb6c                            
                            LAB_0003eb8e:                 ;XREF[1,0]:   0003eb74
ram:0003eb8e    2a00            movs        r2,r5                                   
                            LAB_0003eb90:                 ;XREF[1,0]:   0003eb8a
ram:0003eb90    3b78            ldrb        r3,[r7,#0x0]=>local_59                  
ram:0003eb92    3178            ldrb        param_2,[r6,#0x0]=>local_5a             
ram:0003eb94    2000            movs        param_1,r4                              
ram:0003eb96    fff717fe        bl          FUN_0003e7c8                            ;undefined FUN_0003e7c8(void)
ram:0003eb9a    e7e7            b           LAB_0003eb6c                            
                            LAB_0003eb9c:                 ;XREF[1,0]:   0003eb68
ram:0003eb9c    3200            movs        r2,r6                                   
ram:0003eb9e    02a9            add         param_2,sp,#0x8                         
ram:0003eba0    fff782fe        bl          FUN_0003e8a8                            ;int FUN_0003e8a8(char * param_1, cha...
ram:0003eba4    02ac            add         r4,sp,#0x8                              
ram:0003eba6    0028            cmp         param_1,#0x0                            
ram:0003eba8    e3d0            beq         LAB_0003eb72                            
ram:0003ebaa    dfe7            b           LAB_0003eb6c                            
                            ;************************************************************************************************
                            ;*                                           FUNCTION                                           *
                            ;************************************************************************************************
                            ;undefined FUN_0003ebac(void)
                                                          ;XREF[1,0]:   0003ebdc
ram:0003ebac    75df            svc         0x75                                    
ram:0003ebae    7047            bx          lr                                      
                            ;************************************************************************************************
                            ;*                                           FUNCTION                                           *
                            ;************************************************************************************************
                            ;undefined FUN_0003ebb0(void)
                                                          ;XREF[1,0]:   0003ebfa
ram:0003ebb0    76df            svc         0x76                                    
ram:0003ebb2    7047            bx          lr                                      
                            ;************************************************************************************************
                            ;*                                           FUNCTION                                           *
                            ;************************************************************************************************
                            ;undefined FUN_0003ebb4(void)
                                                          ;XREF[1,0]:   0003ecd4
ram:0003ebb4    7adf            svc         0x7a                                    
ram:0003ebb6    7047            bx          lr                                      
                            ;************************************************************************************************
                            ;*                                           FUNCTION                                           *
                            ;************************************************************************************************
                            ;undefined FUN_0003ebb8(void)
                                                          ;XREF[1,0]:   0003ecf6
ram:0003ebb8    7bdf            svc         0x7b                                    
ram:0003ebba    7047            bx          lr                                      
                            ;************************************************************************************************
                            ;*                                           FUNCTION                                           *
                            ;************************************************************************************************
                            ;undefined8 LAB_0003ebbc+1(undefined4 param_1, uint param_2)
          ;param_1       undefined4          r0                      
          ;param_2       uint                r1                      
          ;local_c       undefined1          -c                      ;XREF[1,0]:   0003ec14
                                                          ;XREF[0,2]:   0003ece8,0003ed10
ram:0003ebbc    13b5            push        {param_1,param_2,r4,lr}                 
ram:0003ebbe    164b            ldr         r3,[DAT_0003ec18]                       ;= 2000342Ah
ram:0003ebc0    1888            ldrh        param_1,[r3,#0x0]=>DAT_2000342a         
ram:0003ebc2    164b            ldr         r3,[DAT_0003ec1c]                       ;= 0000FFFFh
ram:0003ebc4    9842            cmp         param_1,r3                              
ram:0003ebc6    11d0            beq         LAB_0003ebec                            
ram:0003ebc8    154a            ldr         r2=>DAT_2000345c,[DAT_0003ec20]         ;= 2000345Ch
ram:0003ebca    164c            ldr         r4,[DAT_0003ec24]                       ;= 2000342Ch
ram:0003ebcc    1378            ldrb        r3,[r2,#0x0]=>DAT_2000345c              
ram:0003ebce    0133            adds        r3,#0x1                                 
ram:0003ebd0    dbb2            uxtb        r3,r3                                   
ram:0003ebd2    1370            strb        r3,[r2,#0x0]=>DAT_2000345c              
ram:0003ebd4    217b            ldrb        param_2,[r4,#0xc]=>DAT_20003438         
ram:0003ebd6    9942            cmp         param_2,r3                              
ram:0003ebd8    09d3            bcc         LAB_0003ebee                            
ram:0003ebda    1349            ldr         param_2=>DAT_20003454,[DAT_0003ec28]    ;= 20003454h
ram:0003ebdc    fff7e6ff        bl          FUN_0003ebac                            ;undefined FUN_0003ebac(void)
ram:0003ebe0    0028            cmp         param_1,#0x0                            
ram:0003ebe2    03d0            beq         LAB_0003ebec                            
ram:0003ebe4    a369            ldr         r3,[r4,#0x18]=>DAT_20003444             
ram:0003ebe6    002b            cmp         r3,#0x0                                 
ram:0003ebe8    00d0            beq         LAB_0003ebec                            
                            LAB_0003ebea:                 ;XREF[1,0]:   0003ec16
ram:0003ebea    9847            blx         r3                                      
                            LAB_0003ebec:                 ;XREF[4,0]:   0003ebc6,0003ebe2,0003ebe8,0003ec0e
ram:0003ebec    13bd            pop         {param_1,param_2,r4,pc}                 
                            LAB_0003ebee:                 ;XREF[1,0]:   0003ebd8
ram:0003ebee    0023            movs        r3,#0x0                                 
ram:0003ebf0    1370            strb        r3,[r2,#0x0]=>DAT_2000345c              
ram:0003ebf2    237c            ldrb        r3,[r4,#0x10]=>DAT_2000343c             
ram:0003ebf4    002b            cmp         r3,#0x0                                 
ram:0003ebf6    08d0            beq         LAB_0003ec0a                            
ram:0003ebf8    3b21            movs        param_2,#0x3b                           
ram:0003ebfa    fff7d9ff        bl          FUN_0003ebb0                            ;undefined FUN_0003ebb0(void)
ram:0003ebfe    0028            cmp         param_1,#0x0                            
ram:0003ec00    03d0            beq         LAB_0003ec0a                            
ram:0003ec02    a369            ldr         r3,[r4,#0x18]=>DAT_20003444             
ram:0003ec04    002b            cmp         r3,#0x0                                 
ram:0003ec06    00d0            beq         LAB_0003ec0a                            
ram:0003ec08    9847            blx         r3                                      
                            LAB_0003ec0a:                 ;XREF[3,0]:   0003ebf6,0003ec00,0003ec06
ram:0003ec0a    6369            ldr         r3,[r4,#0x14]=>DAT_20003440             
ram:0003ec0c    002b            cmp         r3,#0x0                                 
ram:0003ec0e    edd0            beq         LAB_0003ebec                            
ram:0003ec10    0022            movs        r2,#0x0                                 
ram:0003ec12    01a8            add         param_1,sp,#0x4                         
ram:0003ec14    0270            strb        r2,[param_1,#0x0]=>local_c              
ram:0003ec16    e8e7            b           LAB_0003ebea                            
                            DAT_0003ec18:                 ;XREF[1,0]:   0003ebbe
ram:0003ec18    2a340020        undefined4  2000342Ah                               
                            DAT_0003ec1c:                 ;XREF[1,0]:   0003ebc2
ram:0003ec1c    ffff0000        undefined4  0000FFFFh                               
                            DAT_0003ec20:                 ;XREF[1,0]:   0003ebc8
ram:0003ec20    5c340020        undefined4  2000345Ch                               
                            DAT_0003ec24:                 ;XREF[1,0]:   0003ebca
ram:0003ec24    2c340020        undefined4  2000342Ch                               
                            DAT_0003ec28:                 ;XREF[1,0]:   0003ebda
ram:0003ec28    54340020        undefined4  20003454h                               
                            ;************************************************************************************************
                            ;*                                           FUNCTION                                           *
                            ;************************************************************************************************
                            ;undefined8 FUN_0003ec2c(undefined4 param_1, uint param_2)
          ;param_1       undefined4          r0                      
          ;param_2       uint                r1                      
          ;local_14      undefined1         -14                      ;XREF[1,0]:   0003ec5a
                                                          ;XREF[1,0]:   0003ed88
ram:0003ec2c    37b5            push        {param_1,param_2,r2,r4,r5,lr}           
ram:0003ec2e    184b            ldr         r3,[DAT_0003ec90]                       ;= 2000344Ch
ram:0003ec30    184a            ldr         r2,[DAT_0003ec94]                       ;= 20003454h
ram:0003ec32    5b88            ldrh        r3,[r3,#0x2]=>DAT_2000344e              
ram:0003ec34    1188            ldrh        param_2,[r2,#0x0]=>DAT_20003454         
ram:0003ec36    184c            ldr         r4,[DAT_0003ec98]                       ;= 2000342Ch
ram:0003ec38    184d            ldr         r5,[DAT_0003ec9c]                       ;= 20003428h
ram:0003ec3a    9942            cmp         param_2,r3                              
ram:0003ec3c    11d8            bhi         LAB_0003ec62                            
ram:0003ec3e    5288            ldrh        r2,[r2,#0x2]=>DAT_20003456              
ram:0003ec40    9a42            cmp         r2,r3                                   
ram:0003ec42    0ed3            bcc         LAB_0003ec62                            
ram:0003ec44    6369            ldr         r3,[r4,#0x14]=>DAT_20003440             
ram:0003ec46    002b            cmp         r3,#0x0                                 
ram:0003ec48    1ed0            beq         LAB_0003ec88                            
ram:0003ec4a    01a8            add         param_1,sp,#0x4                         
ram:0003ec4c    0122            movs        r2,#0x1                                 
ram:0003ec4e    04e0            b           LAB_0003ec5a                            
                            LAB_0003ec50:                 ;XREF[1,0]:   0003ec66
ram:0003ec50    6369            ldr         r3,[r4,#0x14]=>DAT_20003440             
ram:0003ec52    002b            cmp         r3,#0x0                                 
ram:0003ec54    18d0            beq         LAB_0003ec88                            
ram:0003ec56    0022            movs        r2,#0x0                                 
ram:0003ec58    01a8            add         param_1,sp,#0x4                         
                            LAB_0003ec5a:                 ;XREF[1,0]:   0003ec4e
ram:0003ec5a    0270            strb        r2,[param_1,#0x0]=>local_14             
ram:0003ec5c    13e0            b           LAB_0003ec86                            
                            LAB_0003ec5e:                 ;XREF[1,0]:   0003ec6e
ram:0003ec5e    a168            ldr         param_2,[r4,#0x8]=>DAT_20003434         
ram:0003ec60    07e0            b           LAB_0003ec72                            
                            LAB_0003ec62:                 ;XREF[2,0]:   0003ec3c,0003ec42
ram:0003ec62    2b78            ldrb        r3,[r5,#0x0]=>DAT_20003428              
ram:0003ec64    002b            cmp         r3,#0x0                                 
ram:0003ec66    f3d1            bne         LAB_0003ec50                            
ram:0003ec68    0d4b            ldr         r3,[DAT_0003eca0]                       ;= 2000345Ch
ram:0003ec6a    1b78            ldrb        r3,[r3,#0x0]=>DAT_2000345c              
ram:0003ec6c    002b            cmp         r3,#0x0                                 
ram:0003ec6e    f6d1            bne         LAB_0003ec5e                            
ram:0003ec70    6168            ldr         param_2,[r4,#0x4]=>DAT_20003430         
                            LAB_0003ec72:                 ;XREF[1,0]:   0003ec60
ram:0003ec72    0c4b            ldr         r3=>DAT_20003448,[DAT_0003eca4]         ;= 20003448h
ram:0003ec74    0022            movs        r2,#0x0                                 
ram:0003ec76    1868            ldr         param_1,[r3,#0x0]=>DAT_20003448         
ram:0003ec78    fdf750ff        bl          FUN_0003cb1c                            ;undefined4 FUN_0003cb1c(uint param_1...
ram:0003ec7c    0028            cmp         param_1,#0x0                            
ram:0003ec7e    03d0            beq         LAB_0003ec88                            
ram:0003ec80    a369            ldr         r3,[r4,#0x18]=>DAT_20003444             
ram:0003ec82    002b            cmp         r3,#0x0                                 
ram:0003ec84    00d0            beq         LAB_0003ec88                            
                            LAB_0003ec86:                 ;XREF[1,0]:   0003ec5c
ram:0003ec86    9847            blx         r3                                      
                            LAB_0003ec88:                 ;XREF[4,0]:   0003ec48,0003ec54,0003ec7e,0003ec84
ram:0003ec88    0023            movs        r3,#0x0                                 
ram:0003ec8a    2b70            strb        r3,[r5,#0x0]=>DAT_20003428              
ram:0003ec8c    37bd            pop         {param_1,param_2,r2,r4,r5,pc}           
ram:0003ec8e    c046            mov         r8,r8                                   
                            DAT_0003ec90:                 ;XREF[1,0]:   0003ec2e
ram:0003ec90    4c340020        undefined4  2000344Ch                               
                            DAT_0003ec94:                 ;XREF[1,0]:   0003ec30
ram:0003ec94    54340020        undefined4  20003454h                               
                            DAT_0003ec98:                 ;XREF[1,0]:   0003ec36
ram:0003ec98    2c340020        undefined4  2000342Ch                               
                            DAT_0003ec9c:                 ;XREF[1,0]:   0003ec38
ram:0003ec9c    28340020        undefined4  20003428h                               
                            DAT_0003eca0:                 ;XREF[1,0]:   0003ec68
ram:0003eca0    5c340020        undefined4  2000345Ch                               
                            DAT_0003eca4:                 ;XREF[1,0]:   0003ec72
ram:0003eca4    48340020        undefined4  20003448h                               
                            ;************************************************************************************************
                            ;*                                           FUNCTION                                           *
                            ;************************************************************************************************
                            ;undefined FUN_0003eca8(int * param_1)
          ;param_1       int *               r0                      
                                                          ;XREF[1,0]:   0003dda4
ram:0003eca8    1449            ldr         r1,[DAT_0003ecfc]                       ;= 2000342Ch
ram:0003ecaa    0200            movs        r2,param_1                              
ram:0003ecac    0b00            movs        r3,r1                                   
ram:0003ecae    70b5            push        {r4,r5,r6,lr}                           
ram:0003ecb0    32ca            ldmia       r2!,{r1,r4,r5}                          
                                                          ; FWD[3,0]:   2000342c,20003430,20003434
ram:0003ecb2    32c3            stmia       r3!=>DAT_2000342c,{r1,r4,r5}=>DAT_200...
ram:0003ecb4    32ca            ldmia       r2!,{r1,r4,r5}                          
                                                          ; FWD[3,0]:   20003438,2000343c,20003440
ram:0003ecb6    32c3            stmia       r3!=>DAT_20003438,{r1,r4,r5}=>DAT_200...
ram:0003ecb8    1268            ldr         r2,[r2,#0x0]                            
ram:0003ecba    114c            ldr         r4,[DAT_0003ed00]                       ;= 20003454h
ram:0003ecbc    1a60            str         r2,[r3,#0x0]=>DAT_20003444              
ram:0003ecbe    0022            movs        r2,#0x0                                 
ram:0003ecc0    104b            ldr         r3=>DAT_20003428,[DAT_0003ed04]         ;= 20003428h
ram:0003ecc2    0168            ldr         r1,[param_1,#0x0]                       
ram:0003ecc4    1a70            strb        r2,[r3,#0x0]=>DAT_20003428              
ram:0003ecc6    9142            cmp         r1,r2                                   
ram:0003ecc8    14d0            beq         LAB_0003ecf4                            
ram:0003ecca    0832            adds        r2,#0x8                                 
ram:0003eccc    2000            movs        param_1=>DAT_20003454,r4                
ram:0003ecce    00f0e8fc        bl          FUN_0003f6a2                            ;undefined FUN_0003f6a2(int param_1, ...
ram:0003ecd2    2000            movs        param_1=>DAT_20003454,r4                
ram:0003ecd4    fff76eff        bl          FUN_0003ebb4                            ;undefined FUN_0003ebb4(void)
                            LAB_0003ecd8:                 ;XREF[1,0]:   0003ecfa
ram:0003ecd8    0028            cmp         param_1,#0x0                            
ram:0003ecda    0ad1            bne         LAB_0003ecf2                            
ram:0003ecdc    0122            movs        r2,#0x1                                 
ram:0003ecde    0021            movs        r1,#0x0                                 
ram:0003ece0    094b            ldr         r3,[DAT_0003ed08]                       ;= 2000342Ah
ram:0003ece2    5242            rsbs        r2,r2                                   
ram:0003ece4    1a80            strh        r2,[r3,#0x0]=>DAT_2000342a              
ram:0003ece6    094b            ldr         r3=>DAT_2000345c,[DAT_0003ed0c]         ;= 2000345Ch
ram:0003ece8    094a            ldr         r2=>LAB_0003ebbc...,[PTR_LAB_0003ebbc...;= 0003ebbd
ram:0003ecea    0a48            ldr         param_1=>DAT_20003448,[DAT_0003ed14]    ;= 20003448h
ram:0003ecec    1970            strb        r1,[r3,#0x0]=>DAT_2000345c              
ram:0003ecee    fdf7edfe        bl          FUN_0003cacc                            ;undefined FUN_0003cacc(int * param_1...
                            LAB_0003ecf2:                 ;XREF[1,0]:   0003ecda
ram:0003ecf2    70bd            pop         {r4,r5,r6,pc}                           
                            LAB_0003ecf4:                 ;XREF[1,0]:   0003ecc8
ram:0003ecf4    2000            movs        param_1=>DAT_20003454,r4                
ram:0003ecf6    fff75fff        bl          FUN_0003ebb8                            ;undefined FUN_0003ebb8(void)
ram:0003ecfa    ede7            b           LAB_0003ecd8                            
                            DAT_0003ecfc:                 ;XREF[1,0]:   0003eca8
ram:0003ecfc    2c340020        undefined4  2000342Ch                               
                            DAT_0003ed00:                 ;XREF[1,0]:   0003ecba
ram:0003ed00    54340020        undefined4  20003454h                               
                            DAT_0003ed04:                 ;XREF[1,0]:   0003ecc0
ram:0003ed04    28340020        undefined4  20003428h                               
                            DAT_0003ed08:                 ;XREF[1,0]:   0003ece0
ram:0003ed08    2a340020        undefined4  2000342Ah                               
                            DAT_0003ed0c:                 ;XREF[1,0]:   0003ece6
ram:0003ed0c    5c340020        undefined4  2000345Ch                               
                            PTR_LAB_0003ebbc+1+1_0003ed10:;XREF[1,0]:   0003ece8
ram:0003ed10    bdeb0300        addr        LAB_0003ebbc+1+1                        
                            DAT_0003ed14:                 ;XREF[1,0]:   0003ecea
ram:0003ed14    48340020        undefined4  20003448h                               
                            ;************************************************************************************************
                            ;*                                           FUNCTION                                           *
                            ;************************************************************************************************
                            ;undefined8 FUN_0003ed18(undefined4 param_1, uint param_2, undefined4 param_3)
          ;param_1       undefined4          r0                      
          ;param_2       uint                r1                      
          ;param_3       undefined4          r2                      
                                                          ;XREF[1,0]:   0003de60
ram:0003ed18    10b5            push        {r4,lr}                                 
ram:0003ed1a    024b            ldr         r3=>DAT_20003448,[DAT_0003ed24]         ;= 20003448h
ram:0003ed1c    1868            ldr         param_1,[r3,#0x0]=>DAT_20003448         
ram:0003ed1e    fdf749ff        bl          FUN_0003cbb4                            ;undefined8 FUN_0003cbb4(uint param_1...
ram:0003ed22    10bd            pop         {r4,pc}                                 
                            DAT_0003ed24:                 ;XREF[1,0]:   0003ed1a
ram:0003ed24    48340020        undefined4  20003448h                               
                            ;************************************************************************************************
                            ;*                                           FUNCTION                                           *
                            ;************************************************************************************************
                            ;ushort * FUN_0003ed28(ushort * param_1, uint param_2)
          ;param_1       ushort *            r0                      
          ;param_2       uint                r1                      
                                                          ;XREF[1,0]:   0003da8a
ram:0003ed28    10b5            push        {r4,lr}                                 
ram:0003ed2a    0388            ldrh        r3,[param_1,#0x0]                       
ram:0003ed2c    112b            cmp         r3,#0x11                                
ram:0003ed2e    2ed0            beq         LAB_0003ed8e                            
ram:0003ed30    02d8            bhi         LAB_0003ed38                            
ram:0003ed32    102b            cmp         r3,#0x10                                
ram:0003ed34    18d0            beq         LAB_0003ed68                            
                            LAB_0003ed36:                 ;XREF[9,0]:   0003ed3e,0003ed48,0003ed4e,0003ed62
                                                          ;             0003ed86,0003ed8c,0003eda6,0003edae
                                                          ;             0003edb2
ram:0003ed36    10bd            pop         {r4,pc}                                 
                            LAB_0003ed38:                 ;XREF[1,0]:   0003ed30
ram:0003ed38    122b            cmp         r3,#0x12                                
ram:0003ed3a    3bd0            beq         LAB_0003edb4                            
ram:0003ed3c    502b            cmp         r3,#0x50                                
ram:0003ed3e    fad1            bne         LAB_0003ed36                            
ram:0003ed40    1f4c            ldr         r4,[DAT_0003edc0]                       ;= 2000342Ch
ram:0003ed42    c188            ldrh        param_2,[param_1,#0x6]                  
ram:0003ed44    e289            ldrh        r2,[r4,#0xe]=>DAT_2000343a              
ram:0003ed46    9142            cmp         param_2,r2                              
ram:0003ed48    f5d1            bne         LAB_0003ed36                            
ram:0003ed4a    c38b            ldrh        r3,[param_1,#0x1e]                      
ram:0003ed4c    022b            cmp         r3,#0x2                                 
ram:0003ed4e    f2d1            bne         LAB_0003ed36                            
ram:0003ed50    0130            adds        param_1,#0x1                            
ram:0003ed52    c37f            ldrb        r3,[param_1,#0x1f]                      
ram:0003ed54    db07            lsls        r3,r3,#0x1f                             
ram:0003ed56    17d4            bmi         LAB_0003ed88                            
ram:0003ed58    1a4b            ldr         r3=>DAT_20003448,[DAT_0003edc4]         ;= 20003448h
ram:0003ed5a    1868            ldr         param_1,[r3,#0x0]=>DAT_20003448         
ram:0003ed5c    fdf72aff        bl          FUN_0003cbb4                            ;undefined8 FUN_0003cbb4(uint param_1...
ram:0003ed60    0028            cmp         param_1,#0x0                            
ram:0003ed62    e8d0            beq         LAB_0003ed36                            
ram:0003ed64    a369            ldr         r3,[r4,#0x18]=>DAT_20003444             
ram:0003ed66    21e0            b           LAB_0003edac                            
                            LAB_0003ed68:                 ;XREF[1,0]:   0003ed34
ram:0003ed68    0100            movs        param_2,param_1                         
ram:0003ed6a    8288            ldrh        r2,[param_1,#0x4]                       
ram:0003ed6c    164b            ldr         r3=>DAT_2000342a,[DAT_0003edc8]         ;= 2000342Ah
ram:0003ed6e    1631            adds        param_2,#0x16                           
ram:0003ed70    1a80            strh        r2,[r3,#0x0]=>DAT_2000342a              
ram:0003ed72    1648            ldr         param_1,[DAT_0003edcc]                  ;= 2000344Ch
ram:0003ed74    0822            movs        r2,#0x8                                 
ram:0003ed76    00f094fc        bl          FUN_0003f6a2                            ;undefined FUN_0003f6a2(int param_1, ...
ram:0003ed7a    0022            movs        r2,#0x0                                 
ram:0003ed7c    144b            ldr         r3,[DAT_0003edd0]                       ;= 2000345Ch
ram:0003ed7e    1a70            strb        r2,[r3,#0x0]=>DAT_2000345c              
ram:0003ed80    0f4b            ldr         r3,[DAT_0003edc0]                       ;= 2000342Ch
ram:0003ed82    db89            ldrh        r3,[r3,#0xe]=>DAT_2000343a              
ram:0003ed84    9342            cmp         r3,r2                                   
ram:0003ed86    d6d1            bne         LAB_0003ed36                            
                            LAB_0003ed88:                 ;XREF[2,0]:   0003ed56,0003edbe
ram:0003ed88    fff750ff        bl          FUN_0003ec2c                            ;undefined8 FUN_0003ec2c(undefined4 p...
ram:0003ed8c    d3e7            b           LAB_0003ed36                            
                            LAB_0003ed8e:                 ;XREF[1,0]:   0003ed2e
ram:0003ed8e    0122            movs        r2,#0x1                                 
ram:0003ed90    0d4b            ldr         r3,[DAT_0003edc8]                       ;= 2000342Ah
ram:0003ed92    5242            rsbs        r2,r2                                   
ram:0003ed94    1a80            strh        r2,[r3,#0x0]=>DAT_2000342a              
ram:0003ed96    0022            movs        r2,#0x0                                 
ram:0003ed98    0d4b            ldr         r3,[DAT_0003edd0]                       ;= 2000345Ch
ram:0003ed9a    1a70            strb        r2,[r3,#0x0]=>DAT_2000345c              
ram:0003ed9c    094b            ldr         r3=>DAT_20003448,[DAT_0003edc4]         ;= 20003448h
ram:0003ed9e    1868            ldr         param_1,[r3,#0x0]=>DAT_20003448         
ram:0003eda0    fdf708ff        bl          FUN_0003cbb4                            ;undefined8 FUN_0003cbb4(uint param_1...
ram:0003eda4    0028            cmp         param_1,#0x0                            
ram:0003eda6    c6d0            beq         LAB_0003ed36                            
ram:0003eda8    054b            ldr         r3,[DAT_0003edc0]                       ;= 2000342Ch
ram:0003edaa    9b69            ldr         r3,[r3,#0x18]=>DAT_20003444             
                            LAB_0003edac:                 ;XREF[1,0]:   0003ed66
ram:0003edac    002b            cmp         r3,#0x0                                 
ram:0003edae    c2d0            beq         LAB_0003ed36                            
ram:0003edb0    9847            blx         r3                                      
ram:0003edb2    c0e7            b           LAB_0003ed36                            
                            LAB_0003edb4:                 ;XREF[1,0]:   0003ed3a
ram:0003edb4    811d            adds        param_2,param_1,#0x6                    
ram:0003edb6    0822            movs        r2,#0x8                                 
ram:0003edb8    0448            ldr         param_1,[DAT_0003edcc]                  ;= 2000344Ch
ram:0003edba    00f072fc        bl          FUN_0003f6a2                            ;undefined FUN_0003f6a2(int param_1, ...
ram:0003edbe    e3e7            b           LAB_0003ed88                            
                            DAT_0003edc0:                 ;XREF[3,0]:   0003ed40,0003ed80,0003eda8
ram:0003edc0    2c340020        undefined4  2000342Ch                               
                            DAT_0003edc4:                 ;XREF[2,0]:   0003ed58,0003ed9c
ram:0003edc4    48340020        undefined4  20003448h                               
                            DAT_0003edc8:                 ;XREF[2,0]:   0003ed6c,0003ed90
ram:0003edc8    2a340020        undefined4  2000342Ah                               
                            DAT_0003edcc:                 ;XREF[2,0]:   0003ed72,0003edb8
ram:0003edcc    4c340020        undefined4  2000344Ch                               
                            DAT_0003edd0:                 ;XREF[2,0]:   0003ed7c,0003ed98
ram:0003edd0    5c340020        undefined4  2000345Ch                               
                            ;************************************************************************************************
                            ;*                                           FUNCTION                                           *
                            ;************************************************************************************************
                            ;undefined FUN_0003edd4(void)
                                                          ;XREF[1,0]:   0003ee3c
ram:0003edd4    a0df            svc         0xa0                                    
ram:0003edd6    7047            bx          lr                                      
                            ;************************************************************************************************
                            ;*                                           FUNCTION                                           *
                            ;************************************************************************************************
                            ;undefined FUN_0003edd8(void)
                                                          ;XREF[3,0]:   0003eecc,0003ef62,0003eff4
ram:0003edd8    a2df            svc         0xa2                                    
ram:0003edda    7047            bx          lr                                      
                            ;************************************************************************************************
                            ;*                                           FUNCTION                                           *
                            ;************************************************************************************************
                            ;undefined FUN_0003eddc(void)
                                                          ;XREF[1,0]:   0003f1e8
ram:0003eddc    a5df            svc         0xa5                                    
ram:0003edde    7047            bx          lr                                      
                            ;************************************************************************************************
                            ;*                                           FUNCTION                                           *
                            ;************************************************************************************************
                            ;undefined FUN_0003ede0(void)
                                                          ;XREF[3,0]:   0003f096,0003f106,0003f16c
ram:0003ede0    a6df            svc         0xa6                                    
ram:0003ede2    7047            bx          lr                                      
                            ;************************************************************************************************
                            ;*                                           FUNCTION                                           *
                            ;************************************************************************************************
                            ;undefined FUN_0003ede4(void)
                                                          ;XREF[2,0]:   0003f202,0003f248
ram:0003ede4    a8df            svc         0xa8                                    
ram:0003ede6    7047            bx          lr                                      
                            ;************************************************************************************************
                            ;*                                           FUNCTION                                           *
                            ;************************************************************************************************
                            ;undefined FUN_0003ede8(void)
                                                          ;XREF[1,0]:   0003ee2a
ram:0003ede8    63df            svc         0x63                                    
ram:0003edea    7047            bx          lr                                      
                            ;************************************************************************************************
                            ;*                                           FUNCTION                                           *
                            ;************************************************************************************************
                            ;int FUN_0003edec(undefined2 * param_1, int param_2)
          ;param_1       undefined2 *        r0                      
          ;param_2       int                 r1                      
          ;local_1c      undefined4         -1c                      ;XREF[3,0]:   0003ee6a,0003eef6,0003ef86
          ;local_20      undefined4         -20                      ;XREF[3,0]:   0003ee68,0003eef4,0003ef84
          ;local_24      undefined4         -24                      ;XREF[3,0]:   0003ee66,0003eef2,0003ef82
          ;local_28      undefined4         -28                      ;XREF[3,0]:   0003ee64,0003eef0,0003ef80
          ;local_30      undefined4         -30                      ;XREF[3,0]:   0003ee5c,0003eee4,0003ef78
          ;local_34      undefined1         -34                      ;XREF[6,0]:   0003ee5a,0003ee60,0003eee2,0003eeec,0003ef76
                                                                     ;             0003ef7c
          ;local_38      undefined4         -38                      ;XREF[3,0]:   0003eec0,0003ef56,0003efe6
          ;local_3c      undefined2         -3c                      ;XREF[3,0]:   0003eeb8,0003ef50,0003efe0
          ;local_3e      undefined2         -3e                      ;XREF[3,0]:   0003eebe,0003ef4c,0003efe4
          ;local_40      undefined2         -40                      ;XREF[3,0]:   0003eebc,0003ef54,0003efdc
          ;local_44      undefined4         -44                      ;XREF[3,0]:   0003eec2,0003ef58,0003efea
          ;local_48      undefined4         -48                      ;XREF[3,0]:   0003eeb4,0003ef48,0003efd8
          ;local_5a      undefined1         -5a                      ;XREF[3,0]:   0003ee70,0003eefc,0003ef8c
          ;local_5c      undefined2         -5c                      ;XREF[3,0]:   0003ee76,0003ef02,0003ef92
          ;local_5e      undefined1         -5e                      ;XREF[1,0]:   0003ee46
          ;local_60      undefined2         -60                      ;XREF[1,0]:   0003ee22
          ;local_62      undefined1         -62                      ;XREF[6,0]:   0003ee8e,0003eeac,0003ef26,0003ef40,0003efb6
                                                                     ;             0003efd0
          ;local_63      undefined1         -63                      ;XREF[4,0]:   0003ee8c,0003ef12,0003ef24,0003efb4
          ;local_64      undefined1         -64                      ;XREF[4,0]:   0003ee86,0003ef10,0003ef9e,0003efb0
          ;local_6c      undefined4         -6c                      ;XREF[3,0]:   0003ee04,0003f000,0003f002
          ;local_70      undefined4         -70                      ;XREF[4,0]:   0003edf2,0003efe2,0003effc,0003f008
          ;local_74      undefined4         -74                      ;XREF[11,0]:  0003edf0,0003ee34,0003ee48,0003ee62,0003eeba
                                                                     ;             0003eeee,0003ef52,0003ef7e,0003efe8,0003f004
                                                                     ;             0003f010
                                                          ;XREF[1,0]:   0003dd6c
ram:0003edec    f0b5            push        {r4,r5,r6,r7,lr}                        
ram:0003edee    99b0            sub         sp,#0x64                                
ram:0003edf0    0190            str         param_1,[sp,#local_74+0x78]             
ram:0003edf2    0291            str         param_2,[sp,#local_70+0x78]             
ram:0003edf4    0e24            movs        r4,#0xe                                 
ram:0003edf6    0028            cmp         param_1,#0x0                            
ram:0003edf8    00d1            bne         LAB_0003edfc                            
ram:0003edfa    0ee1            b           LAB_0003f01a                            
                            LAB_0003edfc:                 ;XREF[1,0]:   0003edf8
ram:0003edfc    0029            cmp         param_2,#0x0                            
ram:0003edfe    00d1            bne         LAB_0003ee02                            
ram:0003ee00    0be1            b           LAB_0003f01a                            
                            LAB_0003ee02:                 ;XREF[1,0]:   0003edfe
ram:0003ee02    4b68            ldr         r3,[param_2,#0x4]                       
ram:0003ee04    0393            str         r3,[sp,#local_6c+0x78]                  
ram:0003ee06    002b            cmp         r3,#0x0                                 
ram:0003ee08    00d1            bne         LAB_0003ee0c                            
ram:0003ee0a    06e1            b           LAB_0003f01a                            
                            LAB_0003ee0c:                 ;XREF[1,0]:   0003ee08
ram:0003ee0c    0123            movs        r3,#0x1                                 
ram:0003ee0e    5b42            rsbs        r3,r3                                   
ram:0003ee10    0380            strh        r3,[param_1,#0x0]                       
ram:0003ee12    1022            movs        r2,#0x10                                
ram:0003ee14    8249            ldr         param_2=>DAT_0003f6e8,[PTR_DAT_0003f020];= 23h    #
                                                                                    ;= 0003f6e8
ram:0003ee16    08a8            add         param_1,sp,#0x20                        
ram:0003ee18    00f043fc        bl          FUN_0003f6a2                            ;undefined FUN_0003f6a2(int param_1, ...
ram:0003ee1c    0a21            movs        param_2,#0xa                            
ram:0003ee1e    814b            ldr         r3,[DAT_0003f024]                       ;= 00001530h
ram:0003ee20    06ad            add         r5,sp,#0x18                             
ram:0003ee22    2b80            strh        r3,[r5,#0x0]=>local_60                  
ram:0003ee24    04ab            add         r3,sp,#0x10                             
ram:0003ee26    c918            adds        param_2,param_2,r3                      
ram:0003ee28    08a8            add         param_1,sp,#0x20                        
ram:0003ee2a    fff7ddff        bl          FUN_0003ede8                            ;undefined FUN_0003ede8(void)
ram:0003ee2e    041e            subs        r4,param_1,#0x0                         
ram:0003ee30    00d0            beq         LAB_0003ee34                            
ram:0003ee32    f2e0            b           LAB_0003f01a                            
                            LAB_0003ee34:                 ;XREF[1,0]:   0003ee30
ram:0003ee34    019b            ldr         r3,[sp,#local_74+0x78]                  
ram:0003ee36    2900            movs        param_2,r5                              
ram:0003ee38    1a1d            adds        r2,r3,#0x4                              
ram:0003ee3a    0120            movs        param_1,#0x1                            
ram:0003ee3c    fff7caff        bl          FUN_0003edd4                            ;undefined FUN_0003edd4(void)
ram:0003ee40    041e            subs        r4,param_1,#0x0                         
ram:0003ee42    00d0            beq         LAB_0003ee46                            
ram:0003ee44    e9e0            b           LAB_0003f01a                            
                            LAB_0003ee46:                 ;XREF[1,0]:   0003ee42
ram:0003ee46    ab78            ldrb        r3,[r5,#local_5e+0x60]                  
ram:0003ee48    019a            ldr         r2,[sp,#local_74+0x78]                  
ram:0003ee4a    11ad            add         r5,sp,#0x44                             
ram:0003ee4c    9371            strb        r3,[r2,#0x6]                            
ram:0003ee4e    0100            movs        param_2,param_1                         
ram:0003ee50    1c22            movs        r2,#0x1c                                
ram:0003ee52    2800            movs        param_1,r5                              
ram:0003ee54    fdf7aaf9        bl          FUN_0003c1ac                            ;undefined FUN_0003c1ac(undefined * p...
ram:0003ee58    0423            movs        r3,#0x4                                 
ram:0003ee5a    2a78            ldrb        r2,[r5,#0x0]=>local_34                  
ram:0003ee5c    6c60            str         r4,[r5,#local_30+0x34]                  
ram:0003ee5e    1343            orrs        r3,r2                                   
ram:0003ee60    2b70            strb        r3,[r5,#0x0]=>local_34                  
ram:0003ee62    019b            ldr         r3,[sp,#local_74+0x78]                  
ram:0003ee64    ec60            str         r4,[r5,#local_28+0x34]                  
ram:0003ee66    2c61            str         r4,[r5,#local_24+0x34]                  
ram:0003ee68    6c61            str         r4,[r5,#local_20+0x34]                  
ram:0003ee6a    ac61            str         r4,[r5,#local_1c+0x34]                  
ram:0003ee6c    9b79            ldrb        r3,[r3,#0x6]                            
ram:0003ee6e    04aa            add         r2,sp,#0x10                             
ram:0003ee70    9373            strb        r3,[r2,#local_5a+0x68]                  
ram:0003ee72    6d4b            ldr         r3,[DAT_0003f028]                       ;= 00001532h
ram:0003ee74    05af            add         r7,sp,#0x14                             
ram:0003ee76    9381            strh        r3,[r2,#local_5c+0x68]                  
ram:0003ee78    2100            movs        param_2,r4                              
ram:0003ee7a    0322            movs        r2,#0x3                                 
ram:0003ee7c    3800            movs        param_1,r7                              
ram:0003ee7e    fdf795f9        bl          FUN_0003c1ac                            ;undefined FUN_0003c1ac(undefined * p...
ram:0003ee82    0023            movs        r3,#0x0                                 
ram:0003ee84    0122            movs        r2,#0x1                                 
ram:0003ee86    3b70            strb        r3,[r7,#0x0]=>local_64                  
ram:0003ee88    1033            adds        r3,#0x10                                
ram:0003ee8a    1343            orrs        r3,r2                                   
ram:0003ee8c    7b70            strb        r3,[r7,#local_63+0x64]                  
ram:0003ee8e    bb78            ldrb        r3,[r7,#local_62+0x64]                  
ram:0003ee90    0532            adds        r2,#0x5                                 
ram:0003ee92    9343            bics        r3,r2                                   
ram:0003ee94    043a            subs        r2,#0x4                                 
ram:0003ee96    1343            orrs        r3,r2                                   
ram:0003ee98    0632            adds        r2,#0x6                                 
ram:0003ee9a    9343            bics        r3,r2                                   
ram:0003ee9c    0832            adds        r2,#0x8                                 
ram:0003ee9e    0cae            add         r6,sp,#0x30                             
ram:0003eea0    9343            bics        r3,r2                                   
ram:0003eea2    0f3a            subs        r2,#0xf                                 
ram:0003eea4    1343            orrs        r3,r2                                   
ram:0003eea6    2100            movs        param_2,r4                              
ram:0003eea8    1332            adds        r2,#0x13                                
ram:0003eeaa    3000            movs        param_1,r6                              
ram:0003eeac    bb70            strb        r3,[r7,#local_62+0x64]                  
ram:0003eeae    fdf77df9        bl          FUN_0003c1ac                            ;undefined FUN_0003c1ac(undefined * p...
ram:0003eeb2    07ab            add         r3,sp,#0x1c                             
ram:0003eeb4    0c93            str         r3,[sp,#local_48+0x78]                  
ram:0003eeb6    1423            movs        r3,#0x14                                
ram:0003eeb8    b381            strh        r3,[r6,#local_3c+0x48]                  
ram:0003eeba    019b            ldr         r3,[sp,#local_74+0x78]                  
ram:0003eebc    3481            strh        r4,[r6,#local_40+0x48]                  
ram:0003eebe    7481            strh        r4,[r6,#local_3e+0x48]                  
ram:0003eec0    3461            str         r4,[r6,#local_38+0x48]                  
ram:0003eec2    7760            str         r7,[r6,#local_44+0x48]                  
ram:0003eec4    9888            ldrh        param_1,[r3,#0x4]                       
ram:0003eec6    3200            movs        r2,r6                                   
ram:0003eec8    0833            adds        r3,#0x8                                 
ram:0003eeca    2900            movs        param_2,r5                              
ram:0003eecc    fff784ff        bl          FUN_0003edd8                            ;undefined FUN_0003edd8(void)
ram:0003eed0    041e            subs        r4,param_1,#0x0                         
ram:0003eed2    00d0            beq         LAB_0003eed6                            
ram:0003eed4    a1e0            b           LAB_0003f01a                            
                            LAB_0003eed6:                 ;XREF[1,0]:   0003eed2
ram:0003eed6    0100            movs        param_2,param_1                         
ram:0003eed8    1c22            movs        r2,#0x1c                                
ram:0003eeda    2800            movs        param_1,r5                              
ram:0003eedc    fdf766f9        bl          FUN_0003c1ac                            ;undefined FUN_0003c1ac(undefined * p...
ram:0003eee0    0822            movs        r2,#0x8                                 
ram:0003eee2    2b78            ldrb        r3,[r5,#0x0]=>local_34                  
ram:0003eee4    6c60            str         r4,[r5,#local_30+0x34]                  
ram:0003eee6    1343            orrs        r3,r2                                   
ram:0003eee8    9218            adds        r2,r2,r2                                
ram:0003eeea    1343            orrs        r3,r2                                   
ram:0003eeec    2b70            strb        r3,[r5,#0x0]=>local_34                  
ram:0003eeee    019b            ldr         r3,[sp,#local_74+0x78]                  
ram:0003eef0    ec60            str         r4,[r5,#local_28+0x34]                  
ram:0003eef2    2c61            str         r4,[r5,#local_24+0x34]                  
ram:0003eef4    6c61            str         r4,[r5,#local_20+0x34]                  
ram:0003eef6    ac61            str         r4,[r5,#local_1c+0x34]                  
ram:0003eef8    9b79            ldrb        r3,[r3,#0x6]                            
ram:0003eefa    04aa            add         r2,sp,#0x10                             
ram:0003eefc    9373            strb        r3,[r2,#local_5a+0x68]                  
ram:0003eefe    4b4b            ldr         r3,[DAT_0003f02c]                       ;= 00001531h
ram:0003ef00    2100            movs        param_2,r4                              
ram:0003ef02    9381            strh        r3,[r2,#local_5c+0x68]                  
ram:0003ef04    3800            movs        param_1,r7                              
ram:0003ef06    0322            movs        r2,#0x3                                 
ram:0003ef08    fdf750f9        bl          FUN_0003c1ac                            ;undefined FUN_0003c1ac(undefined * p...
ram:0003ef0c    0023            movs        r3,#0x0                                 
ram:0003ef0e    0f22            movs        r2,#0xf                                 
ram:0003ef10    3b70            strb        r3,[r7,#0x0]=>local_64                  
ram:0003ef12    7b78            ldrb        r3,[r7,#local_63+0x64]                  
ram:0003ef14    2100            movs        param_2,r4                              
ram:0003ef16    9343            bics        r3,r2                                   
ram:0003ef18    0e3a            subs        r2,#0xe                                 
ram:0003ef1a    1343            orrs        r3,r2                                   
ram:0003ef1c    0e32            adds        r2,#0xe                                 
ram:0003ef1e    1340            ands        r3,r2                                   
ram:0003ef20    0132            adds        r2,#0x1                                 
ram:0003ef22    1343            orrs        r3,r2                                   
ram:0003ef24    7b70            strb        r3,[r7,#local_63+0x64]                  
ram:0003ef26    bb78            ldrb        r3,[r7,#local_62+0x64]                  
ram:0003ef28    0a3a            subs        r2,#0xa                                 
ram:0003ef2a    9343            bics        r3,r2                                   
ram:0003ef2c    043a            subs        r2,#0x4                                 
ram:0003ef2e    1343            orrs        r3,r2                                   
ram:0003ef30    0632            adds        r2,#0x6                                 
ram:0003ef32    9343            bics        r3,r2                                   
ram:0003ef34    0832            adds        r2,#0x8                                 
ram:0003ef36    1343            orrs        r3,r2                                   
ram:0003ef38    0f3a            subs        r2,#0xf                                 
ram:0003ef3a    1343            orrs        r3,r2                                   
ram:0003ef3c    3000            movs        param_1,r6                              
ram:0003ef3e    1332            adds        r2,#0x13                                
ram:0003ef40    bb70            strb        r3,[r7,#local_62+0x64]                  
ram:0003ef42    fdf733f9        bl          FUN_0003c1ac                            ;undefined FUN_0003c1ac(undefined * p...
ram:0003ef46    07ab            add         r3,sp,#0x1c                             
ram:0003ef48    0c93            str         r3,[sp,#local_48+0x78]                  
ram:0003ef4a    0023            movs        r3,#0x0                                 
ram:0003ef4c    7381            strh        r3,[r6,#local_3e+0x48]                  
ram:0003ef4e    1723            movs        r3,#0x17                                
ram:0003ef50    b381            strh        r3,[r6,#local_3c+0x48]                  
ram:0003ef52    019b            ldr         r3,[sp,#local_74+0x78]                  
ram:0003ef54    3481            strh        r4,[r6,#local_40+0x48]                  
ram:0003ef56    3461            str         r4,[r6,#local_38+0x48]                  
ram:0003ef58    7760            str         r7,[r6,#local_44+0x48]                  
ram:0003ef5a    9888            ldrh        param_1,[r3,#0x4]                       
ram:0003ef5c    3200            movs        r2,r6                                   
ram:0003ef5e    1033            adds        r3,#0x10                                
ram:0003ef60    2900            movs        param_2,r5                              
ram:0003ef62    fff739ff        bl          FUN_0003edd8                            ;undefined FUN_0003edd8(void)
ram:0003ef66    041e            subs        r4,param_1,#0x0                         
ram:0003ef68    57d1            bne         LAB_0003f01a                            
ram:0003ef6a    0100            movs        param_2,param_1                         
ram:0003ef6c    1c22            movs        r2,#0x1c                                
ram:0003ef6e    2800            movs        param_1,r5                              
ram:0003ef70    fdf71cf9        bl          FUN_0003c1ac                            ;undefined FUN_0003c1ac(undefined * p...
ram:0003ef74    0222            movs        r2,#0x2                                 
ram:0003ef76    2b78            ldrb        r3,[r5,#0x0]=>local_34                  
ram:0003ef78    6c60            str         r4,[r5,#local_30+0x34]                  
ram:0003ef7a    1343            orrs        r3,r2                                   
ram:0003ef7c    2b70            strb        r3,[r5,#0x0]=>local_34                  
ram:0003ef7e    019b            ldr         r3,[sp,#local_74+0x78]                  
ram:0003ef80    ec60            str         r4,[r5,#local_28+0x34]                  
ram:0003ef82    2c61            str         r4,[r5,#local_24+0x34]                  
ram:0003ef84    6c61            str         r4,[r5,#local_20+0x34]                  
ram:0003ef86    ac61            str         r4,[r5,#local_1c+0x34]                  
ram:0003ef88    9b79            ldrb        r3,[r3,#0x6]                            
ram:0003ef8a    04aa            add         r2,sp,#0x10                             
ram:0003ef8c    9373            strb        r3,[r2,#local_5a+0x68]                  
ram:0003ef8e    284b            ldr         r3,[DAT_0003f030]                       ;= 00001534h
ram:0003ef90    2100            movs        param_2,r4                              
ram:0003ef92    9381            strh        r3,[r2,#local_5c+0x68]                  
ram:0003ef94    3800            movs        param_1,r7                              
ram:0003ef96    0322            movs        r2,#0x3                                 
ram:0003ef98    fdf708f9        bl          FUN_0003c1ac                            ;undefined FUN_0003c1ac(undefined * p...
ram:0003ef9c    0f22            movs        r2,#0xf                                 
ram:0003ef9e    3b78            ldrb        r3,[r7,#0x0]=>local_64                  
ram:0003efa0    2100            movs        param_2,r4                              
ram:0003efa2    9343            bics        r3,r2                                   
ram:0003efa4    0e3a            subs        r2,#0xe                                 
ram:0003efa6    1343            orrs        r3,r2                                   
ram:0003efa8    0e32            adds        r2,#0xe                                 
ram:0003efaa    1340            ands        r3,r2                                   
ram:0003efac    0132            adds        r2,#0x1                                 
ram:0003efae    1343            orrs        r3,r2                                   
ram:0003efb0    3b70            strb        r3,[r7,#0x0]=>local_64                  
ram:0003efb2    0023            movs        r3,#0x0                                 
ram:0003efb4    7b70            strb        r3,[r7,#local_63+0x64]                  
ram:0003efb6    bb78            ldrb        r3,[r7,#local_62+0x64]                  
ram:0003efb8    0a3a            subs        r2,#0xa                                 
ram:0003efba    9343            bics        r3,r2                                   
ram:0003efbc    043a            subs        r2,#0x4                                 
ram:0003efbe    1343            orrs        r3,r2                                   
ram:0003efc0    0632            adds        r2,#0x6                                 
ram:0003efc2    9343            bics        r3,r2                                   
ram:0003efc4    0832            adds        r2,#0x8                                 
ram:0003efc6    9343            bics        r3,r2                                   
ram:0003efc8    0f3a            subs        r2,#0xf                                 
ram:0003efca    1343            orrs        r3,r2                                   
ram:0003efcc    3000            movs        param_1,r6                              
ram:0003efce    1332            adds        r2,#0x13                                
ram:0003efd0    bb70            strb        r3,[r7,#local_62+0x64]                  
ram:0003efd2    fdf7ebf8        bl          FUN_0003c1ac                            ;undefined FUN_0003c1ac(undefined * p...
ram:0003efd6    07ab            add         r3,sp,#0x1c                             
ram:0003efd8    3360            str         r3,[r6,#0x0]=>local_48                  
ram:0003efda    0223            movs        r3,#0x2                                 
ram:0003efdc    3381            strh        r3,[r6,#local_40+0x48]                  
ram:0003efde    0223            movs        r3,#0x2                                 
ram:0003efe0    b381            strh        r3,[r6,#local_3c+0x48]                  
ram:0003efe2    029b            ldr         r3,[sp,#local_70+0x78]                  
ram:0003efe4    7481            strh        r4,[r6,#local_3e+0x48]                  
ram:0003efe6    3361            str         r3,[r6,#local_38+0x48]                  
ram:0003efe8    019b            ldr         r3,[sp,#local_74+0x78]                  
ram:0003efea    7760            str         r7,[r6,#local_44+0x48]                  
ram:0003efec    9888            ldrh        param_1,[r3,#0x4]                       
ram:0003efee    3200            movs        r2,r6                                   
ram:0003eff0    2033            adds        r3,#0x20                                
ram:0003eff2    2900            movs        param_2,r5                              
ram:0003eff4    fff7f0fe        bl          FUN_0003edd8                            ;undefined FUN_0003edd8(void)
ram:0003eff8    041e            subs        r4,param_1,#0x0                         
ram:0003effa    0ed1            bne         LAB_0003f01a                            
ram:0003effc    029b            ldr         r3,[sp,#local_70+0x78]                  
ram:0003effe    5b68            ldr         r3,[r3,#0x4]                            
ram:0003f000    0393            str         r3,[sp,#local_6c+0x78]                  
ram:0003f002    039a            ldr         r2,[sp,#local_6c+0x78]                  
ram:0003f004    019b            ldr         r3,[sp,#local_74+0x78]                  
ram:0003f006    9a62            str         r2,[r3,#0x28]                           
ram:0003f008    029b            ldr         r3,[sp,#local_70+0x78]                  
ram:0003f00a    9b68            ldr         r3,[r3,#0x8]                            
ram:0003f00c    002b            cmp         r3,#0x0                                 
ram:0003f00e    01d0            beq         LAB_0003f014                            
ram:0003f010    019a            ldr         r2,[sp,#local_74+0x78]                  
ram:0003f012    d362            str         r3,[r2,#0x2c]                           
                            LAB_0003f014:                 ;XREF[1,0]:   0003f00e
ram:0003f014    0122            movs        r2,#0x1                                 
ram:0003f016    074b            ldr         r3,[DAT_0003f034]                       ;= 2000345Dh
ram:0003f018    1a70            strb        r2,[r3,#0x0]=>DAT_2000345d              
                            LAB_0003f01a:                 ;XREF[8,0]:   0003edfa,0003ee00,0003ee0a,0003ee32
                                                          ;             0003ee44,0003eed4,0003ef68,0003effa
ram:0003f01a    2000            movs        param_1,r4                              
ram:0003f01c    19b0            add         sp,#0x64                                
ram:0003f01e    f0bd            pop         {r4,r5,r6,r7,pc}                        
                            PTR_DAT_0003f020:             ;XREF[1,0]:   0003ee14
ram:0003f020    e8f60300        addr        DAT_0003f6e8                            ;= 23h    #
                            DAT_0003f024:                 ;XREF[1,0]:   0003ee1e
ram:0003f024    30150000        undefined4  00001530h                               
                            DAT_0003f028:                 ;XREF[1,0]:   0003ee72
ram:0003f028    32150000        undefined4  00001532h                               
                            DAT_0003f02c:                 ;XREF[1,0]:   0003eefe
ram:0003f02c    31150000        undefined4  00001531h                               
                            DAT_0003f030:                 ;XREF[1,0]:   0003ef8e
ram:0003f030    34150000        undefined4  00001534h                               
                            DAT_0003f034:                 ;XREF[1,0]:   0003f016
ram:0003f034    5d340020        undefined4  2000345Dh                               
                            ;************************************************************************************************
                            ;*                                           FUNCTION                                           *
                            ;************************************************************************************************
                            ;undefined4 FUN_0003f038(ushort * param_1, undefined4 param_2)
          ;param_1       ushort *            r0                      
          ;param_2       undefined4          r1                      
          ;local_1c      undefined4         -1c                      ;XREF[1,0]:   0003f094
          ;local_20      undefined4         -20                      ;XREF[1,0]:   0003f092
          ;local_24      undefined2         -24                      ;XREF[1,0]:   0003f088
          ;local_26      undefined1         -26                      ;XREF[1,0]:   0003f090
          ;local_28      undefined2         -28                      ;XREF[1,0]:   0003f084
          ;local_2a      undefined2         -2a                      ;XREF[1,0]:   0003f06e
                                                          ;XREF[1,0]:   0003e0ea
ram:0003f038    f0b5            push        {r4,r5,r6,r7,lr}                        
ram:0003f03a    0600            movs        r6,param_1                              
ram:0003f03c    87b0            sub         sp,#0x1c                                
ram:0003f03e    0e20            movs        param_1,#0xe                            
ram:0003f040    002e            cmp         r6,#0x0                                 
ram:0003f042    2ad0            beq         LAB_0003f09a                            
ram:0003f044    3288            ldrh        r2,[r6,#0x0]                            
ram:0003f046    164b            ldr         r3,[DAT_0003f0a0]                       ;= 0000FFFFh
ram:0003f048    0638            subs        param_1,#0x6                            
ram:0003f04a    9a42            cmp         r2,r3                                   
ram:0003f04c    25d0            beq         LAB_0003f09a                            
ram:0003f04e    154b            ldr         r3,[DAT_0003f0a4]                       ;= 2000345Dh
ram:0003f050    1b78            ldrb        r3,[r3,#0x0]=>DAT_2000345d              
ram:0003f052    002b            cmp         r3,#0x0                                 
ram:0003f054    21d0            beq         LAB_0003f09a                            
ram:0003f056    144c            ldr         r4,[DAT_0003f0a8]                       ;= 2000345Eh
ram:0003f058    080a            lsrs        param_1,param_2,#0x8                    
ram:0003f05a    e170            strb        param_2,[r4,#0x3]=>DAT_20003461         
ram:0003f05c    2071            strb        param_1,[r4,#0x4]=>DAT_20003462         
ram:0003f05e    080c            lsrs        param_1,param_2,#0x10                   
ram:0003f060    090e            lsrs        param_2,param_2,#0x18                   
ram:0003f062    0723            movs        r3,#0x7                                 
ram:0003f064    a171            strb        param_2,[r4,#0x6]=>DAT_20003464         
ram:0003f066    6946            mov         param_2,sp                              
ram:0003f068    1022            movs        r2,#0x10                                
ram:0003f06a    0127            movs        r7,#0x1                                 
ram:0003f06c    02ad            add         r5,sp,#0x8                              
ram:0003f06e    cb80            strh        r3,[r1,#local_2a+0x30]                  
ram:0003f070    6071            strb        param_1,[r4,#0x5]=>DAT_20003463         
ram:0003f072    0021            movs        param_2,#0x0                            
ram:0003f074    2800            movs        param_1,r5                              
ram:0003f076    6370            strb        r3,[r4,#0x1]=>DAT_2000345f              
ram:0003f078    2270            strb        r2,[r4,#0x0]=>DAT_2000345e              
ram:0003f07a    a770            strb        r7,[r4,#0x2]=>DAT_20003460              
ram:0003f07c    fdf796f8        bl          FUN_0003c1ac                            ;undefined FUN_0003c1ac(undefined * p...
ram:0003f080    338a            ldrh        r3,[r6,#0x10]                           
ram:0003f082    3088            ldrh        param_1,[r6,#0x0]                       
ram:0003f084    2b80            strh        r3,[r5,#0x0]=>local_28                  
ram:0003f086    0023            movs        r3,#0x0                                 
ram:0003f088    ab80            strh        r3,[r5,#local_24+0x28]                  
ram:0003f08a    6b46            mov         r3,sp                                   
ram:0003f08c    2900            movs        param_2,r5                              
ram:0003f08e    0633            adds        r3,#0x6                                 
ram:0003f090    af70            strb        r7,[r5,#local_26+0x28]                  
ram:0003f092    ab60            str         r3,[r5,#local_20+0x28]                  
ram:0003f094    ec60            str         r4=>DAT_2000345e,[r5,#local_1c+0x28]    
ram:0003f096    fff7a3fe        bl          FUN_0003ede0                            ;undefined FUN_0003ede0(void)
                            LAB_0003f09a:                 ;XREF[3,0]:   0003f042,0003f04c,0003f054
ram:0003f09a    07b0            add         sp,#0x1c                                
ram:0003f09c    f0bd            pop         {r4,r5,r6,r7,pc}                        
ram:0003f09e    c046            mov         r8,r8                                   
                            DAT_0003f0a0:                 ;XREF[1,0]:   0003f046
ram:0003f0a0    ffff0000        undefined4  0000FFFFh                               
                            DAT_0003f0a4:                 ;XREF[1,0]:   0003f04e
ram:0003f0a4    5d340020        undefined4  2000345Dh                               
                            DAT_0003f0a8:                 ;XREF[1,0]:   0003f056
ram:0003f0a8    5e340020        undefined4  2000345Eh                               
                            ;************************************************************************************************
                            ;*                                           FUNCTION                                           *
                            ;************************************************************************************************
                            ;undefined4 FUN_0003f0ac(ushort * param_1, undefined4 param_2)
          ;param_1       ushort *            r0                      
          ;param_2       undefined4          r1                      
          ;local_1c      undefined4         -1c                      ;XREF[1,0]:   0003f104
          ;local_20      undefined4         -20                      ;XREF[1,0]:   0003f102
          ;local_24      undefined2         -24                      ;XREF[1,0]:   0003f100
          ;local_26      undefined1         -26                      ;XREF[1,0]:   0003f0fa
          ;local_28      undefined2         -28                      ;XREF[1,0]:   0003f0f6
          ;local_2a      undefined2         -2a                      ;XREF[1,0]:   0003f0ec
                                                          ;XREF[1,0]:   0003e09c
ram:0003f0ac    f0b5            push        {r4,r5,r6,r7,lr}                        
ram:0003f0ae    0600            movs        r6,param_1                              
ram:0003f0b0    87b0            sub         sp,#0x1c                                
ram:0003f0b2    0e20            movs        param_1,#0xe                            
ram:0003f0b4    002e            cmp         r6,#0x0                                 
ram:0003f0b6    28d0            beq         LAB_0003f10a                            
ram:0003f0b8    3288            ldrh        r2,[r6,#0x0]                            
ram:0003f0ba    154b            ldr         r3,[DAT_0003f110]                       ;= 0000FFFFh
ram:0003f0bc    0638            subs        param_1,#0x6                            
ram:0003f0be    9a42            cmp         r2,r3                                   
ram:0003f0c0    23d0            beq         LAB_0003f10a                            
ram:0003f0c2    144b            ldr         r3,[DAT_0003f114]                       ;= 2000345Dh
ram:0003f0c4    1b78            ldrb        r3,[r3,#0x0]=>DAT_2000345d              
ram:0003f0c6    002b            cmp         r3,#0x0                                 
ram:0003f0c8    1fd0            beq         LAB_0003f10a                            
ram:0003f0ca    1123            movs        r3,#0x11                                
ram:0003f0cc    124d            ldr         r5,[DAT_0003f118]                       ;= 2000345Eh
ram:0003f0ce    02ac            add         r4,sp,#0x8                              
ram:0003f0d0    2b70            strb        r3,[r5,#0x0]=>DAT_2000345e              
ram:0003f0d2    0b0a            lsrs        r3,param_2,#0x8                         
ram:0003f0d4    ab70            strb        r3,[r5,#0x2]=>DAT_20003460              
ram:0003f0d6    0b0c            lsrs        r3,param_2,#0x10                        
ram:0003f0d8    eb70            strb        r3,[r5,#0x3]=>DAT_20003461              
ram:0003f0da    6b46            mov         r3,sp                                   
ram:0003f0dc    9f1d            adds        r7,r3,#0x6                              
ram:0003f0de    0523            movs        r3,#0x5                                 
ram:0003f0e0    6970            strb        param_2,[r5,#0x1]=>DAT_2000345f         
ram:0003f0e2    090e            lsrs        param_2,param_2,#0x18                   
ram:0003f0e4    2971            strb        param_2,[r5,#0x4]=>DAT_20003462         
ram:0003f0e6    1022            movs        r2,#0x10                                
ram:0003f0e8    0021            movs        param_2,#0x0                            
ram:0003f0ea    2000            movs        param_1,r4                              
ram:0003f0ec    3b80            strh        r3,[r7,#0x0]=>local_2a                  
ram:0003f0ee    fdf75df8        bl          FUN_0003c1ac                            ;undefined FUN_0003c1ac(undefined * p...
ram:0003f0f2    338a            ldrh        r3,[r6,#0x10]                           
ram:0003f0f4    3088            ldrh        param_1,[r6,#0x0]                       
ram:0003f0f6    2380            strh        r3,[r4,#0x0]=>local_28                  
ram:0003f0f8    0123            movs        r3,#0x1                                 
ram:0003f0fa    a370            strb        r3,[r4,#local_26+0x28]                  
ram:0003f0fc    0023            movs        r3,#0x0                                 
ram:0003f0fe    2100            movs        param_2,r4                              
ram:0003f100    a380            strh        r3,[r4,#local_24+0x28]                  
ram:0003f102    a760            str         r7,[r4,#local_20+0x28]                  
ram:0003f104    e560            str         r5=>DAT_2000345e,[r4,#local_1c+0x28]    
ram:0003f106    fff76bfe        bl          FUN_0003ede0                            ;undefined FUN_0003ede0(void)
                            LAB_0003f10a:                 ;XREF[3,0]:   0003f0b6,0003f0c0,0003f0c8
ram:0003f10a    07b0            add         sp,#0x1c                                
ram:0003f10c    f0bd            pop         {r4,r5,r6,r7,pc}                        
ram:0003f10e    c046            mov         r8,r8                                   
                            DAT_0003f110:                 ;XREF[1,0]:   0003f0ba
ram:0003f110    ffff0000        undefined4  0000FFFFh                               
                            DAT_0003f114:                 ;XREF[1,0]:   0003f0c2
ram:0003f114    5d340020        undefined4  2000345Dh                               
                            DAT_0003f118:                 ;XREF[1,0]:   0003f0cc
ram:0003f118    5e340020        undefined4  2000345Eh                               
                            ;************************************************************************************************
                            ;*                                           FUNCTION                                           *
                            ;************************************************************************************************
                            ;undefined4 FUN_0003f11c(ushort * param_1, undefined param_2, undefined param_3)
          ;param_1       ushort *            r0                      
          ;param_2       undefined           r1                      
          ;param_3       undefined           r2                      
          ;local_1c      undefined4         -1c                      ;XREF[1,0]:   0003f16a
          ;local_20      undefined4         -20                      ;XREF[1,0]:   0003f168
          ;local_24      undefined2         -24                      ;XREF[1,0]:   0003f166
          ;local_26      undefined1         -26                      ;XREF[1,0]:   0003f160
          ;local_28      undefined2         -28                      ;XREF[1,0]:   0003f15c
          ;local_2a      undefined2         -2a                      ;XREF[1,0]:   0003f148
                                                          ;XREF[4,0]:   0003d8e2,0003d994,0003dee6,0003f276
ram:0003f11c    f0b5            push        {r4,r5,r6,r7,lr}                        
ram:0003f11e    0500            movs        r5,param_1                              
ram:0003f120    87b0            sub         sp,#0x1c                                
ram:0003f122    0e20            movs        param_1,#0xe                            
ram:0003f124    002d            cmp         r5,#0x0                                 
ram:0003f126    23d0            beq         LAB_0003f170                            
ram:0003f128    2c88            ldrh        r4,[r5,#0x0]                            
ram:0003f12a    124b            ldr         r3,[DAT_0003f174]                       ;= 0000FFFFh
ram:0003f12c    0638            subs        param_1,#0x6                            
ram:0003f12e    9c42            cmp         r4,r3                                   
ram:0003f130    1ed0            beq         LAB_0003f170                            
ram:0003f132    114b            ldr         r3,[DAT_0003f178]                       ;= 2000345Dh
ram:0003f134    1b78            ldrb        r3,[r3,#0x0]=>DAT_2000345d              
ram:0003f136    002b            cmp         r3,#0x0                                 
ram:0003f138    1ad0            beq         LAB_0003f170                            
ram:0003f13a    104e            ldr         r6,[DAT_0003f17c]                       ;= 2000345Eh
ram:0003f13c    1023            movs        r3,#0x10                                
ram:0003f13e    7170            strb        param_2,[r6,#0x1]=>DAT_2000345f         
ram:0003f140    6946            mov         param_2,sp                              
ram:0003f142    8f1d            adds        r7,param_2,#0x6                         
ram:0003f144    0321            movs        param_2,#0x3                            
ram:0003f146    02ac            add         r4,sp,#0x8                              
ram:0003f148    3980            strh        param_2,[r7,#0x0]=>local_2a             
ram:0003f14a    b270            strb        param_3,[r6,#0x2]=>DAT_20003460         
ram:0003f14c    0021            movs        param_2,#0x0                            
ram:0003f14e    1a00            movs        param_3,r3                              
ram:0003f150    2000            movs        param_1,r4                              
ram:0003f152    3370            strb        r3,[r6,#0x0]=>DAT_2000345e              
ram:0003f154    fdf72af8        bl          FUN_0003c1ac                            ;undefined FUN_0003c1ac(undefined * p...
ram:0003f158    2b8a            ldrh        r3,[r5,#0x10]                           
ram:0003f15a    2888            ldrh        param_1,[r5,#0x0]                       
ram:0003f15c    2380            strh        r3,[r4,#0x0]=>local_28                  
ram:0003f15e    0123            movs        r3,#0x1                                 
ram:0003f160    a370            strb        r3,[r4,#local_26+0x28]                  
ram:0003f162    0023            movs        r3,#0x0                                 
ram:0003f164    2100            movs        param_2,r4                              
ram:0003f166    a380            strh        r3,[r4,#local_24+0x28]                  
ram:0003f168    a760            str         r7,[r4,#local_20+0x28]                  
ram:0003f16a    e660            str         r6=>DAT_2000345e,[r4,#local_1c+0x28]    
ram:0003f16c    fff738fe        bl          FUN_0003ede0                            ;undefined FUN_0003ede0(void)
                            LAB_0003f170:                 ;XREF[3,0]:   0003f126,0003f130,0003f138
ram:0003f170    07b0            add         sp,#0x1c                                
ram:0003f172    f0bd            pop         {r4,r5,r6,r7,pc}                        
                            DAT_0003f174:                 ;XREF[1,0]:   0003f12a
ram:0003f174    ffff0000        undefined4  0000FFFFh                               
                            DAT_0003f178:                 ;XREF[1,0]:   0003f132
ram:0003f178    5d340020        undefined4  2000345Dh                               
                            DAT_0003f17c:                 ;XREF[1,0]:   0003f13a
ram:0003f17c    5e340020        undefined4  2000345Eh                               
                            ;************************************************************************************************
                            ;*                                           FUNCTION                                           *
                            ;************************************************************************************************
                            ;undefined FUN_0003f180(ushort * param_1, ushort * param_2)
          ;param_1       ushort *            r0                      
          ;param_2       ushort *            r1                      
          ;local_20      undefined4         -20                      ;XREF[1,0]:   0003f22e
          ;local_24      undefined2         -24                      ;XREF[3,0]:   0003f200,0003f22c,0003f242
          ;local_28      undefined1         -28                      ;XREF[2,0]:   0003f1d0,0003f226
          ;local_2c      undefined4         -2c                      ;XREF[1,0]:   0003f282
          ;local_30      undefined4         -30                      ;XREF[3,0]:   0003f1e6,0003f280,0003f2c8
          ;local_32      undefined2         -32                      ;XREF[1,0]:   0003f1dc
          ;local_34      undefined2         -34                      ;XREF[4,0]:   0003f1d8,0003f268,0003f290,0003f2a0
          ;local_38      undefined1         -38                      ;XREF[1,0]:   0003f23c
                                                          ;XREF[1,0]:   0003da92
ram:0003f180    f0b5            push        {r4,r5,r6,r7,lr}                        
ram:0003f182    0400            movs        r4,param_1                              
ram:0003f184    89b0            sub         sp,#0x24                                
ram:0003f186    0e00            movs        r6,param_2                              
ram:0003f188    0028            cmp         param_1,#0x0                            
ram:0003f18a    0ad0            beq         LAB_0003f1a2                            
ram:0003f18c    0029            cmp         param_2,#0x0                            
ram:0003f18e    08d0            beq         LAB_0003f1a2                            
ram:0003f190    826a            ldr         r2,[param_1,#0x28]                      
ram:0003f192    002a            cmp         r2,#0x0                                 
ram:0003f194    05d0            beq         LAB_0003f1a2                            
ram:0003f196    0b88            ldrh        r3,[param_2,#0x0]                       
ram:0003f198    112b            cmp         r3,#0x11                                
ram:0003f19a    4bd0            beq         LAB_0003f234                            
ram:0003f19c    03d8            bhi         LAB_0003f1a6                            
ram:0003f19e    102b            cmp         r3,#0x10                                
ram:0003f1a0    38d0            beq         LAB_0003f214                            
                            LAB_0003f1a2:                 ;XREF[14,0]:  0003f18a,0003f18e,0003f194,0003f1ac
                                                          ;             0003f1b2,0003f1ba,0003f1c2,0003f208
                                                          ;             0003f20e,0003f212,0003f218,0003f220
                                                          ;             0003f232,0003f28c
ram:0003f1a2    09b0            add         sp,#0x24                                
ram:0003f1a4    f0bd            pop         {r4,r5,r6,r7,pc}                        
                            LAB_0003f1a6:                 ;XREF[1,0]:   0003f19c
ram:0003f1a6    502b            cmp         r3,#0x50                                
ram:0003f1a8    37d0            beq         LAB_0003f21a                            
ram:0003f1aa    512b            cmp         r3,#0x51                                
ram:0003f1ac    f9d1            bne         LAB_0003f1a2                            
ram:0003f1ae    8a79            ldrb        r2,[param_2,#0x6]                       
ram:0003f1b0    022a            cmp         r2,#0x2                                 
ram:0003f1b2    f6d1            bne         LAB_0003f1a2                            
ram:0003f1b4    0a89            ldrh        r2,[param_2,#0x8]                       
ram:0003f1b6    038a            ldrh        r3,[param_1,#0x10]                      
ram:0003f1b8    9a42            cmp         r2,r3                                   
ram:0003f1ba    f2d1            bne         LAB_0003f1a2                            
ram:0003f1bc    8b7a            ldrb        r3,[param_2,#0xa]                       
ram:0003f1be    043b            subs        r3,#0x4                                 
ram:0003f1c0    022b            cmp         r3,#0x2                                 
ram:0003f1c2    eed9            bls         LAB_0003f1a2                            
ram:0003f1c4    0223            movs        r3,#0x2                                 
ram:0003f1c6    01ad            add         r5,sp,#0x4                              
ram:0003f1c8    0822            movs        r2,#0x8                                 
ram:0003f1ca    0021            movs        param_2,#0x0                            
ram:0003f1cc    04af            add         r7,sp,#0x10                             
ram:0003f1ce    2800            movs        param_1,r5                              
ram:0003f1d0    3b70            strb        r3,[r7,#0x0]=>local_28                  
ram:0003f1d2    fcf7ebff        bl          FUN_0003c1ac                            ;undefined FUN_0003c1ac(undefined * p...
ram:0003f1d6    0223            movs        r3,#0x2                                 
ram:0003f1d8    2b80            strh        r3,[r5,#0x0]=>local_34                  
ram:0003f1da    0023            movs        r3,#0x0                                 
ram:0003f1dc    6b80            strh        r3,[r5,#local_32+0x34]                  
ram:0003f1de    6b46            mov         r3,sp                                   
ram:0003f1e0    a18a            ldrh        param_2,[r4,#0x14]                      
ram:0003f1e2    2088            ldrh        param_1,[r4,#0x0]                       
ram:0003f1e4    2a00            movs        r2,r5                                   
ram:0003f1e6    6b60            str         r3,[r5,#local_30+0x34]                  
ram:0003f1e8    fff7f8fd        bl          FUN_0003eddc                            ;undefined FUN_0003eddc(void)
ram:0003f1ec    0028            cmp         param_1,#0x0                            
ram:0003f1ee    24d0            beq         LAB_0003f23a                            
ram:0003f1f0    e36a            ldr         r3,[r4,#0x2c]                           
ram:0003f1f2    002b            cmp         r3,#0x0                                 
ram:0003f1f4    00d0            beq         LAB_0003f1f8                            
ram:0003f1f6    9847            blx         r3                                      
                            LAB_0003f1f8:                 ;XREF[2,0]:   0003f1f4,0003f240
ram:0003f1f8    fe23            movs        r3,#0xfe                                
ram:0003f1fa    2088            ldrh        param_1,[r4,#0x0]                       
ram:0003f1fc    ff33            adds        r3,#0xff                                
ram:0003f1fe    3900            movs        param_2,r7                              
ram:0003f200    bb80            strh        r3,[r7,#local_24+0x28]                  
ram:0003f202    fff7effd        bl          FUN_0003ede4                            ;undefined FUN_0003ede4(void)
                            LAB_0003f206:                 ;XREF[1,0]:   0003f27a
ram:0003f206    0028            cmp         param_1,#0x0                            
ram:0003f208    cbd0            beq         LAB_0003f1a2                            
                            LAB_0003f20a:                 ;XREF[1,0]:   0003f24e
ram:0003f20a    e36a            ldr         r3,[r4,#0x2c]                           
ram:0003f20c    002b            cmp         r3,#0x0                                 
ram:0003f20e    c8d0            beq         LAB_0003f1a2                            
ram:0003f210    9847            blx         r3                                      
ram:0003f212    c6e7            b           LAB_0003f1a2                            
                            LAB_0003f214:                 ;XREF[1,0]:   0003f1a0
ram:0003f214    8b88            ldrh        r3,[param_2,#0x4]                       
                            LAB_0003f216:                 ;XREF[1,0]:   0003f238
ram:0003f216    2380            strh        r3,[r4,#0x0]                            
ram:0003f218    c3e7            b           LAB_0003f1a2                            
                            LAB_0003f21a:                 ;XREF[1,0]:   0003f1a8
ram:0003f21a    c988            ldrh        param_2,[param_2,#0x6]                  
ram:0003f21c    0389            ldrh        r3,[param_1,#0x8]                       
ram:0003f21e    9942            cmp         param_2,r3                              
ram:0003f220    bfd1            bne         LAB_0003f1a2                            
ram:0003f222    0823            movs        r3,#0x8                                 
ram:0003f224    04a9            add         param_2,sp,#0x10                        
ram:0003f226    0b70            strb        r3,[param_2,#0x0]=>local_28             
ram:0003f228    f38b            ldrh        r3,[r6,#0x1e]                           
ram:0003f22a    2036            adds        r6,#0x20                                
ram:0003f22c    0b71            strb        r3,[r1,#local_24+0x28]                  
ram:0003f22e    8e60            str         r6,[r1,#local_20+0x28]                  
ram:0003f230    9047            blx         r2                                      
ram:0003f232    b6e7            b           LAB_0003f1a2                            
                            LAB_0003f234:                 ;XREF[1,0]:   0003f19a
ram:0003f234    0123            movs        r3,#0x1                                 
ram:0003f236    5b42            rsbs        r3,r3                                   
ram:0003f238    ede7            b           LAB_0003f216                            
                            LAB_0003f23a:                 ;XREF[1,0]:   0003f1ee
ram:0003f23a    6b46            mov         r3,sp                                   
ram:0003f23c    1b78            ldrb        r3=>local_38,[r3,#0x0]                  
ram:0003f23e    db07            lsls        r3,r3,#0x1f                             
ram:0003f240    dad5            bpl         LAB_0003f1f8                            
ram:0003f242    b880            strh        param_1,[r7,#local_24+0x28]             
ram:0003f244    3900            movs        param_2,r7                              
ram:0003f246    2088            ldrh        param_1,[r4,#0x0]                       
ram:0003f248    fff7ccfd        bl          FUN_0003ede4                            ;undefined FUN_0003ede4(void)
ram:0003f24c    0028            cmp         param_1,#0x0                            
ram:0003f24e    dcd1            bne         LAB_0003f20a                            
ram:0003f250    f31c            adds        r3,r6,#0x3                              
ram:0003f252    d97f            ldrb        param_2,[r3,#0x1f]                      
ram:0003f254    481e            subs        param_1,param_2,#0x1                    
ram:0003f256    0728            cmp         param_1,#0x7                            
ram:0003f258    3ed8            bhi         LAB_0003f2d8                            
                            switchD:                      ; FWD[9,0]:   0003f266,0003f28e,0003f29e,0003f2a4
                                                          ;             0003f2a8,0003f2ac,0003f2b0,0003f2d4
                                                          ;             0003f544
ram:0003f25a    00f073f9        bl          __gnu_thumb1_case_uqi                   ;undefined __gnu_thumb1_case_uqi(void)
                            switchdataD_0003f25e:         
ram:0003f25e    04              db          4h                                      
ram:0003f25f    18              db          18h                                     
ram:0003f260    20              db          20h                                     
ram:0003f261    23              db          23h                                     
ram:0003f262    25              db          25h                                     
ram:0003f263    27              db          27h                                     
ram:0003f264    3b              db          3Bh                                     
ram:0003f265    29              db          29h                                     
                            caseD_1:                      ;XREF[1,0]:   0003f25a
ram:0003f266    0023            movs        r3,#0x0                                 
ram:0003f268    2b70            strb        r3,[r5,#0x0]=>local_34                  
ram:0003f26a    338c            ldrh        r3,[r6,#0x20]                           
ram:0003f26c    012b            cmp         r3,#0x1                                 
ram:0003f26e    05d8            bhi         LAB_0003f27c                            
ram:0003f270    0622            movs        r2,#0x6                                 
ram:0003f272    0121            movs        param_2,#0x1                            
                            LAB_0003f274:                 ;XREF[3,0]:   0003f29c,0003f2ba,0003f2da
ram:0003f274    2000            movs        param_1,r4                              
ram:0003f276    fff751ff        bl          FUN_0003f11c                            ;undefined4 FUN_0003f11c(ushort * par...
ram:0003f27a    c4e7            b           LAB_0003f206                            
                            LAB_0003f27c:                 ;XREF[1,0]:   0003f26e
ram:0003f27c    0123            movs        r3,#0x1                                 
                            LAB_0003f27e:                 ;XREF[1,0]:   0003f296
ram:0003f27e    2336            adds        r6,#0x23                                
ram:0003f280    2b71            strb        r3,[r5,#local_30+0x34]                  
ram:0003f282    ae60            str         r6,[r5,#local_2c+0x34]                  
                            LAB_0003f284:                 ;XREF[1,0]:   0003f2a2
ram:0003f284    a36a            ldr         r3,[r4,#0x28]                           
ram:0003f286    2900            movs        param_2,r5                              
ram:0003f288    2000            movs        param_1,r4                              
ram:0003f28a    9847            blx         r3                                      
ram:0003f28c    89e7            b           LAB_0003f1a2                            
                            caseD_2:                      ;XREF[1,0]:   0003f25a
ram:0003f28e    0123            movs        r3,#0x1                                 
ram:0003f290    2b70            strb        r3,[r5,#0x0]=>local_34                  
ram:0003f292    328c            ldrh        r2,[r6,#0x20]                           
ram:0003f294    9a42            cmp         r2,r3                                   
ram:0003f296    f2d8            bhi         LAB_0003f27e                            
ram:0003f298    0622            movs        r2,#0x6                                 
ram:0003f29a    0221            movs        param_2,#0x2                            
ram:0003f29c    eae7            b           LAB_0003f274                            
                            caseD_3:                      ;XREF[1,0]:   0003f25a
ram:0003f29e    0223            movs        r3,#0x2                                 
                            LAB_0003f2a0:                 ;XREF[6,0]:   0003f2a6,0003f2aa,0003f2ae,0003f2ce
                                                          ;             0003f2d2,0003f2d6
ram:0003f2a0    2b70            strb        r3,[r5,#0x0]=>local_34                  
ram:0003f2a2    efe7            b           LAB_0003f284                            
                            caseD_4:                      ;XREF[1,0]:   0003f25a
ram:0003f2a4    0323            movs        r3,#0x3                                 
ram:0003f2a6    fbe7            b           LAB_0003f2a0                            
                            caseD_5:                      ;XREF[1,0]:   0003f25a
ram:0003f2a8    0423            movs        r3,#0x4                                 
ram:0003f2aa    f9e7            b           LAB_0003f2a0                            
                            caseD_6:                      ;XREF[1,0]:   0003f25a
ram:0003f2ac    0523            movs        r3,#0x5                                 
ram:0003f2ae    f7e7            b           LAB_0003f2a0                            
                            caseD_8:                      ;XREF[1,0]:   0003f25a
ram:0003f2b0    338c            ldrh        r3,[r6,#0x20]                           
ram:0003f2b2    022b            cmp         r3,#0x2                                 
ram:0003f2b4    02d8            bhi         LAB_0003f2bc                            
ram:0003f2b6    0322            movs        r2,#0x3                                 
ram:0003f2b8    0821            movs        param_2,#0x8                            
ram:0003f2ba    dbe7            b           LAB_0003f274                            
                            LAB_0003f2bc:                 ;XREF[1,0]:   0003f2b4
ram:0003f2bc    731d            adds        r3,r6,#0x5                              
ram:0003f2be    da7f            ldrb        r2,[r3,#0x1f]                           
ram:0003f2c0    0436            adds        r6,#0x4                                 
ram:0003f2c2    f37f            ldrb        r3,[r6,#0x1f]                           
ram:0003f2c4    1202            lsls        r2,r2,#0x8                              
ram:0003f2c6    1343            orrs        r3,r2                                   
ram:0003f2c8    ab80            strh        r3,[r5,#local_30+0x34]                  
ram:0003f2ca    01d1            bne         LAB_0003f2d0                            
ram:0003f2cc    0733            adds        r3,#0x7                                 
ram:0003f2ce    e7e7            b           LAB_0003f2a0                            
                            LAB_0003f2d0:                 ;XREF[1,0]:   0003f2ca
ram:0003f2d0    0623            movs        r3,#0x6                                 
ram:0003f2d2    e5e7            b           LAB_0003f2a0                            
                            caseD_7:                      ;XREF[1,0]:   0003f25a
ram:0003f2d4    0923            movs        r3,#0x9                                 
ram:0003f2d6    e3e7            b           LAB_0003f2a0                            
                            LAB_0003f2d8:                 ;XREF[1,0]:   0003f258
ram:0003f2d8    0322            movs        r2,#0x3                                 
ram:0003f2da    cbe7            b           LAB_0003f274                            
                            ;************************************************************************************************
                            ;*                                           FUNCTION                                           *
                            ;************************************************************************************************
                            ;undefined FUN_0003f2dc(void)
                                                          ;XREF[1,1]:   0003f516,0003f530
ram:0003f2dc    10b5            push        {r4,lr}                                 
ram:0003f2de    1b49            ldr         r1,[DAT_0003f34c]                       ;= F0000FE0h
ram:0003f2e0    0b78            ldrb        r3,[r1,#0x0]=>DAT_f0000fe0              
ram:0003f2e2    012b            cmp         r3,#0x1                                 
ram:0003f2e4    0fd1            bne         LAB_0003f306                            
ram:0003f2e6    1a4b            ldr         r3,[DAT_0003f350]                       ;= F0000FE4h
ram:0003f2e8    1b68            ldr         r3,[r3,#0x0]=>DAT_f0000fe4              
ram:0003f2ea    1b07            lsls        r3,r3,#0x1c                             
ram:0003f2ec    0bd1            bne         LAB_0003f306                            
ram:0003f2ee    194b            ldr         r3,[DAT_0003f354]                       ;= F0000FE8h
ram:0003f2f0    e024            movs        r4,#0xe0                                
ram:0003f2f2    1a68            ldr         r2,[r3,#0x0]=>DAT_f0000fe8              
ram:0003f2f4    f023            movs        r3,#0xf0                                
ram:0003f2f6    1000            movs        r0,r2                                   
ram:0003f2f8    1840            ands        r0,r3                                   
ram:0003f2fa    2242            tst         r2,r4                                   
ram:0003f2fc    1bd1            bne         LAB_0003f336                            
                            LAB_0003f2fe:                 ;XREF[1,0]:   0003f338
ram:0003f2fe    164a            ldr         r2,[DAT_0003f358]                       ;= F0000FECh
ram:0003f300    1268            ldr         r2,[r2,#0x0]=>DAT_f0000fec              
ram:0003f302    1a42            tst         r2,r3                                   
ram:0003f304    1ad0            beq         LAB_0003f33c                            
                            LAB_0003f306:                 ;XREF[4,0]:   0003f2e4,0003f2ec,0003f33a,0003f34a
ram:0003f306    0b68            ldr         r3,[r1,#0x0]=>DAT_f0000fe0              
ram:0003f308    dbb2            uxtb        r3,r3                                   
ram:0003f30a    012b            cmp         r3,#0x1                                 
ram:0003f30c    12d1            bne         LAB_0003f334                            
ram:0003f30e    104a            ldr         r2,[DAT_0003f350]                       ;= F0000FE4h
ram:0003f310    1268            ldr         r2,[r2,#0x0]=>DAT_f0000fe4              
ram:0003f312    1207            lsls        r2,r2,#0x1c                             
ram:0003f314    0ed1            bne         LAB_0003f334                            
ram:0003f316    f021            movs        r1,#0xf0                                
ram:0003f318    0e4a            ldr         r2,[DAT_0003f354]                       ;= F0000FE8h
ram:0003f31a    1268            ldr         r2,[r2,#0x0]=>DAT_f0000fe8              
ram:0003f31c    0a40            ands        r2,r1                                   
ram:0003f31e    402a            cmp         r2,#0x40                                
ram:0003f320    08d1            bne         LAB_0003f334                            
ram:0003f322    0d4a            ldr         r2,[DAT_0003f358]                       ;= F0000FECh
ram:0003f324    1268            ldr         r2,[r2,#0x0]=>DAT_f0000fec              
ram:0003f326    0a42            tst         r2,r1                                   
ram:0003f328    04d1            bne         LAB_0003f334                            
ram:0003f32a    c122            movs        r2,#0xc1                                
ram:0003f32c    8021            movs        r1,#0x80                                
ram:0003f32e    d200            lsls        r2,r2,#0x3                              
ram:0003f330    c905            lsls        r1,r1,#0x17                             
ram:0003f332    8b50            str         r3,[r1,r2]=>DAT_40000608                
                            LAB_0003f334:                 ;XREF[4,0]:   0003f30c,0003f314,0003f320,0003f328
ram:0003f334    10bd            pop         {r4,pc}                                 
                            LAB_0003f336:                 ;XREF[1,0]:   0003f2fc
ram:0003f336    3028            cmp         r0,#0x30                                
ram:0003f338    e1d0            beq         LAB_0003f2fe                            
ram:0003f33a    e4e7            b           LAB_0003f306                            
                            LAB_0003f33c:                 ;XREF[1,0]:   0003f304
ram:0003f33c    074a            ldr         r2,[DAT_0003f35c]                       ;= C007FFDFh
ram:0003f33e    084b            ldr         r3,[DAT_0003f360]                       ;= 40000504h
ram:0003f340    1a60            str         r2,[r3,#0x0]=>DAT_40000504              
ram:0003f342    8022            movs        r2,#0x80                                
ram:0003f344    074b            ldr         r3,[DAT_0003f364]                       ;= 40006C18h
ram:0003f346    1202            lsls        r2,r2,#0x8                              
ram:0003f348    1a60            str         r2,[r3,#0x0]=>DAT_40006c18              
ram:0003f34a    dce7            b           LAB_0003f306                            
                            DAT_0003f34c:                 ;XREF[1,0]:   0003f2de
ram:0003f34c    e00f00f0        undefined4  F0000FE0h                               
                            DAT_0003f350:                 ;XREF[2,0]:   0003f2e6,0003f30e
ram:0003f350    e40f00f0        undefined4  F0000FE4h                               
                            DAT_0003f354:                 ;XREF[2,0]:   0003f2ee,0003f318
ram:0003f354    e80f00f0        undefined4  F0000FE8h                               
                            DAT_0003f358:                 ;XREF[2,0]:   0003f2fe,0003f322
ram:0003f358    ec0f00f0        undefined4  F0000FECh                               
                            DAT_0003f35c:                 ;XREF[1,0]:   0003f33c
ram:0003f35c    dfff07c0        undefined4  C007FFDFh                               
                            DAT_0003f360:                 ;XREF[1,0]:   0003f33e
ram:0003f360    04050040        undefined4  40000504h                               
                            DAT_0003f364:                 ;XREF[1,0]:   0003f344
ram:0003f364    186c0040        undefined4  40006C18h                               
                            ;************************************************************************************************
                            ;*                                           FUNCTION                                           *
                            ;************************************************************************************************
                            ;undefined FUN_0003f368(void)
                                                          ;XREF[1,0]:   0003f45e
ram:0003f368    2edf            svc         0x2e                                    
ram:0003f36a    7047            bx          lr                                      
                            ;************************************************************************************************
                            ;*                                           FUNCTION                                           *
                            ;************************************************************************************************
                            ;undefined FUN_0003f36c(void)
                                                          ;XREF[1,0]:   0003f3ae
ram:0003f36c    51df            svc         0x51                                    
ram:0003f36e    7047            bx          lr                                      
                            ;************************************************************************************************
                            ;*                                           FUNCTION                                           *
                            ;************************************************************************************************
                            ;undefined FUN_0003f370(void)
                                                          ;XREF[1,0]:   0003f44e
ram:0003f370    10df            svc         0x10                                    
ram:0003f372    7047            bx          lr                                      
                            ;************************************************************************************************
                            ;*                                           FUNCTION                                           *
                            ;************************************************************************************************
                            ;undefined FUN_0003f374(void)
                                                          ;XREF[1,0]:   0003f3f4
ram:0003f374    61df            svc         0x61                                    
ram:0003f376    7047            bx          lr                                      
                            ;************************************************************************************************
                            ;*                                           FUNCTION                                           *
                            ;************************************************************************************************
                            ;undefined FUN_0003f378(void)
                                                          ;XREF[0,2]:   0003f44a,0003f470
ram:0003f378    10b5            push        {r4,lr}                                 
ram:0003f37a    0800            movs        r0,r1                                   
ram:0003f37c    1100            movs        r1,r2                                   
ram:0003f37e    fff76bf9        bl          FUN_0003e658                            ;undefined FUN_0003e658(void)
ram:0003f382    10bd            pop         {r4,pc}                                 
                            ;************************************************************************************************
                            ;*                                           FUNCTION                                           *
                            ;************************************************************************************************
                            ;undefined FUN_0003f384(void)
          ;local_1c      undefined4         -1c                      ;XREF[2,0]:   0003f3d0,0003f3ec
          ;local_24      undefined4         -24                      ;XREF[3,0]:   0003f38e,0003f3c8,0003f418
                                                          ;XREF[2,0]:   0003f4ba,0003f4d4
ram:0003f384    f0b5            push        {r4,r5,r6,r7,lr}                        
ram:0003f386    254b            ldr         r3,[DAT_0003f41c]                       ;= 20003470h
ram:0003f388    85b0            sub         sp,#0x14                                
ram:0003f38a    1b78            ldrb        r3,[r3,#0x0]=>DAT_20003470              
ram:0003f38c    dbb2            uxtb        r3,r3                                   
ram:0003f38e    0193            str         r3,[sp,#local_24+0x28]                  
ram:0003f390    002b            cmp         r3,#0x0                                 
ram:0003f392    3dd0            beq         LAB_0003f410                            
ram:0003f394    224e            ldr         r6,[DAT_0003f420]                       ;= 20003474h
ram:0003f396    234f            ldr         r7,[DAT_0003f424]                       ;= 20003468h
ram:0003f398    3568            ldr         r5,[r6,#0x0]=>DAT_20003474              
ram:0003f39a    3c68            ldr         r4,[r7,#0x0]=>DAT_20003468              
ram:0003f39c    6b42            rsbs        r3,r5                                   
ram:0003f39e    5d41            adcs        r5,r3                                   
ram:0003f3a0    6342            rsbs        r3,r4                                   
ram:0003f3a2    5c41            adcs        r4,r3                                   
ram:0003f3a4    edb2            uxtb        r5,r5                                   
ram:0003f3a6    e4b2            uxtb        r4,r4                                   
                            LAB_0003f3a8:                 ;XREF[1,0]:   0003f3ce
ram:0003f3a8    002d            cmp         r5,#0x0                                 
ram:0003f3aa    19d1            bne         LAB_0003f3e0                            
ram:0003f3ac    03a8            add         r0,sp,#0xc                              
ram:0003f3ae    fff7ddff        bl          FUN_0003f36c                            ;undefined FUN_0003f36c(void)
ram:0003f3b2    0528            cmp         r0,#0x5                                 
ram:0003f3b4    2ed0            beq         LAB_0003f414                            
ram:0003f3b6    0028            cmp         r0,#0x0                                 
ram:0003f3b8    0ad0            beq         LAB_0003f3d0                            
ram:0003f3ba    2a00            movs        r2,r5                                   
ram:0003f3bc    2900            movs        r1,r5                                   
ram:0003f3be    fcf7fffe        bl          FUN_0003c1c0                            ;undefined FUN_0003c1c0(void)
                            LAB_0003f3c2:                 ;XREF[1,0]:   0003f3d6
ram:0003f3c2    002c            cmp         r4,#0x0                                 
ram:0003f3c4    0fd0            beq         LAB_0003f3e6                            
                            LAB_0003f3c6:                 ;XREF[1,0]:   0003f40e
ram:0003f3c6    0024            movs        r4,#0x0                                 
ram:0003f3c8    019b            ldr         r3,[sp,#local_24+0x28]                  
                            LAB_0003f3ca:                 ;XREF[1,0]:   0003f40a
ram:0003f3ca    2500            movs        r5,r4                                   
ram:0003f3cc    1c00            movs        r4,r3                                   
ram:0003f3ce    ebe7            b           LAB_0003f3a8                            
                            LAB_0003f3d0:                 ;XREF[1,0]:   0003f3b8
ram:0003f3d0    0398            ldr         r0,[sp,#local_1c+0x28]                  
ram:0003f3d2    3368            ldr         r3,[r6,#0x0]=>DAT_20003474              
ram:0003f3d4    9847            blx         r3                                      
ram:0003f3d6    f4e7            b           LAB_0003f3c2                            
                            LAB_0003f3d8:                 ;XREF[1,0]:   0003f3fe
ram:0003f3d8    2800            movs        r0,r5                                   
ram:0003f3da    3b68            ldr         r3,[r7,#0x0]=>DAT_20003468              
ram:0003f3dc    9847            blx         r3                                      
ram:0003f3de    13e0            b           LAB_0003f408                            
                            LAB_0003f3e0:                 ;XREF[1,0]:   0003f3aa
ram:0003f3e0    002c            cmp         r4,#0x0                                 
ram:0003f3e2    15d1            bne         LAB_0003f410                            
ram:0003f3e4    2c00            movs        r4,r5                                   
                            LAB_0003f3e6:                 ;XREF[2,0]:   0003f3c4,0003f41a
ram:0003f3e6    104b            ldr         r3,[DAT_0003f428]                       ;= 20003466h
ram:0003f3e8    03a9            add         r1,sp,#0xc                              
ram:0003f3ea    1b88            ldrh        r3,[r3,#0x0]=>DAT_20003466              
ram:0003f3ec    0b80            strh        r3,[r1,#0x0]=>local_1c                  
ram:0003f3ee    0f4b            ldr         r3=>DAT_20003478,[DAT_0003f42c]         ;= 20003478h
ram:0003f3f0    1d68            ldr         r5,[r3,#0x0]=>DAT_20003478              
ram:0003f3f2    2800            movs        r0,r5                                   
ram:0003f3f4    fff7beff        bl          FUN_0003f374                            ;undefined FUN_0003f374(void)
ram:0003f3f8    0528            cmp         r0,#0x5                                 
ram:0003f3fa    07d0            beq         LAB_0003f40c                            
ram:0003f3fc    0028            cmp         r0,#0x0                                 
ram:0003f3fe    ebd0            beq         LAB_0003f3d8                            
ram:0003f400    0022            movs        r2,#0x0                                 
ram:0003f402    1100            movs        r1,r2                                   
ram:0003f404    fcf7dcfe        bl          FUN_0003c1c0                            ;undefined FUN_0003c1c0(void)
                            LAB_0003f408:                 ;XREF[1,0]:   0003f3de
ram:0003f408    0023            movs        r3,#0x0                                 
ram:0003f40a    dee7            b           LAB_0003f3ca                            
                            LAB_0003f40c:                 ;XREF[1,0]:   0003f3fa
ram:0003f40c    002c            cmp         r4,#0x0                                 
ram:0003f40e    dad0            beq         LAB_0003f3c6                            
                            LAB_0003f410:                 ;XREF[3,0]:   0003f392,0003f3e2,0003f416
ram:0003f410    05b0            add         sp,#0x14                                
ram:0003f412    f0bd            pop         {r4,r5,r6,r7,pc}                        
                            LAB_0003f414:                 ;XREF[1,0]:   0003f3b4
ram:0003f414    002c            cmp         r4,#0x0                                 
ram:0003f416    fbd1            bne         LAB_0003f410                            
ram:0003f418    019c            ldr         r4,[sp,#local_24+0x28]                  
ram:0003f41a    e4e7            b           LAB_0003f3e6                            
                            DAT_0003f41c:                 ;XREF[1,0]:   0003f386
ram:0003f41c    70340020        undefined4  20003470h                               
                            DAT_0003f420:                 ;XREF[1,0]:   0003f394
ram:0003f420    74340020        undefined4  20003474h                               
                            DAT_0003f424:                 ;XREF[1,0]:   0003f396
ram:0003f424    68340020        undefined4  20003468h                               
                            DAT_0003f428:                 ;XREF[1,0]:   0003f3e6
ram:0003f428    66340020        undefined4  20003466h                               
                            DAT_0003f42c:                 ;XREF[1,0]:   0003f3ee
ram:0003f42c    78340020        undefined4  20003478h                               
                            ;************************************************************************************************
                            ;*                                           FUNCTION                                           *
                            ;************************************************************************************************
                            ;int FUN_0003f430(undefined4 param_1, uint param_2, undefined2 param_3, undefined4 param_4)
          ;param_1       undefined4          r0                      
          ;param_2       uint                r1                      
          ;param_3       undefined2          r2                      
          ;param_4       undefined4          r3                      
                                                          ;XREF[1,0]:   0003e5d2
ram:0003f430    70b5            push        {r4,r5,r6,lr}                           
ram:0003f432    0400            movs        r4,param_1                              
ram:0003f434    0720            movs        param_1,#0x7                            
ram:0003f436    0029            cmp         param_2,#0x0                            
ram:0003f438    13d0            beq         LAB_0003f462                            
ram:0003f43a    8d07            lsls        r5,param_2,#0x1e                        
ram:0003f43c    11d1            bne         LAB_0003f462                            
ram:0003f43e    0948            ldr         param_1,[DAT_0003f464]                  ;= 20003478h
ram:0003f440    0160            str         param_2,[param_1,#0x0]=>DAT_20003478    
ram:0003f442    0949            ldr         param_2,[DAT_0003f468]                  ;= 20003466h
ram:0003f444    2000            movs        param_1,r4                              
ram:0003f446    0a80            strh        param_3,[param_2,#0x0]=>DAT_20003466    
ram:0003f448    084a            ldr         param_3=>DAT_2000346c,[DAT_0003f46c]    ;= 2000346Ch
ram:0003f44a    0949            ldr         param_2=>FUN_000...,[PTR_FUN_0003f378...;= 0003f379
ram:0003f44c    1360            str         param_4,[param_3,#0x0]=>DAT_2000346c    
ram:0003f44e    fff78fff        bl          FUN_0003f370                            ;undefined FUN_0003f370(void)
ram:0003f452    0028            cmp         param_1,#0x0                            
ram:0003f454    05d1            bne         LAB_0003f462                            
ram:0003f456    0122            movs        param_3,#0x1                            
ram:0003f458    064b            ldr         param_4=>DAT_20003470,[DAT_0003f474]    ;= 20003470h
ram:0003f45a    1630            adds        param_1,#0x16                           
ram:0003f45c    1a70            strb        param_3,[param_4,#0x0]=>DAT_20003470    
ram:0003f45e    fff783ff        bl          FUN_0003f368                            ;undefined FUN_0003f368(void)
                            LAB_0003f462:                 ;XREF[3,0]:   0003f438,0003f43c,0003f454
ram:0003f462    70bd            pop         {r4,r5,r6,pc}                           
                            DAT_0003f464:                 ;XREF[1,0]:   0003f43e
ram:0003f464    78340020        undefined4  20003478h                               
                            DAT_0003f468:                 ;XREF[1,0]:   0003f442
ram:0003f468    66340020        undefined4  20003466h                               
                            DAT_0003f46c:                 ;XREF[1,0]:   0003f448
ram:0003f46c    6c340020        undefined4  2000346Ch                               
                            PTR_FUN_0003f378+1_0003f470:  ;XREF[1,0]:   0003f44a
ram:0003f470    79f30300        addr        FUN_0003f378+1                          
                            DAT_0003f474:                 ;XREF[1,0]:   0003f458
ram:0003f474    70340020        undefined4  20003470h                               
                            ;************************************************************************************************
                            ;*                                           FUNCTION                                           *
                            ;************************************************************************************************
                            ;undefined4 FUN_0003f478(int param_1)
          ;param_1       int                 r0                      
                                                          ;XREF[1,0]:   0003dcd6
ram:0003f478    0e23            movs        r3,#0xe                                 
ram:0003f47a    0028            cmp         param_1,#0x0                            
ram:0003f47c    02d0            beq         LAB_0003f484                            
ram:0003f47e    024b            ldr         r3,[DAT_0003f488]                       ;= 20003468h
ram:0003f480    1860            str         param_1,[r3,#0x0]=>DAT_20003468         
ram:0003f482    0023            movs        r3,#0x0                                 
                            LAB_0003f484:                 ;XREF[1,0]:   0003f47c
ram:0003f484    1800            movs        param_1,r3                              
ram:0003f486    7047            bx          lr                                      
                            DAT_0003f488:                 ;XREF[1,0]:   0003f47e
ram:0003f488    68340020        undefined4  20003468h                               
                            ;************************************************************************************************
                            ;*                                           FUNCTION                                           *
                            ;************************************************************************************************
                            ;undefined4 FUN_0003f48c(int param_1)
          ;param_1       int                 r0                      
                                                          ;XREF[1,0]:   0003e610
ram:0003f48c    0e23            movs        r3,#0xe                                 
ram:0003f48e    0028            cmp         param_1,#0x0                            
ram:0003f490    02d0            beq         LAB_0003f498                            
ram:0003f492    024b            ldr         r3,[DAT_0003f49c]                       ;= 20003474h
ram:0003f494    1860            str         param_1,[r3,#0x0]=>DAT_20003474         
ram:0003f496    0023            movs        r3,#0x0                                 
                            LAB_0003f498:                 ;XREF[1,0]:   0003f490
ram:0003f498    1800            movs        param_1,r3                              
ram:0003f49a    7047            bx          lr                                      
                            DAT_0003f49c:                 ;XREF[1,0]:   0003f492
ram:0003f49c    74340020        undefined4  20003474h                               
                            ;************************************************************************************************
                            ;*                                           FUNCTION                                           *
                            ;************************************************************************************************
                            ;undefined FUNC_VT_0003f4a0(void)
                                                          ;XREF[0,1]:   0003c098
ram:0003f4a0    10b5            push        {r4,lr}                                 
ram:0003f4a2    074b            ldr         r3,[DAT_0003f4c0]                       ;= 2000346Ch
ram:0003f4a4    1b68            ldr         r3,[r3,#0x0]=>DAT_2000346c              
ram:0003f4a6    002b            cmp         r3,#0x0                                 
ram:0003f4a8    07d0            beq         LAB_0003f4ba                            
ram:0003f4aa    9847            blx         r3                                      
ram:0003f4ac    0028            cmp         r0,#0x0                                 
ram:0003f4ae    03d0            beq         LAB_0003f4b8                            
ram:0003f4b0    0022            movs        r2,#0x0                                 
ram:0003f4b2    1100            movs        r1,r2                                   
ram:0003f4b4    fcf784fe        bl          FUN_0003c1c0                            ;undefined FUN_0003c1c0(void)
                            LAB_0003f4b8:                 ;XREF[2,0]:   0003f4ae,0003f4be
ram:0003f4b8    10bd            pop         {r4,pc}                                 
                            LAB_0003f4ba:                 ;XREF[1,0]:   0003f4a8
ram:0003f4ba    fff763ff        bl          FUN_0003f384                            ;undefined FUN_0003f384(void)
ram:0003f4be    fbe7            b           LAB_0003f4b8                            
                            DAT_0003f4c0:                 ;XREF[1,0]:   0003f4a2
ram:0003f4c0    6c340020        undefined4  2000346Ch                               
                            ;************************************************************************************************
                            ;*                                           FUNCTION                                           *
                            ;************************************************************************************************
                            ;undefined LAB_0003f4c4+1(undefined4 param_1, int param_2)
          ;param_1       undefined4          r0                      
          ;param_2       int                 r1                      
                                                          ;XREF[0,2]:   0003f4e0,0003f4ec
ram:0003f4c4    10b5            push        {r4,lr}                                 
ram:0003f4c6    0029            cmp         param_2,#0x0                            
ram:0003f4c8    04d0            beq         LAB_0003f4d4                            
ram:0003f4ca    0022            movs        r2,#0x0                                 
ram:0003f4cc    1100            movs        param_2,r2                              
ram:0003f4ce    1000            movs        param_1,r2                              
ram:0003f4d0    fcf776fe        bl          FUN_0003c1c0                            ;undefined FUN_0003c1c0(void)
                            LAB_0003f4d4:                 ;XREF[1,0]:   0003f4c8
ram:0003f4d4    fff756ff        bl          FUN_0003f384                            ;undefined FUN_0003f384(void)
ram:0003f4d8    10bd            pop         {r4,pc}                                 
ram:0003f4da    0000            movs        r0,r0                                   
                            ;************************************************************************************************
                            ;*                                           FUNCTION                                           *
                            ;************************************************************************************************
                            ;undefined LAB_0003f4dc+1(void)
                                                          ;XREF[0,2]:   0003e5ca,0003e624
ram:0003f4dc    0021            movs        r1,#0x0                                 
ram:0003f4de    10b5            push        {r4,lr}                                 
ram:0003f4e0    024a            ldr         r2=>LAB_0003f4c4...,[PTR_LAB_0003f4c4...;= 0003f4c5
ram:0003f4e2    0800            movs        r0,r1                                   
ram:0003f4e4    fcf7a2fe        bl          FUN_0003c22c                            ;undefined4 FUN_0003c22c(int param_1,...
ram:0003f4e8    10bd            pop         {r4,pc}                                 
ram:0003f4ea    c046            mov         r8,r8                                   
                            PTR_LAB_0003f4c4+1+1_0003f4ec:;XREF[1,0]:   0003f4e0
ram:0003f4ec    c5f40300        addr        LAB_0003f4c4+1+1                        
                            ;************************************************************************************************
                            ;*                                           FUNCTION                                           *
                            ;************************************************************************************************
                            ;undefined FUNC_Reset_0003f4f0(void)
                                                          ;XREF[0,1]:   0003c004
ram:0003f4f0    0321            movs        r1,#0x3                                 
ram:0003f4f2    0a48            ldr         r0,[DAT_0003f51c]                       ;= 40000524h
ram:0003f4f4    0268            ldr         r2,[r0,#0x0]=>DAT_40000524              
ram:0003f4f6    0a43            orrs        r2,r1                                   
ram:0003f4f8    0260            str         r2,[r0,#0x0]=>DAT_40000524              
ram:0003f4fa    0948            ldr         r0,[DAT_0003f520]                       ;= 40000554h
ram:0003f4fc    0268            ldr         r2,[r0,#0x0]=>DAT_40000554              
ram:0003f4fe    0a43            orrs        r2,r1                                   
ram:0003f500    0260            str         r2,[r0,#0x0]=>DAT_40000554              
ram:0003f502    0849            ldr         r1=>DAT_0003f700,[PTR_DAT_0003f524]     ;= 0003f700
ram:0003f504    084a            ldr         r2,[DAT_0003f528]                       ;= 20002C00h
ram:0003f506    094b            ldr         r3,[DAT_0003f52c]                       ;= 20002C68h
ram:0003f508    9b1a            subs        r3,r3,r2                                
ram:0003f50a    03dd            ble         LAB_0003f514                            
                            LAB_0003f50c:                 ;XREF[1,0]:   0003f512
ram:0003f50c    043b            subs        r3,#0x4                                 
                                                          ; FWD[2,0]:   0003f760,0003f764
ram:0003f50e    c858            ldr         r0,[r1,r3]=>DAT_0003f764                ;= 0000FFFFh
                                                                                    ;= 00000032h
                                                          ; FWD[2,0]:   20002c60,20002c64
ram:0003f510    d050            str         r0,[r2,r3]=>DAT_20002c64                
ram:0003f512    fbdc            bgt         LAB_0003f50c                            
                            LAB_0003f514:                 ;XREF[1,0]:   0003f50a
ram:0003f514    0648            ldr         r0,[PTR_FUN_0003f2dc+1_0003f530]        ;= 0003f2dd
ram:0003f516    8047            blx         r0=>FUN_0003f2dc                        ;undefined FUN_0003f2dc(void)
ram:0003f518    0648            ldr         r0,[PTR_LAB_0003c0c0+1+1_0003f534]      ;= 0003c0c1
ram:0003f51a    0047            bx          r0=>LAB_0003c0c0+1                      ;undefined LAB_0003c0c0+1(void)
                            DAT_0003f51c:                 ;XREF[1,0]:   0003f4f2
ram:0003f51c    24050040        undefined4  40000524h                               
                            DAT_0003f520:                 ;XREF[1,0]:   0003f4fa
ram:0003f520    54050040        undefined4  40000554h                               
                            PTR_DAT_0003f524:             ;XREF[1,0]:   0003f502
ram:0003f524    00f70300        addr        DAT_0003f700                            
                            DAT_0003f528:                 ;XREF[1,0]:   0003f504
ram:0003f528    002c0020        undefined4  20002C00h                               
                            DAT_0003f52c:                 ;XREF[1,0]:   0003f506
ram:0003f52c    682c0020        undefined4  20002C68h                               
                            PTR_FUN_0003f2dc+1_0003f530:  ;XREF[1,0]:   0003f514
ram:0003f530    ddf20300        addr        FUN_0003f2dc+1                          
                            PTR_LAB_0003c0c0+1+1_0003f534:;XREF[1,0]:   0003f518
ram:0003f534    c1c00300        addr        LAB_0003c0c0+1+1                        
                            ;************************************************************************************************
                            ;*                                           FUNCTION                                           *
                            ;************************************************************************************************
                            ;undefined FUNC_NMI_0003f538(void)
                                                          ;XREF[1,1]:   0003f538,0003c008
ram:0003f538    fee7            b           FUNC_NMI_0003f538                       
                            ;************************************************************************************************
                            ;*                                           FUNCTION                                           *
                            ;************************************************************************************************
                            ;undefined FUNC_HardFault_0003f53a(void)
                                                          ;XREF[1,1]:   0003f53a,0003c00c
ram:0003f53a    fee7            b           FUNC_HardFault_0003f53a                 
                            ;************************************************************************************************
                            ;*                                           FUNCTION                                           *
                            ;************************************************************************************************
                            ;undefined FUN_0003f53c(void)
                                                          ;XREF[1,0]:   0003f53c
ram:0003f53c    fee7            b           FUN_0003f53c                            
                            ;************************************************************************************************
                            ;*                                           FUNCTION                                           *
                            ;************************************************************************************************
                            ;undefined FUNC_PendSV_0003f53e(void)
                                                          ;XREF[1,1]:   0003f53e,0003c038
ram:0003f53e    fee7            b           FUNC_PendSV_0003f53e                    
                            ;************************************************************************************************
                            ;*                                           FUNCTION                                           *
                            ;************************************************************************************************
                            ;undefined FUNC_SysTick_0003f540(void)
                                                          ;XREF[1,1]:   0003f540,0003c03c
ram:0003f540    fee7            b           FUNC_SysTick_0003f540                   
                            ;************************************************************************************************
                            ;*                                           FUNCTION                                           *
                            ;************************************************************************************************
                            ;undefined FUNC_IRQ_0003f542(void)
                                                          ;XREF[1,22]:  0003f542,0003c040,0003c044,0003c048
                                                          ;             0003c04c,0003c050,0003c058,0003c05c
                                                          ;             0003c060,0003c064,0003c068,0003c06c
                                                          ;             0003c070,0003c074,0003c078,0003c07c
                                                          ;             0003c080,0003c088,0003c08c,0003c094
                                                          ;             0003c09c,0003c0a0,0003c0a4
ram:0003f542    fee7            b           FUNC_IRQ_0003f542                       
                            ;************************************************************************************************
                            ;*                                           FUNCTION                                           *
                            ;************************************************************************************************
                            ;undefined __gnu_thumb1_case_uqi(void)
                                                          ;XREF[2,0]:   0003d88c,0003f25a
ram:0003f544    02b4            push        {r1}                                    
ram:0003f546    7146            mov         r1,lr                                   
ram:0003f548    4908            lsrs        r1,r1,#0x1                              
ram:0003f54a    4900            lsls        r1,r1,#0x1                              
ram:0003f54c    095c            ldrb        r1,[r1,r0]                              
ram:0003f54e    4900            lsls        r1,r1,#0x1                              
ram:0003f550    8e44            add         lr,r1                                   
ram:0003f552    02bc            pop         {r1}                                    
ram:0003f554    7047            bx          lr                                      
ram:0003f556    c046            mov         r8,r8                                   
                            ;************************************************************************************************
                            ;*                                           FUNCTION                                           *
                            ;************************************************************************************************
                            ;undefined8 __gnu_thumb1_case_uhi(undefined4 param_1, undefined4 param_2)
          ;param_1       undefined4          r0                      
          ;param_2       undefined4          r1                      
                                                          ;XREF[1,0]:   0003debe
ram:0003f558    03b4            push        {param_1,param_2}                       
ram:0003f55a    7146            mov         param_2,lr                              
ram:0003f55c    4908            lsrs        param_2,param_2,#0x1                    
ram:0003f55e    4000            lsls        param_1,param_1,#0x1                    
ram:0003f560    4900            lsls        param_2,param_2,#0x1                    
ram:0003f562    095a            ldrh        param_2,[param_2,param_1]               
ram:0003f564    4900            lsls        param_2,param_2,#0x1                    
ram:0003f566    8e44            add         lr,param_2                              
ram:0003f568    03bc            pop         {param_1,param_2}                       
ram:0003f56a    7047            bx          lr                                      
                            ;************************************************************************************************
                            ;*                                           FUNCTION                                           *
                            ;************************************************************************************************
                            ;undefined8 FUN_0003f56c(uint param_1, uint param_2)
          ;param_1       uint                r0                      
          ;param_2       uint                r1                      
                                                          ;XREF[2,0]:   0003e328,0003f67c
ram:0003f56c    0022            movs        r2,#0x0                                 
ram:0003f56e    4308            lsrs        r3,param_1,#0x1                         
ram:0003f570    8b42            cmp         r3,param_2                              
ram:0003f572    74d3            bcc         LAB_0003f65e                            
ram:0003f574    0309            lsrs        r3,param_1,#0x4                         
ram:0003f576    8b42            cmp         r3,param_2                              
ram:0003f578    5fd3            bcc         LAB_0003f63a                            
ram:0003f57a    030a            lsrs        r3,param_1,#0x8                         
ram:0003f57c    8b42            cmp         r3,param_2                              
ram:0003f57e    44d3            bcc         LAB_0003f60a                            
ram:0003f580    030b            lsrs        r3,param_1,#0xc                         
ram:0003f582    8b42            cmp         r3,param_2                              
ram:0003f584    28d3            bcc         LAB_0003f5d8                            
ram:0003f586    030c            lsrs        r3,param_1,#0x10                        
ram:0003f588    8b42            cmp         r3,param_2                              
ram:0003f58a    0dd3            bcc         LAB_0003f5a8                            
ram:0003f58c    ff22            movs        r2,#0xff                                
ram:0003f58e    0902            lsls        param_2,param_2,#0x8                    
ram:0003f590    12ba            rev         r2,r2                                   
ram:0003f592    030c            lsrs        r3,param_1,#0x10                        
ram:0003f594    8b42            cmp         r3,param_2                              
ram:0003f596    02d3            bcc         LAB_0003f59e                            
ram:0003f598    1212            asrs        r2,r2,#0x8                              
ram:0003f59a    0902            lsls        param_2,param_2,#0x8                    
ram:0003f59c    65d0            beq         LAB_0003f66a                            
                            LAB_0003f59e:                 ;XREF[1,0]:   0003f596
ram:0003f59e    030b            lsrs        r3,param_1,#0xc                         
ram:0003f5a0    8b42            cmp         r3,param_2                              
ram:0003f5a2    19d3            bcc         LAB_0003f5d8                            
ram:0003f5a4    00e0            b           LAB_0003f5a8                            
                            LAB_0003f5a6:                 ;XREF[1,0]:   0003f608
ram:0003f5a6    090a            lsrs        param_2,param_2,#0x8                    
                            LAB_0003f5a8:                 ;XREF[2,0]:   0003f58a,0003f5a4
ram:0003f5a8    c30b            lsrs        r3,param_1,#0xf                         
ram:0003f5aa    8b42            cmp         r3,param_2                              
ram:0003f5ac    01d3            bcc         LAB_0003f5b2                            
ram:0003f5ae    cb03            lsls        r3,param_2,#0xf                         
ram:0003f5b0    c01a            subs        param_1,param_1,r3                      
                            LAB_0003f5b2:                 ;XREF[1,0]:   0003f5ac
ram:0003f5b2    5241            adcs        r2,r2                                   
ram:0003f5b4    830b            lsrs        r3,param_1,#0xe                         
ram:0003f5b6    8b42            cmp         r3,param_2                              
ram:0003f5b8    01d3            bcc         LAB_0003f5be                            
ram:0003f5ba    8b03            lsls        r3,param_2,#0xe                         
ram:0003f5bc    c01a            subs        param_1,param_1,r3                      
                            LAB_0003f5be:                 ;XREF[1,0]:   0003f5b8
ram:0003f5be    5241            adcs        r2,r2                                   
ram:0003f5c0    430b            lsrs        r3,param_1,#0xd                         
ram:0003f5c2    8b42            cmp         r3,param_2                              
ram:0003f5c4    01d3            bcc         LAB_0003f5ca                            
ram:0003f5c6    4b03            lsls        r3,param_2,#0xd                         
ram:0003f5c8    c01a            subs        param_1,param_1,r3                      
                            LAB_0003f5ca:                 ;XREF[1,0]:   0003f5c4
ram:0003f5ca    5241            adcs        r2,r2                                   
ram:0003f5cc    030b            lsrs        r3,param_1,#0xc                         
ram:0003f5ce    8b42            cmp         r3,param_2                              
ram:0003f5d0    01d3            bcc         LAB_0003f5d6                            
ram:0003f5d2    0b03            lsls        r3,param_2,#0xc                         
ram:0003f5d4    c01a            subs        param_1,param_1,r3                      
                            LAB_0003f5d6:                 ;XREF[1,0]:   0003f5d0
ram:0003f5d6    5241            adcs        r2,r2                                   
                            LAB_0003f5d8:                 ;XREF[2,0]:   0003f584,0003f5a2
ram:0003f5d8    c30a            lsrs        r3,param_1,#0xb                         
ram:0003f5da    8b42            cmp         r3,param_2                              
ram:0003f5dc    01d3            bcc         LAB_0003f5e2                            
ram:0003f5de    cb02            lsls        r3,param_2,#0xb                         
ram:0003f5e0    c01a            subs        param_1,param_1,r3                      
                            LAB_0003f5e2:                 ;XREF[1,0]:   0003f5dc
ram:0003f5e2    5241            adcs        r2,r2                                   
ram:0003f5e4    830a            lsrs        r3,param_1,#0xa                         
ram:0003f5e6    8b42            cmp         r3,param_2                              
ram:0003f5e8    01d3            bcc         LAB_0003f5ee                            
ram:0003f5ea    8b02            lsls        r3,param_2,#0xa                         
ram:0003f5ec    c01a            subs        param_1,param_1,r3                      
                            LAB_0003f5ee:                 ;XREF[1,0]:   0003f5e8
ram:0003f5ee    5241            adcs        r2,r2                                   
ram:0003f5f0    430a            lsrs        r3,param_1,#0x9                         
ram:0003f5f2    8b42            cmp         r3,param_2                              
ram:0003f5f4    01d3            bcc         LAB_0003f5fa                            
ram:0003f5f6    4b02            lsls        r3,param_2,#0x9                         
ram:0003f5f8    c01a            subs        param_1,param_1,r3                      
                            LAB_0003f5fa:                 ;XREF[1,0]:   0003f5f4
ram:0003f5fa    5241            adcs        r2,r2                                   
ram:0003f5fc    030a            lsrs        r3,param_1,#0x8                         
ram:0003f5fe    8b42            cmp         r3,param_2                              
ram:0003f600    01d3            bcc         LAB_0003f606                            
ram:0003f602    0b02            lsls        r3,param_2,#0x8                         
ram:0003f604    c01a            subs        param_1,param_1,r3                      
                            LAB_0003f606:                 ;XREF[1,0]:   0003f600
ram:0003f606    5241            adcs        r2,r2                                   
ram:0003f608    cdd2            bcs         LAB_0003f5a6                            
                            LAB_0003f60a:                 ;XREF[1,0]:   0003f57e
ram:0003f60a    c309            lsrs        r3,param_1,#0x7                         
ram:0003f60c    8b42            cmp         r3,param_2                              
ram:0003f60e    01d3            bcc         LAB_0003f614                            
ram:0003f610    cb01            lsls        r3,param_2,#0x7                         
ram:0003f612    c01a            subs        param_1,param_1,r3                      
                            LAB_0003f614:                 ;XREF[1,0]:   0003f60e
ram:0003f614    5241            adcs        r2,r2                                   
ram:0003f616    8309            lsrs        r3,param_1,#0x6                         
ram:0003f618    8b42            cmp         r3,param_2                              
ram:0003f61a    01d3            bcc         LAB_0003f620                            
ram:0003f61c    8b01            lsls        r3,param_2,#0x6                         
ram:0003f61e    c01a            subs        param_1,param_1,r3                      
                            LAB_0003f620:                 ;XREF[1,0]:   0003f61a
ram:0003f620    5241            adcs        r2,r2                                   
ram:0003f622    4309            lsrs        r3,param_1,#0x5                         
ram:0003f624    8b42            cmp         r3,param_2                              
ram:0003f626    01d3            bcc         LAB_0003f62c                            
ram:0003f628    4b01            lsls        r3,param_2,#0x5                         
ram:0003f62a    c01a            subs        param_1,param_1,r3                      
                            LAB_0003f62c:                 ;XREF[1,0]:   0003f626
ram:0003f62c    5241            adcs        r2,r2                                   
ram:0003f62e    0309            lsrs        r3,param_1,#0x4                         
ram:0003f630    8b42            cmp         r3,param_2                              
ram:0003f632    01d3            bcc         LAB_0003f638                            
ram:0003f634    0b01            lsls        r3,param_2,#0x4                         
ram:0003f636    c01a            subs        param_1,param_1,r3                      
                            LAB_0003f638:                 ;XREF[1,0]:   0003f632
ram:0003f638    5241            adcs        r2,r2                                   
                            LAB_0003f63a:                 ;XREF[1,0]:   0003f578
ram:0003f63a    c308            lsrs        r3,param_1,#0x3                         
ram:0003f63c    8b42            cmp         r3,param_2                              
ram:0003f63e    01d3            bcc         LAB_0003f644                            
ram:0003f640    cb00            lsls        r3,param_2,#0x3                         
ram:0003f642    c01a            subs        param_1,param_1,r3                      
                            LAB_0003f644:                 ;XREF[1,0]:   0003f63e
ram:0003f644    5241            adcs        r2,r2                                   
ram:0003f646    8308            lsrs        r3,param_1,#0x2                         
ram:0003f648    8b42            cmp         r3,param_2                              
ram:0003f64a    01d3            bcc         LAB_0003f650                            
ram:0003f64c    8b00            lsls        r3,param_2,#0x2                         
ram:0003f64e    c01a            subs        param_1,param_1,r3                      
                            LAB_0003f650:                 ;XREF[1,0]:   0003f64a
ram:0003f650    5241            adcs        r2,r2                                   
ram:0003f652    4308            lsrs        r3,param_1,#0x1                         
ram:0003f654    8b42            cmp         r3,param_2                              
ram:0003f656    01d3            bcc         LAB_0003f65c                            
ram:0003f658    4b00            lsls        r3,param_2,#0x1                         
ram:0003f65a    c01a            subs        param_1,param_1,r3                      
                            LAB_0003f65c:                 ;XREF[1,0]:   0003f656
ram:0003f65c    5241            adcs        r2,r2                                   
                            LAB_0003f65e:                 ;XREF[1,0]:   0003f572
ram:0003f65e    411a            subs        param_2,param_1,param_2                 
ram:0003f660    00d2            bcs         LAB_0003f664                            
ram:0003f662    0146            mov         param_2,param_1                         
                            LAB_0003f664:                 ;XREF[1,0]:   0003f660
ram:0003f664    5241            adcs        r2,r2                                   
ram:0003f666    1046            mov         param_1,r2                              
ram:0003f668    7047            bx          lr                                      
                            LAB_0003f66a:                 ;XREF[1,0]:   0003f59c
ram:0003f66a    ffe7            b           LAB_0003f66c                            
                            LAB_0003f66c:                 ;XREF[2,0]:   0003f66a,0003f67a
ram:0003f66c    01b5            push        {param_1,lr}                            
ram:0003f66e    0020            movs        param_1,#0x0                            
ram:0003f670    00f006f8        bl          FUN_0003f680                            ;undefined FUN_0003f680(void)
ram:0003f674    02bd            pop         {param_2,pc}                            
ram:0003f676    c046            mov         r8,r8                                   
ram:0003f678    0029            cmp         r1,#0x0                                 
ram:0003f67a    f7d0            beq         LAB_0003f66c                            
ram:0003f67c    76e7            b           FUN_0003f56c                            ;undefined8 FUN_0003f56c(uint param_1...
ram:0003f67e    7047            bx          lr                                      
                            ;************************************************************************************************
                            ;*                                           FUNCTION                                           *
                            ;************************************************************************************************
                            ;undefined FUN_0003f680(void)
                                                          ;XREF[1,0]:   0003f670
ram:0003f680    7047            bx          lr                                      
ram:0003f682    c046            mov         r8,r8                                   
                            ;************************************************************************************************
                            ;*                                           FUNCTION                                           *
                            ;************************************************************************************************
                            ;int FUN_0003f684(int param_1, int param_2, int param_3)
          ;param_1       int                 r0                      
          ;param_2       int                 r1                      
          ;param_3       int                 r2                      
                                                          ;XREF[1,0]:   0003d9ea
ram:0003f684    30b5            push        {r4,r5,lr}                              
ram:0003f686    0024            movs        r4,#0x0                                 
                            LAB_0003f688:                 ;XREF[1,0]:   0003f6a0
ram:0003f688    a242            cmp         param_3,r4                              
ram:0003f68a    01d1            bne         LAB_0003f690                            
ram:0003f68c    0020            movs        param_1,#0x0                            
ram:0003f68e    05e0            b           LAB_0003f69c                            
                            LAB_0003f690:                 ;XREF[1,0]:   0003f68a
ram:0003f690    035d            ldrb        r3,[param_1,r4]                         
ram:0003f692    651c            adds        r5,r4,#0x1                              
ram:0003f694    0c5d            ldrb        r4,[param_2,r4]                         
ram:0003f696    a342            cmp         r3,r4                                   
ram:0003f698    01d0            beq         LAB_0003f69e                            
ram:0003f69a    181b            subs        param_1,r3,r4                           
                            LAB_0003f69c:                 ;XREF[1,0]:   0003f68e
ram:0003f69c    30bd            pop         {r4,r5,pc}                              
                            LAB_0003f69e:                 ;XREF[1,0]:   0003f698
ram:0003f69e    2c00            movs        r4,r5                                   
ram:0003f6a0    f2e7            b           LAB_0003f688                            
                            ;************************************************************************************************
                            ;*                                           FUNCTION                                           *
                            ;************************************************************************************************
                            ;undefined FUN_0003f6a2(int param_1, int param_2, int param_3)
          ;param_1       int                 r0                      
          ;param_2       int                 r1                      
          ;param_3       int                 r2                      
                                                          ;XREF[16,0]:  0003c308,0003d550,0003d7b8,0003dac2
                                                          ;             0003dacc,0003dada,0003e02e,0003e522
                                                          ;             0003e56e,0003e814,0003ea2c,0003eb2c
                                                          ;             0003ecce,0003ed76,0003edba,0003ee18
ram:0003f6a2    0023            movs        r3,#0x0                                 
ram:0003f6a4    10b5            push        {r4,lr}                                 
                            LAB_0003f6a6:                 ;XREF[1,0]:   0003f6b2
ram:0003f6a6    9a42            cmp         param_3,r3                              
ram:0003f6a8    00d1            bne         LAB_0003f6ac                            
ram:0003f6aa    10bd            pop         {r4,pc}                                 
                            LAB_0003f6ac:                 ;XREF[1,0]:   0003f6a8
ram:0003f6ac    cc5c            ldrb        r4,[param_2,r3]                         
ram:0003f6ae    c454            strb        r4,[param_1,r3]                         
ram:0003f6b0    0133            adds        r3,#0x1                                 
ram:0003f6b2    f8e7            b           LAB_0003f6a6                            
                            ;************************************************************************************************
                            ;*                                           FUNCTION                                           *
                            ;************************************************************************************************
                            ;int FUN_0003f6b4(int param_1)
          ;param_1       int                 r0                      
                                                          ;XREF[1,0]:   0003dd0a
ram:0003f6b4    0023            movs        r3,#0x0                                 
                            LAB_0003f6b6:                 ;XREF[1,0]:   0003f6bc
ram:0003f6b6    c25c            ldrb        r2,[param_1,r3]                         
ram:0003f6b8    0133            adds        r3,#0x1                                 
ram:0003f6ba    002a            cmp         r2,#0x0                                 
ram:0003f6bc    fbd1            bne         LAB_0003f6b6                            
ram:0003f6be    581e            subs        param_1,r3,#0x1                         
ram:0003f6c0    7047            bx          lr                                      
ram:0003f6c2    0000            movs        r0,r0                                   
                            ;************************************************************************************************
                            ;*                                           FUNCTION                                           *
                            ;************************************************************************************************
                            ;undefined FUN_0003f6c4(void)
                                                          ;XREF[1,0]:   0003c176
ram:0003f6c4    f8b5            push        {r3,r4,r5,r6,r7,lr}                     
ram:0003f6c6    c046            mov         r8,r8                                   
ram:0003f6c8    f8bc            pop         {r3,r4,r5,r6,r7}                        
ram:0003f6ca    08bc            pop         {r3}                                    
ram:0003f6cc    9e46            mov         lr,r3                                   
ram:0003f6ce    7047            bx          lr                                      
                            ;************************************************************************************************
                            ;*                                           FUNCTION                                           *
                            ;************************************************************************************************
                            ;undefined FUN_0003f6d0(void)
ram:0003f6d0    f8b5            push        {r3,r4,r5,r6,r7,lr}                     
ram:0003f6d2    c046            mov         r8,r8                                   
ram:0003f6d4    f8bc            pop         {r3,r4,r5,r6,r7}                        
ram:0003f6d6    08bc            pop         {r3}                                    
ram:0003f6d8    9e46            mov         lr,r3                                   
ram:0003f6da    7047            bx          lr                                      
                            ;************************************************************************************************
                            ;*                                           FUNCTION                                           *
                            ;************************************************************************************************
                            ;undefined FUN_0003f6dc(undefined4 param_1, int param_2)
          ;param_1       undefined4          r0                      
          ;param_2       int                 r1                      
                                                          ;XREF[2,0]:   0003c14a,0003c160
ram:0003f6dc    002c            cmp         r4,#0x0                                 
ram:0003f6de    00              ??          00h                                     
                                                          ;XREF[0,3]:   0003dd08,0003dd0e,0003de20
ram:0003f6df    204466755...    ds          " DfuTarg"                              
                            DAT_0003f6e8:                 ;XREF[2,0]:   0003ee14,0003f020
ram:0003f6e8    23              ??          23h    #                                
ram:0003f6e9    d1              ??          D1h                                     
ram:0003f6ea    bc              ??          BCh                                     
ram:0003f6eb    ea              ??          EAh                                     
ram:0003f6ec    5f              ??          5Fh    _                                
ram:0003f6ed    78              ??          78h    x                                
ram:0003f6ee    23              ??          23h    #                                
ram:0003f6ef    15              ??          15h                                     
ram:0003f6f0    de              ??          DEh                                     
ram:0003f6f1    ef              ??          EFh                                     
ram:0003f6f2    12              ??          12h                                     
ram:0003f6f3    12              ??          12h                                     
ram:0003f6f4    00              ??          00h                                     
ram:0003f6f5    00              ??          00h                                     
ram:0003f6f6    00              ??          00h                                     
ram:0003f6f7    00              ??          00h                                     
ram:0003f6f8    c8              ??          C8h                                     
ram:0003f6f9    c9              ??          C9h                                     
ram:0003f6fa    ff              ??          FFh                                     
ram:0003f6fb    7f              ??          7Fh                                    
ram:0003f6fc    01              ??          01h                                     
ram:0003f6fd    00              ??          00h                                     
ram:0003f6fe    00              ??          00h                                     
ram:0003f6ff    00              ??          00h                                     
                            DAT_0003f700:                 ;XREF[2,0]:   0003f502,0003f524
ram:0003f700    00              ??          00h                                     
ram:0003f701    00              ??          00h                                     
ram:0003f702    00              ??          00h                                     
ram:0003f703    00              ??          00h                                     
ram:0003f704    00              ??          00h                                     
ram:0003f705    00              ??          00h                                     
ram:0003f706    00              ??          00h                                     
ram:0003f707    00              ??          00h                                     
ram:0003f708    00              ??          00h                                     
ram:0003f709    00              ??          00h                                     
ram:0003f70a    00              ??          00h                                     
ram:0003f70b    00              ??          00h                                     
ram:0003f70c    00              ??          00h                                     
ram:0003f70d    00              ??          00h                                     
ram:0003f70e    00              ??          00h                                     
ram:0003f70f    00              ??          00h                                     
ram:0003f710    00              ??          00h                                     
ram:0003f711    00              ??          00h                                     
ram:0003f712    00              ??          00h                                     
ram:0003f713    00              ??          00h                                     
ram:0003f714    00              ??          00h                                     
ram:0003f715    00              ??          00h                                     
ram:0003f716    00              ??          00h                                     
ram:0003f717    00              ??          00h                                     
ram:0003f718    00              ??          00h                                     
ram:0003f719    00              ??          00h                                     
ram:0003f71a    00              ??          00h                                     
ram:0003f71b    00              ??          00h                                     
ram:0003f71c    00              ??          00h                                     
ram:0003f71d    00              ??          00h                                     
ram:0003f71e    00              ??          00h                                     
ram:0003f71f    00              ??          00h                                     
ram:0003f720    00              ??          00h                                     
ram:0003f721    00              ??          00h                                     
ram:0003f722    00              ??          00h                                     
ram:0003f723    00              ??          00h                                     
ram:0003f724    00              ??          00h                                     
ram:0003f725    00              ??          00h                                     
ram:0003f726    00              ??          00h                                     
ram:0003f727    00              ??          00h                                     
ram:0003f728    00              ??          00h                                     
ram:0003f729    00              ??          00h                                     
ram:0003f72a    00              ??          00h                                     
ram:0003f72b    00              ??          00h                                     
ram:0003f72c    00              ??          00h                                     
ram:0003f72d    00              ??          00h                                     
ram:0003f72e    00              ??          00h                                     
ram:0003f72f    00              ??          00h                                     
ram:0003f730    00              ??          00h                                     
ram:0003f731    00              ??          00h                                     
ram:0003f732    00              ??          00h                                     
ram:0003f733    00              ??          00h                                     
ram:0003f734    00              ??          00h                                     
ram:0003f735    00              ??          00h                                     
ram:0003f736    00              ??          00h                                     
ram:0003f737    00              ??          00h                                     
ram:0003f738    00              ??          00h                                     
ram:0003f739    00              ??          00h                                     
ram:0003f73a    00              ??          00h                                     
ram:0003f73b    00              ??          00h                                     
ram:0003f73c    00              ??          00h                                     
ram:0003f73d    00              ??          00h                                     
ram:0003f73e    00              ??          00h                                     
ram:0003f73f    00              ??          00h                                     
ram:0003f740    00              ??          00h                                     
ram:0003f741    00              ??          00h                                     
ram:0003f742    00              ??          00h                                     
ram:0003f743    00              ??          00h                                     
ram:0003f744    00              ??          00h                                     
ram:0003f745    00              ??          00h                                     
ram:0003f746    00              ??          00h                                     
ram:0003f747    00              ??          00h                                     
ram:0003f748    00              ??          00h                                     
ram:0003f749    00              ??          00h                                     
ram:0003f74a    00              ??          00h                                     
ram:0003f74b    00              ??          00h                                     
ram:0003f74c    00              ??          00h                                     
ram:0003f74d    00              ??          00h                                     
ram:0003f74e    00              ??          00h                                     
ram:0003f74f    00              ??          00h                                     
ram:0003f750    00              ??          00h                                     
ram:0003f751    00              ??          00h                                     
ram:0003f752    00              ??          00h                                     
ram:0003f753    00              ??          00h                                     
ram:0003f754    00              ??          00h                                     
ram:0003f755    00              ??          00h                                     
ram:0003f756    00              ??          00h                                     
ram:0003f757    00              ??          00h                                     
ram:0003f758    00              ??          00h                                     
ram:0003f759    00              ??          00h                                     
ram:0003f75a    00              ??          00h                                     
ram:0003f75b    00              ??          00h                                     
ram:0003f75c    00              ??          00h                                     
ram:0003f75d    00              ??          00h                                     
ram:0003f75e    00              ??          00h                                     
ram:0003f75f    00              ??          00h                                     
                            DAT_0003f760:                 ;XREF[1,0]:   0003f50e
ram:0003f760    ffff0000        undefined4  0000FFFFh                               
                            DAT_0003f764:                 ;XREF[1,0]:   0003f50e
ram:0003f764    32000000        undefined4  00000032h                               
