                            MasterStackPointer:           ;XREF[10,0]:  0007b5f2,0007b5f2,0007bccc,0007bcfe
                                                          ;             0007bd02,0007bd1e,0007c006,0007c25c
                                                          ;             0007c4d0,0007cb78
ram:0007a000    38540020        addr        DAT_20005438                            
                            Reset:                        ;XREF[1,0]:   Entry Point
ram:0007a004    59a50700        addr        FUNC_Reset_0007a558+1                   
                            NMI:                          ;XREF[1,0]:   Entry Point
ram:0007a008    61a50700        addr        FUNC_NMI_0007a560+1                     
                            HardFault:                    ;XREF[1,0]:   Entry Point
ram:0007a00c    63a50700        addr        FUNC_HardFault_0007a562+1               
                            MemManage:                    ;XREF[1,0]:   Entry Point
ram:0007a010    65a50700        addr        FUNC_MemManage_0007a564+1               
                            BusFault:                     ;XREF[1,0]:   Entry Point
ram:0007a014    67a50700        addr        FUNC_BusFault_0007a566+1                
                            UsageFault:                   ;XREF[1,0]:   Entry Point
ram:0007a018    69a50700        addr        FUNC_UsageFault_0007a568+1              
                            Reserved1:                    ;XREF[1,0]:   Entry Point
ram:0007a01c    00000000        addr        00000000                                
                            Reserved2:                    ;XREF[1,0]:   Entry Point
ram:0007a020    00000000        addr        00000000                                
                            Reserved3:                    ;XREF[1,0]:   Entry Point
ram:0007a024    00000000        addr        00000000                                
                            Reserved5:                    ;XREF[1,0]:   Entry Point
                            Reserved6:                    
                            Reserved4:                    
ram:0007a028    00000000        addr        00000000                                
                            SVCall:                       ;XREF[1,0]:   Entry Point
ram:0007a02c    15a40700        addr        FUNC_SVCall_0007a414+1                  
ram:0007a030    6da50700        addr        FUNC_VT_0007a56c+1                      
ram:0007a034    00000000        addr        00000000                                
                            PendSV:                       ;XREF[1,0]:   Entry Point
ram:0007a038    6fa50700        addr        FUNC_PendSV_0007a56e+1                  
                            SysTick:                      ;XREF[1,0]:   Entry Point
ram:0007a03c    71a50700        addr        FUNC_SysTick_0007a570+1                 
                            IRQ:                          ;XREF[1,0]:   Entry Point
ram:0007a040    73a50700        addr        FUNC_IRQ_0007a572+1                     
ram:0007a044    73a50700        addr        FUNC_IRQ_0007a572+1                     
ram:0007a048    73a50700        addr        FUNC_IRQ_0007a572+1                     
ram:0007a04c    73a50700        addr        FUNC_IRQ_0007a572+1                     
ram:0007a050    73a50700        addr        FUNC_IRQ_0007a572+1                     
ram:0007a054    73a50700        addr        FUNC_IRQ_0007a572+1                     
ram:0007a058    73a50700        addr        FUNC_IRQ_0007a572+1                     
ram:0007a05c    73a50700        addr        FUNC_IRQ_0007a572+1                     
ram:0007a060    73a50700        addr        FUNC_IRQ_0007a572+1                     
ram:0007a064    73a50700        addr        FUNC_IRQ_0007a572+1                     
ram:0007a068    73a50700        addr        FUNC_IRQ_0007a572+1                     
ram:0007a06c    73a50700        addr        FUNC_IRQ_0007a572+1                     
ram:0007a070    73a50700        addr        FUNC_IRQ_0007a572+1                     
ram:0007a074    73a50700        addr        FUNC_IRQ_0007a572+1                     
ram:0007a078    73a50700        addr        FUNC_IRQ_0007a572+1                     
ram:0007a07c    73a50700        addr        FUNC_IRQ_0007a572+1                     
ram:0007a080    73a50700        addr        FUNC_IRQ_0007a572+1                     
ram:0007a084    c5a60700        addr        FUNC_VT_0007a6c4+1                      
ram:0007a088    73a50700        addr        FUNC_IRQ_0007a572+1                     
ram:0007a08c    73a50700        addr        FUNC_IRQ_0007a572+1                     
ram:0007a090    e9a60700        addr        thunk_FUN_0007d5d8+1                    
ram:0007a094    73a50700        addr        FUNC_IRQ_0007a572+1                     
ram:0007a098    eda60700        addr        FUNC_VT_0007a6ec+1                      
ram:0007a09c    73a50700        addr        FUNC_IRQ_0007a572+1                     
ram:0007a0a0    73a50700        addr        FUNC_IRQ_0007a572+1                     
ram:0007a0a4    73a50700        addr        FUNC_IRQ_0007a572+1                     
ram:0007a0a8    73a50700        addr        FUNC_IRQ_0007a572+1                     
ram:0007a0ac    73a50700        addr        FUNC_IRQ_0007a572+1                     
ram:0007a0b0    73a50700        addr        FUNC_IRQ_0007a572+1                     
ram:0007a0b4    73a50700        addr        FUNC_IRQ_0007a572+1                     
ram:0007a0b8    00000000        addr        00000000                                
ram:0007a0bc    00000000        addr        00000000                                
ram:0007a0c0    73a50700        addr        FUNC_IRQ_0007a572+1                     
ram:0007a0c4    73a50700        addr        FUNC_IRQ_0007a572+1                     
ram:0007a0c8    73a50700        addr        FUNC_IRQ_0007a572+1                     
ram:0007a0cc    73a50700        addr        FUNC_IRQ_0007a572+1                     
ram:0007a0d0    73a50700        addr        FUNC_IRQ_0007a572+1                     
ram:0007a0d4    73a50700        addr        FUNC_IRQ_0007a572+1                     
ram:0007a0d8    73a50700        addr        FUNC_IRQ_0007a572+1                     
ram:0007a0dc    00000000        addr        00000000                                
ram:0007a0e0    00000000        addr        00000000                                
ram:0007a0e4    00000000        addr        00000000                                
ram:0007a0e8    00000000        addr        00000000                                
ram:0007a0ec    00000000        addr        00000000                                
ram:0007a0f0    00              ??          00h                                     
ram:0007a0f1    00              ??          00h                                     
ram:0007a0f2    00              ??          00h                                     
ram:0007a0f3    00              ??          00h                                     
ram:0007a0f4    00              ??          00h                                     
ram:0007a0f5    00              ??          00h                                     
ram:0007a0f6    00              ??          00h                                     
ram:0007a0f7    00              ??          00h                                     
ram:0007a0f8    00              ??          00h                                     
ram:0007a0f9    00              ??          00h                                     
ram:0007a0fa    00              ??          00h                                     
ram:0007a0fb    00              ??          00h                                     
ram:0007a0fc    00              ??          00h                                     
ram:0007a0fd    00              ??          00h                                     
ram:0007a0fe    00              ??          00h                                     
ram:0007a0ff    00              ??          00h                                     
ram:0007a100    00              ??          00h                                     
ram:0007a101    00              ??          00h                                     
ram:0007a102    00              ??          00h                                     
ram:0007a103    00              ??          00h                                     
ram:0007a104    00              ??          00h                                     
ram:0007a105    00              ??          00h                                     
ram:0007a106    00              ??          00h                                     
ram:0007a107    00              ??          00h                                     
ram:0007a108    00              ??          00h                                     
ram:0007a109    00              ??          00h                                     
ram:0007a10a    00              ??          00h                                     
ram:0007a10b    00              ??          00h                                     
ram:0007a10c    00              ??          00h                                     
ram:0007a10d    00              ??          00h                                     
ram:0007a10e    00              ??          00h                                     
ram:0007a10f    00              ??          00h                                     
ram:0007a110    00              ??          00h                                     
ram:0007a111    00              ??          00h                                     
ram:0007a112    00              ??          00h                                     
ram:0007a113    00              ??          00h                                     
ram:0007a114    00              ??          00h                                     
ram:0007a115    00              ??          00h                                     
ram:0007a116    00              ??          00h                                     
ram:0007a117    00              ??          00h                                     
ram:0007a118    00              ??          00h                                     
ram:0007a119    00              ??          00h                                     
ram:0007a11a    00              ??          00h                                     
ram:0007a11b    00              ??          00h                                     
ram:0007a11c    00              ??          00h                                     
ram:0007a11d    00              ??          00h                                     
ram:0007a11e    00              ??          00h                                     
ram:0007a11f    00              ??          00h                                     
ram:0007a120    00              ??          00h                                     
ram:0007a121    00              ??          00h                                     
ram:0007a122    00              ??          00h                                     
ram:0007a123    00              ??          00h                                     
ram:0007a124    00              ??          00h                                     
ram:0007a125    00              ??          00h                                     
ram:0007a126    00              ??          00h                                     
ram:0007a127    00              ??          00h                                     
ram:0007a128    00              ??          00h                                     
ram:0007a129    00              ??          00h                                     
ram:0007a12a    00              ??          00h                                     
ram:0007a12b    00              ??          00h                                     
ram:0007a12c    00              ??          00h                                     
ram:0007a12d    00              ??          00h                                     
ram:0007a12e    00              ??          00h                                     
ram:0007a12f    00              ??          00h                                     
ram:0007a130    00              ??          00h                                     
ram:0007a131    00              ??          00h                                     
ram:0007a132    00              ??          00h                                     
ram:0007a133    00              ??          00h                                     
ram:0007a134    00              ??          00h                                     
ram:0007a135    00              ??          00h                                     
ram:0007a136    00              ??          00h                                     
ram:0007a137    00              ??          00h                                     
ram:0007a138    00              ??          00h                                     
ram:0007a139    00              ??          00h                                     
ram:0007a13a    00              ??          00h                                     
ram:0007a13b    00              ??          00h                                     
ram:0007a13c    00              ??          00h                                     
ram:0007a13d    00              ??          00h                                     
ram:0007a13e    00              ??          00h                                     
ram:0007a13f    00              ??          00h                                     
ram:0007a140    00              ??          00h                                     
ram:0007a141    00              ??          00h                                     
ram:0007a142    00              ??          00h                                     
ram:0007a143    00              ??          00h                                     
ram:0007a144    00              ??          00h                                     
ram:0007a145    00              ??          00h                                     
ram:0007a146    00              ??          00h                                     
ram:0007a147    00              ??          00h                                     
ram:0007a148    00              ??          00h                                     
ram:0007a149    00              ??          00h                                     
ram:0007a14a    00              ??          00h                                     
ram:0007a14b    00              ??          00h                                     
ram:0007a14c    00              ??          00h                                     
ram:0007a14d    00              ??          00h                                     
ram:0007a14e    00              ??          00h                                     
ram:0007a14f    00              ??          00h                                     
ram:0007a150    00              ??          00h                                     
ram:0007a151    00              ??          00h                                     
ram:0007a152    00              ??          00h                                     
ram:0007a153    00              ??          00h                                     
ram:0007a154    00              ??          00h                                     
ram:0007a155    00              ??          00h                                     
ram:0007a156    00              ??          00h                                     
ram:0007a157    00              ??          00h                                     
ram:0007a158    00              ??          00h                                     
ram:0007a159    00              ??          00h                                     
ram:0007a15a    00              ??          00h                                     
ram:0007a15b    00              ??          00h                                     
ram:0007a15c    00              ??          00h                                     
ram:0007a15d    00              ??          00h                                     
ram:0007a15e    00              ??          00h                                     
ram:0007a15f    00              ??          00h                                     
ram:0007a160    00              ??          00h                                     
ram:0007a161    00              ??          00h                                     
ram:0007a162    00              ??          00h                                     
ram:0007a163    00              ??          00h                                     
ram:0007a164    00              ??          00h                                     
ram:0007a165    00              ??          00h                                     
ram:0007a166    00              ??          00h                                     
ram:0007a167    00              ??          00h                                     
ram:0007a168    00              ??          00h                                     
ram:0007a169    00              ??          00h                                     
ram:0007a16a    00              ??          00h                                     
ram:0007a16b    00              ??          00h                                     
ram:0007a16c    00              ??          00h                                     
ram:0007a16d    00              ??          00h                                     
ram:0007a16e    00              ??          00h                                     
ram:0007a16f    00              ??          00h                                     
ram:0007a170    00              ??          00h                                     
ram:0007a171    00              ??          00h                                     
ram:0007a172    00              ??          00h                                     
ram:0007a173    00              ??          00h                                     
ram:0007a174    00              ??          00h                                     
ram:0007a175    00              ??          00h                                     
ram:0007a176    00              ??          00h                                     
ram:0007a177    00              ??          00h                                     
ram:0007a178    00              ??          00h                                     
ram:0007a179    00              ??          00h                                     
ram:0007a17a    00              ??          00h                                     
ram:0007a17b    00              ??          00h                                     
ram:0007a17c    00              ??          00h                                     
ram:0007a17d    00              ??          00h                                     
ram:0007a17e    00              ??          00h                                     
ram:0007a17f    00              ??          00h                                     
ram:0007a180    00              ??          00h                                     
ram:0007a181    00              ??          00h                                     
ram:0007a182    00              ??          00h                                     
ram:0007a183    00              ??          00h                                     
ram:0007a184    00              ??          00h                                     
ram:0007a185    00              ??          00h                                     
ram:0007a186    00              ??          00h                                     
ram:0007a187    00              ??          00h                                     
ram:0007a188    00              ??          00h                                     
ram:0007a189    00              ??          00h                                     
ram:0007a18a    00              ??          00h                                     
ram:0007a18b    00              ??          00h                                     
ram:0007a18c    00              ??          00h                                     
ram:0007a18d    00              ??          00h                                     
ram:0007a18e    00              ??          00h                                     
ram:0007a18f    00              ??          00h                                     
ram:0007a190    00              ??          00h                                     
ram:0007a191    00              ??          00h                                     
ram:0007a192    00              ??          00h                                     
ram:0007a193    00              ??          00h                                     
ram:0007a194    00              ??          00h                                     
ram:0007a195    00              ??          00h                                     
ram:0007a196    00              ??          00h                                     
ram:0007a197    00              ??          00h                                     
ram:0007a198    00              ??          00h                                     
ram:0007a199    00              ??          00h                                     
ram:0007a19a    00              ??          00h                                     
ram:0007a19b    00              ??          00h                                     
ram:0007a19c    00              ??          00h                                     
ram:0007a19d    00              ??          00h                                     
ram:0007a19e    00              ??          00h                                     
ram:0007a19f    00              ??          00h                                     
ram:0007a1a0    00              ??          00h                                     
ram:0007a1a1    00              ??          00h                                     
ram:0007a1a2    00              ??          00h                                     
ram:0007a1a3    00              ??          00h                                     
ram:0007a1a4    00              ??          00h                                     
ram:0007a1a5    00              ??          00h                                     
ram:0007a1a6    00              ??          00h                                     
ram:0007a1a7    00              ??          00h                                     
ram:0007a1a8    00              ??          00h                                     
ram:0007a1a9    00              ??          00h                                     
ram:0007a1aa    00              ??          00h                                     
ram:0007a1ab    00              ??          00h                                     
ram:0007a1ac    00              ??          00h                                     
ram:0007a1ad    00              ??          00h                                     
ram:0007a1ae    00              ??          00h                                     
ram:0007a1af    00              ??          00h                                     
ram:0007a1b0    00              ??          00h                                     
ram:0007a1b1    00              ??          00h                                     
ram:0007a1b2    00              ??          00h                                     
ram:0007a1b3    00              ??          00h                                     
ram:0007a1b4    00              ??          00h                                     
ram:0007a1b5    00              ??          00h                                     
ram:0007a1b6    00              ??          00h                                     
ram:0007a1b7    00              ??          00h                                     
ram:0007a1b8    00              ??          00h                                     
ram:0007a1b9    00              ??          00h                                     
ram:0007a1ba    00              ??          00h                                     
ram:0007a1bb    00              ??          00h                                     
ram:0007a1bc    00              ??          00h                                     
ram:0007a1bd    00              ??          00h                                     
ram:0007a1be    00              ??          00h                                     
ram:0007a1bf    00              ??          00h                                     
ram:0007a1c0    00              ??          00h                                     
ram:0007a1c1    00              ??          00h                                     
ram:0007a1c2    00              ??          00h                                     
ram:0007a1c3    00              ??          00h                                     
ram:0007a1c4    00              ??          00h                                     
ram:0007a1c5    00              ??          00h                                     
ram:0007a1c6    00              ??          00h                                     
ram:0007a1c7    00              ??          00h                                     
ram:0007a1c8    00              ??          00h                                     
ram:0007a1c9    00              ??          00h                                     
ram:0007a1ca    00              ??          00h                                     
ram:0007a1cb    00              ??          00h                                     
ram:0007a1cc    00              ??          00h                                     
ram:0007a1cd    00              ??          00h                                     
ram:0007a1ce    00              ??          00h                                     
ram:0007a1cf    00              ??          00h                                     
ram:0007a1d0    00              ??          00h                                     
ram:0007a1d1    00              ??          00h                                     
ram:0007a1d2    00              ??          00h                                     
ram:0007a1d3    00              ??          00h                                     
ram:0007a1d4    00              ??          00h                                     
ram:0007a1d5    00              ??          00h                                     
ram:0007a1d6    00              ??          00h                                     
ram:0007a1d7    00              ??          00h                                     
ram:0007a1d8    00              ??          00h                                     
ram:0007a1d9    00              ??          00h                                     
ram:0007a1da    00              ??          00h                                     
ram:0007a1db    00              ??          00h                                     
ram:0007a1dc    00              ??          00h                                     
ram:0007a1dd    00              ??          00h                                     
ram:0007a1de    00              ??          00h                                     
ram:0007a1df    00              ??          00h                                     
ram:0007a1e0    00              ??          00h                                     
ram:0007a1e1    00              ??          00h                                     
ram:0007a1e2    00              ??          00h                                     
ram:0007a1e3    00              ??          00h                                     
ram:0007a1e4    00              ??          00h                                     
ram:0007a1e5    00              ??          00h                                     
ram:0007a1e6    00              ??          00h                                     
ram:0007a1e7    00              ??          00h                                     
ram:0007a1e8    00              ??          00h                                     
ram:0007a1e9    00              ??          00h                                     
ram:0007a1ea    00              ??          00h                                     
ram:0007a1eb    00              ??          00h                                     
ram:0007a1ec    00              ??          00h                                     
ram:0007a1ed    00              ??          00h                                     
ram:0007a1ee    00              ??          00h                                     
ram:0007a1ef    00              ??          00h                                     
ram:0007a1f0    00              ??          00h                                     
ram:0007a1f1    00              ??          00h                                     
ram:0007a1f2    00              ??          00h                                     
ram:0007a1f3    00              ??          00h                                     
ram:0007a1f4    00              ??          00h                                     
ram:0007a1f5    00              ??          00h                                     
ram:0007a1f6    00              ??          00h                                     
ram:0007a1f7    00              ??          00h                                     
ram:0007a1f8    00              ??          00h                                     
ram:0007a1f9    00              ??          00h                                     
ram:0007a1fa    00              ??          00h                                     
ram:0007a1fb    00              ??          00h                                     
ram:0007a1fc    00              ??          00h                                     
ram:0007a1fd    00              ??          00h                                     
ram:0007a1fe    00              ??          00h                                     
ram:0007a1ff    00              ??          00h                                     
ram:0007a200    00              ??          00h                                     
ram:0007a201    00              ??          00h                                     
ram:0007a202    00              ??          00h                                     
ram:0007a203    00              ??          00h                                     
ram:0007a204    00              ??          00h                                     
ram:0007a205    00              ??          00h                                     
ram:0007a206    00              ??          00h                                     
ram:0007a207    00              ??          00h                                     
ram:0007a208    00              ??          00h                                     
ram:0007a209    00              ??          00h                                     
ram:0007a20a    00              ??          00h                                     
ram:0007a20b    00              ??          00h                                     
ram:0007a20c    00              ??          00h                                     
ram:0007a20d    00              ??          00h                                     
ram:0007a20e    00              ??          00h                                     
ram:0007a20f    00              ??          00h                                     
ram:0007a210    00              ??          00h                                     
ram:0007a211    00              ??          00h                                     
ram:0007a212    00              ??          00h                                     
ram:0007a213    00              ??          00h                                     
ram:0007a214    00              ??          00h                                     
ram:0007a215    00              ??          00h                                     
ram:0007a216    00              ??          00h                                     
ram:0007a217    00              ??          00h                                     
ram:0007a218    00              ??          00h                                     
ram:0007a219    00              ??          00h                                     
ram:0007a21a    00              ??          00h                                     
ram:0007a21b    00              ??          00h                                     
ram:0007a21c    00              ??          00h                                     
ram:0007a21d    00              ??          00h                                     
ram:0007a21e    00              ??          00h                                     
ram:0007a21f    00              ??          00h                                     
ram:0007a220    00              ??          00h                                     
ram:0007a221    00              ??          00h                                     
ram:0007a222    00              ??          00h                                     
ram:0007a223    00              ??          00h                                     
ram:0007a224    00              ??          00h                                     
ram:0007a225    00              ??          00h                                     
ram:0007a226    00              ??          00h                                     
ram:0007a227    00              ??          00h                                     
ram:0007a228    00              ??          00h                                     
ram:0007a229    00              ??          00h                                     
ram:0007a22a    00              ??          00h                                     
ram:0007a22b    00              ??          00h                                     
ram:0007a22c    00              ??          00h                                     
ram:0007a22d    00              ??          00h                                     
ram:0007a22e    00              ??          00h                                     
ram:0007a22f    00              ??          00h                                     
ram:0007a230    00              ??          00h                                     
ram:0007a231    00              ??          00h                                     
ram:0007a232    00              ??          00h                                     
ram:0007a233    00              ??          00h                                     
ram:0007a234    00              ??          00h                                     
ram:0007a235    00              ??          00h                                     
ram:0007a236    00              ??          00h                                     
ram:0007a237    00              ??          00h                                     
ram:0007a238    00              ??          00h                                     
ram:0007a239    00              ??          00h                                     
ram:0007a23a    00              ??          00h                                     
ram:0007a23b    00              ??          00h                                     
ram:0007a23c    00              ??          00h                                     
ram:0007a23d    00              ??          00h                                     
ram:0007a23e    00              ??          00h                                     
ram:0007a23f    00              ??          00h                                     
ram:0007a240    00              ??          00h                                     
ram:0007a241    00              ??          00h                                     
ram:0007a242    00              ??          00h                                     
ram:0007a243    00              ??          00h                                     
ram:0007a244    00              ??          00h                                     
ram:0007a245    00              ??          00h                                     
ram:0007a246    00              ??          00h                                     
ram:0007a247    00              ??          00h                                     
ram:0007a248    00              ??          00h                                     
ram:0007a249    00              ??          00h                                     
ram:0007a24a    00              ??          00h                                     
ram:0007a24b    00              ??          00h                                     
ram:0007a24c    00              ??          00h                                     
ram:0007a24d    00              ??          00h                                     
ram:0007a24e    00              ??          00h                                     
ram:0007a24f    00              ??          00h                                     
ram:0007a250    00              ??          00h                                     
ram:0007a251    00              ??          00h                                     
ram:0007a252    00              ??          00h                                     
ram:0007a253    00              ??          00h                                     
ram:0007a254    00              ??          00h                                     
ram:0007a255    00              ??          00h                                     
ram:0007a256    00              ??          00h                                     
ram:0007a257    00              ??          00h                                     
ram:0007a258    00              ??          00h                                     
ram:0007a259    00              ??          00h                                     
ram:0007a25a    00              ??          00h                                     
ram:0007a25b    00              ??          00h                                     
ram:0007a25c    00              ??          00h                                     
ram:0007a25d    00              ??          00h                                     
ram:0007a25e    00              ??          00h                                     
ram:0007a25f    00              ??          00h                                     
ram:0007a260    00              ??          00h                                     
ram:0007a261    00              ??          00h                                     
ram:0007a262    00              ??          00h                                     
ram:0007a263    00              ??          00h                                     
ram:0007a264    00              ??          00h                                     
ram:0007a265    00              ??          00h                                     
ram:0007a266    00              ??          00h                                     
ram:0007a267    00              ??          00h                                     
ram:0007a268    00              ??          00h                                     
ram:0007a269    00              ??          00h                                     
ram:0007a26a    00              ??          00h                                     
ram:0007a26b    00              ??          00h                                     
ram:0007a26c    00              ??          00h                                     
ram:0007a26d    00              ??          00h                                     
ram:0007a26e    00              ??          00h                                     
ram:0007a26f    00              ??          00h                                     
ram:0007a270    00              ??          00h                                     
ram:0007a271    00              ??          00h                                     
ram:0007a272    00              ??          00h                                     
ram:0007a273    00              ??          00h                                     
ram:0007a274    00              ??          00h                                     
ram:0007a275    00              ??          00h                                     
ram:0007a276    00              ??          00h                                     
ram:0007a277    00              ??          00h                                     
ram:0007a278    00              ??          00h                                     
ram:0007a279    00              ??          00h                                     
ram:0007a27a    00              ??          00h                                     
ram:0007a27b    00              ??          00h                                     
ram:0007a27c    00              ??          00h                                     
ram:0007a27d    00              ??          00h                                     
ram:0007a27e    00              ??          00h                                     
ram:0007a27f    00              ??          00h                                     
ram:0007a280    00              ??          00h                                     
ram:0007a281    00              ??          00h                                     
ram:0007a282    00              ??          00h                                     
ram:0007a283    00              ??          00h                                     
ram:0007a284    00              ??          00h                                     
ram:0007a285    00              ??          00h                                     
ram:0007a286    00              ??          00h                                     
ram:0007a287    00              ??          00h                                     
ram:0007a288    00              ??          00h                                     
ram:0007a289    00              ??          00h                                     
ram:0007a28a    00              ??          00h                                     
ram:0007a28b    00              ??          00h                                     
ram:0007a28c    00              ??          00h                                     
ram:0007a28d    00              ??          00h                                     
ram:0007a28e    00              ??          00h                                     
ram:0007a28f    00              ??          00h                                     
ram:0007a290    00              ??          00h                                     
ram:0007a291    00              ??          00h                                     
ram:0007a292    00              ??          00h                                     
ram:0007a293    00              ??          00h                                     
ram:0007a294    00              ??          00h                                     
ram:0007a295    00              ??          00h                                     
ram:0007a296    00              ??          00h                                     
ram:0007a297    00              ??          00h                                     
ram:0007a298    00              ??          00h                                     
ram:0007a299    00              ??          00h                                     
ram:0007a29a    00              ??          00h                                     
ram:0007a29b    00              ??          00h                                     
ram:0007a29c    00              ??          00h                                     
ram:0007a29d    00              ??          00h                                     
ram:0007a29e    00              ??          00h                                     
ram:0007a29f    00              ??          00h                                     
ram:0007a2a0    00              ??          00h                                     
ram:0007a2a1    00              ??          00h                                     
ram:0007a2a2    00              ??          00h                                     
ram:0007a2a3    00              ??          00h                                     
ram:0007a2a4    00              ??          00h                                     
ram:0007a2a5    00              ??          00h                                     
ram:0007a2a6    00              ??          00h                                     
ram:0007a2a7    00              ??          00h                                     
ram:0007a2a8    00              ??          00h                                     
ram:0007a2a9    00              ??          00h                                     
ram:0007a2aa    00              ??          00h                                     
ram:0007a2ab    00              ??          00h                                     
ram:0007a2ac    00              ??          00h                                     
ram:0007a2ad    00              ??          00h                                     
ram:0007a2ae    00              ??          00h                                     
ram:0007a2af    00              ??          00h                                     
ram:0007a2b0    00              ??          00h                                     
ram:0007a2b1    00              ??          00h                                     
ram:0007a2b2    00              ??          00h                                     
ram:0007a2b3    00              ??          00h                                     
ram:0007a2b4    00              ??          00h                                     
ram:0007a2b5    00              ??          00h                                     
ram:0007a2b6    00              ??          00h                                     
ram:0007a2b7    00              ??          00h                                     
ram:0007a2b8    00              ??          00h                                     
ram:0007a2b9    00              ??          00h                                     
ram:0007a2ba    00              ??          00h                                     
ram:0007a2bb    00              ??          00h                                     
ram:0007a2bc    00              ??          00h                                     
ram:0007a2bd    00              ??          00h                                     
ram:0007a2be    00              ??          00h                                     
ram:0007a2bf    00              ??          00h                                     
ram:0007a2c0    00              ??          00h                                     
ram:0007a2c1    00              ??          00h                                     
ram:0007a2c2    00              ??          00h                                     
ram:0007a2c3    00              ??          00h                                     
ram:0007a2c4    00              ??          00h                                     
ram:0007a2c5    00              ??          00h                                     
ram:0007a2c6    00              ??          00h                                     
ram:0007a2c7    00              ??          00h                                     
ram:0007a2c8    00              ??          00h                                     
ram:0007a2c9    00              ??          00h                                     
ram:0007a2ca    00              ??          00h                                     
ram:0007a2cb    00              ??          00h                                     
ram:0007a2cc    00              ??          00h                                     
ram:0007a2cd    00              ??          00h                                     
ram:0007a2ce    00              ??          00h                                     
ram:0007a2cf    00              ??          00h                                     
ram:0007a2d0    00              ??          00h                                     
ram:0007a2d1    00              ??          00h                                     
ram:0007a2d2    00              ??          00h                                     
ram:0007a2d3    00              ??          00h                                     
ram:0007a2d4    00              ??          00h                                     
ram:0007a2d5    00              ??          00h                                     
ram:0007a2d6    00              ??          00h                                     
ram:0007a2d7    00              ??          00h                                     
ram:0007a2d8    00              ??          00h                                     
ram:0007a2d9    00              ??          00h                                     
ram:0007a2da    00              ??          00h                                     
ram:0007a2db    00              ??          00h                                     
ram:0007a2dc    00              ??          00h                                     
ram:0007a2dd    00              ??          00h                                     
ram:0007a2de    00              ??          00h                                     
ram:0007a2df    00              ??          00h                                     
ram:0007a2e0    00              ??          00h                                     
ram:0007a2e1    00              ??          00h                                     
ram:0007a2e2    00              ??          00h                                     
ram:0007a2e3    00              ??          00h                                     
ram:0007a2e4    00              ??          00h                                     
ram:0007a2e5    00              ??          00h                                     
ram:0007a2e6    00              ??          00h                                     
ram:0007a2e7    00              ??          00h                                     
ram:0007a2e8    00              ??          00h                                     
ram:0007a2e9    00              ??          00h                                     
ram:0007a2ea    00              ??          00h                                     
ram:0007a2eb    00              ??          00h                                     
ram:0007a2ec    00              ??          00h                                     
ram:0007a2ed    00              ??          00h                                     
ram:0007a2ee    00              ??          00h                                     
ram:0007a2ef    00              ??          00h                                     
ram:0007a2f0    00              ??          00h                                     
ram:0007a2f1    00              ??          00h                                     
ram:0007a2f2    00              ??          00h                                     
ram:0007a2f3    00              ??          00h                                     
ram:0007a2f4    00              ??          00h                                     
ram:0007a2f5    00              ??          00h                                     
ram:0007a2f6    00              ??          00h                                     
ram:0007a2f7    00              ??          00h                                     
ram:0007a2f8    00              ??          00h                                     
ram:0007a2f9    00              ??          00h                                     
ram:0007a2fa    00              ??          00h                                     
ram:0007a2fb    00              ??          00h                                     
ram:0007a2fc    00              ??          00h                                     
ram:0007a2fd    00              ??          00h                                     
ram:0007a2fe    00              ??          00h                                     
ram:0007a2ff    00              ??          00h                                     
ram:0007a300    00              ??          00h                                     
ram:0007a301    00              ??          00h                                     
ram:0007a302    00              ??          00h                                     
ram:0007a303    00              ??          00h                                     
ram:0007a304    00              ??          00h                                     
ram:0007a305    00              ??          00h                                     
ram:0007a306    00              ??          00h                                     
ram:0007a307    00              ??          00h                                     
ram:0007a308    00              ??          00h                                     
ram:0007a309    00              ??          00h                                     
ram:0007a30a    00              ??          00h                                     
ram:0007a30b    00              ??          00h                                     
ram:0007a30c    00              ??          00h                                     
ram:0007a30d    00              ??          00h                                     
ram:0007a30e    00              ??          00h                                     
ram:0007a30f    00              ??          00h                                     
ram:0007a310    00              ??          00h                                     
ram:0007a311    00              ??          00h                                     
ram:0007a312    00              ??          00h                                     
ram:0007a313    00              ??          00h                                     
ram:0007a314    00              ??          00h                                     
ram:0007a315    00              ??          00h                                     
ram:0007a316    00              ??          00h                                     
ram:0007a317    00              ??          00h                                     
ram:0007a318    00              ??          00h                                     
ram:0007a319    00              ??          00h                                     
ram:0007a31a    00              ??          00h                                     
ram:0007a31b    00              ??          00h                                     
ram:0007a31c    00              ??          00h                                     
ram:0007a31d    00              ??          00h                                     
ram:0007a31e    00              ??          00h                                     
ram:0007a31f    00              ??          00h                                     
ram:0007a320    00              ??          00h                                     
ram:0007a321    00              ??          00h                                     
ram:0007a322    00              ??          00h                                     
ram:0007a323    00              ??          00h                                     
ram:0007a324    00              ??          00h                                     
ram:0007a325    00              ??          00h                                     
ram:0007a326    00              ??          00h                                     
ram:0007a327    00              ??          00h                                     
ram:0007a328    00              ??          00h                                     
ram:0007a329    00              ??          00h                                     
ram:0007a32a    00              ??          00h                                     
ram:0007a32b    00              ??          00h                                     
ram:0007a32c    00              ??          00h                                     
ram:0007a32d    00              ??          00h                                     
ram:0007a32e    00              ??          00h                                     
ram:0007a32f    00              ??          00h                                     
ram:0007a330    00              ??          00h                                     
ram:0007a331    00              ??          00h                                     
ram:0007a332    00              ??          00h                                     
ram:0007a333    00              ??          00h                                     
ram:0007a334    00              ??          00h                                     
ram:0007a335    00              ??          00h                                     
ram:0007a336    00              ??          00h                                     
ram:0007a337    00              ??          00h                                     
ram:0007a338    00              ??          00h                                     
ram:0007a339    00              ??          00h                                     
ram:0007a33a    00              ??          00h                                     
ram:0007a33b    00              ??          00h                                     
ram:0007a33c    00              ??          00h                                     
ram:0007a33d    00              ??          00h                                     
ram:0007a33e    00              ??          00h                                     
ram:0007a33f    00              ??          00h                                     
ram:0007a340    00              ??          00h                                     
ram:0007a341    00              ??          00h                                     
ram:0007a342    00              ??          00h                                     
ram:0007a343    00              ??          00h                                     
ram:0007a344    00              ??          00h                                     
ram:0007a345    00              ??          00h                                     
ram:0007a346    00              ??          00h                                     
ram:0007a347    00              ??          00h                                     
ram:0007a348    00              ??          00h                                     
ram:0007a349    00              ??          00h                                     
ram:0007a34a    00              ??          00h                                     
ram:0007a34b    00              ??          00h                                     
ram:0007a34c    00              ??          00h                                     
ram:0007a34d    00              ??          00h                                     
ram:0007a34e    00              ??          00h                                     
ram:0007a34f    00              ??          00h                                     
ram:0007a350    00              ??          00h                                     
ram:0007a351    00              ??          00h                                     
ram:0007a352    00              ??          00h                                     
ram:0007a353    00              ??          00h                                     
ram:0007a354    00              ??          00h                                     
ram:0007a355    00              ??          00h                                     
ram:0007a356    00              ??          00h                                     
ram:0007a357    00              ??          00h                                     
ram:0007a358    00              ??          00h                                     
ram:0007a359    00              ??          00h                                     
ram:0007a35a    00              ??          00h                                     
ram:0007a35b    00              ??          00h                                     
ram:0007a35c    00              ??          00h                                     
ram:0007a35d    00              ??          00h                                     
ram:0007a35e    00              ??          00h                                     
ram:0007a35f    00              ??          00h                                     
ram:0007a360    00              ??          00h                                     
ram:0007a361    00              ??          00h                                     
ram:0007a362    00              ??          00h                                     
ram:0007a363    00              ??          00h                                     
ram:0007a364    00              ??          00h                                     
ram:0007a365    00              ??          00h                                     
ram:0007a366    00              ??          00h                                     
ram:0007a367    00              ??          00h                                     
ram:0007a368    00              ??          00h                                     
ram:0007a369    00              ??          00h                                     
ram:0007a36a    00              ??          00h                                     
ram:0007a36b    00              ??          00h                                     
ram:0007a36c    00              ??          00h                                     
ram:0007a36d    00              ??          00h                                     
ram:0007a36e    00              ??          00h                                     
ram:0007a36f    00              ??          00h                                     
ram:0007a370    00              ??          00h                                     
ram:0007a371    00              ??          00h                                     
ram:0007a372    00              ??          00h                                     
ram:0007a373    00              ??          00h                                     
ram:0007a374    00              ??          00h                                     
ram:0007a375    00              ??          00h                                     
ram:0007a376    00              ??          00h                                     
ram:0007a377    00              ??          00h                                     
ram:0007a378    00              ??          00h                                     
ram:0007a379    00              ??          00h                                     
ram:0007a37a    00              ??          00h                                     
ram:0007a37b    00              ??          00h                                     
ram:0007a37c    00              ??          00h                                     
ram:0007a37d    00              ??          00h                                     
ram:0007a37e    00              ??          00h                                     
ram:0007a37f    00              ??          00h                                     
ram:0007a380    00              ??          00h                                     
ram:0007a381    00              ??          00h                                     
ram:0007a382    00              ??          00h                                     
ram:0007a383    00              ??          00h                                     
ram:0007a384    00              ??          00h                                     
ram:0007a385    00              ??          00h                                     
ram:0007a386    00              ??          00h                                     
ram:0007a387    00              ??          00h                                     
ram:0007a388    00              ??          00h                                     
ram:0007a389    00              ??          00h                                     
ram:0007a38a    00              ??          00h                                     
ram:0007a38b    00              ??          00h                                     
ram:0007a38c    00              ??          00h                                     
ram:0007a38d    00              ??          00h                                     
ram:0007a38e    00              ??          00h                                     
ram:0007a38f    00              ??          00h                                     
ram:0007a390    00              ??          00h                                     
ram:0007a391    00              ??          00h                                     
ram:0007a392    00              ??          00h                                     
ram:0007a393    00              ??          00h                                     
ram:0007a394    00              ??          00h                                     
ram:0007a395    00              ??          00h                                     
ram:0007a396    00              ??          00h                                     
ram:0007a397    00              ??          00h                                     
ram:0007a398    00              ??          00h                                     
ram:0007a399    00              ??          00h                                     
ram:0007a39a    00              ??          00h                                     
ram:0007a39b    00              ??          00h                                     
ram:0007a39c    00              ??          00h                                     
ram:0007a39d    00              ??          00h                                     
ram:0007a39e    00              ??          00h                                     
ram:0007a39f    00              ??          00h                                     
ram:0007a3a0    00              ??          00h                                     
ram:0007a3a1    00              ??          00h                                     
ram:0007a3a2    00              ??          00h                                     
ram:0007a3a3    00              ??          00h                                     
ram:0007a3a4    00              ??          00h                                     
ram:0007a3a5    00              ??          00h                                     
ram:0007a3a6    00              ??          00h                                     
ram:0007a3a7    00              ??          00h                                     
ram:0007a3a8    00              ??          00h                                     
ram:0007a3a9    00              ??          00h                                     
ram:0007a3aa    00              ??          00h                                     
ram:0007a3ab    00              ??          00h                                     
ram:0007a3ac    00              ??          00h                                     
ram:0007a3ad    00              ??          00h                                     
ram:0007a3ae    00              ??          00h                                     
ram:0007a3af    00              ??          00h                                     
ram:0007a3b0    00              ??          00h                                     
ram:0007a3b1    00              ??          00h                                     
ram:0007a3b2    00              ??          00h                                     
ram:0007a3b3    00              ??          00h                                     
ram:0007a3b4    00              ??          00h                                     
ram:0007a3b5    00              ??          00h                                     
ram:0007a3b6    00              ??          00h                                     
ram:0007a3b7    00              ??          00h                                     
ram:0007a3b8    00              ??          00h                                     
ram:0007a3b9    00              ??          00h                                     
ram:0007a3ba    00              ??          00h                                     
ram:0007a3bb    00              ??          00h                                     
ram:0007a3bc    00              ??          00h                                     
ram:0007a3bd    00              ??          00h                                     
ram:0007a3be    00              ??          00h                                     
ram:0007a3bf    00              ??          00h                                     
ram:0007a3c0    00              ??          00h                                     
ram:0007a3c1    00              ??          00h                                     
ram:0007a3c2    00              ??          00h                                     
ram:0007a3c3    00              ??          00h                                     
ram:0007a3c4    00              ??          00h                                     
ram:0007a3c5    00              ??          00h                                     
ram:0007a3c6    00              ??          00h                                     
ram:0007a3c7    00              ??          00h                                     
ram:0007a3c8    00              ??          00h                                     
ram:0007a3c9    00              ??          00h                                     
ram:0007a3ca    00              ??          00h                                     
ram:0007a3cb    00              ??          00h                                     
ram:0007a3cc    00              ??          00h                                     
ram:0007a3cd    00              ??          00h                                     
ram:0007a3ce    00              ??          00h                                     
ram:0007a3cf    00              ??          00h                                     
ram:0007a3d0    00              ??          00h                                     
ram:0007a3d1    00              ??          00h                                     
ram:0007a3d2    00              ??          00h                                     
ram:0007a3d3    00              ??          00h                                     
ram:0007a3d4    00              ??          00h                                     
ram:0007a3d5    00              ??          00h                                     
ram:0007a3d6    00              ??          00h                                     
ram:0007a3d7    00              ??          00h                                     
ram:0007a3d8    00              ??          00h                                     
ram:0007a3d9    00              ??          00h                                     
ram:0007a3da    00              ??          00h                                     
ram:0007a3db    00              ??          00h                                     
ram:0007a3dc    00              ??          00h                                     
ram:0007a3dd    00              ??          00h                                     
ram:0007a3de    00              ??          00h                                     
ram:0007a3df    00              ??          00h                                     
ram:0007a3e0    00              ??          00h                                     
ram:0007a3e1    00              ??          00h                                     
ram:0007a3e2    00              ??          00h                                     
ram:0007a3e3    00              ??          00h                                     
ram:0007a3e4    00              ??          00h                                     
ram:0007a3e5    00              ??          00h                                     
ram:0007a3e6    00              ??          00h                                     
ram:0007a3e7    00              ??          00h                                     
ram:0007a3e8    00              ??          00h                                     
ram:0007a3e9    00              ??          00h                                     
ram:0007a3ea    00              ??          00h                                     
ram:0007a3eb    00              ??          00h                                     
ram:0007a3ec    00              ??          00h                                     
ram:0007a3ed    00              ??          00h                                     
ram:0007a3ee    00              ??          00h                                     
ram:0007a3ef    00              ??          00h                                     
ram:0007a3f0    00              ??          00h                                     
ram:0007a3f1    00              ??          00h                                     
ram:0007a3f2    00              ??          00h                                     
ram:0007a3f3    00              ??          00h                                     
ram:0007a3f4    00              ??          00h                                     
ram:0007a3f5    00              ??          00h                                     
ram:0007a3f6    00              ??          00h                                     
ram:0007a3f7    00              ??          00h                                     
ram:0007a3f8    00              ??          00h                                     
ram:0007a3f9    00              ??          00h                                     
ram:0007a3fa    00              ??          00h                                     
ram:0007a3fb    00              ??          00h                                     
ram:0007a3fc    00              ??          00h                                     
ram:0007a3fd    00              ??          00h                                     
ram:0007a3fe    00              ??          00h                                     
ram:0007a3ff    00              ??          00h                                     
                            ;************************************************************************************************
                            ;*                                           FUNCTION                                           *
                            ;************************************************************************************************
                            ;undefined LAB_0007a400+1(void)
                                                          ;XREF[1,1]:   0007a55e,0007a578
ram:0007a400    dff80cd0        ldr.w       sp,[DAT_0007a410]                       ;= 20005438h
ram:0007a404    00f0ecf8        bl          FUN_0007a5e0                            ;undefined FUN_0007a5e0(void)
                            ;************************************************************************************************
                            ;*                                           FUNCTION                                           *
                            ;************************************************************************************************
                            ;undefined thunk_FUN_0007cb58(void)
                                                          ;XREF[1,0]:   0007a5f8
ram:0007a408    0048            ldr         r0,[DAT_0007a40c]                       ;= 0007CB59h
ram:0007a40a    0047            bx          r0=>FUN_0007cb58                        ;undefined FUN_0007cb58(void)
                            DAT_0007a40c:                 ;XREF[1,0]:   0007a408
ram:0007a40c    59cb0700        undefined4  0007CB59h                               ;?  ->  0007cb59
                            DAT_0007a410:                 ;XREF[1,0]:   0007a400
ram:0007a410    38540020        undefined4  20005438h                               
                            ;************************************************************************************************
                            ;*                                           FUNCTION                                           *
                            ;************************************************************************************************
                            ;undefined FUNC_SVCall_0007a414(void)
                                                          ;XREF[0,1]:   0007a02c
ram:0007a414    6ff00200        mvn         r0,#0x2                                 
ram:0007a418    7045            cmp         r0,lr                                   
ram:0007a41a    02d1            bne         LAB_0007a422                            
ram:0007a41c    eff30981        mrs         r1,psp                                  
ram:0007a420    01e0            b           LAB_0007a426                            
                            LAB_0007a422:                 ;XREF[1,0]:   0007a41a
ram:0007a422    eff30881        mrs         r1,msp                                  
                            LAB_0007a426:                 ;XREF[1,0]:   0007a420
ram:0007a426    8869            ldr         r0,[r1,#0x18]                           
ram:0007a428    0238            subs        r0,#0x2                                 
ram:0007a42a    0078            ldrb        r0,[r0,#0x0]                            
ram:0007a42c    004a            ldr         r2,[DAT_0007a430]                       ;= 0007A605h
ram:0007a42e    1047            bx          r2=>LAB_0007a604                        
                            DAT_0007a430:                 ;XREF[1,0]:   0007a42c
ram:0007a430    05a60700        undefined4  0007A605h                               ;?  ->  0007a605
                            ;************************************************************************************************
                            ;*                                           FUNCTION                                           *
                            ;************************************************************************************************
                            ;undefined FUN_0007a434(int param_1)
          ;param_1       int                 r0                      
                                                          ;XREF[2,0]:   0007a4a6,0007cd7a
ram:0007a434    401e            subs        param_1,param_1,#0x1                    
ram:0007a436    00bf            nop                                                  
ram:0007a438    00bf            nop                                                  
ram:0007a43a    00bf            nop                                                  
ram:0007a43c    00bf            nop                                                  
ram:0007a43e    00bf            nop                                                  
ram:0007a440    00bf            nop                                                  
ram:0007a442    00bf            nop                                                  
ram:0007a444    00bf            nop                                                  
ram:0007a446    00bf            nop                                                  
ram:0007a448    00bf            nop                                                  
ram:0007a44a    00bf            nop                                                  
ram:0007a44c    00bf            nop                                                  
ram:0007a44e    00bf            nop                                                  
ram:0007a450    00bf            nop                                                  
ram:0007a452    00bf            nop                                                  
ram:0007a454    00bf            nop                                                  
ram:0007a456    00bf            nop                                                  
ram:0007a458    00bf            nop                                                  
ram:0007a45a    00bf            nop                                                  
ram:0007a45c    00bf            nop                                                  
ram:0007a45e    00bf            nop                                                  
ram:0007a460    00bf            nop                                                  
ram:0007a462    00bf            nop                                                  
ram:0007a464    00bf            nop                                                  
ram:0007a466    00bf            nop                                                  
ram:0007a468    00bf            nop                                                  
ram:0007a46a    00bf            nop                                                  
ram:0007a46c    00bf            nop                                                  
ram:0007a46e    00bf            nop                                                  
ram:0007a470    00bf            nop                                                  
ram:0007a472    00bf            nop                                                  
ram:0007a474    00bf            nop                                                  
ram:0007a476    00bf            nop                                                  
ram:0007a478    00bf            nop                                                  
ram:0007a47a    00bf            nop                                                  
ram:0007a47c    00bf            nop                                                  
ram:0007a47e    00bf            nop                                                  
ram:0007a480    00bf            nop                                                  
ram:0007a482    00bf            nop                                                  
ram:0007a484    00bf            nop                                                  
ram:0007a486    00bf            nop                                                  
ram:0007a488    00bf            nop                                                  
ram:0007a48a    00bf            nop                                                  
ram:0007a48c    00bf            nop                                                  
ram:0007a48e    00bf            nop                                                  
ram:0007a490    00bf            nop                                                  
ram:0007a492    00bf            nop                                                  
ram:0007a494    00bf            nop                                                  
ram:0007a496    00bf            nop                                                  
ram:0007a498    00bf            nop                                                  
ram:0007a49a    00bf            nop                                                  
ram:0007a49c    00bf            nop                                                  
ram:0007a49e    00bf            nop                                                  
ram:0007a4a0    00bf            nop                                                  
ram:0007a4a2    00bf            nop                                                  
ram:0007a4a4    00bf            nop                                                  
ram:0007a4a6    c5d1            bne         FUN_0007a434                            
ram:0007a4a8    7047            bx          lr                                      
ram:0007a4aa    0000            movs        r0,r0                                   
                            ;************************************************************************************************
                            ;*                                           FUNCTION                                           *
                            ;************************************************************************************************
                            ;undefined FUN_0007a4ac(undefined4 * param_1)
          ;param_1       undefined4 *        r0                      
                                                          ;XREF[1,0]:   0007b914
ram:0007a4ac    0568            ldr         r5,[param_1,#0x0]                       
ram:0007a4ae    85f30888        msr         msp,r5                                  
ram:0007a4b2    4068            ldr         param_1,[param_1,#0x4]                  
ram:0007a4b4    ff24            movs        r4,#0xff                                
ram:0007a4b6    64b2            sxtb        r4,r4                                   
ram:0007a4b8    eff30585        mrs         r5,ipsr                                 
ram:0007a4bc    002d            cmp         r5,#0x0                                 
ram:0007a4be    01d1            bne         LAB_0007a4c4                            
ram:0007a4c0    a646            mov         lr,r4                                   
ram:0007a4c2    0047            bx          param_1                                 
                            LAB_0007a4c4:                 ;XREF[1,0]:   0007a4be
ram:0007a4c4    2546            mov         r5,r4                                   
ram:0007a4c6    0646            mov         r6,param_1                              
ram:0007a4c8    2127            movs        r7,#0x21                                
ram:0007a4ca    3fba            rev         r7,r7                                   
ram:0007a4cc    f0b4            push        {r4,r5,r6,r7}                           
ram:0007a4ce    0024            movs        r4,#0x0                                 
ram:0007a4d0    0025            movs        r5,#0x0                                 
ram:0007a4d2    0026            movs        r6,#0x0                                 
ram:0007a4d4    0027            movs        r7,#0x0                                 
ram:0007a4d6    f0b4            push        {r4,r5,r6,r7}                           
ram:0007a4d8    f920            movs        param_1,#0xf9                           
ram:0007a4da    40b2            sxtb        param_1,param_1                         
ram:0007a4dc    0047            bx          param_1=>LAB_fffffff8                   
ram:0007a4de    0000            movs        r0,r0                                   
                            ;************************************************************************************************
                            ;*                                           FUNCTION                                           *
                            ;************************************************************************************************
                            ;undefined FUN_0007a4e0(int param_1)
          ;param_1       int                 r0                      
                                                          ;XREF[5,0]:   0007a552,0007ba4e,0007ba86,0007d2dc
                                                          ;             0007d2e8
ram:0007a4e0    401e            subs        param_1,param_1,#0x1                    
ram:0007a4e2    00bf            nop                                                  
ram:0007a4e4    00bf            nop                                                  
ram:0007a4e6    00bf            nop                                                  
ram:0007a4e8    00bf            nop                                                  
ram:0007a4ea    00bf            nop                                                  
ram:0007a4ec    00bf            nop                                                  
ram:0007a4ee    00bf            nop                                                  
ram:0007a4f0    00bf            nop                                                  
ram:0007a4f2    00bf            nop                                                  
ram:0007a4f4    00bf            nop                                                  
ram:0007a4f6    00bf            nop                                                  
ram:0007a4f8    00bf            nop                                                  
ram:0007a4fa    00bf            nop                                                  
ram:0007a4fc    00bf            nop                                                  
ram:0007a4fe    00bf            nop                                                  
ram:0007a500    00bf            nop                                                  
ram:0007a502    00bf            nop                                                  
ram:0007a504    00bf            nop                                                  
ram:0007a506    00bf            nop                                                  
                            LAB_0007a508:                 ;XREF[1,0]:   0007a5fc
ram:0007a508    00bf            nop                                                  
ram:0007a50a    00bf            nop                                                  
ram:0007a50c    00bf            nop                                                  
ram:0007a50e    00bf            nop                                                  
ram:0007a510    00bf            nop                                                  
ram:0007a512    00bf            nop                                                  
ram:0007a514    00bf            nop                                                  
ram:0007a516    00bf            nop                                                  
ram:0007a518    00bf            nop                                                  
ram:0007a51a    00bf            nop                                                  
ram:0007a51c    00bf            nop                                                  
ram:0007a51e    00bf            nop                                                  
ram:0007a520    00bf            nop                                                  
ram:0007a522    00bf            nop                                                  
ram:0007a524    00bf            nop                                                  
ram:0007a526    00bf            nop                                                  
ram:0007a528    00bf            nop                                                  
ram:0007a52a    00bf            nop                                                  
ram:0007a52c    00bf            nop                                                  
ram:0007a52e    00bf            nop                                                  
ram:0007a530    00bf            nop                                                  
ram:0007a532    00bf            nop                                                  
ram:0007a534    00bf            nop                                                  
ram:0007a536    00bf            nop                                                  
ram:0007a538    00bf            nop                                                  
ram:0007a53a    00bf            nop                                                  
ram:0007a53c    00bf            nop                                                  
ram:0007a53e    00bf            nop                                                  
ram:0007a540    00bf            nop                                                  
ram:0007a542    00bf            nop                                                  
ram:0007a544    00bf            nop                                                  
ram:0007a546    00bf            nop                                                  
ram:0007a548    00bf            nop                                                  
ram:0007a54a    00bf            nop                                                  
                            LAB_0007a54c:                 ;XREF[1,0]:   0007a600
ram:0007a54c    00bf            nop                                                  
ram:0007a54e    00bf            nop                                                  
ram:0007a550    00bf            nop                                                  
ram:0007a552    c5d1            bne         FUN_0007a4e0                            
ram:0007a554    7047            bx          lr                                      
ram:0007a556    0000            movs        r0,r0                                   
                            ;************************************************************************************************
                            ;*                                           FUNCTION                                           *
                            ;************************************************************************************************
                            ;undefined FUNC_Reset_0007a558(void)
                                                          ;XREF[0,1]:   0007a004
ram:0007a558    0648            ldr         r0,[PTR_FUN_0007a774+1_0007a574]        ;= 0007a775
ram:0007a55a    8047            blx         r0=>FUN_0007a774                        ;undefined FUN_0007a774(void)
ram:0007a55c    0648            ldr         r0,[PTR_LAB_0007a400+1+1_0007a578]      ;= 0007a401
ram:0007a55e    0047            bx          r0=>LAB_0007a400+1                      ;undefined LAB_0007a400+1(void)
                            ;************************************************************************************************
                            ;*                                           FUNCTION                                           *
                            ;************************************************************************************************
                            ;undefined FUNC_NMI_0007a560(void)
                                                          ;XREF[1,1]:   0007a560,0007a008
ram:0007a560    fee7            b           FUNC_NMI_0007a560                       
                            ;************************************************************************************************
                            ;*                                           FUNCTION                                           *
                            ;************************************************************************************************
                            ;undefined FUNC_HardFault_0007a562(void)
                                                          ;XREF[1,1]:   0007a562,0007a00c
ram:0007a562    fee7            b           FUNC_HardFault_0007a562                 
                            ;************************************************************************************************
                            ;*                                           FUNCTION                                           *
                            ;************************************************************************************************
                            ;undefined FUNC_MemManage_0007a564(void)
                                                          ;XREF[1,1]:   0007a564,0007a010
ram:0007a564    fee7            b           FUNC_MemManage_0007a564                 
                            ;************************************************************************************************
                            ;*                                           FUNCTION                                           *
                            ;************************************************************************************************
                            ;undefined FUNC_BusFault_0007a566(void)
                                                          ;XREF[1,1]:   0007a566,0007a014
ram:0007a566    fee7            b           FUNC_BusFault_0007a566                  
                            ;************************************************************************************************
                            ;*                                           FUNCTION                                           *
                            ;************************************************************************************************
                            ;undefined FUNC_UsageFault_0007a568(void)
                                                          ;XREF[1,1]:   0007a568,0007a018
ram:0007a568    fee7            b           FUNC_UsageFault_0007a568                
                            ;************************************************************************************************
                            ;*                                           FUNCTION                                           *
                            ;************************************************************************************************
                            ;undefined FUN_0007a56a(void)
                                                          ;XREF[1,0]:   0007a56a
ram:0007a56a    fee7            b           FUN_0007a56a                            
                            ;************************************************************************************************
                            ;*                                           FUNCTION                                           *
                            ;************************************************************************************************
                            ;undefined FUNC_VT_0007a56c(void)
                                                          ;XREF[1,1]:   0007a56c,0007a030
ram:0007a56c    fee7            b           FUNC_VT_0007a56c                        
                            ;************************************************************************************************
                            ;*                                           FUNCTION                                           *
                            ;************************************************************************************************
                            ;undefined FUNC_PendSV_0007a56e(void)
                                                          ;XREF[1,1]:   0007a56e,0007a038
ram:0007a56e    fee7            b           FUNC_PendSV_0007a56e                    
                            ;************************************************************************************************
                            ;*                                           FUNCTION                                           *
                            ;************************************************************************************************
                            ;undefined FUNC_SysTick_0007a570(void)
                                                          ;XREF[1,1]:   0007a570,0007a03c
ram:0007a570    fee7            b           FUNC_SysTick_0007a570                   
                            ;************************************************************************************************
                            ;*                                           FUNCTION                                           *
                            ;************************************************************************************************
                            ;undefined FUNC_IRQ_0007a572(void)
                                                          ;XREF[1,34]:  0007a572,0007a040,0007a044,0007a048
                                                          ;             0007a04c,0007a050,0007a054,0007a058
                                                          ;             0007a05c,0007a060,0007a064,0007a068
                                                          ;             0007a06c,0007a070,0007a074,0007a078
                                                          ;             0007a07c,0007a080,0007a088,0007a08c
                                                          ;             0007a094,0007a09c,0007a0a0,0007a0a4
                                                          ;             0007a0a8,0007a0ac,0007a0b0,0007a0b4
                                                          ;             0007a0c0,0007a0c4,0007a0c8,0007a0cc
                                                          ;             0007a0d0,0007a0d4,0007a0d8
ram:0007a572    fee7            b           FUNC_IRQ_0007a572                       
                            PTR_FUN_0007a774+1_0007a574:  ;XREF[1,0]:   0007a558
ram:0007a574    75a70700        addr        FUN_0007a774+1                          
                            PTR_LAB_0007a400+1+1_0007a578:;XREF[1,0]:   0007a55c
ram:0007a578    01a40700        addr        LAB_0007a400+1+1                        
                            ;************************************************************************************************
                            ;*                                           FUNCTION                                           *
                            ;************************************************************************************************
                            ;undefined FUN_0007a57c(undefined4 * param_1, undefined4 * param_2, uint param_3)
          ;param_1       undefined4 *        r0                      
          ;param_2       undefined4 *        r1                      
          ;param_3       uint                r2                      
                                                          ;XREF[14,0]:  0007a640,0007ad4e,0007aefc,0007b212
                                                          ;             0007b746,0007bd5c,0007bdde,0007c0ce
                                                          ;             0007c12c,0007ccbc,0007ceb2,0007cebc
                                                          ;             0007cef8,0007d472
ram:0007a57c    40ea0103        orr.w       r3,param_1,param_2                      
ram:0007a580    9b07            lsls        r3,r3,#0x1e                             
ram:0007a582    03d0            beq         LAB_0007a58c                            
ram:0007a584    09e0            b           LAB_0007a59a                            
                            LAB_0007a586:                 ;XREF[1,0]:   0007a58e
ram:0007a586    08c9            ldmia       param_2!,{r3}                           
ram:0007a588    121f            subs        param_3,param_3,#0x4                    
ram:0007a58a    08c0            stmia       param_1!,{r3}                           
                            LAB_0007a58c:                 ;XREF[1,0]:   0007a582
ram:0007a58c    042a            cmp         param_3,#0x4                            
ram:0007a58e    fad2            bcs         LAB_0007a586                            
ram:0007a590    03e0            b           LAB_0007a59a                            
                            LAB_0007a592:                 ;XREF[1,0]:   0007a59c
ram:0007a592    11f8013b        ldrb.w      r3,[param_2],#0x1                       
ram:0007a596    00f8013b        strb.w      r3,[param_1],#0x1                       
                            LAB_0007a59a:                 ;XREF[2,0]:   0007a584,0007a590
ram:0007a59a    521e            subs        param_3,param_3,#0x1                    
ram:0007a59c    f9d2            bcs         LAB_0007a592                            
ram:0007a59e    7047            bx          lr                                      
                            ;************************************************************************************************
                            ;*                                           FUNCTION                                           *
                            ;************************************************************************************************
                            ;undefined FUN_0007a5a0(undefined * param_1, int param_2, undefined param_3)
          ;param_1       undefined *         r0                      
          ;param_2       int                 r1                      
          ;param_3       undefined           r2                      
                                                          ;XREF[2,0]:   0007a5b0,0007a5bc
ram:0007a5a0    d2b2            uxtb        param_3,param_3                         
ram:0007a5a2    01e0            b           LAB_0007a5a8                            
                            LAB_0007a5a4:                 ;XREF[1,0]:   0007a5aa
ram:0007a5a4    00f8012b        strb.w      param_3,[param_1],#0x1                  
                            LAB_0007a5a8:                 ;XREF[1,0]:   0007a5a2
ram:0007a5a8    491e            subs        param_2,param_2,#0x1                    
ram:0007a5aa    fbd2            bcs         LAB_0007a5a4                            
ram:0007a5ac    7047            bx          lr                                      
                            ;************************************************************************************************
                            ;*                                           FUNCTION                                           *
                            ;************************************************************************************************
                            ;undefined FUN_0007a5ae(undefined * param_1, int param_2)
          ;param_1       undefined *         r0                      
          ;param_2       int                 r1                      
                                                          ;XREF[11,0]:  0007ac42,0007ac5e,0007bc08,0007be34
                                                          ;             0007be9a,0007c18e,0007c1f4,0007c2b0
                                                          ;             0007c316,0007c67c,0007d4cc
ram:0007a5ae    0022            movs        r2,#0x0                                 
ram:0007a5b0    f6e7            b           FUN_0007a5a0                            ;undefined FUN_0007a5a0(undefined * p...
                            ;************************************************************************************************
                            ;*                                           FUNCTION                                           *
                            ;************************************************************************************************
                            ;undefined * FUN_0007a5b2(undefined * param_1, undefined param_2, int param_3)
          ;param_1       undefined *         r0                      
          ;param_2       undefined           r1                      
          ;param_3       int                 r2                      
ram:0007a5b2    10b5            push        {r4,lr}                                 
ram:0007a5b4    1346            mov         r3,param_3                              
ram:0007a5b6    0a46            mov         param_3,param_2                         
ram:0007a5b8    0446            mov         r4,param_1                              
ram:0007a5ba    1946            mov         param_2,r3                              
ram:0007a5bc    fff7f0ff        bl          FUN_0007a5a0                            ;undefined FUN_0007a5a0(undefined * p...
ram:0007a5c0    2046            mov         param_1,r4                              
ram:0007a5c2    10bd            pop         {r4,pc}                                 
                            ;************************************************************************************************
                            ;*                                           FUNCTION                                           *
                            ;************************************************************************************************
                            ;undefined FUN_0007a5c4(int param_1, int param_2, uint param_3)
          ;param_1       int                 r0                      
          ;param_2       int                 r1                      
          ;param_3       uint                r2                      
                                                          ;XREF[1,0]:   0007acc2
ram:0007a5c4    30b5            push        {r4,r5,lr}                              
ram:0007a5c6    0446            mov         r4,param_1                              
ram:0007a5c8    0020            movs        param_1,#0x0                            
ram:0007a5ca    0346            mov         r3,param_1                              
ram:0007a5cc    00e0            b           LAB_0007a5d0                            
                            LAB_0007a5ce:                 ;XREF[1,0]:   0007a5da
ram:0007a5ce    5b1c            adds        r3,r3,#0x1                              
                            LAB_0007a5d0:                 ;XREF[1,0]:   0007a5cc
ram:0007a5d0    9342            cmp         r3,param_3                              
ram:0007a5d2    03d2            bcs         LAB_0007a5dc                            
ram:0007a5d4    e05c            ldrb        param_1,[r4,r3]                         
ram:0007a5d6    cd5c            ldrb        r5,[param_2,r3]                         
ram:0007a5d8    401b            subs        param_1,param_1,r5                      
ram:0007a5da    f8d0            beq         LAB_0007a5ce                            
                            LAB_0007a5dc:                 ;XREF[1,0]:   0007a5d2
ram:0007a5dc    30bd            pop         {r4,r5,pc}                              
ram:0007a5de    0000            movs        r0,r0                                   
                            ;************************************************************************************************
                            ;*                                           FUNCTION                                           *
                            ;************************************************************************************************
                            ;undefined FUN_0007a5e0(void)
                                                          ;XREF[1,0]:   0007a404
ram:0007a5e0    064c            ldr         r4,[LAB_0007a5fc]                       
ram:0007a5e2    074d            ldr         r5,[LAB_0007a600]                       
ram:0007a5e4    06e0            b           LAB_0007a5f4                            
                            LAB_0007a5e6:                 ;XREF[1,0]:   0007a5f6
ram:0007a5e6    e068            ldr         r0,[r4,#0xc]=>->thunk_FUN_0007a9e8      ;= 0007a9e0
ram:0007a5e8    40f00103        orr         r3,r0,#0x1                              
                                                          ; FWD[4,0]:   0007d984,0007d988,0007d98c,0007d9a4
ram:0007a5ec    94e80700        ldm.w       r4,{r0,r1,r2}=>PTR_DAT_0007d984         ;= 0007d9a4
                                                                                    ;= 20002C00h
                                                                                    ;= 000000D8h
ram:0007a5f0    9847            blx         r3=>thunk_FUN_0007a9e8                  ;undefined thunk_FUN_0007a9e8(undefin...
ram:0007a5f2    1034            adds        r4,#0x10                                
                            LAB_0007a5f4:                 ;XREF[1,0]:   0007a5e4
ram:0007a5f4    ac42            cmp         r4,r5                                   
ram:0007a5f6    f6d3            bcc         LAB_0007a5e6                            
ram:0007a5f8    fff706ff        bl          thunk_FUN_0007cb58                      ;undefined thunk_FUN_0007cb58(void)
                            LAB_0007a5fc:                 ;XREF[3,0]:   0007a5e0,0007a60e,0007a658
ram:0007a5fc    84d9            bls         LAB_0007a508                            
ram:0007a5fe    0700            movs        r7,r0                                   
                            LAB_0007a600:                 ;XREF[1,0]:   0007a5e2
ram:0007a600    a4d9            bls         LAB_0007a54c                            
ram:0007a602    0700            movs        r7,r0                                   
                            LAB_0007a604:                 ;XREF[1,0]:   0007a42e
ram:0007a604    10b5            push        {r4,lr}=>PTR_DAT_0007d984               ;= 0007d9a4
ram:0007a606    0c46            mov         r4,r1                                   
ram:0007a608    10b1            cbz         r0,LAB_0007a610                         
ram:0007a60a    0120            movs        r0,#0x1                                 
ram:0007a60c    0860            str         r0,[r1,#0x0]                            
ram:0007a60e    10bd            pop         {r4,pc}=>LAB_0007a5fc                   
                            LAB_0007a610:                 ;XREF[1,0]:   0007a608
ram:0007a610    2168            ldr         r1,[r4,#0x0]                            
ram:0007a612    91b1            cbz         r1,LAB_0007a63a                         
ram:0007a614    1148            ldr         r0,[DAT_0007a65c]                       ;= 2000FF82h
ram:0007a616    421a            subs        r2,r0,r1                                
ram:0007a618    8142            cmp         r1,r0                                   
ram:0007a61a    13d0            beq         LAB_0007a644                            
ram:0007a61c    3c2a            cmp         r2,#0x3c                                
ram:0007a61e    0ed2            bcs         LAB_0007a63e                            
ram:0007a620    0122            movs        r2,#0x1                                 
ram:0007a622    3c30            adds        r0,#0x3c                                
ram:0007a624    11f13c01        adds.w      r1,r1,#0x3c                             
                            LAB_0007a628:                 ;XREF[1,0]:   0007a636
ram:0007a628    11f80139        ldrb.w      r3,[r1],#-0x1                           
                                                          ; FWD[2,0]:   2000ffbd,2000ffbe
ram:0007a62c    00f80139        strb.w      r3,[r0],#-0x1=>DAT_2000ffbe             
ram:0007a630    1346            mov         r3,r2                                   
ram:0007a632    521c            adds        r2,r2,#0x1                              
ram:0007a634    3c2b            cmp         r3,#0x3c                                
ram:0007a636    f7d9            bls         LAB_0007a628                            
ram:0007a638    04e0            b           LAB_0007a644                            
                            LAB_0007a63a:                 ;XREF[1,0]:   0007a612
ram:0007a63a    0e20            movs        r0,#0xe                                 
ram:0007a63c    0be0            b           LAB_0007a656                            
                            LAB_0007a63e:                 ;XREF[1,0]:   0007a61e
ram:0007a63e    3c22            movs        r2,#0x3c                                
ram:0007a640    fff79cff        bl          FUN_0007a57c                            ;undefined FUN_0007a57c(undefined4 * ...
                            LAB_0007a644:                 ;XREF[2,0]:   0007a61a,0007a638
ram:0007a644    0022            movs        r2,#0x0                                 
ram:0007a646    3c21            movs        r1,#0x3c                                
ram:0007a648    0448            ldr         r0,[DAT_0007a65c]                       ;= 2000FF82h
ram:0007a64a    01f0acfa        bl          FUN_0007bba6                            ;uint FUN_0007bba6(int param_1, uint ...
ram:0007a64e    0349            ldr         r1,[DAT_0007a65c]                       ;= 2000FF82h
ram:0007a650    891e            subs        r1,r1,#0x2                              
ram:0007a652    0880            strh        r0,[r1,#0x0]=>DAT_2000ff80              
ram:0007a654    0020            movs        r0,#0x0                                 
                            LAB_0007a656:                 ;XREF[1,0]:   0007a63c
ram:0007a656    2060            str         r0,[r4,#0x0]                            
ram:0007a658    10bd            pop         {r4,pc}=>LAB_0007a5fc                   
ram:0007a65a    0000            movs        r0,r0                                   
                            DAT_0007a65c:                 ;XREF[3,0]:   0007a614,0007a648,0007a64e
ram:0007a65c    82ff0020        undefined4  2000FF82h                               
                            ;************************************************************************************************
                            ;*                                           FUNCTION                                           *
                            ;************************************************************************************************
                            ;undefined FUN_0007a660(uint param_1)
          ;param_1       uint                r0                      
                                                          ;XREF[2,0]:   0007b012,0007ba3a
ram:0007a660    00f01f02        and         r2,param_1,#0x1f                        
ram:0007a664    0121            movs        r1,#0x1                                 
ram:0007a666    9140            lsls        r1,r2                                   
ram:0007a668    4009            lsrs        param_1,param_1,#0x5                    
ram:0007a66a    8000            lsls        param_1,param_1,#0x2                    
ram:0007a66c    00f1e020        add.w       param_1,param_1,#0xe000e000             
ram:0007a670    c0f88012        str.w       r1,[param_1,#0x280]                     
ram:0007a674    7047            bx          lr                                      
                            ;************************************************************************************************
                            ;*                                           FUNCTION                                           *
                            ;************************************************************************************************
                            ;undefined FUN_0007a676(uint param_1)
          ;param_1       uint                r0                      
                                                          ;XREF[2,0]:   0007b020,0007ba40
ram:0007a676    00f01f02        and         r2,param_1,#0x1f                        
ram:0007a67a    0121            movs        r1,#0x1                                 
ram:0007a67c    9140            lsls        r1,r2                                   
ram:0007a67e    4009            lsrs        param_1,param_1,#0x5                    
ram:0007a680    8000            lsls        param_1,param_1,#0x2                    
ram:0007a682    00f1e020        add.w       param_1,param_1,#0xe000e000             
ram:0007a686    c0f80011        str.w       r1,[param_1,#0x100]=>DAT_e000e100       
ram:0007a68a    7047            bx          lr                                      
                            ;************************************************************************************************
                            ;*                                           FUNCTION                                           *
                            ;************************************************************************************************
                            ;undefined FUN_0007a68c(uint param_1)
          ;param_1       uint                r0                      
                                                          ;XREF[4,0]:   0007b0b6,0007b110,0007ba94,0007d714
ram:0007a68c    00f01f02        and         r2,param_1,#0x1f                        
ram:0007a690    0121            movs        r1,#0x1                                 
ram:0007a692    9140            lsls        r1,r2                                   
ram:0007a694    4009            lsrs        param_1,param_1,#0x5                    
ram:0007a696    8000            lsls        param_1,param_1,#0x2                    
ram:0007a698    00f1e020        add.w       param_1,param_1,#0xe000e000             
ram:0007a69c    c0f80012        str.w       r1,[param_1,#0x200]                     
ram:0007a6a0    7047            bx          lr                                      
                            ;************************************************************************************************
                            ;*                                           FUNCTION                                           *
                            ;************************************************************************************************
                            ;undefined FUN_0007a6a2(uint param_1, int param_2)
          ;param_1       uint                r0                      
          ;param_2       int                 r1                      
                                                          ;XREF[2,0]:   0007b01a,0007b02e
ram:0007a6a2    4907            lsls        param_2,param_2,#0x1d                   
ram:0007a6a4    090e            lsrs        param_2,param_2,#0x18                   
ram:0007a6a6    0028            cmp         param_1,#0x0                            
ram:0007a6a8    06da            bge         LAB_0007a6b8                            
ram:0007a6aa    00f00f00        and         param_1,param_1,#0xf                    
ram:0007a6ae    00f1e020        add.w       param_1,param_1,#0xe000e000             
ram:0007a6b2    80f8141d        strb.w      param_2,[param_1,#0xd14]                
ram:0007a6b6    7047            bx          lr                                      
                            LAB_0007a6b8:                 ;XREF[1,0]:   0007a6a8
ram:0007a6b8    00f1e020        add.w       param_1,param_1,#0xe000e000             
ram:0007a6bc    80f80014        strb.w      param_2,[param_1,#0x400]                
ram:0007a6c0    7047            bx          lr                                      
ram:0007a6c2    0000            movs        r0,r0                                   
                            ;************************************************************************************************
                            ;*                                           FUNCTION                                           *
                            ;************************************************************************************************
                            ;undefined FUNC_VT_0007a6c4(void)
                                                          ;XREF[0,1]:   0007a084
ram:0007a6c4    0748            ldr         r0=>DAT_40011000,[DAT_0007a6e4]         ;= 40011000h
ram:0007a6c6    0021            movs        r1,#0x0                                 
ram:0007a6c8    c0f84011        str.w       r1,[r0,#0x140]=>DAT_40011140            
ram:0007a6cc    c0f84411        str.w       r1,[r0,#0x144]=>DAT_40011144            
ram:0007a6d0    c0f84811        str.w       r1,[r0,#0x148]=>DAT_40011148            
ram:0007a6d4    c0f84c11        str.w       r1,[r0,#0x14c]=>DAT_4001114c            
ram:0007a6d8    c0f80011        str.w       r1,[r0,#0x100]=>DAT_40011100            
ram:0007a6dc    c0f80411        str.w       r1,[r0,#0x104]=>DAT_40011104            
ram:0007a6e0    02f0debf        b.w         FUN_0007d6a0                            ;undefined FUN_0007d6a0(void)
                            DAT_0007a6e4:                 ;XREF[1,0]:   0007a6c4
ram:0007a6e4    00100140        undefined4  40011000h                               
                            ;************************************************************************************************
                            ;*                                           FUNCTION                                           *
                            ;************************************************************************************************
                            ;undefined thunk_FUN_0007d5d8(void)
                                                          ;XREF[0,1]:   0007a090
ram:0007a6e8    02f076bf        b.w         FUN_0007d5d8                            ;undefined FUN_0007d5d8(void)
                            ;************************************************************************************************
                            ;*                                           FUNCTION                                           *
                            ;************************************************************************************************
                            ;undefined FUNC_VT_0007a6ec(void)
                                                          ;XREF[0,1]:   0007a098
ram:0007a6ec    0748            ldr         r0,[DAT_0007a70c]                       ;= 20002CC0h
ram:0007a6ee    10b5            push        {r4,lr}                                 
ram:0007a6f0    4068            ldr         r0,[r0,#0x4]=>DAT_20002cc4              
ram:0007a6f2    30b1            cbz         r0,LAB_0007a702                         
ram:0007a6f4    8047            blx         r0                                      
ram:0007a6f6    0028            cmp         r0,#0x0                                 
ram:0007a6f8    07d0            beq         LAB_0007a70a                            
ram:0007a6fa    bde81040        pop.w       {r4,lr}                                 
ram:0007a6fe    00f081bb        b.w         FUN_0007ae04                            ;undefined FUN_0007ae04(void)
                            LAB_0007a702:                 ;XREF[1,0]:   0007a6f2
ram:0007a702    bde81040        pop.w       {r4,lr}                                 
ram:0007a706    02f0e7b8        b.w         FUN_0007c8d8                            
                            LAB_0007a70a:                 ;XREF[1,0]:   0007a6f8
ram:0007a70a    10bd            pop         {r4,pc}                                 
                            DAT_0007a70c:                 ;XREF[1,0]:   0007a6ec
ram:0007a70c    c02c0020        undefined4  20002CC0h                               
                            ;************************************************************************************************
                            ;*                                           FUNCTION                                           *
                            ;************************************************************************************************
                            ;undefined FUN_0007a710(void)
                                                          ;XREF[1,0]:   0007cc10
ram:0007a710    1649            ldr         r1=>DAT_20003040,[DAT_0007a76c]         ;= 20003040h
ram:0007a712    00b5            push        {lr}                                    
ram:0007a714    4420            movs        r0,#0x44                                
ram:0007a716    0870            strb        r0,[r1,#0x0]=>DAT_20003040              
ram:0007a718    4620            movs        r0,#0x46                                
ram:0007a71a    4870            strb        r0,[r1,#0x1]=>DAT_20003041              
ram:0007a71c    5520            movs        r0,#0x55                                
ram:0007a71e    8870            strb        r0,[r1,#0x2]=>DAT_20003042              
ram:0007a720    134a            ldr         r2,[DAT_0007a770]                       ;= 20002C00h
ram:0007a722    2d20            movs        r0,#0x2d                                
ram:0007a724    c870            strb        r0,[r1,#0x3]=>DAT_20003043              
ram:0007a726    d078            ldrb        r0,[r2,#offset DAT_20002c03 &0xff]      
ram:0007a728    0009            lsrs        r0,r0,#0x4                              
ram:0007a72a    01f035fa        bl          FUN_0007bb98                            ;char FUN_0007bb98(uint param_1)
ram:0007a72e    0871            strb        r0,[r1,#0x4]=>DAT_20003044              
ram:0007a730    d078            ldrb        r0,[r2,#offset DAT_20002c03 &0xff]      
ram:0007a732    00f00f00        and         r0,r0,#0xf                              
ram:0007a736    01f02ffa        bl          FUN_0007bb98                            ;char FUN_0007bb98(uint param_1)
ram:0007a73a    4871            strb        r0,[r1,#0x5]=>DAT_20003045              
ram:0007a73c    9078            ldrb        r0,[r2,#offset DAT_20002c02 &0xff]      
ram:0007a73e    0009            lsrs        r0,r0,#0x4                              
ram:0007a740    01f02afa        bl          FUN_0007bb98                            ;char FUN_0007bb98(uint param_1)
ram:0007a744    8871            strb        r0,[r1,#0x6]=>DAT_20003046              
ram:0007a746    9078            ldrb        r0,[r2,#offset DAT_20002c02 &0xff]      
ram:0007a748    00f00f00        and         r0,r0,#0xf                              
ram:0007a74c    01f024fa        bl          FUN_0007bb98                            ;char FUN_0007bb98(uint param_1)
ram:0007a750    c871            strb        r0,[r1,#0x7]=>DAT_20003047              
ram:0007a752    5078            ldrb        r0,[r2,#offset DAT_20002c01 &0xff]      
ram:0007a754    0009            lsrs        r0,r0,#0x4                              
ram:0007a756    01f01ffa        bl          FUN_0007bb98                            ;char FUN_0007bb98(uint param_1)
ram:0007a75a    0872            strb        r0,[r1,#0x8]=>DAT_20003048              
ram:0007a75c    5078            ldrb        r0,[r2,#offset DAT_20002c01 &0xff]      
ram:0007a75e    00f00f00        and         r0,r0,#0xf                              
ram:0007a762    01f019fa        bl          FUN_0007bb98                            ;char FUN_0007bb98(uint param_1)
ram:0007a766    4872            strb        r0,[r1,#0x9]=>DAT_20003049              
ram:0007a768    00bd            pop         {pc}                                    
ram:0007a76a    0000            movs        r0,r0                                   
                            DAT_0007a76c:                 ;XREF[1,0]:   0007a710
ram:0007a76c    40300020        undefined4  20003040h                               
                            DAT_0007a770:                 ;XREF[1,0]:   0007a720
ram:0007a770    002c0020        undefined4  20002C00h                               
                            ;************************************************************************************************
                            ;*                                           FUNCTION                                           *
                            ;************************************************************************************************
                            ;undefined FUN_0007a774(void)
                                                          ;XREF[1,1]:   0007a55a,0007a574
ram:0007a774    70b5            push        {r4,r5,r6,lr}                           
ram:0007a776    8d48            ldr         r0,[DAT_0007a9ac]                       ;= F0000FE0h
ram:0007a778    0023            movs        r3,#0x0                                 
ram:0007a77a    021d            adds        r2,r0,#0x4                              
ram:0007a77c    0178            ldrb        r1,[r0,#0x0]=>DAT_f0000fe0              
ram:0007a77e    101d            adds        r0,r2,#0x4                              
ram:0007a780    0124            movs        r4,#0x1                                 
ram:0007a782    0629            cmp         r1,#0x6                                 
ram:0007a784    07d1            bne         LAB_0007a796                            
ram:0007a786    1578            ldrb        r5,[r2,#0x0]=>DAT_f0000fe4              
ram:0007a788    2d07            lsls        r5,r5,#0x1c                             
ram:0007a78a    04d1            bne         LAB_0007a796                            
ram:0007a78c    0578            ldrb        r5,[r0,#0x0]=>DAT_f0000fe8              
ram:0007a78e    c5f30315        ubfx        r5,r5,#0x4,#0x4                         
ram:0007a792    032d            cmp         r5,#0x3                                 
ram:0007a794    02d0            beq         LAB_0007a79c                            
                            LAB_0007a796:                 ;XREF[2,0]:   0007a784,0007a78a
ram:0007a796    0629            cmp         r1,#0x6                                 
ram:0007a798    04d0            beq         LAB_0007a7a4                            
ram:0007a79a    0fe0            b           LAB_0007a7bc                            
                            LAB_0007a79c:                 ;XREF[1,0]:   0007a794
ram:0007a79c    854e            ldr         r6,[DAT_0007a9b4]                       ;= 4007C000h
ram:0007a79e    844d            ldr         r5,[DAT_0007a9b0]                       ;= BAADF00Dh
ram:0007a7a0    7567            str         r5,[r6,#offset DAT_4007c074 &0xff]      
ram:0007a7a2    0ee0            b           LAB_0007a7c2                            
                            LAB_0007a7a4:                 ;XREF[1,0]:   0007a798
ram:0007a7a4    1578            ldrb        r5,[r2,#0x0]=>DAT_f0000fe4              
ram:0007a7a6    2d07            lsls        r5,r5,#0x1c                             
ram:0007a7a8    08d1            bne         LAB_0007a7bc                            
ram:0007a7aa    0578            ldrb        r5,[r0,#0x0]=>DAT_f0000fe8              
ram:0007a7ac    c5f30315        ubfx        r5,r5,#0x4,#0x4                         
ram:0007a7b0    032d            cmp         r5,#0x3                                 
ram:0007a7b2    06d0            beq         LAB_0007a7c2                            
ram:0007a7b4    042d            cmp         r5,#0x4                                 
ram:0007a7b6    04d0            beq         LAB_0007a7c2                            
ram:0007a7b8    052d            cmp         r5,#0x5                                 
ram:0007a7ba    02d0            beq         LAB_0007a7c2                            
                            LAB_0007a7bc:                 ;XREF[2,0]:   0007a79a,0007a7a8
ram:0007a7bc    0629            cmp         r1,#0x6                                 
ram:0007a7be    09d0            beq         LAB_0007a7d4                            
ram:0007a7c0    10e0            b           LAB_0007a7e4                            
                            LAB_0007a7c2:                 ;XREF[4,0]:   0007a7a2,0007a7b2,0007a7b6,0007a7ba
ram:0007a7c2    4ff08055        mov.w       r5,#0x10000000                          
ram:0007a7c6    d5f84452        ldr.w       r5,[r5,#offset DAT_10000244 &0xffff]    
ram:0007a7ca    7b4e            ldr         r6,[DAT_0007a9b8]                       ;= 4000053Ch
ram:0007a7cc    c5f34235        ubfx        r5,r5,#0xd,#0x3                         
ram:0007a7d0    3560            str         r5,[r6,#0x0]=>DAT_4000053c              
ram:0007a7d2    02e0            b           LAB_0007a7da                            
                            LAB_0007a7d4:                 ;XREF[1,0]:   0007a7be
ram:0007a7d4    1578            ldrb        r5,[r2,#0x0]=>DAT_f0000fe4              
ram:0007a7d6    2d07            lsls        r5,r5,#0x1c                             
ram:0007a7d8    04d1            bne         LAB_0007a7e4                            
                            LAB_0007a7da:                 ;XREF[1,0]:   0007a7d2
ram:0007a7da    0578            ldrb        r5,[r0,#0x0]=>DAT_f0000fe8              
ram:0007a7dc    c5f30315        ubfx        r5,r5,#0x4,#0x4                         
ram:0007a7e0    032d            cmp         r5,#0x3                                 
ram:0007a7e2    02d0            beq         LAB_0007a7ea                            
                            LAB_0007a7e4:                 ;XREF[2,0]:   0007a7c0,0007a7d8
ram:0007a7e4    0629            cmp         r1,#0x6                                 
ram:0007a7e6    06d0            beq         LAB_0007a7f6                            
ram:0007a7e8    11e0            b           LAB_0007a80e                            
                            LAB_0007a7ea:                 ;XREF[1,0]:   0007a7e2
ram:0007a7ea    744d            ldr         r5,[DAT_0007a9bc]                       ;= E000EDFCh
ram:0007a7ec    2e68            ldr         r6,[r5,#0x0]=>DAT_e000edfc              
ram:0007a7ee    26f08076        bic         r6,r6,#0x1000000                        
ram:0007a7f2    2e60            str         r6,[r5,#0x0]=>DAT_e000edfc              
ram:0007a7f4    0ee0            b           LAB_0007a814                            
                            LAB_0007a7f6:                 ;XREF[1,0]:   0007a7e6
ram:0007a7f6    1578            ldrb        r5,[r2,#0x0]=>DAT_f0000fe4              
ram:0007a7f8    2d07            lsls        r5,r5,#0x1c                             
ram:0007a7fa    08d1            bne         LAB_0007a80e                            
ram:0007a7fc    0578            ldrb        r5,[r0,#0x0]=>DAT_f0000fe8              
ram:0007a7fe    c5f30315        ubfx        r5,r5,#0x4,#0x4                         
ram:0007a802    032d            cmp         r5,#0x3                                 
ram:0007a804    06d0            beq         LAB_0007a814                            
ram:0007a806    042d            cmp         r5,#0x4                                 
ram:0007a808    04d0            beq         LAB_0007a814                            
ram:0007a80a    052d            cmp         r5,#0x5                                 
ram:0007a80c    02d0            beq         LAB_0007a814                            
                            LAB_0007a80e:                 ;XREF[2,0]:   0007a7e8,0007a7fa
ram:0007a80e    0629            cmp         r1,#0x6                                 
ram:0007a810    0ad0            beq         LAB_0007a828                            
ram:0007a812    11e0            b           LAB_0007a838                            
                            LAB_0007a814:                 ;XREF[4,0]:   0007a7f4,0007a804,0007a808,0007a80c
ram:0007a814    4ff08045        mov.w       r5,#0x40000000                          
ram:0007a818    c5f80c31        str.w       r3,[r5,#offset DAT_4000010c &0xffff]    
ram:0007a81c    c5f81031        str.w       r3,[r5,#offset DAT_40000110 &0xffff]    
ram:0007a820    654d            ldr         r5,[DAT_0007a9b8]                       ;= 4000053Ch
ram:0007a822    2d1f            subs        r5,r5,#0x4                              
ram:0007a824    2b60            str         r3,[r5,#0x0]=>DAT_40000538              
ram:0007a826    02e0            b           LAB_0007a82e                            
                            LAB_0007a828:                 ;XREF[1,0]:   0007a810
ram:0007a828    1578            ldrb        r5,[r2,#0x0]=>DAT_f0000fe4              
ram:0007a82a    2d07            lsls        r5,r5,#0x1c                             
ram:0007a82c    04d1            bne         LAB_0007a838                            
                            LAB_0007a82e:                 ;XREF[1,0]:   0007a826
ram:0007a82e    0578            ldrb        r5,[r0,#0x0]=>DAT_f0000fe8              
ram:0007a830    c5f30315        ubfx        r5,r5,#0x4,#0x4                         
ram:0007a834    032d            cmp         r5,#0x3                                 
ram:0007a836    02d0            beq         LAB_0007a83e                            
                            LAB_0007a838:                 ;XREF[2,0]:   0007a812,0007a82c
ram:0007a838    0629            cmp         r1,#0x6                                 
ram:0007a83a    05d0            beq         LAB_0007a848                            
ram:0007a83c    0ce0            b           LAB_0007a858                            
                            LAB_0007a83e:                 ;XREF[1,0]:   0007a836
ram:0007a83e    5e4a            ldr         r2,[DAT_0007a9b8]                       ;= 4000053Ch
ram:0007a840    0321            movs        r1,#0x3                                 
ram:0007a842    6432            adds        r2,#0x64                                
ram:0007a844    1160            str         r1,[r2,#0x0]=>DAT_400005a0              
ram:0007a846    0ae0            b           LAB_0007a85e                            
                            LAB_0007a848:                 ;XREF[1,0]:   0007a83a
ram:0007a848    1578            ldrb        r5,[r2,#0x0]=>DAT_f0000fe4              
ram:0007a84a    2d07            lsls        r5,r5,#0x1c                             
ram:0007a84c    04d1            bne         LAB_0007a858                            
ram:0007a84e    0578            ldrb        r5,[r0,#0x0]=>DAT_f0000fe8              
ram:0007a850    c5f30315        ubfx        r5,r5,#0x4,#0x4                         
ram:0007a854    032d            cmp         r5,#0x3                                 
ram:0007a856    02d0            beq         LAB_0007a85e                            
                            LAB_0007a858:                 ;XREF[2,0]:   0007a83c,0007a84c
ram:0007a858    0629            cmp         r1,#0x6                                 
ram:0007a85a    0dd0            beq         LAB_0007a878                            
ram:0007a85c    6ae0            b           LAB_0007a934                            
                            LAB_0007a85e:                 ;XREF[2,0]:   0007a846,0007a856
ram:0007a85e    584a            ldr         r2,[DAT_0007a9c0]                       ;= 40005610h
ram:0007a860    0521            movs        r1,#0x5                                 
ram:0007a862    1160            str         r1,[r2,#0x0]=>DAT_40005610              
ram:0007a864    5649            ldr         r1,[DAT_0007a9c0]                       ;= 40005610h
ram:0007a866    7831            adds        r1,#0x78                                
ram:0007a868    0c60            str         r4,[r1,#0x0]=>DAT_40005688              
ram:0007a86a    5549            ldr         r1,[DAT_0007a9c0]                       ;= 40005610h
ram:0007a86c    0831            adds        r1,#0x8                                 
ram:0007a86e    0b60            str         r3,[r1,#0x0]=>DAT_40005618              
ram:0007a870    3f21            movs        r1,#0x3f                                
ram:0007a872    121d            adds        r2,r2,#0x4                              
ram:0007a874    1160            str         r1,[r2,#0x0]=>DAT_40005614              
ram:0007a876    02e0            b           LAB_0007a87e                            
                            LAB_0007a878:                 ;XREF[1,0]:   0007a85a
ram:0007a878    1178            ldrb        r1,[r2,#0x0]=>DAT_f0000fe4              
ram:0007a87a    0907            lsls        r1,r1,#0x1c                             
ram:0007a87c    5ad1            bne         LAB_0007a934                            
                            LAB_0007a87e:                 ;XREF[1,0]:   0007a876
ram:0007a87e    0078            ldrb        r0,[r0,#0x0]=>DAT_f0000fe8              
ram:0007a880    c0f30310        ubfx        r0,r0,#0x4,#0x4                         
ram:0007a884    0528            cmp         r0,#0x5                                 
ram:0007a886    55d1            bne         LAB_0007a934                            
ram:0007a888    4e48            ldr         r0,[DAT_0007a9c4]                       ;= 10000404h
ram:0007a88a    0068            ldr         r0,[r0,#0x0]=>DAT_10000404              
ram:0007a88c    4e49            ldr         r1,[DAT_0007a9c8]                       ;= 4000C520h
ram:0007a88e    0860            str         r0,[r1,#0x0]=>DAT_4000c520              
ram:0007a890    4c48            ldr         r0,[DAT_0007a9c4]                       ;= 10000404h
ram:0007a892    001d            adds        r0,r0,#0x4                              
ram:0007a894    0068            ldr         r0,[r0,#0x0]=>DAT_10000408              
ram:0007a896    091d            adds        r1,r1,#0x4                              
ram:0007a898    0860            str         r0,[r1,#0x0]=>DAT_4000c524              
ram:0007a89a    4a48            ldr         r0,[DAT_0007a9c4]                       ;= 10000404h
ram:0007a89c    0830            adds        r0,#0x8                                 
ram:0007a89e    0068            ldr         r0,[r0,#0x0]=>DAT_1000040c              
ram:0007a8a0    091d            adds        r1,r1,#0x4                              
ram:0007a8a2    0860            str         r0,[r1,#0x0]=>DAT_4000c528              
ram:0007a8a4    4748            ldr         r0,[DAT_0007a9c4]                       ;= 10000404h
ram:0007a8a6    0c30            adds        r0,#0xc                                 
ram:0007a8a8    0068            ldr         r0,[r0,#0x0]=>DAT_10000410              
ram:0007a8aa    091d            adds        r1,r1,#0x4                              
ram:0007a8ac    0860            str         r0,[r1,#0x0]=>DAT_4000c52c              
ram:0007a8ae    4548            ldr         r0,[DAT_0007a9c4]                       ;= 10000404h
ram:0007a8b0    1030            adds        r0,#0x10                                
ram:0007a8b2    0068            ldr         r0,[r0,#0x0]=>DAT_10000414              
ram:0007a8b4    091d            adds        r1,r1,#0x4                              
ram:0007a8b6    0860            str         r0,[r1,#0x0]=>DAT_4000c530              
ram:0007a8b8    4248            ldr         r0,[DAT_0007a9c4]                       ;= 10000404h
ram:0007a8ba    1430            adds        r0,#0x14                                
ram:0007a8bc    0068            ldr         r0,[r0,#0x0]=>DAT_10000418              
ram:0007a8be    091d            adds        r1,r1,#0x4                              
ram:0007a8c0    0860            str         r0,[r1,#0x0]=>DAT_4000c534              
ram:0007a8c2    4048            ldr         r0,[DAT_0007a9c4]                       ;= 10000404h
ram:0007a8c4    1830            adds        r0,#0x18                                
ram:0007a8c6    0068            ldr         r0,[r0,#0x0]=>DAT_1000041c              
ram:0007a8c8    3f49            ldr         r1,[DAT_0007a9c8]                       ;= 4000C520h
ram:0007a8ca    2031            adds        r1,#0x20                                
ram:0007a8cc    0860            str         r0,[r1,#0x0]=>DAT_4000c540              
ram:0007a8ce    3d48            ldr         r0,[DAT_0007a9c4]                       ;= 10000404h
ram:0007a8d0    1c30            adds        r0,#0x1c                                
ram:0007a8d2    0068            ldr         r0,[r0,#0x0]=>DAT_10000420              
ram:0007a8d4    091d            adds        r1,r1,#0x4                              
ram:0007a8d6    0860            str         r0,[r1,#0x0]=>DAT_4000c544              
ram:0007a8d8    3a48            ldr         r0,[DAT_0007a9c4]                       ;= 10000404h
ram:0007a8da    2030            adds        r0,#0x20                                
ram:0007a8dc    0068            ldr         r0,[r0,#0x0]=>DAT_10000424              
ram:0007a8de    091d            adds        r1,r1,#0x4                              
ram:0007a8e0    0860            str         r0,[r1,#0x0]=>DAT_4000c548              
ram:0007a8e2    3848            ldr         r0,[DAT_0007a9c4]                       ;= 10000404h
ram:0007a8e4    2430            adds        r0,#0x24                                
ram:0007a8e6    0068            ldr         r0,[r0,#0x0]=>DAT_10000428              
ram:0007a8e8    091d            adds        r1,r1,#0x4                              
ram:0007a8ea    0860            str         r0,[r1,#0x0]=>DAT_4000c54c              
ram:0007a8ec    3548            ldr         r0,[DAT_0007a9c4]                       ;= 10000404h
ram:0007a8ee    2830            adds        r0,#0x28                                
ram:0007a8f0    0068            ldr         r0,[r0,#0x0]=>DAT_1000042c              
ram:0007a8f2    091d            adds        r1,r1,#0x4                              
ram:0007a8f4    0860            str         r0,[r1,#0x0]=>DAT_4000c550              
ram:0007a8f6    3348            ldr         r0,[DAT_0007a9c4]                       ;= 10000404h
ram:0007a8f8    2c30            adds        r0,#0x2c                                
ram:0007a8fa    0068            ldr         r0,[r0,#0x0]=>DAT_10000430              
ram:0007a8fc    091d            adds        r1,r1,#0x4                              
ram:0007a8fe    0860            str         r0,[r1,#0x0]=>DAT_4000c554              
ram:0007a900    3048            ldr         r0,[DAT_0007a9c4]                       ;= 10000404h
ram:0007a902    3030            adds        r0,#0x30                                
ram:0007a904    0068            ldr         r0,[r0,#0x0]=>DAT_10000434              
ram:0007a906    3049            ldr         r1,[DAT_0007a9c8]                       ;= 4000C520h
ram:0007a908    4031            adds        r1,#0x40                                
ram:0007a90a    0860            str         r0,[r1,#0x0]=>DAT_4000c560              
ram:0007a90c    2d48            ldr         r0,[DAT_0007a9c4]                       ;= 10000404h
ram:0007a90e    3430            adds        r0,#0x34                                
ram:0007a910    0068            ldr         r0,[r0,#0x0]=>DAT_10000438              
ram:0007a912    091d            adds        r1,r1,#0x4                              
ram:0007a914    0860            str         r0,[r1,#0x0]=>DAT_4000c564              
ram:0007a916    2b48            ldr         r0,[DAT_0007a9c4]                       ;= 10000404h
ram:0007a918    3830            adds        r0,#0x38                                
ram:0007a91a    0068            ldr         r0,[r0,#0x0]=>DAT_1000043c              
ram:0007a91c    091d            adds        r1,r1,#0x4                              
ram:0007a91e    0860            str         r0,[r1,#0x0]=>DAT_4000c568              
ram:0007a920    2848            ldr         r0,[DAT_0007a9c4]                       ;= 10000404h
ram:0007a922    3c30            adds        r0,#0x3c                                
ram:0007a924    0068            ldr         r0,[r0,#0x0]=>DAT_10000440              
ram:0007a926    091d            adds        r1,r1,#0x4                              
ram:0007a928    0860            str         r0,[r1,#0x0]=>DAT_4000c56c              
ram:0007a92a    2648            ldr         r0,[DAT_0007a9c4]                       ;= 10000404h
ram:0007a92c    4030            adds        r0,#0x40                                
ram:0007a92e    0068            ldr         r0,[r0,#0x0]=>DAT_10000444              
ram:0007a930    091d            adds        r1,r1,#0x4                              
ram:0007a932    0860            str         r0,[r1,#0x0]=>DAT_4000c570              
                            LAB_0007a934:                 ;XREF[3,0]:   0007a85c,0007a87c,0007a886
ram:0007a934    2148            ldr         r0,[DAT_0007a9bc]                       ;= E000EDFCh
ram:0007a936    7438            subs        r0,#0x74                                
ram:0007a938    0168            ldr         r1,[r0,#0x0]=>DAT_e000ed88              
ram:0007a93a    41f47001        orr         r1,r1,#0xf00000                         
ram:0007a93e    0160            str         r1,[r0,#0x0]=>DAT_e000ed88              
ram:0007a940    bff34f8f        dsb         0xf                                     
ram:0007a944    bff36f8f        isb         0xf                                     
ram:0007a948    4ff01021        mov.w       r1,#0x10001000                          
ram:0007a94c    d1f80002        ldr.w       r0,[r1,#0x200]=>DAT_10001200            
ram:0007a950    0028            cmp         r0,#0x0                                 
ram:0007a952    03db            blt         LAB_0007a95c                            
ram:0007a954    d1f80402        ldr.w       r0,[r1,#0x204]=>DAT_10001204            
ram:0007a958    0028            cmp         r0,#0x0                                 
ram:0007a95a    22da            bge         LAB_0007a9a2                            
                            LAB_0007a95c:                 ;XREF[1,0]:   0007a952
ram:0007a95c    1b4a            ldr         r2,[DAT_0007a9cc]                       ;= 4001E504h
ram:0007a95e    1460            str         r4,[r2,#0x0]=>DAT_4001e504              
ram:0007a960    1b48            ldr         r0,[DAT_0007a9d0]                       ;= 4001E400h
                            LAB_0007a962:                 ;XREF[1,0]:   0007a966
ram:0007a962    0468            ldr         r4,[r0,#0x0]=>DAT_4001e400              
ram:0007a964    002c            cmp         r4,#0x0                                 
ram:0007a966    fcd0            beq         LAB_0007a962                            
ram:0007a968    1524            movs        r4,#0x15                                
ram:0007a96a    c1f80042        str.w       r4,[r1,#0x200]=>DAT_10001200            
                            LAB_0007a96e:                 ;XREF[1,0]:   0007a972
ram:0007a96e    0568            ldr         r5,[r0,#0x0]=>DAT_4001e400              
ram:0007a970    002d            cmp         r5,#0x0                                 
ram:0007a972    fcd0            beq         LAB_0007a96e                            
ram:0007a974    c1f80442        str.w       r4,[r1,#0x204]=>DAT_10001204            
                            LAB_0007a978:                 ;XREF[1,0]:   0007a97c
ram:0007a978    0168            ldr         r1,[r0,#0x0]=>DAT_4001e400              
ram:0007a97a    0029            cmp         r1,#0x0                                 
ram:0007a97c    fcd0            beq         LAB_0007a978                            
ram:0007a97e    1360            str         r3,[r2,#0x0]=>DAT_4001e504              
                            LAB_0007a980:                 ;XREF[1,0]:   0007a984
ram:0007a980    0168            ldr         r1,[r0,#0x0]=>DAT_4001e400              
ram:0007a982    0029            cmp         r1,#0x0                                 
ram:0007a984    fcd0            beq         LAB_0007a980                            
ram:0007a986    bff34f8f        dsb         0xf                                     
ram:0007a98a    0c48            ldr         r0,[DAT_0007a9bc]                       ;= E000EDFCh
ram:0007a98c    f038            subs        r0,#0xf0                                
ram:0007a98e    0168            ldr         r1,[r0,#0x0]=>DAT_e000ed0c              
ram:0007a990    104a            ldr         r2,[DAT_0007a9d4]                       ;= 05FA0004h
ram:0007a992    01f4e061        and         r1,r1,#0x700                            
ram:0007a996    1143            orrs        r1,r2                                   
ram:0007a998    0160            str         r1,[r0,#0x0]=>DAT_e000ed0c              
ram:0007a99a    bff34f8f        dsb         0xf                                     
                            LAB_0007a99e:                 ;XREF[1,0]:   0007a9a0
ram:0007a99e    00bf            nop                                                  
ram:0007a9a0    fde7            b           LAB_0007a99e                            
                            LAB_0007a9a2:                 ;XREF[1,0]:   0007a95a
ram:0007a9a2    0e49            ldr         r1,[DAT_0007a9dc]                       ;= 20002CD4h
ram:0007a9a4    0c48            ldr         r0,[DAT_0007a9d8]                       ;= 03D09000h
ram:0007a9a6    0860            str         r0,[r1,#0x0]=>DAT_20002cd4              
ram:0007a9a8    70bd            pop         {r4,r5,r6,pc}                           
ram:0007a9aa    0000            movs        r0,r0                                   
                            DAT_0007a9ac:                 ;XREF[1,0]:   0007a776
ram:0007a9ac    e00f00f0        undefined4  F0000FE0h                               
                            DAT_0007a9b0:                 ;XREF[1,0]:   0007a79e
ram:0007a9b0    0df0adba        undefined4  BAADF00Dh                               
                            DAT_0007a9b4:                 ;XREF[1,0]:   0007a79c
ram:0007a9b4    00c00740        undefined4  4007C000h                               
                            DAT_0007a9b8:                 ;XREF[3,0]:   0007a7ca,0007a820,0007a83e
ram:0007a9b8    3c050040        undefined4  4000053Ch                               
                            DAT_0007a9bc:                 ;XREF[3,0]:   0007a7ea,0007a934,0007a98a
ram:0007a9bc    fced00e0        undefined4  E000EDFCh                               
                            DAT_0007a9c0:                 ;XREF[3,0]:   0007a85e,0007a864,0007a86a
ram:0007a9c0    10560040        undefined4  40005610h                               
                            DAT_0007a9c4:                 ;XREF[17,0]:  0007a888,0007a890,0007a89a,0007a8a4
                                                          ;             0007a8ae,0007a8b8,0007a8c2,0007a8ce
                                                          ;             0007a8d8,0007a8e2,0007a8ec,0007a8f6
                                                          ;             0007a900,0007a90c,0007a916,0007a920
                                                          ;             0007a92a
ram:0007a9c4    04040010        undefined4  10000404h                               
                            DAT_0007a9c8:                 ;XREF[3,0]:   0007a88c,0007a8c8,0007a906
ram:0007a9c8    20c50040        undefined4  4000C520h                               
                            DAT_0007a9cc:                 ;XREF[1,0]:   0007a95c
ram:0007a9cc    04e50140        undefined4  4001E504h                               
                            DAT_0007a9d0:                 ;XREF[1,0]:   0007a960
ram:0007a9d0    00e40140        undefined4  4001E400h                               
                            DAT_0007a9d4:                 ;XREF[1,0]:   0007a990
ram:0007a9d4    0400fa05        undefined4  05FA0004h                               
                            DAT_0007a9d8:                 ;XREF[1,0]:   0007a9a4
ram:0007a9d8    0090d003        undefined4  03D09000h                               
                            DAT_0007a9dc:                 ;XREF[1,0]:   0007a9a2
ram:0007a9dc    d42c0020        undefined4  20002CD4h                               
                            ;************************************************************************************************
                            ;*                                           FUNCTION                                           *
                            ;************************************************************************************************
                            ;undefined thunk_FUN_0007a9e8(undefined4 * param_1, undefined4 * param_2, int param_3)
          ;param_1       undefined4 *        r0                      
          ;param_2       undefined4 *        r1                      
          ;param_3       int                 r2                      
                                                          ;XREF[2,0]:   0007a5f0,0007d990
ram:0007a9e0    02e0            b           FUN_0007a9e8                            
                            LAB_0007a9e2:                 ;XREF[1,0]:   0007a9ea
ram:0007a9e2    08c8            ldmia       param_1!,{r3}                           
ram:0007a9e4    121f            subs        param_3,param_3,#0x4                    
ram:0007a9e6    08c1            stmia       param_2!,{r3}                           
                            ;************************************************************************************************
                            ;*                                           FUNCTION                                           *
                            ;************************************************************************************************
                            ;undefined FUN_0007a9e8(undefined4 * param_1, undefined4 * param_2, int param_3)
          ;param_1       undefined4 *        r0                      
          ;param_2       undefined4 *        r1                      
          ;param_3       int                 r2                      
                                                          ;XREF[1,0]:   0007a9e0
ram:0007a9e8    002a            cmp         param_3,#0x0                            
ram:0007a9ea    fad1            bne         LAB_0007a9e2                            
ram:0007a9ec    7047            bx          lr                                      
ram:0007a9ee    7047            bx          lr                                      
ram:0007a9f0    0020            movs        r0,#0x0                                 
ram:0007a9f2    01e0            b           LAB_0007a9f8                            
                            LAB_0007a9f4:                 ;XREF[1,0]:   0007a9fa
ram:0007a9f4    01c1            stmia       r1!,{r0}                                
ram:0007a9f6    121f            subs        r2,r2,#0x4                              
                            LAB_0007a9f8:                 ;XREF[1,0]:   0007a9f2
ram:0007a9f8    002a            cmp         r2,#0x0                                 
ram:0007a9fa    fbd1            bne         LAB_0007a9f4                            
ram:0007a9fc    7047            bx          lr                                      
ram:0007a9fe    0000            movs        r0,r0                                   
                            ;************************************************************************************************
                            ;*                                           FUNCTION                                           *
                            ;************************************************************************************************
                            ;undefined4 FUN_0007aa00(uint param_1)
          ;param_1       uint                r0                      
                                                          ;XREF[1,0]:   0007d31c
ram:0007aa00    0121            movs        r1,#0x1                                 
ram:0007aa02    2028            cmp         param_1,#0x20                           
ram:0007aa04    03da            bge         LAB_0007aa0e                            
ram:0007aa06    8140            lsls        r1,param_1                              
ram:0007aa08    0548            ldr         param_1,[DAT_0007aa20]                  ;= BCFF06FCh
ram:0007aa0a    0140            ands        r1,param_1                              
ram:0007aa0c    03e0            b           LAB_0007aa16                            
                            LAB_0007aa0e:                 ;XREF[1,0]:   0007aa04
ram:0007aa0e    4028            cmp         param_1,#0x40                           
ram:0007aa10    02da            bge         LAB_0007aa18                            
ram:0007aa12    2038            subs        param_1,#0x20                           
ram:0007aa14    8140            lsls        r1,param_1                              
                            LAB_0007aa16:                 ;XREF[1,0]:   0007aa0c
ram:0007aa16    09b1            cbz         r1,LAB_0007aa1c                         
                            LAB_0007aa18:                 ;XREF[1,0]:   0007aa10
ram:0007aa18    0120            movs        param_1,#0x1                            
ram:0007aa1a    7047            bx          lr                                      
                            LAB_0007aa1c:                 ;XREF[1,0]:   0007aa16
ram:0007aa1c    0020            movs        param_1,#0x0                            
ram:0007aa1e    7047            bx          lr                                      
                            DAT_0007aa20:                 ;XREF[1,0]:   0007aa08
ram:0007aa20    fc06ffbc        undefined4  BCFF06FCh                               
                            ;************************************************************************************************
                            ;*                                           FUNCTION                                           *
                            ;************************************************************************************************
                            ;byte * FUN_0007aa24(byte * param_1, undefined * param_2, ushort * param_3)
          ;param_1       byte *              r0                      
          ;param_2       undefined *         r1                      
          ;param_3       ushort *            r2                      
          ;local_30      undefined4         -30                      ;XREF[4,0]:   0007ab0e,0007ab8a,0007aba4,0007abbe
                                                          ;XREF[2,0]:   0007b1c0,0007b1e4
ram:0007aa24    2de9fc5f        push        {param_3,r3,r4,r5,r6,r7,r8,r9,r10,r11...
ram:0007aa28    0025            movs        r5,#0x0                                 
ram:0007aa2a    1688            ldrh        r6,[param_3,#0x0]                       
ram:0007aa2c    0746            mov         r7,param_1                              
ram:0007aa2e    1580            strh        r5,[param_3,#0x0]                       
ram:0007aa30    406b            ldr         param_1,[param_1,#0x34]                 
ram:0007aa32    1446            mov         r4,param_3                              
ram:0007aa34    8946            mov         r9,param_2                              
ram:0007aa36    a846            mov         r8,r5                                   
ram:0007aa38    4ff00c0a        mov.w       r10,#0xc                                
ram:0007aa3c    1123            movs        r3,#0x11                                
ram:0007aa3e    4ff0020b        mov.w       r11,#0x2                                
ram:0007aa42    98b1            cbz         param_1,LAB_0007aa6c                    
ram:0007aa44    0178            ldrb        param_2,[param_1,#0x0]                  
ram:0007aa46    4846            mov         param_1,r9                              
ram:0007aa48    032e            cmp         r6,#0x3                                 
ram:0007aa4a    48d3            bcc         LAB_0007aade                            
ram:0007aa4c    80f800b0        strb.w      r11,[param_1,#0x0]                      
ram:0007aa50    2288            ldrh        param_3,[r4,#0x0]                       
ram:0007aa52    521c            adds        param_3,param_3,#0x1                    
ram:0007aa54    92b2            uxth        param_3,param_3                         
ram:0007aa56    2280            strh        param_3,[r4,#0x0]                       
ram:0007aa58    8354            strb        r3,[param_1,param_3]                    
ram:0007aa5a    2288            ldrh        param_3,[r4,#0x0]                       
ram:0007aa5c    521c            adds        param_3,param_3,#0x1                    
ram:0007aa5e    92b2            uxth        param_3,param_3                         
ram:0007aa60    2280            strh        param_3,[r4,#0x0]                       
ram:0007aa62    09f80210        strb.w      param_2,r9,param_3,0x0                  
ram:0007aa66    2088            ldrh        param_1,[r4,#0x0]                       
ram:0007aa68    401c            adds        param_1,param_1,#0x1                    
ram:0007aa6a    2080            strh        param_1,[r4,#0x0]                       
                            LAB_0007aa6c:                 ;XREF[1,0]:   0007aa42
ram:0007aa6c    3a6b            ldr         param_3,[r7,#0x30]                      
ram:0007aa6e    dab1            cbz         param_3,LAB_0007aaa8                    
ram:0007aa70    2088            ldrh        param_1,[r4,#0x0]                       
ram:0007aa72    4946            mov         param_2,r9                              
ram:0007aa74    00f11205        add.w       r5,param_1,#0x12                        
ram:0007aa78    b542            cmp         r5,r6                                   
ram:0007aa7a    30d8            bhi         LAB_0007aade                            
ram:0007aa7c    0b54            strb        r3,[param_2,param_1]                    
ram:0007aa7e    2088            ldrh        param_1,[r4,#0x0]                       
ram:0007aa80    1023            movs        r3,#0x10                                
ram:0007aa82    401c            adds        param_1,param_1,#0x1                    
ram:0007aa84    80b2            uxth        param_1,param_1                         
ram:0007aa86    2080            strh        param_1,[r4,#0x0]                       
ram:0007aa88    0b54            strb        r3,[param_2,param_1]                    
ram:0007aa8a    2088            ldrh        param_1,[r4,#0x0]                       
ram:0007aa8c    401c            adds        param_1,param_1,#0x1                    
ram:0007aa8e    2080            strh        param_1,[r4,#0x0]                       
ram:0007aa90    0f20            movs        param_1,#0xf                            
                            LAB_0007aa92:                 ;XREF[1,0]:   0007aaa4
ram:0007aa92    2388            ldrh        r3,[r4,#0x0]                            
ram:0007aa94    155c            ldrb        r5,[param_3,param_1]                    
ram:0007aa96    401e            subs        param_1,param_1,#0x1                    
ram:0007aa98    cd54            strb        r5,[param_2,r3]                         
ram:0007aa9a    2388            ldrh        r3,[r4,#0x0]                            
ram:0007aa9c    40b2            sxtb        param_1,param_1                         
ram:0007aa9e    5b1c            adds        r3,r3,#0x1                              
ram:0007aaa0    2380            strh        r3,[r4,#0x0]                            
ram:0007aaa2    0028            cmp         param_1,#0x0                            
ram:0007aaa4    f5da            bge         LAB_0007aa92                            
ram:0007aaa6    4546            mov         r5,r8                                   
                            LAB_0007aaa8:                 ;XREF[1,0]:   0007aa6e
ram:0007aaa8    97f82e00        ldrb.w      param_1,[r7,#0x2e]                      
ram:0007aaac    30b1            cbz         param_1,LAB_0007aabc                    
ram:0007aaae    3346            mov         r3,r6                                   
ram:0007aab0    2246            mov         param_3,r4                              
ram:0007aab2    4946            mov         param_2,r9                              
ram:0007aab4    01f062ff        bl          FUN_0007c97c                            ;undefined4 FUN_0007c97c(int param_1,...
ram:0007aab8    0500            movs        r5,param_1                              
ram:0007aaba    11d1            bne         LAB_0007aae0                            
                            LAB_0007aabc:                 ;XREF[1,0]:   0007aaac
ram:0007aabc    97f82d00        ldrb.w      param_1,[r7,#0x2d]                      
ram:0007aac0    30b1            cbz         param_1,LAB_0007aad0                    
ram:0007aac2    3246            mov         param_3,r6                              
ram:0007aac4    2146            mov         param_2,r4                              
ram:0007aac6    4846            mov         param_1,r9                              
ram:0007aac8    00f012fc        bl          FUN_0007b2f0                            ;byte * FUN_0007b2f0(int param_1, ush...
ram:0007aacc    0500            movs        r5,param_1                              
ram:0007aace    07d1            bne         LAB_0007aae0                            
                            LAB_0007aad0:                 ;XREF[1,0]:   0007aac0
ram:0007aad0    b878            ldrb        param_1,[r7,#0x2]                       
ram:0007aad2    20b3            cbz         param_1,LAB_0007ab1e                    
ram:0007aad4    2088            ldrh        param_1,[r4,#0x0]                       
ram:0007aad6    c846            mov         r8,r9                                   
ram:0007aad8    001d            adds        param_1,param_1,#0x4                    
ram:0007aada    b042            cmp         param_1,r6                              
ram:0007aadc    02d9            bls         LAB_0007aae4                            
                            LAB_0007aade:                 ;XREF[4,0]:   0007aa4a,0007aa7a,0007ab2e,0007ab62
ram:0007aade    5046            mov         param_1,r10                             
                            LAB_0007aae0:                 ;XREF[7,0]:   0007aaba,0007aace,0007aaea,0007ab9e
                                                          ;             0007abb8,0007abd2,0007ac24
ram:0007aae0    bde8fc9f        pop.w       {param_3,r3,r4,r5,r6,r7,r8,r9,r10,r11...
                            LAB_0007aae4:                 ;XREF[1,0]:   0007aadc
ram:0007aae4    6846            mov         param_1,sp                              
ram:0007aae6    79df            svc         0x79                                    
ram:0007aae8    0028            cmp         param_1,#0x0                            
ram:0007aaea    f9d1            bne         LAB_0007aae0                            
ram:0007aaec    2188            ldrh        param_2,[r4,#0x0]                       
ram:0007aaee    0320            movs        param_1,#0x3                            
ram:0007aaf0    08f80100        strb.w      param_1,r8,param_2,0x0                  
ram:0007aaf4    2088            ldrh        param_1,[r4,#0x0]                       
ram:0007aaf6    1921            movs        param_2,#0x19                           
ram:0007aaf8    401c            adds        param_1,param_1,#0x1                    
ram:0007aafa    80b2            uxth        param_1,param_1                         
ram:0007aafc    2080            strh        param_1,[r4,#0x0]                       
ram:0007aafe    08f80010        strb.w      param_2,r8,param_1,0x0                  
ram:0007ab02    2088            ldrh        param_1,[r4,#0x0]                       
ram:0007ab04    401c            adds        param_1,param_1,#0x1                    
ram:0007ab06    80b2            uxth        param_1,param_1                         
ram:0007ab08    2080            strh        param_1,[r4,#0x0]                       
ram:0007ab0a    00eb0801        add.w       param_2,param_1,r8                      
ram:0007ab0e    bdf80000        ldrh.w      param_1,[sp,#0x0]=>local_30             
ram:0007ab12    02f007fe        bl          FUN_0007d724                            ;undefined4 FUN_0007d724(undefined4 p...
ram:0007ab16    0146            mov         param_2,param_1                         
ram:0007ab18    2088            ldrh        param_1,[r4,#0x0]                       
ram:0007ab1a    0844            add         param_1,param_2                         
ram:0007ab1c    2080            strh        param_1,[r4,#0x0]                       
                            LAB_0007ab1e:                 ;XREF[1,0]:   0007aad2
ram:0007ab1e    f878            ldrb        param_1,[r7,#0x3]                       
ram:0007ab20    b8b1            cbz         param_1,LAB_0007ab52                    
ram:0007ab22    2288            ldrh        param_3,[r4,#0x0]                       
ram:0007ab24    97f90310        ldrsb.w     param_2,[r7,#0x3]                       
ram:0007ab28    d31c            adds        r3,param_3,#0x3                         
ram:0007ab2a    4846            mov         param_1,r9                              
ram:0007ab2c    b342            cmp         r3,r6                                   
ram:0007ab2e    d6d8            bhi         LAB_0007aade                            
ram:0007ab30    00f802b0        strb.w      r11,param_1,param_3,0x0                 
ram:0007ab34    2288            ldrh        param_3,[r4,#0x0]                       
ram:0007ab36    0123            movs        r3,#0x1                                 
ram:0007ab38    521c            adds        param_3,param_3,#0x1                    
ram:0007ab3a    92b2            uxth        param_3,param_3                         
ram:0007ab3c    2280            strh        param_3,[r4,#0x0]                       
ram:0007ab3e    8354            strb        r3,[param_1,param_3]                    
ram:0007ab40    2288            ldrh        param_3,[r4,#0x0]                       
ram:0007ab42    521c            adds        param_3,param_3,#0x1                    
ram:0007ab44    92b2            uxth        param_3,param_3                         
ram:0007ab46    2280            strh        param_3,[r4,#0x0]                       
ram:0007ab48    09f80210        strb.w      param_2,r9,param_3,0x0                  
ram:0007ab4c    2088            ldrh        param_1,[r4,#0x0]                       
ram:0007ab4e    401c            adds        param_1,param_1,#0x1                    
ram:0007ab50    2080            strh        param_1,[r4,#0x0]                       
                            LAB_0007ab52:                 ;XREF[1,0]:   0007ab20
ram:0007ab52    7868            ldr         param_1,[r7,#0x4]                       
ram:0007ab54    b8b1            cbz         param_1,LAB_0007ab86                    
ram:0007ab56    2188            ldrh        param_2,[r4,#0x0]                       
ram:0007ab58    90f90020        ldrsb.w     param_3,[param_1,#0x0]                  
ram:0007ab5c    cb1c            adds        r3,param_2,#0x3                         
ram:0007ab5e    4846            mov         param_1,r9                              
ram:0007ab60    b342            cmp         r3,r6                                   
ram:0007ab62    bcd8            bhi         LAB_0007aade                            
ram:0007ab64    00f801b0        strb.w      r11,param_1,param_2,0x0                 
ram:0007ab68    2188            ldrh        param_2,[r4,#0x0]                       
ram:0007ab6a    0a23            movs        r3,#0xa                                 
ram:0007ab6c    491c            adds        param_2,param_2,#0x1                    
ram:0007ab6e    89b2            uxth        param_2,param_2                         
ram:0007ab70    2180            strh        param_2,[r4,#0x0]                       
ram:0007ab72    4354            strb        r3,[param_1,param_2]                    
ram:0007ab74    2188            ldrh        param_2,[r4,#0x0]                       
ram:0007ab76    491c            adds        param_2,param_2,#0x1                    
ram:0007ab78    89b2            uxth        param_2,param_2                         
ram:0007ab7a    2180            strh        param_2,[r4,#0x0]                       
ram:0007ab7c    09f80120        strb.w      param_3,r9,param_2,0x0                  
ram:0007ab80    2088            ldrh        param_1,[r4,#0x0]                       
ram:0007ab82    401c            adds        param_1,param_1,#0x1                    
ram:0007ab84    2080            strh        param_1,[r4,#0x0]                       
                            LAB_0007ab86:                 ;XREF[1,0]:   0007ab54
ram:0007ab86    3889            ldrh        param_1,[r7,#0x8]                       
ram:0007ab88    50b1            cbz         param_1,LAB_0007aba0                    
ram:0007ab8a    cde90046        strd        r4,r6,[sp,#0x0]=>local_30               
ram:0007ab8e    4b46            mov         r3,r9                                   
ram:0007ab90    0622            movs        param_3,#0x6                            
ram:0007ab92    0221            movs        param_2,#0x2                            
ram:0007ab94    07f10800        add.w       param_1,r7,#0x8                         
ram:0007ab98    02f035fe        bl          FUN_0007d806                            ;undefined8 FUN_0007d806(ushort * par...
ram:0007ab9c    0500            movs        r5,param_1                              
                            LAB_0007ab9e:                 ;XREF[4,0]:   0007abe4,0007abf6,0007ac0a,0007ac20
ram:0007ab9e    9fd1            bne         LAB_0007aae0                            
                            LAB_0007aba0:                 ;XREF[1,0]:   0007ab88
ram:0007aba0    388a            ldrh        param_1,[r7,#0x10]                      
ram:0007aba2    50b1            cbz         param_1,LAB_0007abba                    
ram:0007aba4    cde90046        strd        r4,r6,[sp,#0x0]=>local_30               
ram:0007aba8    4b46            mov         r3,r9                                   
ram:0007abaa    0722            movs        param_3,#0x7                            
ram:0007abac    0321            movs        param_2,#0x3                            
ram:0007abae    07f11000        add.w       param_1,r7,#0x10                        
ram:0007abb2    02f028fe        bl          FUN_0007d806                            ;undefined8 FUN_0007d806(ushort * par...
ram:0007abb6    0500            movs        r5,param_1                              
ram:0007abb8    92d1            bne         LAB_0007aae0                            
                            LAB_0007abba:                 ;XREF[1,0]:   0007aba2
ram:0007abba    388b            ldrh        param_1,[r7,#0x18]                      
ram:0007abbc    50b1            cbz         param_1,LAB_0007abd4                    
ram:0007abbe    cde90046        strd        r4,r6,[sp,#0x0]=>local_30               
ram:0007abc2    4b46            mov         r3,r9                                   
ram:0007abc4    1522            movs        param_3,#0x15                           
ram:0007abc6    1421            movs        param_2,#0x14                           
ram:0007abc8    07f11800        add.w       param_1,r7,#0x18                        
ram:0007abcc    02f01bfe        bl          FUN_0007d806                            ;undefined8 FUN_0007d806(ushort * par...
ram:0007abd0    0500            movs        r5,param_1                              
ram:0007abd2    85d1            bne         LAB_0007aae0                            
                            LAB_0007abd4:                 ;XREF[1,0]:   0007abbc
ram:0007abd4    386a            ldr         param_1,[r7,#0x20]                      
ram:0007abd6    30b1            cbz         param_1,LAB_0007abe6                    
ram:0007abd8    3346            mov         r3,r6                                   
ram:0007abda    2246            mov         param_3,r4                              
ram:0007abdc    4946            mov         param_2,r9                              
ram:0007abde    00f067ff        bl          FUN_0007bab0                            ;undefined4 FUN_0007bab0(ushort * par...
ram:0007abe2    0500            movs        r5,param_1                              
ram:0007abe4    dbd1            bne         LAB_0007ab9e                            
                            LAB_0007abe6:                 ;XREF[1,0]:   0007abd6
ram:0007abe6    786a            ldr         param_1,[r7,#0x24]                      
ram:0007abe8    30b1            cbz         param_1,LAB_0007abf8                    
ram:0007abea    3346            mov         r3,r6                                   
ram:0007abec    2246            mov         param_3,r4                              
ram:0007abee    4946            mov         param_2,r9                              
ram:0007abf0    02f03cf8        bl          FUN_0007cc6c                            ;undefined4 FUN_0007cc6c(ushort * par...
ram:0007abf4    0500            movs        r5,param_1                              
ram:0007abf6    d2d1            bne         LAB_0007ab9e                            
                            LAB_0007abf8:                 ;XREF[1,0]:   0007abe8
ram:0007abf8    3878            ldrb        param_1,[r7,#0x0]                       
ram:0007abfa    38b1            cbz         param_1,LAB_0007ac0c                    
ram:0007abfc    3346            mov         r3,r6                                   
ram:0007abfe    2246            mov         param_3,r4                              
ram:0007ac00    4946            mov         param_2,r9                              
ram:0007ac02    3846            mov         param_1,r7                              
ram:0007ac04    02f064f8        bl          FUN_0007ccd0                            ;longlong FUN_0007ccd0(byte * param_1...
ram:0007ac08    0500            movs        r5,param_1                              
ram:0007ac0a    c8d1            bne         LAB_0007ab9e                            
                            LAB_0007ac0c:                 ;XREF[1,0]:   0007abfa
ram:0007ac0c    97f82c00        ldrb.w      param_1,[r7,#0x2c]                      
ram:0007ac10    38b1            cbz         param_1,LAB_0007ac22                    
ram:0007ac12    3346            mov         r3,r6                                   
ram:0007ac14    2246            mov         param_3,r4                              
ram:0007ac16    4946            mov         param_2,r9                              
ram:0007ac18    3846            mov         param_1,r7                              
ram:0007ac1a    02f0f7fb        bl          FUN_0007d40c                            ;undefined4 FUN_0007d40c(int param_1,...
ram:0007ac1e    0500            movs        r5,param_1                              
ram:0007ac20    bdd1            bne         LAB_0007ab9e                            
                            LAB_0007ac22:                 ;XREF[1,0]:   0007ac10
ram:0007ac22    2846            mov         param_1,r5                              
ram:0007ac24    5ce7            b           LAB_0007aae0                            
ram:0007ac26    0000            movs        r0,r0                                   
                            ;************************************************************************************************
                            ;*                                           FUNCTION                                           *
                            ;************************************************************************************************
                            ;undefined FUN_0007ac28(undefined param_1)
          ;param_1       undefined           r0                      
          ;local_1c      undefined2         -1c                      ;XREF[1,0]:   0007ac68
          ;local_1e      undefined1         -1e                      ;XREF[1,0]:   0007ac36
          ;local_20      undefined2         -20                      ;XREF[1,0]:   0007ac3a
          ;local_2c      undefined1         -2c                      ;XREF[1,0]:   0007ac70
          ;local_30      undefined4         -30                      ;XREF[1,0]:   0007ac6e
          ;local_58      undefined1         -58                      ;XREF[1,0]:   0007ac64
          ;local_84      undefined4         -84                      ;XREF[1,0]:   0007ac54
          ;local_88      undefined2         -88                      ;XREF[1,0]:   0007ac56
          ;local_8d      undefined1         -8d                      ;XREF[1,0]:   0007ac4c
          ;local_8e      undefined1         -8e                      ;XREF[1,0]:   0007ac48
                                                          ;XREF[3,0]:   0007acca,0007acee,0007ad00
ram:0007ac28    30b5            push        {r4,r5,lr}                              
ram:0007ac2a    0546            mov         r5,param_1                              
ram:0007ac2c    1648            ldr         param_1,[DAT_0007ac88]                  ;= 20003280h
ram:0007ac2e    a1b0            sub         sp,#0x84                                
ram:0007ac30    41f23054        movw        r4,#0x1530                              
ram:0007ac34    8079            ldrb        param_1,[param_1,#0x6]=>DAT_20003286    
ram:0007ac36    8df87200        strb.w      param_1,[sp,#local_1e+0x90]             
ram:0007ac3a    adf87040        strh.w      r4,[sp,#local_20+0x90]                  
ram:0007ac3e    3821            movs        r1,#0x38                                
ram:0007ac40    6846            mov         param_1,sp                              
ram:0007ac42    fff7b4fc        bl          FUN_0007a5ae                            ;undefined FUN_0007a5ae(undefined * p...
ram:0007ac46    0020            movs        param_1,#0x0                            
ram:0007ac48    8df80200        strb.w      param_1,[sp,#local_8e+0x90]             
ram:0007ac4c    8df80350        strb.w      r5,[sp,#local_8d+0x90]                  
ram:0007ac50    1ca8            add         param_1,sp,#0x70                        
ram:0007ac52    0125            movs        r5,#0x1                                 
ram:0007ac54    0390            str         param_1,[sp,#local_84+0x90]             
ram:0007ac56    adf80850        strh.w      r5,[sp,#local_88+0x90]                  
ram:0007ac5a    3821            movs        r1,#0x38                                
ram:0007ac5c    0ea8            add         param_1,sp,#0x38                        
ram:0007ac5e    fff7a6fc        bl          FUN_0007a5ae                            ;undefined FUN_0007a5ae(undefined * p...
ram:0007ac62    0220            movs        param_1,#0x2                            
ram:0007ac64    8df83800        strb.w      param_1,[sp,#local_58+0x90]             
ram:0007ac68    adf87440        strh.w      r4,[sp,#local_1c+0x90]                  
ram:0007ac6c    1da8            add         param_1,sp,#0x74                        
ram:0007ac6e    1890            str         param_1,[sp,#local_30+0x90]             
ram:0007ac70    8df86450        strb.w      r5,[sp,#local_2c+0x90]                  
ram:0007ac74    0ea9            add         r1,sp,#0x38                             
ram:0007ac76    6846            mov         param_1,sp                              
ram:0007ac78    00f092fa        bl          FUN_0007b1a0                            ;byte * FUN_0007b1a0(byte * param_1, ...
ram:0007ac7c    0028            cmp         param_1,#0x0                            
ram:0007ac7e    01d0            beq         LAB_0007ac84                            
ram:0007ac80    00f0c0f8        bl          FUN_0007ae04                            ;undefined FUN_0007ae04(void)
                            LAB_0007ac84:                 ;XREF[1,0]:   0007ac7e
ram:0007ac84    21b0            add         sp,#0x84                                
ram:0007ac86    30bd            pop         {r4,r5,pc}                              
                            DAT_0007ac88:                 ;XREF[1,0]:   0007ac2c
ram:0007ac88    80320020        undefined4  20003280h                               
                            ;************************************************************************************************
                            ;*                                           FUNCTION                                           *
                            ;************************************************************************************************
                            ;undefined8 FUN_0007ac8c(undefined4 param_1, undefined4 param_2, undefined4 param_3, undefined4 param_4)
          ;param_1       undefined4          r0                      
          ;param_2       undefined4          r1                      
          ;param_3       undefined4          r2                      
          ;param_4       undefined4          r3                      
          ;local_24      undefined4         -24                      ;XREF[1,0]:   0007acc0
          ;local_28      undefined4         -28                      ;XREF[1,0]:   0007acb8
          ;local_2c      undefined4         -2c                      ;XREF[1,0]:   0007acb6
          ;local_30      undefined4         -30                      ;XREF[1,0]:   0007acb4
                                                          ;XREF[3,0]:   0007c6b2,0007ce8a,0007ceec
ram:0007ac8c    2de9ff47        push        {param_1,param_2,param_3,param_4,r4,r...
ram:0007ac90    1e4e            ldr         r6,[DAT_0007ad0c]                       ;= 20002C64h
ram:0007ac92    b078            ldrb        param_1,[r6,#0x2]=>DAT_20002c66         
ram:0007ac94    0028            cmp         param_1,#0x0                            
ram:0007ac96    27d1            bne         LAB_0007ace8                            
ram:0007ac98    1d4c            ldr         r4,[DAT_0007ad10]                       ;= 20003270h
ram:0007ac9a    0025            movs        r5,#0x0                                 
ram:0007ac9c    4ff02808        mov.w       r8,#0x28                                
ram:0007aca0    2560            str         r5,[r4,#0x0]=>DAT_20003270              
ram:0007aca2    6560            str         r5,[r4,#0x4]=>DAT_20003274              
ram:0007aca4    a560            str         r5,[r4,#0x8]=>DAT_20003278              
ram:0007aca6    e560            str         r5,[r4,#0xc]=>DAT_2000327c              
ram:0007aca8    f078            ldrb        param_1,[r6,#0x3]=>DAT_20002c67         
ram:0007acaa    4ff00109        mov.w       r9,#0x1                                 
ram:0007acae    30b3            cbz         param_1,LAB_0007acfe                    
ram:0007acb0    04f14007        add.w       r7,r4,#0x40                             
ram:0007acb4    0095            str         r5,[sp,#0x0]=>local_30                  
ram:0007acb6    0195            str         r5,[sp,#local_2c+0x30]                  
ram:0007acb8    0295            str         r5,[sp,#local_28+0x30]                  
ram:0007acba    1022            movs        param_3,#0x10                           
ram:0007acbc    6946            mov         param_2,sp                              
ram:0007acbe    f81d            adds        param_1,r7,#0x7                         
ram:0007acc0    0395            str         r5,[sp,#local_24+0x30]                  
ram:0007acc2    fff77ffc        bl          FUN_0007a5c4                            ;undefined FUN_0007a5c4(int param_1, ...
ram:0007acc6    88b1            cbz         param_1,LAB_0007acec                    
ram:0007acc8    0420            movs        param_1,#0x4                            
ram:0007acca    fff7adff        bl          FUN_0007ac28                            ;undefined FUN_0007ac28(undefined par...
ram:0007acce    2570            strb        r5,[r4,#0x0]=>DAT_20003270              
ram:0007acd0    0220            movs        param_1,#0x2                            
ram:0007acd2    2072            strb        param_1,[r4,#0x8]=>DAT_20003278         
                            LAB_0007acd4:                 ;XREF[1,0]:   0007ad0a
ram:0007acd4    a4f80a80        strh.w      r8,[r4,#0xa]=>DAT_2000327a              
                            LAB_0007acd8:                 ;XREF[1,0]:   0007acfc
ram:0007acd8    a581            strh        r5,[r4,#0xc]=>DAT_2000327c              
ram:0007acda    0d48            ldr         param_1=>DAT_20003270,[DAT_0007ad10]    ;= 20003270h
ram:0007acdc    73df            svc         0x73                                    
ram:0007acde    08b1            cbz         param_1,LAB_0007ace4                    
ram:0007ace0    00f090f8        bl          FUN_0007ae04                            ;undefined FUN_0007ae04(void)
                            LAB_0007ace4:                 ;XREF[1,0]:   0007acde
ram:0007ace4    86f80290        strb.w      r9,[r6,#0x2]=>DAT_20002c66              
                            LAB_0007ace8:                 ;XREF[1,0]:   0007ac96
ram:0007ace8    bde8ff87        pop.w       {param_1,param_2,param_3,param_4,r4,r...
                            LAB_0007acec:                 ;XREF[1,0]:   0007acc6
ram:0007acec    0520            movs        param_1,#0x5                            
ram:0007acee    fff79bff        bl          FUN_0007ac28                            ;undefined FUN_0007ac28(undefined par...
ram:0007acf2    84f80090        strb.w      r9,[r4,#0x0]=>DAT_20003270              
ram:0007acf6    6760            str         r7=>DAT_200032b0,[r4,#0x4]=>DAT_20003274
ram:0007acf8    2572            strb        r5,[r4,#0x8]=>DAT_20003278              
ram:0007acfa    6581            strh        r5,[r4,#0xa]=>DAT_2000327a              
ram:0007acfc    ece7            b           LAB_0007acd8                            
                            LAB_0007acfe:                 ;XREF[1,0]:   0007acae
ram:0007acfe    0620            movs        param_1,#0x6                            
ram:0007ad00    fff792ff        bl          FUN_0007ac28                            ;undefined FUN_0007ac28(undefined par...
ram:0007ad04    2570            strb        r5,[r4,#0x0]=>DAT_20003270              
ram:0007ad06    6560            str         r5,[r4,#0x4]=>DAT_20003274              
ram:0007ad08    2572            strb        r5,[r4,#0x8]=>DAT_20003278              
ram:0007ad0a    e3e7            b           LAB_0007acd4                            
                            DAT_0007ad0c:                 ;XREF[1,0]:   0007ac90
ram:0007ad0c    642c0020        undefined4  20002C64h                               
                            DAT_0007ad10:                 ;XREF[2,0]:   0007ac98,0007acda
ram:0007ad10    70320020        undefined4  20003270h                               
                            ;************************************************************************************************
                            ;*                                           FUNCTION                                           *
                            ;************************************************************************************************
                            ;undefined8 FUN_0007ad14(ushort * param_1, int param_2, uint param_3, int param_4)
          ;param_1       ushort *            r0                      
          ;param_2       int                 r1                      
          ;param_3       uint                r2                      
          ;param_4       int                 r3                      
          ;local_1c      undefined4         -1c                      ;XREF[1,0]:   0007ad7c
          ;local_20      undefined4         -20                      ;XREF[1,0]:   0007ad78
          ;local_24      undefined4         -24                      ;XREF[1,0]:   0007ad72
          ;local_28      undefined4         -28                      ;XREF[4,0]:   0007ad3a,0007ad4a,0007ad52,0007ad74
                                                          ;XREF[1,0]:   0007d0cc
ram:0007ad14    2de9ff41        push        {param_1,param_2,param_3,param_4,r4,r...
ram:0007ad18    0546            mov         r5,param_1                              
ram:0007ad1a    087a            ldrb        param_1,[param_2,#0x8]                  
ram:0007ad1c    0e46            mov         r6,param_2                              
ram:0007ad1e    8107            lsls        param_2,param_1,#0x1e                   
ram:0007ad20    0ad0            beq         LAB_0007ad38                            
ram:0007ad22    0322            movs        param_3,#0x3                            
ram:0007ad24    1146            mov         param_2,param_3                         
ram:0007ad26    2846            mov         param_1,r5                              
ram:0007ad28    00f012fc        bl          FUN_0007b550                            ;undefined8 FUN_0007b550(ushort * par...
ram:0007ad2c    0028            cmp         param_1,#0x0                            
ram:0007ad2e    01d0            beq         LAB_0007ad34                            
ram:0007ad30    00f068f8        bl          FUN_0007ae04                            ;undefined FUN_0007ae04(void)
                            LAB_0007ad34:                 ;XREF[6,0]:   0007ad2e,0007ad6e,0007adac,0007adba
                                                          ;             0007adc6,0007add8
ram:0007ad34    bde8ff81        pop.w       {param_1,param_2,param_3,param_4,r4,r...
                            LAB_0007ad38:                 ;XREF[1,0]:   0007ad20
ram:0007ad38    2849            ldr         param_2=>DAT_20002c78,[DAT_0007addc]    ;= 20002C78h
ram:0007ad3a    0090            str         param_1,[sp,#0x0]=>local_28             
ram:0007ad3c    01f076fd        bl          FUN_0007c82c                            ;undefined4 FUN_0007c82c(uint param_1...
ram:0007ad40    0100            movs        param_2,param_1                         
ram:0007ad42    11d1            bne         LAB_0007ad68                            
ram:0007ad44    254c            ldr         r4,[DAT_0007addc]                       ;= 20002C78h
ram:0007ad46    7168            ldr         param_2,[r6,#0x4]                       
ram:0007ad48    143c            subs        r4,#0x14                                
ram:0007ad4a    009a            ldr         param_3,[sp,#0x0]=>local_28             
ram:0007ad4c    6069            ldr         param_1,[r4,#0x14]=>DAT_20002c78        
ram:0007ad4e    fff715fc        bl          FUN_0007a57c                            ;undefined FUN_0007a57c(undefined4 * ...
ram:0007ad52    0098            ldr         param_1,[sp,#0x0]=>local_28             
ram:0007ad54    01f036fd        bl          FUN_0007c7c4                            ;undefined4 FUN_0007c7c4(undefined4 p...
ram:0007ad58    0100            movs        param_2,param_1                         
ram:0007ad5a    05d1            bne         LAB_0007ad68                            
ram:0007ad5c    6946            mov         param_2,sp                              
ram:0007ad5e    1f48            ldr         param_1=>DAT_20002c78,[DAT_0007addc]    ;= 20002C78h
ram:0007ad60    01f040fd        bl          FUN_0007c7e4                            ;undefined4 FUN_0007c7e4(int * param_...
ram:0007ad64    0100            movs        param_2,param_1                         
ram:0007ad66    03d0            beq         LAB_0007ad70                            
                            LAB_0007ad68:                 ;XREF[3,0]:   0007ad42,0007ad5a,0007ad9e
ram:0007ad68    2846            mov         param_1,r5                              
ram:0007ad6a    01f0e3f8        bl          FUN_0007bf34                            ;undefined FUN_0007bf34(ushort * para...
ram:0007ad6e    e1e7            b           LAB_0007ad34                            
                            LAB_0007ad70:                 ;XREF[1,0]:   0007ad66
ram:0007ad70    0420            movs        param_1,#0x4                            
ram:0007ad72    0190            str         param_1,[sp,#local_24+0x28]             
ram:0007ad74    0098            ldr         param_1,[sp,#0x0]=>local_28             
ram:0007ad76    8008            lsrs        param_1,param_1,#0x2                    
ram:0007ad78    0290            str         param_1,[sp,#local_20+0x28]             
ram:0007ad7a    6069            ldr         param_1,[r4,#0x14]=>DAT_20002c78        
ram:0007ad7c    0390            str         param_1,[sp,#local_1c+0x28]             
ram:0007ad7e    01a8            add         param_1,sp,#0x4                         
ram:0007ad80    01f0a2f8        bl          FUN_0007bec8                            ;int FUN_0007bec8(int param_1, undefi...
ram:0007ad84    0700            movs        r7,param_1                              
ram:0007ad86    0bd0            beq         LAB_0007ada0                            
ram:0007ad88    092f            cmp         r7,#0x9                                 
ram:0007ad8a    10d0            beq         LAB_0007adae                            
ram:0007ad8c    6069            ldr         param_1,[r4,#0x14]=>DAT_20002c78        
ram:0007ad8e    01f0e3fc        bl          FUN_0007c758                            ;undefined4 FUN_0007c758(int param_1)
ram:0007ad92    0100            movs        param_2,param_1                         
ram:0007ad94    02d0            beq         LAB_0007ad9c                            
ram:0007ad96    2846            mov         param_1,r5                              
ram:0007ad98    01f0ccf8        bl          FUN_0007bf34                            ;undefined FUN_0007bf34(ushort * para...
                            LAB_0007ad9c:                 ;XREF[1,0]:   0007ad94
ram:0007ad9c    3946            mov         param_2,r7                              
ram:0007ad9e    e3e7            b           LAB_0007ad68                            
                            LAB_0007ada0:                 ;XREF[1,0]:   0007ad86
ram:0007ada0    307a            ldrb        param_1,[r6,#0x8]                       
ram:0007ada2    2169            ldr         param_2,[r4,#0x10]=>DAT_20002c74        
ram:0007ada4    0844            add         param_1,param_2                         
ram:0007ada6    2061            str         param_1,[r4,#0x10]=>DAT_20002c74        
ram:0007ada8    6069            ldr         param_1,[r4,#0x14]=>DAT_20002c78        
ram:0007adaa    a061            str         param_1,[r4,#0x18]=>DAT_20002c7c        
ram:0007adac    c2e7            b           LAB_0007ad34                            
                            LAB_0007adae:                 ;XREF[1,0]:   0007ad8a
ram:0007adae    307a            ldrb        param_1,[r6,#0x8]                       
ram:0007adb0    2169            ldr         param_2,[r4,#0x10]=>DAT_20002c74        
ram:0007adb2    0144            add         param_2,param_1                         
ram:0007adb4    2161            str         param_2,[r4,#0x10]=>DAT_20002c74        
ram:0007adb6    6078            ldrb        param_1,[r4,#0x1]=>DAT_20002c65         
ram:0007adb8    0028            cmp         param_1,#0x0                            
ram:0007adba    bbd0            beq         LAB_0007ad34                            
ram:0007adbc    6089            ldrh        param_1,[r4,#0xa]=>DAT_20002c6e         
ram:0007adbe    401e            subs        param_1,param_1,#0x1                    
ram:0007adc0    0004            lsls        param_1,param_1,#0x10                   
ram:0007adc2    000c            lsrs        param_1,param_1,#0x10                   
ram:0007adc4    6081            strh        param_1,[r4,#0xa]=>DAT_20002c6e         
ram:0007adc6    b5d1            bne         LAB_0007ad34                            
ram:0007adc8    2846            mov         param_1,r5                              
ram:0007adca    00f089fb        bl          FUN_0007b4e0                            ;undefined8 FUN_0007b4e0(ushort * par...
ram:0007adce    08b1            cbz         param_1,LAB_0007add4                    
ram:0007add0    00f018f8        bl          FUN_0007ae04                            ;undefined FUN_0007ae04(void)
                            LAB_0007add4:                 ;XREF[1,0]:   0007adce
ram:0007add4    2089            ldrh        param_1,[r4,#0x8]=>DAT_20002c6c         
ram:0007add6    6081            strh        param_1,[r4,#0xa]=>DAT_20002c6e         
ram:0007add8    ace7            b           LAB_0007ad34                            
ram:0007adda    0000            movs        r0,r0                                   
                            DAT_0007addc:                 ;XREF[3,0]:   0007ad38,0007ad44,0007ad5e
ram:0007addc    782c0020        undefined4  20002C78h                               
                            ;************************************************************************************************
                            ;*                                           FUNCTION                                           *
                            ;************************************************************************************************
                            ;undefined FUN_0007ade0(void)
                                                          ;XREF[2,0]:   0007ae14,0007d508
ram:0007ade0    bff34f8f        dsb         0xf                                     
ram:0007ade4    0548            ldr         r0,[DAT_0007adfc]                       ;= E000ED0Ch
ram:0007ade6    0168            ldr         r1,[r0,#0x0]=>DAT_e000ed0c              
ram:0007ade8    054a            ldr         r2,[DAT_0007ae00]                       ;= 05FA0004h
ram:0007adea    01f4e061        and         r1,r1,#0x700                            
ram:0007adee    1143            orrs        r1,r2                                   
ram:0007adf0    0160            str         r1,[r0,#0x0]=>DAT_e000ed0c              
ram:0007adf2    bff34f8f        dsb         0xf                                     
                            LAB_0007adf6:                 ;XREF[1,0]:   0007adf8
ram:0007adf6    00bf            nop                                                  
ram:0007adf8    fde7            b           LAB_0007adf6                            
ram:0007adfa    0000            movs        r0,r0                                   
                            DAT_0007adfc:                 ;XREF[1,0]:   0007ade4
ram:0007adfc    0ced00e0        undefined4  E000ED0Ch                               
                            DAT_0007ae00:                 ;XREF[1,0]:   0007ade8
ram:0007ae00    0400fa05        undefined4  05FA0004h                               
                            ;************************************************************************************************
                            ;*                                           FUNCTION                                           *
                            ;************************************************************************************************
                            ;undefined FUN_0007ae04(void)
          ;local_c       undefined4          -c                      ;XREF[1,0]:   0007ae0a
          ;local_10      undefined4         -10                      ;XREF[1,0]:   0007ae08
                                                          ;XREF[64,0]:  0007a6fe,0007ac80,0007ace0,0007ad30
                                                          ;             0007add0,0007af9e,0007b5ee,0007b5fa
                                                          ;             0007b60c,0007b61c,0007b62e,0007b63c
                                                          ;             0007b696,0007b6d6,0007b71e,0007b728
                                                          ;             0007b734,0007b864,0007b8f2,0007b90a
                                                          ;             0007bb38,0007bbec,0007bd9a,0007bdb6
                                                          ;             0007bf54,0007bf74,0007c02a,0007c03c
                                                          ;             0007c23e,0007c27e,0007c572,0007c586
                                                          ;             0007c5b0,0007c5be,0007c5cc,0007c60c
                                                          ;             0007c62e,0007c654,0007c674,0007c6aa
                                                          ;             0007c72a,0007c8d0,0007c90a,0007c934
                                                          ;             0007cb80,0007cb92,0007cba4,0007cbb8
                                                          ;             0007cbce,0007cc06,0007cc1a,0007cdfc
                                                          ;             0007ce78,0007d05e,0007d070,0007d0ae
                                                          ;             0007d114,0007d164,0007d30c,0007d494
                                                          ;             0007d4ec,0007d584,0007d6de,0007d8dc
ram:0007ae04    0eb5            push        {r1,r2,r3,lr}                           
ram:0007ae06    0021            movs        r1,#0x0                                 
ram:0007ae08    0091            str         r1,[sp,#0x0]=>local_10                  
ram:0007ae0a    cde90110        strd        r1,r0,[sp,#local_c+0x10]                
ram:0007ae0e    6a46            mov         r2,sp                                   
ram:0007ae10    44f20100        movw        r0,#0x4001                              
ram:0007ae14    fff7e4ff        bl          FUN_0007ade0                            ;undefined FUN_0007ade0(void)
ram:0007ae18    0ebd            pop         {r1,r2,r3,pc}                           
ram:0007ae1a    0000            movs        r0,r0                                   
                            ;************************************************************************************************
                            ;*                                           FUNCTION                                           *
                            ;************************************************************************************************
                            ;undefined FUN_0007ae1c(undefined4 param_1, undefined * param_2)
          ;param_1       undefined4          r0                      
          ;param_2       undefined *         r1                      
          ;local_10      undefined4         -10                      ;XREF[1,0]:   0007ae2c
                                                          ;XREF[2,0]:   0007d27c,0007d2ae
ram:0007ae1c    38b5            push        {r3,r4,r5,lr}                           
ram:0007ae1e    0c46            mov         r4,param_2                              
ram:0007ae20    064b            ldr         r3,[DAT_0007ae3c]                       ;= 2000317Ch
ram:0007ae22    e268            ldr         r2,[r4,#0xc]                            
ram:0007ae24    0978            ldrb        param_2,[param_2,#0x0]                  
ram:0007ae26    53f82250        ldr.w       r5,r3=>DAT_2000317c,r2,0x2              
ram:0007ae2a    6268            ldr         r2,[r4,#0x4]                            
ram:0007ae2c    0092            str         r2,[sp,#0x0]=>local_10                  
ram:0007ae2e    0246            mov         r2,param_1                              
ram:0007ae30    04f10c00        add.w       param_1,r4,#0xc                         
ram:0007ae34    6369            ldr         r3,[r4,#0x14]                           
ram:0007ae36    a847            blx         r5                                      
ram:0007ae38    38bd            pop         {r3,r4,r5,pc}                           
ram:0007ae3a    0000            movs        r0,r0                                   
                            DAT_0007ae3c:                 ;XREF[1,0]:   0007ae20
ram:0007ae3c    7c310020        undefined4  2000317Ch                               
                            ;************************************************************************************************
                            ;*                                           FUNCTION                                           *
                            ;************************************************************************************************
                            ;undefined4 FUN_0007ae40(int * param_1, undefined2 * param_2, undefined4 * param_3)
          ;param_1       int *               r0                      
          ;param_2       undefined2 *        r1                      
          ;param_3       undefined4 *        r2                      
                                                          ;XREF[1,0]:   0007af38
ram:0007ae40    70b5            push        {r4,r5,r6,lr}                           
ram:0007ae42    0f4b            ldr         r3,[DAT_0007ae80]                       ;= 20002C88h
ram:0007ae44    0546            mov         r5,param_1                              
ram:0007ae46    0520            movs        param_1,#0x5                            
ram:0007ae48    1c78            ldrb        r4,[r3,#0x0]=>DAT_20002c88              
ram:0007ae4a    5e78            ldrb        r6,[r3,#0x1]=>DAT_20002c89              
ram:0007ae4c    a642            cmp         r6,r4                                   
ram:0007ae4e    16d0            beq         LAB_0007ae7e                            
ram:0007ae50    1c78            ldrb        r4,[r3,#0x0]=>DAT_20002c88              
ram:0007ae52    1878            ldrb        param_1,[r3,#0x0]=>DAT_20002c88         
ram:0007ae54    9e88            ldrh        r6,[r3,#0x4]=>DAT_20002c8c              
ram:0007ae56    b042            cmp         param_1,r6                              
ram:0007ae58    01da            bge         LAB_0007ae5e                            
ram:0007ae5a    401c            adds        param_1,param_1,#0x1                    
ram:0007ae5c    00e0            b           LAB_0007ae60                            
                            LAB_0007ae5e:                 ;XREF[1,0]:   0007ae58
ram:0007ae5e    0020            movs        param_1,#0x0                            
                            LAB_0007ae60:                 ;XREF[1,0]:   0007ae5c
ram:0007ae60    1870            strb        param_1,[r3,#0x0]=>DAT_20002c88         
ram:0007ae62    5e88            ldrh        r6,[r3,#0x2]=>DAT_20002c8a              
ram:0007ae64    d868            ldr         param_1,[r3,#0xc]=>DAT_20002c94         
ram:0007ae66    04fb0600        mla         param_1,r4,r6,param_1                   
ram:0007ae6a    2860            str         param_1,[r5,#0x0]                       
ram:0007ae6c    9868            ldr         param_1,[r3,#0x8]=>DAT_20002c90         
ram:0007ae6e    00ebc403        add.w       r3,param_1,r4, lsl #0x3                 
ram:0007ae72    9b88            ldrh        r3,[r3,#0x4]                            
ram:0007ae74    0b80            strh        r3,[param_2,#0x0]                       
ram:0007ae76    50f83400        ldr.w       param_1,param_1,r4,0x3                  
ram:0007ae7a    1060            str         param_1,[param_3,#0x0]                  
ram:0007ae7c    0020            movs        param_1,#0x0                            
                            LAB_0007ae7e:                 ;XREF[1,0]:   0007ae4e
ram:0007ae7e    70bd            pop         {r4,r5,r6,pc}                           
                            DAT_0007ae80:                 ;XREF[1,0]:   0007ae42
ram:0007ae80    882c0020        undefined4  20002C88h                               
                            ;************************************************************************************************
                            ;*                                           FUNCTION                                           *
                            ;************************************************************************************************
                            ;undefined4 FUN_0007ae84(undefined4 * param_1, uint param_2, undefined4 param_3, uint param_4)
          ;param_1       undefined4 *        r0                      
          ;param_2       uint                r1                      
          ;param_3       undefined4          r2                      
          ;param_4       uint                r3                      
          ;local_28      undefined1         -28                      ;XREF[3,0]:   0007ae9c,0007aebc,0007aed6
                                                          ;XREF[2,0]:   0007afb8,0007d4fe
ram:0007ae84    2de9f84f        push        {param_4,r4,r5,r6,r7,r8,r9,r10,r11,lr}  
ram:0007ae88    254c            ldr         r4,[DAT_0007af20]                       ;= 20002C88h
ram:0007ae8a    8146            mov         r9,param_1                              
ram:0007ae8c    9246            mov         r10,param_3                             
ram:0007ae8e    6088            ldrh        param_1,[r4,#0x2]=>DAT_20002c8a         
ram:0007ae90    0e46            mov         r6,param_2                              
ram:0007ae92    8142            cmp         param_2,param_1                         
ram:0007ae94    41d8            bhi         LAB_0007af1a                            
ram:0007ae96    0027            movs        r7,#0x0                                 
ram:0007ae98    4ff6ff78        movw        r8,#0xffff                              
ram:0007ae9c    8df80070        strb.w      r7,[sp,#0x0]=>local_28                  
ram:0007aea0    6846            mov         param_1,sp                              
ram:0007aea2    00f03ff9        bl          FUN_0007b124                            ;undefined FUN_0007b124(undefined * p...
ram:0007aea6    2278            ldrb        param_3,[r4,#0x0]=>DAT_20002c88         
ram:0007aea8    6078            ldrb        param_1,[r4,#0x1]=>DAT_20002c89         
ram:0007aeaa    a188            ldrh        param_2,[r4,#0x4]=>DAT_20002c8c         
ram:0007aeac    8842            cmp         param_1,param_2                         
ram:0007aeae    01da            bge         LAB_0007aeb4                            
ram:0007aeb0    401c            adds        param_1,param_1,#0x1                    
ram:0007aeb2    00e0            b           LAB_0007aeb6                            
                            LAB_0007aeb4:                 ;XREF[1,0]:   0007aeae
ram:0007aeb4    0020            movs        param_1,#0x0                            
                            LAB_0007aeb6:                 ;XREF[1,0]:   0007aeb2
ram:0007aeb6    c0b2            uxtb        param_1,param_1                         
ram:0007aeb8    9042            cmp         param_1,param_3                         
ram:0007aeba    04d1            bne         LAB_0007aec6                            
ram:0007aebc    9df80000        ldrb.w      param_1,[sp,#0x0]=>local_28             
ram:0007aec0    00f054f9        bl          FUN_0007b16c                            ;undefined FUN_0007b16c(int param_1)
ram:0007aec4    27e0            b           LAB_0007af16                            
                            LAB_0007aec6:                 ;XREF[1,0]:   0007aeba
ram:0007aec6    6578            ldrb        r5,[r4,#0x1]=>DAT_20002c89              
ram:0007aec8    6078            ldrb        param_1,[r4,#0x1]=>DAT_20002c89         
ram:0007aeca    8842            cmp         param_1,param_2                         
ram:0007aecc    01da            bge         LAB_0007aed2                            
ram:0007aece    401c            adds        param_1,param_1,#0x1                    
ram:0007aed0    00e0            b           LAB_0007aed4                            
                            LAB_0007aed2:                 ;XREF[1,0]:   0007aecc
ram:0007aed2    0020            movs        param_1,#0x0                            
                            LAB_0007aed4:                 ;XREF[1,0]:   0007aed0
ram:0007aed4    6070            strb        param_1,[r4,#0x1]=>DAT_20002c89         
ram:0007aed6    9df80000        ldrb.w      param_1,[sp,#0x0]=>local_28             
ram:0007aeda    00f047f9        bl          FUN_0007b16c                            ;undefined FUN_0007b16c(int param_1)
ram:0007aede    4545            cmp         r5,r8                                   
ram:0007aee0    19d0            beq         LAB_0007af16                            
ram:0007aee2    a068            ldr         param_1,[r4,#0x8]=>DAT_20002c90         
ram:0007aee4    b9f1000f        cmp.w       r9,#0x0                                 
ram:0007aee8    40f835a0        str.w       r10,param_1,r5,0x3                      
ram:0007aeec    0dd0            beq         LAB_0007af0a                            
ram:0007aeee    66b1            cbz         r6,LAB_0007af0a                         
ram:0007aef0    6188            ldrh        param_2,[r4,#0x2]=>DAT_20002c8a         
ram:0007aef2    e068            ldr         param_1,[r4,#0xc]=>DAT_20002c94         
ram:0007aef4    3246            mov         param_3,r6                              
ram:0007aef6    05fb0100        mla         param_1,r5,param_2,param_1              
ram:0007aefa    4946            mov         param_2,r9                              
ram:0007aefc    fff73efb        bl          FUN_0007a57c                            ;undefined FUN_0007a57c(undefined4 * ...
ram:0007af00    a068            ldr         param_1,[r4,#0x8]=>DAT_20002c90         
ram:0007af02    00ebc500        add.w       param_1,param_1,r5, lsl #0x3            
ram:0007af06    8680            strh        r6,[param_1,#0x4]                       
ram:0007af08    02e0            b           LAB_0007af10                            
                            LAB_0007af0a:                 ;XREF[2,0]:   0007aeec,0007aeee
ram:0007af0a    00ebc500        add.w       param_1,param_1,r5, lsl #0x3            
ram:0007af0e    8780            strh        r7,[param_1,#0x4]                       
                            LAB_0007af10:                 ;XREF[1,0]:   0007af08
ram:0007af10    0020            movs        param_1,#0x0                            
                            LAB_0007af12:                 ;XREF[2,0]:   0007af18,0007af1c
ram:0007af12    bde8f88f        pop.w       {param_4,r4,r5,r6,r7,r8,r9,r10,r11,pc}  
                            LAB_0007af16:                 ;XREF[2,0]:   0007aec4,0007aee0
ram:0007af16    0420            movs        param_1,#0x4                            
ram:0007af18    fbe7            b           LAB_0007af12                            
                            LAB_0007af1a:                 ;XREF[1,0]:   0007ae94
ram:0007af1a    0920            movs        param_1,#0x9                            
ram:0007af1c    f9e7            b           LAB_0007af12                            
ram:0007af1e    0000            movs        r0,r0                                   
                            DAT_0007af20:                 ;XREF[1,0]:   0007ae88
ram:0007af20    882c0020        undefined4  20002C88h                               
                            ;************************************************************************************************
                            ;*                                           FUNCTION                                           *
                            ;************************************************************************************************
                            ;undefined FUN_0007af24(undefined4 param_1, int param_2, uint param_3, undefined * param_4)
          ;param_1       undefined4          r0                      
          ;param_2       int                 r1                      
          ;param_3       uint                r2                      
          ;param_4       undefined *         r3                      
          ;local_8       undefined4          -8                      ;XREF[1,0]:   0007af28
          ;local_c       undefined2          -c                      ;XREF[1,0]:   0007af2a
          ;local_10      undefined4         -10                      ;XREF[1,0]:   0007af2e
                                                          ;XREF[1,0]:   0007d8e0
ram:0007af24    0eb5            push        {param_2,param_3,param_4,lr}            
ram:0007af26    04e0            b           LAB_0007af32                            
                            LAB_0007af28:                 ;XREF[1,0]:   0007af3e
ram:0007af28    029a            ldr         param_3=>local_8,[sp,#0x8]              
ram:0007af2a    bdf80410        ldrh.w      param_2=>local_c,[sp,#0x4]              
ram:0007af2e    0098            ldr         param_1,[sp,#0x0]=>local_10             
ram:0007af30    9047            blx         param_3                                 
                            LAB_0007af32:                 ;XREF[1,0]:   0007af26
ram:0007af32    02aa            add         param_3,sp,#0x8                         
ram:0007af34    01a9            add         param_2,sp,#0x4                         
ram:0007af36    6846            mov         param_1,sp                              
ram:0007af38    fff782ff        bl          FUN_0007ae40                            ;undefined4 FUN_0007ae40(int * param_...
ram:0007af3c    0028            cmp         param_1,#0x0                            
ram:0007af3e    f3d0            beq         LAB_0007af28                            
ram:0007af40    0ebd            pop         {param_2,param_3,param_4,pc}            
ram:0007af42    0000            movs        r0,r0                                   
                            ;************************************************************************************************
                            ;*                                           FUNCTION                                           *
                            ;************************************************************************************************
                            ;undefined4 FUN_0007af44(undefined2 param_1, short param_2, uint param_3)
          ;param_1       undefined2          r0                      
          ;param_2       short               r1                      
          ;param_3       uint                r2                      
                                                          ;XREF[1,0]:   0007d300
ram:0007af44    30b5            push        {r4,r5,lr}                              
ram:0007af46    cb00            lsls        r3,param_2,#0x3                         
ram:0007af48    0833            adds        r3,#0x8                                 
ram:0007af4a    9db2            uxth        r5,r3                                   
ram:0007af4c    9307            lsls        r3,param_3,#0x1e                        
ram:0007af4e    4ff00004        mov.w       r4,#0x0                                 
ram:0007af52    01d0            beq         LAB_0007af58                            
ram:0007af54    0720            movs        param_1,#0x7                            
ram:0007af56    30bd            pop         {r4,r5,pc}                              
                            LAB_0007af58:                 ;XREF[1,0]:   0007af52
ram:0007af58    044b            ldr         r3,[DAT_0007af6c]                       ;= 20002C88h
ram:0007af5a    9a60            str         param_3,[r3,#0x8]=>DAT_20002c90         
ram:0007af5c    2a44            add         param_3,r5                              
ram:0007af5e    da60            str         param_3,[r3,#0xc]=>DAT_20002c94         
ram:0007af60    5c70            strb        r4,[r3,#0x1]=>DAT_20002c89              
ram:0007af62    1c70            strb        r4,[r3,#0x0]=>DAT_20002c88              
ram:0007af64    5880            strh        param_1,[r3,#0x2]=>DAT_20002c8a         
ram:0007af66    9980            strh        param_2,[r3,#0x4]=>DAT_20002c8c         
ram:0007af68    0020            movs        param_1,#0x0                            
ram:0007af6a    30bd            pop         {r4,r5,pc}                              
                            DAT_0007af6c:                 ;XREF[1,0]:   0007af58
ram:0007af6c    882c0020        undefined4  20002C88h                               
                            ;************************************************************************************************
                            ;*                                           FUNCTION                                           *
                            ;************************************************************************************************
                            ;undefined4 FUN_0007af70(int * param_1, undefined param_2, int param_3)
          ;param_1       int *               r0                      
          ;param_2       undefined           r1                      
          ;param_3       int                 r2                      
                                                          ;XREF[2,0]:   0007b24a,0007c024
ram:0007af70    074b            ldr         r3,[DAT_0007af90]                       ;= 20002CA0h
ram:0007af72    9b68            ldr         r3,[r3,#0x8]=>DAT_20002ca8              
ram:0007af74    23b1            cbz         r3,LAB_0007af80                         
ram:0007af76    2ab1            cbz         param_3,LAB_0007af84                    
ram:0007af78    20b1            cbz         param_1,LAB_0007af84                    
ram:0007af7a    0068            ldr         param_1,[param_1,#0x0]=>DAT_0007d90c    ;= 2000304Ch
ram:0007af7c    037c            ldrb        r3,[param_1,#0x10]=>DAT_2000305c        
ram:0007af7e    1bb1            cbz         r3,LAB_0007af88                         
                            LAB_0007af80:                 ;XREF[1,0]:   0007af74
ram:0007af80    0820            movs        param_1,#0x8                            
ram:0007af82    7047            bx          lr                                      
                            LAB_0007af84:                 ;XREF[2,0]:   0007af76,0007af78
ram:0007af84    0720            movs        param_1,#0x7                            
ram:0007af86    7047            bx          lr                                      
                            LAB_0007af88:                 ;XREF[1,0]:   0007af7e
ram:0007af88    4174            strb        param_2,[param_1,#0x11]=>DAT_2000305d   
ram:0007af8a    4261            str         param_3,[param_1,#0x14]=>DAT_20003060   
ram:0007af8c    0020            movs        param_1,#0x0                            
ram:0007af8e    7047            bx          lr                                      
                            DAT_0007af90:                 ;XREF[1,0]:   0007af70
ram:0007af90    a02c0020        undefined4  20002CA0h                               
                            ;************************************************************************************************
                            ;*                                           FUNCTION                                           *
                            ;************************************************************************************************
                            ;undefined FUN_0007af94(undefined * * param_1, int param_2)
          ;param_1       undefined * *       r0                      
          ;param_2       int                 r1                      
ram:0007af94    10b5            push        {r4,lr}                                 
ram:0007af96    0446            mov         r4,param_1                              
ram:0007af98    0829            cmp         param_2,#0x8                            
ram:0007af9a    02d0            beq         LAB_0007afa2                            
ram:0007af9c    0020            movs        param_1,#0x0                            
ram:0007af9e    fff731ff        bl          FUN_0007ae04                            ;undefined FUN_0007ae04(void)
                            LAB_0007afa2:                 ;XREF[1,0]:   0007af9a
ram:0007afa2    d4e90010        ldrd        param_2,param_1,[r4,#0x0]               
ram:0007afa6    bde81040        pop.w       {r4,lr}                                 
ram:0007afaa    0847            bx          param_2                                 
                            ;************************************************************************************************
                            ;*                                           FUNCTION                                           *
                            ;************************************************************************************************
                            ;undefined LAB_0007afac+1(undefined4 param_1, undefined4 param_2, undefined4 param_3, uint param_4)
          ;param_1       undefined4          r0                      
          ;param_2       undefined4          r1                      
          ;param_3       undefined4          r2                      
          ;param_4       uint                r3                      
          ;local_10      undefined4         -10                      ;XREF[1,0]:   0007afb0
                                                          ;XREF[0,2]:   0007cb96,0007cc58
ram:0007afac    1cb5            push        {param_3,param_4,r4,lr}                 
ram:0007afae    044a            ldr         param_3,[DAT_0007afc0]                  ;= 0007AF95h
ram:0007afb0    cde90001        strd        param_1,param_2,[sp,#0x0]=>local_10     
ram:0007afb4    0821            movs        param_2,#0x8                            
ram:0007afb6    6846            mov         param_1,sp                              
ram:0007afb8    fff764ff        bl          FUN_0007ae84                            ;undefined4 FUN_0007ae84(undefined4 *...
ram:0007afbc    1cbd            pop         {param_3,param_4,r4,pc}                 
ram:0007afbe    0000            movs        r0,r0                                   
                            DAT_0007afc0:                 ;XREF[1,0]:   0007afae
ram:0007afc0    95af0700        undefined4  0007AF95h                               ;?  ->  0007af95
                            ;************************************************************************************************
                            ;*                                           FUNCTION                                           *
                            ;************************************************************************************************
                            ;undefined4 FUN_0007afc4(undefined4 param_1, int param_2, uint param_3, undefined4 param_4)
          ;param_1       undefined4          r0                      
          ;param_2       int                 r1                      
          ;param_3       uint                r2                      
          ;param_4       undefined4          r3                      
                                                          ;XREF[1,0]:   0007cb9e
ram:0007afc4    2de9f047        push        {r4,r5,r6,r7,r8,r9,r10,lr}              
ram:0007afc8    8046            mov         r8,param_1                              
ram:0007afca    9946            mov         r9,param_4                              
ram:0007afcc    1446            mov         r4,param_3                              
ram:0007afce    0f46            mov         r7,param_2                              
ram:0007afd0    9007            lsls        param_1,param_3,#0x1e                   
ram:0007afd2    4ff00006        mov.w       r6,#0x0                                 
ram:0007afd6    34d1            bne         LAB_0007b042                            
ram:0007afd8    1c4d            ldr         r5,[DAT_0007b04c]                       ;= 20002CA0h
ram:0007afda    8cb3            cbz         r4,LAB_0007b040                         
ram:0007afdc    02f06ef9        bl          FUN_0007d2bc                            ;undefined FUN_0007d2bc(void)
ram:0007afe0    0320            movs        param_1,#0x3                            
ram:0007afe2    c5f81490        str.w       r9,[r5,#0x14]=>DAT_20002cb4             
ram:0007afe6    2870            strb        param_1,[r5,#0x0]=>DAT_20002ca0         
ram:0007afe8    04f11800        add.w       param_1,r4,#0x18                        
ram:0007afec    0021            movs        param_2,#0x0                            
ram:0007afee    07eb4703        add.w       param_4,r7,r7, lsl #0x1                 
ram:0007aff2    ac60            str         r4,[r5,#0x8]=>DAT_20002ca8              
                            LAB_0007aff4:                 ;XREF[1,0]:   0007b008
ram:0007aff4    04ebc102        add.w       param_3,r4,param_2, lsl #0x3            
ram:0007aff8    491c            adds        param_2,param_2,#0x1                    
ram:0007affa    1670            strb        r6,[param_3,#0x0]                       
ram:0007affc    5670            strb        r6,[param_3,#0x1]                       
ram:0007affe    9770            strb        r7,[param_3,#0x2]                       
ram:0007b000    5060            str         param_1,[param_3,#0x4]                  
ram:0007b002    00ebc300        add.w       param_1,param_1,param_4, lsl #0x3       
ram:0007b006    0329            cmp         param_2,#0x3                            
ram:0007b008    f4db            blt         LAB_0007aff4                            
ram:0007b00a    ee60            str         r6,[r5,#0xc]=>DAT_20002cac              
ram:0007b00c    6e70            strb        r6,[r5,#0x1]=>DAT_20002ca1              
ram:0007b00e    ae70            strb        r6,[r5,#0x2]=>DAT_20002ca2              
ram:0007b010    1420            movs        param_1,#0x14                           
ram:0007b012    fff725fb        bl          FUN_0007a660                            ;undefined FUN_0007a660(uint param_1)
ram:0007b016    0621            movs        param_2,#0x6                            
ram:0007b018    1420            movs        param_1,#0x14                           
ram:0007b01a    fff742fb        bl          FUN_0007a6a2                            ;undefined FUN_0007a6a2(uint param_1,...
ram:0007b01e    1420            movs        param_1,#0x14                           
ram:0007b020    fff729fb        bl          FUN_0007a676                            ;undefined FUN_0007a676(uint param_1)
ram:0007b024    0a49            ldr         param_2,[DAT_0007b050]                  ;= 40011508h
ram:0007b026    c1f80080        str.w       r8,[param_2,#0x0]=>DAT_40011508         
ram:0007b02a    0621            movs        param_2,#0x6                            
ram:0007b02c    1120            movs        param_1,#0x11                           
ram:0007b02e    fff738fb        bl          FUN_0007a6a2                            ;undefined FUN_0007a6a2(uint param_1,...
ram:0007b032    0748            ldr         param_1,[DAT_0007b050]                  ;= 40011508h
ram:0007b034    001f            subs        param_1,param_1,#0x4                    
ram:0007b036    0068            ldr         param_1,[param_1,#0x0]=>DAT_40011504    
ram:0007b038    2861            str         param_1,[r5,#0x10]=>DAT_20002cb0        
ram:0007b03a    0020            movs        param_1,#0x0                            
                            LAB_0007b03c:                 ;XREF[1,0]:   0007b044
ram:0007b03c    bde8f087        pop.w       {r4,r5,r6,r7,r8,r9,r10,pc}              
                            LAB_0007b040:                 ;XREF[1,0]:   0007afda
ram:0007b040    01e0            b           LAB_0007b046                            
                            LAB_0007b042:                 ;XREF[2,0]:   0007afd6,0007b048
ram:0007b042    0720            movs        param_1,#0x7                            
ram:0007b044    fae7            b           LAB_0007b03c                            
                            LAB_0007b046:                 ;XREF[1,0]:   0007b040
ram:0007b046    ae60            str         r6,[r5,#0x8]=>DAT_20002ca8              
ram:0007b048    fbe7            b           LAB_0007b042                            
ram:0007b04a    0000            movs        r0,r0                                   
                            DAT_0007b04c:                 ;XREF[1,0]:   0007afd8
ram:0007b04c    a02c0020        undefined4  20002CA0h                               
                            DAT_0007b050:                 ;XREF[2,0]:   0007b024,0007b032
ram:0007b050    08150140        undefined4  40011508h                               
                            ;************************************************************************************************
                            ;*                                           FUNCTION                                           *
                            ;************************************************************************************************
                            ;undefined4 FUN_0007b054(int param_1, uint param_2, undefined4 param_3, undefined4 param_4)
          ;param_1       int                 r0                      
          ;param_2       uint                r1                      
          ;param_3       undefined4          r2                      
          ;param_4       undefined4          r3                      
          ;local_20      undefined1         -20                      ;XREF[1,0]:   0007b0ae
                                                          ;XREF[3,0]:   0007bb76,0007c036,0007c57e
ram:0007b054    2de9f843        push        {param_4,r4,r5,r6,r7,r8,r9,lr}          
ram:0007b058    dff87090        ldr.w       r9,[DAT_0007b0cc]                       ;= 20002CA0h
ram:0007b05c    0d46            mov         r5,param_2                              
ram:0007b05e    1746            mov         r7,param_3                              
ram:0007b060    d9f80810        ldr.w       param_2,[r9,#0x8]=>DAT_20002ca8         
ram:0007b064    0446            mov         r4,param_1                              
ram:0007b066    51b3            cbz         param_2,LAB_0007b0be                    
ram:0007b068    4cb3            cbz         r4,LAB_0007b0be                         
ram:0007b06a    052d            cmp         r5,#0x5                                 
ram:0007b06c    02d2            bcs         LAB_0007b074                            
ram:0007b06e    0720            movs        param_1,#0x7                            
                            LAB_0007b070:                 ;XREF[3,0]:   0007b0bc,0007b0c0,0007b0c8
ram:0007b070    bde8f883        pop.w       {param_4,r4,r5,r6,r7,r8,r9,pc}          
                            LAB_0007b074:                 ;XREF[1,0]:   0007b06c
ram:0007b074    6069            ldr         param_1,[r4,#0x14]                      
ram:0007b076    10b3            cbz         param_1,LAB_0007b0be                    
ram:0007b078    607c            ldrb        param_1,[r4,#0x11]                      
ram:0007b07a    0128            cmp         param_1,#0x1                            
ram:0007b07c    21d0            beq         LAB_0007b0c2                            
ram:0007b07e    0026            movs        r6,#0x0                                 
                            LAB_0007b080:                 ;XREF[1,0]:   0007b0c4
ram:0007b080    02f08efb        bl          FUN_0007d7a0                            ;undefined4 FUN_0007d7a0(void)
ram:0007b084    d9f80810        ldr.w       param_2,[r9,#0x8]=>DAT_20002ca8         
ram:0007b088    8046            mov         r8,param_1                              
ram:0007b08a    01ebc800        add.w       param_1,param_2,r8, lsl #0x3            
ram:0007b08e    6946            mov         param_2,sp                              
ram:0007b090    02f0a5fb        bl          FUN_0007d7de                            ;int FUN_0007d7de(char * param_1, cha...
ram:0007b094    b8b1            cbz         param_1,LAB_0007b0c6                    
ram:0007b096    0121            movs        param_2,#0x1                            
ram:0007b098    00f8041b        strb.w      param_2,[param_1],#0x4                  
ram:0007b09c    0c49            ldr         param_2,[DAT_0007b0d0]                  ;= 40011504h
ram:0007b09e    10c0            stmia       param_1!,{r4}                           
ram:0007b0a0    0968            ldr         param_2,[param_2,#0x0]=>DAT_40011504    
ram:0007b0a2    80e8e200        stm         param_1,{param_2,r5,r6,r7}              
ram:0007b0a6    d9f80810        ldr.w       param_2,[r9,#0x8]=>DAT_20002ca8         
ram:0007b0aa    01ebc800        add.w       param_1,param_2,r8, lsl #0x3            
ram:0007b0ae    9df80010        ldrb.w      param_2,[sp,#0x0]=>local_20             
ram:0007b0b2    4170            strb        param_2,[param_1,#0x1]                  
ram:0007b0b4    1420            movs        param_1,#0x14                           
ram:0007b0b6    fff7e9fa        bl          FUN_0007a68c                            ;undefined FUN_0007a68c(uint param_1)
ram:0007b0ba    0020            movs        param_1,#0x0                            
ram:0007b0bc    d8e7            b           LAB_0007b070                            
                            LAB_0007b0be:                 ;XREF[3,0]:   0007b066,0007b068,0007b076
ram:0007b0be    0820            movs        param_1,#0x8                            
ram:0007b0c0    d6e7            b           LAB_0007b070                            
                            LAB_0007b0c2:                 ;XREF[1,0]:   0007b07c
ram:0007b0c2    2e46            mov         r6,r5                                   
ram:0007b0c4    dce7            b           LAB_0007b080                            
                            LAB_0007b0c6:                 ;XREF[1,0]:   0007b094
ram:0007b0c6    0420            movs        param_1,#0x4                            
ram:0007b0c8    d2e7            b           LAB_0007b070                            
ram:0007b0ca    0000            movs        r0,r0                                   
                            DAT_0007b0cc:                 ;XREF[1,0]:   0007b058
ram:0007b0cc    a02c0020        undefined4  20002CA0h                               
                            DAT_0007b0d0:                 ;XREF[1,0]:   0007b09c
ram:0007b0d0    04150140        undefined4  40011504h                               
                            ;************************************************************************************************
                            ;*                                           FUNCTION                                           *
                            ;************************************************************************************************
                            ;undefined4 FUN_0007b0d4(int param_1, undefined4 param_2, undefined4 param_3, undefined4 param_4)
          ;param_1       int                 r0                      
          ;param_2       undefined4          r1                      
          ;param_3       undefined4          r2                      
          ;param_4       undefined4          r3                      
          ;local_18      undefined1         -18                      ;XREF[1,0]:   0007b104
                                                          ;XREF[4,0]:   0007b2ba,0007b2e8,0007bf6e,0007c56c
ram:0007b0d4    f8b5            push        {param_4,r4,r5,r6,r7,lr}                
ram:0007b0d6    124e            ldr         r6,[DAT_0007b120]                       ;= 20002CA0h
ram:0007b0d8    0446            mov         r4,param_1                              
ram:0007b0da    b168            ldr         param_2,[r6,#0x8]=>DAT_20002ca8         
ram:0007b0dc    e1b1            cbz         param_2,LAB_0007b118                    
ram:0007b0de    dcb1            cbz         r4,LAB_0007b118                         
ram:0007b0e0    6069            ldr         param_1,[r4,#0x14]                      
ram:0007b0e2    c8b1            cbz         param_1,LAB_0007b118                    
ram:0007b0e4    0027            movs        r7,#0x0                                 
ram:0007b0e6    2774            strb        r7,[r4,#0x10]                           
ram:0007b0e8    02f05afb        bl          FUN_0007d7a0                            ;undefined4 FUN_0007d7a0(void)
ram:0007b0ec    0546            mov         r5,param_1                              
ram:0007b0ee    b068            ldr         param_1,[r6,#0x8]=>DAT_20002ca8         
ram:0007b0f0    6946            mov         param_2,sp                              
ram:0007b0f2    00ebc500        add.w       param_1,param_1,r5, lsl #0x3            
ram:0007b0f6    02f072fb        bl          FUN_0007d7de                            ;int FUN_0007d7de(char * param_1, cha...
ram:0007b0fa    78b1            cbz         param_1,LAB_0007b11c                    
ram:0007b0fc    0221            movs        param_2,#0x2                            
ram:0007b0fe    0170            strb        param_2,[param_1,#0x0]                  
ram:0007b100    4460            str         r4,[param_1,#0x4]                       
ram:0007b102    b068            ldr         param_1,[r6,#0x8]=>DAT_20002ca8         
ram:0007b104    9df80010        ldrb.w      param_2,[sp,#0x0]=>local_18             
ram:0007b108    00ebc500        add.w       param_1,param_1,r5, lsl #0x3            
ram:0007b10c    4170            strb        param_2,[param_1,#0x1]                  
ram:0007b10e    1420            movs        param_1,#0x14                           
ram:0007b110    fff7bcfa        bl          FUN_0007a68c                            ;undefined FUN_0007a68c(uint param_1)
ram:0007b114    3846            mov         param_1,r7                              
ram:0007b116    f8bd            pop         {param_4,r4,r5,r6,r7,pc}                
                            LAB_0007b118:                 ;XREF[3,0]:   0007b0dc,0007b0de,0007b0e2
ram:0007b118    0820            movs        param_1,#0x8                            
ram:0007b11a    f8bd            pop         {param_4,r4,r5,r6,r7,pc}                
                            LAB_0007b11c:                 ;XREF[1,0]:   0007b0fa
ram:0007b11c    0420            movs        param_1,#0x4                            
ram:0007b11e    f8bd            pop         {param_4,r4,r5,r6,r7,pc}                
                            DAT_0007b120:                 ;XREF[1,0]:   0007b0d6
ram:0007b120    a02c0020        undefined4  20002CA0h                               
                            ;************************************************************************************************
                            ;*                                           FUNCTION                                           *
                            ;************************************************************************************************
                            ;undefined FUN_0007b124(undefined * param_1)
          ;param_1       undefined *         r0                      
                                                          ;XREF[1,0]:   0007aea2
ram:0007b124    30b5            push        {r4,r5,lr}                              
ram:0007b126    eff31081        mrs         r1,primask                              
ram:0007b12a    72b6            cpsid       i                                       
ram:0007b12c    0d4a            ldr         r2,[DAT_0007b164]                       ;= 20003428h
ram:0007b12e    9468            ldr         r4,[r2,#0x8]=>DAT_20003430              
ram:0007b130    0123            movs        r3,#0x1                                 
ram:0007b132    24b1            cbz         r4,LAB_0007b13e                         
ram:0007b134    0370            strb        r3,[param_1,#0x0]                       
                            LAB_0007b136:                 ;XREF[1,0]:   0007b162
ram:0007b136    0029            cmp         r1,#0x0                                 
ram:0007b138    00d1            bne         LAB_0007b13c                            
ram:0007b13a    62b6            cpsie       i                                       
                            LAB_0007b13c:                 ;XREF[1,0]:   0007b138
ram:0007b13c    30bd            pop         {r4,r5,pc}                              
                            LAB_0007b13e:                 ;XREF[1,0]:   0007b132
ram:0007b13e    9360            str         r3,[r2,#0x8]=>DAT_20003430              
ram:0007b140    4ff0e023        mov.w       r3,#0xe000e000                          
ram:0007b144    d3f88051        ldr.w       r5,[r3,#0x180]=>DAT_e000e180            
ram:0007b148    074c            ldr         r4,[DAT_0007b168]                       ;= BCFF06FCh
ram:0007b14a    2540            ands        r5,r4                                   
ram:0007b14c    1560            str         r5,[r2,#0x0]=>DAT_20003428              
ram:0007b14e    c3f88041        str.w       r4,[r3,#0x180]=>DAT_e000e180            
ram:0007b152    d3f88441        ldr.w       r4,[r3,#0x184]=>DAT_e000e184            
ram:0007b156    5460            str         r4,[r2,#0x4]=>DAT_2000342c              
ram:0007b158    5a17            asrs        r2,r3,#0x1d                             
ram:0007b15a    c3f88421        str.w       r2,[r3,#0x184]=>DAT_e000e184            
ram:0007b15e    0022            movs        r2,#0x0                                 
ram:0007b160    0270            strb        r2,[param_1,#0x0]                       
ram:0007b162    e8e7            b           LAB_0007b136                            
                            DAT_0007b164:                 ;XREF[1,0]:   0007b12c
ram:0007b164    28340020        undefined4  20003428h                               
                            DAT_0007b168:                 ;XREF[1,0]:   0007b148
ram:0007b168    fc06ffbc        undefined4  BCFF06FCh                               
                            ;************************************************************************************************
                            ;*                                           FUNCTION                                           *
                            ;************************************************************************************************
                            ;undefined FUN_0007b16c(int param_1)
          ;param_1       int                 r0                      
                                                          ;XREF[2,0]:   0007aec0,0007aeda
ram:0007b16c    0b49            ldr         r1,[DAT_0007b19c]                       ;= 20003428h
ram:0007b16e    8a68            ldr         r2,[r1,#0x8]=>DAT_20003430              
ram:0007b170    002a            cmp         r2,#0x0                                 
ram:0007b172    11d0            beq         LAB_0007b198                            
ram:0007b174    0028            cmp         param_1,#0x0                            
ram:0007b176    0fd1            bne         LAB_0007b198                            
ram:0007b178    eff31080        mrs         param_1,primask                         
ram:0007b17c    72b6            cpsid       i                                       
ram:0007b17e    0b68            ldr         r3,[r1,#0x0]=>DAT_20003428              
ram:0007b180    4ff0e022        mov.w       r2,#0xe000e000                          
ram:0007b184    c2f80031        str.w       r3,[r2,#0x100]=>DAT_e000e100            
ram:0007b188    4b68            ldr         r3,[r1,#0x4]=>DAT_2000342c              
ram:0007b18a    c2f80431        str.w       r3,[r2,#0x104]=>DAT_e000e104            
ram:0007b18e    0022            movs        r2,#0x0                                 
ram:0007b190    8a60            str         r2,[r1,#0x8]=>DAT_20003430              
ram:0007b192    0028            cmp         param_1,#0x0                            
ram:0007b194    00d1            bne         LAB_0007b198                            
ram:0007b196    62b6            cpsie       i                                       
                            LAB_0007b198:                 ;XREF[3,0]:   0007b172,0007b176,0007b194
ram:0007b198    7047            bx          lr                                      
ram:0007b19a    0000            movs        r0,r0                                   
                            DAT_0007b19c:                 ;XREF[1,0]:   0007b16c
ram:0007b19c    28340020        undefined4  20003428h                               
                            ;************************************************************************************************
                            ;*                                           FUNCTION                                           *
                            ;************************************************************************************************
                            ;byte * FUN_0007b1a0(byte * param_1, byte * param_2)
          ;param_1       byte *              r0                      
          ;param_2       byte *              r1                      
          ;local_5c      undefined2         -5c                      ;XREF[3,0]:   0007b1ae,0007b1f2,0007b1f6
          ;local_60      undefined2         -60                      ;XREF[3,0]:   0007b1aa,0007b1ce,0007b1fc
                                                          ;XREF[1,0]:   0007ac78
ram:0007b1a0    f0b5            push        {r4,r5,r6,r7,lr}                        
ram:0007b1a2    0c46            mov         r4,param_2                              
ram:0007b1a4    93b0            sub         sp,#0x4c                                
ram:0007b1a6    1f21            movs        param_2,#0x1f                           
ram:0007b1a8    0726            movs        r6,#0x7                                 
ram:0007b1aa    adf80010        strh.w      param_2,[sp,#0x0]=>local_60             
ram:0007b1ae    adf80410        strh.w      param_2,[sp,#local_5c+0x60]             
ram:0007b1b2    0027            movs        r7,#0x0                                 
ram:0007b1b4    50b1            cbz         param_1,LAB_0007b1cc                    
ram:0007b1b6    c178            ldrb        param_2,[param_1,#0x3]                  
ram:0007b1b8    4907            lsls        param_2,param_2,#0x1d                   
ram:0007b1ba    0dd5            bpl         LAB_0007b1d8                            
ram:0007b1bc    6a46            mov         r2,sp                                   
ram:0007b1be    02a9            add         param_2,sp,#0x8                         
ram:0007b1c0    fff730fc        bl          FUN_0007aa24                            ;byte * FUN_0007aa24(byte * param_1, ...
ram:0007b1c4    0028            cmp         param_1,#0x0                            
ram:0007b1c6    08d1            bne         LAB_0007b1da                            
ram:0007b1c8    02ad            add         r5,sp,#0x8                              
ram:0007b1ca    02e0            b           LAB_0007b1d2                            
                            LAB_0007b1cc:                 ;XREF[1,0]:   0007b1b4
ram:0007b1cc    0025            movs        r5,#0x0                                 
ram:0007b1ce    adf80070        strh.w      r7,[sp,#0x0]=>local_60                  
                            LAB_0007b1d2:                 ;XREF[1,0]:   0007b1ca
ram:0007b1d2    6cb1            cbz         r4,LAB_0007b1f0                         
ram:0007b1d4    e078            ldrb        param_1,[r4,#0x3]                       
ram:0007b1d6    10b1            cbz         param_1,LAB_0007b1de                    
                            LAB_0007b1d8:                 ;XREF[1,0]:   0007b1ba
ram:0007b1d8    3046            mov         param_1,r6                              
                            LAB_0007b1da:                 ;XREF[3,0]:   0007b1c6,0007b1ea,0007b206
ram:0007b1da    13b0            add         sp,#0x4c                                
ram:0007b1dc    f0bd            pop         {r4,r5,r6,r7,pc}                        
                            LAB_0007b1de:                 ;XREF[1,0]:   0007b1d6
ram:0007b1de    01aa            add         r2,sp,#0x4                              
ram:0007b1e0    0aa9            add         param_2,sp,#0x28                        
ram:0007b1e2    2046            mov         param_1,r4                              
ram:0007b1e4    fff71efc        bl          FUN_0007aa24                            ;byte * FUN_0007aa24(byte * param_1, ...
ram:0007b1e8    0028            cmp         param_1,#0x0                            
ram:0007b1ea    f6d1            bne         LAB_0007b1da                            
ram:0007b1ec    0aaa            add         r2,sp,#0x28                             
ram:0007b1ee    02e0            b           LAB_0007b1f6                            
                            LAB_0007b1f0:                 ;XREF[1,0]:   0007b1d2
ram:0007b1f0    0022            movs        r2,#0x0                                 
ram:0007b1f2    adf80470        strh.w      r7,[sp,#local_5c+0x60]                  
                            LAB_0007b1f6:                 ;XREF[1,0]:   0007b1ee
ram:0007b1f6    bdf80400        ldrh.w      param_1,[sp,#local_5c+0x60]             
ram:0007b1fa    c3b2            uxtb        r3,param_1                              
ram:0007b1fc    bdf80000        ldrh.w      param_1,[sp,#0x0]=>local_60             
ram:0007b200    c1b2            uxtb        param_2,param_1                         
ram:0007b202    2846            mov         param_1,r5                              
ram:0007b204    72df            svc         0x72                                    
ram:0007b206    e8e7            b           LAB_0007b1da                            
                            ;************************************************************************************************
                            ;*                                           FUNCTION                                           *
                            ;************************************************************************************************
                            ;undefined FUN_0007b208(int * param_1)
          ;param_1       int *               r0                      
                                                          ;XREF[1,0]:   0007c6a4
ram:0007b208    70b5            push        {r4,r5,r6,lr}                           
ram:0007b20a    0546            mov         r5,param_1                              
ram:0007b20c    0146            mov         r1,param_1                              
ram:0007b20e    1c22            movs        r2,#0x1c                                
ram:0007b210    0f48            ldr         param_1,[DAT_0007b250]                  ;= 2000306Ch
ram:0007b212    fff7b3f9        bl          FUN_0007a57c                            ;undefined FUN_0007a57c(undefined4 * ...
ram:0007b216    0f4c            ldr         r4,[DAT_0007b254]                       ;= 20002C08h
ram:0007b218    0026            movs        r6,#0x0                                 
ram:0007b21a    2670            strb        r6,[r4,#0x0]=>DAT_20002c08              
ram:0007b21c    2868            ldr         param_1,[r5,#0x0]                       
ram:0007b21e    30b1            cbz         param_1,LAB_0007b22e                    
ram:0007b220    0168            ldr         r1,[param_1,#0x0]                       
ram:0007b222    6160            str         r1,[r4,#0x4]=>DAT_20002c0c              
ram:0007b224    4068            ldr         param_1,[param_1,#0x4]                  
ram:0007b226    a060            str         param_1,[r4,#0x8]=>DAT_20002c10         
ram:0007b228    201d            adds        param_1=>DAT_20002c0c,r4,#0x4           
ram:0007b22a    7adf            svc         0x7a                                    
ram:0007b22c    02e0            b           LAB_0007b234                            
                            LAB_0007b22e:                 ;XREF[1,0]:   0007b21e
ram:0007b22e    0948            ldr         param_1,[DAT_0007b254]                  ;= 20002C08h
ram:0007b230    001d            adds        param_1,param_1,#0x4                    
ram:0007b232    7bdf            svc         0x7b                                    
                            LAB_0007b234:                 ;XREF[1,0]:   0007b22c
ram:0007b234    0028            cmp         param_1,#0x0                            
ram:0007b236    0ad1            bne         LAB_0007b24e                            
ram:0007b238    4ff6ff70        movw        param_1,#0xffff                         
ram:0007b23c    6080            strh        param_1,[r4,#0x2]=>DAT_20002c0a         
ram:0007b23e    6670            strb        r6,[r4,#0x1]=>DAT_20002c09              
ram:0007b240    bde87040        pop.w       {r4,r5,r6,lr}                           
ram:0007b244    044a            ldr         r2,[DAT_0007b258]                       ;= 0007D741h
ram:0007b246    0021            movs        r1,#0x0                                 
ram:0007b248    0448            ldr         param_1=>DAT_0007d90c,[PTR_DAT_0007b25c];= 2000304Ch
                                                                                    ;= 0007d90c
ram:0007b24a    fff791be        b.w         FUN_0007af70                            ;undefined4 FUN_0007af70(int * param_...
                            LAB_0007b24e:                 ;XREF[1,0]:   0007b236
ram:0007b24e    70bd            pop         {r4,r5,r6,pc}                           
                            DAT_0007b250:                 ;XREF[1,0]:   0007b210
ram:0007b250    6c300020        undefined4  2000306Ch                               
                            DAT_0007b254:                 ;XREF[2,0]:   0007b216,0007b22e
ram:0007b254    082c0020        undefined4  20002C08h                               
                            DAT_0007b258:                 ;XREF[1,0]:   0007b244
ram:0007b258    41d70700        undefined4  0007D741h                               ;?  ->  0007d741
                            PTR_DAT_0007b25c:             ;XREF[1,0]:   0007b248
ram:0007b25c    0cd90700        addr        DAT_0007d90c                            ;= 2000304Ch
                            ;************************************************************************************************
                            ;*                                           FUNCTION                                           *
                            ;************************************************************************************************
                            ;undefined FUN_0007b260(short * param_1)
          ;param_1       short *             r0                      
          ;local_18      undefined1         -18                      ;XREF[2,0]:   0007bb54,0007bb64
                                                          ;XREF[1,0]:   0007b5b4
ram:0007b260    70b5            push        {r4,r5,r6,lr}                           
ram:0007b262    1e4c            ldr         r4,[DAT_0007b2dc]                       ;= 2000306Ch
ram:0007b264    0688            ldrh        r6,[param_1,#0x0]                       
ram:0007b266    0025            movs        r5,#0x0                                 
ram:0007b268    1b49            ldr         r1=>DAT_20002c08,[DAT_0007b2d8]         ;= 20002C08h
ram:0007b26a    e289            ldrh        r2,[r4,#0xe]=>DAT_2000307a              
ram:0007b26c    102e            cmp         r6,#0x10                                
ram:0007b26e    15d0            beq         LAB_0007b29c                            
ram:0007b270    1b4b            ldr         r3=>DAT_0007d90c,[PTR_DAT_0007b2e0]     ;= 2000304Ch
                                                                                    ;= 0007d90c
ram:0007b272    112e            cmp         r6,#0x11                                
ram:0007b274    1cd0            beq         LAB_0007b2b0                            
ram:0007b276    122e            cmp         r6,#0x12                                
ram:0007b278    29d0            beq         LAB_0007b2ce                            
ram:0007b27a    502e            cmp         r6,#0x50                                
ram:0007b27c    17d1            bne         LAB_0007b2ae                            
ram:0007b27e    30f8061f        ldrh.w      r1,[param_1,#0x6]!                      
ram:0007b282    9142            cmp         r1,r2                                   
ram:0007b284    13d1            bne         LAB_0007b2ae                            
ram:0007b286    4189            ldrh        r1,[param_1,#0xa]                       
ram:0007b288    0229            cmp         r1,#0x2                                 
ram:0007b28a    10d1            bne         LAB_0007b2ae                            
ram:0007b28c    007b            ldrb        param_1,[param_1,#0xc]                  
ram:0007b28e    10f0010f        tst         param_1,#0x1                            
ram:0007b292    11d0            beq         LAB_0007b2b8                            
                            LAB_0007b294:                 ;XREF[2,0]:   0007b2ac,0007b2d6
ram:0007b294    bde87040        pop.w       {r4,r5,r6,lr}                           
ram:0007b298    00f050bc        b.w         LAB_0007bb3c                            
                            LAB_0007b29c:                 ;XREF[1,0]:   0007b26e
ram:0007b29c    8388            ldrh        r3,[param_1,#0x4]                       
ram:0007b29e    4b80            strh        r3,[r1,#0x2]=>DAT_20002c0a              
ram:0007b2a0    0369            ldr         r3,[param_1,#0x10]                      
ram:0007b2a2    cb60            str         r3,[r1,#0xc]=>DAT_20002c14              
ram:0007b2a4    4069            ldr         param_1,[param_1,#0x14]                 
ram:0007b2a6    0861            str         param_1,[r1,#0x10]=>DAT_20002c18        
ram:0007b2a8    4d70            strb        r5,[r1,#0x1]=>DAT_20002c09              
ram:0007b2aa    002a            cmp         r2,#0x0                                 
ram:0007b2ac    f2d0            beq         LAB_0007b294                            
                            LAB_0007b2ae:                 ;XREF[5,0]:   0007b27c,0007b284,0007b28a,0007b2c0
                                                          ;             0007b2c6
ram:0007b2ae    70bd            pop         {r4,r5,r6,pc}                           
                            LAB_0007b2b0:                 ;XREF[1,0]:   0007b274
ram:0007b2b0    4ff6ff70        movw        param_1,#0xffff                         
ram:0007b2b4    4880            strh        param_1,[r1,#0x2]=>DAT_20002c0a         
ram:0007b2b6    4d70            strb        r5,[r1,#0x1]=>DAT_20002c09              
                            LAB_0007b2b8:                 ;XREF[1,0]:   0007b292
ram:0007b2b8    1868            ldr         param_1,[r3,#0x0]=>DAT_0007d90c         ;= 2000304Ch
ram:0007b2ba    fff70bff        bl          FUN_0007b0d4                            ;undefined4 FUN_0007b0d4(int param_1,...
ram:0007b2be    0028            cmp         param_1,#0x0                            
ram:0007b2c0    f5d0            beq         LAB_0007b2ae                            
ram:0007b2c2    a169            ldr         r1,[r4,#0x18]=>DAT_20003084             
ram:0007b2c4    0029            cmp         r1,#0x0                                 
ram:0007b2c6    f2d0            beq         LAB_0007b2ae                            
ram:0007b2c8    bde87040        pop.w       {r4,r5,r6,lr}                           
ram:0007b2cc    0847            bx          r1                                      
                            LAB_0007b2ce:                 ;XREF[1,0]:   0007b278
ram:0007b2ce    8268            ldr         r2,[param_1,#0x8]                       
ram:0007b2d0    ca60            str         r2,[r1,#0xc]=>DAT_20002c14              
ram:0007b2d2    c068            ldr         param_1,[param_1,#0xc]                  
ram:0007b2d4    0861            str         param_1,[r1,#0x10]=>DAT_20002c18        
ram:0007b2d6    dde7            b           LAB_0007b294                            
                            DAT_0007b2d8:                 ;XREF[1,0]:   0007b268
ram:0007b2d8    082c0020        undefined4  20002C08h                               
                            DAT_0007b2dc:                 ;XREF[1,0]:   0007b262
ram:0007b2dc    6c300020        undefined4  2000306Ch                               
                            PTR_DAT_0007b2e0:             ;XREF[1,0]:   0007b270
ram:0007b2e0    0cd90700        addr        DAT_0007d90c                            ;= 2000304Ch
                            ;************************************************************************************************
                            ;*                                           FUNCTION                                           *
                            ;************************************************************************************************
                            ;undefined FUN_0007b2e4(undefined4 param_1, undefined4 param_2, undefined4 param_3, undefined4 param_4)
          ;param_1       undefined4          r0                      
          ;param_2       undefined4          r1                      
          ;param_3       undefined4          r2                      
          ;param_4       undefined4          r3                      
                                                          ;XREF[1,0]:   0007c5c6
ram:0007b2e4    0148            ldr         param_1,[PTR_DAT_0007b2ec]              ;= 0007d90c
ram:0007b2e6    0068            ldr         param_1,[param_1,#0x0]=>DAT_0007d90c    ;= 2000304Ch
ram:0007b2e8    fff7f4be        b.w         FUN_0007b0d4                            ;undefined4 FUN_0007b0d4(int param_1,...
                            PTR_DAT_0007b2ec:             ;XREF[1,0]:   0007b2e4
ram:0007b2ec    0cd90700        addr        DAT_0007d90c                            ;= 2000304Ch
                            ;************************************************************************************************
                            ;*                                           FUNCTION                                           *
                            ;************************************************************************************************
                            ;byte * FUN_0007b2f0(int param_1, ushort * param_2, uint param_3, undefined4 param_4)
          ;param_1       int                 r0                      
          ;param_2       ushort *            r1                      
          ;param_3       uint                r2                      
          ;param_4       undefined4          r3                      
          ;local_13      undefined2         -13                      ;XREF[1,0]:   0007b32c
          ;local_17      undefined4         -17                      ;XREF[1,0]:   0007b326
          ;local_18      undefined1         -18                      ;XREF[1,0]:   0007b33a
                                                          ;XREF[1,0]:   0007aac8
ram:0007b2f0    7cb5            push        {param_3,param_4,r4,r5,r6,lr}           
ram:0007b2f2    0546            mov         r5,param_1                              
ram:0007b2f4    0888            ldrh        param_1,[param_2,#0x0]                  
ram:0007b2f6    0c46            mov         r4,param_2                              
ram:0007b2f8    0930            adds        param_1,#0x9                            
ram:0007b2fa    9042            cmp         param_1,param_3                         
ram:0007b2fc    01d9            bls         LAB_0007b302                            
ram:0007b2fe    0c20            movs        param_1,#0xc                            
                            LAB_0007b300:                 ;XREF[1,0]:   0007b308
ram:0007b300    7cbd            pop         {param_3,param_4,r4,r5,r6,pc}           
                            LAB_0007b302:                 ;XREF[1,0]:   0007b2fc
ram:0007b302    6846            mov         param_1,sp                              
ram:0007b304    6ddf            svc         0x6d                                    
ram:0007b306    0028            cmp         param_1,#0x0                            
ram:0007b308    fad1            bne         LAB_0007b300                            
ram:0007b30a    2188            ldrh        param_2,[r4,#0x0]                       
ram:0007b30c    0820            movs        param_1,#0x8                            
ram:0007b30e    6854            strb        param_1,[r5,param_2]                    
ram:0007b310    2088            ldrh        param_1,[r4,#0x0]                       
ram:0007b312    1b21            movs        param_2,#0x1b                           
ram:0007b314    401c            adds        param_1,param_1,#0x1                    
ram:0007b316    80b2            uxth        param_1,param_1                         
ram:0007b318    2080            strh        param_1,[r4,#0x0]                       
ram:0007b31a    2954            strb        param_2,[r5,param_1]                    
ram:0007b31c    2088            ldrh        param_1,[r4,#0x0]                       
ram:0007b31e    401c            adds        param_1,param_1,#0x1                    
ram:0007b320    80b2            uxth        param_1,param_1                         
ram:0007b322    2080            strh        param_1,[r4,#0x0]                       
ram:0007b324    2844            add         param_1,r5                              
ram:0007b326    ddf80110        ldr.w       param_2,[sp,#local_17+0x18]             
ram:0007b32a    0160            str         param_2,[param_1,#0x0]                  
ram:0007b32c    bdf80510        ldrh.w      param_2,[sp,#local_13+0x18]             
ram:0007b330    8180            strh        param_2,[param_1,#0x4]                  
ram:0007b332    2088            ldrh        param_1,[r4,#0x0]                       
ram:0007b334    801d            adds        param_1,param_1,#0x6                    
ram:0007b336    80b2            uxth        param_1,param_1                         
ram:0007b338    2080            strh        param_1,[r4,#0x0]                       
ram:0007b33a    9df80010        ldrb.w      param_2,[sp,#0x0]=>local_18             
ram:0007b33e    4908            lsrs        param_2,param_2,#0x1                    
ram:0007b340    00d0            beq         LAB_0007b344                            
ram:0007b342    0121            movs        param_2,#0x1                            
                            LAB_0007b344:                 ;XREF[1,0]:   0007b340
ram:0007b344    2954            strb        param_2,[r5,param_1]                    
ram:0007b346    2088            ldrh        param_1,[r4,#0x0]                       
ram:0007b348    401c            adds        param_1,param_1,#0x1                    
ram:0007b34a    2080            strh        param_1,[r4,#0x0]                       
ram:0007b34c    0020            movs        param_1,#0x0                            
ram:0007b34e    7cbd            pop         {param_3,param_4,r4,r5,r6,pc}           
                            ;************************************************************************************************
                            ;*                                           FUNCTION                                           *
                            ;************************************************************************************************
                            ;undefined8 FUN_0007b350(ushort * param_1, undefined * param_2)
          ;param_1       ushort *            r0                      
          ;param_2       undefined *         r1                      
          ;local_18      undefined2         -18                      ;XREF[3,0]:   0007b37c,0007b38a,0007b392
          ;local_1c      undefined4         -1c                      ;XREF[1,0]:   0007b39a
          ;local_20      undefined4         -20                      ;XREF[2,0]:   0007b398,0007b3a4
          ;local_24      undefined4         -24                      ;XREF[2,0]:   0007b396,0007b3ac
          ;local_28      undefined4         -28                      ;XREF[2,1]:   0007b38e,0007b39e,0007b3a8
                                                          ;XREF[1,0]:   0007d0f6
ram:0007b350    f0b5            push        {r4,r5,r6,r7,lr}                        
ram:0007b352    85b0            sub         sp,#0x14                                
ram:0007b354    0a46            mov         r2,param_2                              
ram:0007b356    0500            movs        r5,param_1                              
ram:0007b358    2fd0            beq         LAB_0007b3ba                            
ram:0007b35a    2888            ldrh        param_1,[r5,#0x0]                       
ram:0007b35c    a0f57f41        sub.w       param_2,param_1,#0xff00                 
ram:0007b360    ff39            subs        param_2,#0xff                           
ram:0007b362    2cd0            beq         LAB_0007b3be                            
ram:0007b364    1748            ldr         param_1,[DAT_0007b3c4]                  ;= 20002C1Ch
ram:0007b366    0078            ldrb        param_1,[param_1,#0x0]=>DAT_20002c1c    
ram:0007b368    48b3            cbz         param_1,LAB_0007b3be                    
ram:0007b36a    164c            ldr         r4,[DAT_0007b3c4]                       ;= 20002C1Ch
ram:0007b36c    1020            movs        param_1,#0x10                           
ram:0007b36e    641c            adds        r4,r4,#0x1                              
ram:0007b370    0127            movs        r7,#0x1                                 
ram:0007b372    2070            strb        param_1,[r4,#0x0]=>DAT_20002c1d         
ram:0007b374    0720            movs        param_1,#0x7                            
ram:0007b376    6070            strb        param_1,[r4,#0x1]=>DAT_20002c1e         
ram:0007b378    a770            strb        r7,[r4,#0x2]=>DAT_20002c1f              
ram:0007b37a    0320            movs        param_1,#0x3                            
ram:0007b37c    adf81000        strh.w      param_1,[sp,#local_18+0x28]             
ram:0007b380    0026            movs        r6,#0x0                                 
ram:0007b382    e11c            adds        param_2,r4,#0x3                         
ram:0007b384    1046            mov         param_1,r2                              
ram:0007b386    02f0d2f9        bl          FUN_0007d72e                            ;undefined4 FUN_0007d72e(undefined4 p...
ram:0007b38a    bdf81010        ldrh.w      param_2,[sp,#local_18+0x28]             
ram:0007b38e    0096            str         r6,[sp,#0x0]=>local_28                  
ram:0007b390    0844            add         param_1,param_2                         
ram:0007b392    adf81000        strh.w      param_1,[sp,#local_18+0x28]             
ram:0007b396    0196            str         r6,[sp,#local_24+0x28]                  
ram:0007b398    0296            str         r6,[sp,#local_20+0x28]                  
ram:0007b39a    0396            str         r6,[sp,#local_1c+0x28]                  
ram:0007b39c    288a            ldrh        param_1,[r5,#0x10]                      
ram:0007b39e    adf80000        strh.w      param_1,[sp,#0x0]=>local_28             
ram:0007b3a2    04a8            add         param_1,sp,#0x10                        
ram:0007b3a4    cde90204        strd        param_1,r4=>DAT_2000...,[sp,#local_20...
ram:0007b3a8    8df80270        strb.w      r7,[sp,#local_28+0x2a]                  
ram:0007b3ac    adf80460        strh.w      r6,[sp,#local_24+0x28]                  
ram:0007b3b0    2888            ldrh        param_1,[r5,#0x0]                       
ram:0007b3b2    6946            mov         param_2,sp                              
ram:0007b3b4    a6df            svc         0xa6                                    
                            LAB_0007b3b6:                 ;XREF[2,0]:   0007b3bc,0007b3c0
ram:0007b3b6    05b0            add         sp,#0x14                                
ram:0007b3b8    f0bd            pop         {r4,r5,r6,r7,pc}                        
                            LAB_0007b3ba:                 ;XREF[1,0]:   0007b358
ram:0007b3ba    0e20            movs        param_1,#0xe                            
ram:0007b3bc    fbe7            b           LAB_0007b3b6                            
                            LAB_0007b3be:                 ;XREF[2,0]:   0007b362,0007b368
ram:0007b3be    0820            movs        param_1,#0x8                            
ram:0007b3c0    f9e7            b           LAB_0007b3b6                            
ram:0007b3c2    0000            movs        r0,r0                                   
                            DAT_0007b3c4:                 ;XREF[2,0]:   0007b364,0007b36a
ram:0007b3c4    1c2c0020        undefined4  20002C1Ch                               
                            ;************************************************************************************************
                            ;*                                           FUNCTION                                           *
                            ;************************************************************************************************
                            ;undefined8 FUN_0007b3c8(undefined2 * param_1, undefined * param_2)
          ;param_1       undefined2 *        r0                      
          ;param_2       undefined *         r1                      
          ;local_1c      undefined4         -1c                      ;XREF[1,0]:   0007b3e6
          ;local_1e      undefined1         -1e                      ;XREF[1,0]:   0007b408
          ;local_20      undefined2         -20                      ;XREF[1,0]:   0007b3ee
                                                          ;XREF[1,0]:   0007c66e
ram:0007b3c8    30b5            push        {r4,r5,lr}                              
ram:0007b3ca    85b0            sub         sp,#0x14                                
ram:0007b3cc    0d46            mov         r5,param_2                              
ram:0007b3ce    0400            movs        r4,param_1                              
ram:0007b3d0    39d0            beq         LAB_0007b446                            
ram:0007b3d2    bdb3            cbz         r5,LAB_0007b444                         
ram:0007b3d4    6868            ldr         param_1,[r5,#0x4]                       
ram:0007b3d6    a8b3            cbz         param_1,LAB_0007b444                    
ram:0007b3d8    1c4b            ldr         r3,[PTR_DAT_0007b44c]                   ;= 0007d910
ram:0007b3da    4ff6ff70        movw        param_1,#0xffff                         
ram:0007b3de    2080            strh        param_1,[r4,#0x0]                       
                                                          ; FWD[4,0]:   0007d910,0007d914,0007d918,0007d91c
ram:0007b3e0    0fcb            ldmia       r3,{param_1,param_2,r2,r3}=>DAT_0007d910;= EABCD123h
                                                                                    ;= 1523785Fh
                                                                                    ;= 1212EFDEh
ram:0007b3e2    0df1040c        add.w       r12,sp,#0x4                             
ram:0007b3e6    8ce80f00        stm         r12=>local_1c,{param_1,param_2,r2,r3}   
ram:0007b3ea    41f23050        movw        param_1,#0x1530                         
ram:0007b3ee    adf80000        strh.w      param_1,[sp,#0x0]=>local_20             
ram:0007b3f2    01a8            add         param_1,sp,#0x4                         
ram:0007b3f4    811e            subs        param_2,param_1,#0x2                    
ram:0007b3f6    63df            svc         0x63                                    
ram:0007b3f8    0028            cmp         param_1,#0x0                            
ram:0007b3fa    21d1            bne         LAB_0007b440                            
ram:0007b3fc    221d            adds        r2,r4,#0x4                              
ram:0007b3fe    6946            mov         param_2,sp                              
ram:0007b400    0120            movs        param_1,#0x1                            
ram:0007b402    a0df            svc         0xa0                                    
ram:0007b404    0028            cmp         param_1,#0x0                            
ram:0007b406    1bd1            bne         LAB_0007b440                            
ram:0007b408    9df80200        ldrb.w      param_1,[sp,#local_1e+0x20]             
ram:0007b40c    a071            strb        param_1,[r4,#0x6]                       
ram:0007b40e    2046            mov         param_1,r4                              
ram:0007b410    00f0b8fe        bl          FUN_0007c184                            ;undefined8 FUN_0007c184(int param_1)
ram:0007b414    0028            cmp         param_1,#0x0                            
ram:0007b416    13d1            bne         LAB_0007b440                            
ram:0007b418    2046            mov         param_1,r4                              
ram:0007b41a    00f006fd        bl          FUN_0007be2a                            ;undefined8 FUN_0007be2a(int param_1)
ram:0007b41e    0028            cmp         param_1,#0x0                            
ram:0007b420    0ed1            bne         LAB_0007b440                            
ram:0007b422    2946            mov         param_2,r5                              
ram:0007b424    2046            mov         param_1,r4                              
ram:0007b426    00f03dff        bl          FUN_0007c2a4                            ;undefined8 FUN_0007c2a4(int param_1)
ram:0007b42a    0028            cmp         param_1,#0x0                            
ram:0007b42c    08d1            bne         LAB_0007b440                            
ram:0007b42e    6868            ldr         param_1,[r5,#0x4]                       
ram:0007b430    a062            str         param_1,[r4,#0x28]                      
ram:0007b432    a868            ldr         param_1,[r5,#0x8]                       
ram:0007b434    00b1            cbz         param_1,LAB_0007b438                    
ram:0007b436    e062            str         param_1,[r4,#0x2c]                      
                            LAB_0007b438:                 ;XREF[1,0]:   0007b434
ram:0007b438    0549            ldr         param_2,[DAT_0007b450]                  ;= 20002C1Ch
ram:0007b43a    0120            movs        param_1,#0x1                            
ram:0007b43c    0870            strb        param_1,[param_2,#0x0]=>DAT_20002c1c    
ram:0007b43e    0020            movs        param_1,#0x0                            
                            LAB_0007b440:                 ;XREF[6,0]:   0007b3fa,0007b406,0007b416,0007b420
                                                          ;             0007b42c,0007b448
ram:0007b440    05b0            add         sp,#0x14                                
ram:0007b442    30bd            pop         {r4,r5,pc}                              
                            LAB_0007b444:                 ;XREF[2,0]:   0007b3d2,0007b3d6
ram:0007b444    ffe7            b           LAB_0007b446                            
                            LAB_0007b446:                 ;XREF[2,0]:   0007b3d0,0007b444
ram:0007b446    0e20            movs        param_1,#0xe                            
ram:0007b448    fae7            b           LAB_0007b440                            
ram:0007b44a    0000            movs        r0,r0                                   
                            PTR_DAT_0007b44c:             ;XREF[1,0]:   0007b3d8
ram:0007b44c    10d90700        addr        DAT_0007d910                            ;= EABCD123h
                            DAT_0007b450:                 ;XREF[1,0]:   0007b438
ram:0007b450    1c2c0020        undefined4  20002C1Ch                               
                            ;************************************************************************************************
                            ;*                                           FUNCTION                                           *
                            ;************************************************************************************************
                            ;undefined FUN_0007b454(ushort * param_1, short * param_2, undefined4 param_3, uint param_4)
          ;param_1       ushort *            r0                      
          ;param_2       short *             r1                      
          ;param_3       undefined4          r2                      
          ;param_4       uint                r3                      
          ;local_10      undefined1         -10                      ;XREF[1,0]:   0007b4c8
          ;local_14      undefined4         -14                      ;XREF[1,0]:   0007b4cc
          ;local_18      undefined1         -18                      ;XREF[1,0]:   0007b4c0
                                                          ;XREF[1,0]:   0007b5bc
ram:0007b454    3eb5            push        {param_2,param_3,param_4,r4,r5,lr}      
ram:0007b456    0028            cmp         param_1,#0x0                            
ram:0007b458    3cd0            beq         LAB_0007b4d4                            
ram:0007b45a    0029            cmp         param_2,#0x0                            
ram:0007b45c    3ad0            beq         LAB_0007b4d4                            
ram:0007b45e    826a            ldr         param_3,[param_1,#0x28]                 
ram:0007b460    002a            cmp         param_3,#0x0                            
ram:0007b462    37d0            beq         LAB_0007b4d4                            
ram:0007b464    0a88            ldrh        param_3,[param_2,#0x0]                  
ram:0007b466    102a            cmp         param_3,#0x10                           
ram:0007b468    23d0            beq         LAB_0007b4b2                            
ram:0007b46a    112a            cmp         param_3,#0x11                           
ram:0007b46c    33d0            beq         LAB_0007b4d6                            
ram:0007b46e    502a            cmp         param_3,#0x50                           
ram:0007b470    21d0            beq         LAB_0007b4b6                            
ram:0007b472    512a            cmp         param_3,#0x51                           
ram:0007b474    2ed1            bne         LAB_0007b4d4                            
ram:0007b476    0446            mov         r4,param_1                              
ram:0007b478    0a46            mov         param_3,param_2                         
ram:0007b47a    11f8060f        ldrb.w      param_1,[param_2,#0x6]!                 
ram:0007b47e    0228            cmp         param_1,#0x2                            
ram:0007b480    28d1            bne         LAB_0007b4d4                            
ram:0007b482    4888            ldrh        param_1,[param_2,#0x2]                  
ram:0007b484    238a            ldrh        param_4,[r4,#0x10]                      
ram:0007b486    9842            cmp         param_1,param_4                         
ram:0007b488    24d1            bne         LAB_0007b4d4                            
ram:0007b48a    907b            ldrb        param_1,[param_3,#0xe]                  
ram:0007b48c    0428            cmp         param_1,#0x4                            
ram:0007b48e    21d0            beq         LAB_0007b4d4                            
ram:0007b490    0628            cmp         param_1,#0x6                            
ram:0007b492    1fd0            beq         LAB_0007b4d4                            
ram:0007b494    0528            cmp         param_1,#0x5                            
ram:0007b496    1dd0            beq         LAB_0007b4d4                            
ram:0007b498    2046            mov         param_1,r4                              
ram:0007b49a    891c            adds        param_2,param_2,#0x2                    
ram:0007b49c    01f04afd        bl          FUN_0007cf34                            ;uint FUN_0007cf34(ushort * param_1, ...
ram:0007b4a0    0028            cmp         param_1,#0x0                            
ram:0007b4a2    17d0            beq         LAB_0007b4d4                            
ram:0007b4a4    e16a            ldr         param_2,[r4,#0x2c]                      
ram:0007b4a6    0029            cmp         param_2,#0x0                            
ram:0007b4a8    14d0            beq         LAB_0007b4d4                            
ram:0007b4aa    03b0            add         sp,#0xc                                 
ram:0007b4ac    bde83040        pop.w       {r4,r5,lr}                              
ram:0007b4b0    0847            bx          param_2                                 
                            LAB_0007b4b2:                 ;XREF[1,0]:   0007b468
ram:0007b4b2    8988            ldrh        param_2,[param_2,#0x4]                  
ram:0007b4b4    11e0            b           LAB_0007b4da                            
                            LAB_0007b4b6:                 ;XREF[1,0]:   0007b470
ram:0007b4b6    ca88            ldrh        param_3,[param_2,#0x6]                  
ram:0007b4b8    0389            ldrh        param_4,[param_1,#0x8]                  
ram:0007b4ba    9a42            cmp         param_3,param_4                         
ram:0007b4bc    0ad1            bne         LAB_0007b4d4                            
ram:0007b4be    0822            movs        param_3,#0x8                            
ram:0007b4c0    8df80020        strb.w      param_3,[sp,#0x0]=>local_18             
ram:0007b4c4    0a7c            ldrb        param_3,[param_2,#0x10]                 
ram:0007b4c6    1231            adds        param_2,#0x12                           
ram:0007b4c8    8df80820        strb.w      param_3,[sp,#local_10+0x18]             
ram:0007b4cc    0191            str         param_2,[sp,#local_14+0x18]             
ram:0007b4ce    826a            ldr         param_3,[param_1,#0x28]                 
ram:0007b4d0    6946            mov         param_2,sp                              
ram:0007b4d2    9047            blx         param_3                                 
                            LAB_0007b4d4:                 ;XREF[12,0]:  0007b458,0007b45c,0007b462,0007b474
                                                          ;             0007b480,0007b488,0007b48e,0007b492
                                                          ;             0007b496,0007b4a2,0007b4a8,0007b4bc
ram:0007b4d4    3ebd            pop         {param_2,param_3,param_4,r4,r5,pc}      
                            LAB_0007b4d6:                 ;XREF[1,0]:   0007b46c
ram:0007b4d6    4ff6ff71        movw        param_2,#0xffff                         
                            LAB_0007b4da:                 ;XREF[1,0]:   0007b4b4
ram:0007b4da    0180            strh        param_2,[param_1,#0x0]                  
ram:0007b4dc    3ebd            pop         {param_2,param_3,param_4,r4,r5,pc}      
ram:0007b4de    0000            movs        r0,r0                                   
                            ;************************************************************************************************
                            ;*                                           FUNCTION                                           *
                            ;************************************************************************************************
                            ;undefined8 FUN_0007b4e0(ushort * param_1, undefined * param_2)
          ;param_1       ushort *            r0                      
          ;param_2       undefined *         r1                      
          ;local_18      undefined2         -18                      ;XREF[3,0]:   0007b506,0007b512,0007b51a
          ;local_1c      undefined4         -1c                      ;XREF[1,0]:   0007b522
          ;local_20      undefined4         -20                      ;XREF[2,0]:   0007b520,0007b52c
          ;local_24      undefined4         -24                      ;XREF[2,0]:   0007b51e,0007b534
          ;local_28      undefined4         -28                      ;XREF[2,1]:   0007b516,0007b526,0007b530
                                                          ;XREF[1,0]:   0007adca
ram:0007b4e0    f0b5            push        {r4,r5,r6,r7,lr}                        
ram:0007b4e2    85b0            sub         sp,#0x14                                
ram:0007b4e4    0a46            mov         r2,param_2                              
ram:0007b4e6    0500            movs        r5,param_1                              
ram:0007b4e8    2bd0            beq         LAB_0007b542                            
ram:0007b4ea    2888            ldrh        param_1,[r5,#0x0]                       
ram:0007b4ec    a0f57f41        sub.w       param_2,param_1,#0xff00                 
ram:0007b4f0    ff39            subs        param_2,#0xff                           
ram:0007b4f2    28d0            beq         LAB_0007b546                            
ram:0007b4f4    1548            ldr         param_1,[DAT_0007b54c]                  ;= 20002C1Ch
ram:0007b4f6    0078            ldrb        param_1,[param_1,#0x0]=>DAT_20002c1c    
ram:0007b4f8    28b3            cbz         param_1,LAB_0007b546                    
ram:0007b4fa    144c            ldr         r4,[DAT_0007b54c]                       ;= 20002C1Ch
ram:0007b4fc    1120            movs        param_1,#0x11                           
ram:0007b4fe    641c            adds        r4,r4,#0x1                              
ram:0007b500    0127            movs        r7,#0x1                                 
ram:0007b502    2070            strb        param_1,[r4,#0x0]=>DAT_20002c1d         
ram:0007b504    0026            movs        r6,#0x0                                 
ram:0007b506    adf81070        strh.w      r7,[sp,#local_18+0x28]                  
ram:0007b50a    611c            adds        param_2=>DAT_20002c1e,r4,#0x1           
ram:0007b50c    1046            mov         param_1,r2                              
ram:0007b50e    02f00ef9        bl          FUN_0007d72e                            ;undefined4 FUN_0007d72e(undefined4 p...
ram:0007b512    bdf81010        ldrh.w      param_2,[sp,#local_18+0x28]             
ram:0007b516    0096            str         r6,[sp,#0x0]=>local_28                  
ram:0007b518    0844            add         param_1,param_2                         
ram:0007b51a    adf81000        strh.w      param_1,[sp,#local_18+0x28]             
ram:0007b51e    0196            str         r6,[sp,#local_24+0x28]                  
ram:0007b520    0296            str         r6,[sp,#local_20+0x28]                  
ram:0007b522    0396            str         r6,[sp,#local_1c+0x28]                  
ram:0007b524    288a            ldrh        param_1,[r5,#0x10]                      
ram:0007b526    adf80000        strh.w      param_1,[sp,#0x0]=>local_28             
ram:0007b52a    04a8            add         param_1,sp,#0x10                        
ram:0007b52c    cde90204        strd        param_1,r4=>DAT_2000...,[sp,#local_20...
ram:0007b530    8df80270        strb.w      r7,[sp,#local_28+0x2a]                  
ram:0007b534    adf80460        strh.w      r6,[sp,#local_24+0x28]                  
ram:0007b538    2888            ldrh        param_1,[r5,#0x0]                       
ram:0007b53a    6946            mov         param_2,sp                              
ram:0007b53c    a6df            svc         0xa6                                    
                            LAB_0007b53e:                 ;XREF[2,0]:   0007b544,0007b548
ram:0007b53e    05b0            add         sp,#0x14                                
ram:0007b540    f0bd            pop         {r4,r5,r6,r7,pc}                        
                            LAB_0007b542:                 ;XREF[1,0]:   0007b4e8
ram:0007b542    0e20            movs        param_1,#0xe                            
ram:0007b544    fbe7            b           LAB_0007b53e                            
                            LAB_0007b546:                 ;XREF[2,0]:   0007b4f2,0007b4f8
ram:0007b546    0820            movs        param_1,#0x8                            
ram:0007b548    f9e7            b           LAB_0007b53e                            
ram:0007b54a    0000            movs        r0,r0                                   
                            DAT_0007b54c:                 ;XREF[2,0]:   0007b4f4,0007b4fa
ram:0007b54c    1c2c0020        undefined4  20002C1Ch                               
                            ;************************************************************************************************
                            ;*                                           FUNCTION                                           *
                            ;************************************************************************************************
                            ;undefined8 FUN_0007b550(ushort * param_1, undefined * param_2, char param_3)
          ;param_1       ushort *            r0                      
          ;param_2       undefined *         r1                      
          ;param_3       char                r2                      
          ;local_10      undefined2         -10                      ;XREF[1,0]:   0007b578
          ;local_14      undefined4         -14                      ;XREF[1,0]:   0007b582
          ;local_18      undefined4         -18                      ;XREF[2,0]:   0007b580,0007b58c
          ;local_1c      undefined4         -1c                      ;XREF[2,0]:   0007b57e,0007b594
          ;local_20      undefined4         -20                      ;XREF[2,1]:   0007b57c,0007b586,0007b590
                                                          ;XREF[7,0]:   0007ad28,0007bdaa,0007bf48,0007c8c8
                                                          ;             0007d008,0007d0a2,0007d5c2
ram:0007b550    30b5            push        {r4,r5,lr}                              
ram:0007b552    85b0            sub         sp,#0x14                                
ram:0007b554    28b3            cbz         param_1,LAB_0007b5a2                    
ram:0007b556    0388            ldrh        r3,[param_1,#0x0]                       
ram:0007b558    a3f57f44        sub.w       r4,r3,#0xff00                           
ram:0007b55c    ff3c            subs        r4,#0xff                                
ram:0007b55e    22d0            beq         LAB_0007b5a6                            
ram:0007b560    124b            ldr         r3,[DAT_0007b5ac]                       ;= 20002C1Ch
ram:0007b562    1b78            ldrb        r3,[r3,#0x0]=>DAT_20002c1c              
ram:0007b564    fbb1            cbz         r3,LAB_0007b5a6                         
ram:0007b566    114b            ldr         r3,[DAT_0007b5ac]                       ;= 20002C1Ch
ram:0007b568    1025            movs        r5,#0x10                                
ram:0007b56a    5b1c            adds        r3,r3,#0x1                              
ram:0007b56c    0024            movs        r4,#0x0                                 
ram:0007b56e    1d70            strb        r5,[r3,#0x0]=>DAT_20002c1d              
ram:0007b570    5970            strb        param_2,[r3,#0x1]=>DAT_20002c1e         
ram:0007b572    9a70            strb        param_3,[r3,#0x2]=>DAT_20002c1f         
ram:0007b574    0125            movs        r5,#0x1                                 
ram:0007b576    0321            movs        param_2,#0x3                            
ram:0007b578    adf81010        strh.w      param_2,[sp,#local_10+0x20]             
ram:0007b57c    0094            str         r4,[sp,#0x0]=>local_20                  
ram:0007b57e    0194            str         r4,[sp,#local_1c+0x20]                  
ram:0007b580    0294            str         r4,[sp,#local_18+0x20]                  
ram:0007b582    0394            str         r4,[sp,#local_14+0x20]                  
ram:0007b584    018a            ldrh        param_2,[param_1,#0x10]                 
ram:0007b586    adf80010        strh.w      param_2,[sp,#0x0]=>local_20             
ram:0007b58a    04a9            add         param_2,sp,#0x10                        
ram:0007b58c    cde90213        strd        param_2,r3=>DAT_2000...,[sp,#local_18...
ram:0007b590    8df80250        strb.w      r5,[sp,#local_20+0x22]                  
ram:0007b594    adf80440        strh.w      r4,[sp,#local_1c+0x20]                  
ram:0007b598    0088            ldrh        param_1,[param_1,#0x0]                  
ram:0007b59a    6946            mov         param_2,sp                              
ram:0007b59c    a6df            svc         0xa6                                    
                            LAB_0007b59e:                 ;XREF[2,0]:   0007b5a4,0007b5a8
ram:0007b59e    05b0            add         sp,#0x14                                
ram:0007b5a0    30bd            pop         {r4,r5,pc}                              
                            LAB_0007b5a2:                 ;XREF[1,0]:   0007b554
ram:0007b5a2    0e20            movs        param_1,#0xe                            
ram:0007b5a4    fbe7            b           LAB_0007b59e                            
                            LAB_0007b5a6:                 ;XREF[2,0]:   0007b55e,0007b564
ram:0007b5a6    0820            movs        param_1,#0x8                            
ram:0007b5a8    f9e7            b           LAB_0007b59e                            
ram:0007b5aa    0000            movs        r0,r0                                   
                            DAT_0007b5ac:                 ;XREF[2,0]:   0007b560,0007b566
ram:0007b5ac    1c2c0020        undefined4  20002C1Ch                               
                            ;************************************************************************************************
                            ;*                                           FUNCTION                                           *
                            ;************************************************************************************************
                            ;ushort * FUN_0007b5b0(ushort * param_1, undefined4 param_2, undefined4 param_3, uint param_4)
          ;param_1       ushort *            r0                      
          ;param_2       undefined4          r1                      
          ;param_3       undefined4          r2                      
          ;param_4       uint                r3                      
          ;local_14      undefined2         -14                      ;XREF[1,0]:   0007cde8
          ;local_68      undefined4         -68                      ;XREF[1,0]:   0007cec2
          ;local_6c      undefined4         -6c                      ;XREF[1,0]:   0007cece
          ;local_7e      undefined1         -7e                      ;XREF[1,0]:   0007ceaa
          ;local_80      undefined2         -80                      ;XREF[1,0]:   0007cea4
          ;local_84      undefined4         -84                      ;XREF[2,0]:   0007cea0,0007cefc
          ;local_94      undefined4         -94                      ;XREF[1,0]:   0007cf02
          ;local_a0      undefined2         -a0                      ;XREF[1,0]:   0007ce54
          ;local_a4      undefined1         -a4                      ;XREF[1,0]:   0007ce4c
          ;local_a8      undefined4         -a8                      ;XREF[1,0]:   0007cf00
ram:0007b5b0    10b5            push        {r4,lr}                                 
ram:0007b5b2    0446            mov         r4,param_1                              
ram:0007b5b4    fff754fe        bl          FUN_0007b260                            ;undefined FUN_0007b260(short * param_1)
ram:0007b5b8    2146            mov         param_2,r4                              
ram:0007b5ba    0448            ldr         param_1,[DAT_0007b5cc]                  ;= 20003280h
ram:0007b5bc    fff74aff        bl          FUN_0007b454                            ;undefined FUN_0007b454(ushort * para...
ram:0007b5c0    2046            mov         param_1,r4                              
ram:0007b5c2    bde81040        pop.w       {r4,lr}                                 
ram:0007b5c6    01f0f9bb        b.w         LAB_0007cdbc                            
ram:0007b5ca    00              ??          00h                                     
ram:0007b5cb    00              ??          00h                                     
                            DAT_0007b5cc:                 ;XREF[1,0]:   0007b5ba
ram:0007b5cc    80320020        undefined4  20003280h                               
                            ;************************************************************************************************
                            ;*                                           FUNCTION                                           *
                            ;************************************************************************************************
                            ;undefined FUN_0007b5d0(int param_1)
          ;param_1       int                 r0                      
          ;local_14      undefined4         -14                      ;XREF[1,0]:   0007b5e4
          ;local_24      undefined4         -24                      ;XREF[1,0]:   0007b5de
          ;local_2c      undefined1         -2c                      ;XREF[1,0]:   0007b622
                                                          ;XREF[2,0]:   0007cbc0,0007cbdc
ram:0007b5d0    30b5            push        {r4,r5,lr}                              
ram:0007b5d2    1c49            ldr         r1,[PTR_DAT_0007b644]                   ;= 0007d8f8
ram:0007b5d4    8db0            sub         sp,#0x34                                
ram:0007b5d6    0a1d            adds        r2,r1,#0x4                              
ram:0007b5d8    0df11c0c        add.w       r12,sp,#0x1c                            
                                                          ; FWD[4,0]:   0007d8fc,0007d900,0007d904,0007d908
ram:0007b5dc    3cca            ldmia       r2,{r2,r3,r4,r5}=>DAT_0007d8fc          ;= 00000002h
ram:0007b5de    8ce83c00        stm         r12=>local_24,{r2,r3,r4,r5}             
ram:0007b5e2    0968            ldr         r1,[r1,#0x0]=>DAT_0007d8f8              ;= 00022000h
ram:0007b5e4    0b91            str         r1,[sp,#local_14+0x40]                  
ram:0007b5e6    20b1            cbz         param_1,LAB_0007b5f2                    
ram:0007b5e8    07a8            add         param_1,sp,#0x1c                        
ram:0007b5ea    18df            svc         0x18                                    
ram:0007b5ec    08b1            cbz         param_1,LAB_0007b5f2                    
ram:0007b5ee    fff709fc        bl          FUN_0007ae04                            ;undefined FUN_0007ae04(void)
                            LAB_0007b5f2:                 ;XREF[2,0]:   0007b5e6,0007b5ec
ram:0007b5f2    4ff4f420        mov.w       param_1=>MasterS...,#MasterStackPointer ;= 20005438
ram:0007b5f6    13df            svc         0x13                                    
ram:0007b5f8    08b1            cbz         param_1,LAB_0007b5fe                    
ram:0007b5fa    fff703fc        bl          FUN_0007ae04                            ;undefined FUN_0007ae04(void)
                            LAB_0007b5fe:                 ;XREF[1,0]:   0007b5f8
ram:0007b5fe    124b            ldr         r3=>LAB_0007d4f8...,[PTR_LAB_0007d4f8...;= 0007d4f9
ram:0007b600    5022            movs        r2,#0x50                                
ram:0007b602    1249            ldr         r1,[DAT_0007b64c]                       ;= 20002EA0h
ram:0007b604    0ba8            add         param_1,sp,#0x2c                        
ram:0007b606    01f081ff        bl          FUN_0007d50c                            ;int FUN_0007d50c(int param_1, uint p...
ram:0007b60a    08b1            cbz         param_1,LAB_0007b610                    
ram:0007b60c    fff7fafb        bl          FUN_0007ae04                            ;undefined FUN_0007ae04(void)
                            LAB_0007b610:                 ;XREF[1,0]:   0007b60a
ram:0007b610    0121            movs        r1,#0x1                                 
ram:0007b612    6a46            mov         r2,sp                                   
ram:0007b614    0846            mov         param_1,r1                              
ram:0007b616    01f053ff        bl          FUN_0007d4c0                            ;undefined4 FUN_0007d4c0(int param_1,...
ram:0007b61a    08b1            cbz         param_1,LAB_0007b620                    
ram:0007b61c    fff7f2fb        bl          FUN_0007ae04                            ;undefined FUN_0007ae04(void)
                            LAB_0007b620:                 ;XREF[1,0]:   0007b61a
ram:0007b620    0120            movs        param_1,#0x1                            
ram:0007b622    8df81400        strb.w      param_1,[sp,#local_2c+0x40]             
ram:0007b626    6846            mov         param_1,sp                              
ram:0007b628    01f040ff        bl          FUN_0007d4ac                            ;undefined FUN_0007d4ac(void)
ram:0007b62c    08b1            cbz         param_1,LAB_0007b632                    
ram:0007b62e    fff7e9fb        bl          FUN_0007ae04                            ;undefined FUN_0007ae04(void)
                            LAB_0007b632:                 ;XREF[1,0]:   0007b62c
ram:0007b632    0748            ldr         param_1=>thunk_F...,[PTR_thunk_FUN_00...;= 0007d5d5
ram:0007b634    01f084ff        bl          FUN_0007d540                            ;undefined4 FUN_0007d540(int param_1)
ram:0007b638    0028            cmp         param_1,#0x0                            
ram:0007b63a    01d0            beq         LAB_0007b640                            
ram:0007b63c    fff7e2fb        bl          FUN_0007ae04                            ;undefined FUN_0007ae04(void)
                            LAB_0007b640:                 ;XREF[1,0]:   0007b63a
ram:0007b640    0db0            add         sp,#0x34                                
ram:0007b642    30bd            pop         {r4,r5,pc}                              
                            PTR_DAT_0007b644:             ;XREF[1,0]:   0007b5d2
ram:0007b644    f8d80700        addr        DAT_0007d8f8                            ;= 00022000h
                            PTR_LAB_0007d4f8+1+1_0007b648:;XREF[1,0]:   0007b5fe
ram:0007b648    f9d40700        addr        LAB_0007d4f8+1+1                        
                            DAT_0007b64c:                 ;XREF[1,0]:   0007b602
ram:0007b64c    a02e0020        undefined4  20002EA0h                               
                            PTR_thunk_FUN_0007d220+1_00...;XREF[1,0]:   0007b632
ram:0007b650    d5d50700        addr        thunk_FUN_0007d220+1                    
                            ;************************************************************************************************
                            ;*                                           FUNCTION                                           *
                            ;************************************************************************************************
                            ;int FUN_0007b654(int * param_1, undefined4 param_2, undefined4 param_3, char * param_4)
          ;param_1       int *               r0                      
          ;param_2       undefined4          r1                      
          ;param_3       undefined4          r2                      
          ;param_4       char *              r3                      
          ;local_10      undefined4         -10                      ;XREF[2,0]:   0007b664,0007b67e
                                                          ;XREF[2,0]:   0007cbf8,0007cc20
ram:0007b654    38b5            push        {param_4,r4,r5,lr}                      
ram:0007b656    0068            ldr         param_1,[param_1,#0x0]                  
ram:0007b658    401c            adds        param_1,param_1,#0x1                    
ram:0007b65a    18d0            beq         LAB_0007b68e                            
ram:0007b65c    0024            movs        r4,#0x0                                 
ram:0007b65e    6846            mov         param_1,sp                              
ram:0007b660    00f05af9        bl          FUN_0007b918                            ;undefined FUN_0007b918(undefined4 * ...
ram:0007b664    0098            ldr         param_1,[sp,#0x0]=>local_10             
ram:0007b666    0178            ldrb        param_2,[param_1,#0x0]                  
ram:0007b668    0129            cmp         param_2,#0x1                            
ram:0007b66a    0fd1            bne         LAB_0007b68c                            
ram:0007b66c    4188            ldrh        param_2,[param_1,#0x2]                  
ram:0007b66e    51b1            cbz         param_2,LAB_0007b686                    
ram:0007b670    8168            ldr         param_2,[param_1,#0x8]                  
ram:0007b672    4ff44050        mov.w       param_1,#0x3000                         
ram:0007b676    0022            movs        param_3,#0x0                            
ram:0007b678    8068            ldr         param_1,[param_1,#offset DAT_00003008...
ram:0007b67a    00f094fa        bl          FUN_0007bba6                            ;uint FUN_0007bba6(int param_1, uint ...
ram:0007b67e    0099            ldr         param_2,[sp,#0x0]=>local_10             
ram:0007b680    4988            ldrh        param_2,[param_2,#0x2]                  
ram:0007b682    8142            cmp         param_2,param_1                         
ram:0007b684    01d1            bne         LAB_0007b68a                            
                            LAB_0007b686:                 ;XREF[1,0]:   0007b66e
ram:0007b686    0124            movs        r4,#0x1                                 
ram:0007b688    00e0            b           LAB_0007b68c                            
                            LAB_0007b68a:                 ;XREF[1,0]:   0007b684
ram:0007b68a    0024            movs        r4,#0x0                                 
                            LAB_0007b68c:                 ;XREF[2,0]:   0007b66a,0007b688
ram:0007b68c    2046            mov         param_1,r4                              
                            LAB_0007b68e:                 ;XREF[1,0]:   0007b65a
ram:0007b68e    38bd            pop         {param_4,r4,r5,pc}                      
                            ;************************************************************************************************
                            ;*                                           FUNCTION                                           *
                            ;************************************************************************************************
                            ;undefined FUN_0007b690(int param_1)
          ;param_1       int                 r0                      
                                                          ;XREF[1,0]:   0007cc2e
ram:0007b690    70b5            push        {r4,r5,r6,lr}                           
ram:0007b692    11df            svc         0x11                                    
ram:0007b694    08b1            cbz         param_1,LAB_0007b69a                    
ram:0007b696    fff7b5fb        bl          FUN_0007ae04                            ;undefined FUN_0007ae04(void)
                            LAB_0007b69a:                 ;XREF[1,0]:   0007b694
ram:0007b69a    4ff0e021        mov.w       r1,#0xe000e000                          
ram:0007b69e    0020            movs        param_1,#0x0                            
ram:0007b6a0    d1f80031        ldr.w       r3,[r1,#0x100]=>DAT_e000e100            
ram:0007b6a4    5ff00104        movs.w      r4,#0x1                                 
                            LAB_0007b6a8:                 ;XREF[1,0]:   0007b6ca
ram:0007b6a8    04fa00f2        lsl.w       r2,r4,param_1                           
ram:0007b6ac    1a42            tst         r2,r3                                   
ram:0007b6ae    0ad0            beq         LAB_0007b6c6                            
ram:0007b6b0    42b2            sxtb        r2,param_1                              
ram:0007b6b2    02f01f05        and         r5,r2,#0x1f                             
ram:0007b6b6    04fa05f1        lsl.w       r1,r4,r5                                
ram:0007b6ba    5209            lsrs        r2,r2,#0x5                              
ram:0007b6bc    9200            lsls        r2,r2,#0x2                              
ram:0007b6be    02f1e022        add.w       r2,r2,#0xe000e000                       
ram:0007b6c2    c2f88011        str.w       r1,[r2,#0x180]=>DAT_e000e180            
                            LAB_0007b6c6:                 ;XREF[1,0]:   0007b6ae
ram:0007b6c6    401c            adds        param_1,param_1,#0x1                    
ram:0007b6c8    2028            cmp         param_1,#0x20                           
ram:0007b6ca    edd3            bcc         LAB_0007b6a8                            
ram:0007b6cc    4ff44054        mov.w       r4,#0x3000                              
ram:0007b6d0    a068            ldr         param_1,[r4,#offset DAT_00003008 &0xff] 
ram:0007b6d2    13df            svc         0x13                                    
ram:0007b6d4    08b1            cbz         param_1,LAB_0007b6da                    
ram:0007b6d6    fff795fb        bl          FUN_0007ae04                            ;undefined FUN_0007ae04(void)
                            LAB_0007b6da:                 ;XREF[1,0]:   0007b6d4
ram:0007b6da    a068            ldr         param_1,[r4,#offset DAT_00003008 &0xff] 
ram:0007b6dc    bde87040        pop.w       {r4,r5,r6,lr}                           
ram:0007b6e0    00f018b9        b.w         LAB_0007b914                            
                            ;************************************************************************************************
                            ;*                                           FUNCTION                                           *
                            ;************************************************************************************************
                            ;undefined4 FUN_0007b6e4(void)
          ;local_8       undefined4          -8                      ;XREF[1,0]:   0007b6ec
                                                          ;XREF[2,0]:   0007cbac,0007cc26
ram:0007b6e4    08b5            push        {r3,lr}                                 
ram:0007b6e6    6846            mov         r0,sp                                   
ram:0007b6e8    00f016f9        bl          FUN_0007b918                            ;undefined FUN_0007b918(undefined4 * ...
ram:0007b6ec    0098            ldr         r0,[sp,#0x0]=>local_8                   
ram:0007b6ee    0178            ldrb        r1,[r0,#0x0]                            
ram:0007b6f0    a529            cmp         r1,#0xa5                                
ram:0007b6f2    04d0            beq         LAB_0007b6fe                            
ram:0007b6f4    0079            ldrb        r0,[r0,#0x4]                            
ram:0007b6f6    aa28            cmp         r0,#0xaa                                
ram:0007b6f8    01d0            beq         LAB_0007b6fe                            
ram:0007b6fa    0020            movs        r0,#0x0                                 
ram:0007b6fc    08bd            pop         {r3,pc}                                 
                            LAB_0007b6fe:                 ;XREF[2,0]:   0007b6f2,0007b6f8
ram:0007b6fe    0120            movs        r0,#0x1                                 
ram:0007b700    08bd            pop         {r3,pc}                                 
                            ;************************************************************************************************
                            ;*                                           FUNCTION                                           *
                            ;************************************************************************************************
                            ;undefined * FUN_0007b702(undefined4 param_1, undefined4 param_2, undefined4 param_3, undefined * param_4)
          ;param_1       undefined4          r0                      
          ;param_2       undefined4          r1                      
          ;param_3       undefined4          r2                      
          ;param_4       undefined *         r3                      
                                                          ;XREF[1,0]:   0007cbb2
ram:0007b702    10b5            push        {r4,lr}                                 
ram:0007b704    00f05cfe        bl          FUN_0007c3c0                            ;undefined * FUN_0007c3c0(undefined4 ...
ram:0007b708    18b9            cbnz        param_1,LAB_0007b712                    
ram:0007b70a    00f0e9fa        bl          FUN_0007bce0                            ;undefined * FUN_0007bce0(undefined4 ...
ram:0007b70e    0028            cmp         param_1,#0x0                            
ram:0007b710    13d0            beq         LAB_0007b73a                            
                            LAB_0007b712:                 ;XREF[1,0]:   0007b708
ram:0007b712    6420            movs        param_1,#0x64                           
ram:0007b714    01f02afb        bl          FUN_0007cd6c                            ;undefined FUN_0007cd6c(int param_1)
ram:0007b718    00f013fe        bl          FUN_0007c342                            ;undefined FUN_0007c342(undefined4 pa...
ram:0007b71c    08b1            cbz         param_1,LAB_0007b722                    
ram:0007b71e    fff771fb        bl          FUN_0007ae04                            ;undefined FUN_0007ae04(void)
                            LAB_0007b722:                 ;XREF[1,0]:   0007b71c
ram:0007b722    00f04dfe        bl          FUN_0007c3c0                            ;undefined * FUN_0007c3c0(undefined4 ...
ram:0007b726    08b1            cbz         param_1,LAB_0007b72c                    
ram:0007b728    fff76cfb        bl          FUN_0007ae04                            ;undefined FUN_0007ae04(void)
                            LAB_0007b72c:                 ;XREF[1,0]:   0007b726
ram:0007b72c    00f0b2fa        bl          FUN_0007bc94                            ;undefined * FUN_0007bc94(undefined4 ...
ram:0007b730    0400            movs        r4,param_1                              
ram:0007b732    01d0            beq         LAB_0007b738                            
ram:0007b734    fff766fb        bl          FUN_0007ae04                            ;undefined FUN_0007ae04(void)
                            LAB_0007b738:                 ;XREF[1,0]:   0007b732
ram:0007b738    2046            mov         param_1,r4                              
                            LAB_0007b73a:                 ;XREF[1,0]:   0007b710
ram:0007b73a    10bd            pop         {r4,pc}                                 
                            ;************************************************************************************************
                            ;*                                           FUNCTION                                           *
                            ;************************************************************************************************
                            ;undefined4 FUN_0007b73c(void)
          ;local_c       undefined4          -c                      ;XREF[1,0]:   0007b74a
          ;local_1c      undefined4         -1c                      ;XREF[1,0]:   0007b752
          ;local_20      undefined4         -20                      ;XREF[1,0]:   0007b750
                                                          ;XREF[1,0]:   0007cbc8
ram:0007b73c    00b5            push        {lr}                                    
ram:0007b73e    87b0            sub         sp,#0x1c                                
ram:0007b740    1422            movs        r2,#0x14                                
ram:0007b742    0849            ldr         r1=>DAT_0007d92c,[PTR_DAT_0007b764]     ;= 02h
                                                                                    ;= 0007d92c
ram:0007b744    01a8            add         r0,sp,#0x4                              
ram:0007b746    fef719ff        bl          FUN_0007a57c                            ;undefined FUN_0007a57c(undefined4 * ...
ram:0007b74a    0598            ldr         r0,[sp,#local_c+0x20]                   
ram:0007b74c    0df1040c        add.w       r12,sp,#0x4                             
ram:0007b750    0090            str         r0,[sp,#0x0]=>local_20                  
ram:0007b752    9ce80f00        ldm.w       r12=>local_1c,{r0,r1,r2,r3}             
ram:0007b756    00f023f8        bl          FUN_0007b7a0                            ;undefined FUN_0007b7a0(uint param_1,...
ram:0007b75a    02f0bbf8        bl          FUN_0007d8d4                            ;undefined FUN_0007d8d4(uint param_1,...
ram:0007b75e    07b0            add         sp,#0x1c                                
ram:0007b760    0020            movs        r0,#0x0                                 
ram:0007b762    00bd            pop         {pc}                                    
                            PTR_DAT_0007b764:             ;XREF[1,0]:   0007b742
ram:0007b764    2cd90700        addr        DAT_0007d92c                            ;= 02h
                            ;************************************************************************************************
                            ;*                                           FUNCTION                                           *
                            ;************************************************************************************************
                            ;int FUN_0007b768(undefined4 param_1, undefined4 param_2, uint param_3, undefined * param_4)
          ;param_1       undefined4          r0                      
          ;param_2       undefined4          r1                      
          ;param_3       uint                r2                      
          ;param_4       undefined *         r3                      
          ;local_c       undefined4          -c                      ;XREF[1,0]:   0007b78a
          ;local_24      undefined1         -24                      ;XREF[1,0]:   0007b780
                                                          ;XREF[1,0]:   0007cc14
ram:0007b768    10b5            push        {r4,lr}                                 
ram:0007b76a    88b0            sub         sp,#0x20                                
ram:0007b76c    00f02efc        bl          FUN_0007bfcc                            ;longlong FUN_0007bfcc(void)
ram:0007b770    0028            cmp         param_1,#0x0                            
ram:0007b772    11d1            bne         LAB_0007b798                            
ram:0007b774    00f030ff        bl          FUN_0007c5d8                            ;int FUN_0007c5d8(void)
ram:0007b778    0446            mov         r4,param_1                              
ram:0007b77a    6846            mov         param_1,sp                              
ram:0007b77c    00f098f8        bl          FUN_0007b8b0                            ;undefined FUN_0007b8b0(undefined * p...
ram:0007b780    9df80410        ldrb.w      param_2,[sp,#local_24+0x28]             
ram:0007b784    0129            cmp         param_2,#0x1                            
ram:0007b786    04d1            bne         LAB_0007b792                            
ram:0007b788    044a            ldr         param_3=>DAT_200031c8,[DAT_0007b79c]    ;= 200031C8h
ram:0007b78a    0799            ldr         param_2,[sp,#local_c+0x28]              
ram:0007b78c    d160            str         param_2,[param_3,#0xc]=>DAT_200031d4    
ram:0007b78e    00f025fa        bl          FUN_0007bbdc                            ;int FUN_0007bbdc(void)
                            LAB_0007b792:                 ;XREF[1,0]:   0007b786
ram:0007b792    02f09ff8        bl          FUN_0007d8d4                            ;undefined FUN_0007d8d4(uint param_1,...
ram:0007b796    2046            mov         param_1,r4                              
                            LAB_0007b798:                 ;XREF[1,0]:   0007b772
ram:0007b798    08b0            add         sp,#0x20                                
ram:0007b79a    10bd            pop         {r4,pc}                                 
                            DAT_0007b79c:                 ;XREF[1,0]:   0007b788
ram:0007b79c    c8310020        undefined4  200031C8h                               
                            ;************************************************************************************************
                            ;*                                           FUNCTION                                           *
                            ;************************************************************************************************
                            ;undefined FUN_0007b7a0(uint param_1, int param_2, int param_3, char * param_4, undefined4 param_5)
          ;param_1       uint                r0                      
          ;param_2       int                 r1                      
          ;param_3       int                 r2                      
          ;param_4       char *              r3                      
          ;param_5       undefined4           0                      ;XREF[1,0]:   0007b7ae
          ;local_20      undefined4         -20                      ;XREF[3,0]:   0007b81c,0007b836,0007b874
                                                          ;XREF[8,0]:   0007b756,0007bc2c,0007bc56,0007bc84
                                                          ;             0007bdee,0007c29e,0007c550,0007cf06
ram:0007b7a0    2de9f843        push        {param_4,r4,r5,r6,r7,r8,r9,lr}          
ram:0007b7a4    0446            mov         r4,param_1                              
ram:0007b7a6    0e46            mov         r6,param_2                              
ram:0007b7a8    1746            mov         r7,param_3                              
ram:0007b7aa    1d46            mov         r5,param_4                              
ram:0007b7ac    6846            mov         param_1,sp                              
ram:0007b7ae    ddf82080        ldr.w       r8,[sp,#param_5+0x20]                   
ram:0007b7b2    00f0b1f8        bl          FUN_0007b918                            ;undefined FUN_0007b918(undefined4 * ...
ram:0007b7b6    14f0ff02        ands        param_3,r4,#0xff                        
ram:0007b7ba    4fea1441        lsr.w       param_2,r4,#0x10                        
ram:0007b7be    2f4c            ldr         r4,[DAT_0007b87c]                       ;= 20002C2Ch
ram:0007b7c0    2f48            ldr         param_1=>DAT_20003188,[DAT_0007b880]    ;= 20003188h
ram:0007b7c2    4ff00103        mov.w       param_4,#0x1                            
ram:0007b7c6    4ff0ff0c        mov.w       r12,#0xff                               
ram:0007b7ca    10d0            beq         LAB_0007b7ee                            
ram:0007b7cc    012a            cmp         param_3,#0x1                            
ram:0007b7ce    14d0            beq         LAB_0007b7fa                            
ram:0007b7d0    032a            cmp         param_3,#0x3                            
ram:0007b7d2    23d0            beq         LAB_0007b81c                            
ram:0007b7d4    0021            movs        param_2,#0x0                            
ram:0007b7d6    022a            cmp         param_3,#0x2                            
ram:0007b7d8    2dd0            beq         LAB_0007b836                            
ram:0007b7da    052a            cmp         param_3,#0x5                            
ram:0007b7dc    3fd0            beq         LAB_0007b85e                            
ram:0007b7de    042a            cmp         param_3,#0x4                            
ram:0007b7e0    44d0            beq         LAB_0007b86c                            
ram:0007b7e2    062a            cmp         param_3,#0x6                            
ram:0007b7e4    01d1            bne         LAB_0007b7ea                            
ram:0007b7e6    0420            movs        param_1,#0x4                            
                            LAB_0007b7e8:                 ;XREF[1,0]:   0007b86a
ram:0007b7e8    2070            strb        param_1,[r4,#0x0]=>DAT_20002c2c         
                            LAB_0007b7ea:                 ;XREF[2,0]:   0007b7e4,0007b81a
ram:0007b7ea    bde8f883        pop.w       {param_4,r4,r5,r6,r7,r8,r9,pc}          
                            LAB_0007b7ee:                 ;XREF[1,0]:   0007b7ca
ram:0007b7ee    4180            strh        param_2,[param_1,#0x2]=>DAT_2000318a    
ram:0007b7f0    8560            str         r5,[param_1,#0x8]=>DAT_20003190         
ram:0007b7f2    0370            strb        param_4,[param_1,#0x0]=>DAT_20003188    
ram:0007b7f4    80f804c0        strb.w      r12,[param_1,#0x4]=>DAT_2000318c        
ram:0007b7f8    0be0            b           LAB_0007b812                            
                            LAB_0007b7fa:                 ;XREF[1,0]:   0007b7ce
ram:0007b7fa    4180            strh        param_2,[param_1,#0x2]=>DAT_2000318a    
ram:0007b7fc    f119            adds        param_2,r6,r7                           
ram:0007b7fe    2944            add         param_2,r5                              
ram:0007b800    8160            str         param_2,[param_1,#0x8]=>DAT_20003190    
ram:0007b802    a521            movs        param_2,#0xa5                           
ram:0007b804    0170            strb        param_2,[param_1,#0x0]=>DAT_20003188    
ram:0007b806    80f804c0        strb.w      r12,[param_1,#0x4]=>DAT_2000318c        
ram:0007b80a    c0f81880        str.w       r8,[param_1,#0x18]=>DAT_200031a0        
ram:0007b80e    c660            str         r6,[param_1,#0xc]=>DAT_20003194         
ram:0007b810    0ee0            b           LAB_0007b830                            
                            LAB_0007b812:                 ;XREF[3,0]:   0007b7f8,0007b834,0007b852
ram:0007b812    2370            strb        param_4,[r4,#0x0]=>DAT_20002c2c         
                            LAB_0007b814:                 ;XREF[1,0]:   0007b87a
ram:0007b814    1a48            ldr         param_1=>DAT_20003188,[DAT_0007b880]    ;= 20003188h
ram:0007b816    00f065f8        bl          FUN_0007b8e4                            ;undefined FUN_0007b8e4(uint param_1)
ram:0007b81a    e6e7            b           LAB_0007b7ea                            
                            LAB_0007b81c:                 ;XREF[1,0]:   0007b7d2
ram:0007b81c    0099            ldr         param_2,[sp,#0x0]=>local_20             
ram:0007b81e    0a78            ldrb        param_3,[param_2,#0x0]                  
ram:0007b820    0270            strb        param_3,[param_1,#0x0]=>DAT_20003188    
ram:0007b822    4a88            ldrh        param_3,[param_2,#0x2]                  
ram:0007b824    4280            strh        param_3,[param_1,#0x2]=>DAT_2000318a    
ram:0007b826    8968            ldr         param_2,[param_2,#0x8]                  
ram:0007b828    8160            str         param_2,[param_1,#0x8]=>DAT_20003190    
ram:0007b82a    aa21            movs        param_2,#0xaa                           
ram:0007b82c    0171            strb        param_2,[param_1,#0x4]=>DAT_2000318c    
ram:0007b82e    c660            str         r6,[param_1,#0xc]=>DAT_20003194         
                            LAB_0007b830:                 ;XREF[1,0]:   0007b810
                                                          ; FWD[2,0]:   20003198,2000319c
ram:0007b830    c0e90475        strd        r7,r5,[param_1,#0x10]=>DAT_20003198     
ram:0007b834    ede7            b           LAB_0007b812                            
                            LAB_0007b836:                 ;XREF[1,0]:   0007b7d8
ram:0007b836    009a            ldr         param_3,[sp,#0x0]=>local_20             
ram:0007b838    1578            ldrb        r5,[param_3,#0x0]                       
ram:0007b83a    a52d            cmp         r5,#0xa5                                
ram:0007b83c    0ad0            beq         LAB_0007b854                            
ram:0007b83e    0570            strb        r5,[param_1,#0x0]=>DAT_20003188         
ram:0007b840    5588            ldrh        r5,[param_3,#0x2]                       
ram:0007b842    4580            strh        r5,[param_1,#0x2]=>DAT_2000318a         
ram:0007b844    9268            ldr         param_3,[param_3,#0x8]                  
ram:0007b846    8260            str         param_3,[param_1,#0x8]=>DAT_20003190    
                            LAB_0007b848:                 ;XREF[1,0]:   0007b85c
ram:0007b848    80f804c0        strb.w      r12,[param_1,#0x4]=>DAT_2000318c        
ram:0007b84c    c160            str         param_2,[param_1,#0xc]=>DAT_20003194    
ram:0007b84e    0161            str         param_2,[param_1,#0x10]=>DAT_20003198   
ram:0007b850    4161            str         param_2,[param_1,#0x14]=>DAT_2000319c   
ram:0007b852    dee7            b           LAB_0007b812                            
                            LAB_0007b854:                 ;XREF[1,0]:   0007b83c
ram:0007b854    4180            strh        param_2,[param_1,#0x2]=>DAT_2000318a    
ram:0007b856    8160            str         param_2,[param_1,#0x8]=>DAT_20003190    
ram:0007b858    80f800c0        strb.w      r12,[param_1,#0x0]=>DAT_20003188        
ram:0007b85c    f4e7            b           LAB_0007b848                            
                            LAB_0007b85e:                 ;XREF[1,0]:   0007b7dc
ram:0007b85e    00f09bfe        bl          FUN_0007c598                            ;undefined4 FUN_0007c598(undefined4 p...
ram:0007b862    08b1            cbz         param_1,LAB_0007b868                    
ram:0007b864    fff7cefa        bl          FUN_0007ae04                            ;undefined FUN_0007ae04(void)
                            LAB_0007b868:                 ;XREF[1,0]:   0007b862
ram:0007b868    0320            movs        param_1,#0x3                            
ram:0007b86a    bde7            b           LAB_0007b7e8                            
                            LAB_0007b86c:                 ;XREF[1,0]:   0007b7e0
ram:0007b86c    4180            strh        param_2,[param_1,#0x2]=>DAT_2000318a    
ram:0007b86e    8160            str         param_2,[param_1,#0x8]=>DAT_20003190    
ram:0007b870    80f800c0        strb.w      r12,[param_1,#0x0]=>DAT_20003188        
ram:0007b874    0099            ldr         param_2,[sp,#0x0]=>local_20             
ram:0007b876    0979            ldrb        param_2,[param_2,#0x4]                  
ram:0007b878    0171            strb        param_2,[param_1,#0x4]=>DAT_2000318c    
ram:0007b87a    cbe7            b           LAB_0007b814                            
                            DAT_0007b87c:                 ;XREF[1,0]:   0007b7be
ram:0007b87c    2c2c0020        undefined4  20002C2Ch                               
                            DAT_0007b880:                 ;XREF[2,0]:   0007b7c0,0007b814
ram:0007b880    88310020        undefined4  20003188h                               
                            ;************************************************************************************************
                            ;*                                           FUNCTION                                           *
                            ;************************************************************************************************
                            ;undefined FUN_0007b884(void)
          ;local_10      undefined4         -10                      ;XREF[1,0]:   0007b88a
                                                          ;XREF[1,0]:   0007cba8
ram:0007b884    0eb5            push        {r1,r2,r3,lr}                           
ram:0007b886    084a            ldr         r2,[PTR_PTR_LAB_0007d100+1+1_0007b8a8]  ;= 0007d920
                                                          ; FWD[4,0]:   0007d101,0007d920,0007d924,0007d928
ram:0007b888    07ca            ldmia       r2,{r0,r1,r2}=>PTR_LAB_0007d100+1+1_0...;= 0007d101
ram:0007b88a    8de80700        stm         sp=>local_10,{r0,r1,r2}=>LAB_0007d100...
ram:0007b88e    01f07bfc        bl          FUN_0007d188                            ;undefined4 FUN_0007d188(void)
ram:0007b892    0028            cmp         r0,#0x0                                 
ram:0007b894    06d1            bne         LAB_0007b8a4                            
ram:0007b896    0549            ldr         r1,[DAT_0007b8ac]                       ;= 20002C30h
ram:0007b898    4ff4fe20        mov.w       r0,#0x7f000                             
ram:0007b89c    4860            str         r0,[r1,#0x4]=>DAT_20002c34              
ram:0007b89e    6846            mov         r0,sp                                   
ram:0007b8a0    01f092fc        bl          FUN_0007d1c8                            ;undefined4 FUN_0007d1c8(undefined4 *...
                            LAB_0007b8a4:                 ;XREF[1,0]:   0007b894
ram:0007b8a4    0ebd            pop         {r1,r2,r3,pc}                           
ram:0007b8a6    0000            movs        r0,r0                                   
                            PTR_PTR_LAB_0007d100+1+1_00...;XREF[1,0]:   0007b886
ram:0007b8a8    20d90700        addr        PTR_LAB_0007d100+1+1_0007d920           ;= 0007d101
                            DAT_0007b8ac:                 ;XREF[1,0]:   0007b896
ram:0007b8ac    302c0020        undefined4  20002C30h                               
                            ;************************************************************************************************
                            ;*                                           FUNCTION                                           *
                            ;************************************************************************************************
                            ;undefined FUN_0007b8b0(undefined * param_1, undefined4 param_2, undefined4 param_3, undefined * param_4)
          ;param_1       undefined *         r0                      
          ;param_2       undefined4          r1                      
          ;param_3       undefined4          r2                      
          ;param_4       undefined *         r3                      
          ;local_10      undefined4         -10                      ;XREF[1,0]:   0007b8ba
                                                          ;XREF[5,0]:   0007b77c,0007bc9a,0007bce6,0007c34a
                                                          ;             0007c3c6
ram:0007b8b0    38b5            push        {param_4,r4,r5,lr}                      
ram:0007b8b2    0446            mov         r4,param_1                              
ram:0007b8b4    6846            mov         param_1,sp                              
ram:0007b8b6    00f02ff8        bl          FUN_0007b918                            ;undefined FUN_0007b918(undefined4 * ...
ram:0007b8ba    0098            ldr         param_1,[sp,#0x0]=>local_10             
ram:0007b8bc    0178            ldrb        param_2,[param_1,#0x0]                  
ram:0007b8be    2170            strb        param_2,[r4,#0x0]                       
ram:0007b8c0    4188            ldrh        param_2,[param_1,#0x2]                  
ram:0007b8c2    6180            strh        param_2,[r4,#0x2]                       
ram:0007b8c4    8168            ldr         param_2,[param_1,#0x8]                  
ram:0007b8c6    a160            str         param_2,[r4,#0x8]                       
ram:0007b8c8    0179            ldrb        param_2,[param_1,#0x4]                  
ram:0007b8ca    2171            strb        param_2,[r4,#0x4]                       
ram:0007b8cc    c168            ldr         param_2,[param_1,#0xc]                  
ram:0007b8ce    e160            str         param_2,[r4,#0xc]                       
ram:0007b8d0    0169            ldr         param_2,[param_1,#0x10]                 
ram:0007b8d2    2161            str         param_2,[r4,#0x10]                      
ram:0007b8d4    4169            ldr         param_2,[param_1,#0x14]                 
ram:0007b8d6    6161            str         param_2,[r4,#0x14]                      
ram:0007b8d8    8169            ldr         param_2,[param_1,#0x18]                 
ram:0007b8da    a161            str         param_2,[r4,#0x18]                      
ram:0007b8dc    c069            ldr         param_1,[param_1,#0x1c]                 
ram:0007b8de    e061            str         param_1,[r4,#0x1c]                      
ram:0007b8e0    38bd            pop         {param_4,r4,r5,pc}                      
ram:0007b8e2    0000            movs        r0,r0                                   
                            ;************************************************************************************************
                            ;*                                           FUNCTION                                           *
                            ;************************************************************************************************
                            ;undefined FUN_0007b8e4(uint param_1)
          ;param_1       uint                r0                      
                                                          ;XREF[1,0]:   0007b816
ram:0007b8e4    10b5            push        {r4,lr}                                 
ram:0007b8e6    0446            mov         r4,param_1                              
ram:0007b8e8    2021            movs        r1,#0x20                                
ram:0007b8ea    0948            ldr         param_1,[DAT_0007b910]                  ;= 20002C30h
ram:0007b8ec    01f042fc        bl          FUN_0007d174                            ;undefined FUN_0007d174(undefined4 * ...
ram:0007b8f0    08b1            cbz         param_1,LAB_0007b8f6                    
ram:0007b8f2    fff787fa        bl          FUN_0007ae04                            ;undefined FUN_0007ae04(void)
                            LAB_0007b8f6:                 ;XREF[1,0]:   0007b8f0
ram:0007b8f6    0023            movs        r3,#0x0                                 
ram:0007b8f8    2022            movs        r2,#0x20                                
ram:0007b8fa    2146            mov         r1,r4                                   
ram:0007b8fc    0448            ldr         param_1,[DAT_0007b910]                  ;= 20002C30h
ram:0007b8fe    01f077fc        bl          FUN_0007d1f0                            ;int FUN_0007d1f0(undefined4 * param_...
ram:0007b902    0028            cmp         param_1,#0x0                            
ram:0007b904    03d0            beq         LAB_0007b90e                            
ram:0007b906    bde81040        pop.w       {r4,lr}                                 
ram:0007b90a    fff77bba        b.w         FUN_0007ae04                            ;undefined FUN_0007ae04(void)
                            LAB_0007b90e:                 ;XREF[1,0]:   0007b904
ram:0007b90e    10bd            pop         {r4,pc}                                 
                            DAT_0007b910:                 ;XREF[2,0]:   0007b8ea,0007b8fc
ram:0007b910    302c0020        undefined4  20002C30h                               
                            LAB_0007b914:                 ;XREF[1,0]:   0007b6e0
ram:0007b914    fef7cabd        b.w         FUN_0007a4ac                            
                            ;************************************************************************************************
                            ;*                                           FUNCTION                                           *
                            ;************************************************************************************************
                            ;undefined FUN_0007b918(undefined4 * param_1)
          ;param_1       undefined4 *        r0                      
                                                          ;XREF[4,0]:   0007b660,0007b6e8,0007b7b2,0007b8b6
ram:0007b918    0149            ldr         r1,[DAT_0007b920]                       ;= 0007F000h
ram:0007b91a    0160            str         r1,[param_1,#0x0]                       
ram:0007b91c    7047            bx          lr                                      
ram:0007b91e    0000            movs        r0,r0                                   
                            DAT_0007b920:                 ;XREF[1,0]:   0007b918
ram:0007b920    00f00700        undefined4  0007F000h                               
                            ;************************************************************************************************
                            ;*                                           FUNCTION                                           *
                            ;************************************************************************************************
                            ;undefined8 FUN_0007b924(void)
                                                          ;XREF[2,0]:   0007b9e6,0007d292
ram:0007b924    70b5            push        {r4,r5,r6,lr}                           
ram:0007b926    174c            ldr         r4,[DAT_0007b984]                       ;= 20003088h
ram:0007b928    0f20            movs        r0,#0xf                                 
ram:0007b92a    2178            ldrb        r1,[r4,#0x0]=>DAT_20003088              
ram:0007b92c    01eb4101        add.w       r1,r1,r1, lsl #0x1                      
ram:0007b930    04ebc102        add.w       r2,r4,r1, lsl #0x3                      
ram:0007b934    1449            ldr         r1,[DAT_0007b988]                       ;= 20002C24h
ram:0007b936    5369            ldr         r3,[r2,#0x14]                           
ram:0007b938    12f8045f        ldrb.w      r5,[r2,#0x4]!                           
ram:0007b93c    4968            ldr         r1,[r1,#0x4]=>DAT_20002c28              
ram:0007b93e    012d            cmp         r5,#0x1                                 
ram:0007b940    0ed0            beq         LAB_0007b960                            
ram:0007b942    032d            cmp         r5,#0x3                                 
ram:0007b944    0bd1            bne         LAB_0007b95e                            
ram:0007b946    4ff08050        mov.w       r0,#0x10000000                          
ram:0007b94a    0069            ldr         r0,[r0,#offset DAT_10000010 &0xff]      
ram:0007b94c    80b2            uxth        r0,r0                                   
ram:0007b94e    b3fbf0f0        udiv        r0,r3,r0                                
ram:0007b952    0844            add         r0,r1                                   
ram:0007b954    28df            svc         0x28                                    
                            LAB_0007b956:                 ;XREF[2,0]:   0007b97a,0007b982
ram:0007b956    0028            cmp         r0,#0x0                                 
ram:0007b958    01d1            bne         LAB_0007b95e                            
ram:0007b95a    0121            movs        r1,#0x1                                 
ram:0007b95c    a170            strb        r1,[r4,#0x2]=>DAT_2000308a              
                            LAB_0007b95e:                 ;XREF[2,0]:   0007b944,0007b958
ram:0007b95e    70bd            pop         {r4,r5,r6,pc}                           
                            LAB_0007b960:                 ;XREF[1,0]:   0007b940
ram:0007b960    0803            lsls        r0,r1,#0xc                              
ram:0007b962    5168            ldr         r1,[r2,#0x4]                            
ram:0007b964    5669            ldr         r6,[r2,#0x14]                           
ram:0007b966    0d1a            subs        r5,r1,r0                                
ram:0007b968    3118            adds        r1,r6,r0                                
ram:0007b96a    9268            ldr         r2,[r2,#0x8]                            
ram:0007b96c    1844            add         r0,r3                                   
ram:0007b96e    1044            add         r0,r2                                   
ram:0007b970    b5f5805f        cmp.w       r5,#0x1000                              
ram:0007b974    02d2            bcs         LAB_0007b97c                            
ram:0007b976    aa08            lsrs        r2,r5,#0x2                              
ram:0007b978    29df            svc         0x29                                    
ram:0007b97a    ece7            b           LAB_0007b956                            
                            LAB_0007b97c:                 ;XREF[1,0]:   0007b974
ram:0007b97c    4ff48062        mov.w       r2,#0x400                               
ram:0007b980    29df            svc         0x29                                    
ram:0007b982    e8e7            b           LAB_0007b956                            
                            DAT_0007b984:                 ;XREF[1,0]:   0007b926
ram:0007b984    88300020        undefined4  20003088h                               
                            DAT_0007b988:                 ;XREF[1,0]:   0007b934
ram:0007b988    242c0020        undefined4  20002C24h                               
                            ;************************************************************************************************
                            ;*                                           FUNCTION                                           *
                            ;************************************************************************************************
                            ;undefined FUN_0007b98c(int param_1)
          ;param_1       int                 r0                      
                                                          ;XREF[2,0]:   0007d19c,0007d282
ram:0007b98c    00eb4002        add.w       r2,param_1,param_1, lsl #0x1            
ram:0007b990    0548            ldr         param_1,[DAT_0007b9a8]                  ;= 20003088h
ram:0007b992    0021            movs        r1,#0x0                                 
ram:0007b994    00ebc200        add.w       param_1,param_1,r2, lsl #0x3            
ram:0007b998    0322            movs        r2,#0x3                                 
ram:0007b99a    0171            strb        r1,[param_1,#0x4]                       
ram:0007b99c    8160            str         r1,[param_1,#0x8]                       
ram:0007b99e    c0e90421        strd        r2,r1,[param_1,#0x10]                   
ram:0007b9a2    8161            str         r1,[param_1,#0x18]                      
ram:0007b9a4    c160            str         r1,[param_1,#0xc]                       
ram:0007b9a6    7047            bx          lr                                      
                            DAT_0007b9a8:                 ;XREF[1,0]:   0007b990
ram:0007b9a8    88300020        undefined4  20003088h                               
                            ;************************************************************************************************
                            ;*                                           FUNCTION                                           *
                            ;************************************************************************************************
                            ;int FUN_0007b9ac(char param_1, undefined4 * param_2, undefined4 param_3, undefined4 param_4, undefined4 param_5)
          ;param_1       char                r0                      
          ;param_2       undefined4 *        r1                      
          ;param_3       undefined4          r2                      
          ;param_4       undefined4          r3                      
          ;param_5       undefined4           0                      ;XREF[1,0]:   0007b9b2
                                                          ;XREF[2,0]:   0007d180,0007d214
ram:0007b9ac    2de9f041        push        {r4,r5,r6,r7,r8,lr}                     
ram:0007b9b0    134c            ldr         r4,[DAT_0007ba00]                       ;= 20003088h
ram:0007b9b2    069e            ldr         r6,[sp,#param_5+0x18]                   
ram:0007b9b4    6578            ldrb        r5,[r4,#0x1]=>DAT_20003089              
ram:0007b9b6    0a2d            cmp         r5,#0xa                                 
ram:0007b9b8    1fd0            beq         LAB_0007b9fa                            
ram:0007b9ba    2778            ldrb        r7,[r4,#0x0]=>DAT_20003088              
ram:0007b9bc    3d44            add         r5,r7                                   
ram:0007b9be    edb2            uxtb        r5,r5                                   
ram:0007b9c0    0a2d            cmp         r5,#0xa                                 
ram:0007b9c2    01d3            bcc         LAB_0007b9c8                            
ram:0007b9c4    0a3d            subs        r5,#0xa                                 
ram:0007b9c6    edb2            uxtb        r5,r5                                   
                            LAB_0007b9c8:                 ;XREF[1,0]:   0007b9c2
ram:0007b9c8    05eb4505        add.w       r5,r5,r5, lsl #0x1                      
ram:0007b9cc    04ebc505        add.w       r5,r4,r5, lsl #0x3                      
ram:0007b9d0    2871            strb        param_1,[r5,#0x4]                       
ram:0007b9d2    aa61            str         param_3,[r5,#0x18]                      
ram:0007b9d4    d1e90001        ldrd        param_1,param_2,[param_2,#0x0]          
ram:0007b9d8    c5e90401        strd        param_1,param_2,[r5,#0x10]              
ram:0007b9dc    c5e90236        strd        param_4,r6,[r5,#0x8]                    
ram:0007b9e0    a178            ldrb        param_2,[r4,#0x2]=>DAT_2000308a         
ram:0007b9e2    0020            movs        param_1,#0x0                            
ram:0007b9e4    21b9            cbnz        param_2,LAB_0007b9f0                    
ram:0007b9e6    fff79dff        bl          FUN_0007b924                            ;undefined8 FUN_0007b924(void)
ram:0007b9ea    1128            cmp         param_1,#0x11                           
ram:0007b9ec    00d1            bne         LAB_0007b9f0                            
ram:0007b9ee    0020            movs        param_1,#0x0                            
                            LAB_0007b9f0:                 ;XREF[2,0]:   0007b9e4,0007b9ec
ram:0007b9f0    6178            ldrb        param_2,[r4,#0x1]=>DAT_20003089         
ram:0007b9f2    491c            adds        param_2,param_2,#0x1                    
ram:0007b9f4    6170            strb        param_2,[r4,#0x1]=>DAT_20003089         
                            LAB_0007b9f6:                 ;XREF[1,0]:   0007b9fc
ram:0007b9f6    bde8f081        pop.w       {r4,r5,r6,r7,r8,pc}                     
                            LAB_0007b9fa:                 ;XREF[1,0]:   0007b9b8
ram:0007b9fa    0420            movs        param_1,#0x4                            
ram:0007b9fc    fbe7            b           LAB_0007b9f6                            
ram:0007b9fe    0000            movs        r0,r0                                   
                            DAT_0007ba00:                 ;XREF[1,0]:   0007b9b0
ram:0007ba00    88300020        undefined4  20003088h                               
                            ;************************************************************************************************
                            ;*                                           FUNCTION                                           *
                            ;************************************************************************************************
                            ;undefined FUN_0007ba04(void)
                                                          ;XREF[1,0]:   0007d652
ram:0007ba04    2de9f05f        push        {r4,r5,r6,r7,r8,r9,r10,r11,r12,lr}      
ram:0007ba08    2648            ldr         r0=>DAT_20002ca0,[DAT_0007baa4]         ;= 20002CA0h
ram:0007ba0a    c168            ldr         r1,[r0,#0xc]=>DAT_20002cac              
ram:0007ba0c    f1b3            cbz         r1,LAB_0007ba8c                         
ram:0007ba0e    dff898b0        ldr.w       r11,[DAT_0007baa8]                      ;= 40011504h
ram:0007ba12    0e68            ldr         r6,[r1,#0x0]                            
ram:0007ba14    8146            mov         r9,r0                                   
ram:0007ba16    dbf80040        ldr.w       r4,[r11,#0x0]=>DAT_40011504             
ram:0007ba1a    0769            ldr         r7,[r0,#0x10]=>DAT_20002cb0             
ram:0007ba1c    c078            ldrb        r0,[r0,#0x3]=>DAT_20002ca3              
ram:0007ba1e    e11b            subs        r1,r4,r7                                
ram:0007ba20    21f07f45        bic         r5,r1,#0xff000000                       
ram:0007ba24    ed1c            adds        r5,r5,#0x3                              
ram:0007ba26    b0b9            cbnz        r0,LAB_0007ba56                         
ram:0007ba28    dff88080        ldr.w       r8,[DAT_0007baac]                       ;= 40011000h
ram:0007ba2c    4ff48030        mov.w       r0,#0x10000                             
ram:0007ba30    c8f84403        str.w       r0,[r8,#0x344]=>DAT_40011344            
ram:0007ba34    c8f80403        str.w       r0,[r8,#0x304]=>DAT_40011304            
ram:0007ba38    1120            movs        r0,#0x11                                
ram:0007ba3a    fef711fe        bl          FUN_0007a660                            ;undefined FUN_0007a660(uint param_1)
ram:0007ba3e    1120            movs        r0,#0x11                                
ram:0007ba40    fef719fe        bl          FUN_0007a676                            ;undefined FUN_0007a676(uint param_1)
ram:0007ba44    4ff0010a        mov.w       r10,#0x1                                
ram:0007ba48    c8f800a0        str.w       r10,[r8,#0x0]=>DAT_40011000             
ram:0007ba4c    2f20            movs        r0,#0x2f                                
ram:0007ba4e    fef747fd        bl          FUN_0007a4e0                            ;undefined FUN_0007a4e0(int param_1)
ram:0007ba52    89f803a0        strb.w      r10,[r9,#0x3]=>DAT_20002ca3             
                            LAB_0007ba56:                 ;XREF[1,0]:   0007ba26
ram:0007ba56    b542            cmp         r5,r6                                   
ram:0007ba58    00d2            bcs         LAB_0007ba5c                            
ram:0007ba5a    3546            mov         r5,r6                                   
                            LAB_0007ba5c:                 ;XREF[1,0]:   0007ba58
ram:0007ba5c    124b            ldr         r3,[DAT_0007baa8]                       ;= 40011504h
ram:0007ba5e    e819            adds        r0,r5,r7                                
ram:0007ba60    3c33            adds        r3=>DAT_40011540,#0x3c                  
ram:0007ba62    20f07f40        bic         r0,r0,#0xff000000                       
ram:0007ba66    1860            str         r0,[r3,#0x0]=>DAT_40011540              
ram:0007ba68    dbf80010        ldr.w       r1,[r11,#0x0]=>DAT_40011504             
ram:0007ba6c    5a46            mov         r2=>DAT_40011504,r11                    
ram:0007ba6e    091b            subs        r1,r1,r4                                
ram:0007ba70    21f07f41        bic         r1,r1,#0xff000000                       
ram:0007ba74    001b            subs        r0,r0,r4                                
ram:0007ba76    20f07f40        bic         r0,r0,#0xff000000                       
ram:0007ba7a    c91c            adds        r1,r1,#0x3                              
ram:0007ba7c    8142            cmp         r1,r0                                   
ram:0007ba7e    0fd9            bls         LAB_0007baa0                            
ram:0007ba80    1068            ldr         r0,[r2,#0x0]=>DAT_40011504              
ram:0007ba82    1860            str         r0,[r3,#0x0]=>DAT_40011540              
ram:0007ba84    2f20            movs        r0,#0x2f                                
ram:0007ba86    fef72bfd        bl          FUN_0007a4e0                            ;undefined FUN_0007a4e0(int param_1)
ram:0007ba8a    00e0            b           LAB_0007ba8e                            
                            LAB_0007ba8c:                 ;XREF[1,0]:   0007ba0c
ram:0007ba8c    04e0            b           LAB_0007ba98                            
                            LAB_0007ba8e:                 ;XREF[1,0]:   0007ba8a
ram:0007ba8e    bde8f05f        pop.w       {r4,r5,r6,r7,r8,r9,r10,r11,r12,lr}      
ram:0007ba92    1120            movs        r0,#0x11                                
ram:0007ba94    fef7fabd        b.w         FUN_0007a68c                            ;undefined FUN_0007a68c(uint param_1)
                            LAB_0007ba98:                 ;XREF[1,0]:   0007ba8c
ram:0007ba98    bde8f05f        pop.w       {r4,r5,r6,r7,r8,r9,r10,r11,r12,lr}      
ram:0007ba9c    01f00ebc        b.w         FUN_0007d2bc                            ;undefined FUN_0007d2bc(void)
                            LAB_0007baa0:                 ;XREF[1,0]:   0007ba7e
ram:0007baa0    bde8f09f        pop.w       {r4,r5,r6,r7,r8,r9,r10,r11,r12,pc}      
                            DAT_0007baa4:                 ;XREF[1,0]:   0007ba08
ram:0007baa4    a02c0020        undefined4  20002CA0h                               
                            DAT_0007baa8:                 ;XREF[2,0]:   0007ba0e,0007ba5c
ram:0007baa8    04150140        undefined4  40011504h                               
                            DAT_0007baac:                 ;XREF[1,0]:   0007ba28
ram:0007baac    00100140        undefined4  40011000h                               
                            ;************************************************************************************************
                            ;*                                           FUNCTION                                           *
                            ;************************************************************************************************
                            ;undefined4 FUN_0007bab0(ushort * param_1, int param_2, ushort * param_3, uint param_4)
          ;param_1       ushort *            r0                      
          ;param_2       int                 r1                      
          ;param_3       ushort *            r2                      
          ;param_4       uint                r3                      
                                                          ;XREF[1,0]:   0007abde
ram:0007bab0    2de9f041        push        {r4,r5,r6,r7,r8,lr}                     
ram:0007bab4    1788            ldrh        r7,[param_3,#0x0]                       
ram:0007bab6    0646            mov         r6,param_1                              
ram:0007bab8    b81d            adds        param_1,r7,#0x6                         
ram:0007baba    1446            mov         r4,param_3                              
ram:0007babc    0d46            mov         r5,param_2                              
ram:0007babe    9842            cmp         param_1,param_4                         
ram:0007bac0    02d9            bls         LAB_0007bac8                            
ram:0007bac2    0c20            movs        param_1,#0xc                            
                            LAB_0007bac4:                 ;XREF[2,0]:   0007bae8,0007bb36
ram:0007bac4    bde8f081        pop.w       {r4,r5,r6,r7,r8,pc}                     
                            LAB_0007bac8:                 ;XREF[1,0]:   0007bac0
ram:0007bac8    3188            ldrh        param_2,[r6,#0x0]                       
ram:0007baca    0722            movs        param_3,#0x7                            
ram:0007bacc    0629            cmp         param_2,#0x6                            
ram:0007bace    0ad3            bcc         LAB_0007bae6                            
ram:0007bad0    4ff4486c        mov.w       r12,#0xc80                              
ram:0007bad4    4ff6ff73        movw        param_4,#0xffff                         
ram:0007bad8    6145            cmp         param_2,r12                             
ram:0007bada    01d9            bls         LAB_0007bae0                            
ram:0007badc    9942            cmp         param_2,param_4                         
ram:0007bade    02d1            bne         LAB_0007bae6                            
                            LAB_0007bae0:                 ;XREF[1,0]:   0007bada
ram:0007bae0    7088            ldrh        param_1,[r6,#0x2]                       
ram:0007bae2    0628            cmp         param_1,#0x6                            
ram:0007bae4    01d2            bcs         LAB_0007baea                            
                            LAB_0007bae6:                 ;XREF[4,0]:   0007bace,0007bade,0007baf0,0007bafc
ram:0007bae6    1046            mov         param_1,param_3                         
ram:0007bae8    ece7            b           LAB_0007bac4                            
                            LAB_0007baea:                 ;XREF[1,0]:   0007bae4
ram:0007baea    6045            cmp         param_1,r12                             
ram:0007baec    01d9            bls         LAB_0007baf2                            
ram:0007baee    9842            cmp         param_1,param_4                         
ram:0007baf0    f9d1            bne         LAB_0007bae6                            
                            LAB_0007baf2:                 ;XREF[1,0]:   0007baec
ram:0007baf2    9942            cmp         param_2,param_4                         
ram:0007baf4    03d0            beq         LAB_0007bafe                            
ram:0007baf6    9842            cmp         param_1,param_4                         
ram:0007baf8    01d0            beq         LAB_0007bafe                            
ram:0007bafa    8142            cmp         param_2,param_1                         
ram:0007bafc    f3d8            bhi         LAB_0007bae6                            
                            LAB_0007bafe:                 ;XREF[2,0]:   0007baf4,0007baf8
ram:0007bafe    0520            movs        param_1,#0x5                            
ram:0007bb00    e855            strb        param_1,[r5,r7]                         
ram:0007bb02    2088            ldrh        param_1,[r4,#0x0]                       
ram:0007bb04    1221            movs        param_2,#0x12                           
ram:0007bb06    401c            adds        param_1,param_1,#0x1                    
ram:0007bb08    80b2            uxth        param_1,param_1                         
ram:0007bb0a    2080            strh        param_1,[r4,#0x0]                       
ram:0007bb0c    2954            strb        param_2,[r5,param_1]                    
ram:0007bb0e    2088            ldrh        param_1,[r4,#0x0]                       
ram:0007bb10    401c            adds        param_1,param_1,#0x1                    
ram:0007bb12    80b2            uxth        param_1,param_1                         
ram:0007bb14    2080            strh        param_1,[r4,#0x0]                       
ram:0007bb16    4119            adds        param_2,param_1,r5                      
ram:0007bb18    3088            ldrh        param_1,[r6,#0x0]                       
ram:0007bb1a    01f003fe        bl          FUN_0007d724                            ;undefined4 FUN_0007d724(undefined4 p...
ram:0007bb1e    2188            ldrh        param_2,[r4,#0x0]                       
ram:0007bb20    0844            add         param_1,param_2                         
ram:0007bb22    80b2            uxth        param_1,param_1                         
ram:0007bb24    2080            strh        param_1,[r4,#0x0]                       
ram:0007bb26    4119            adds        param_2,param_1,r5                      
ram:0007bb28    7088            ldrh        param_1,[r6,#0x2]                       
ram:0007bb2a    01f0fbfd        bl          FUN_0007d724                            ;undefined4 FUN_0007d724(undefined4 p...
ram:0007bb2e    2188            ldrh        param_2,[r4,#0x0]                       
ram:0007bb30    0844            add         param_1,param_2                         
ram:0007bb32    2080            strh        param_1,[r4,#0x0]                       
ram:0007bb34    0020            movs        param_1,#0x0                            
ram:0007bb36    c5e7            b           LAB_0007bac4                            
                            ;************************************************************************************************
                            ;*                                           FUNCTION                                           *
                            ;************************************************************************************************
                            ;undefined thunk_FUN_0007ae04(void)
                                                          ;XREF[0,2]:   0007c69e,0007c6e0
ram:0007bb38    fff764b9        b.w         FUN_0007ae04                            ;undefined FUN_0007ae04(void)
                            LAB_0007bb3c:                 ;XREF[1,0]:   0007b298
ram:0007bb3c    f8b5            push        {r3,r4,r5,r6,r7,lr}=>DAT_0007d90c       ;= 2000304Ch
ram:0007bb3e    1348            ldr         param_1=>DAT_20002c14,[DAT_0007bb8c]    ;= 20002C14h
ram:0007bb40    00f008ff        bl          FUN_0007c954                            ;undefined4 FUN_0007c954(int param_1)
ram:0007bb44    114d            ldr         r5,[DAT_0007bb8c]                       ;= 20002C14h
ram:0007bb46    0026            movs        r6,#0x0                                 
ram:0007bb48    114c            ldr         r4,[DAT_0007bb90]                       ;= 2000306Ch
ram:0007bb4a    0c3d            subs        r5,#0xc                                 
ram:0007bb4c    30b1            cbz         param_1,LAB_0007bb5c                    
ram:0007bb4e    6169            ldr         r1,[r4,#0x14]=>DAT_20003080             
ram:0007bb50    b9b1            cbz         r1,LAB_0007bb82                         
ram:0007bb52    0120            movs        param_1,#0x1                            
ram:0007bb54    8df80000        strb.w      param_1,[sp,#0x0]=>local_18             
                            LAB_0007bb58:                 ;XREF[1,0]:   0007bb68
ram:0007bb58    6846            mov         param_1,sp                              
ram:0007bb5a    11e0            b           LAB_0007bb80                            
                            LAB_0007bb5c:                 ;XREF[1,0]:   0007bb4c
ram:0007bb5c    2878            ldrb        param_1,[r5,#0x0]=>DAT_20002c08         
ram:0007bb5e    20b1            cbz         param_1,LAB_0007bb6a                    
ram:0007bb60    6169            ldr         r1,[r4,#0x14]=>DAT_20003080             
ram:0007bb62    71b1            cbz         r1,LAB_0007bb82                         
ram:0007bb64    8df80060        strb.w      r6,[sp,#0x0]=>local_18                  
ram:0007bb68    f6e7            b           LAB_0007bb58                            
                            LAB_0007bb6a:                 ;XREF[1,0]:   0007bb5e
ram:0007bb6a    6878            ldrb        param_1,[r5,#0x1]=>DAT_20002c09         
ram:0007bb6c    58b1            cbz         param_1,LAB_0007bb86                    
ram:0007bb6e    a168            ldr         r1,[r4,#0x8]=>DAT_20003074              
                            LAB_0007bb70:                 ;XREF[1,0]:   0007bb88
ram:0007bb70    0848            ldr         param_1,[PTR_DAT_0007bb94]              ;= 0007d90c
ram:0007bb72    0022            movs        r2,#0x0                                 
ram:0007bb74    0068            ldr         param_1,[param_1,#0x0]=>DAT_0007d90c    ;= 2000304Ch
ram:0007bb76    fff76dfa        bl          FUN_0007b054                            ;undefined4 FUN_0007b054(int param_1,...
ram:0007bb7a    10b1            cbz         param_1,LAB_0007bb82                    
ram:0007bb7c    a169            ldr         r1,[r4,#0x18]=>DAT_20003084             
ram:0007bb7e    01b1            cbz         r1,LAB_0007bb82                         
                            LAB_0007bb80:                 ;XREF[1,0]:   0007bb5a
ram:0007bb80    8847            blx         r1                                      
                            LAB_0007bb82:                 ;XREF[4,0]:   0007bb50,0007bb62,0007bb7a,0007bb7e
ram:0007bb82    2e70            strb        r6,[r5,#0x0]=>DAT_20002c08              
ram:0007bb84    f8bd            pop         {r3,r4,r5,r6,r7,pc}                     
                            LAB_0007bb86:                 ;XREF[1,0]:   0007bb6c
ram:0007bb86    6168            ldr         r1,[r4,#0x4]=>DAT_20003070              
ram:0007bb88    f2e7            b           LAB_0007bb70                            
ram:0007bb8a    0000            movs        r0,r0                                   
                            DAT_0007bb8c:                 ;XREF[2,0]:   0007bb3e,0007bb44
ram:0007bb8c    142c0020        undefined4  20002C14h                               
                            DAT_0007bb90:                 ;XREF[1,0]:   0007bb48
ram:0007bb90    6c300020        undefined4  2000306Ch                               
                            PTR_DAT_0007bb94:             ;XREF[1,0]:   0007bb70
ram:0007bb94    0cd90700        addr        DAT_0007d90c                            ;= 2000304Ch
                            ;************************************************************************************************
                            ;*                                           FUNCTION                                           *
                            ;************************************************************************************************
                            ;char FUN_0007bb98(uint param_1)
          ;param_1       uint                r0                      
                                                          ;XREF[6,0]:   0007a72a,0007a736,0007a740,0007a74c
                                                          ;             0007a756,0007a762
ram:0007bb98    0a28            cmp         param_1,#0xa                            
ram:0007bb9a    01d2            bcs         LAB_0007bba0                            
ram:0007bb9c    3030            adds        param_1,#0x30                           
ram:0007bb9e    00e0            b           LAB_0007bba2                            
                            LAB_0007bba0:                 ;XREF[1,0]:   0007bb9a
ram:0007bba0    3730            adds        param_1,#0x37                           
                            LAB_0007bba2:                 ;XREF[1,0]:   0007bb9e
ram:0007bba2    c0b2            uxtb        param_1,param_1                         
ram:0007bba4    7047            bx          lr                                      
                            ;************************************************************************************************
                            ;*                                           FUNCTION                                           *
                            ;************************************************************************************************
                            ;uint FUN_0007bba6(int param_1, uint param_2, ushort * param_3)
          ;param_1       int                 r0                      
          ;param_2       uint                r1                      
          ;param_3       ushort *            r2                      
                                                          ;XREF[4,0]:   0007a64a,0007b67a,0007bd40,0007c0e8
ram:0007bba6    10b5            push        {r4,lr}                                 
ram:0007bba8    0446            mov         r4,param_1                              
ram:0007bbaa    12b1            cbz         param_3,LAB_0007bbb2                    
ram:0007bbac    1088            ldrh        param_1,[param_3,#0x0]                  
                            LAB_0007bbae:                 ;XREF[1,0]:   0007bbb6
ram:0007bbae    0022            movs        param_3,#0x0                            
ram:0007bbb0    11e0            b           LAB_0007bbd6                            
                            LAB_0007bbb2:                 ;XREF[1,0]:   0007bbaa
ram:0007bbb2    4ff6ff70        movw        param_1,#0xffff                         
ram:0007bbb6    fae7            b           LAB_0007bbae                            
                            LAB_0007bbb8:                 ;XREF[1,0]:   0007bbd8
ram:0007bbb8    030a            lsrs        r3,param_1,#0x8                         
ram:0007bbba    43ea0023        orr.w       r3,r3,param_1, lsl #0x8                 
ram:0007bbbe    a05c            ldrb        param_1,[r4,param_3]                    
ram:0007bbc0    5840            eors        param_1,r3                              
ram:0007bbc2    c0f30313        ubfx        r3,param_1,#0x4,#0x4                    
ram:0007bbc6    5840            eors        param_1,r3                              
ram:0007bbc8    80ea0030        eor.w       param_1,param_1,param_1, lsl #0xc       
ram:0007bbcc    80b2            uxth        param_1,param_1                         
ram:0007bbce    c3b2            uxtb        r3,param_1                              
ram:0007bbd0    80ea4310        eor.w       param_1,param_1,r3, lsl #0x5            
ram:0007bbd4    521c            adds        param_3,param_3,#0x1                    
                            LAB_0007bbd6:                 ;XREF[1,0]:   0007bbb0
ram:0007bbd6    8a42            cmp         param_3,param_2                         
ram:0007bbd8    eed3            bcc         LAB_0007bbb8                            
ram:0007bbda    10bd            pop         {r4,pc}                                 
                            ;************************************************************************************************
                            ;*                                           FUNCTION                                           *
                            ;************************************************************************************************
                            ;int FUN_0007bbdc(void)
          ;local_14      undefined4         -14                      ;XREF[1,0]:   0007bc24
          ;local_18      undefined4         -18                      ;XREF[1,0]:   0007bc22
          ;local_24      undefined4         -24                      ;XREF[2,1]:   0007bc0e,0007bc28,0007bc1c
          ;local_28      undefined4         -28                      ;XREF[1,0]:   0007bc26
                                                          ;XREF[1,0]:   0007b78e
ram:0007bbdc    30b5            push        {r4,r5,lr}                              
ram:0007bbde    164c            ldr         r4,[DAT_0007bc38]                       ;= 200031C8h
ram:0007bbe0    87b0            sub         sp,#0x1c                                
ram:0007bbe2    1648            ldr         r0=>DAT_20002c58,[DAT_0007bc3c]         ;= 20002C58h
ram:0007bbe4    e168            ldr         r1,[r4,#0xc]=>DAT_200031d4              
ram:0007bbe6    01f0c5fa        bl          FUN_0007d174                            ;undefined FUN_0007d174(undefined4 * ...
ram:0007bbea    08b1            cbz         r0,LAB_0007bbf0                         
ram:0007bbec    fff70af9        bl          FUN_0007ae04                            ;undefined FUN_0007ae04(void)
                            LAB_0007bbf0:                 ;XREF[1,0]:   0007bbea
ram:0007bbf0    1248            ldr         r0,[DAT_0007bc3c]                       ;= 20002C58h
ram:0007bbf2    e268            ldr         r2,[r4,#0xc]=>DAT_200031d4              
ram:0007bbf4    0838            subs        r0,#0x8                                 
ram:0007bbf6    0023            movs        r3,#0x0                                 
ram:0007bbf8    4168            ldr         r1,[r0,#0x4]=>DAT_20002c54              
ram:0007bbfa    0830            adds        r0=>DAT_20002c58,#0x8                   
ram:0007bbfc    01f0f8fa        bl          FUN_0007d1f0                            ;int FUN_0007d1f0(undefined4 * param_...
ram:0007bc00    0500            movs        r5,r0                                   
ram:0007bc02    15d1            bne         LAB_0007bc30                            
ram:0007bc04    1421            movs        r1,#0x14                                
ram:0007bc06    01a8            add         r0,sp,#0x4                              
ram:0007bc08    fef7d1fc        bl          FUN_0007a5ae                            ;undefined FUN_0007a5ae(undefined * p...
ram:0007bc0c    0020            movs        r0,#0x0                                 
ram:0007bc0e    8df80400        strb.w      r0,[sp,#local_24+0x28]                  
ram:0007bc12    0a48            ldr         r0,[DAT_0007bc3c]                       ;= 20002C58h
ram:0007bc14    0df1040c        add.w       r12,sp,#0x4                             
ram:0007bc18    2038            subs        r0,#0x20                                
ram:0007bc1a    8088            ldrh        r0,[r0,#0x4]=>DAT_20002c3c              
ram:0007bc1c    adf80600        strh.w      r0,[sp,#local_24+0x2a]                  
ram:0007bc20    e068            ldr         r0,[r4,#0xc]=>DAT_200031d4              
ram:0007bc22    0490            str         r0,[sp,#local_18+0x28]                  
ram:0007bc24    0598            ldr         r0,[sp,#local_14+0x28]                  
ram:0007bc26    0090            str         r0,[sp,#0x0]=>local_28                  
ram:0007bc28    9ce80f00        ldm.w       r12=>local_24,{r0,r1,r2,r3}             
ram:0007bc2c    fff7b8fd        bl          FUN_0007b7a0                            ;undefined FUN_0007b7a0(uint param_1,...
                            LAB_0007bc30:                 ;XREF[1,0]:   0007bc02
ram:0007bc30    07b0            add         sp,#0x1c                                
ram:0007bc32    2846            mov         r0,r5                                   
ram:0007bc34    30bd            pop         {r4,r5,pc}                              
ram:0007bc36    0000            movs        r0,r0                                   
                            DAT_0007bc38:                 ;XREF[1,0]:   0007bbde
ram:0007bc38    c8310020        undefined4  200031C8h                               
                            DAT_0007bc3c:                 ;XREF[3,0]:   0007bbe2,0007bbf0,0007bc12
ram:0007bc3c    582c0020        undefined4  20002C58h                               
                            ;************************************************************************************************
                            ;*                                           FUNCTION                                           *
                            ;************************************************************************************************
                            ;undefined4 LAB_0007bc40+1(uint param_1)
          ;param_1       uint                r0                      
          ;local_8       undefined4          -8                      ;XREF[1,0]:   0007bc54
                                                          ;XREF[0,2]:   0007c4fe,0007c538
ram:0007bc40    0321            movs        r1,#0x3                                 
ram:0007bc42    61f30700        bfi         param_1,r1,#0x0,#0x8                    
ram:0007bc46    08b5            push        {r3,lr}                                 
ram:0007bc48    0549            ldr         r1,[DAT_0007bc60]                       ;= 20002C38h
ram:0007bc4a    064b            ldr         r3,[DAT_0007bc64]                       ;= 200031CCh
ram:0007bc4c    8988            ldrh        r1,[r1,#0x4]=>DAT_20002c3c              
ram:0007bc4e    61f31f40        bfi         param_1,r1,#0x10,#0x10                  
                                                          ; FWD[3,0]:   200031cc,200031d0,200031d4
ram:0007bc52    0ecb            ldmia       r3=>DAT_200031cc,{r1,r2,r3}=>DAT_2000...
ram:0007bc54    0094            str         r4,[sp,#0x0]=>local_8                   
ram:0007bc56    fff7a3fd        bl          FUN_0007b7a0                            ;undefined FUN_0007b7a0(uint param_1,...
ram:0007bc5a    0020            movs        param_1,#0x0                            
ram:0007bc5c    08bd            pop         {r3,pc}                                 
ram:0007bc5e    0000            movs        r0,r0                                   
                            DAT_0007bc60:                 ;XREF[1,0]:   0007bc48
ram:0007bc60    382c0020        undefined4  20002C38h                               
                            DAT_0007bc64:                 ;XREF[1,0]:   0007bc4a
ram:0007bc64    cc310020        undefined4  200031CCh                               
                            ;************************************************************************************************
                            ;*                                           FUNCTION                                           *
                            ;************************************************************************************************
                            ;undefined4 LAB_0007bc68+1(uint param_1)
          ;param_1       uint                r0                      
          ;local_10      undefined4         -10                      ;XREF[1,0]:   0007bc82
                                                          ;XREF[0,2]:   0007c4fe,0007c52c
ram:0007bc68    0121            movs        r1,#0x1                                 
ram:0007bc6a    38b5            push        {r3,r4,r5,lr}                           
ram:0007bc6c    61f30700        bfi         param_1,r1,#0x0,#0x8                    
ram:0007bc70    0649            ldr         r1,[DAT_0007bc8c]                       ;= 20002C38h
ram:0007bc72    074b            ldr         r3,[DAT_0007bc90]                       ;= 200031CCh
ram:0007bc74    8988            ldrh        r1,[r1,#0x4]=>DAT_20002c3c              
ram:0007bc76    61f31f40        bfi         param_1,r1,#0x10,#0x10                  
ram:0007bc7a    4ff44051        mov.w       r1,#0x3000                              
ram:0007bc7e    8c68            ldr         r4,[r1,#offset DAT_00003008 &0xff]      
                                                          ; FWD[3,0]:   200031cc,200031d0,200031d4
ram:0007bc80    0ecb            ldmia       r3=>DAT_200031cc,{r1,r2,r3}=>DAT_2000...
ram:0007bc82    0094            str         r4,[sp,#0x0]=>local_10                  
ram:0007bc84    fff78cfd        bl          FUN_0007b7a0                            ;undefined FUN_0007b7a0(uint param_1,...
ram:0007bc88    0020            movs        param_1,#0x0                            
ram:0007bc8a    38bd            pop         {r3,r4,r5,pc}                           
                            DAT_0007bc8c:                 ;XREF[1,0]:   0007bc70
ram:0007bc8c    382c0020        undefined4  20002C38h                               
                            DAT_0007bc90:                 ;XREF[1,0]:   0007bc72
ram:0007bc90    cc310020        undefined4  200031CCh                               
                            ;************************************************************************************************
                            ;*                                           FUNCTION                                           *
                            ;************************************************************************************************
                            ;undefined * FUN_0007bc94(undefined4 param_1, undefined4 param_2, undefined4 param_3, undefined * param_4)
          ;param_1       undefined4          r0                      
          ;param_2       undefined4          r1                      
          ;param_3       undefined4          r2                      
          ;param_4       undefined *         r3                      
          ;local_10      undefined4         -10                      ;XREF[1,0]:   0007bcaa
          ;local_18      undefined4         -18                      ;XREF[2,0]:   0007bc9e,0007bcb4
          ;local_1c      undefined4         -1c                      ;XREF[2,0]:   0007bca4,0007bca8
          ;local_30      undefined4         -30                      ;XREF[1,0]:   0007bcb8
          ;local_38      undefined4         -38                      ;XREF[1,0]:   0007bcb0
                                                          ;XREF[1,0]:   0007b72c
ram:0007bc94    00b5            push        {lr}                                    
ram:0007bc96    8db0            sub         sp,#0x34                                
ram:0007bc98    04a8            add         param_1,sp,#0x10                        
ram:0007bc9a    fff709fe        bl          FUN_0007b8b0                            ;undefined FUN_0007b8b0(undefined * p...
ram:0007bc9e    0898            ldr         param_1,[sp,#local_18+0x38]             
ram:0007bca0    0028            cmp         param_1,#0x0                            
ram:0007bca2    0cd0            beq         LAB_0007bcbe                            
ram:0007bca4    0798            ldr         param_1,[sp,#local_1c+0x38]             
ram:0007bca6    60b1            cbz         param_1,LAB_0007bcc2                    
ram:0007bca8    0799            ldr         param_2,[sp,#local_1c+0x38]             
ram:0007bcaa    0a98            ldr         param_1,[sp,#local_10+0x38]             
ram:0007bcac    0844            add         param_1,param_2                         
                            LAB_0007bcae:                 ;XREF[1,0]:   0007bcde
ram:0007bcae    0021            movs        param_2,#0x0                            
ram:0007bcb0    cde90010        strd        param_2,param_1,[sp,#0x0]=>local_38     
ram:0007bcb4    0898            ldr         param_1,[sp,#local_18+0x38]             
ram:0007bcb6    8008            lsrs        param_1,param_1,#0x2                    
ram:0007bcb8    0290            str         param_1,[sp,#local_30+0x38]             
ram:0007bcba    6846            mov         param_1,sp                              
ram:0007bcbc    18df            svc         0x18                                    
                            LAB_0007bcbe:                 ;XREF[1,0]:   0007bca2
ram:0007bcbe    0db0            add         sp,#0x34                                
ram:0007bcc0    00bd            pop         {pc}                                    
                            LAB_0007bcc2:                 ;XREF[1,0]:   0007bca6
ram:0007bcc2    4ff44050        mov.w       param_1,#0x3000                         
ram:0007bcc6    8068            ldr         param_1,[param_1,#offset DAT_00003008...
ram:0007bcc8    c0f5ee22        rsb.w       param_3,param_1,#0x77000                
ram:0007bccc    c0f5f421        rsb.w       param_2,param_1,#MasterStackPointer     ;= 20005438
ram:0007bcd0    c2f30c02        ubfx        param_3,param_3,#0x0,#0xd               
ram:0007bcd4    891a            subs        param_2,param_2,param_3                 
ram:0007bcd6    a1f54051        sub.w       param_2,param_2,#0x3000                 
ram:0007bcda    00eb5100        add.w       param_1,param_1,param_2, lsr #0x1       
ram:0007bcde    e6e7            b           LAB_0007bcae                            
                            ;************************************************************************************************
                            ;*                                           FUNCTION                                           *
                            ;************************************************************************************************
                            ;undefined * FUN_0007bce0(undefined4 param_1, undefined4 param_2, undefined4 param_3, undefined * param_4)
          ;param_1       undefined4          r0                      
          ;param_2       undefined4          r1                      
          ;param_3       undefined4          r2                      
          ;param_4       undefined *         r3                      
          ;local_10      undefined4         -10                      ;XREF[1,0]:   0007bcf6
          ;local_18      undefined4         -18                      ;XREF[2,0]:   0007bcea,0007bd06
          ;local_1c      undefined4         -1c                      ;XREF[2,0]:   0007bcf0,0007bcf4
          ;local_2c      undefined4         -2c                      ;XREF[1,0]:   0007bd0a
          ;local_34      undefined4         -34                      ;XREF[1,0]:   0007bd02
          ;local_38      undefined4         -38                      ;XREF[1,0]:   0007bcfc
                                                          ;XREF[1,0]:   0007b70a
ram:0007bce0    00b5            push        {lr}                                    
ram:0007bce2    8db0            sub         sp,#0x34                                
ram:0007bce4    04a8            add         param_1,sp,#0x10                        
ram:0007bce6    fff7e3fd        bl          FUN_0007b8b0                            ;undefined FUN_0007b8b0(undefined * p...
ram:0007bcea    0898            ldr         param_1,[sp,#local_18+0x38]             
ram:0007bcec    0028            cmp         param_1,#0x0                            
ram:0007bcee    0fd0            beq         LAB_0007bd10                            
ram:0007bcf0    0798            ldr         param_1,[sp,#local_1c+0x38]             
ram:0007bcf2    78b1            cbz         param_1,LAB_0007bd14                    
ram:0007bcf4    0799            ldr         param_2,[sp,#local_1c+0x38]             
ram:0007bcf6    0a98            ldr         param_1,[sp,#local_10+0x38]             
ram:0007bcf8    0844            add         param_1,param_2                         
                            LAB_0007bcfa:                 ;XREF[1,0]:   0007bd30
ram:0007bcfa    0321            movs        param_2,#0x3                            
ram:0007bcfc    0091            str         param_2,[sp,#0x0]=>local_38             
ram:0007bcfe    4ff4f421        mov.w       param_2,#MasterStackPointer             ;= 20005438
ram:0007bd02    cde90110        strd        param_2=>...,param_1,[sp,#local_34+0x38];= 20005438
ram:0007bd06    0898            ldr         param_1,[sp,#local_18+0x38]             
ram:0007bd08    8008            lsrs        param_1,param_1,#0x2                    
ram:0007bd0a    0390            str         param_1,[sp,#local_2c+0x38]             
ram:0007bd0c    6846            mov         param_1,sp                              
ram:0007bd0e    18df            svc         0x18                                    
                            LAB_0007bd10:                 ;XREF[1,0]:   0007bcee
ram:0007bd10    0db0            add         sp,#0x34                                
ram:0007bd12    00bd            pop         {pc}                                    
                            LAB_0007bd14:                 ;XREF[1,0]:   0007bcf2
ram:0007bd14    4ff44050        mov.w       param_1,#0x3000                         
ram:0007bd18    8068            ldr         param_1,[param_1,#offset DAT_00003008...
ram:0007bd1a    c0f5ee22        rsb.w       param_3,param_1,#0x77000                
ram:0007bd1e    c0f5f421        rsb.w       param_2,param_1,#MasterStackPointer     ;= 20005438
ram:0007bd22    c2f30c02        ubfx        param_3,param_3,#0x0,#0xd               
ram:0007bd26    891a            subs        param_2,param_2,param_3                 
ram:0007bd28    a1f54051        sub.w       param_2,param_2,#0x3000                 
ram:0007bd2c    00eb5100        add.w       param_1,param_1,param_2, lsr #0x1       
ram:0007bd30    e3e7            b           LAB_0007bcfa                            
ram:0007bd32    0000            movs        r0,r0                                   
                            ;************************************************************************************************
                            ;*                                           FUNCTION                                           *
                            ;************************************************************************************************
                            ;undefined4 FUN_0007bd34(undefined4 * param_1)
          ;param_1       undefined4 *        r0                      
                                                          ;XREF[1,0]:   0007c5fe
ram:0007bd34    70b5            push        {r4,r5,r6,lr}                           
ram:0007bd36    0400            movs        r4,param_1                              
ram:0007bd38    0bd0            beq         LAB_0007bd52                            
ram:0007bd3a    0022            movs        r2,#0x0                                 
ram:0007bd3c    3c21            movs        r1,#0x3c                                
ram:0007bd3e    0b48            ldr         param_1,[DAT_0007bd6c]                  ;= 2000FF82h
ram:0007bd40    fff731ff        bl          FUN_0007bba6                            ;uint FUN_0007bba6(int param_1, uint ...
ram:0007bd44    094d            ldr         r5,[DAT_0007bd6c]                       ;= 2000FF82h
ram:0007bd46    ad1e            subs        r5,r5,#0x2                              
ram:0007bd48    2988            ldrh        r1,[r5,#0x0]=>DAT_2000ff80              
ram:0007bd4a    8842            cmp         param_1,r1                              
ram:0007bd4c    03d0            beq         LAB_0007bd56                            
ram:0007bd4e    0b20            movs        param_1,#0xb                            
ram:0007bd50    70bd            pop         {r4,r5,r6,pc}                           
                            LAB_0007bd52:                 ;XREF[1,0]:   0007bd38
ram:0007bd52    0e20            movs        param_1,#0xe                            
ram:0007bd54    70bd            pop         {r4,r5,r6,pc}                           
                            LAB_0007bd56:                 ;XREF[1,0]:   0007bd4c
ram:0007bd56    3c22            movs        r2,#0x3c                                
ram:0007bd58    0449            ldr         r1,[DAT_0007bd6c]                       ;= 2000FF82h
ram:0007bd5a    2046            mov         param_1,r4                              
ram:0007bd5c    fef70efc        bl          FUN_0007a57c                            ;undefined FUN_0007a57c(undefined4 * ...
ram:0007bd60    2888            ldrh        param_1,[r5,#0x0]=>DAT_2000ff80         
ram:0007bd62    401c            adds        param_1,param_1,#0x1                    
ram:0007bd64    2880            strh        param_1,[r5,#0x0]=>DAT_2000ff80         
ram:0007bd66    0020            movs        param_1,#0x0                            
ram:0007bd68    70bd            pop         {r4,r5,r6,pc}                           
ram:0007bd6a    0000            movs        r0,r0                                   
                            DAT_0007bd6c:                 ;XREF[3,0]:   0007bd3e,0007bd44,0007bd58
ram:0007bd6c    82ff0020        undefined4  2000FF82h                               
                            ;************************************************************************************************
                            ;*                                           FUNCTION                                           *
                            ;************************************************************************************************
                            ;undefined FUN_0007bd70(int param_1, int param_2, int param_3)
          ;param_1       int                 r0                      
          ;param_2       int                 r1                      
          ;param_3       int                 r2                      
                                                          ;XREF[0,2]:   0007c5ee,0007c6cc
ram:0007bd70    70b5            push        {r4,r5,r6,lr}                           
ram:0007bd72    1546            mov         r5,param_3                              
ram:0007bd74    0a46            mov         param_3,param_2                         
ram:0007bd76    0328            cmp         param_1,#0x3                            
ram:0007bd78    1fd0            beq         LAB_0007bdba                            
ram:0007bd7a    0428            cmp         param_1,#0x4                            
ram:0007bd7c    24d1            bne         LAB_0007bdc8                            
ram:0007bd7e    134c            ldr         r4,[DAT_0007bdcc]                       ;= 20002C64h
ram:0007bd80    39b1            cbz         param_2,LAB_0007bd92                    
ram:0007bd82    e088            ldrh        param_1,[r4,#0x6]=>DAT_20002c6a         
ram:0007bd84    a0f57f41        sub.w       param_2,param_1,#0xff00                 
ram:0007bd88    ff39            subs        param_2,#0xff                           
ram:0007bd8a    1dd0            beq         LAB_0007bdc8                            
ram:0007bd8c    1321            movs        param_2,#0x13                           
ram:0007bd8e    76df            svc         0x76                                    
ram:0007bd90    0de0            b           LAB_0007bdae                            
                            LAB_0007bd92:                 ;XREF[1,0]:   0007bd80
ram:0007bd92    2846            mov         param_1,r5                              
ram:0007bd94    00f0e0fc        bl          FUN_0007c758                            ;undefined4 FUN_0007c758(int param_1)
ram:0007bd98    08b1            cbz         param_1,LAB_0007bd9e                    
ram:0007bd9a    fff733f8        bl          FUN_0007ae04                            ;undefined FUN_0007ae04(void)
                            LAB_0007bd9e:                 ;XREF[1,0]:   0007bd98
ram:0007bd9e    a069            ldr         param_1,[r4,#0x18]=>DAT_20002c7c        
ram:0007bda0    a842            cmp         param_1,r5                              
ram:0007bda2    11d1            bne         LAB_0007bdc8                            
ram:0007bda4    0122            movs        param_3,#0x1                            
ram:0007bda6    0321            movs        param_2,#0x3                            
                            LAB_0007bda8:                 ;XREF[1,0]:   0007bdc6
ram:0007bda8    0948            ldr         param_1,[DAT_0007bdd0]                  ;= 20003280h
ram:0007bdaa    fff7d1fb        bl          FUN_0007b550                            ;undefined8 FUN_0007b550(ushort * par...
                            LAB_0007bdae:                 ;XREF[1,0]:   0007bd90
ram:0007bdae    0028            cmp         param_1,#0x0                            
ram:0007bdb0    0ad0            beq         LAB_0007bdc8                            
ram:0007bdb2    bde87040        pop.w       {r4,r5,r6,lr}                           
ram:0007bdb6    fff725b8        b.w         FUN_0007ae04                            ;undefined FUN_0007ae04(void)
                            LAB_0007bdba:                 ;XREF[1,0]:   0007bd78
ram:0007bdba    0121            movs        param_2,#0x1                            
ram:0007bdbc    1046            mov         param_1,param_3                         
ram:0007bdbe    00f0e2ff        bl          FUN_0007cd86                            ;undefined4 FUN_0007cd86(int param_1,...
ram:0007bdc2    0246            mov         param_3,param_1                         
ram:0007bdc4    0121            movs        param_2,#0x1                            
ram:0007bdc6    efe7            b           LAB_0007bda8                            
                            LAB_0007bdc8:                 ;XREF[4,0]:   0007bd7c,0007bd8a,0007bda2,0007bdb0
ram:0007bdc8    70bd            pop         {r4,r5,r6,pc}                           
ram:0007bdca    0000            movs        r0,r0                                   
                            DAT_0007bdcc:                 ;XREF[1,0]:   0007bd7e
ram:0007bdcc    642c0020        undefined4  20002C64h                               
                            DAT_0007bdd0:                 ;XREF[1,0]:   0007bda8
ram:0007bdd0    80320020        undefined4  20003280h                               
                            ;************************************************************************************************
                            ;*                                           FUNCTION                                           *
                            ;************************************************************************************************
                            ;undefined FUN_0007bdd4(void)
          ;local_c       undefined4          -c                      ;XREF[1,0]:   0007bde2
          ;local_1c      undefined4         -1c                      ;XREF[1,0]:   0007bdea
          ;local_20      undefined4         -20                      ;XREF[1,0]:   0007bde8
                                                          ;XREF[0,2]:   0007c4c8,0007c528
ram:0007bdd4    00b5            push        {lr}                                    
ram:0007bdd6    87b0            sub         sp,#0x1c                                
ram:0007bdd8    1422            movs        r2,#0x14                                
ram:0007bdda    0749            ldr         r1=>DAT_0007d944,[PTR_DAT_0007bdf8]     ;= 04h
                                                                                    ;= 0007d944
ram:0007bddc    01a8            add         r0,sp,#0x4                              
ram:0007bdde    fef7cdfb        bl          FUN_0007a57c                            ;undefined FUN_0007a57c(undefined4 * ...
ram:0007bde2    0598            ldr         r0,[sp,#local_c+0x20]                   
ram:0007bde4    0df1040c        add.w       r12,sp,#0x4                             
ram:0007bde8    0090            str         r0,[sp,#0x0]=>local_20                  
ram:0007bdea    9ce80f00        ldm.w       r12=>local_1c,{r0,r1,r2,r3}             
ram:0007bdee    fff7d7fc        bl          FUN_0007b7a0                            ;undefined FUN_0007b7a0(uint param_1,...
ram:0007bdf2    07b0            add         sp,#0x1c                                
ram:0007bdf4    00bd            pop         {pc}                                    
ram:0007bdf6    0000            movs        r0,r0                                   
                            PTR_DAT_0007bdf8:             ;XREF[1,0]:   0007bdda
ram:0007bdf8    44d90700        addr        DAT_0007d944                            ;= 04h
                            ;************************************************************************************************
                            ;*                                           FUNCTION                                           *
                            ;************************************************************************************************
                            ;undefined LAB_0007bdfc+1(void)
                                                          ;XREF[0,2]:   0007c4f2,0007c534
ram:0007bdfc    7047            bx          lr                                      
                            ;************************************************************************************************
                            ;*                                           FUNCTION                                           *
                            ;************************************************************************************************
                            ;undefined * FUN_0007bdfe(void)
          ;local_c       undefined4          -c                      ;XREF[1,0]:   0007be0a
          ;local_14      undefined4         -14                      ;XREF[1,0]:   0007be04
          ;local_18      undefined4         -18                      ;XREF[1,0]:   0007be02
                                                          ;XREF[2,0]:   0007c42c,0007c462
ram:0007bdfe    1fb5            push        {r0,r1,r2,r3,r4,lr}                     
ram:0007be00    0323            movs        r3,#0x3                                 
ram:0007be02    0093            str         r3,[sp,#0x0]=>local_18                  
ram:0007be04    cde90101        strd        r0,r1,[sp,#local_14+0x18]               
ram:0007be08    9008            lsrs        r0,r2,#0x2                              
ram:0007be0a    0390            str         r0,[sp,#local_c+0x18]                   
ram:0007be0c    6846            mov         r0,sp                                   
ram:0007be0e    18df            svc         0x18                                    
ram:0007be10    04b0            add         sp,#0x10                                
ram:0007be12    10bd            pop         {r4,pc}                                 
                            ;************************************************************************************************
                            ;*                                           FUNCTION                                           *
                            ;************************************************************************************************
                            ;undefined * FUN_0007be14(void)
          ;local_c       undefined4          -c                      ;XREF[1,0]:   0007be20
          ;local_14      undefined4         -14                      ;XREF[1,0]:   0007be1a
          ;local_18      undefined4         -18                      ;XREF[1,0]:   0007be18
                                                          ;XREF[4,0]:   0007c38e,0007c39c,0007c3ba,0007c450
ram:0007be14    1fb5            push        {r0,r1,r2,r3,r4,lr}                     
ram:0007be16    0123            movs        r3,#0x1                                 
ram:0007be18    0093            str         r3,[sp,#0x0]=>local_18                  
ram:0007be1a    cde90101        strd        r0,r1,[sp,#local_14+0x18]               
ram:0007be1e    9008            lsrs        r0,r2,#0x2                              
ram:0007be20    0390            str         r0,[sp,#local_c+0x18]                   
ram:0007be22    6846            mov         r0,sp                                   
ram:0007be24    18df            svc         0x18                                    
ram:0007be26    04b0            add         sp,#0x10                                
ram:0007be28    10bd            pop         {r4,pc}                                 
                            ;************************************************************************************************
                            ;*                                           FUNCTION                                           *
                            ;************************************************************************************************
                            ;undefined8 FUN_0007be2a(int param_1)
          ;param_1       int                 r0                      
          ;local_12      undefined1         -12                      ;XREF[1,0]:   0007be52
          ;local_14      undefined2         -14                      ;XREF[1,0]:   0007be5a
          ;local_18      undefined4         -18                      ;XREF[3,4]:   0007be5e,0007be60,0007be6a,0007be6e,0007be7e
                                                                     ;             0007be82,0007be94
          ;local_1c      undefined4         -1c                      ;XREF[1,0]:   0007beb4
          ;local_20      undefined2         -20                      ;XREF[1,0]:   0007beb0
          ;local_22      undefined2         -22                      ;XREF[1,0]:   0007beac
          ;local_24      undefined2         -24                      ;XREF[1,0]:   0007bea6
          ;local_28      undefined4         -28                      ;XREF[1,0]:   0007bea4
          ;local_2c      undefined4         -2c                      ;XREF[1,0]:   0007bea0
          ;local_30      undefined4         -30                      ;XREF[1,0]:   0007be4e
          ;local_34      undefined4         -34                      ;XREF[1,0]:   0007be4c
          ;local_38      undefined4         -38                      ;XREF[1,0]:   0007be4a
          ;local_3c      undefined4         -3c                      ;XREF[1,0]:   0007be48
          ;local_44      undefined4         -44                      ;XREF[1,0]:   0007be3e
          ;local_48      undefined1         -48                      ;XREF[2,0]:   0007be3a,0007be44
                                                          ;XREF[1,0]:   0007b41a
ram:0007be2a    30b5            push        {r4,r5,lr}                              
ram:0007be2c    8fb0            sub         sp,#0x3c                                
ram:0007be2e    0546            mov         r5,param_1                              
ram:0007be30    1c21            movs        r1,#0x1c                                
ram:0007be32    6846            mov         param_1,sp                              
ram:0007be34    fef7bbfb        bl          FUN_0007a5ae                            ;undefined FUN_0007a5ae(undefined * p...
ram:0007be38    0024            movs        r4,#0x0                                 
ram:0007be3a    9df80000        ldrb.w      param_1,[sp,#0x0]=>local_48             
ram:0007be3e    0194            str         r4,[sp,#local_44+0x48]                  
ram:0007be40    40f01800        orr         param_1,param_1,#0x18                   
ram:0007be44    8df80000        strb.w      param_1,[sp,#0x0]=>local_48             
ram:0007be48    0394            str         r4,[sp,#local_3c+0x48]                  
ram:0007be4a    0494            str         r4,[sp,#local_38+0x48]                  
ram:0007be4c    0594            str         r4,[sp,#local_34+0x48]                  
ram:0007be4e    0694            str         r4,[sp,#local_30+0x48]                  
ram:0007be50    a879            ldrb        param_1,[r5,#0x6]                       
ram:0007be52    8df83600        strb.w      param_1,[sp,#local_12+0x48]             
ram:0007be56    41f23150        movw        param_1,#0x1531                         
ram:0007be5a    adf83400        strh.w      param_1,[sp,#local_14+0x48]             
ram:0007be5e    0c94            str         r4,[sp,#local_18+0x48]                  
ram:0007be60    9df83000        ldrb.w      param_1,[sp,#local_18+0x48]             
ram:0007be64    1421            movs        r1,#0x14                                
ram:0007be66    20f0ff00        bic         param_1,param_1,#0xff                   
ram:0007be6a    8df83000        strb.w      param_1,[sp,#local_18+0x48]             
ram:0007be6e    9df83100        ldrb.w      param_1,[sp,#local_18+0x49]             
ram:0007be72    20f00f00        bic         param_1,param_1,#0xf                    
ram:0007be76    401c            adds        param_1,param_1,#0x1                    
ram:0007be78    20f0f000        bic         param_1,param_1,#0xf0                   
ram:0007be7c    1030            adds        param_1,#0x10                           
ram:0007be7e    8df83100        strb.w      param_1,[sp,#local_18+0x49]             
ram:0007be82    9df83200        ldrb.w      param_1,[sp,#local_18+0x4a]             
ram:0007be86    20f00600        bic         param_1,param_1,#0x6                    
ram:0007be8a    801c            adds        param_1,param_1,#0x2                    
ram:0007be8c    20f00800        bic         param_1,param_1,#0x8                    
ram:0007be90    40f01100        orr         param_1,param_1,#0x11                   
ram:0007be94    8df83200        strb.w      param_1,[sp,#local_18+0x4a]             
ram:0007be98    07a8            add         param_1,sp,#0x1c                        
ram:0007be9a    fef788fb        bl          FUN_0007a5ae                            ;undefined FUN_0007a5ae(undefined * p...
ram:0007be9e    0da8            add         param_1,sp,#0x34                        
ram:0007bea0    0790            str         param_1,[sp,#local_2c+0x48]             
ram:0007bea2    0ca8            add         param_1,sp,#0x30                        
ram:0007bea4    0890            str         param_1,[sp,#local_28+0x48]             
ram:0007bea6    adf82440        strh.w      r4,[sp,#local_24+0x48]                  
ram:0007beaa    1720            movs        param_1,#0x17                           
ram:0007beac    adf82640        strh.w      r4,[sp,#local_22+0x48]                  
ram:0007beb0    adf82800        strh.w      param_1,[sp,#local_20+0x48]             
ram:0007beb4    0b94            str         r4,[sp,#local_1c+0x48]                  
ram:0007beb6    a888            ldrh        param_1,[r5,#0x4]                       
ram:0007beb8    05f11003        add.w       r3,r5,#0x10                             
ram:0007bebc    07aa            add         r2,sp,#0x1c                             
ram:0007bebe    6946            mov         r1,sp                                   
ram:0007bec0    a2df            svc         0xa2                                    
ram:0007bec2    0fb0            add         sp,#0x3c                                
ram:0007bec4    30bd            pop         {r4,r5,pc}                              
ram:0007bec6    0000            movs        r0,r0                                   
                            ;************************************************************************************************
                            ;*                                           FUNCTION                                           *
                            ;************************************************************************************************
                            ;int FUN_0007bec8(int param_1, undefined4 param_2, undefined4 param_3, undefined4 param_4)
          ;param_1       int                 r0                      
          ;param_2       undefined4          r1                      
          ;param_3       undefined4          r2                      
          ;param_4       undefined4          r3                      
                                                          ;XREF[1,0]:   0007ad80
ram:0007bec8    70b5            push        {r4,r5,r6,lr}                           
ram:0007beca    0500            movs        r5,param_1                              
ram:0007becc    04d0            beq         LAB_0007bed8                            
ram:0007bece    287a            ldrb        param_1,[r5,#0x8]                       
ram:0007bed0    8007            lsls        param_1,param_1,#0x1e                   
ram:0007bed2    03d0            beq         LAB_0007bedc                            
ram:0007bed4    1020            movs        param_1,#0x10                           
ram:0007bed6    70bd            pop         {r4,r5,r6,pc}                           
                            LAB_0007bed8:                 ;XREF[1,0]:   0007becc
ram:0007bed8    0e20            movs        param_1,#0xe                            
ram:0007beda    70bd            pop         {r4,r5,r6,pc}                           
                            LAB_0007bedc:                 ;XREF[1,0]:   0007bed2
ram:0007bedc    144c            ldr         r4,[DAT_0007bf30]                       ;= 20002C38h
ram:0007bede    6078            ldrb        param_1,[r4,#0x1]=>DAT_20002c39         
ram:0007bee0    0328            cmp         param_1,#0x3                            
ram:0007bee2    03d0            beq         LAB_0007beec                            
ram:0007bee4    0428            cmp         param_1,#0x4                            
ram:0007bee6    01d0            beq         LAB_0007beec                            
ram:0007bee8    0528            cmp         param_1,#0x5                            
ram:0007beea    01d0            beq         LAB_0007bef0                            
                            LAB_0007beec:                 ;XREF[2,0]:   0007bee2,0007bee6
ram:0007beec    0820            movs        param_1,#0x8                            
ram:0007beee    70bd            pop         {r4,r5,r6,pc}                           
                            LAB_0007bef0:                 ;XREF[1,0]:   0007beea
ram:0007bef0    6868            ldr         param_1,[r5,#0x4]                       
ram:0007bef2    e168            ldr         param_2,[r4,#0xc]=>DAT_20002c44         
ram:0007bef4    8600            lsls        r6,param_1,#0x2                         
ram:0007bef6    a068            ldr         param_1,[r4,#0x8]=>DAT_20002c40         
ram:0007bef8    3044            add         param_1,r6                              
ram:0007befa    8842            cmp         param_1,param_2                         
ram:0007befc    04d9            bls         LAB_0007bf08                            
ram:0007befe    4ff0ff30        mov.w       param_1,#0xffffffff                     
ram:0007bf02    a060            str         param_1,[r4,#0x8]=>DAT_20002c40         
ram:0007bf04    0c20            movs        param_1,#0xc                            
                            LAB_0007bf06:                 ;XREF[3,0]:   0007bf0e,0007bf1e,0007bf2a
ram:0007bf06    70bd            pop         {r4,r5,r6,pc}                           
                            LAB_0007bf08:                 ;XREF[1,0]:   0007befc
ram:0007bf08    00f028fb        bl          FUN_0007c55c                            ;int FUN_0007c55c(undefined4 param_1,...
ram:0007bf0c    0028            cmp         param_1,#0x0                            
ram:0007bf0e    fad1            bne         LAB_0007bf06                            
ram:0007bf10    a968            ldr         param_2,[r5,#0x8]                       
ram:0007bf12    3246            mov         param_3,r6                              
ram:0007bf14    a368            ldr         param_4,[r4,#0x8]=>DAT_20002c40         
ram:0007bf16    2069            ldr         param_1,[r4,#0x10]=>DAT_20002c48        
ram:0007bf18    01f06af9        bl          FUN_0007d1f0                            ;int FUN_0007d1f0(undefined4 * param_...
ram:0007bf1c    0028            cmp         param_1,#0x0                            
ram:0007bf1e    f2d1            bne         LAB_0007bf06                            
ram:0007bf20    a168            ldr         param_2,[r4,#0x8]=>DAT_20002c40         
ram:0007bf22    3144            add         param_2,r6                              
ram:0007bf24    a160            str         param_2,[r4,#0x8]=>DAT_20002c40         
ram:0007bf26    e268            ldr         param_3,[r4,#0xc]=>DAT_20002c44         
ram:0007bf28    9142            cmp         param_2,param_3                         
ram:0007bf2a    ecd0            beq         LAB_0007bf06                            
ram:0007bf2c    0920            movs        param_1,#0x9                            
ram:0007bf2e    70bd            pop         {r4,r5,r6,pc}                           
                            DAT_0007bf30:                 ;XREF[1,0]:   0007bedc
ram:0007bf30    382c0020        undefined4  20002C38h                               
                            ;************************************************************************************************
                            ;*                                           FUNCTION                                           *
                            ;************************************************************************************************
                            ;undefined FUN_0007bf34(ushort * param_1, int param_2)
          ;param_1       ushort *            r0                      
          ;param_2       int                 r1                      
                                                          ;XREF[2,0]:   0007ad6a,0007ad98
ram:0007bf34    10b5            push        {r4,lr}                                 
ram:0007bf36    0a46            mov         r2,param_2                              
ram:0007bf38    0446            mov         r4,param_1                              
ram:0007bf3a    0321            movs        param_2,#0x3                            
ram:0007bf3c    1046            mov         param_1,r2                              
ram:0007bf3e    00f022ff        bl          FUN_0007cd86                            ;undefined4 FUN_0007cd86(int param_1,...
ram:0007bf42    0246            mov         r2,param_1                              
ram:0007bf44    0321            movs        param_2,#0x3                            
ram:0007bf46    2046            mov         param_1,r4                              
ram:0007bf48    fff702fb        bl          FUN_0007b550                            ;undefined8 FUN_0007b550(ushort * par...
ram:0007bf4c    0028            cmp         param_1,#0x0                            
ram:0007bf4e    03d0            beq         LAB_0007bf58                            
ram:0007bf50    bde81040        pop.w       {r4,lr}                                 
ram:0007bf54    fef756bf        b.w         FUN_0007ae04                            ;undefined FUN_0007ae04(void)
                            LAB_0007bf58:                 ;XREF[1,0]:   0007bf4e
ram:0007bf58    10bd            pop         {r4,pc}                                 
ram:0007bf5a    0000            movs        r0,r0                                   
                            ;************************************************************************************************
                            ;*                                           FUNCTION                                           *
                            ;************************************************************************************************
                            ;undefined4 FUN_0007bf5c(undefined4 param_1, undefined4 param_2, undefined4 param_3, undefined4 param_4)
          ;param_1       undefined4          r0                      
          ;param_2       undefined4          r1                      
          ;param_3       undefined4          r2                      
          ;param_4       undefined4          r3                      
                                                          ;XREF[1,0]:   0007d062
ram:0007bf5c    0948            ldr         param_1,[DAT_0007bf84]                  ;= 20002C38h
ram:0007bf5e    10b5            push        {r4,lr}                                 
ram:0007bf60    4078            ldrb        param_1,[param_1,#0x1]=>DAT_20002c39    
ram:0007bf62    0728            cmp         param_1,#0x7                            
ram:0007bf64    01d0            beq         LAB_0007bf6a                            
ram:0007bf66    0820            movs        param_1,#0x8                            
ram:0007bf68    10bd            pop         {r4,pc}                                 
                            LAB_0007bf6a:                 ;XREF[1,0]:   0007bf64
ram:0007bf6a    0748            ldr         param_1,[PTR_DAT_0007bf88]              ;= 0007d940
ram:0007bf6c    0068            ldr         param_1,[param_1,#0x0]=>DAT_0007d940    ;= 200031A8h
ram:0007bf6e    fff7b1f8        bl          FUN_0007b0d4                            ;undefined4 FUN_0007b0d4(int param_1,...
ram:0007bf72    08b1            cbz         param_1,LAB_0007bf78                    
ram:0007bf74    fef746ff        bl          FUN_0007ae04                            ;undefined FUN_0007ae04(void)
                            LAB_0007bf78:                 ;XREF[1,0]:   0007bf72
ram:0007bf78    0448            ldr         param_1,[DAT_0007bf8c]                  ;= 20003258h
ram:0007bf7a    8068            ldr         param_1,[param_1,#0x8]=>DAT_20003260    
ram:0007bf7c    bde81040        pop.w       {r4,lr}                                 
ram:0007bf80    0047            bx          param_1                                 
ram:0007bf82    0000            movs        r0,r0                                   
                            DAT_0007bf84:                 ;XREF[1,0]:   0007bf5c
ram:0007bf84    382c0020        undefined4  20002C38h                               
                            PTR_DAT_0007bf88:             ;XREF[1,0]:   0007bf6a
ram:0007bf88    40d90700        addr        DAT_0007d940                            ;= 200031A8h
                            DAT_0007bf8c:                 ;XREF[1,0]:   0007bf78
ram:0007bf8c    58320020        undefined4  20003258h                               
                            ;************************************************************************************************
                            ;*                                           FUNCTION                                           *
                            ;************************************************************************************************
                            ;int FUN_0007bf90(undefined4 param_1, undefined4 param_2, undefined4 param_3, undefined4 param_4)
          ;param_1       undefined4          r0                      
          ;param_2       undefined4          r1                      
          ;param_3       undefined4          r2                      
          ;param_4       undefined4          r3                      
                                                          ;XREF[1,0]:   0007d048
ram:0007bf90    10b5            push        {r4,lr}                                 
ram:0007bf92    0d4c            ldr         r4,[DAT_0007bfc8]                       ;= 20002C38h
ram:0007bf94    6078            ldrb        param_1,[r4,#0x1]=>DAT_20002c39         
ram:0007bf96    0528            cmp         param_1,#0x5                            
ram:0007bf98    13d1            bne         LAB_0007bfc2                            
                                                          ; FWD[2,0]:   20002c40,20002c44
ram:0007bf9a    d4e90201        ldrd        param_1,param_2,[r4,#0x8]=>DAT_20002c40 
ram:0007bf9e    8842            cmp         param_1,param_2                         
ram:0007bfa0    0fd1            bne         LAB_0007bfc2                            
ram:0007bfa2    0620            movs        param_1,#0x6                            
ram:0007bfa4    6070            strb        param_1,[r4,#0x1]=>DAT_20002c39         
ram:0007bfa6    00f0d9fa        bl          FUN_0007c55c                            ;int FUN_0007c55c(undefined4 param_1,...
ram:0007bfaa    0028            cmp         param_1,#0x0                            
ram:0007bfac    08d1            bne         LAB_0007bfc0                            
ram:0007bfae    2069            ldr         param_1,[r4,#0x10]=>DAT_20002c48        
ram:0007bfb0    e168            ldr         param_2,[r4,#0xc]=>DAT_20002c44         
ram:0007bfb2    4068            ldr         param_1,[param_1,#0x4]                  
ram:0007bfb4    00f096f8        bl          FUN_0007c0e4                            ;undefined4 FUN_0007c0e4(int param_1,...
ram:0007bfb8    0028            cmp         param_1,#0x0                            
ram:0007bfba    01d1            bne         LAB_0007bfc0                            
ram:0007bfbc    0721            movs        param_2,#0x7                            
ram:0007bfbe    6170            strb        param_2,[r4,#0x1]=>DAT_20002c39         
                            LAB_0007bfc0:                 ;XREF[2,0]:   0007bfac,0007bfba
ram:0007bfc0    10bd            pop         {r4,pc}                                 
                            LAB_0007bfc2:                 ;XREF[2,0]:   0007bf98,0007bfa0
ram:0007bfc2    0820            movs        param_1,#0x8                            
ram:0007bfc4    10bd            pop         {r4,pc}                                 
ram:0007bfc6    0000            movs        r0,r0                                   
                            DAT_0007bfc8:                 ;XREF[1,0]:   0007bf92
ram:0007bfc8    382c0020        undefined4  20002C38h                               
                            ;************************************************************************************************
                            ;*                                           FUNCTION                                           *
                            ;************************************************************************************************
                            ;longlong FUN_0007bfcc(void)
          ;local_20      undefined4         -20                      ;XREF[1,0]:   0007bfda
                                                          ;XREF[1,0]:   0007b76c
ram:0007bfcc    feb5            push        {r1,r2,r3,r4,r5,r6,r7,lr}               
ram:0007bfce    1f4e            ldr         r6,[PTR_DAT_0007c04c]                   ;= 0007d940
ram:0007bfd0    1f4c            ldr         r4,[DAT_0007c050]                       ;= 20002C38h
ram:0007bfd2    06f11800        add.w       r0,r6,#0x18                             
ram:0007bfd6    0025            movs        r5,#0x0                                 
                                                          ; FWD[3,0]:   0007d958,0007d95c,0007d960
ram:0007bfd8    07c8            ldmia       r0,{r0,r1,r2}=>PTR_FUN_0007d120+1_000...;= 0007d121
ram:0007bfda    8de80700        stm         sp=>local_20,{r0,r1,r2}=>FUN_0007d120+1 
ram:0007bfde    a570            strb        r5,[r4,#0x2]=>DAT_20002c3a              
ram:0007bfe0    a580            strh        r5,[r4,#0x4]=>DAT_20002c3c              
ram:0007bfe2    04f12001        add.w       r1=>DAT_20002c58,r4,#0x20               
ram:0007bfe6    6846            mov         r0,sp                                   
ram:0007bfe8    01f0eef8        bl          FUN_0007d1c8                            ;undefined4 FUN_0007d1c8(undefined4 *...
ram:0007bfec    08b1            cbz         r0,LAB_0007bff2                         
ram:0007bfee    6570            strb        r5,[r4,#0x1]=>DAT_20002c39              
ram:0007bff0    febd            pop         {r1,r2,r3,r4,r5,r6,r7,pc}               
                            LAB_0007bff2:                 ;XREF[1,0]:   0007bfec
ram:0007bff2    4ff44050        mov.w       r0,#0x3000                              
ram:0007bff6    1649            ldr         r1,[DAT_0007c050]                       ;= 20002C38h
ram:0007bff8    8068            ldr         r0,[r0,#offset DAT_00003008 &0xff]      
ram:0007bffa    2031            adds        r1,#0x20                                
ram:0007bffc    c0f5ee22        rsb.w       r2,r0,#0x77000                          
ram:0007c000    4860            str         r0,[r1,#0x4]=>DAT_20002c5c              
ram:0007c002    216a            ldr         r1,[r4,#0x20]=>DAT_20002c58             
ram:0007c004    a161            str         r1,[r4,#0x18]=>DAT_20002c50             
ram:0007c006    c0f5f421        rsb.w       r1,r0,#MasterStackPointer               ;= 20005438
ram:0007c00a    c2f30c02        ubfx        r2,r2,#0x0,#0xd                         
ram:0007c00e    891a            subs        r1,r1,r2                                
ram:0007c010    a1f54051        sub.w       r1,r1,#0x3000                           
ram:0007c014    00eb5100        add.w       r0,r0,r1, lsr #0x1                      
ram:0007c018    0d49            ldr         r1,[DAT_0007c050]                       ;= 20002C38h
ram:0007c01a    0e4a            ldr         r2=>LAB_0007c540...,[PTR_LAB_0007c540...;= 0007c541
ram:0007c01c    1831            adds        r1,#0x18                                
ram:0007c01e    4860            str         r0,[r1,#0x4]=>DAT_20002c54              
ram:0007c020    0021            movs        r1,#0x0                                 
ram:0007c022    0a48            ldr         r0=>DAT_0007d940,[PTR_DAT_0007c04c]     ;= 200031A8h
                                                                                    ;= 0007d940
ram:0007c024    fef7a4ff        bl          FUN_0007af70                            ;undefined4 FUN_0007af70(int * param_...
ram:0007c028    08b1            cbz         r0,LAB_0007c02e                         
ram:0007c02a    fef7ebfe        bl          FUN_0007ae04                            ;undefined FUN_0007ae04(void)
                            LAB_0007c02e:                 ;XREF[1,0]:   0007c028
ram:0007c02e    0022            movs        r2,#0x0                                 
ram:0007c030    4ff47011        mov.w       r1,#0x3c0000                            
ram:0007c034    3068            ldr         r0,[r6,#0x0]=>DAT_0007d940              ;= 200031A8h
ram:0007c036    fff70df8        bl          FUN_0007b054                            ;undefined4 FUN_0007b054(int param_1,...
ram:0007c03a    08b1            cbz         r0,LAB_0007c040                         
ram:0007c03c    fef7e2fe        bl          FUN_0007ae04                            ;undefined FUN_0007ae04(void)
                            LAB_0007c040:                 ;XREF[1,0]:   0007c03a
ram:0007c040    0120            movs        r0,#0x1                                 
ram:0007c042    a560            str         r5,[r4,#0x8]=>DAT_20002c40              
ram:0007c044    6070            strb        r0,[r4,#0x1]=>DAT_20002c39              
ram:0007c046    0020            movs        r0,#0x0                                 
ram:0007c048    febd            pop         {r1,r2,r3,r4,r5,r6,r7,pc}               
ram:0007c04a    0000            movs        r0,r0                                   
                            PTR_DAT_0007c04c:             ;XREF[2,0]:   0007bfce,0007c022
ram:0007c04c    40d90700        addr        DAT_0007d940                            ;= 200031A8h
                            DAT_0007c050:                 ;XREF[3,0]:   0007bfd0,0007bff6,0007c018
ram:0007c050    382c0020        undefined4  20002C38h                               
                            PTR_LAB_0007c540+1+1_0007c054:;XREF[1,0]:   0007c01a
ram:0007c054    41c50700        addr        LAB_0007c540+1+1                        
                            ;************************************************************************************************
                            ;*                                           FUNCTION                                           *
                            ;************************************************************************************************
                            ;int FUN_0007c058(void)
                                                          ;XREF[1,0]:   0007d092
ram:0007c058    10b5            push        {r4,lr}                                 
ram:0007c05a    094c            ldr         r4,[DAT_0007c080]                       ;= 20002C38h
ram:0007c05c    0820            movs        r0,#0x8                                 
ram:0007c05e    a168            ldr         r1,[r4,#0x8]=>DAT_20002c40              
ram:0007c060    01b1            cbz         r1,LAB_0007c064                         
                            LAB_0007c062:                 ;XREF[1,0]:   0007c068
ram:0007c062    10bd            pop         {r4,pc}                                 
                            LAB_0007c064:                 ;XREF[1,0]:   0007c060
ram:0007c064    6178            ldrb        r1,[r4,#0x1]=>DAT_20002c39              
ram:0007c066    0429            cmp         r1,#0x4                                 
ram:0007c068    fbd1            bne         LAB_0007c062                            
ram:0007c06a    a178            ldrb        r1,[r4,#0x2]=>DAT_20002c3a              
ram:0007c06c    0548            ldr         r0,[DAT_0007c084]                       ;= 200031D8h
ram:0007c06e    00f047f8        bl          FUN_0007c100                            ;undefined4 FUN_0007c100(short * para...
ram:0007c072    10b1            cbz         r0,LAB_0007c07a                         
ram:0007c074    0021            movs        r1,#0x0                                 
ram:0007c076    a170            strb        r1,[r4,#0x2]=>DAT_20002c3a              
ram:0007c078    10bd            pop         {r4,pc}                                 
                            LAB_0007c07a:                 ;XREF[1,0]:   0007c072
ram:0007c07a    0521            movs        r1,#0x5                                 
ram:0007c07c    6170            strb        r1,[r4,#0x1]=>DAT_20002c39              
ram:0007c07e    10bd            pop         {r4,pc}                                 
                            DAT_0007c080:                 ;XREF[1,0]:   0007c05a
ram:0007c080    382c0020        undefined4  20002C38h                               
                            DAT_0007c084:                 ;XREF[1,0]:   0007c06c
ram:0007c084    d8310020        undefined4  200031D8h                               
                            ;************************************************************************************************
                            ;*                                           FUNCTION                                           *
                            ;************************************************************************************************
                            ;int FUN_0007c088(int param_1, undefined4 param_2, undefined4 param_3, undefined4 param_4)
          ;param_1       int                 r0                      
          ;param_2       undefined4          r1                      
          ;param_3       undefined4          r2                      
          ;param_4       undefined4          r3                      
                                                          ;XREF[1,0]:   0007c8b4
ram:0007c088    2de9f041        push        {r4,r5,r6,r7,r8,lr}                     
ram:0007c08c    134c            ldr         r4,[DAT_0007c0dc]                       ;= 20002C38h
ram:0007c08e    0746            mov         r7,param_1                              
ram:0007c090    6078            ldrb        param_1,[r4,#0x1]=>DAT_20002c39         
ram:0007c092    0328            cmp         param_1,#0x3                            
ram:0007c094    05d0            beq         LAB_0007c0a2                            
ram:0007c096    0428            cmp         param_1,#0x4                            
ram:0007c098    05d0            beq         LAB_0007c0a6                            
ram:0007c09a    0825            movs        r5,#0x8                                 
                            LAB_0007c09c:                 ;XREF[1,0]:   0007c0d8
ram:0007c09c    2846            mov         param_1,r5                              
                            LAB_0007c09e:                 ;XREF[3,0]:   0007c0ac,0007c0b4,0007c0c4
ram:0007c09e    bde8f081        pop.w       {r4,r5,r6,r7,r8,pc}                     
                            LAB_0007c0a2:                 ;XREF[1,0]:   0007c094
ram:0007c0a2    0420            movs        param_1,#0x4                            
ram:0007c0a4    6070            strb        param_1,[r4,#0x1]=>DAT_20002c39         
                            LAB_0007c0a6:                 ;XREF[1,0]:   0007c098
ram:0007c0a6    a068            ldr         param_1,[r4,#0x8]=>DAT_20002c40         
ram:0007c0a8    08b1            cbz         param_1,LAB_0007c0ae                    
ram:0007c0aa    0820            movs        param_1,#0x8                            
ram:0007c0ac    f7e7            b           LAB_0007c09e                            
                            LAB_0007c0ae:                 ;XREF[1,0]:   0007c0a8
ram:0007c0ae    00f055fa        bl          FUN_0007c55c                            ;int FUN_0007c55c(undefined4 param_1,...
ram:0007c0b2    0500            movs        r5,param_1                              
ram:0007c0b4    f3d1            bne         LAB_0007c09e                            
ram:0007c0b6    7868            ldr         param_1,[r7,#0x4]                       
ram:0007c0b8    8600            lsls        r6,param_1,#0x2                         
ram:0007c0ba    a078            ldrb        param_1,[r4,#0x2]=>DAT_20002c3a         
ram:0007c0bc    8119            adds        param_2,param_1,r6                      
ram:0007c0be    8029            cmp         param_2,#0x80                           
ram:0007c0c0    01d9            bls         LAB_0007c0c6                            
ram:0007c0c2    0920            movs        param_1,#0x9                            
ram:0007c0c4    ebe7            b           LAB_0007c09e                            
                            LAB_0007c0c6:                 ;XREF[1,0]:   0007c0c0
ram:0007c0c6    064a            ldr         param_3,[DAT_0007c0e0]                  ;= 200031D8h
ram:0007c0c8    b968            ldr         param_2,[r7,#0x8]                       
ram:0007c0ca    1044            add         param_1,param_3                         
ram:0007c0cc    3246            mov         param_3,r6                              
ram:0007c0ce    fef755fa        bl          FUN_0007a57c                            ;undefined FUN_0007a57c(undefined4 * ...
ram:0007c0d2    a078            ldrb        param_1,[r4,#0x2]=>DAT_20002c3a         
ram:0007c0d4    3044            add         param_1,r6                              
ram:0007c0d6    a070            strb        param_1,[r4,#0x2]=>DAT_20002c3a         
ram:0007c0d8    e0e7            b           LAB_0007c09c                            
ram:0007c0da    0000            movs        r0,r0                                   
                            DAT_0007c0dc:                 ;XREF[1,0]:   0007c08c
ram:0007c0dc    382c0020        undefined4  20002C38h                               
                            DAT_0007c0e0:                 ;XREF[1,0]:   0007c0c6
ram:0007c0e0    d8310020        undefined4  200031D8h                               
                            ;************************************************************************************************
                            ;*                                           FUNCTION                                           *
                            ;************************************************************************************************
                            ;undefined4 FUN_0007c0e4(int param_1, uint param_2)
          ;param_1       int                 r0                      
          ;param_2       uint                r1                      
                                                          ;XREF[1,0]:   0007bfb4
ram:0007c0e4    10b5            push        {r4,lr}                                 
ram:0007c0e6    0022            movs        r2,#0x0                                 
ram:0007c0e8    fff75dfd        bl          FUN_0007bba6                            ;uint FUN_0007bba6(int param_1, uint ...
ram:0007c0ec    0349            ldr         param_2,[DAT_0007c0fc]                  ;= 20003264h
ram:0007c0ee    0988            ldrh        param_2,[param_2,#0x0]=>DAT_20003264    
ram:0007c0f0    8842            cmp         param_1,param_2                         
ram:0007c0f2    01d0            beq         LAB_0007c0f8                            
ram:0007c0f4    0b20            movs        param_1,#0xb                            
ram:0007c0f6    10bd            pop         {r4,pc}                                 
                            LAB_0007c0f8:                 ;XREF[1,0]:   0007c0f2
ram:0007c0f8    0020            movs        param_1,#0x0                            
ram:0007c0fa    10bd            pop         {r4,pc}                                 
                            DAT_0007c0fc:                 ;XREF[1,0]:   0007c0ec
ram:0007c0fc    64320020        undefined4  20003264h                               
                            ;************************************************************************************************
                            ;*                                           FUNCTION                                           *
                            ;************************************************************************************************
                            ;undefined4 FUN_0007c100(short * param_1, uint param_2)
          ;param_1       short *             r0                      
          ;param_2       uint                r1                      
                                                          ;XREF[1,0]:   0007c06e
ram:0007c100    70b5            push        {r4,r5,r6,lr}                           
ram:0007c102    0025            movs        r5,#0x0                                 
ram:0007c104    0c29            cmp         param_2,#0xc                            
ram:0007c106    0ed3            bcc         LAB_0007c126                            
ram:0007c108    4318            adds        r3,param_1,param_2                      
ram:0007c10a    0189            ldrh        param_2,[param_1,#0x8]                  
ram:0007c10c    0446            mov         r4,param_1                              
ram:0007c10e    00eb4101        add.w       param_2,param_1,param_2, lsl #0x1       
ram:0007c112    581a            subs        param_1,r3,param_2                      
ram:0007c114    0a38            subs        param_1,#0xa                            
ram:0007c116    c2b2            uxtb        r2,param_1                              
ram:0007c118    1848            ldr         param_1,[DAT_0007c17c]                  ;= 20002C60h
ram:0007c11a    022a            cmp         r2,#0x2                                 
ram:0007c11c    0270            strb        r2,[param_1,#0x0]=>DAT_20002c60         
ram:0007c11e    02d3            bcc         LAB_0007c126                            
ram:0007c120    0a31            adds        param_2,#0xa                            
ram:0007c122    8b42            cmp         r3,param_2                              
ram:0007c124    01d2            bcs         LAB_0007c12a                            
                            LAB_0007c126:                 ;XREF[2,0]:   0007c106,0007c11e
ram:0007c126    0920            movs        param_1,#0x9                            
ram:0007c128    70bd            pop         {r4,r5,r6,pc}                           
                            LAB_0007c12a:                 ;XREF[1,0]:   0007c124
ram:0007c12a    1548            ldr         param_1=>DAT_20003264,[DAT_0007c180]    ;= 20003264h
ram:0007c12c    fef726fa        bl          FUN_0007a57c                            ;undefined FUN_0007a57c(undefined4 * ...
ram:0007c130    4ff01022        mov.w       r2,#0x10001000                          
ram:0007c134    4ff6ff71        movw        param_2,#0xffff                         
ram:0007c138    b2f88000        ldrh.w      param_1,[r2,#offset DAT_10001080 &0xff] 
ram:0007c13c    8842            cmp         param_1,param_2                         
ram:0007c13e    02d0            beq         LAB_0007c146                            
ram:0007c140    2388            ldrh        r3,[r4,#0x0]                            
ram:0007c142    8342            cmp         r3,param_1                              
ram:0007c144    18d1            bne         LAB_0007c178                            
                            LAB_0007c146:                 ;XREF[1,0]:   0007c13e
ram:0007c146    b2f88200        ldrh.w      param_1,[r2,#offset DAT_10001082 &0xff] 
ram:0007c14a    8842            cmp         param_1,param_2                         
ram:0007c14c    02d0            beq         LAB_0007c154                            
ram:0007c14e    6188            ldrh        param_2,[r4,#0x2]                       
ram:0007c150    8142            cmp         param_2,param_1                         
ram:0007c152    11d1            bne         LAB_0007c178                            
                            LAB_0007c154:                 ;XREF[1,0]:   0007c14c
ram:0007c154    2189            ldrh        param_2,[r4,#0x8]                       
ram:0007c156    4ff6fe72        movw        r2,#0xfffe                              
ram:0007c15a    4ff44053        mov.w       r3,#0x3000                              
                            LAB_0007c15e:                 ;XREF[1,0]:   0007c172
ram:0007c15e    a942            cmp         param_2,r5                              
ram:0007c160    0ad9            bls         LAB_0007c178                            
ram:0007c162    04eb4500        add.w       param_1,r4,r5, lsl #0x1                 
ram:0007c166    4089            ldrh        param_1,[param_1,#0xa]                  
ram:0007c168    9042            cmp         param_1,r2                              
ram:0007c16a    03d0            beq         LAB_0007c174                            
ram:0007c16c    9e89            ldrh        r6,[r3,#offset DAT_0000300c &0xff]      
ram:0007c16e    6d1c            adds        r5,r5,#0x1                              
ram:0007c170    b042            cmp         param_1,r6                              
ram:0007c172    f4d1            bne         LAB_0007c15e                            
                            LAB_0007c174:                 ;XREF[1,0]:   0007c16a
ram:0007c174    0020            movs        param_1,#0x0                            
ram:0007c176    70bd            pop         {r4,r5,r6,pc}                           
                            LAB_0007c178:                 ;XREF[3,0]:   0007c144,0007c152,0007c160
ram:0007c178    0b20            movs        param_1,#0xb                            
ram:0007c17a    70bd            pop         {r4,r5,r6,pc}                           
                            DAT_0007c17c:                 ;XREF[1,0]:   0007c118
ram:0007c17c    602c0020        undefined4  20002C60h                               
                            DAT_0007c180:                 ;XREF[1,0]:   0007c12a
ram:0007c180    64320020        undefined4  20003264h                               
                            ;************************************************************************************************
                            ;*                                           FUNCTION                                           *
                            ;************************************************************************************************
                            ;undefined8 FUN_0007c184(int param_1)
          ;param_1       int                 r0                      
          ;local_12      undefined1         -12                      ;XREF[1,0]:   0007c1ac
          ;local_14      undefined2         -14                      ;XREF[1,0]:   0007c1b4
          ;local_18      undefined4         -18                      ;XREF[3,4]:   0007c1b8,0007c1ba,0007c1c4,0007c1c8,0007c1d8
                                                                     ;             0007c1dc,0007c1ee
          ;local_1c      undefined4         -1c                      ;XREF[1,0]:   0007c20e
          ;local_20      undefined2         -20                      ;XREF[1,0]:   0007c20a
          ;local_22      undefined2         -22                      ;XREF[1,0]:   0007c206
          ;local_24      undefined2         -24                      ;XREF[1,0]:   0007c200
          ;local_28      undefined4         -28                      ;XREF[1,0]:   0007c1fe
          ;local_2c      undefined4         -2c                      ;XREF[1,0]:   0007c1fa
          ;local_30      undefined4         -30                      ;XREF[1,0]:   0007c1a8
          ;local_34      undefined4         -34                      ;XREF[1,0]:   0007c1a6
          ;local_38      undefined4         -38                      ;XREF[1,0]:   0007c1a4
          ;local_3c      undefined4         -3c                      ;XREF[1,0]:   0007c1a2
          ;local_44      undefined4         -44                      ;XREF[1,0]:   0007c198
          ;local_48      undefined1         -48                      ;XREF[2,0]:   0007c194,0007c19e
                                                          ;XREF[1,0]:   0007b410
ram:0007c184    30b5            push        {r4,r5,lr}                              
ram:0007c186    8fb0            sub         sp,#0x3c                                
ram:0007c188    0546            mov         r5,param_1                              
ram:0007c18a    1c21            movs        r1,#0x1c                                
ram:0007c18c    6846            mov         param_1,sp                              
ram:0007c18e    fef70efa        bl          FUN_0007a5ae                            ;undefined FUN_0007a5ae(undefined * p...
ram:0007c192    0024            movs        r4,#0x0                                 
ram:0007c194    9df80000        ldrb.w      param_1,[sp,#0x0]=>local_48             
ram:0007c198    0194            str         r4,[sp,#local_44+0x48]                  
ram:0007c19a    40f00400        orr         param_1,param_1,#0x4                    
ram:0007c19e    8df80000        strb.w      param_1,[sp,#0x0]=>local_48             
ram:0007c1a2    0394            str         r4,[sp,#local_3c+0x48]                  
ram:0007c1a4    0494            str         r4,[sp,#local_38+0x48]                  
ram:0007c1a6    0594            str         r4,[sp,#local_34+0x48]                  
ram:0007c1a8    0694            str         r4,[sp,#local_30+0x48]                  
ram:0007c1aa    a879            ldrb        param_1,[r5,#0x6]                       
ram:0007c1ac    8df83600        strb.w      param_1,[sp,#local_12+0x48]             
ram:0007c1b0    41f23250        movw        param_1,#0x1532                         
ram:0007c1b4    adf83400        strh.w      param_1,[sp,#local_14+0x48]             
ram:0007c1b8    0c94            str         r4,[sp,#local_18+0x48]                  
ram:0007c1ba    9df83000        ldrb.w      param_1,[sp,#local_18+0x48]             
ram:0007c1be    1421            movs        r1,#0x14                                
ram:0007c1c0    20f0ff00        bic         param_1,param_1,#0xff                   
ram:0007c1c4    8df83000        strb.w      param_1,[sp,#local_18+0x48]             
ram:0007c1c8    9df83100        ldrb.w      param_1,[sp,#local_18+0x49]             
ram:0007c1cc    20f00f00        bic         param_1,param_1,#0xf                    
ram:0007c1d0    401c            adds        param_1,param_1,#0x1                    
ram:0007c1d2    20f0f000        bic         param_1,param_1,#0xf0                   
ram:0007c1d6    1030            adds        param_1,#0x10                           
ram:0007c1d8    8df83100        strb.w      param_1,[sp,#local_18+0x49]             
ram:0007c1dc    9df83200        ldrb.w      param_1,[sp,#local_18+0x4a]             
ram:0007c1e0    20f00600        bic         param_1,param_1,#0x6                    
ram:0007c1e4    801c            adds        param_1,param_1,#0x2                    
ram:0007c1e6    20f01800        bic         param_1,param_1,#0x18                   
ram:0007c1ea    40f00100        orr         param_1,param_1,#0x1                    
ram:0007c1ee    8df83200        strb.w      param_1,[sp,#local_18+0x4a]             
ram:0007c1f2    07a8            add         param_1,sp,#0x1c                        
ram:0007c1f4    fef7dbf9        bl          FUN_0007a5ae                            ;undefined FUN_0007a5ae(undefined * p...
ram:0007c1f8    0da8            add         param_1,sp,#0x34                        
ram:0007c1fa    0790            str         param_1,[sp,#local_2c+0x48]             
ram:0007c1fc    0ca8            add         param_1,sp,#0x30                        
ram:0007c1fe    0890            str         param_1,[sp,#local_28+0x48]             
ram:0007c200    adf82440        strh.w      r4,[sp,#local_24+0x48]                  
ram:0007c204    1420            movs        param_1,#0x14                           
ram:0007c206    adf82640        strh.w      r4,[sp,#local_22+0x48]                  
ram:0007c20a    adf82800        strh.w      param_1,[sp,#local_20+0x48]             
ram:0007c20e    0b94            str         r4,[sp,#local_1c+0x48]                  
ram:0007c210    a888            ldrh        param_1,[r5,#0x4]                       
ram:0007c212    05f10803        add.w       r3,r5,#0x8                              
ram:0007c216    07aa            add         r2,sp,#0x1c                             
ram:0007c218    6946            mov         r1,sp                                   
ram:0007c21a    a2df            svc         0xa2                                    
ram:0007c21c    0fb0            add         sp,#0x3c                                
ram:0007c21e    30bd            pop         {r4,r5,pc}                              
                            ;************************************************************************************************
                            ;*                                           FUNCTION                                           *
                            ;************************************************************************************************
                            ;undefined FUN_0007c220(void)
                                                          ;XREF[1,0]:   0007c518
ram:0007c220    0849            ldr         r1,[DAT_0007c244]                       ;= 20002C58h
ram:0007c222    10b5            push        {r4,lr}                                 
ram:0007c224    a1f12000        sub.w       r0,r1,#0x20                             
ram:0007c228    0161            str         r1=>DAT_20002c58,[r0,#0x10]=>DAT_2000...
ram:0007c22a    0221            movs        r1,#0x2                                 
ram:0007c22c    4170            strb        r1,[r0,#0x1]=>DAT_20002c39              
ram:0007c22e    c168            ldr         r1,[r0,#0xc]=>DAT_20002c44              
ram:0007c230    2030            adds        r0=>DAT_20002c58,#0x20                  
ram:0007c232    00f09fff        bl          FUN_0007d174                            ;undefined FUN_0007d174(undefined4 * ...
ram:0007c236    0028            cmp         r0,#0x0                                 
ram:0007c238    03d0            beq         LAB_0007c242                            
ram:0007c23a    bde81040        pop.w       {r4,lr}                                 
ram:0007c23e    fef7e1bd        b.w         FUN_0007ae04                            ;undefined FUN_0007ae04(void)
                            LAB_0007c242:                 ;XREF[1,0]:   0007c238
ram:0007c242    10bd            pop         {r4,pc}                                 
                            DAT_0007c244:                 ;XREF[1,0]:   0007c220
ram:0007c244    582c0020        undefined4  20002C58h                               
                            ;************************************************************************************************
                            ;*                                           FUNCTION                                           *
                            ;************************************************************************************************
                            ;undefined LAB_0007c248+1(void)
                                                          ;XREF[0,2]:   0007c4ee,0007c530
ram:0007c248    0e49            ldr         r1,[DAT_0007c284]                       ;= 20002C50h
ram:0007c24a    10b5            push        {r4,lr}                                 
ram:0007c24c    a1f11800        sub.w       r0,r1,#0x18                             
ram:0007c250    0161            str         r1=>DAT_20002c50,[r0,#0x10]=>DAT_2000...
ram:0007c252    0221            movs        r1,#0x2                                 
ram:0007c254    4170            strb        r1,[r0,#0x1]=>DAT_20002c39              
ram:0007c256    4ff44050        mov.w       r0,#0x3000                              
ram:0007c25a    8068            ldr         r0,[r0,#offset DAT_00003008 &0xff]      
ram:0007c25c    c0f5f421        rsb.w       r1,r0,#MasterStackPointer               ;= 20005438
ram:0007c260    c0f5ee20        rsb.w       r0,r0,#0x77000                          
ram:0007c264    c0f30c00        ubfx        r0,r0,#0x0,#0xd                         
ram:0007c268    081a            subs        r0,r1,r0                                
ram:0007c26a    a0f54050        sub.w       r0,r0,#0x3000                           
ram:0007c26e    4108            lsrs        r1,r0,#0x1                              
ram:0007c270    0448            ldr         r0=>DAT_20002c50,[DAT_0007c284]         ;= 20002C50h
ram:0007c272    00f07fff        bl          FUN_0007d174                            ;undefined FUN_0007d174(undefined4 * ...
ram:0007c276    0028            cmp         r0,#0x0                                 
ram:0007c278    03d0            beq         LAB_0007c282                            
ram:0007c27a    bde81040        pop.w       {r4,lr}                                 
ram:0007c27e    fef7c1bd        b.w         FUN_0007ae04                            ;undefined FUN_0007ae04(void)
                            LAB_0007c282:                 ;XREF[1,0]:   0007c278
ram:0007c282    10bd            pop         {r4,pc}                                 
                            DAT_0007c284:                 ;XREF[2,0]:   0007c248,0007c270
ram:0007c284    502c0020        undefined4  20002C50h                               
                            ;************************************************************************************************
                            ;*                                           FUNCTION                                           *
                            ;************************************************************************************************
                            ;undefined FUN_0007c288(undefined4 param_1)
          ;param_1       undefined4          r0                      
                                                          ;XREF[1,0]:   0007c5f0
ram:0007c288    0149            ldr         r1,[DAT_0007c290]                       ;= 20002C38h
ram:0007c28a    4861            str         param_1,[r1,#0x14]=>DAT_20002c4c        
ram:0007c28c    7047            bx          lr                                      
ram:0007c28e    0000            movs        r0,r0                                   
                            DAT_0007c290:                 ;XREF[1,0]:   0007c288
ram:0007c290    382c0020        undefined4  20002C38h                               
                            ;************************************************************************************************
                            ;*                                           FUNCTION                                           *
                            ;************************************************************************************************
                            ;undefined FUN_0007c294(uint param_1, int param_2, int param_3, char * param_4)
          ;param_1       uint                r0                      
          ;param_2       int                 r1                      
          ;param_3       int                 r2                      
          ;param_4       char *              r3                      
          ;local_10      undefined4         -10                      ;XREF[1,0]:   0007c29c
                                                          ;XREF[1,0]:   0007d078
ram:0007c294    38b5            push        {param_4,r4,r5,lr}                      
ram:0007c296    0625            movs        r5,#0x6                                 
ram:0007c298    65f30700        bfi         param_1,r5,#0x0,#0x8                    
ram:0007c29c    0094            str         r4,[sp,#0x0]=>local_10                  
ram:0007c29e    fff77ffa        bl          FUN_0007b7a0                            ;undefined FUN_0007b7a0(uint param_1,...
ram:0007c2a2    38bd            pop         {param_4,r4,r5,pc}                      
                            ;************************************************************************************************
                            ;*                                           FUNCTION                                           *
                            ;************************************************************************************************
                            ;undefined8 FUN_0007c2a4(int param_1)
          ;param_1       int                 r0                      
          ;local_12      undefined1         -12                      ;XREF[1,0]:   0007c2ce
          ;local_14      undefined2         -14                      ;XREF[1,0]:   0007c2d6
          ;local_18      undefined4         -18                      ;XREF[3,4]:   0007c2da,0007c2dc,0007c2ee,0007c2f2,0007c2fa
                                                                     ;             0007c2fe,0007c310
          ;local_1c      undefined4         -1c                      ;XREF[1,0]:   0007c330
          ;local_20      undefined2         -20                      ;XREF[1,0]:   0007c32c
          ;local_22      undefined2         -22                      ;XREF[1,0]:   0007c328
          ;local_24      undefined2         -24                      ;XREF[1,0]:   0007c324
          ;local_28      undefined4         -28                      ;XREF[1,0]:   0007c320
          ;local_2c      undefined4         -2c                      ;XREF[1,0]:   0007c31c
          ;local_30      undefined4         -30                      ;XREF[1,0]:   0007c2ca
          ;local_34      undefined4         -34                      ;XREF[1,0]:   0007c2c8
          ;local_38      undefined4         -38                      ;XREF[1,0]:   0007c2c6
          ;local_3c      undefined4         -3c                      ;XREF[1,0]:   0007c2c4
          ;local_44      undefined4         -44                      ;XREF[1,0]:   0007c2ba
          ;local_48      undefined1         -48                      ;XREF[2,0]:   0007c2b6,0007c2c0
                                                          ;XREF[1,0]:   0007b426
ram:0007c2a4    70b5            push        {r4,r5,r6,lr}                           
ram:0007c2a6    8eb0            sub         sp,#0x38                                
ram:0007c2a8    0e46            mov         r6,r1                                   
ram:0007c2aa    0546            mov         r5,param_1                              
ram:0007c2ac    1c21            movs        r1,#0x1c                                
ram:0007c2ae    6846            mov         param_1,sp                              
ram:0007c2b0    fef77df9        bl          FUN_0007a5ae                            ;undefined FUN_0007a5ae(undefined * p...
ram:0007c2b4    0024            movs        r4,#0x0                                 
ram:0007c2b6    9df80000        ldrb.w      param_1,[sp,#0x0]=>local_48             
ram:0007c2ba    0194            str         r4,[sp,#local_44+0x48]                  
ram:0007c2bc    40f00200        orr         param_1,param_1,#0x2                    
ram:0007c2c0    8df80000        strb.w      param_1,[sp,#0x0]=>local_48             
ram:0007c2c4    0394            str         r4,[sp,#local_3c+0x48]                  
ram:0007c2c6    0494            str         r4,[sp,#local_38+0x48]                  
ram:0007c2c8    0594            str         r4,[sp,#local_34+0x48]                  
ram:0007c2ca    0694            str         r4,[sp,#local_30+0x48]                  
ram:0007c2cc    a879            ldrb        param_1,[r5,#0x6]                       
ram:0007c2ce    8df83600        strb.w      param_1,[sp,#local_12+0x48]             
ram:0007c2d2    41f23450        movw        param_1,#0x1534                         
ram:0007c2d6    adf83400        strh.w      param_1,[sp,#local_14+0x48]             
ram:0007c2da    0c94            str         r4,[sp,#local_18+0x48]                  
ram:0007c2dc    9df83000        ldrb.w      param_1,[sp,#local_18+0x48]             
ram:0007c2e0    1421            movs        r1,#0x14                                
ram:0007c2e2    20f00f00        bic         param_1,param_1,#0xf                    
ram:0007c2e6    401c            adds        param_1,param_1,#0x1                    
ram:0007c2e8    20f0f000        bic         param_1,param_1,#0xf0                   
ram:0007c2ec    1030            adds        param_1,#0x10                           
ram:0007c2ee    8df83000        strb.w      param_1,[sp,#local_18+0x48]             
ram:0007c2f2    9df83100        ldrb.w      param_1,[sp,#local_18+0x49]             
ram:0007c2f6    20f0ff00        bic         param_1,param_1,#0xff                   
ram:0007c2fa    8df83100        strb.w      param_1,[sp,#local_18+0x49]             
ram:0007c2fe    9df83200        ldrb.w      param_1,[sp,#local_18+0x4a]             
ram:0007c302    20f00600        bic         param_1,param_1,#0x6                    
ram:0007c306    801c            adds        param_1,param_1,#0x2                    
ram:0007c308    20f01800        bic         param_1,param_1,#0x18                   
ram:0007c30c    40f00100        orr         param_1,param_1,#0x1                    
ram:0007c310    8df83200        strb.w      param_1,[sp,#local_18+0x4a]             
ram:0007c314    07a8            add         param_1,sp,#0x1c                        
ram:0007c316    fef74af9        bl          FUN_0007a5ae                            ;undefined FUN_0007a5ae(undefined * p...
ram:0007c31a    0da8            add         param_1,sp,#0x34                        
ram:0007c31c    0790            str         param_1,[sp,#local_2c+0x48]             
ram:0007c31e    0ca8            add         param_1,sp,#0x30                        
ram:0007c320    0890            str         param_1,[sp,#local_28+0x48]             
ram:0007c322    0220            movs        param_1,#0x2                            
ram:0007c324    adf82400        strh.w      param_1,[sp,#local_24+0x48]             
ram:0007c328    adf82640        strh.w      r4,[sp,#local_22+0x48]                  
ram:0007c32c    adf82800        strh.w      param_1,[sp,#local_20+0x48]             
ram:0007c330    0b96            str         r6,[sp,#local_1c+0x48]                  
ram:0007c332    a888            ldrh        param_1,[r5,#0x4]                       
ram:0007c334    05f12003        add.w       r3,r5,#0x20                             
ram:0007c338    07aa            add         r2,sp,#0x1c                             
ram:0007c33a    6946            mov         r1,sp                                   
ram:0007c33c    a2df            svc         0xa2                                    
ram:0007c33e    0eb0            add         sp,#0x38                                
ram:0007c340    70bd            pop         {r4,r5,r6,pc}                           
                            ;************************************************************************************************
                            ;*                                           FUNCTION                                           *
                            ;************************************************************************************************
                            ;undefined FUN_0007c342(undefined4 param_1, undefined4 param_2, undefined4 param_3, undefined * param_4)
          ;param_1       undefined4          r0                      
          ;param_2       undefined4          r1                      
          ;param_3       undefined4          r2                      
          ;param_4       undefined *         r3                      
          ;local_20      undefined4         -20                      ;XREF[2,0]:   0007c354,0007c3b8
          ;local_2c      undefined4         -2c                      ;XREF[3,0]:   0007c34e,0007c36c,0007c3b6
                                                          ;XREF[1,0]:   0007b718
ram:0007c342    2de9f041        push        {r4,r5,r6,r7,r8,lr}                     
ram:0007c346    88b0            sub         sp,#0x20                                
ram:0007c348    6846            mov         param_1,sp                              
ram:0007c34a    fff7b1fa        bl          FUN_0007b8b0                            ;undefined FUN_0007b8b0(undefined * p...
ram:0007c34e    0398            ldr         param_1,[sp,#local_2c+0x38]             
ram:0007c350    0028            cmp         param_1,#0x0                            
ram:0007c352    2dd0            beq         LAB_0007c3b0                            
ram:0007c354    069a            ldr         param_3,[sp,#local_20+0x38]             
ram:0007c356    00f58050        add.w       param_1,param_1,#0x1000                 
ram:0007c35a    4ff48051        mov.w       param_2,#0x1000                         
ram:0007c35e    9042            cmp         param_1,param_3                         
ram:0007c360    29d9            bls         LAB_0007c3b6                            
ram:0007c362    a2f58050        sub.w       param_1,param_3,#0x1000                 
ram:0007c366    4008            lsrs        param_1,param_1,#0x1                    
ram:0007c368    040b            lsrs        r4,param_1,#0xc                         
ram:0007c36a    1046            mov         param_1,param_3                         
ram:0007c36c    039a            ldr         param_3,[sp,#local_2c+0x38]             
ram:0007c36e    2403            lsls        r4,r4,#0xc                              
ram:0007c370    8718            adds        r7,param_1,param_3                      
ram:0007c372    00eb4406        add.w       r6,param_1,r4, lsl #0x1                 
ram:0007c376    4ff44050        mov.w       param_1,#0x3000                         
ram:0007c37a    0d46            mov         r5,param_2                              
ram:0007c37c    8068            ldr         param_1,[param_1,#offset DAT_00003008...
ram:0007c37e    01eb4408        add.w       r8,param_2,r4, lsl #0x1                 
ram:0007c382    9042            cmp         param_1,param_3                         
ram:0007c384    0ed2            bcs         LAB_0007c3a4                            
ram:0007c386    04f58050        add.w       param_1,r4,#0x1000                      
ram:0007c38a    0422            movs        param_3,#0x4                            
ram:0007c38c    0146            mov         param_2,param_1                         
ram:0007c38e    fff741fd        bl          FUN_0007be14                            ;undefined * FUN_0007be14(void)
ram:0007c392    0028            cmp         param_1,#0x0                            
ram:0007c394    0cd1            bne         LAB_0007c3b0                            
ram:0007c396    2946            mov         param_2,r5                              
ram:0007c398    0422            movs        param_3,#0x4                            
ram:0007c39a    0846            mov         param_1,param_2                         
ram:0007c39c    fff73afd        bl          FUN_0007be14                            ;undefined * FUN_0007be14(void)
ram:0007c3a0    0028            cmp         param_1,#0x0                            
ram:0007c3a2    05d1            bne         LAB_0007c3b0                            
                            LAB_0007c3a4:                 ;XREF[1,0]:   0007c384
ram:0007c3a4    ba1b            subs        param_3,r7,r6                           
ram:0007c3a6    2346            mov         param_4,r4                              
ram:0007c3a8    4146            mov         param_2,r8                              
ram:0007c3aa    3046            mov         param_1,r6                              
ram:0007c3ac    00f038f8        bl          FUN_0007c420                            ;undefined FUN_0007c420(int param_1, ...
                            LAB_0007c3b0:                 ;XREF[4,0]:   0007c352,0007c394,0007c3a2,0007c3be
ram:0007c3b0    08b0            add         sp,#0x20                                
ram:0007c3b2    bde8f081        pop.w       {r4,r5,r6,r7,r8,pc}                     
                            LAB_0007c3b6:                 ;XREF[1,0]:   0007c360
ram:0007c3b6    039a            ldr         param_3,[sp,#local_2c+0x38]             
ram:0007c3b8    0698            ldr         param_1,[sp,#local_20+0x38]             
ram:0007c3ba    fff72bfd        bl          FUN_0007be14                            ;undefined * FUN_0007be14(void)
ram:0007c3be    f7e7            b           LAB_0007c3b0                            
                            ;************************************************************************************************
                            ;*                                           FUNCTION                                           *
                            ;************************************************************************************************
                            ;undefined * FUN_0007c3c0(undefined4 param_1, undefined4 param_2, undefined4 param_3, undefined * param_4)
          ;param_1       undefined4          r0                      
          ;param_2       undefined4          r1                      
          ;param_3       undefined4          r2                      
          ;param_4       undefined *         r3                      
          ;local_14      undefined4         -14                      ;XREF[1,0]:   0007c418
          ;local_20      undefined4         -20                      ;XREF[1,0]:   0007c410
          ;local_30      undefined4         -30                      ;XREF[1,0]:   0007c3d0
          ;local_3c      undefined4         -3c                      ;XREF[4,0]:   0007c3ca,0007c3ea,0007c3ee,0007c414
                                                          ;XREF[2,0]:   0007b704,0007b722
ram:0007c3c0    30b5            push        {r4,r5,lr}                              
ram:0007c3c2    91b0            sub         sp,#0x44                                
ram:0007c3c4    02a8            add         param_1,sp,#0x8                         
ram:0007c3c6    fff773fa        bl          FUN_0007b8b0                            ;undefined FUN_0007b8b0(undefined * p...
ram:0007c3ca    0598            ldr         param_1,[sp,#local_3c+0x50]             
ram:0007c3cc    0028            cmp         param_1,#0x0                            
ram:0007c3ce    17d0            beq         LAB_0007c400                            
ram:0007c3d0    089a            ldr         param_3,[sp,#local_30+0x50]             
ram:0007c3d2    00f58050        add.w       param_1,param_1,#0x1000                 
ram:0007c3d6    4ff48051        mov.w       param_2,#0x1000                         
ram:0007c3da    9042            cmp         param_1,param_3                         
ram:0007c3dc    16d9            bls         LAB_0007c40c                            
ram:0007c3de    a2f58050        sub.w       param_1,param_3,#0x1000                 
ram:0007c3e2    4308            lsrs        param_4,param_1,#0x1                    
ram:0007c3e4    1046            mov         param_1,param_3                         
ram:0007c3e6    4ff44054        mov.w       r4,#0x3000                              
ram:0007c3ea    059a            ldr         param_3,[sp,#local_3c+0x50]             
ram:0007c3ec    a468            ldr         r4,[r4,#offset DAT_00003008 &0xff]      
ram:0007c3ee    059d            ldr         r5,[sp,#local_3c+0x50]                  
ram:0007c3f0    0244            add         param_3,param_1                         
ram:0007c3f2    00eb4300        add.w       param_1,param_1,param_4, lsl #0x1       
ram:0007c3f6    01eb4301        add.w       param_2,param_2,param_4, lsl #0x1       
ram:0007c3fa    ac42            cmp         r4,r5                                   
ram:0007c3fc    02d2            bcs         LAB_0007c404                            
ram:0007c3fe    0e20            movs        param_1,#0xe                            
                            LAB_0007c400:                 ;XREF[3,0]:   0007c3ce,0007c40a,0007c41e
ram:0007c400    11b0            add         sp,#0x44                                
ram:0007c402    30bd            pop         {r4,r5,pc}                              
                            LAB_0007c404:                 ;XREF[1,0]:   0007c3fc
ram:0007c404    121a            subs        param_3,param_3,param_1                 
ram:0007c406    00f00bf8        bl          FUN_0007c420                            ;undefined FUN_0007c420(int param_1, ...
ram:0007c40a    f9e7            b           LAB_0007c400                            
                            LAB_0007c40c:                 ;XREF[1,0]:   0007c3dc
ram:0007c40c    0cab            add         param_4,sp,#0x30                        
ram:0007c40e    0320            movs        param_1,#0x3                            
ram:0007c410    83e80700        stm         param_4=>local_20,{param_1,param_2,pa...
ram:0007c414    0598            ldr         param_1,[sp,#local_3c+0x50]             
ram:0007c416    8008            lsrs        param_1,param_1,#0x2                    
ram:0007c418    0f90            str         param_1,[sp,#local_14+0x50]             
ram:0007c41a    0ca8            add         param_1,sp,#0x30                        
ram:0007c41c    18df            svc         0x18                                    
ram:0007c41e    efe7            b           LAB_0007c400                            
                            ;************************************************************************************************
                            ;*                                           FUNCTION                                           *
                            ;************************************************************************************************
                            ;undefined FUN_0007c420(int param_1, uint param_2, undefined4 param_3, int param_4)
          ;param_1       int                 r0                      
          ;param_2       uint                r1                      
          ;param_3       undefined4          r2                      
          ;param_4       int                 r3                      
                                                          ;XREF[3,0]:   0007c3ac,0007c406,0007c442
ram:0007c420    2de9f041        push        {r4,r5,r6,r7,r8,lr}                     
ram:0007c424    1c46            mov         r4,param_4                              
ram:0007c426    1746            mov         r7,param_3                              
ram:0007c428    0d46            mov         r5,param_2                              
ram:0007c42a    0646            mov         r6,param_1                              
ram:0007c42c    fff7e7fc        bl          FUN_0007bdfe                            ;undefined * FUN_0007bdfe(void)
ram:0007c430    0028            cmp         param_1,#0x0                            
ram:0007c432    18d0            beq         LAB_0007c466                            
ram:0007c434    b5f5805f        cmp.w       r5,#0x1000                              
ram:0007c438    07d9            bls         LAB_0007c44a                            
ram:0007c43a    2346            mov         param_4,r4                              
ram:0007c43c    291b            subs        param_2,r5,r4                           
ram:0007c43e    301b            subs        param_1,r6,r4                           
ram:0007c440    1a46            mov         param_3,param_4                         
ram:0007c442    fff7edff        bl          FUN_0007c420                            ;undefined FUN_0007c420(int param_1, ...
ram:0007c446    0028            cmp         param_1,#0x0                            
ram:0007c448    0dd1            bne         LAB_0007c466                            
                            LAB_0007c44a:                 ;XREF[1,0]:   0007c438
ram:0007c44a    3a46            mov         param_3,r7                              
ram:0007c44c    2946            mov         param_2,r5                              
ram:0007c44e    3046            mov         param_1,r6                              
ram:0007c450    fff7e0fc        bl          FUN_0007be14                            ;undefined * FUN_0007be14(void)
ram:0007c454    0028            cmp         param_1,#0x0                            
ram:0007c456    06d1            bne         LAB_0007c466                            
ram:0007c458    3a46            mov         param_3,r7                              
ram:0007c45a    2946            mov         param_2,r5                              
ram:0007c45c    3046            mov         param_1,r6                              
ram:0007c45e    bde8f041        pop.w       {r4,r5,r6,r7,r8,lr}                     
ram:0007c462    fff7ccbc        b.w         FUN_0007bdfe                            ;undefined * FUN_0007bdfe(void)
                            LAB_0007c466:                 ;XREF[3,0]:   0007c432,0007c448,0007c456
ram:0007c466    bde8f081        pop.w       {r4,r5,r6,r7,r8,pc}                     
ram:0007c46a    00              ??          00h                                     
ram:0007c46b    00              ??          00h                                     
                            ;************************************************************************************************
                            ;*                                           FUNCTION                                           *
                            ;************************************************************************************************
                            ;int FUN_0007c46c(int param_1)
          ;param_1       int                 r0                      
                                                          ;XREF[1,0]:   0007d5ae
ram:0007c46c    70b5            push        {r4,r5,r6,lr}                           
ram:0007c46e    4268            ldr         r2,[param_1,#0x4]                       
ram:0007c470    2a48            ldr         param_1,[DAT_0007c51c]                  ;= 200031C8h
ram:0007c472    d2e90043        ldrd        r4,r3,[r2,#0x0]                         
ram:0007c476    d2e90212        ldrd        r1,r2,[r2,#0x8]                         
                                                          ; FWD[2,0]:   200031d0,200031d4
ram:0007c47a    c0e90212        strd        r1,r2,[param_1,#0x8]=>DAT_200031d0      
                                                          ; FWD[2,0]:   200031c8,200031cc
ram:0007c47e    c0e90043        strd        r4,r3,[param_1,#0x0]=>DAT_200031c8      
ram:0007c482    0078            ldrb        param_1,[param_1,#0x0]=>DAT_200031c8    
ram:0007c484    4407            lsls        r4,param_1,#0x1d                        
ram:0007c486    01d5            bpl         LAB_0007c48c                            
ram:0007c488    8407            lsls        r4,param_1,#0x1e                        
ram:0007c48a    05d1            bne         LAB_0007c498                            
                            LAB_0007c48c:                 ;XREF[1,0]:   0007c486
ram:0007c48c    9c07            lsls        r4,r3,#0x1e                             
ram:0007c48e    03d1            bne         LAB_0007c498                            
ram:0007c490    8c07            lsls        r4,r1,#0x1e                             
ram:0007c492    01d1            bne         LAB_0007c498                            
ram:0007c494    9407            lsls        r4,r2,#0x1e                             
ram:0007c496    01d0            beq         LAB_0007c49c                            
                            LAB_0007c498:                 ;XREF[3,0]:   0007c48a,0007c48e,0007c492
ram:0007c498    0620            movs        param_1,#0x6                            
ram:0007c49a    70bd            pop         {r4,r5,r6,pc}                           
                            LAB_0007c49c:                 ;XREF[1,0]:   0007c496
ram:0007c49c    204d            ldr         r5,[DAT_0007c520]                       ;= 20002C38h
ram:0007c49e    0b44            add         r3,r1                                   
ram:0007c4a0    1a44            add         r2,r3                                   
ram:0007c4a2    ea60            str         r2,[r5,#0xc]=>DAT_20002c44              
ram:0007c4a4    b1f5a04f        cmp.w       r1,#0x5000                              
ram:0007c4a8    1ed8            bhi         LAB_0007c4e8                            
ram:0007c4aa    1c4c            ldr         r4,[DAT_0007c51c]                       ;= 200031C8h
ram:0007c4ac    c307            lsls        r3,param_1,#0x1f                        
ram:0007c4ae    4ff44051        mov.w       r1,#0x3000                              
ram:0007c4b2    04f19004        add.w       r4,r4,#0x90                             
ram:0007c4b6    0ad0            beq         LAB_0007c4ce                            
ram:0007c4b8    8868            ldr         param_1,[r1,#offset DAT_00003008 &0xff] 
ram:0007c4ba    c0f5ee20        rsb.w       param_1,param_1,#0x77000                
ram:0007c4be    9042            cmp         param_1,r2                              
ram:0007c4c0    12d3            bcc         LAB_0007c4e8                            
ram:0007c4c2    1848            ldr         param_1,[DAT_0007c524]                  ;= 0007C221h
ram:0007c4c4    2060            str         param_1,[r4,#0x0]=>DAT_20003258         
ram:0007c4c6    1848            ldr         param_1,[PTR_FUN_0007bdd4+1_0007c528]   ;= 0007bdd5
ram:0007c4c8    6060            str         param_1=>FUN_000...,[r4,#0x4]=>DAT_20...
ram:0007c4ca    1848            ldr         param_1,[PTR_LAB_0007bc68+1+1_0007c52c] ;= 0007bc69
ram:0007c4cc    17e0            b           LAB_0007c4fe                            
                            LAB_0007c4ce:                 ;XREF[1,0]:   0007c4b6
ram:0007c4ce    8968            ldr         r1,[r1,#offset DAT_00003008 &0xff]      
ram:0007c4d0    c1f5f423        rsb.w       r3,r1,#MasterStackPointer               ;= 20005438
ram:0007c4d4    c1f5ee21        rsb.w       r1,r1,#0x77000                          
ram:0007c4d8    c1f30c01        ubfx        r1,r1,#0x0,#0xd                         
ram:0007c4dc    591a            subs        r1,r3,r1                                
ram:0007c4de    a1f54051        sub.w       r1,r1,#0x3000                           
ram:0007c4e2    b2eb510f        cmp.w       r2,r1, lsr #0x1                         
ram:0007c4e6    01d9            bls         LAB_0007c4ec                            
                            LAB_0007c4e8:                 ;XREF[2,0]:   0007c4a8,0007c4c0
ram:0007c4e8    0c20            movs        param_1,#0xc                            
ram:0007c4ea    70bd            pop         {r4,r5,r6,pc}                           
                            LAB_0007c4ec:                 ;XREF[1,0]:   0007c4e6
ram:0007c4ec    1049            ldr         r1,[PTR_LAB_0007c248+1+1_0007c530]      ;= 0007c249
ram:0007c4ee    2160            str         r1=>LAB_0007c248...,[r4,#0x0]=>DAT_20...
ram:0007c4f0    1049            ldr         r1,[PTR_LAB_0007bdfc+1+1_0007c534]      ;= 0007bdfd
ram:0007c4f2    6160            str         r1=>LAB_0007bdfc...,[r4,#0x4]=>DAT_20...
ram:0007c4f4    8007            lsls        param_1,param_1,#0x1e                   
ram:0007c4f6    01d5            bpl         LAB_0007c4fc                            
ram:0007c4f8    0f48            ldr         param_1,[PTR_LAB_0007bc40+1+1_0007c538] ;= 0007bc41
ram:0007c4fa    00e0            b           LAB_0007c4fe                            
                            LAB_0007c4fc:                 ;XREF[1,0]:   0007c4f6
ram:0007c4fc    0f48            ldr         param_1,[DAT_0007c53c]                  ;= 0007BBDDh
                            LAB_0007c4fe:                 ;XREF[2,0]:   0007c4cc,0007c4fa
                                                          ; FWD[3,0]:   0007bc41,0007bc69,20003260
ram:0007c4fe    a060            str         param_1=>LAB_000...,[r4,#0x8]=>DAT_20...
ram:0007c500    6878            ldrb        param_1,[r5,#0x1]=>DAT_20002c39         
ram:0007c502    0128            cmp         param_1,#0x1                            
ram:0007c504    02d0            beq         LAB_0007c50c                            
ram:0007c506    0826            movs        r6,#0x8                                 
                            LAB_0007c508:                 ;XREF[1,0]:   0007c51a
ram:0007c508    3046            mov         param_1,r6                              
                            LAB_0007c50a:                 ;XREF[1,0]:   0007c512
ram:0007c50a    70bd            pop         {r4,r5,r6,pc}                           
                            LAB_0007c50c:                 ;XREF[1,0]:   0007c504
ram:0007c50c    00f026f8        bl          FUN_0007c55c                            ;int FUN_0007c55c(undefined4 param_1,...
ram:0007c510    0600            movs        r6,param_1                              
ram:0007c512    fad1            bne         LAB_0007c50a                            
ram:0007c514    2168            ldr         r1,[r4,#0x0]=>DAT_20003258              
ram:0007c516    e868            ldr         param_1,[r5,#0xc]=>DAT_20002c44         
ram:0007c518    8847            blx         r1=>FUN_0007c220                        ;undefined FUN_0007c220(void)
ram:0007c51a    f5e7            b           LAB_0007c508                            
                            DAT_0007c51c:                 ;XREF[2,0]:   0007c470,0007c4aa
ram:0007c51c    c8310020        undefined4  200031C8h                               
                            DAT_0007c520:                 ;XREF[1,0]:   0007c49c
ram:0007c520    382c0020        undefined4  20002C38h                               
                            DAT_0007c524:                 ;XREF[1,0]:   0007c4c2
ram:0007c524    21c20700        undefined4  0007C221h                               ;?  ->  0007c221
                            PTR_FUN_0007bdd4+1_0007c528:  ;XREF[1,0]:   0007c4c6
ram:0007c528    d5bd0700        addr        FUN_0007bdd4+1                          
                            PTR_LAB_0007bc68+1+1_0007c52c:;XREF[1,0]:   0007c4ca
ram:0007c52c    69bc0700        addr        LAB_0007bc68+1+1                        
                            PTR_LAB_0007c248+1+1_0007c530:;XREF[1,0]:   0007c4ec
ram:0007c530    49c20700        addr        LAB_0007c248+1+1                        
                            PTR_LAB_0007bdfc+1+1_0007c534:;XREF[1,0]:   0007c4f0
ram:0007c534    fdbd0700        addr        LAB_0007bdfc+1+1                        
                            PTR_LAB_0007bc40+1+1_0007c538:;XREF[1,0]:   0007c4f8
ram:0007c538    41bc0700        addr        LAB_0007bc40+1+1                        
                            DAT_0007c53c:                 ;XREF[1,0]:   0007c4fc
ram:0007c53c    ddbb0700        undefined4  0007BBDDh                               ;?  ->  0007bbdd
                            ;************************************************************************************************
                            ;*                                           FUNCTION                                           *
                            ;************************************************************************************************
                            ;undefined LAB_0007c540+1(uint param_1, int param_2, int param_3, char * param_4)
          ;param_1       uint                r0                      
          ;param_2       int                 r1                      
          ;param_3       int                 r2                      
          ;param_4       char *              r3                      
          ;local_10      undefined4         -10                      ;XREF[1,0]:   0007c54e
                                                          ;XREF[0,2]:   0007c01a,0007c054
ram:0007c540    68b5            push        {param_4,r5,r6,lr}                      
ram:0007c542    054e            ldr         r6,[DAT_0007c558]                       ;= 20002C38h
ram:0007c544    0125            movs        r5,#0x1                                 
ram:0007c546    3570            strb        r5,[r6,#0x0]=>DAT_20002c38              
ram:0007c548    0525            movs        r5,#0x5                                 
ram:0007c54a    65f30700        bfi         param_1,r5,#0x0,#0x8                    
ram:0007c54e    0094            str         r4,[sp,#0x0]=>local_10                  
ram:0007c550    fff726f9        bl          FUN_0007b7a0                            ;undefined FUN_0007b7a0(uint param_1,...
ram:0007c554    68bd            pop         {param_4,r5,r6,pc}                      
ram:0007c556    0000            movs        r0,r0                                   
                            DAT_0007c558:                 ;XREF[1,0]:   0007c542
ram:0007c558    382c0020        undefined4  20002C38h                               
                            ;************************************************************************************************
                            ;*                                           FUNCTION                                           *
                            ;************************************************************************************************
                            ;int FUN_0007c55c(undefined4 param_1, undefined4 param_2, undefined4 param_3, undefined4 param_4)
          ;param_1       undefined4          r0                      
          ;param_2       undefined4          r1                      
          ;param_3       undefined4          r2                      
          ;param_4       undefined4          r3                      
                                                          ;XREF[4,0]:   0007bf08,0007bfa6,0007c0ae,0007c50c
ram:0007c55c    0c48            ldr         param_1,[DAT_0007c590]                  ;= 20002C38h
ram:0007c55e    10b5            push        {r4,lr}                                 
ram:0007c560    0078            ldrb        param_1,[param_1,#0x0]=>DAT_20002c38    
ram:0007c562    08b1            cbz         param_1,LAB_0007c568                    
ram:0007c564    0820            movs        param_1,#0x8                            
ram:0007c566    10bd            pop         {r4,pc}                                 
                            LAB_0007c568:                 ;XREF[1,0]:   0007c562
ram:0007c568    0a4c            ldr         r4,[PTR_DAT_0007c594]                   ;= 0007d940
ram:0007c56a    2068            ldr         param_1,[r4,#0x0]=>DAT_0007d940         ;= 200031A8h
ram:0007c56c    fef7b2fd        bl          FUN_0007b0d4                            ;undefined4 FUN_0007b0d4(int param_1,...
ram:0007c570    08b1            cbz         param_1,LAB_0007c576                    
ram:0007c572    fef747fc        bl          FUN_0007ae04                            ;undefined FUN_0007ae04(void)
                            LAB_0007c576:                 ;XREF[1,0]:   0007c570
ram:0007c576    0022            movs        param_3,#0x0                            
ram:0007c578    4ff47011        mov.w       param_2,#0x3c0000                       
ram:0007c57c    2068            ldr         param_1,[r4,#0x0]=>DAT_0007d940         ;= 200031A8h
ram:0007c57e    fef769fd        bl          FUN_0007b054                            ;undefined4 FUN_0007b054(int param_1,...
ram:0007c582    0400            movs        r4,param_1                              
ram:0007c584    01d0            beq         LAB_0007c58a                            
ram:0007c586    fef73dfc        bl          FUN_0007ae04                            ;undefined FUN_0007ae04(void)
                            LAB_0007c58a:                 ;XREF[1,0]:   0007c584
ram:0007c58a    2046            mov         param_1,r4                              
ram:0007c58c    10bd            pop         {r4,pc}                                 
ram:0007c58e    0000            movs        r0,r0                                   
                            DAT_0007c590:                 ;XREF[1,0]:   0007c55c
ram:0007c590    382c0020        undefined4  20002C38h                               
                            PTR_DAT_0007c594:             ;XREF[1,0]:   0007c568
ram:0007c594    40d90700        addr        DAT_0007d940                            ;= 200031A8h
                            ;************************************************************************************************
                            ;*                                           FUNCTION                                           *
                            ;************************************************************************************************
                            ;undefined4 FUN_0007c598(undefined4 param_1, undefined4 param_2, undefined4 param_3, undefined4 param_4)
          ;param_1       undefined4          r0                      
          ;param_2       undefined4          r1                      
          ;param_3       undefined4          r2                      
          ;param_4       undefined4          r3                      
                                                          ;XREF[3,0]:   0007b85e,0007d058,0007d06a
ram:0007c598    10b5            push        {r4,lr}                                 
ram:0007c59a    0e4c            ldr         r4,[DAT_0007c5d4]                       ;= 20002C64h
ram:0007c59c    0120            movs        param_1,#0x1                            
ram:0007c59e    2070            strb        param_1,[r4,#0x0]=>DAT_20002c64         
ram:0007c5a0    e088            ldrh        param_1,[r4,#0x6]=>DAT_20002c6a         
ram:0007c5a2    a0f57f41        sub.w       param_2,param_1,#0xff00                 
ram:0007c5a6    ff39            subs        param_2,#0xff                           
ram:0007c5a8    05d0            beq         LAB_0007c5b6                            
ram:0007c5aa    1321            movs        param_2,#0x13                           
ram:0007c5ac    76df            svc         0x76                                    
ram:0007c5ae    50b1            cbz         param_1,LAB_0007c5c6                    
ram:0007c5b0    fef728fc        bl          FUN_0007ae04                            ;undefined FUN_0007ae04(void)
ram:0007c5b4    07e0            b           LAB_0007c5c6                            
                            LAB_0007c5b6:                 ;XREF[1,0]:   0007c5a8
ram:0007c5b6    a078            ldrb        param_1,[r4,#0x2]=>DAT_20002c66         
ram:0007c5b8    28b1            cbz         param_1,LAB_0007c5c6                    
ram:0007c5ba    74df            svc         0x74                                    
ram:0007c5bc    08b1            cbz         param_1,LAB_0007c5c2                    
ram:0007c5be    fef721fc        bl          FUN_0007ae04                            ;undefined FUN_0007ae04(void)
                            LAB_0007c5c2:                 ;XREF[1,0]:   0007c5bc
ram:0007c5c2    0020            movs        param_1,#0x0                            
ram:0007c5c4    a070            strb        param_1,[r4,#0x2]=>DAT_20002c66         
                            LAB_0007c5c6:                 ;XREF[3,0]:   0007c5ae,0007c5b4,0007c5b8
ram:0007c5c6    fef78dfe        bl          FUN_0007b2e4                            ;undefined FUN_0007b2e4(undefined4 pa...
ram:0007c5ca    08b1            cbz         param_1,LAB_0007c5d0                    
ram:0007c5cc    fef71afc        bl          FUN_0007ae04                            ;undefined FUN_0007ae04(void)
                            LAB_0007c5d0:                 ;XREF[1,0]:   0007c5ca
ram:0007c5d0    0020            movs        param_1,#0x0                            
ram:0007c5d2    10bd            pop         {r4,pc}                                 
                            DAT_0007c5d4:                 ;XREF[1,0]:   0007c59a
ram:0007c5d4    642c0020        undefined4  20002C64h                               
                            ;************************************************************************************************
                            ;*                                           FUNCTION                                           *
                            ;************************************************************************************************
                            ;int FUN_0007c5d8(void)
          ;local_14      undefined4         -14                      ;XREF[1,0]:   0007c69e
          ;local_18      undefined1         -18                      ;XREF[1,0]:   0007c69a
          ;local_1a      undefined2         -1a                      ;XREF[1,0]:   0007c696
          ;local_1c      undefined1         -1c                      ;XREF[1,0]:   0007c690
          ;local_20      undefined4         -20                      ;XREF[4,0]:   0007c610,0007c622,0007c666,0007c68c
          ;local_24      undefined4         -24                      ;XREF[3,1]:   0007c63c,0007c642,0007c662,0007c64a
          ;local_28      undefined4         -28                      ;XREF[5,1]:   0007c632,0007c636,0007c65a,0007c65c,0007c684
                                                                     ;             0007c63e
                                                          ;XREF[1,0]:   0007b774
ram:0007c5d8    30b5            push        {r4,r5,lr}                              
ram:0007c5da    3a4d            ldr         r5,[DAT_0007c6c4]                       ;= 20002C64h
ram:0007c5dc    87b0            sub         sp,#0x1c                                
ram:0007c5de    0024            movs        r4,#0x0                                 
ram:0007c5e0    2c70            strb        r4,[r5,#0x0]=>DAT_20002c64              
ram:0007c5e2    2c71            strb        r4,[r5,#0x4]=>DAT_20002c68              
ram:0007c5e4    3848            ldr         r0,[DAT_0007c6c8]                       ;= 0007B5B1h
ram:0007c5e6    00f057ff        bl          FUN_0007d498                            ;undefined4 FUN_0007d498(int param_1)
ram:0007c5ea    0028            cmp         r0,#0x0                                 
ram:0007c5ec    64d1            bne         LAB_0007c6b8                            
ram:0007c5ee    3748            ldr         r0=>FUN_0007bd70+1,[PTR_FUN_0007bd70+...;= 0007bd71
ram:0007c5f0    fff74afe        bl          FUN_0007c288                            ;undefined FUN_0007c288(undefined4 pa...
ram:0007c5f4    00f09cf8        bl          FUN_0007c730                            ;undefined4 FUN_0007c730(void)
ram:0007c5f8    0028            cmp         r0,#0x0                                 
ram:0007c5fa    5dd1            bne         LAB_0007c6b8                            
ram:0007c5fc    3448            ldr         r0=>DAT_200032b0,[DAT_0007c6d0]         ;= 200032B0h
ram:0007c5fe    fff799fb        bl          FUN_0007bd34                            ;undefined4 FUN_0007bd34(undefined4 *...
ram:0007c602    0028            cmp         r0,#0x0                                 
ram:0007c604    5ad0            beq         LAB_0007c6bc                            
ram:0007c606    6846            mov         r0,sp                                   
ram:0007c608    6ddf            svc         0x6d                                    
ram:0007c60a    08b1            cbz         r0,LAB_0007c610                         
ram:0007c60c    fef7fafb        bl          FUN_0007ae04                            ;undefined FUN_0007ae04(void)
                            LAB_0007c610:                 ;XREF[2,0]:   0007c60a,0007c6c0
ram:0007c610    9df80800        ldrb.w      r0,[sp,#local_20+0x28]                  
ram:0007c614    2f49            ldr         r1,[DAT_0007c6d4]                       ;= 20003040h
ram:0007c616    20f00f00        bic         r0,r0,#0xf                              
ram:0007c61a    401c            adds        r0,r0,#0x1                              
ram:0007c61c    20f0f000        bic         r0,r0,#0xf0                             
ram:0007c620    1030            adds        r0,#0x10                                
ram:0007c622    8df80800        strb.w      r0,[sp,#local_20+0x28]                  
ram:0007c626    0a22            movs        r2,#0xa                                 
ram:0007c628    02a8            add         r0,sp,#0x8                              
ram:0007c62a    7cdf            svc         0x7c                                    
ram:0007c62c    08b1            cbz         r0,LAB_0007c632                         
ram:0007c62e    fef7e9fb        bl          FUN_0007ae04                            ;undefined FUN_0007ae04(void)
                            LAB_0007c632:                 ;XREF[1,0]:   0007c62c
ram:0007c632    0094            str         r4,[sp,#0x0]=>local_28                  
ram:0007c634    0c20            movs        r0,#0xc                                 
ram:0007c636    adf80000        strh.w      r0,[sp,#0x0]=>local_28                  
ram:0007c63a    1820            movs        r0,#0x18                                
ram:0007c63c    0194            str         r4,[sp,#local_24+0x28]                  
ram:0007c63e    adf80200        strh.w      r0,[sp,#local_28+0x2a]                  
ram:0007c642    adf80440        strh.w      r4,[sp,#local_24+0x28]                  
ram:0007c646    4ff4c870        mov.w       r0,#0x190                               
ram:0007c64a    adf80600        strh.w      r0,[sp,#local_24+0x2a]                  
ram:0007c64e    6846            mov         r0,sp                                   
ram:0007c650    7adf            svc         0x7a                                    
ram:0007c652    08b1            cbz         r0,LAB_0007c658                         
ram:0007c654    fef7d6fb        bl          FUN_0007ae04                            ;undefined FUN_0007ae04(void)
                            LAB_0007c658:                 ;XREF[1,0]:   0007c652
ram:0007c658    0820            movs        r0,#0x8                                 
ram:0007c65a    0094            str         r4,[sp,#0x0]=>local_28                  
ram:0007c65c    adf80000        strh.w      r0,[sp,#0x0]=>local_28                  
ram:0007c660    1d48            ldr         r0,[PTR_FUN_0007d02c+1_0007c6d8]        ;= 0007d02d
ram:0007c662    0190            str         r0=>FUN_0007d02c+1,[sp,#local_24+0x28]  
ram:0007c664    1d48            ldr         r0,[PTR_thunk_FUN_0007ae04+1_0007c6dc]  ;= 0007d495
ram:0007c666    0290            str         r0=>thunk_FUN_00...,[sp,#local_20+0x28] 
ram:0007c668    1948            ldr         r0,[DAT_0007c6d0]                       ;= 200032B0h
ram:0007c66a    6946            mov         r1,sp                                   
ram:0007c66c    3038            subs        r0,#0x30                                
ram:0007c66e    fef7abfe        bl          FUN_0007b3c8                            ;undefined8 FUN_0007b3c8(undefined2 *...
ram:0007c672    08b1            cbz         r0,LAB_0007c678                         
ram:0007c674    fef7c6fb        bl          FUN_0007ae04                            ;undefined FUN_0007ae04(void)
                            LAB_0007c678:                 ;XREF[1,0]:   0007c672
ram:0007c678    1c21            movs        r1,#0x1c                                
ram:0007c67a    6846            mov         r0,sp                                   
ram:0007c67c    fdf797ff        bl          FUN_0007a5ae                            ;undefined FUN_0007a5ae(undefined * p...
ram:0007c680    40f6cd40        movw        r0,#0xccd                               
ram:0007c684    cde90040        strd        r4,r0,[sp,#0x0]=>local_28               
ram:0007c688    4ff48040        mov.w       r0,#0x4000                              
ram:0007c68c    0290            str         r0,[sp,#local_20+0x28]                  
ram:0007c68e    0320            movs        r0,#0x3                                 
ram:0007c690    8df80c00        strb.w      r0,[sp,#local_1c+0x28]                  
ram:0007c694    1248            ldr         r0,[PTR_thunk_FUN_0007ae04+1_0007c6e0]  ;= 0007bb39
ram:0007c696    adf80e40        strh.w      r4,[sp,#local_1a+0x28]                  
ram:0007c69a    8df81040        strb.w      r4,[sp,#local_18+0x28]                  
ram:0007c69e    cde90540        strd        r4,r0=>thunk_FUN_0...,[sp,#local_14+0...
ram:0007c6a2    6846            mov         r0,sp                                   
ram:0007c6a4    fef7b0fd        bl          FUN_0007b208                            ;undefined FUN_0007b208(int * param_1)
ram:0007c6a8    08b1            cbz         r0,LAB_0007c6ae                         
ram:0007c6aa    fef7abfb        bl          FUN_0007ae04                            ;undefined FUN_0007ae04(void)
                            LAB_0007c6ae:                 ;XREF[1,0]:   0007c6a8
ram:0007c6ae    00f06dfe        bl          FUN_0007d38c                            ;undefined FUN_0007d38c(void)
ram:0007c6b2    fef7ebfa        bl          FUN_0007ac8c                            ;undefined8 FUN_0007ac8c(undefined4 p...
ram:0007c6b6    0020            movs        r0,#0x0                                 
                            LAB_0007c6b8:                 ;XREF[2,0]:   0007c5ec,0007c5fa
ram:0007c6b8    07b0            add         sp,#0x1c                                
ram:0007c6ba    30bd            pop         {r4,r5,pc}                              
                            LAB_0007c6bc:                 ;XREF[1,0]:   0007c604
ram:0007c6bc    0120            movs        r0,#0x1                                 
ram:0007c6be    e870            strb        r0,[r5,#0x3]=>DAT_20002c67              
ram:0007c6c0    a6e7            b           LAB_0007c610                            
ram:0007c6c2    0000            movs        r0,r0                                   
                            DAT_0007c6c4:                 ;XREF[1,0]:   0007c5da
ram:0007c6c4    642c0020        undefined4  20002C64h                               
                            DAT_0007c6c8:                 ;XREF[1,0]:   0007c5e4
ram:0007c6c8    b1b50700        undefined4  0007B5B1h                               ;?  ->  0007b5b1
                            PTR_FUN_0007bd70+1_0007c6cc:  ;XREF[1,0]:   0007c5ee
ram:0007c6cc    71bd0700        addr        FUN_0007bd70+1                          
                            DAT_0007c6d0:                 ;XREF[2,0]:   0007c5fc,0007c668
ram:0007c6d0    b0320020        undefined4  200032B0h                               
                            DAT_0007c6d4:                 ;XREF[1,0]:   0007c614
ram:0007c6d4    40300020        undefined4  20003040h                               
                            PTR_FUN_0007d02c+1_0007c6d8:  ;XREF[1,0]:   0007c660
ram:0007c6d8    2dd00700        addr        FUN_0007d02c+1                          
                            PTR_thunk_FUN_0007ae04+1_00...;XREF[1,0]:   0007c664
ram:0007c6dc    95d40700        addr        thunk_FUN_0007ae04+1                    
                            PTR_thunk_FUN_0007ae04+1_00...;XREF[1,0]:   0007c694
ram:0007c6e0    39bb0700        addr        thunk_FUN_0007ae04+1                    
                            ;************************************************************************************************
                            ;*                                           FUNCTION                                           *
                            ;************************************************************************************************
                            ;undefined4 FUN_0007c6e4(int * param_1)
          ;param_1       int *               r0                      
                                                          ;XREF[1,0]:   0007d5e6
ram:0007c6e4    0e49            ldr         r1,[DAT_0007c720]                       ;= 20002CA0h
ram:0007c6e6    10b5            push        {r4,lr}                                 
ram:0007c6e8    4a78            ldrb        r2,[r1,#0x1]=>DAT_20002ca1              
ram:0007c6ea    8c78            ldrb        r4,[r1,#0x2]=>DAT_20002ca2              
ram:0007c6ec    0023            movs        r3,#0x0                                 
ram:0007c6ee    a242            cmp         r2,r4                                   
ram:0007c6f0    12d0            beq         LAB_0007c718                            
ram:0007c6f2    521c            adds        r2,r2,#0x1                              
ram:0007c6f4    d2b2            uxtb        r2,r2                                   
ram:0007c6f6    4a70            strb        r2,[r1,#0x1]=>DAT_20002ca1              
ram:0007c6f8    022a            cmp         r2,#0x2                                 
ram:0007c6fa    00d1            bne         LAB_0007c6fe                            
ram:0007c6fc    4b70            strb        r3,[r1,#0x1]=>DAT_20002ca1              
                            LAB_0007c6fe:                 ;XREF[1,0]:   0007c6fa
ram:0007c6fe    084a            ldr         r2,[DAT_0007c720]                       ;= 20002CA0h
ram:0007c700    4b78            ldrb        r3,[r1,#0x1]=>DAT_20002ca1              
ram:0007c702    1832            adds        r2,#0x18                                
ram:0007c704    52f82320        ldr.w       r2=>DAT_20002cb8,r2,r3,0x2              
ram:0007c708    0260            str         r2,[param_1,#0x0]                       
ram:0007c70a    0869            ldr         param_1,[r1,#0x10]=>DAT_20002cb0        
ram:0007c70c    1044            add         param_1,r2                              
ram:0007c70e    20f07f40        bic         param_1,param_1,#0xff000000             
ram:0007c712    0861            str         param_1,[r1,#0x10]=>DAT_20002cb0        
ram:0007c714    0120            movs        param_1,#0x1                            
ram:0007c716    10bd            pop         {r4,pc}                                 
                            LAB_0007c718:                 ;XREF[1,0]:   0007c6f0
ram:0007c718    0360            str         r3,[param_1,#0x0]                       
ram:0007c71a    0020            movs        param_1,#0x0                            
ram:0007c71c    10bd            pop         {r4,pc}                                 
ram:0007c71e    0000            movs        r0,r0                                   
                            DAT_0007c720:                 ;XREF[2,0]:   0007c6e4,0007c6fe
ram:0007c720    a02c0020        undefined4  20002CA0h                               
                            ;************************************************************************************************
                            ;*                                           FUNCTION                                           *
                            ;************************************************************************************************
                            ;undefined FUN_0007c724(int param_1)
          ;param_1       int                 r0                      
                                                          ;XREF[1,0]:   0007cc0c
ram:0007c724    6ddf            svc         0x6d                                    
ram:0007c726    0028            cmp         param_1,#0x0                            
ram:0007c728    01d0            beq         LAB_0007c72e                            
ram:0007c72a    fef76bbb        b.w         FUN_0007ae04                            ;undefined FUN_0007ae04(void)
                            LAB_0007c72e:                 ;XREF[1,0]:   0007c728
ram:0007c72e    7047            bx          lr                                      
                            ;************************************************************************************************
                            ;*                                           FUNCTION                                           *
                            ;************************************************************************************************
                            ;undefined4 FUN_0007c730(void)
                                                          ;XREF[1,0]:   0007c5f4
ram:0007c730    0748            ldr         r0,[DAT_0007c750]                       ;= 20002C98h
ram:0007c732    0021            movs        r1,#0x0                                 
ram:0007c734    074a            ldr         r2,[DAT_0007c754]                       ;= 200032ECh
ram:0007c736    0170            strb        r1,[r0,#0x0]=>DAT_20002c98              
ram:0007c738    02f59070        add.w       r0,r2,#0x120                            
ram:0007c73c    0260            str         r2,[r0,#0x0]=>DAT_2000340c              
ram:0007c73e    0822            movs        r2,#0x8                                 
                                                          ; FWD[2,0]:   20003410,20003414
ram:0007c740    c0e90121        strd        r2,r1,[r0,#0x4]=>DAT_20003410           
ram:0007c744    c160            str         r1,[r0,#0xc]=>DAT_20003418              
ram:0007c746    0161            str         r1,[r0,#0x10]=>DAT_2000341c             
ram:0007c748    4161            str         r1,[r0,#0x14]=>DAT_20003420             
ram:0007c74a    8161            str         r1,[r0,#0x18]=>DAT_20003424             
ram:0007c74c    0846            mov         r0,r1                                   
ram:0007c74e    7047            bx          lr                                      
                            DAT_0007c750:                 ;XREF[1,0]:   0007c730
ram:0007c750    982c0020        undefined4  20002C98h                               
                            DAT_0007c754:                 ;XREF[1,0]:   0007c734
ram:0007c754    ec320020        undefined4  200032ECh                               
                            ;************************************************************************************************
                            ;*                                           FUNCTION                                           *
                            ;************************************************************************************************
                            ;undefined4 FUN_0007c758(int param_1)
          ;param_1       int                 r0                      
                                                          ;XREF[2,0]:   0007ad8e,0007bd94
ram:0007c758    f0b5            push        {r4,r5,r6,r7,lr}                        
ram:0007c75a    194a            ldr         r2,[DAT_0007c7c0]                       ;= 2000340Ch
ram:0007c75c    0646            mov         r6,param_1                              
ram:0007c75e    9168            ldr         r1,[r2,#0x8]=>DAT_20003414              
ram:0007c760    61b3            cbz         r1,LAB_0007c7bc                         
ram:0007c762    5569            ldr         r5,[r2,#0x14]=>DAT_20003420             
ram:0007c764    1020            movs        param_1,#0x10                           
ram:0007c766    691a            subs        r1,r5,r1                                
ram:0007c768    01f00701        and         r1,r1,#0x7                              
ram:0007c76c    d2f80070        ldr.w       r7,[r2,#0x0]=>DAT_2000340c              
ram:0007c770    0b46            mov         r3,r1                                   
ram:0007c772    0124            movs        r4,#0x1                                 
                            LAB_0007c774:                 ;XREF[1,0]:   0007c796
ram:0007c774    01ebc10c        add.w       r12,r1,r1, lsl #0x3                     
ram:0007c778    07eb8c0c        add.w       r12,r7,r12, lsl #0x2                    
ram:0007c77c    b445            cmp         r12,r6                                  
ram:0007c77e    06d1            bne         LAB_0007c78e                            
ram:0007c780    9569            ldr         r5,[r2,#0x18]=>DAT_20003424             
ram:0007c782    04fa01f6        lsl.w       r6,r4,r1                                
ram:0007c786    7540            eors        r5,r6                                   
ram:0007c788    0020            movs        param_1,#0x0                            
ram:0007c78a    9561            str         r5,[r2,#0x18]=>DAT_20003424             
ram:0007c78c    04e0            b           LAB_0007c798                            
                            LAB_0007c78e:                 ;XREF[1,0]:   0007c77e
ram:0007c78e    491c            adds        r1,r1,#0x1                              
ram:0007c790    01f00701        and         r1,r1,#0x7                              
ram:0007c794    8d42            cmp         r5,r1                                   
ram:0007c796    edd1            bne         LAB_0007c774                            
                            LAB_0007c798:                 ;XREF[1,0]:   0007c78c
ram:0007c798    491c            adds        r1,r1,#0x1                              
ram:0007c79a    9569            ldr         r5,[r2,#0x18]=>DAT_20003424             
ram:0007c79c    01f00701        and         r1,r1,#0x7                              
                            LAB_0007c7a0:                 ;XREF[1,0]:   0007c7ba
ram:0007c7a0    04fa03f3        lsl.w       r3,r4,r3                                
ram:0007c7a4    1d42            tst         r5,r3                                   
ram:0007c7a6    0ad1            bne         LAB_0007c7be                            
ram:0007c7a8    9368            ldr         r3,[r2,#0x8]=>DAT_20003414              
ram:0007c7aa    002b            cmp         r3,#0x0                                 
ram:0007c7ac    07d0            beq         LAB_0007c7be                            
ram:0007c7ae    5b1e            subs        r3,r3,#0x1                              
ram:0007c7b0    9360            str         r3,[r2,#0x8]=>DAT_20003414              
ram:0007c7b2    5368            ldr         r3,[r2,#0x4]=>DAT_20003410              
ram:0007c7b4    5b1c            adds        r3,r3,#0x1                              
ram:0007c7b6    5360            str         r3,[r2,#0x4]=>DAT_20003410              
ram:0007c7b8    0b46            mov         r3,r1                                   
ram:0007c7ba    f1e7            b           LAB_0007c7a0                            
                            LAB_0007c7bc:                 ;XREF[1,0]:   0007c760
ram:0007c7bc    0420            movs        param_1,#0x4                            
                            LAB_0007c7be:                 ;XREF[2,0]:   0007c7a6,0007c7ac
ram:0007c7be    f0bd            pop         {r4,r5,r6,r7,pc}                        
                            DAT_0007c7c0:                 ;XREF[1,0]:   0007c75a
ram:0007c7c0    0c340020        undefined4  2000340Ch                               
                            ;************************************************************************************************
                            ;*                                           FUNCTION                                           *
                            ;************************************************************************************************
                            ;undefined4 FUN_0007c7c4(undefined4 param_1)
          ;param_1       undefined4          r0                      
                                                          ;XREF[1,0]:   0007ad54
ram:0007c7c4    0649            ldr         r1,[DAT_0007c7e0]                       ;= 2000340Ch
ram:0007c7c6    2023            movs        r3,#0x20                                
ram:0007c7c8    0a7c            ldrb        r2,[r1,#0x10]=>DAT_2000341c             
ram:0007c7ca    0968            ldr         r1,[r1,#0x0]=>DAT_2000340c              
ram:0007c7cc    521e            subs        r2,r2,#0x1                              
ram:0007c7ce    02f00702        and         r2,r2,#0x7                              
ram:0007c7d2    02ebc202        add.w       r2,r2,r2, lsl #0x3                      
ram:0007c7d6    03eb8202        add.w       r2,r3,r2, lsl #0x2                      
ram:0007c7da    8850            str         param_1,[r1,r2]                         
ram:0007c7dc    0020            movs        param_1,#0x0                            
ram:0007c7de    7047            bx          lr                                      
                            DAT_0007c7e0:                 ;XREF[1,0]:   0007c7c4
ram:0007c7e0    0c340020        undefined4  2000340Ch                               
                            ;************************************************************************************************
                            ;*                                           FUNCTION                                           *
                            ;************************************************************************************************
                            ;undefined4 FUN_0007c7e4(int * param_1, undefined4 * param_2)
          ;param_1       int *               r0                      
          ;param_2       undefined4 *        r1                      
                                                          ;XREF[1,0]:   0007ad60
ram:0007c7e4    70b5            push        {r4,r5,r6,lr}                           
ram:0007c7e6    d0b1            cbz         param_1,LAB_0007c81e                    
ram:0007c7e8    c9b1            cbz         param_2,LAB_0007c81e                    
ram:0007c7ea    0f4a            ldr         r2,[DAT_0007c828]                       ;= 2000340Ch
ram:0007c7ec    d368            ldr         r3,[r2,#0xc]=>DAT_20003418              
ram:0007c7ee    c3b1            cbz         r3,LAB_0007c822                         
ram:0007c7f0    5b1e            subs        r3,r3,#0x1                              
ram:0007c7f2    d360            str         r3,[r2,#0xc]=>DAT_20003418              
ram:0007c7f4    9368            ldr         r3,[r2,#0x8]=>DAT_20003414              
ram:0007c7f6    5b1c            adds        r3,r3,#0x1                              
ram:0007c7f8    9360            str         r3,[r2,#0x8]=>DAT_20003414              
ram:0007c7fa    5369            ldr         r3,[r2,#0x14]=>DAT_20003420             
ram:0007c7fc    1568            ldr         r5,[r2,#0x0]=>DAT_2000340c              
ram:0007c7fe    03ebc304        add.w       r4,r3,r3, lsl #0x3                      
ram:0007c802    05eb8406        add.w       r6,r5,r4, lsl #0x2                      
ram:0007c806    0660            str         r6,[param_1,#0x0]                       
ram:0007c808    2020            movs        param_1,#0x20                           
ram:0007c80a    00eb8400        add.w       param_1,param_1,r4, lsl #0x2            
ram:0007c80e    5b1c            adds        r3,r3,#0x1                              
ram:0007c810    2858            ldr         param_1,[r5,param_1]                    
ram:0007c812    0860            str         param_1,[param_2,#0x0]                  
ram:0007c814    03f00700        and         param_1,r3,#0x7                         
ram:0007c818    5061            str         param_1,[r2,#0x14]=>DAT_20003420        
ram:0007c81a    0020            movs        param_1,#0x0                            
ram:0007c81c    70bd            pop         {r4,r5,r6,pc}                           
                            LAB_0007c81e:                 ;XREF[2,0]:   0007c7e6,0007c7e8
ram:0007c81e    0e20            movs        param_1,#0xe                            
ram:0007c820    70bd            pop         {r4,r5,r6,pc}                           
                            LAB_0007c822:                 ;XREF[1,0]:   0007c7ee
ram:0007c822    0420            movs        param_1,#0x4                            
ram:0007c824    70bd            pop         {r4,r5,r6,pc}                           
ram:0007c826    0000            movs        r0,r0                                   
                            DAT_0007c828:                 ;XREF[1,0]:   0007c7ea
ram:0007c828    0c340020        undefined4  2000340Ch                               
                            ;************************************************************************************************
                            ;*                                           FUNCTION                                           *
                            ;************************************************************************************************
                            ;undefined4 FUN_0007c82c(uint param_1, int * param_2)
          ;param_1       uint                r0                      
          ;param_2       int *               r1                      
                                                          ;XREF[1,0]:   0007ad3c
ram:0007c82c    10b5            push        {r4,lr}                                 
ram:0007c82e    e9b1            cbz         param_2,LAB_0007c86c                    
ram:0007c830    0022            movs        r2,#0x0                                 
ram:0007c832    0a60            str         r2,[param_2,#0x0]                       
ram:0007c834    104a            ldr         r2,[DAT_0007c878]                       ;= 2000340Ch
ram:0007c836    5368            ldr         r3,[r2,#0x4]=>DAT_20003410              
ram:0007c838    e3b1            cbz         r3,LAB_0007c874                         
ram:0007c83a    2028            cmp         param_1,#0x20                           
ram:0007c83c    18d8            bhi         LAB_0007c870                            
ram:0007c83e    5b1e            subs        r3,r3,#0x1                              
ram:0007c840    5360            str         r3,[r2,#0x4]=>DAT_20003410              
ram:0007c842    d068            ldr         param_1,[r2,#0xc]=>DAT_20003418         
ram:0007c844    401c            adds        param_1,param_1,#0x1                    
ram:0007c846    d060            str         param_1,[r2,#0xc]=>DAT_20003418         
ram:0007c848    1069            ldr         param_1,[r2,#0x10]=>DAT_2000341c        
ram:0007c84a    1368            ldr         r3,[r2,#0x0]=>DAT_2000340c              
ram:0007c84c    00ebc004        add.w       r4,param_1,param_1, lsl #0x3            
ram:0007c850    03eb8403        add.w       r3,r3,r4, lsl #0x2                      
ram:0007c854    0b60            str         r3,[param_2,#0x0]                       
ram:0007c856    0123            movs        r3,#0x1                                 
ram:0007c858    8340            lsls        r3,param_1                              
ram:0007c85a    9169            ldr         param_2,[r2,#0x18]=>DAT_20003424        
ram:0007c85c    401c            adds        param_1,param_1,#0x1                    
ram:0007c85e    1943            orrs        param_2,r3                              
ram:0007c860    00f00700        and         param_1,param_1,#0x7                    
ram:0007c864    9161            str         param_2,[r2,#0x18]=>DAT_20003424        
ram:0007c866    1061            str         param_1,[r2,#0x10]=>DAT_2000341c        
ram:0007c868    0020            movs        param_1,#0x0                            
ram:0007c86a    10bd            pop         {r4,pc}                                 
                            LAB_0007c86c:                 ;XREF[1,0]:   0007c82e
ram:0007c86c    0e20            movs        param_1,#0xe                            
ram:0007c86e    10bd            pop         {r4,pc}                                 
                            LAB_0007c870:                 ;XREF[1,0]:   0007c83c
ram:0007c870    0c20            movs        param_1,#0xc                            
ram:0007c872    10bd            pop         {r4,pc}                                 
                            LAB_0007c874:                 ;XREF[1,0]:   0007c838
ram:0007c874    0420            movs        param_1,#0x4                            
ram:0007c876    10bd            pop         {r4,pc}                                 
                            DAT_0007c878:                 ;XREF[1,0]:   0007c834
ram:0007c878    0c340020        undefined4  2000340Ch                               
                            ;************************************************************************************************
                            ;*                                           FUNCTION                                           *
                            ;************************************************************************************************
                            ;undefined FUN_0007c87c(ushort * param_1, int param_2, undefined4 param_3, uint param_4)
          ;param_1       ushort *            r0                      
          ;param_2       int                 r1                      
          ;param_3       undefined4          r2                      
          ;param_4       uint                r3                      
          ;local_18      undefined4         -18                      ;XREF[1,0]:   0007c8aa
          ;local_1c      undefined4         -1c                      ;XREF[1,0]:   0007c8b0
          ;local_20      undefined4         -20                      ;XREF[1,0]:   0007c8a6
                                                          ;XREF[1,0]:   0007d0dc
ram:0007c87c    feb5            push        {param_2,param_3,param_4,r4,r5,r6,r7,lr}
ram:0007c87e    0446            mov         r4,param_1                              
ram:0007c880    087a            ldrb        param_1,[param_2,#0x8]                  
ram:0007c882    8207            lsls        param_3,param_1,#0x1e                   
ram:0007c884    0ed0            beq         LAB_0007c8a4                            
ram:0007c886    00f00302        and         param_3,param_1,#0x3                    
ram:0007c88a    c2f10403        rsb.w       param_4,param_3,#0x4                    
ram:0007c88e    0022            movs        param_3,#0x0                            
ram:0007c890    1546            mov         r5,param_3                              
ram:0007c892    04e0            b           LAB_0007c89e                            
                            LAB_0007c894:                 ;XREF[1,0]:   0007c8a0
ram:0007c894    4e68            ldr         r6,[param_2,#0x4]                       
ram:0007c896    3554            strb        r5,[r6,param_1]                         
ram:0007c898    401c            adds        param_1,param_1,#0x1                    
ram:0007c89a    c0b2            uxtb        param_1,param_1                         
ram:0007c89c    521c            adds        param_3,param_3,#0x1                    
                            LAB_0007c89e:                 ;XREF[1,0]:   0007c892
ram:0007c89e    9a42            cmp         param_3,param_4                         
ram:0007c8a0    f8d3            bcc         LAB_0007c894                            
ram:0007c8a2    0872            strb        param_1,[param_2,#0x8]                  
                            LAB_0007c8a4:                 ;XREF[1,0]:   0007c884
ram:0007c8a4    0120            movs        param_1,#0x1                            
ram:0007c8a6    0090            str         param_1,[sp,#0x0]=>local_20             
ram:0007c8a8    4868            ldr         param_1,[param_2,#0x4]                  
ram:0007c8aa    0290            str         param_1,[sp,#local_18+0x20]             
ram:0007c8ac    087a            ldrb        param_1,[param_2,#0x8]                  
ram:0007c8ae    8008            lsrs        param_1,param_1,#0x2                    
ram:0007c8b0    0190            str         param_1,[sp,#local_1c+0x20]             
ram:0007c8b2    6846            mov         param_1,sp                              
ram:0007c8b4    fff7e8fb        bl          FUN_0007c088                            ;int FUN_0007c088(int param_1, undefi...
ram:0007c8b8    0028            cmp         param_1,#0x0                            
ram:0007c8ba    0bd0            beq         LAB_0007c8d4                            
ram:0007c8bc    0221            movs        param_2,#0x2                            
ram:0007c8be    00f062fa        bl          FUN_0007cd86                            ;undefined4 FUN_0007cd86(int param_1,...
ram:0007c8c2    0246            mov         param_3,param_1                         
ram:0007c8c4    0221            movs        param_2,#0x2                            
ram:0007c8c6    2046            mov         param_1,r4                              
ram:0007c8c8    fef742fe        bl          FUN_0007b550                            ;undefined8 FUN_0007b550(ushort * par...
ram:0007c8cc    0028            cmp         param_1,#0x0                            
ram:0007c8ce    01d0            beq         LAB_0007c8d4                            
ram:0007c8d0    fef798fa        bl          FUN_0007ae04                            ;undefined FUN_0007ae04(void)
                            LAB_0007c8d4:                 ;XREF[2,0]:   0007c8ba,0007c8ce
ram:0007c8d4    febd            pop         {param_2,param_3,param_4,r4,r5,r6,r7,pc}
ram:0007c8d6    0000            movs        r0,r0                                   
                            ;************************************************************************************************
                            ;*                                           FUNCTION                                           *
                            ;************************************************************************************************
                            ;undefined FUN_0007c8d8(void)
          ;local_18      undefined4         -18                      ;XREF[2,0]:   0007c916,0007c924
                                                          ;XREF[2,0]:   0007a706,0007d4f4
ram:0007c8d8    f8b5            push        {r3,r4,r5,r6,r7,lr}                     
ram:0007c8da    1d4c            ldr         r4,[DAT_0007c950]                       ;= 20002CC0h
ram:0007c8dc    2078            ldrb        r0,[r4,#0x0]=>DAT_20002cc0              
ram:0007c8de    0028            cmp         r0,#0x0                                 
ram:0007c8e0    34d0            beq         LAB_0007c94c                            
ram:0007c8e2    2069            ldr         r0,[r4,#0x10]=>DAT_20002cd0             
ram:0007c8e4    28b1            cbz         r0,LAB_0007c8f2                         
ram:0007c8e6    0026            movs        r6,#0x0                                 
                            LAB_0007c8e8:                 ;XREF[1,0]:   0007c8f4
ram:0007c8e8    e068            ldr         r0,[r4,#0xc]=>DAT_20002ccc              
ram:0007c8ea    20b1            cbz         r0,LAB_0007c8f6                         
ram:0007c8ec    0025            movs        r5,#0x0                                 
                            LAB_0007c8ee:                 ;XREF[2,0]:   0007c8f8,0007c94a
ram:0007c8ee    26b1            cbz         r6,LAB_0007c8fa                         
ram:0007c8f0    13e0            b           LAB_0007c91a                            
                            LAB_0007c8f2:                 ;XREF[1,0]:   0007c8e4
ram:0007c8f2    0126            movs        r6,#0x1                                 
ram:0007c8f4    f8e7            b           LAB_0007c8e8                            
                            LAB_0007c8f6:                 ;XREF[1,0]:   0007c8ea
ram:0007c8f6    0125            movs        r5,#0x1                                 
ram:0007c8f8    f9e7            b           LAB_0007c8ee                            
                            LAB_0007c8fa:                 ;XREF[2,0]:   0007c8ee,0007c946
ram:0007c8fa    6078            ldrb        r0,[r4,#0x1]=>DAT_20002cc1              
ram:0007c8fc    0028            cmp         r0,#0x0                                 
ram:0007c8fe    25d1            bne         LAB_0007c94c                            
ram:0007c900    6846            mov         r0,sp                                   
ram:0007c902    48df            svc         0x48                                    
ram:0007c904    0528            cmp         r0,#0x5                                 
ram:0007c906    03d0            beq         LAB_0007c910                            
ram:0007c908    20b1            cbz         r0,LAB_0007c914                         
ram:0007c90a    fef77bfa        bl          FUN_0007ae04                            ;undefined FUN_0007ae04(void)
ram:0007c90e    04e0            b           LAB_0007c91a                            
                            LAB_0007c910:                 ;XREF[1,0]:   0007c906
ram:0007c910    0126            movs        r6,#0x1                                 
ram:0007c912    02e0            b           LAB_0007c91a                            
                            LAB_0007c914:                 ;XREF[1,0]:   0007c908
ram:0007c914    2169            ldr         r1,[r4,#0x10]=>DAT_20002cd0             
ram:0007c916    0098            ldr         r0=>local_18,[sp,#0x0]                  
ram:0007c918    8847            blx         r1                                      
                            LAB_0007c91a:                 ;XREF[3,0]:   0007c8f0,0007c90e,0007c912
ram:0007c91a    9db9            cbnz        r5,LAB_0007c944                         
ram:0007c91c    6078            ldrb        r0,[r4,#0x1]=>DAT_20002cc1              
ram:0007c91e    0028            cmp         r0,#0x0                                 
ram:0007c920    14d1            bne         LAB_0007c94c                            
ram:0007c922    6088            ldrh        r0,[r4,#0x2]=>DAT_20002cc2              
ram:0007c924    adf80000        strh.w      r0,[sp,#0x0]=>local_18                  
ram:0007c928    6946            mov         r1,sp                                   
ram:0007c92a    a068            ldr         r0,[r4,#0x8]=>DAT_20002cc8              
ram:0007c92c    61df            svc         0x61                                    
ram:0007c92e    0528            cmp         r0,#0x5                                 
ram:0007c930    03d0            beq         LAB_0007c93a                            
ram:0007c932    20b1            cbz         r0,LAB_0007c93e                         
ram:0007c934    fef766fa        bl          FUN_0007ae04                            ;undefined FUN_0007ae04(void)
ram:0007c938    04e0            b           LAB_0007c944                            
                            LAB_0007c93a:                 ;XREF[1,0]:   0007c930
ram:0007c93a    0125            movs        r5,#0x1                                 
ram:0007c93c    02e0            b           LAB_0007c944                            
                            LAB_0007c93e:                 ;XREF[1,0]:   0007c932
                                                          ; FWD[2,0]:   20002cc8,20002ccc
ram:0007c93e    d4e90201        ldrd        r0,r1,[r4,#0x8]=>DAT_20002cc8           
ram:0007c942    8847            blx         r1                                      
                            LAB_0007c944:                 ;XREF[3,0]:   0007c91a,0007c938,0007c93c
ram:0007c944    002e            cmp         r6,#0x0                                 
ram:0007c946    d8d0            beq         LAB_0007c8fa                            
ram:0007c948    002d            cmp         r5,#0x0                                 
ram:0007c94a    d0d0            beq         LAB_0007c8ee                            
                            LAB_0007c94c:                 ;XREF[3,0]:   0007c8e0,0007c8fe,0007c920
ram:0007c94c    f8bd            pop         {r3,r4,r5,r6,r7,pc}                     
ram:0007c94e    0000            movs        r0,r0                                   
                            DAT_0007c950:                 ;XREF[1,0]:   0007c8da
ram:0007c950    c02c0020        undefined4  20002CC0h                               
                            ;************************************************************************************************
                            ;*                                           FUNCTION                                           *
                            ;************************************************************************************************
                            ;undefined4 FUN_0007c954(int param_1)
          ;param_1       int                 r0                      
                                                          ;XREF[1,0]:   0007bb40
ram:0007c954    0549            ldr         r1,[DAT_0007c96c]                       ;= 20002C0Ch
ram:0007c956    4088            ldrh        param_1,[param_1,#0x2]                  
ram:0007c958    0a88            ldrh        r2,[r1,#0x0]=>DAT_20002c0c              
ram:0007c95a    9042            cmp         param_1,r2                              
ram:0007c95c    04d3            bcc         LAB_0007c968                            
ram:0007c95e    4988            ldrh        r1,[r1,#0x2]=>DAT_20002c0e              
ram:0007c960    8842            cmp         param_1,r1                              
ram:0007c962    01d8            bhi         LAB_0007c968                            
ram:0007c964    0120            movs        param_1,#0x1                            
ram:0007c966    7047            bx          lr                                      
                            LAB_0007c968:                 ;XREF[2,0]:   0007c95c,0007c962
ram:0007c968    0020            movs        param_1,#0x0                            
ram:0007c96a    7047            bx          lr                                      
                            DAT_0007c96c:                 ;XREF[1,0]:   0007c954
ram:0007c96c    0c2c0020        undefined4  20002C0Ch                               
                            ;************************************************************************************************
                            ;*                                           FUNCTION                                           *
                            ;************************************************************************************************
                            ;undefined4 FUN_0007c970(uint param_1)
          ;param_1       uint                r0                      
                                                          ;XREF[2,0]:   0007d1fc,0007d204
ram:0007c970    8007            lsls        param_1,param_1,#0x1e                   
ram:0007c972    01d0            beq         LAB_0007c978                            
ram:0007c974    0020            movs        param_1,#0x0                            
ram:0007c976    7047            bx          lr                                      
                            LAB_0007c978:                 ;XREF[1,0]:   0007c972
ram:0007c978    0120            movs        param_1,#0x1                            
ram:0007c97a    7047            bx          lr                                      
                            ;************************************************************************************************
                            ;*                                           FUNCTION                                           *
                            ;************************************************************************************************
                            ;undefined4 FUN_0007c97c(int param_1, int param_2, ushort * param_3, uint param_4)
          ;param_1       int                 r0                      
          ;param_2       int                 r1                      
          ;param_3       ushort *            r2                      
          ;param_4       uint                r3                      
                                                          ;XREF[1,0]:   0007aab4
ram:0007c97c    30b5            push        {r4,r5,lr}                              
ram:0007c97e    1488            ldrh        r4,[param_3,#0x0]                       
ram:0007c980    e51c            adds        r5,r4,#0x3                              
ram:0007c982    9d42            cmp         r5,param_4                              
ram:0007c984    01d9            bls         LAB_0007c98a                            
ram:0007c986    0c20            movs        param_1,#0xc                            
ram:0007c988    30bd            pop         {r4,r5,pc}                              
                            LAB_0007c98a:                 ;XREF[1,0]:   0007c984
ram:0007c98a    0225            movs        r5,#0x2                                 
ram:0007c98c    0d55            strb        r5,[param_2,r4]                         
ram:0007c98e    1388            ldrh        param_4,[param_3,#0x0]                  
ram:0007c990    1c24            movs        r4,#0x1c                                
ram:0007c992    5b1c            adds        param_4,param_4,#0x1                    
ram:0007c994    9bb2            uxth        param_4,param_4                         
ram:0007c996    1380            strh        param_4,[param_3,#0x0]                  
ram:0007c998    cc54            strb        r4,[param_2,param_4]                    
ram:0007c99a    1388            ldrh        param_4,[param_3,#0x0]                  
ram:0007c99c    5b1c            adds        param_4,param_4,#0x1                    
ram:0007c99e    9bb2            uxth        param_4,param_4                         
ram:0007c9a0    1380            strh        param_4,[param_3,#0x0]                  
ram:0007c9a2    0128            cmp         param_1,#0x1                            
ram:0007c9a4    07d0            beq         LAB_0007c9b6                            
ram:0007c9a6    0228            cmp         param_1,#0x2                            
ram:0007c9a8    07d0            beq         LAB_0007c9ba                            
ram:0007c9aa    0328            cmp         param_1,#0x3                            
ram:0007c9ac    07d0            beq         LAB_0007c9be                            
ram:0007c9ae    0428            cmp         param_1,#0x4                            
ram:0007c9b0    07d0            beq         LAB_0007c9c2                            
ram:0007c9b2    0720            movs        param_1,#0x7                            
ram:0007c9b4    30bd            pop         {r4,r5,pc}                              
                            LAB_0007c9b6:                 ;XREF[1,0]:   0007c9a4
ram:0007c9b6    0020            movs        param_1,#0x0                            
ram:0007c9b8    04e0            b           LAB_0007c9c4                            
                            LAB_0007c9ba:                 ;XREF[1,0]:   0007c9a8
ram:0007c9ba    0120            movs        param_1,#0x1                            
ram:0007c9bc    02e0            b           LAB_0007c9c4                            
                            LAB_0007c9be:                 ;XREF[1,0]:   0007c9ac
ram:0007c9be    cd54            strb        r5,[param_2,param_4]                    
ram:0007c9c0    01e0            b           LAB_0007c9c6                            
                            LAB_0007c9c2:                 ;XREF[1,0]:   0007c9b0
ram:0007c9c2    0320            movs        param_1,#0x3                            
                            LAB_0007c9c4:                 ;XREF[2,0]:   0007c9b8,0007c9bc
ram:0007c9c4    c854            strb        param_1,[param_2,param_4]               
                            LAB_0007c9c6:                 ;XREF[1,0]:   0007c9c0
ram:0007c9c6    1088            ldrh        param_1,[param_3,#0x0]                  
ram:0007c9c8    401c            adds        param_1,param_1,#0x1                    
ram:0007c9ca    1080            strh        param_1,[param_3,#0x0]                  
ram:0007c9cc    0020            movs        param_1,#0x0                            
ram:0007c9ce    30bd            pop         {r4,r5,pc}                              
                            ;************************************************************************************************
                            ;*                                           FUNCTION                                           *
                            ;************************************************************************************************
                            ;bool FUN_0007c9d0(void)
                                                          ;XREF[1,0]:   0007d5ec
ram:0007c9d0    2de9f047        push        {r4,r5,r6,r7,r8,r9,r10,lr}              
ram:0007c9d4    dff8aca0        ldr.w       r10,[DAT_0007ca84]                      ;= 20002CA0h
ram:0007c9d8    daf80c00        ldr.w       r0,[r10,#0xc]=>DAT_20002cac             
ram:0007c9dc    9af80040        ldrb.w      r4,[r10,#0x0]=>DAT_20002ca0             
ram:0007c9e0    8046            mov         r8,r0                                   
ram:0007c9e2    9af80460        ldrb.w      r6,[r10,#0x4]=>DAT_20002ca4             
ram:0007c9e6    daf80890        ldr.w       r9,[r10,#0x8]=>DAT_20002ca8             
ram:0007c9ea    daf81070        ldr.w       r7,[r10,#0x10]=>DAT_20002cb0            
ram:0007c9ee    3ae0            b           LAB_0007ca66                            
                            LAB_0007c9f0:                 ;XREF[1,0]:   0007ca6a
ram:0007c9f0    09ebc405        add.w       r5,r9,r4, lsl #0x3                      
ram:0007c9f4    2a78            ldrb        r2,[r5,#0x0]                            
ram:0007c9f6    33e0            b           LAB_0007ca60                            
                            LAB_0007c9f8:                 ;XREF[1,0]:   0007ca64
ram:0007c9f8    02eb4201        add.w       r1,r2,r2, lsl #0x1                      
ram:0007c9fc    6b68            ldr         r3,[r5,#0x4]                            
ram:0007c9fe    521c            adds        r2,r2,#0x1                              
ram:0007ca00    03ebc101        add.w       r1,r3,r1, lsl #0x3                      
ram:0007ca04    ab78            ldrb        r3,[r5,#0x2]                            
ram:0007ca06    d2b2            uxtb        r2,r2                                   
ram:0007ca08    9342            cmp         r3,r2                                   
ram:0007ca0a    00d1            bne         LAB_0007ca0e                            
ram:0007ca0c    0022            movs        r2,#0x0                                 
                            LAB_0007ca0e:                 ;XREF[1,0]:   0007ca0a
ram:0007ca0e    0b78            ldrb        r3,[r1,#0x0]                            
ram:0007ca10    022b            cmp         r3,#0x2                                 
ram:0007ca12    02d0            beq         LAB_0007ca1a                            
ram:0007ca14    032b            cmp         r3,#0x3                                 
ram:0007ca16    23d1            bne         LAB_0007ca60                            
ram:0007ca18    1fe0            b           LAB_0007ca5a                            
                            LAB_0007ca1a:                 ;XREF[1,0]:   0007ca12
ram:0007ca1a    d1f804c0        ldr.w       r12,[r1,#0x4]                           
ram:0007ca1e    0346            mov         r3,r0                                   
ram:0007ca20    0146            mov         r1,r0                                   
ram:0007ca22    03e0            b           LAB_0007ca2c                            
                            LAB_0007ca24:                 ;XREF[1,0]:   0007ca2e
ram:0007ca24    6145            cmp         r1,r12                                  
ram:0007ca26    03d0            beq         LAB_0007ca30                            
ram:0007ca28    0b46            mov         r3,r1                                   
ram:0007ca2a    c969            ldr         r1,[r1,#0x1c]                           
                            LAB_0007ca2c:                 ;XREF[1,0]:   0007ca22
ram:0007ca2c    c1b1            cbz         r1,LAB_0007ca60                         
ram:0007ca2e    f9e7            b           LAB_0007ca24                            
                            LAB_0007ca30:                 ;XREF[1,0]:   0007ca26
ram:0007ca30    b1b1            cbz         r1,LAB_0007ca60                         
ram:0007ca32    8b42            cmp         r3,r1                                   
ram:0007ca34    05d1            bne         LAB_0007ca42                            
ram:0007ca36    c069            ldr         r0,[r0,#0x1c]                           
ram:0007ca38    18b9            cbnz        r0,LAB_0007ca42                         
ram:0007ca3a    134f            ldr         r7,[DAT_0007ca88]                       ;= 40011000h
ram:0007ca3c    0126            movs        r6,#0x1                                 
ram:0007ca3e    be60            str         r6,[r7,#offset DAT_40011008 &0xff]      
ram:0007ca40    0027            movs        r7,#0x0                                 
                            LAB_0007ca42:                 ;XREF[2,0]:   0007ca34,0007ca38
ram:0007ca42    d1f800c0        ldr.w       r12,[r1,#0x0]                           
ram:0007ca46    c969            ldr         r1,[r1,#0x1c]                           
ram:0007ca48    d961            str         r1,[r3,#0x1c]                           
ram:0007ca4a    49b1            cbz         r1,LAB_0007ca60                         
ram:0007ca4c    0b68            ldr         r3,[r1,#0x0]                            
ram:0007ca4e    6344            add         r3,r12                                  
ram:0007ca50    0b60            str         r3,[r1,#0x0]                            
ram:0007ca52    05e0            b           LAB_0007ca60                            
                            LAB_0007ca54:                 ;XREF[1,0]:   0007ca5e
ram:0007ca54    0174            strb        r1,[r0,#0x10]                           
ram:0007ca56    c069            ldr         r0,[r0,#0x1c]                           
ram:0007ca58    00e0            b           LAB_0007ca5c                            
                            LAB_0007ca5a:                 ;XREF[1,0]:   0007ca18
ram:0007ca5a    0021            movs        r1,#0x0                                 
                            LAB_0007ca5c:                 ;XREF[1,0]:   0007ca58
ram:0007ca5c    0028            cmp         r0,#0x0                                 
ram:0007ca5e    f9d1            bne         LAB_0007ca54                            
                            LAB_0007ca60:                 ;XREF[6,0]:   0007c9f6,0007ca16,0007ca2c,0007ca30
                                                          ;             0007ca4a,0007ca52
ram:0007ca60    6978            ldrb        r1,[r5,#0x1]                            
ram:0007ca62    9142            cmp         r1,r2                                   
ram:0007ca64    c8d1            bne         LAB_0007c9f8                            
                            LAB_0007ca66:                 ;XREF[1,0]:   0007c9ee
ram:0007ca66    641e            subs        r4,r4,#0x1                              
ram:0007ca68    e4b2            uxtb        r4,r4                                   
ram:0007ca6a    c1d2            bcs         LAB_0007c9f0                            
                                                          ; FWD[2,0]:   20002cac,20002cb0
ram:0007ca6c    cae90307        strd        r0,r7,[r10,#0xc]=>DAT_20002cac          
ram:0007ca70    8af80460        strb.w      r6,[r10,#0x4]=>DAT_20002ca4             
ram:0007ca74    4045            cmp         r0,r8                                   
ram:0007ca76    02d0            beq         LAB_0007ca7e                            
ram:0007ca78    0120            movs        r0,#0x1                                 
                            LAB_0007ca7a:                 ;XREF[1,0]:   0007ca80
ram:0007ca7a    bde8f087        pop.w       {r4,r5,r6,r7,r8,r9,r10,pc}              
                            LAB_0007ca7e:                 ;XREF[1,0]:   0007ca76
ram:0007ca7e    0020            movs        r0,#0x0                                 
ram:0007ca80    fbe7            b           LAB_0007ca7a                            
ram:0007ca82    0000            movs        r0,r0                                   
                            DAT_0007ca84:                 ;XREF[1,0]:   0007c9d4
ram:0007ca84    a02c0020        undefined4  20002CA0h                               
                            DAT_0007ca88:                 ;XREF[1,0]:   0007ca3a
ram:0007ca88    00100140        undefined4  40011000h                               
                            ;************************************************************************************************
                            ;*                                           FUNCTION                                           *
                            ;************************************************************************************************
                            ;bool FUN_0007ca8c(uint * param_1)
          ;param_1       uint *              r0                      
                                                          ;XREF[2,0]:   0007d640,0007d648
ram:0007ca8c    2de9f047        push        {r4,r5,r6,r7,r8,r9,r10,lr}              
ram:0007ca90    0546            mov         r5,param_1                              
ram:0007ca92    2f48            ldr         param_1,[DAT_0007cb50]                  ;= 20002CA0h
ram:0007ca94    0026            movs        r6,#0x0                                 
ram:0007ca96    8046            mov         r8,param_1                              
ram:0007ca98    0778            ldrb        r7,[param_1,#0x0]=>DAT_20002ca0         
ram:0007ca9a    d0f80c90        ldr.w       r9,[param_1,#0xc]=>DAT_20002cac         
ram:0007ca9e    4be0            b           LAB_0007cb38                            
                            LAB_0007caa0:                 ;XREF[1,0]:   0007cb3c
ram:0007caa0    d8f80800        ldr.w       param_1,[r8,#0x8]=>DAT_20002ca8         
ram:0007caa4    00ebc704        add.w       r4,param_1,r7, lsl #0x3                 
ram:0007caa8    40e0            b           LAB_0007cb2c                            
                            LAB_0007caaa:                 ;XREF[1,0]:   0007cb2e
ram:0007caaa    02d0            beq         LAB_0007cab2                            
ram:0007caac    2846            mov         param_1,r5                              
ram:0007caae    ed69            ldr         r5,[r5,#0x1c]                           
ram:0007cab0    1ee0            b           LAB_0007caf0                            
                            LAB_0007cab2:                 ;XREF[2,0]:   0007caaa,0007cb36
ram:0007cab2    2078            ldrb        param_1,[r4,#0x0]                       
ram:0007cab4    6168            ldr         r1,[r4,#0x4]                            
ram:0007cab6    00eb4002        add.w       r2,param_1,param_1, lsl #0x1            
ram:0007caba    401c            adds        param_1,param_1,#0x1                    
ram:0007cabc    c0b2            uxtb        param_1,param_1                         
ram:0007cabe    01ebc201        add.w       r1,r1,r2, lsl #0x3                      
ram:0007cac2    2070            strb        param_1,[r4,#0x0]                       
ram:0007cac4    a278            ldrb        r2,[r4,#0x2]                            
ram:0007cac6    9042            cmp         param_1,r2                              
ram:0007cac8    00d1            bne         LAB_0007cacc                            
ram:0007caca    2670            strb        r6,[r4,#0x0]                            
                            LAB_0007cacc:                 ;XREF[1,0]:   0007cac8
ram:0007cacc    0a78            ldrb        r2,[r1,#0x0]                            
ram:0007cace    4868            ldr         param_1,[r1,#0x4]                       
ram:0007cad0    012a            cmp         r2,#0x1                                 
ram:0007cad2    2dd1            bne         LAB_0007cb30                            
ram:0007cad4    027c            ldrb        r2,[param_1,#0x10]                      
ram:0007cad6    5abb            cbnz        r2,LAB_0007cb30                         
ram:0007cad8    8a68            ldr         r2,[r1,#0x8]                            
ram:0007cada    4260            str         r2,[param_1,#0x4]                       
ram:0007cadc    ca68            ldr         r2,[r1,#0xc]                            
ram:0007cade    8260            str         r2,[param_1,#0x8]                       
ram:0007cae0    0a69            ldr         r2,[r1,#0x10]                           
ram:0007cae2    c260            str         r2,[param_1,#0xc]                       
ram:0007cae4    4969            ldr         r1,[r1,#0x14]                           
ram:0007cae6    8161            str         r1,[param_1,#0x18]                      
ram:0007cae8    98f80410        ldrb.w      r1,[r8,#0x4]=>DAT_20002ca4              
ram:0007caec    01b1            cbz         r1,LAB_0007caf0                         
ram:0007caee    4660            str         r6,[param_1,#0x4]                       
                            LAB_0007caf0:                 ;XREF[2,0]:   0007cab0,0007caec
ram:0007caf0    4268            ldr         r2,[param_1,#0x4]                       
ram:0007caf2    d8f81030        ldr.w       r3,[r8,#0x10]=>DAT_20002cb0             
ram:0007caf6    dff85cc0        ldr.w       r12,[DAT_0007cb54]                      ;= 007FFFFFh
ram:0007cafa    d11a            subs        r1,r2,r3                                
ram:0007cafc    21f07f41        bic         r1,r1,#0xff000000                       
ram:0007cb00    6145            cmp         r1,r12                                  
ram:0007cb02    02d2            bcs         LAB_0007cb0a                            
ram:0007cb04    8268            ldr         r2,[param_1,#0x8]                       
ram:0007cb06    1144            add         r1,r2                                   
ram:0007cb08    06e0            b           LAB_0007cb18                            
                            LAB_0007cb0a:                 ;XREF[1,0]:   0007cb02
ram:0007cb0a    991a            subs        r1,r3,r2                                
ram:0007cb0c    8268            ldr         r2,[param_1,#0x8]                       
ram:0007cb0e    21f07f41        bic         r1,r1,#0xff000000                       
ram:0007cb12    8a42            cmp         r2,r1                                   
ram:0007cb14    02d9            bls         LAB_0007cb1c                            
ram:0007cb16    511a            subs        r1,r2,r1                                
                            LAB_0007cb18:                 ;XREF[1,0]:   0007cb08
ram:0007cb18    0160            str         r1,[param_1,#0x0]                       
ram:0007cb1a    00e0            b           LAB_0007cb1e                            
                            LAB_0007cb1c:                 ;XREF[1,0]:   0007cb14
ram:0007cb1c    0660            str         r6,[param_1,#0x0]                       
                            LAB_0007cb1e:                 ;XREF[1,0]:   0007cb1a
ram:0007cb1e    4660            str         r6,[param_1,#0x4]                       
ram:0007cb20    0121            movs        r1,#0x1                                 
ram:0007cb22    8660            str         r6,[param_1,#0x8]                       
ram:0007cb24    0174            strb        r1,[param_1,#0x10]                      
ram:0007cb26    c661            str         r6,[param_1,#0x1c]                      
ram:0007cb28    00f09cfd        bl          FUN_0007d664                            ;undefined FUN_0007d664(uint * param_1)
                            LAB_0007cb2c:                 ;XREF[1,0]:   0007caa8
ram:0007cb2c    002d            cmp         r5,#0x0                                 
ram:0007cb2e    bcd1            bne         LAB_0007caaa                            
                            LAB_0007cb30:                 ;XREF[2,0]:   0007cad2,0007cad6
ram:0007cb30    2078            ldrb        param_1,[r4,#0x0]                       
ram:0007cb32    6178            ldrb        r1,[r4,#0x1]                            
ram:0007cb34    8842            cmp         param_1,r1                              
ram:0007cb36    bcd1            bne         LAB_0007cab2                            
                            LAB_0007cb38:                 ;XREF[1,0]:   0007ca9e
ram:0007cb38    7f1e            subs        r7,r7,#0x1                              
ram:0007cb3a    ffb2            uxtb        r7,r7                                   
ram:0007cb3c    b0d2            bcs         LAB_0007caa0                            
ram:0007cb3e    d8f80c10        ldr.w       r1,[r8,#0xc]=>DAT_20002cac              
ram:0007cb42    4945            cmp         r1,r9                                   
ram:0007cb44    02d0            beq         LAB_0007cb4c                            
ram:0007cb46    0120            movs        param_1,#0x1                            
                            LAB_0007cb48:                 ;XREF[1,0]:   0007cb4e
ram:0007cb48    bde8f087        pop.w       {r4,r5,r6,r7,r8,r9,r10,pc}              
                            LAB_0007cb4c:                 ;XREF[1,0]:   0007cb44
ram:0007cb4c    0020            movs        param_1,#0x0                            
ram:0007cb4e    fbe7            b           LAB_0007cb48                            
                            DAT_0007cb50:                 ;XREF[1,0]:   0007ca92
ram:0007cb50    a02c0020        undefined4  20002CA0h                               
                            DAT_0007cb54:                 ;XREF[1,0]:   0007caf6
ram:0007cb54    ffff7f00        undefined4  007FFFFFh                               
                            ;************************************************************************************************
                            ;*                                           FUNCTION                                           *
                            ;************************************************************************************************
                            ;undefined FUN_0007cb58(void)
          ;local_8       undefined4          -8                      ;XREF[2,0]:   0007cbe8,0007cbec
                                                          ;XREF[1,0]:   0007a40a
ram:0007cb58    3c48            ldr         r0,[DAT_0007cc4c]                       ;= 4000051Ch
ram:0007cb5a    08b5            push        {r3,lr}                                 
ram:0007cb5c    0068            ldr         r0,[r0,#0x0]=>DAT_4000051c              
ram:0007cb5e    b128            cmp         r0,#0xb1                                
ram:0007cb60    38d0            beq         LAB_0007cbd4                            
ram:0007cb62    0024            movs        r4,#0x0                                 
                            LAB_0007cb64:                 ;XREF[1,0]:   0007cbd6
ram:0007cb64    3a49            ldr         r1,[DAT_0007cc50]                       ;= 50000018h
ram:0007cb66    0320            movs        r0,#0x3                                 
ram:0007cb68    c1f80007        str.w       r0,[r1,#0x700]=>DAT_50000718            
ram:0007cb6c    3949            ldr         r1=>DAT_5000050c,[DAT_0007cc54]         ;= 5000050Ch
ram:0007cb6e    4020            movs        r0,#0x40                                
ram:0007cb70    0860            str         r0,[r1,#0x0]=>DAT_5000050c              
ram:0007cb72    4ff01020        mov.w       r0,#0x10001000                          
ram:0007cb76    4069            ldr         r0,[r0,#offset DAT_10001014 &0xff]      
ram:0007cb78    b0f5f42f        cmp.w       r0,#MasterStackPointer                  ;= 20005438
ram:0007cb7c    02d0            beq         LAB_0007cb84                            
ram:0007cb7e    0020            movs        r0,#0x0                                 
ram:0007cb80    fef740f9        bl          FUN_0007ae04                            ;undefined FUN_0007ae04(void)
                            LAB_0007cb84:                 ;XREF[1,0]:   0007cb7c
ram:0007cb84    4ff08050        mov.w       r0,#0x10000000                          
ram:0007cb88    0069            ldr         r0,[r0,#offset DAT_10000010 &0xff]      
ram:0007cb8a    b0f5805f        cmp.w       r0,#0x1000                              
ram:0007cb8e    02d0            beq         LAB_0007cb96                            
ram:0007cb90    0020            movs        r0,#0x0                                 
ram:0007cb92    fef737f9        bl          FUN_0007ae04                            ;undefined FUN_0007ae04(void)
                            LAB_0007cb96:                 ;XREF[1,0]:   0007cb8e
ram:0007cb96    304b            ldr         r3=>LAB_0007afac...,[PTR_LAB_0007afac...;= 0007afad
ram:0007cb98    304a            ldr         r2,[DAT_0007cc5c]                       ;= 20002CD8h
ram:0007cb9a    0521            movs        r1,#0x5                                 
ram:0007cb9c    0020            movs        r0,#0x0                                 
ram:0007cb9e    fef711fa        bl          FUN_0007afc4                            ;undefined4 FUN_0007afc4(undefined4 p...
ram:0007cba2    08b1            cbz         r0,LAB_0007cba8                         
ram:0007cba4    fef72ef9        bl          FUN_0007ae04                            ;undefined FUN_0007ae04(void)
                            LAB_0007cba8:                 ;XREF[1,0]:   0007cba2
ram:0007cba8    fef76cfe        bl          FUN_0007b884                            ;undefined FUN_0007b884(void)
ram:0007cbac    fef79afd        bl          FUN_0007b6e4                            ;undefined4 FUN_0007b6e4(void)
ram:0007cbb0    90b1            cbz         r0,LAB_0007cbd8                         
ram:0007cbb2    fef7a6fd        bl          FUN_0007b702                            ;undefined * FUN_0007b702(undefined4 ...
ram:0007cbb6    08b1            cbz         r0,LAB_0007cbbc                         
ram:0007cbb8    fef724f9        bl          FUN_0007ae04                            ;undefined FUN_0007ae04(void)
                            LAB_0007cbbc:                 ;XREF[1,0]:   0007cbb6
ram:0007cbbc    84f00100        eor         r0,r4,#0x1                              
ram:0007cbc0    fef706fd        bl          FUN_0007b5d0                            ;undefined FUN_0007b5d0(int param_1)
ram:0007cbc4    00f098fb        bl          FUN_0007d2f8                            ;undefined FUN_0007d2f8(void)
ram:0007cbc8    fef7b8fd        bl          FUN_0007b73c                            ;undefined4 FUN_0007b73c(void)
ram:0007cbcc    50b1            cbz         r0,LAB_0007cbe4                         
ram:0007cbce    fef719f9        bl          FUN_0007ae04                            ;undefined FUN_0007ae04(void)
ram:0007cbd2    07e0            b           LAB_0007cbe4                            
                            LAB_0007cbd4:                 ;XREF[1,0]:   0007cb60
ram:0007cbd4    0124            movs        r4,#0x1                                 
ram:0007cbd6    c5e7            b           LAB_0007cb64                            
                            LAB_0007cbd8:                 ;XREF[1,0]:   0007cbb0
ram:0007cbd8    84f00100        eor         r0,r4,#0x1                              
ram:0007cbdc    fef7f8fc        bl          FUN_0007b5d0                            ;undefined FUN_0007b5d0(int param_1)
ram:0007cbe0    00f08afb        bl          FUN_0007d2f8                            ;undefined FUN_0007d2f8(void)
                            LAB_0007cbe4:                 ;XREF[2,0]:   0007cbcc,0007cbd2
ram:0007cbe4    0020            movs        r0,#0x0                                 
ram:0007cbe6    6946            mov         r1,sp                                   
ram:0007cbe8    0090            str         r0,[sp,#0x0]=>local_8                   
ram:0007cbea    3cdf            svc         0x3c                                    
ram:0007cbec    0098            ldr         r0,[sp,#0x0]=>local_8                   
ram:0007cbee    4ff44054        mov.w       r4,#0x3000                              
ram:0007cbf2    0128            cmp         r0,#0x1                                 
ram:0007cbf4    03d0            beq         LAB_0007cbfe                            
ram:0007cbf6    a068            ldr         r0,[r4,#offset DAT_00003008 &0xff]      
ram:0007cbf8    fef72cfd        bl          FUN_0007b654                            ;int FUN_0007b654(int * param_1, unde...
ram:0007cbfc    78b9            cbnz        r0,LAB_0007cc1e                         
                            LAB_0007cbfe:                 ;XREF[1,0]:   0007cbf4
ram:0007cbfe    ff21            movs        r1,#0xff                                
ram:0007cc00    0020            movs        r0,#0x0                                 
ram:0007cc02    3bdf            svc         0x3b                                    
ram:0007cc04    08b1            cbz         r0,LAB_0007cc0a                         
ram:0007cc06    fef7fdf8        bl          FUN_0007ae04                            ;undefined FUN_0007ae04(void)
                            LAB_0007cc0a:                 ;XREF[1,0]:   0007cc04
ram:0007cc0a    1548            ldr         r0,[DAT_0007cc60]                       ;= 20002C00h
ram:0007cc0c    fff78afd        bl          FUN_0007c724                            ;undefined FUN_0007c724(int param_1)
ram:0007cc10    fdf77efd        bl          FUN_0007a710                            ;undefined FUN_0007a710(void)
ram:0007cc14    fef7a8fd        bl          FUN_0007b768                            ;int FUN_0007b768(undefined4 param_1,...
ram:0007cc18    08b1            cbz         r0,LAB_0007cc1e                         
ram:0007cc1a    fef7f3f8        bl          FUN_0007ae04                            ;undefined FUN_0007ae04(void)
                            LAB_0007cc1e:                 ;XREF[2,0]:   0007cbfc,0007cc18
ram:0007cc1e    a068            ldr         r0,[r4,#offset DAT_00003008 &0xff]      
ram:0007cc20    fef718fd        bl          FUN_0007b654                            ;int FUN_0007b654(int * param_1, unde...
ram:0007cc24    28b1            cbz         r0,LAB_0007cc32                         
ram:0007cc26    fef75dfd        bl          FUN_0007b6e4                            ;undefined4 FUN_0007b6e4(void)
ram:0007cc2a    10b9            cbnz        r0,LAB_0007cc32                         
ram:0007cc2c    a068            ldr         r0,[r4,#offset DAT_00003008 &0xff]      
ram:0007cc2e    fef72ffd        bl          FUN_0007b690                            ;undefined FUN_0007b690(int param_1)
                            LAB_0007cc32:                 ;XREF[2,0]:   0007cc24,0007cc2a
ram:0007cc32    bff34f8f        dsb         0xf                                     
ram:0007cc36    0b48            ldr         r0,[DAT_0007cc64]                       ;= E000ED0Ch
ram:0007cc38    0168            ldr         r1,[r0,#0x0]=>DAT_e000ed0c              
ram:0007cc3a    0b4a            ldr         r2,[DAT_0007cc68]                       ;= 05FA0004h
ram:0007cc3c    01f4e061        and         r1,r1,#0x700                            
ram:0007cc40    1143            orrs        r1,r2                                   
ram:0007cc42    0160            str         r1,[r0,#0x0]=>DAT_e000ed0c              
ram:0007cc44    bff34f8f        dsb         0xf                                     
                            LAB_0007cc48:                 ;XREF[1,0]:   0007cc4a
ram:0007cc48    00bf            nop                                                  
ram:0007cc4a    fde7            b           LAB_0007cc48                            
                            DAT_0007cc4c:                 ;XREF[1,0]:   0007cb58
ram:0007cc4c    1c050040        undefined4  4000051Ch                               
                            DAT_0007cc50:                 ;XREF[1,0]:   0007cb64
ram:0007cc50    18000050        undefined4  50000018h                               
                            DAT_0007cc54:                 ;XREF[1,0]:   0007cb6c
ram:0007cc54    0c050050        undefined4  5000050Ch                               
                            PTR_LAB_0007afac+1+1_0007cc58:;XREF[1,0]:   0007cb96
ram:0007cc58    adaf0700        addr        LAB_0007afac+1+1                        
                            DAT_0007cc5c:                 ;XREF[1,0]:   0007cb98
ram:0007cc5c    d82c0020        undefined4  20002CD8h                               
                            DAT_0007cc60:                 ;XREF[1,0]:   0007cc0a
ram:0007cc60    002c0020        undefined4  20002C00h                               
                            DAT_0007cc64:                 ;XREF[1,0]:   0007cc36
ram:0007cc64    0ced00e0        undefined4  E000ED0Ch                               
                            DAT_0007cc68:                 ;XREF[1,0]:   0007cc3a
ram:0007cc68    0400fa05        undefined4  05FA0004h                               
                            ;************************************************************************************************
                            ;*                                           FUNCTION                                           *
                            ;************************************************************************************************
                            ;undefined4 FUN_0007cc6c(ushort * param_1, int param_2, ushort * param_3, uint param_4)
          ;param_1       ushort *            r0                      
          ;param_2       int                 r1                      
          ;param_3       ushort *            r2                      
          ;param_4       uint                r3                      
                                                          ;XREF[1,0]:   0007abf0
ram:0007cc6c    70b5            push        {r4,r5,r6,lr}                           
ram:0007cc6e    1446            mov         r4,param_3                              
ram:0007cc70    8288            ldrh        param_3,[param_1,#0x4]                  
ram:0007cc72    0e46            mov         r6,param_2                              
ram:0007cc74    0546            mov         r5,param_1                              
ram:0007cc76    2088            ldrh        param_1,[r4,#0x0]                       
ram:0007cc78    111d            adds        param_2,param_3,#0x4                    
ram:0007cc7a    0144            add         param_2,param_1                         
ram:0007cc7c    921c            adds        param_3,param_3,#0x2                    
ram:0007cc7e    9942            cmp         param_2,param_4                         
ram:0007cc80    01d8            bhi         LAB_0007cc86                            
ram:0007cc82    fe2a            cmp         param_3,#0xfe                           
ram:0007cc84    01d9            bls         LAB_0007cc8a                            
                            LAB_0007cc86:                 ;XREF[1,0]:   0007cc80
ram:0007cc86    0c20            movs        param_1,#0xc                            
ram:0007cc88    70bd            pop         {r4,r5,r6,pc}                           
                            LAB_0007cc8a:                 ;XREF[1,0]:   0007cc84
ram:0007cc8a    521c            adds        param_3,param_3,#0x1                    
ram:0007cc8c    3254            strb        param_3,[r6,param_1]                    
ram:0007cc8e    2088            ldrh        param_1,[r4,#0x0]                       
ram:0007cc90    ff21            movs        param_2,#0xff                           
ram:0007cc92    401c            adds        param_1,param_1,#0x1                    
ram:0007cc94    80b2            uxth        param_1,param_1                         
ram:0007cc96    2080            strh        param_1,[r4,#0x0]                       
ram:0007cc98    3154            strb        param_2,[r6,param_1]                    
ram:0007cc9a    2088            ldrh        param_1,[r4,#0x0]                       
ram:0007cc9c    401c            adds        param_1,param_1,#0x1                    
ram:0007cc9e    80b2            uxth        param_1,param_1                         
ram:0007cca0    2080            strh        param_1,[r4,#0x0]                       
ram:0007cca2    8119            adds        param_2,param_1,r6                      
ram:0007cca4    2888            ldrh        param_1,[r5,#0x0]                       
ram:0007cca6    00f03dfd        bl          FUN_0007d724                            ;undefined4 FUN_0007d724(undefined4 p...
ram:0007ccaa    2188            ldrh        param_2,[r4,#0x0]                       
ram:0007ccac    0844            add         param_1,param_2                         
ram:0007ccae    80b2            uxth        param_1,param_1                         
ram:0007ccb0    2080            strh        param_1,[r4,#0x0]                       
ram:0007ccb2    aa88            ldrh        param_3,[r5,#0x4]                       
ram:0007ccb4    42b1            cbz         param_3,LAB_0007ccc8                    
ram:0007ccb6    a968            ldr         param_2,[r5,#0x8]                       
ram:0007ccb8    41b1            cbz         param_2,LAB_0007cccc                    
ram:0007ccba    3044            add         param_1,r6                              
ram:0007ccbc    fdf75efc        bl          FUN_0007a57c                            ;undefined FUN_0007a57c(undefined4 * ...
ram:0007ccc0    2088            ldrh        param_1,[r4,#0x0]                       
ram:0007ccc2    a988            ldrh        param_2,[r5,#0x4]                       
ram:0007ccc4    0844            add         param_1,param_2                         
ram:0007ccc6    2080            strh        param_1,[r4,#0x0]                       
                            LAB_0007ccc8:                 ;XREF[1,0]:   0007ccb4
ram:0007ccc8    0020            movs        param_1,#0x0                            
ram:0007ccca    70bd            pop         {r4,r5,r6,pc}                           
                            LAB_0007cccc:                 ;XREF[1,0]:   0007ccb8
ram:0007cccc    0720            movs        param_1,#0x7                            
ram:0007ccce    70bd            pop         {r4,r5,r6,pc}                           
                            ;************************************************************************************************
                            ;*                                           FUNCTION                                           *
                            ;************************************************************************************************
                            ;longlong FUN_0007ccd0(byte * param_1, int param_2, ushort * param_3, ushort * param_4)
          ;param_1       byte *              r0                      
          ;param_2       int                 r1                      
          ;param_3       ushort *            r2                      
          ;param_4       ushort *            r3                      
          ;local_18      undefined2         -18                      ;XREF[6,0]:   0007cd04,0007cd1c,0007cd34,0007cd3a,0007cd3e
                                                                     ;             0007cd60
                                                          ;XREF[1,0]:   0007ac04
ram:0007ccd0    f8b5            push        {param_4,r4,r5,r6,r7,lr}                
ram:0007ccd2    0e46            mov         r6,param_2                              
ram:0007ccd4    0178            ldrb        param_2,[param_1,#0x0]                  
ram:0007ccd6    1446            mov         r4,param_3                              
ram:0007ccd8    0546            mov         r5,param_1                              
ram:0007ccda    0129            cmp         param_2,#0x1                            
ram:0007ccdc    01d1            bne         LAB_0007cce2                            
ram:0007ccde    6878            ldrb        param_1,[r5,#0x1]                       
ram:0007cce0    30b1            cbz         param_1,LAB_0007ccf0                    
                            LAB_0007cce2:                 ;XREF[1,0]:   0007ccdc
ram:0007cce2    2088            ldrh        param_1,[r4,#0x0]                       
ram:0007cce4    821c            adds        param_3,param_1,#0x2                    
ram:0007cce6    9a42            cmp         param_3,param_4                         
ram:0007cce8    2dd8            bhi         LAB_0007cd46                            
ram:0007ccea    0129            cmp         param_2,#0x1                            
ram:0007ccec    02d0            beq         LAB_0007ccf4                            
ram:0007ccee    06e0            b           LAB_0007ccfe                            
                            LAB_0007ccf0:                 ;XREF[1,0]:   0007cce0
ram:0007ccf0    0720            movs        param_1,#0x7                            
                            LAB_0007ccf2:                 ;XREF[1,0]:   0007cd14
ram:0007ccf2    f8bd            pop         {param_4,r4,r5,r6,r7,pc}                
                            LAB_0007ccf4:                 ;XREF[1,0]:   0007ccec
ram:0007ccf4    6978            ldrb        param_2,[r5,#0x1]                       
ram:0007ccf6    0144            add         param_2,param_1                         
ram:0007ccf8    891c            adds        param_2,param_2,#0x2                    
ram:0007ccfa    9942            cmp         param_2,param_4                         
ram:0007ccfc    23d8            bhi         LAB_0007cd46                            
                            LAB_0007ccfe:                 ;XREF[1,0]:   0007ccee
ram:0007ccfe    181a            subs        param_1,param_4,param_1                 
ram:0007cd00    801e            subs        param_1,param_1,#0x2                    
ram:0007cd02    87b2            uxth        r7,param_1                              
ram:0007cd04    adf80070        strh.w      r7,[sp,#0x0]=>local_18                  
ram:0007cd08    2188            ldrh        param_2,[r4,#0x0]                       
ram:0007cd0a    b01c            adds        param_1,r6,#0x2                         
ram:0007cd0c    0844            add         param_1,param_2                         
ram:0007cd0e    6946            mov         param_2,sp                              
ram:0007cd10    7ddf            svc         0x7d                                    
ram:0007cd12    0028            cmp         param_1,#0x0                            
ram:0007cd14    edd1            bne         LAB_0007ccf2                            
ram:0007cd16    2878            ldrb        param_1,[r5,#0x0]                       
ram:0007cd18    0228            cmp         param_1,#0x2                            
ram:0007cd1a    05d1            bne         LAB_0007cd28                            
ram:0007cd1c    bdf80010        ldrh.w      param_2=>local_18,[sp,#0x0]             
ram:0007cd20    b942            cmp         param_2,r7                              
ram:0007cd22    01d8            bhi         LAB_0007cd28                            
ram:0007cd24    0921            movs        param_2,#0x9                            
ram:0007cd26    0ae0            b           LAB_0007cd3e                            
                            LAB_0007cd28:                 ;XREF[2,0]:   0007cd1a,0007cd22
ram:0007cd28    0821            movs        param_2,#0x8                            
ram:0007cd2a    0128            cmp         param_1,#0x1                            
ram:0007cd2c    05d1            bne         LAB_0007cd3a                            
ram:0007cd2e    6878            ldrb        param_1,[r5,#0x1]                       
ram:0007cd30    b842            cmp         param_1,r7                              
ram:0007cd32    02d8            bhi         LAB_0007cd3a                            
ram:0007cd34    adf80000        strh.w      param_1,[sp,#0x0]=>local_18             
ram:0007cd38    01e0            b           LAB_0007cd3e                            
                            LAB_0007cd3a:                 ;XREF[2,0]:   0007cd2c,0007cd32
ram:0007cd3a    adf80070        strh.w      r7,[sp,#0x0]=>local_18                  
                            LAB_0007cd3e:                 ;XREF[2,0]:   0007cd26,0007cd38
ram:0007cd3e    bdf80000        ldrh.w      param_1,[sp,#0x0]=>local_18             
ram:0007cd42    fe28            cmp         param_1,#0xfe                           
ram:0007cd44    01d9            bls         LAB_0007cd4a                            
                            LAB_0007cd46:                 ;XREF[2,0]:   0007cce8,0007ccfc
ram:0007cd46    0c20            movs        param_1,#0xc                            
ram:0007cd48    f8bd            pop         {param_4,r4,r5,r6,r7,pc}                
                            LAB_0007cd4a:                 ;XREF[1,0]:   0007cd44
ram:0007cd4a    2288            ldrh        param_3,[r4,#0x0]                       
ram:0007cd4c    401c            adds        param_1,param_1,#0x1                    
ram:0007cd4e    b054            strb        param_1,[r6,param_3]                    
ram:0007cd50    2088            ldrh        param_1,[r4,#0x0]                       
ram:0007cd52    401c            adds        param_1,param_1,#0x1                    
ram:0007cd54    80b2            uxth        param_1,param_1                         
ram:0007cd56    2080            strh        param_1,[r4,#0x0]                       
ram:0007cd58    3154            strb        param_2,[r6,param_1]                    
ram:0007cd5a    2088            ldrh        param_1,[r4,#0x0]                       
ram:0007cd5c    401c            adds        param_1,param_1,#0x1                    
ram:0007cd5e    2080            strh        param_1,[r4,#0x0]                       
ram:0007cd60    bdf80010        ldrh.w      param_2,[sp,#0x0]=>local_18             
ram:0007cd64    0844            add         param_1,param_2                         
ram:0007cd66    2080            strh        param_1,[r4,#0x0]                       
ram:0007cd68    0020            movs        param_1,#0x0                            
ram:0007cd6a    f8bd            pop         {param_4,r4,r5,r6,r7,pc}                
                            ;************************************************************************************************
                            ;*                                           FUNCTION                                           *
                            ;************************************************************************************************
                            ;undefined FUN_0007cd6c(int param_1)
          ;param_1       int                 r0                      
          ;local_10      undefined4         -10                      ;XREF[2,0]:   0007cd76,0007cd7e
                                                          ;XREF[1,0]:   0007b714
ram:0007cd6c    31b5            push        {param_1,r4,r5,lr}                      
ram:0007cd6e    40f2e734        movw        r4,#0x3e7                               
ram:0007cd72    04e0            b           LAB_0007cd7e                            
                            LAB_0007cd74:                 ;XREF[1,0]:   0007cd82
ram:0007cd74    401e            subs        param_1,param_1,#0x1                    
ram:0007cd76    0090            str         param_1,[sp,#0x0]=>local_10             
ram:0007cd78    2046            mov         param_1,r4                              
ram:0007cd7a    fdf75bfb        bl          FUN_0007a434                            ;undefined FUN_0007a434(int param_1)
                            LAB_0007cd7e:                 ;XREF[1,0]:   0007cd72
ram:0007cd7e    0098            ldr         param_1,[sp,#0x0]=>local_10             
ram:0007cd80    0028            cmp         param_1,#0x0                            
ram:0007cd82    f7d1            bne         LAB_0007cd74                            
ram:0007cd84    38bd            pop         {r3,r4,r5,pc}                           
                            ;************************************************************************************************
                            ;*                                           FUNCTION                                           *
                            ;************************************************************************************************
                            ;undefined4 FUN_0007cd86(int param_1, int param_2)
          ;param_1       int                 r0                      
          ;param_2       int                 r1                      
                                                          ;XREF[6,0]:   0007bdbe,0007bf3e,0007c8be,0007d04e
                                                          ;             0007d098,0007d5b8
ram:0007cd86    0828            cmp         param_1,#0x8                            
ram:0007cd88    0bd0            beq         LAB_0007cda2                            
ram:0007cd8a    03dc            bgt         LAB_0007cd94                            
ram:0007cd8c    38b1            cbz         param_1,LAB_0007cd9e                    
ram:0007cd8e    0628            cmp         param_1,#0x6                            
ram:0007cd90    0fd1            bne         LAB_0007cdb2                            
ram:0007cd92    08e0            b           LAB_0007cda6                            
                            LAB_0007cd94:                 ;XREF[1,0]:   0007cd8a
ram:0007cd94    0b28            cmp         param_1,#0xb                            
ram:0007cd96    0ad0            beq         LAB_0007cdae                            
ram:0007cd98    0c28            cmp         param_1,#0xc                            
ram:0007cd9a    0ad1            bne         LAB_0007cdb2                            
ram:0007cd9c    05e0            b           LAB_0007cdaa                            
                            LAB_0007cd9e:                 ;XREF[1,0]:   0007cd8c
ram:0007cd9e    0120            movs        param_1,#0x1                            
ram:0007cda0    7047            bx          lr                                      
                            LAB_0007cda2:                 ;XREF[1,0]:   0007cd88
ram:0007cda2    0220            movs        param_1,#0x2                            
ram:0007cda4    7047            bx          lr                                      
                            LAB_0007cda6:                 ;XREF[1,0]:   0007cd92
ram:0007cda6    0320            movs        param_1,#0x3                            
ram:0007cda8    7047            bx          lr                                      
                            LAB_0007cdaa:                 ;XREF[1,0]:   0007cd9c
ram:0007cdaa    0420            movs        param_1,#0x4                            
ram:0007cdac    7047            bx          lr                                      
                            LAB_0007cdae:                 ;XREF[1,0]:   0007cd96
ram:0007cdae    0429            cmp         param_2,#0x4                            
ram:0007cdb0    01d0            beq         LAB_0007cdb6                            
                            LAB_0007cdb2:                 ;XREF[2,0]:   0007cd90,0007cd9a
ram:0007cdb2    0620            movs        param_1,#0x6                            
ram:0007cdb4    7047            bx          lr                                      
                            LAB_0007cdb6:                 ;XREF[1,0]:   0007cdb0
ram:0007cdb6    0520            movs        param_1,#0x5                            
ram:0007cdb8    7047            bx          lr                                      
ram:0007cdba    0000            movs        r0,r0                                   
                            LAB_0007cdbc:                 ;XREF[1,0]:   0007b5c6
ram:0007cdbc    70b5            push        {r4,r5,r6,lr}                           
ram:0007cdbe    5a4c            ldr         r4,[DAT_0007cf28]                       ;= 20002C64h
ram:0007cdc0    0288            ldrh        param_3,[param_1,#0x0]                  
ram:0007cdc2    0023            movs        param_4,#0x0                            
ram:0007cdc4    e688            ldrh        r6,[r4,#0x6]=>DAT_20002c6a              
ram:0007cdc6    a6b0            sub         sp,#0x98                                
ram:0007cdc8    1a2a            cmp         param_3,#0x1a                           
ram:0007cdca    7dd0            beq         LAB_0007cec8                            
ram:0007cdcc    29dc            bgt         LAB_0007ce22                            
ram:0007cdce    5749            ldr         param_2,[DAT_0007cf2c]                  ;= 200032B0h
ram:0007cdd0    132a            cmp         param_3,#0x13                           
ram:0007cdd2    01f11805        add.w       r5,param_2,#0x18                        
ram:0007cdd6    5ed0            beq         LAB_0007ce96                            
ram:0007cdd8    15dc            bgt         LAB_0007ce06                            
ram:0007cdda    022a            cmp         param_3,#0x2                            
ram:0007cddc    75d0            beq         LAB_0007ceca                            
ram:0007cdde    102a            cmp         param_3,#0x10                           
ram:0007cde0    4fd0            beq         LAB_0007ce82                            
ram:0007cde2    112a            cmp         param_3,#0x11                           
ram:0007cde4    4ad1            bne         LAB_0007ce7c                            
ram:0007cde6    8020            movs        param_1,#0x80                           
ram:0007cde8    adf89400        strh.w      param_1,[sp,#local_14+0xa8]             
ram:0007cdec    3220            movs        param_1,#0x32                           
ram:0007cdee    e060            str         param_1,[r4,#0xc]=>DAT_20002c70         
ram:0007cdf0    0123            movs        param_4,#0x1                            
ram:0007cdf2    25aa            add         param_3,sp,#0x94                        
ram:0007cdf4    05a9            add         param_2,sp,#0x14                        
ram:0007cdf6    3046            mov         param_1,r6                              
ram:0007cdf8    aadf            svc         0xaa                                    
ram:0007cdfa    08b1            cbz         param_1,LAB_0007ce00                    
ram:0007cdfc    fef702f8        bl          FUN_0007ae04                            ;undefined FUN_0007ae04(void)
                            LAB_0007ce00:                 ;XREF[1,0]:   0007cdfa
ram:0007ce00    2078            ldrb        param_1,[r4,#0x0]=>DAT_20002c64         
ram:0007ce02    e8b3            cbz         param_1,LAB_0007ce80                    
ram:0007ce04    43e0            b           LAB_0007ce8e                            
                            LAB_0007ce06:                 ;XREF[1,0]:   0007cdd8
ram:0007ce06    142a            cmp         param_3,#0x14                           
ram:0007ce08    38d1            bne         LAB_0007ce7c                            
ram:0007ce0a    028a            ldrh        param_3,[param_1,#0x10]                 
ram:0007ce0c    4b8d            ldrh        param_4,[param_2,#0x2a]=>DAT_200032da   
ram:0007ce0e    0024            movs        r4,#0x0                                 
ram:0007ce10    9a42            cmp         param_3,param_4                         
ram:0007ce12    00d1            bne         LAB_0007ce16                            
ram:0007ce14    2c46            mov         r4,r5                                   
                            LAB_0007ce16:                 ;XREF[1,0]:   0007ce12
ram:0007ce16    0023            movs        param_4,#0x0                            
ram:0007ce18    ca1d            adds        param_3,param_2,#0x7                    
ram:0007ce1a    8088            ldrh        param_1,[param_1,#0x4]                  
ram:0007ce1c    2146            mov         param_2,r4                              
ram:0007ce1e    86df            svc         0x86                                    
ram:0007ce20    28e0            b           LAB_0007ce74                            
                            LAB_0007ce22:                 ;XREF[1,0]:   0007cdcc
ram:0007ce22    522a            cmp         param_3,#0x52                           
ram:0007ce24    78d0            beq         LAB_0007cf18                            
ram:0007ce26    1bdc            bgt         LAB_0007ce60                            
ram:0007ce28    1b2a            cmp         param_3,#0x1b                           
ram:0007ce2a    57d0            beq         LAB_0007cedc                            
ram:0007ce2c    512a            cmp         param_3,#0x51                           
ram:0007ce2e    25d1            bne         LAB_0007ce7c                            
ram:0007ce30    8179            ldrb        param_2,[param_1,#0x6]                  
ram:0007ce32    0029            cmp         param_2,#0x0                            
ram:0007ce34    22d0            beq         LAB_0007ce7c                            
ram:0007ce36    807b            ldrb        param_1,[param_1,#0xe]                  
ram:0007ce38    0428            cmp         param_1,#0x4                            
ram:0007ce3a    03d0            beq         LAB_0007ce44                            
ram:0007ce3c    0628            cmp         param_1,#0x6                            
ram:0007ce3e    01d0            beq         LAB_0007ce44                            
ram:0007ce40    0528            cmp         param_1,#0x5                            
ram:0007ce42    1bd1            bne         LAB_0007ce7c                            
                            LAB_0007ce44:                 ;XREF[2,0]:   0007ce3a,0007ce3e
ram:0007ce44    0229            cmp         param_2,#0x2                            
ram:0007ce46    65d0            beq         LAB_0007cf14                            
ram:0007ce48    5ff00100        movs.w      param_1,#0x1                            
                            LAB_0007ce4c:                 ;XREF[1,0]:   0007cf16
ram:0007ce4c    8df80400        strb.w      param_1,[sp,#local_a4+0xa8]             
ram:0007ce50    4ff4c170        mov.w       param_1,#0x182                          
ram:0007ce54    adf80800        strh.w      param_1,[sp,#local_a0+0xa8]             
ram:0007ce58    01a9            add         param_2,sp,#0x4                         
ram:0007ce5a    3046            mov         param_1,r6                              
ram:0007ce5c    a8df            svc         0xa8                                    
ram:0007ce5e    09e0            b           LAB_0007ce74                            
                            LAB_0007ce60:                 ;XREF[1,0]:   0007ce26
ram:0007ce60    552a            cmp         param_3,#0x55                           
ram:0007ce62    5cd0            beq         LAB_0007cf1e                            
ram:0007ce64    562a            cmp         param_3,#0x56                           
ram:0007ce66    09d1            bne         LAB_0007ce7c                            
ram:0007ce68    8079            ldrb        param_1,[param_1,#0x6]                  
ram:0007ce6a    0028            cmp         param_1,#0x0                            
ram:0007ce6c    06d1            bne         LAB_0007ce7c                            
ram:0007ce6e    1321            movs        param_2,#0x13                           
ram:0007ce70    3046            mov         param_1,r6                              
ram:0007ce72    76df            svc         0x76                                    
                            LAB_0007ce74:                 ;XREF[6,0]:   0007ce20,0007ce5e,0007ceda,0007cf12
                                                          ;             0007cf1c,0007cf24
ram:0007ce74    0028            cmp         param_1,#0x0                            
ram:0007ce76    01d0            beq         LAB_0007ce7c                            
ram:0007ce78    fdf7c4ff        bl          FUN_0007ae04                            ;undefined FUN_0007ae04(void)
                            LAB_0007ce7c:                 ;XREF[13,0]:  0007cde4,0007ce08,0007ce2e,0007ce34
                                                          ;             0007ce42,0007ce66,0007ce6c,0007ce76
                                                          ;             0007ce88,0007ce94,0007cee0,0007cef0
                                                          ;             0007cf0a
ram:0007ce7c    26b0            add         sp,#0x98                                
ram:0007ce7e    70bd            pop         {r4,r5,r6,pc}                           
                            LAB_0007ce80:                 ;XREF[1,0]:   0007ce02
ram:0007ce80    03e0            b           LAB_0007ce8a                            
                            LAB_0007ce82:                 ;XREF[1,0]:   0007cde0
ram:0007ce82    8088            ldrh        param_1,[param_1,#0x4]                  
ram:0007ce84    e080            strh        param_1,[r4,#0x6]=>DAT_20002c6a         
ram:0007ce86    a370            strb        param_4,[r4,#0x2]=>DAT_20002c66         
ram:0007ce88    f8e7            b           LAB_0007ce7c                            
                            LAB_0007ce8a:                 ;XREF[1,0]:   0007ce80
ram:0007ce8a    fdf7fffe        bl          FUN_0007ac8c                            ;undefined8 FUN_0007ac8c(undefined4 p...
                            LAB_0007ce8e:                 ;XREF[1,0]:   0007ce04
ram:0007ce8e    4ff6ff70        movw        param_1,#0xffff                         
ram:0007ce92    e080            strh        param_1,[r4,#0x6]=>DAT_20002c6a         
ram:0007ce94    f2e7            b           LAB_0007ce7c                            
                            LAB_0007ce96:                 ;XREF[1,0]:   0007cdd6
ram:0007ce96    2548            ldr         param_1,[DAT_0007cf2c]                  ;= 200032B0h
ram:0007ce98    c91d            adds        param_2,param_2,#0x7                    
ram:0007ce9a    4038            subs        param_1,#0x40                           
ram:0007ce9c    50f8402f        ldr.w       param_3,[param_1,#0x40]!=>DAT_200032b0  
ram:0007cea0    0992            str         param_3,[sp,#local_84+0xa8]             
ram:0007cea2    8288            ldrh        param_3,[param_1,#0x4]=>DAT_200032b4    
ram:0007cea4    adf82820        strh.w      param_3,[sp,#local_80+0xa8]             
ram:0007cea8    8079            ldrb        param_1,[param_1,#0x6]=>DAT_200032b6    
ram:0007ceaa    8df82a00        strb.w      param_1,[sp,#local_7e+0xa8]             
ram:0007ceae    1022            movs        param_3,#0x10                           
ram:0007ceb0    05a8            add         param_1,sp,#0x14                        
ram:0007ceb2    fdf763fb        bl          FUN_0007a57c                            ;undefined FUN_0007a57c(undefined4 * ...
ram:0007ceb6    1c22            movs        param_3,#0x1c                           
ram:0007ceb8    2946            mov         param_2,r5                              
ram:0007ceba    14a8            add         param_1,sp,#0x50                        
ram:0007cebc    fdf75efb        bl          FUN_0007a57c                            ;undefined FUN_0007a57c(undefined4 * ...
ram:0007cec0    05a8            add         param_1,sp,#0x14                        
ram:0007cec2    1090            str         param_1,[sp,#local_68+0xa8]             
ram:0007cec4    14a8            add         param_1,sp,#0x50                        
ram:0007cec6    01e0            b           LAB_0007cecc                            
                            LAB_0007cec8:                 ;XREF[1,0]:   0007cdca
ram:0007cec8    26e0            b           LAB_0007cf18                            
                            LAB_0007ceca:                 ;XREF[1,0]:   0007cddc
ram:0007ceca    1fe0            b           LAB_0007cf0c                            
                            LAB_0007cecc:                 ;XREF[1,0]:   0007cec6
ram:0007cecc    164a            ldr         param_3,[DAT_0007cf28]                  ;= 20002C64h
ram:0007cece    0f90            str         param_1,[sp,#local_6c+0xa8]             
ram:0007ced0    1c32            adds        param_3,#0x1c                           
ram:0007ced2    0bab            add         param_4,sp,#0x2c                        
ram:0007ced4    8521            movs        param_2,#0x85                           
ram:0007ced6    3046            mov         param_1,r6                              
ram:0007ced8    7fdf            svc         0x7f                                    
ram:0007ceda    cbe7            b           LAB_0007ce74                            
                            LAB_0007cedc:                 ;XREF[1,0]:   0007ce2a
ram:0007cedc    007a            ldrb        param_1,[param_1,#0x8]                  
ram:0007cede    0028            cmp         param_1,#0x0                            
ram:0007cee0    ccd1            bne         LAB_0007ce7c                            
ram:0007cee2    a370            strb        param_4,[r4,#0x2]=>DAT_20002c66         
ram:0007cee4    e068            ldr         param_1,[r4,#0xc]=>DAT_20002c70         
ram:0007cee6    401e            subs        param_1,param_1,#0x1                    
ram:0007cee8    e060            str         param_1,[r4,#0xc]=>DAT_20002c70         
ram:0007ceea    02d0            beq         LAB_0007cef2                            
ram:0007ceec    fdf7cefe        bl          FUN_0007ac8c                            ;undefined8 FUN_0007ac8c(undefined4 p...
ram:0007cef0    c4e7            b           LAB_0007ce7c                            
                            LAB_0007cef2:                 ;XREF[1,0]:   0007ceea
ram:0007cef2    1422            movs        param_3,#0x14                           
ram:0007cef4    0e49            ldr         param_2=>DAT_0007d970,[PTR_DAT_0007cf30];= 05h
                                                                                    ;= 0007d970
ram:0007cef6    05a8            add         param_1,sp,#0x14                        
ram:0007cef8    fdf740fb        bl          FUN_0007a57c                            ;undefined FUN_0007a57c(undefined4 * ...
ram:0007cefc    0998            ldr         param_1,[sp,#local_84+0xa8]             
ram:0007cefe    05ac            add         r4,sp,#0x14                             
ram:0007cf00    0090            str         param_1,[sp,#0x0]=>local_a8             
ram:0007cf02    94e80f00        ldm.w       r4=>local_94,{param_1,param_2,param_3...
ram:0007cf06    fef74bfc        bl          FUN_0007b7a0                            ;undefined FUN_0007b7a0(uint param_1,...
ram:0007cf0a    b7e7            b           LAB_0007ce7c                            
                            LAB_0007cf0c:                 ;XREF[1,0]:   0007ceca
ram:0007cf0c    0021            movs        param_2,#0x0                            
ram:0007cf0e    3046            mov         param_1,r6                              
ram:0007cf10    67df            svc         0x67                                    
ram:0007cf12    afe7            b           LAB_0007ce74                            
                            LAB_0007cf14:                 ;XREF[1,0]:   0007ce46
ram:0007cf14    0220            movs        param_1,#0x2                            
ram:0007cf16    99e7            b           LAB_0007ce4c                            
                            LAB_0007cf18:                 ;XREF[2,0]:   0007ce24,0007cec8
ram:0007cf18    00f048fa        bl          FUN_0007d3ac                            ;ulonglong FUN_0007d3ac(undefined4 pa...
ram:0007cf1c    aae7            b           LAB_0007ce74                            
                            LAB_0007cf1e:                 ;XREF[1,0]:   0007ce62
ram:0007cf1e    8088            ldrh        param_1,[param_1,#0x4]                  
ram:0007cf20    1721            movs        param_2,#0x17                           
ram:0007cf22    addf            svc         0xad                                    
ram:0007cf24    a6e7            b           LAB_0007ce74                            
ram:0007cf26    0000            movs        r0,r0                                   
                            DAT_0007cf28:                 ;XREF[2,0]:   0007cdbe,0007cecc
ram:0007cf28    642c0020        undefined4  20002C64h                               
                            DAT_0007cf2c:                 ;XREF[2,0]:   0007cdce,0007ce96
ram:0007cf2c    b0320020        undefined4  200032B0h                               
                            PTR_DAT_0007cf30:             ;XREF[1,0]:   0007cef4
ram:0007cf30    70d90700        addr        DAT_0007d970                            ;= 05h
                            ;************************************************************************************************
                            ;*                                           FUNCTION                                           *
                            ;************************************************************************************************
                            ;uint FUN_0007cf34(ushort * param_1, int param_2)
          ;param_1       ushort *            r0                      
          ;param_2       int                 r1                      
          ;local_1c      undefined4         -1c                      ;XREF[1,0]:   0007cf68
          ;local_20      undefined4         -20                      ;XREF[2,1]:   0007cf5a,0007cf5e,0007cf64
          ;local_24      undefined1         -24                      ;XREF[1,0]:   0007cf7e
          ;local_28      undefined4         -28                      ;XREF[1,0]:   0007cf5c
          ;local_2a      undefined2         -2a                      ;XREF[1,0]:   0007cf50
          ;local_2c      undefined2         -2c                      ;XREF[1,0]:   0007cf4a
          ;local_2e      undefined1         -2e                      ;XREF[1,0]:   0007cf44
          ;local_30      undefined2         -30                      ;XREF[2,0]:   0007cf88,0007cfb2
          ;local_34      undefined1         -34                      ;XREF[1,0]:   0007cf40
          ;local_38      undefined1         -38                      ;XREF[1,0]:   0007cfcc
          ;local_3c      undefined4         -3c                      ;XREF[2,0]:   0007cfd0,0007d012
          ;local_40      undefined1         -40                      ;XREF[4,0]:   0007cfc0,0007cfde,0007cfea,0007d01a
                                                          ;XREF[1,0]:   0007b49c
ram:0007cf34    f0b5            push        {r4,r5,r6,r7,lr}                        
ram:0007cf36    8bb0            sub         sp,#0x2c                                
ram:0007cf38    0127            movs        r7,#0x1                                 
ram:0007cf3a    4ff0020e        mov.w       lr,#0x2                                 
ram:0007cf3e    0546            mov         r5,param_1                              
ram:0007cf40    8df80ce0        strb.w      lr,[sp,#local_34+0x40]                  
ram:0007cf44    8df81270        strb.w      r7,[sp,#local_2e+0x40]                  
ram:0007cf48    0889            ldrh        param_1,[param_2,#0x8]                  
ram:0007cf4a    adf81400        strh.w      param_1,[sp,#local_2c+0x40]             
ram:0007cf4e    4889            ldrh        param_1,[param_2,#0xa]                  
ram:0007cf50    adf81600        strh.w      param_1,[sp,#local_2a+0x40]             
ram:0007cf54    01f10c00        add.w       param_1,param_2,#0xc                    
ram:0007cf58    0026            movs        r6,#0x0                                 
ram:0007cf5a    0896            str         r6,[sp,#local_20+0x40]                  
ram:0007cf5c    0690            str         param_1,[sp,#local_28+0x40]             
ram:0007cf5e    adf820e0        strh.w      lr,[sp,#local_20+0x40]                  
ram:0007cf62    07a8            add         param_1,sp,#0x1c                        
ram:0007cf64    adf82260        strh.w      r6,[sp,#local_20+0x42]                  
ram:0007cf68    0990            str         param_1,[sp,#local_1c+0x40]             
ram:0007cf6a    0c46            mov         r4,param_2                              
ram:0007cf6c    a98a            ldrh        param_2,[r5,#0x14]                      
ram:0007cf6e    2888            ldrh        param_1,[r5,#0x0]                       
ram:0007cf70    08aa            add         r2,sp,#0x20                             
ram:0007cf72    a5df            svc         0xa5                                    
ram:0007cf74    18b1            cbz         param_1,LAB_0007cf7e                    
ram:0007cf76    e96a            ldr         param_2,[r5,#0x2c]                      
ram:0007cf78    c9b1            cbz         param_2,LAB_0007cfae                    
ram:0007cf7a    8847            blx         param_2                                 
ram:0007cf7c    17e0            b           LAB_0007cfae                            
                            LAB_0007cf7e:                 ;XREF[1,0]:   0007cf74
ram:0007cf7e    9df81c00        ldrb.w      param_1,[sp,#local_24+0x40]             
ram:0007cf82    10f0010f        tst         param_1,#0x1                            
ram:0007cf86    12d0            beq         LAB_0007cfae                            
ram:0007cf88    adf81060        strh.w      r6,[sp,#local_30+0x40]                  
ram:0007cf8c    2888            ldrh        param_1,[r5,#0x0]                       
ram:0007cf8e    03a9            add         param_2,sp,#0xc                         
ram:0007cf90    a8df            svc         0xa8                                    
ram:0007cf92    0028            cmp         param_1,#0x0                            
ram:0007cf94    12d1            bne         LAB_0007cfbc                            
ram:0007cf96    217b            ldrb        param_2,[r4,#0xc]                       
ram:0007cf98    04f10d00        add.w       param_1,r4,#0xd                         
ram:0007cf9c    0929            cmp         param_2,#0x9                            
ram:0007cf9e    43d2            bcs         switchD_0007cfa0::caseD_0               
                            switchD:                      ; FWD[10,0]:  0007cfa4,0007cfc0,0007cfde,0007cfea
                                                          ;             0007cff0,0007cff4,0007cff8,0007cffc
                                                          ;             0007d024,0007d028
ram:0007cfa0    dfe801f0        tbb         [switchD_0007cfa0::switchdataD_0007cf...;= 42h
                            switchdataD_0007cfa4:         ;XREF[1,0]:   0007cfa0
ram:0007cfa4    42              db          42h                                     
ram:0007cfa5    0e              db          Eh                                      
ram:0007cfa6    1d              db          1Dh                                     
ram:0007cfa7    23              db          23h                                     
ram:0007cfa8    26              db          26h                                     
ram:0007cfa9    28              db          28h                                     
ram:0007cfaa    2a              db          2Ah                                     
ram:0007cfab    40              db          40h                                     
ram:0007cfac    2c              db          2Ch                                     
ram:0007cfad    00              ??          00h                                     
                            LAB_0007cfae:                 ;XREF[3,0]:   0007cf78,0007cf7c,0007cf86
ram:0007cfae    40f2fd10        movw        param_1,#0x1fd                          
ram:0007cfb2    adf81000        strh.w      param_1,[sp,#local_30+0x40]             
ram:0007cfb6    2888            ldrh        param_1,[r5,#0x0]                       
ram:0007cfb8    03a9            add         param_2,sp,#0xc                         
ram:0007cfba    a8df            svc         0xa8                                    
                            LAB_0007cfbc:                 ;XREF[3,0]:   0007cf94,0007cfdc,0007d00c
ram:0007cfbc    0bb0            add         sp,#0x2c                                
ram:0007cfbe    f0bd            pop         {r4,r5,r6,r7,pc}                        
                            caseD_1:                      ;XREF[1,0]:   0007cfa0
ram:0007cfc0    8df80060        strb.w      r6,[sp,#0x0]=>local_40                  
ram:0007cfc4    0de0            b           LAB_0007cfe2                            
                            LAB_0007cfc6:                 ;XREF[1,0]:   0007cfe8
ram:0007cfc6    0622            movs        r2,#0x6                                 
ram:0007cfc8    1de0            b           LAB_0007d006                            
ram:0007cfca    00bf            nop                                                  
                            LAB_0007cfcc:                 ;XREF[1,0]:   0007cfe6
ram:0007cfcc    8df80870        strb.w      r7,[sp,#local_38+0x40]                  
ram:0007cfd0    0190            str         param_1,[sp,#local_3c+0x40]             
                            LAB_0007cfd2:                 ;XREF[2,0]:   0007cfee,0007d01e
ram:0007cfd2    aa6a            ldr         r2,[r5,#0x28]                           
ram:0007cfd4    6946            mov         param_2,sp                              
ram:0007cfd6    2846            mov         param_1,r5                              
ram:0007cfd8    9047            blx         r2                                      
ram:0007cfda    0020            movs        param_1,#0x0                            
ram:0007cfdc    eee7            b           LAB_0007cfbc                            
                            caseD_2:                      ;XREF[1,0]:   0007cfa0
ram:0007cfde    8df80070        strb.w      r7,[sp,#0x0]=>local_40                  
                            LAB_0007cfe2:                 ;XREF[1,0]:   0007cfc4
ram:0007cfe2    6289            ldrh        r2,[r4,#0xa]                            
ram:0007cfe4    022a            cmp         r2,#0x2                                 
ram:0007cfe6    f1d2            bcs         LAB_0007cfcc                            
ram:0007cfe8    ede7            b           LAB_0007cfc6                            
                            caseD_3:                      ;XREF[1,0]:   0007cfa0
ram:0007cfea    8df800e0        strb.w      lr,[sp,#0x0]=>local_40                  
ram:0007cfee    f0e7            b           LAB_0007cfd2                            
                            caseD_4:                      ;XREF[1,0]:   0007cfa0
ram:0007cff0    0320            movs        param_1,#0x3                            
ram:0007cff2    12e0            b           LAB_0007d01a                            
                            caseD_5:                      ;XREF[1,0]:   0007cfa0
ram:0007cff4    0420            movs        param_1,#0x4                            
ram:0007cff6    10e0            b           LAB_0007d01a                            
                            caseD_6:                      ;XREF[1,0]:   0007cfa0
ram:0007cff8    0520            movs        param_1,#0x5                            
ram:0007cffa    0ee0            b           LAB_0007d01a                            
                            caseD_8:                      ;XREF[1,0]:   0007cfa0
ram:0007cffc    6089            ldrh        param_1,[r4,#0xa]                       
ram:0007cffe    0328            cmp         param_1,#0x3                            
ram:0007d000    05d2            bcs         LAB_0007d00e                            
ram:0007d002    0322            movs        r2,#0x3                                 
ram:0007d004    0821            movs        param_2,#0x8                            
                            LAB_0007d006:                 ;XREF[2,0]:   0007cfc8,0007d02a
ram:0007d006    2846            mov         param_1,r5                              
ram:0007d008    fef7a2fa        bl          FUN_0007b550                            ;undefined8 FUN_0007b550(ushort * par...
ram:0007d00c    d6e7            b           LAB_0007cfbc                            
                            LAB_0007d00e:                 ;XREF[1,0]:   0007d000
ram:0007d00e    b4f80d00        ldrh.w      param_1,[r4,#0xd]                       
ram:0007d012    adf80400        strh.w      param_1,[sp,#local_3c+0x40]             
ram:0007d016    18b1            cbz         param_1,LAB_0007d020                    
ram:0007d018    0620            movs        param_1,#0x6                            
                            LAB_0007d01a:                 ;XREF[5,0]:   0007cff2,0007cff6,0007cffa,0007d022
                                                          ;             0007d026
ram:0007d01a    8df80000        strb.w      param_1,[sp,#0x0]=>local_40             
ram:0007d01e    d8e7            b           LAB_0007cfd2                            
                            LAB_0007d020:                 ;XREF[1,0]:   0007d016
ram:0007d020    0720            movs        param_1,#0x7                            
ram:0007d022    fae7            b           LAB_0007d01a                            
                            caseD_7:                      ;XREF[1,0]:   0007cfa0
ram:0007d024    0920            movs        param_1,#0x9                            
ram:0007d026    f8e7            b           LAB_0007d01a                            
                            caseD_0:                      ;XREF[2,0]:   0007cf9e,0007cfa0
ram:0007d028    0322            movs        r2,#0x3                                 
ram:0007d02a    ece7            b           LAB_0007d006                            
                            ;************************************************************************************************
                            ;*                                           FUNCTION                                           *
                            ;************************************************************************************************
                            ;ushort * FUN_0007d02c(ushort * param_1, byte * param_2)
          ;param_1       ushort *            r0                      
          ;param_2       byte *              r1                      
          ;local_10      undefined4         -10                      
          ;local_14      undefined4         -14                      ;XREF[1,0]:   0007d576
          ;local_18      undefined4         -18                      ;XREF[1,0]:   0007d572
          ;local_1c      undefined4         -1c                      ;XREF[2,0]:   0007d562,0007d5aa
          ;local_20      undefined4         -20                      ;XREF[2,0]:   0007d560,0007d5a0
          ;local_24      undefined4         -24                      ;XREF[2,0]:   0007d55e,0007d596
          ;local_28      undefined4         -28                      ;XREF[2,0]:   0007d55c,0007d56a
                                                          ;XREF[0,2]:   0007c662,0007c6d8
ram:0007d02c    70b5            push        {r4,r5,r6,lr}                           
ram:0007d02e    0446            mov         r4,param_1                              
ram:0007d030    0b78            ldrb        r3,[param_2,#0x0]                       
ram:0007d032    0120            movs        param_1,#0x1                            
ram:0007d034    314a            ldr         r2=>DAT_20002c64,[DAT_0007d0fc]         ;= 20002C64h
ram:0007d036    0a2b            cmp         r3,#0xa                                 
ram:0007d038    16d2            bcs         switchD_0007d03a::caseD_a               
                            switchD:                      ; FWD[12,0]:  0007d03e,0007d048,0007d058,0007d068
                                                          ;             0007d06a,0007d07c,0007d086,0007d0b2
                                                          ;             0007d0b8,0007d0e0,0007d0ea,0007d0f2
ram:0007d03a    dfe803f0        tbb         [switchD_0007d03a::switchdataD_0007d0...;= 1Fh
                            switchdataD_0007d03e:         ;XREF[1,0]:   0007d03a
ram:0007d03e    1f              db          1Fh                                     
ram:0007d03f    24              db          24h                                     
ram:0007d040    3a              db          3Ah                                     
ram:0007d041    05              db          5h                                      
ram:0007d042    0d              db          Dh                                      
ram:0007d043    16              db          16h                                     
ram:0007d044    51              db          51h                                     
ram:0007d045    56              db          56h                                     
ram:0007d046    3d              db          3Dh                                     
ram:0007d047    5a              db          5Ah                                     
                            caseD_3:                      ;XREF[1,0]:   0007d03a
ram:0007d048    fef7a2ff        bl          FUN_0007bf90                            ;int FUN_0007bf90(undefined4 param_1,...
ram:0007d04c    0421            movs        param_2,#0x4                            
ram:0007d04e    fff79afe        bl          FUN_0007cd86                            ;undefined4 FUN_0007cd86(int param_1,...
ram:0007d052    0246            mov         r2,param_1                              
ram:0007d054    0421            movs        param_2,#0x4                            
ram:0007d056    23e0            b           LAB_0007d0a0                            
                            caseD_4:                      ;XREF[1,0]:   0007d03a
ram:0007d058    fff79efa        bl          FUN_0007c598                            ;undefined4 FUN_0007c598(undefined4 p...
ram:0007d05c    08b1            cbz         param_1,LAB_0007d062                    
ram:0007d05e    fdf7d1fe        bl          FUN_0007ae04                            ;undefined FUN_0007ae04(void)
                            LAB_0007d062:                 ;XREF[1,0]:   0007d05c
ram:0007d062    fef77bff        bl          FUN_0007bf5c                            ;undefined4 FUN_0007bf5c(undefined4 p...
ram:0007d066    28b9            cbnz        param_1,LAB_0007d074                    
                            caseD_a:                      ;XREF[2,0]:   0007d038,0007d03a
ram:0007d068    70bd            pop         {r4,r5,r6,pc}                           
                            caseD_5:                      ;XREF[1,0]:   0007d03a
ram:0007d06a    fff795fa        bl          FUN_0007c598                            ;undefined4 FUN_0007c598(undefined4 p...
ram:0007d06e    08b1            cbz         param_1,LAB_0007d074                    
ram:0007d070    fdf7c8fe        bl          FUN_0007ae04                            ;undefined FUN_0007ae04(void)
                            LAB_0007d074:                 ;XREF[2,0]:   0007d066,0007d06e
ram:0007d074    bde87040        pop.w       {r4,r5,r6,lr}                           
ram:0007d078    fff70cb9        b.w         FUN_0007c294                            ;undefined FUN_0007c294(uint param_1,...
                            caseD_0:                      ;XREF[1,0]:   0007d03a
ram:0007d07c    1071            strb        param_1,[r2,#0x4]=>DAT_20002c68         
ram:0007d07e    4868            ldr         param_1,[param_2,#0x4]                  
ram:0007d080    0078            ldrb        param_1,[param_1,#0x0]                  
ram:0007d082    5071            strb        param_1,[r2,#0x5]=>DAT_20002c69         
                            LAB_0007d084:                 ;XREF[2,0]:   0007d090,0007d0a8
ram:0007d084    70bd            pop         {r4,r5,r6,pc}                           
                            caseD_1:                      ;XREF[1,0]:   0007d03a
ram:0007d086    0220            movs        param_1,#0x2                            
ram:0007d088    1071            strb        param_1,[r2,#0x4]=>DAT_20002c68         
ram:0007d08a    4868            ldr         param_1,[param_2,#0x4]                  
ram:0007d08c    0078            ldrb        param_1,[param_1,#0x0]                  
ram:0007d08e    0128            cmp         param_1,#0x1                            
ram:0007d090    f8d1            bne         LAB_0007d084                            
ram:0007d092    fef7e1ff        bl          FUN_0007c058                            ;int FUN_0007c058(void)
ram:0007d096    0221            movs        param_2,#0x2                            
ram:0007d098    fff775fe        bl          FUN_0007cd86                            ;undefined4 FUN_0007cd86(int param_1,...
ram:0007d09c    0246            mov         r2,param_1                              
ram:0007d09e    0221            movs        param_2,#0x2                            
                            LAB_0007d0a0:                 ;XREF[1,0]:   0007d056
ram:0007d0a0    2046            mov         param_1,r4                              
ram:0007d0a2    fef755fa        bl          FUN_0007b550                            ;undefined8 FUN_0007b550(ushort * par...
                            LAB_0007d0a6:                 ;XREF[1,0]:   0007d0fa
ram:0007d0a6    0028            cmp         param_1,#0x0                            
ram:0007d0a8    ecd0            beq         LAB_0007d084                            
ram:0007d0aa    bde87040        pop.w       {r4,r5,r6,lr}                           
ram:0007d0ae    fdf7a9be        b.w         FUN_0007ae04                            ;undefined FUN_0007ae04(void)
                            caseD_2:                      ;XREF[1,0]:   0007d03a
ram:0007d0b2    0320            movs        param_1,#0x3                            
ram:0007d0b4    1071            strb        param_1,[r2,#0x4]=>DAT_20002c68         
                            LAB_0007d0b6:                 ;XREF[1,0]:   0007d0c6
ram:0007d0b6    70bd            pop         {r4,r5,r6,pc}                           
                            caseD_8:                      ;XREF[1,0]:   0007d03a
ram:0007d0b8    1279            ldrb        r2,[r2,#0x4]=>DAT_20002c68              
ram:0007d0ba    2046            mov         param_1,r4                              
ram:0007d0bc    012a            cmp         r2,#0x1                                 
ram:0007d0be    07d0            beq         LAB_0007d0d0                            
ram:0007d0c0    022a            cmp         r2,#0x2                                 
ram:0007d0c2    09d0            beq         LAB_0007d0d8                            
ram:0007d0c4    032a            cmp         r2,#0x3                                 
ram:0007d0c6    f6d1            bne         LAB_0007d0b6                            
ram:0007d0c8    bde87040        pop.w       {r4,r5,r6,lr}                           
ram:0007d0cc    fdf722be        b.w         FUN_0007ad14                            ;undefined8 FUN_0007ad14(ushort * par...
                            LAB_0007d0d0:                 ;XREF[1,0]:   0007d0be
ram:0007d0d0    bde87040        pop.w       {r4,r5,r6,lr}                           
ram:0007d0d4    00f03eba        b.w         LAB_0007d554                            
                            LAB_0007d0d8:                 ;XREF[1,0]:   0007d0c2
ram:0007d0d8    bde87040        pop.w       {r4,r5,r6,lr}                           
ram:0007d0dc    fff7cebb        b.w         FUN_0007c87c                            ;undefined FUN_0007c87c(ushort * para...
                            caseD_6:                      ;XREF[1,0]:   0007d03a
ram:0007d0e0    5070            strb        param_1,[r2,#0x1]=>DAT_20002c65         
ram:0007d0e2    8888            ldrh        param_1,[param_2,#0x4]                  
ram:0007d0e4    1081            strh        param_1,[r2,#0x8]=>DAT_20002c6c         
ram:0007d0e6    5081            strh        param_1,[r2,#0xa]=>DAT_20002c6e         
ram:0007d0e8    70bd            pop         {r4,r5,r6,pc}                           
                            caseD_7:                      ;XREF[1,0]:   0007d03a
ram:0007d0ea    0020            movs        param_1,#0x0                            
ram:0007d0ec    5070            strb        param_1,[r2,#0x1]=>DAT_20002c65         
ram:0007d0ee    1081            strh        param_1,[r2,#0x8]=>DAT_20002c6c         
ram:0007d0f0    70bd            pop         {r4,r5,r6,pc}                           
                            caseD_9:                      ;XREF[1,0]:   0007d03a
ram:0007d0f2    2046            mov         param_1,r4                              
ram:0007d0f4    1169            ldr         param_2,[r2,#0x10]=>DAT_20002c74        
ram:0007d0f6    fef72bf9        bl          FUN_0007b350                            ;undefined8 FUN_0007b350(ushort * par...
ram:0007d0fa    d4e7            b           LAB_0007d0a6                            
                            DAT_0007d0fc:                 ;XREF[1,0]:   0007d034
ram:0007d0fc    642c0020        undefined4  20002C64h                               
                            ;************************************************************************************************
                            ;*                                           FUNCTION                                           *
                            ;************************************************************************************************
                            ;undefined LAB_0007d100+1(undefined4 param_1, int param_2, int param_3)
          ;param_1       undefined4          r0                      
          ;param_2       int                 r1                      
          ;param_3       int                 r2                      
                                                          ;XREF[0,3]:   0007b888,0007b88a,0007d920
ram:0007d100    0648            ldr         param_1,[DAT_0007d11c]                  ;= 20002C2Ch
ram:0007d102    0378            ldrb        r3,[param_1,#0x0]=>DAT_20002c2c         
ram:0007d104    012b            cmp         r3,#0x1                                 
ram:0007d106    03d1            bne         LAB_0007d110                            
ram:0007d108    0129            cmp         param_2,#0x1                            
ram:0007d10a    01d1            bne         LAB_0007d110                            
ram:0007d10c    0221            movs        param_2,#0x2                            
ram:0007d10e    0170            strb        param_2,[param_1,#0x0]=>DAT_20002c2c    
                            LAB_0007d110:                 ;XREF[2,0]:   0007d106,0007d10a
ram:0007d110    1000            movs        param_1,param_3                         
ram:0007d112    01d0            beq         LAB_0007d118                            
ram:0007d114    fdf776be        b.w         FUN_0007ae04                            ;undefined FUN_0007ae04(void)
                            LAB_0007d118:                 ;XREF[1,0]:   0007d112
ram:0007d118    7047            bx          lr                                      
ram:0007d11a    0000            movs        r0,r0                                   
                            DAT_0007d11c:                 ;XREF[1,0]:   0007d100
ram:0007d11c    2c2c0020        undefined4  20002C2Ch                               
                            ;************************************************************************************************
                            ;*                                           FUNCTION                                           *
                            ;************************************************************************************************
                            ;undefined FUN_0007d120(undefined4 param_1, int param_2, int param_3, undefined4 param_4)
          ;param_1       undefined4          r0                      
          ;param_2       int                 r1                      
          ;param_3       int                 r2                      
          ;param_4       undefined4          r3                      
                                                          ;XREF[0,2]:   0007bfda,0007d958
ram:0007d120    70b5            push        {r4,r5,r6,lr}                           
ram:0007d122    124c            ldr         r4,[DAT_0007d16c]                       ;= 20002C38h
ram:0007d124    1e46            mov         r6,param_4                              
ram:0007d126    1546            mov         r5,param_3                              
ram:0007d128    6078            ldrb        param_1,[r4,#0x1]=>DAT_20002c39         
ram:0007d12a    0129            cmp         param_2,#0x1                            
ram:0007d12c    02d0            beq         LAB_0007d134                            
ram:0007d12e    0329            cmp         param_2,#0x3                            
ram:0007d130    14d1            bne         LAB_0007d15c                            
ram:0007d132    07e0            b           LAB_0007d144                            
                            LAB_0007d134:                 ;XREF[1,0]:   0007d12c
ram:0007d134    0528            cmp         param_1,#0x5                            
ram:0007d136    11d1            bne         LAB_0007d15c                            
ram:0007d138    6369            ldr         param_4,[r4,#0x14]=>DAT_20002c4c        
ram:0007d13a    7bb1            cbz         param_4,LAB_0007d15c                    
ram:0007d13c    3246            mov         param_3,r6                              
ram:0007d13e    2946            mov         param_2,r5                              
ram:0007d140    0420            movs        param_1,#0x4                            
ram:0007d142    0ae0            b           LAB_0007d15a                            
                            LAB_0007d144:                 ;XREF[1,0]:   0007d132
ram:0007d144    0228            cmp         param_1,#0x2                            
ram:0007d146    09d1            bne         LAB_0007d15c                            
ram:0007d148    0948            ldr         param_1,[DAT_0007d170]                  ;= 20003258h
ram:0007d14a    4068            ldr         param_1,[param_1,#0x4]=>DAT_2000325c    
ram:0007d14c    8047            blx         param_1                                 
ram:0007d14e    0320            movs        param_1,#0x3                            
ram:0007d150    6070            strb        param_1,[r4,#0x1]=>DAT_20002c39         
ram:0007d152    6369            ldr         param_4,[r4,#0x14]=>DAT_20002c4c        
ram:0007d154    13b1            cbz         param_4,LAB_0007d15c                    
ram:0007d156    3246            mov         param_3,r6                              
ram:0007d158    2946            mov         param_2,r5                              
                            LAB_0007d15a:                 ;XREF[1,0]:   0007d142
ram:0007d15a    9847            blx         param_4                                 
                            LAB_0007d15c:                 ;XREF[5,0]:   0007d130,0007d136,0007d13a,0007d146
                                                          ;             0007d154
ram:0007d15c    2800            movs        param_1,r5                              
ram:0007d15e    03d0            beq         LAB_0007d168                            
ram:0007d160    bde87040        pop.w       {r4,r5,r6,lr}                           
ram:0007d164    fdf74ebe        b.w         FUN_0007ae04                            ;undefined FUN_0007ae04(void)
                            LAB_0007d168:                 ;XREF[1,0]:   0007d15e
ram:0007d168    70bd            pop         {r4,r5,r6,pc}                           
ram:0007d16a    0000            movs        r0,r0                                   
                            DAT_0007d16c:                 ;XREF[1,0]:   0007d122
ram:0007d16c    382c0020        undefined4  20002C38h                               
                            DAT_0007d170:                 ;XREF[1,0]:   0007d148
ram:0007d170    58320020        undefined4  20003258h                               
                            ;************************************************************************************************
                            ;*                                           FUNCTION                                           *
                            ;************************************************************************************************
                            ;undefined FUN_0007d174(undefined4 * param_1, undefined4 param_2)
          ;param_1       undefined4 *        r0                      
          ;param_2       undefined4          r1                      
          ;local_8       undefined4          -8                      ;XREF[1,0]:   0007d17e
                                                          ;XREF[4,0]:   0007b8ec,0007bbe6,0007c232,0007c272
ram:0007d174    08b5            push        {r3,lr}                                 
ram:0007d176    0b46            mov         r3,param_2                              
ram:0007d178    0022            movs        r2,#0x0                                 
ram:0007d17a    0146            mov         param_2,param_1                         
ram:0007d17c    0320            movs        param_1,#0x3                            
ram:0007d17e    0092            str         r2,[sp,#0x0]=>local_8                   
ram:0007d180    fef714fc        bl          FUN_0007b9ac                            ;int FUN_0007b9ac(char param_1, undef...
ram:0007d184    08bd            pop         {r3,pc}                                 
ram:0007d186    0000            movs        r0,r0                                   
                            ;************************************************************************************************
                            ;*                                           FUNCTION                                           *
                            ;************************************************************************************************
                            ;undefined4 FUN_0007d188(void)
                                                          ;XREF[1,0]:   0007b88e
ram:0007d188    70b5            push        {r4,r5,r6,lr}                           
ram:0007d18a    0d4e            ldr         r6,[DAT_0007d1c0]                       ;= 20002C24h
ram:0007d18c    0024            movs        r4,#0x0                                 
ram:0007d18e    0d48            ldr         r0,[DAT_0007d1c4]                       ;= 20003088h
ram:0007d190    7460            str         r4,[r6,#0x4]=>DAT_20002c28              
ram:0007d192    2546            mov         r5,r4                                   
ram:0007d194    0470            strb        r4,[r0,#0x0]=>DAT_20003088              
ram:0007d196    4470            strb        r4,[r0,#0x1]=>DAT_20003089              
ram:0007d198    8470            strb        r4,[r0,#0x2]=>DAT_2000308a              
                            LAB_0007d19a:                 ;XREF[1,0]:   0007d1a4
ram:0007d19a    2846            mov         r0,r5                                   
ram:0007d19c    fef7f6fb        bl          FUN_0007b98c                            ;undefined FUN_0007b98c(int param_1)
ram:0007d1a0    6d1c            adds        r5,r5,#0x1                              
ram:0007d1a2    0a2d            cmp         r5,#0xa                                 
ram:0007d1a4    f9d3            bcc         LAB_0007d19a                            
ram:0007d1a6    0749            ldr         r1,[DAT_0007d1c4]                       ;= 20003088h
ram:0007d1a8    3460            str         r4,[r6,#0x0]=>DAT_20002c24              
ram:0007d1aa    0020            movs        r0,#0x0                                 
ram:0007d1ac    f431            adds        r1,#0xf4                                
ram:0007d1ae    7460            str         r4,[r6,#0x4]=>DAT_20002c28              
                            LAB_0007d1b0:                 ;XREF[1,0]:   0007d1b8
ram:0007d1b0    41f82040        str.w       r4,r1=>DAT_...,r0,offset DAT_20003180...
ram:0007d1b4    401c            adds        r0,r0,#0x1                              
ram:0007d1b6    0328            cmp         r0,#0x3                                 
ram:0007d1b8    fad3            bcc         LAB_0007d1b0                            
ram:0007d1ba    0020            movs        r0,#0x0                                 
ram:0007d1bc    70bd            pop         {r4,r5,r6,pc}                           
ram:0007d1be    0000            movs        r0,r0                                   
                            DAT_0007d1c0:                 ;XREF[1,0]:   0007d18a
ram:0007d1c0    242c0020        undefined4  20002C24h                               
                            DAT_0007d1c4:                 ;XREF[2,0]:   0007d18e,0007d1a6
ram:0007d1c4    88300020        undefined4  20003088h                               
                            ;************************************************************************************************
                            ;*                                           FUNCTION                                           *
                            ;************************************************************************************************
                            ;undefined4 FUN_0007d1c8(undefined4 * param_1, int * param_2)
          ;param_1       undefined4 *        r0                      
          ;param_2       int *               r1                      
                                                          ;XREF[2,0]:   0007b8a0,0007bfe8
ram:0007d1c8    074b            ldr         r3,[DAT_0007d1e8]                       ;= 20002C24h
ram:0007d1ca    1a68            ldr         r2,[r3,#0x0]=>DAT_20002c24              
ram:0007d1cc    032a            cmp         r2,#0x3                                 
ram:0007d1ce    08d0            beq         LAB_0007d1e2                            
ram:0007d1d0    0a60            str         r2,[param_2,#0x0]                       
ram:0007d1d2    0649            ldr         param_2,[DAT_0007d1ec]                  ;= 2000317Ch
ram:0007d1d4    0068            ldr         param_1,[param_1,#0x0]                  
ram:0007d1d6    41f82200        str.w       param_1,param_2=>DAT_2000317c,r2,0x2    
ram:0007d1da    521c            adds        r2,r2,#0x1                              
ram:0007d1dc    0020            movs        param_1,#0x0                            
ram:0007d1de    1a60            str         r2,[r3,#0x0]=>DAT_20002c24              
ram:0007d1e0    7047            bx          lr                                      
                            LAB_0007d1e2:                 ;XREF[1,0]:   0007d1ce
ram:0007d1e2    0420            movs        param_1,#0x4                            
ram:0007d1e4    7047            bx          lr                                      
ram:0007d1e6    0000            movs        r0,r0                                   
                            DAT_0007d1e8:                 ;XREF[1,0]:   0007d1c8
ram:0007d1e8    242c0020        undefined4  20002C24h                               
                            DAT_0007d1ec:                 ;XREF[1,0]:   0007d1d2
ram:0007d1ec    7c310020        undefined4  2000317Ch                               
                            ;************************************************************************************************
                            ;*                                           FUNCTION                                           *
                            ;************************************************************************************************
                            ;int FUN_0007d1f0(undefined4 * param_1, uint param_2, undefined4 param_3, int param_4)
          ;param_1       undefined4 *        r0                      
          ;param_2       uint                r1                      
          ;param_3       undefined4          r2                      
          ;param_4       int                 r3                      
          ;local_18      undefined4         -18                      ;XREF[1,0]:   0007d212
                                                          ;XREF[3,0]:   0007b8fe,0007bbfc,0007bf18
ram:0007d1f0    f8b5            push        {param_4,r4,r5,r6,r7,lr}                
ram:0007d1f2    0746            mov         r7,param_1                              
ram:0007d1f4    1d46            mov         r5,param_4                              
ram:0007d1f6    1646            mov         r6,param_3                              
ram:0007d1f8    0c46            mov         r4,param_2                              
ram:0007d1fa    0846            mov         param_1,param_2                         
ram:0007d1fc    fff7b8fb        bl          FUN_0007c970                            ;undefined4 FUN_0007c970(uint param_1)
ram:0007d200    58b1            cbz         param_1,LAB_0007d21a                    
ram:0007d202    6019            adds        param_1,r4,r5                           
ram:0007d204    fff7b4fb        bl          FUN_0007c970                            ;undefined4 FUN_0007c970(uint param_1)
ram:0007d208    38b1            cbz         param_1,LAB_0007d21a                    
ram:0007d20a    3346            mov         param_4,r6                              
ram:0007d20c    2246            mov         param_3,r4                              
ram:0007d20e    3946            mov         param_2,r7                              
ram:0007d210    0120            movs        param_1,#0x1                            
ram:0007d212    0095            str         r5,[sp,#0x0]=>local_18                  
ram:0007d214    fef7cafb        bl          FUN_0007b9ac                            ;int FUN_0007b9ac(char param_1, undef...
ram:0007d218    f8bd            pop         {param_4,r4,r5,r6,r7,pc}                
                            LAB_0007d21a:                 ;XREF[2,0]:   0007d200,0007d208
ram:0007d21a    1020            movs        param_1,#0x10                           
ram:0007d21c    f8bd            pop         {param_4,r4,r5,r6,r7,pc}                
ram:0007d21e    0000            movs        r0,r0                                   
                            ;************************************************************************************************
                            ;*                                           FUNCTION                                           *
                            ;************************************************************************************************
                            ;undefined FUN_0007d220(int param_1)
          ;param_1       int                 r0                      
                                                          ;XREF[1,0]:   0007d5d4
ram:0007d220    70b5            push        {r4,r5,r6,lr}                           
ram:0007d222    244c            ldr         r4,[DAT_0007d2b4]                       ;= 20003088h
ram:0007d224    0646            mov         r6,param_1                              
ram:0007d226    0022            movs        r2,#0x0                                 
ram:0007d228    a078            ldrb        param_1,[r4,#0x2]=>DAT_2000308a         
ram:0007d22a    0128            cmp         param_1,#0x1                            
ram:0007d22c    41d1            bne         LAB_0007d2b2                            
ram:0007d22e    0023            movs        r3,#0x0                                 
ram:0007d230    2146            mov         r1,r4                                   
ram:0007d232    a370            strb        r3,[r4,#0x2]=>DAT_2000308a              
ram:0007d234    0d78            ldrb        r5,[r1,#0x0]=>DAT_20003088              
ram:0007d236    022e            cmp         r6,#0x2                                 
ram:0007d238    05eb4500        add.w       param_1,r5,r5, lsl #0x1                 
ram:0007d23c    01ebc001        add.w       r1,r1,param_1, lsl #0x3                 
ram:0007d240    03d0            beq         LAB_0007d24a                            
ram:0007d242    032e            cmp         r6,#0x3                                 
ram:0007d244    35d1            bne         LAB_0007d2b2                            
ram:0007d246    0d20            movs        param_1,#0xd                            
ram:0007d248    2ee0            b           LAB_0007d2a8                            
                            LAB_0007d24a:                 ;XREF[1,0]:   0007d240
ram:0007d24a    1b48            ldr         param_1,[DAT_0007d2b8]                  ;= 20002C24h
ram:0007d24c    4668            ldr         r6,[param_1,#0x4]=>DAT_20002c28         
ram:0007d24e    761c            adds        r6,r6,#0x1                              
ram:0007d250    4660            str         r6,[param_1,#0x4]=>DAT_20002c28         
ram:0007d252    8968            ldr         r1,[r1,#0x8]                            
ram:0007d254    b1eb063f        cmp.w       r1,r6, lsl #0xc                         
ram:0007d258    15d8            bhi         LAB_0007d286                            
ram:0007d25a    4360            str         r3,[param_1,#0x4]=>DAT_20002c28         
ram:0007d25c    6078            ldrb        param_1,[r4,#0x1]=>DAT_20003089         
ram:0007d25e    401e            subs        param_1,param_1,#0x1                    
ram:0007d260    6070            strb        param_1,[r4,#0x1]=>DAT_20003089         
ram:0007d262    681c            adds        param_1,r5,#0x1                         
ram:0007d264    c0b2            uxtb        param_1,param_1                         
ram:0007d266    2070            strb        param_1,[r4,#0x0]=>DAT_20003088         
ram:0007d268    0a28            cmp         param_1,#0xa                            
ram:0007d26a    01d3            bcc         LAB_0007d270                            
ram:0007d26c    0a38            subs        param_1,#0xa                            
ram:0007d26e    2070            strb        param_1,[r4,#0x0]=>DAT_20003088         
                            LAB_0007d270:                 ;XREF[1,0]:   0007d26a
ram:0007d270    05eb4500        add.w       param_1,r5,r5, lsl #0x1                 
ram:0007d274    04ebc001        add.w       r1,r4,param_1, lsl #0x3                 
ram:0007d278    1046            mov         param_1,r2                              
ram:0007d27a    091d            adds        r1,r1,#0x4                              
ram:0007d27c    fdf7cefd        bl          FUN_0007ae1c                            ;undefined FUN_0007ae1c(undefined4 pa...
ram:0007d280    2846            mov         param_1,r5                              
ram:0007d282    fef783fb        bl          FUN_0007b98c                            ;undefined FUN_0007b98c(int param_1)
                            LAB_0007d286:                 ;XREF[1,0]:   0007d258
ram:0007d286    6078            ldrb        param_1,[r4,#0x1]=>DAT_20003089         
ram:0007d288    0028            cmp         param_1,#0x0                            
ram:0007d28a    12d0            beq         LAB_0007d2b2                            
ram:0007d28c    a078            ldrb        param_1,[r4,#0x2]=>DAT_2000308a         
ram:0007d28e    0028            cmp         param_1,#0x0                            
ram:0007d290    0fd1            bne         LAB_0007d2b2                            
ram:0007d292    fef747fb        bl          FUN_0007b924                            ;undefined8 FUN_0007b924(void)
ram:0007d296    0028            cmp         param_1,#0x0                            
ram:0007d298    0bd0            beq         LAB_0007d2b2                            
ram:0007d29a    1128            cmp         param_1,#0x11                           
ram:0007d29c    09d0            beq         LAB_0007d2b2                            
ram:0007d29e    2178            ldrb        r1,[r4,#0x0]=>DAT_20003088              
ram:0007d2a0    01eb4101        add.w       r1,r1,r1, lsl #0x1                      
ram:0007d2a4    04ebc101        add.w       r1,r4,r1, lsl #0x3                      
                            LAB_0007d2a8:                 ;XREF[1,0]:   0007d248
ram:0007d2a8    bde87040        pop.w       {r4,r5,r6,lr}                           
ram:0007d2ac    091d            adds        r1,r1,#0x4                              
ram:0007d2ae    fdf7b5bd        b.w         FUN_0007ae1c                            ;undefined FUN_0007ae1c(undefined4 pa...
                            LAB_0007d2b2:                 ;XREF[6,0]:   0007d22c,0007d244,0007d28a,0007d290
                                                          ;             0007d298,0007d29c
ram:0007d2b2    70bd            pop         {r4,r5,r6,pc}                           
                            DAT_0007d2b4:                 ;XREF[1,0]:   0007d222
ram:0007d2b4    88300020        undefined4  20003088h                               
                            DAT_0007d2b8:                 ;XREF[1,0]:   0007d24a
ram:0007d2b8    242c0020        undefined4  20002C24h                               
                            ;************************************************************************************************
                            ;*                                           FUNCTION                                           *
                            ;************************************************************************************************
                            ;undefined FUN_0007d2bc(void)
                                                          ;XREF[2,0]:   0007afdc,0007ba9c
ram:0007d2bc    70b5            push        {r4,r5,r6,lr}                           
ram:0007d2be    0126            movs        r6,#0x1                                 
ram:0007d2c0    7004            lsls        r0,r6,#0x11                             
ram:0007d2c2    4ff0e021        mov.w       r1,#0xe000e000                          
ram:0007d2c6    0025            movs        r5,#0x0                                 
ram:0007d2c8    c1f88001        str.w       r0,[r1,#0x180]=>DAT_e000e180            
ram:0007d2cc    084c            ldr         r4,[DAT_0007d2f0]                       ;= 40011000h
ram:0007d2ce    4010            asrs        r0,r0,#0x1                              
ram:0007d2d0    c4f84803        str.w       r0,[r4,#0x348]=>DAT_40011348            
ram:0007d2d4    c4f80803        str.w       r0,[r4,#0x308]=>DAT_40011308            
ram:0007d2d8    6660            str         r6,[r4,#offset DAT_40011004 &0xff]      
ram:0007d2da    2f20            movs        r0,#0x2f                                
ram:0007d2dc    fdf700f9        bl          FUN_0007a4e0                            ;undefined FUN_0007a4e0(int param_1)
ram:0007d2e0    a660            str         r6,[r4,#offset DAT_40011008 &0xff]      
ram:0007d2e2    044c            ldr         r4,[DAT_0007d2f4]                       ;= 20002CA0h
ram:0007d2e4    2f20            movs        r0,#0x2f                                
ram:0007d2e6    2561            str         r5,[r4,#0x10]=>DAT_20002cb0             
ram:0007d2e8    fdf7faf8        bl          FUN_0007a4e0                            ;undefined FUN_0007a4e0(int param_1)
ram:0007d2ec    e570            strb        r5,[r4,#0x3]=>DAT_20002ca3              
ram:0007d2ee    70bd            pop         {r4,r5,r6,pc}                           
                            DAT_0007d2f0:                 ;XREF[1,0]:   0007d2cc
ram:0007d2f0    00100140        undefined4  40011000h                               
                            DAT_0007d2f4:                 ;XREF[1,0]:   0007d2e2
ram:0007d2f4    a02c0020        undefined4  20002CA0h                               
                            ;************************************************************************************************
                            ;*                                           FUNCTION                                           *
                            ;************************************************************************************************
                            ;undefined FUN_0007d2f8(void)
                                                          ;XREF[2,0]:   0007cbc4,0007cbe0
ram:0007d2f8    10b5            push        {r4,lr}                                 
ram:0007d2fa    064a            ldr         r2,[DAT_0007d314]                       ;= 20002EF0h
ram:0007d2fc    1421            movs        r1,#0x14                                
ram:0007d2fe    0820            movs        r0,#0x8                                 
ram:0007d300    fdf720fe        bl          FUN_0007af44                            ;undefined4 FUN_0007af44(undefined2 p...
ram:0007d304    0028            cmp         r0,#0x0                                 
ram:0007d306    03d0            beq         LAB_0007d310                            
ram:0007d308    bde81040        pop.w       {r4,lr}                                 
ram:0007d30c    fdf77abd        b.w         FUN_0007ae04                            ;undefined FUN_0007ae04(void)
                            LAB_0007d310:                 ;XREF[1,0]:   0007d306
ram:0007d310    10bd            pop         {r4,pc}                                 
ram:0007d312    0000            movs        r0,r0                                   
                            DAT_0007d314:                 ;XREF[1,0]:   0007d2fa
ram:0007d314    f02e0020        undefined4  20002EF0h                               
                            ;************************************************************************************************
                            ;*                                           FUNCTION                                           *
                            ;************************************************************************************************
                            ;undefined4 FUN_0007d318(uint param_1)
          ;param_1       uint                r0                      
                                                          ;XREF[1,0]:   0007d532
ram:0007d318    10b5            push        {r4,lr}                                 
ram:0007d31a    0446            mov         r4,param_1                              
ram:0007d31c    fdf770fb        bl          FUN_0007aa00                            ;undefined4 FUN_0007aa00(uint param_1)
ram:0007d320    40b1            cbz         param_1,LAB_0007d334                    
ram:0007d322    002c            cmp         r4,#0x0                                 
ram:0007d324    09da            bge         LAB_0007d33a                            
ram:0007d326    04f00f00        and         param_1,r4,#0xf                         
ram:0007d32a    00f1e020        add.w       param_1,param_1,#0xe000e000             
ram:0007d32e    90f8140d        ldrb.w      param_1,[param_1,#0xd14]=>DAT_e000ed1a  
ram:0007d332    06e0            b           LAB_0007d342                            
                            LAB_0007d334:                 ;XREF[1,0]:   0007d320
ram:0007d334    42f20100        movw        param_1,#0x2001                         
ram:0007d338    10bd            pop         {r4,pc}                                 
                            LAB_0007d33a:                 ;XREF[1,0]:   0007d324
ram:0007d33a    04f1e020        add.w       param_1,r4,#0xe000e000                  
ram:0007d33e    90f80004        ldrb.w      param_1,[param_1,#0x400]=>DAT_e000e416  
                            LAB_0007d342:                 ;XREF[1,0]:   0007d332
ram:0007d342    4109            lsrs        r1,param_1,#0x5                         
ram:0007d344    0829            cmp         r1,#0x8                                 
ram:0007d346    14d2            bcs         LAB_0007d372                            
ram:0007d348    99b1            cbz         r1,LAB_0007d372                         
ram:0007d34a    0129            cmp         r1,#0x1                                 
ram:0007d34c    11d0            beq         LAB_0007d372                            
ram:0007d34e    0429            cmp         r1,#0x4                                 
ram:0007d350    0fd0            beq         LAB_0007d372                            
ram:0007d352    0529            cmp         r1,#0x5                                 
ram:0007d354    0dd0            beq         LAB_0007d372                            
ram:0007d356    0c49            ldr         r1,[DAT_0007d388]                       ;= 20003428h
ram:0007d358    8b68            ldr         r3,[r1,#0x8]=>DAT_20003430              
ram:0007d35a    04f01f02        and         r2,r4,#0x1f                             
ram:0007d35e    0120            movs        param_1,#0x1                            
ram:0007d360    9040            lsls        param_1,r2                              
ram:0007d362    6209            lsrs        r2,r4,#0x5                              
ram:0007d364    43b1            cbz         r3,LAB_0007d378                         
ram:0007d366    51f82230        ldr.w       r3,r1=>DAT_20003428,r2,0x2              
ram:0007d36a    0343            orrs        r3,param_1                              
ram:0007d36c    41f82230        str.w       r3,r1=>DAT_20003428,r2,0x2              
ram:0007d370    07e0            b           LAB_0007d382                            
                            LAB_0007d372:                 ;XREF[5,0]:   0007d346,0007d348,0007d34c,0007d350
                                                          ;             0007d354
ram:0007d372    42f20200        movw        param_1,#0x2002                         
ram:0007d376    10bd            pop         {r4,pc}                                 
                            LAB_0007d378:                 ;XREF[1,0]:   0007d364
ram:0007d378    9100            lsls        r1,r2,#0x2                              
ram:0007d37a    01f1e021        add.w       r1,r1,#0xe000e000                       
ram:0007d37e    c1f80001        str.w       param_1,[r1,#0x100]=>DAT_e000e100       
                            LAB_0007d382:                 ;XREF[1,0]:   0007d370
ram:0007d382    0020            movs        param_1,#0x0                            
ram:0007d384    10bd            pop         {r4,pc}                                 
ram:0007d386    0000            movs        r0,r0                                   
                            DAT_0007d388:                 ;XREF[1,0]:   0007d356
ram:0007d388    28340020        undefined4  20003428h                               
                            ;************************************************************************************************
                            ;*                                           FUNCTION                                           *
                            ;************************************************************************************************
                            ;undefined FUN_0007d38c(void)
                                                          ;XREF[1,0]:   0007c6ae
ram:0007d38c    0648            ldr         r0=>DAT_20002c80,[DAT_0007d3a8]         ;= 20002C80h
ram:0007d38e    0178            ldrb        r1,[r0,#0x0]=>DAT_20002c80              
ram:0007d390    21f07f01        bic         r1,r1,#0x7f                             
ram:0007d394    3031            adds        r1,#0x30                                
ram:0007d396    21f08001        bic         r1,r1,#0x80                             
ram:0007d39a    0170            strb        r1,[r0,#0x0]=>DAT_20002c80              
ram:0007d39c    0721            movs        r1,#0x7                                 
ram:0007d39e    4170            strb        r1,[r0,#0x1]=>DAT_20002c81              
ram:0007d3a0    1021            movs        r1,#0x10                                
ram:0007d3a2    8170            strb        r1,[r0,#0x2]=>DAT_20002c82              
ram:0007d3a4    7047            bx          lr                                      
ram:0007d3a6    0000            movs        r0,r0                                   
                            DAT_0007d3a8:                 ;XREF[1,0]:   0007d38c
ram:0007d3a8    802c0020        undefined4  20002C80h                               
                            ;************************************************************************************************
                            ;*                                           FUNCTION                                           *
                            ;************************************************************************************************
                            ;ulonglong FUN_0007d3ac(undefined4 param_1, uint param_2)
          ;param_1       undefined4          r0                      
          ;param_2       uint                r1                      
                                                          ;XREF[1,0]:   0007cf18
ram:0007d3ac    70b5            push        {r4,r5,r6,lr}                           
ram:0007d3ae    154c            ldr         r4,[DAT_0007d404]                       ;= 20002C64h
ram:0007d3b0    4ff6ff75        movw        r5,#0xffff                              
ram:0007d3b4    e088            ldrh        param_1,[r4,#0x6]=>DAT_20002c6a         
ram:0007d3b6    a842            cmp         param_1,r5                              
ram:0007d3b8    01d1            bne         LAB_0007d3be                            
ram:0007d3ba    0820            movs        param_1,#0x8                            
                            LAB_0007d3bc:                 ;XREF[3,0]:   0007d3cc,0007d3da,0007d3f2
ram:0007d3bc    70bd            pop         {r4,r5,r6,pc}                           
                            LAB_0007d3be:                 ;XREF[1,0]:   0007d3b8
ram:0007d3be    e178            ldrb        param_2,[r4,#0x3]=>DAT_20002c67         
ram:0007d3c0    d1b1            cbz         param_2,LAB_0007d3f8                    
ram:0007d3c2    0123            movs        r3,#0x1                                 
ram:0007d3c4    0822            movs        r2,#0x8                                 
ram:0007d3c6    1049            ldr         param_2,[DAT_0007d408]                  ;= 200032E4h
ram:0007d3c8    a9df            svc         0xa9                                    
ram:0007d3ca    0028            cmp         param_1,#0x0                            
ram:0007d3cc    f6d1            bne         LAB_0007d3bc                            
ram:0007d3ce    0223            movs        r3,#0x2                                 
ram:0007d3d0    0022            movs        r2,#0x0                                 
ram:0007d3d2    1146            mov         param_2,r2                              
ram:0007d3d4    e088            ldrh        param_1,[r4,#0x6]=>DAT_20002c6a         
ram:0007d3d6    a9df            svc         0xa9                                    
ram:0007d3d8    0028            cmp         param_1,#0x0                            
ram:0007d3da    efd1            bne         LAB_0007d3bc                            
ram:0007d3dc    2a46            mov         r2,r5                                   
ram:0007d3de    0c21            movs        param_2,#0xc                            
ram:0007d3e0    e088            ldrh        param_1,[r4,#0x6]=>DAT_20002c6a         
ram:0007d3e2    a7df            svc         0xa7                                    
ram:0007d3e4    a0f54051        sub.w       param_2,param_1,#0x3000                 
ram:0007d3e8    0239            subs        param_2,#0x2                            
ram:0007d3ea    03d0            beq         LAB_0007d3f4                            
ram:0007d3ec    0828            cmp         param_1,#0x8                            
ram:0007d3ee    01d0            beq         LAB_0007d3f4                            
ram:0007d3f0    891e            subs        param_2,param_2,#0x2                    
ram:0007d3f2    e3d1            bne         LAB_0007d3bc                            
                            LAB_0007d3f4:                 ;XREF[2,0]:   0007d3ea,0007d3ee
ram:0007d3f4    0020            movs        param_1,#0x0                            
ram:0007d3f6    70bd            pop         {r4,r5,r6,pc}                           
                            LAB_0007d3f8:                 ;XREF[1,0]:   0007d3c0
ram:0007d3f8    0023            movs        r3,#0x0                                 
ram:0007d3fa    1a46            mov         r2,r3                                   
ram:0007d3fc    1946            mov         param_2,r3                              
ram:0007d3fe    a9df            svc         0xa9                                    
ram:0007d400    70bd            pop         {r4,r5,r6,pc}                           
ram:0007d402    0000            movs        r0,r0                                   
                            DAT_0007d404:                 ;XREF[1,0]:   0007d3ae
ram:0007d404    642c0020        undefined4  20002C64h                               
                            DAT_0007d408:                 ;XREF[1,0]:   0007d3c6
ram:0007d408    e4320020        undefined4  200032E4h                               
                            ;************************************************************************************************
                            ;*                                           FUNCTION                                           *
                            ;************************************************************************************************
                            ;undefined4 FUN_0007d40c(int param_1, int param_2, ushort * param_3)
          ;param_1       int                 r0                      
          ;param_2       int                 r1                      
          ;param_3       ushort *            r2                      
                                                          ;XREF[1,0]:   0007ac1a
ram:0007d40c    2de9f041        push        {r4,r5,r6,r7,r8,lr}                     
ram:0007d410    0746            mov         r7,param_1                              
ram:0007d412    806a            ldr         param_1,[param_1,#0x28]                 
ram:0007d414    1446            mov         r4,param_3                              
ram:0007d416    8846            mov         r8,param_2                              
ram:0007d418    c8b3            cbz         param_1,LAB_0007d48e                    
ram:0007d41a    0025            movs        r5,#0x0                                 
ram:0007d41c    31e0            b           LAB_0007d482                            
ram:0007d41e    00bf            nop                                                  
                            LAB_0007d420:                 ;XREF[1,0]:   0007d488
ram:0007d420    b96a            ldr         param_2,[r7,#0x28]                      
ram:0007d422    05eb4500        add.w       param_1,r5,r5, lsl #0x1                 
ram:0007d426    01eb8006        add.w       r6,param_2,param_1, lsl #0x2            
ram:0007d42a    b088            ldrh        param_1,[r6,#0x4]                       
ram:0007d42c    801c            adds        param_1,param_1,#0x2                    
ram:0007d42e    fe28            cmp         param_1,#0xfe                           
ram:0007d430    02d9            bls         LAB_0007d438                            
ram:0007d432    0c20            movs        param_1,#0xc                            
                            LAB_0007d434:                 ;XREF[2,0]:   0007d48c,0007d492
ram:0007d434    bde8f081        pop.w       {r4,r5,r6,r7,r8,pc}                     
                            LAB_0007d438:                 ;XREF[1,0]:   0007d430
ram:0007d438    2288            ldrh        param_3,[r4,#0x0]                       
ram:0007d43a    401c            adds        param_1,param_1,#0x1                    
ram:0007d43c    08f80200        strb.w      param_1,r8,param_3,0x0                  
ram:0007d440    2088            ldrh        param_1,[r4,#0x0]                       
ram:0007d442    1622            movs        param_3,#0x16                           
ram:0007d444    401c            adds        param_1,param_1,#0x1                    
ram:0007d446    80b2            uxth        param_1,param_1                         
ram:0007d448    2080            strh        param_1,[r4,#0x0]                       
ram:0007d44a    08f80020        strb.w      param_3,r8,param_1,0x0                  
ram:0007d44e    2088            ldrh        param_1,[r4,#0x0]                       
ram:0007d450    401c            adds        param_1,param_1,#0x1                    
ram:0007d452    80b2            uxth        param_1,param_1                         
ram:0007d454    2080            strh        param_1,[r4,#0x0]                       
ram:0007d456    00eb0801        add.w       param_2,param_1,r8                      
ram:0007d45a    3088            ldrh        param_1,[r6,#0x0]                       
ram:0007d45c    00f062f9        bl          FUN_0007d724                            ;undefined4 FUN_0007d724(undefined4 p...
ram:0007d460    2188            ldrh        param_2,[r4,#0x0]                       
ram:0007d462    0844            add         param_1,param_2                         
ram:0007d464    80b2            uxth        param_1,param_1                         
ram:0007d466    2080            strh        param_1,[r4,#0x0]                       
ram:0007d468    b288            ldrh        param_3,[r6,#0x4]                       
ram:0007d46a    42b1            cbz         param_3,LAB_0007d47e                    
ram:0007d46c    b168            ldr         param_2,[r6,#0x8]                       
ram:0007d46e    71b1            cbz         param_2,LAB_0007d48e                    
ram:0007d470    4044            add         param_1,r8                              
ram:0007d472    fdf783f8        bl          FUN_0007a57c                            ;undefined FUN_0007a57c(undefined4 * ...
ram:0007d476    2088            ldrh        param_1,[r4,#0x0]                       
ram:0007d478    b188            ldrh        param_2,[r6,#0x4]                       
ram:0007d47a    0844            add         param_1,param_2                         
ram:0007d47c    2080            strh        param_1,[r4,#0x0]                       
                            LAB_0007d47e:                 ;XREF[1,0]:   0007d46a
ram:0007d47e    6d1c            adds        r5,r5,#0x1                              
ram:0007d480    edb2            uxtb        r5,r5                                   
                            LAB_0007d482:                 ;XREF[1,0]:   0007d41c
ram:0007d482    97f82c00        ldrb.w      param_1,[r7,#0x2c]                      
ram:0007d486    a842            cmp         param_1,r5                              
ram:0007d488    cad8            bhi         LAB_0007d420                            
ram:0007d48a    0020            movs        param_1,#0x0                            
ram:0007d48c    d2e7            b           LAB_0007d434                            
                            LAB_0007d48e:                 ;XREF[2,0]:   0007d418,0007d46e
ram:0007d48e    ffe7            b           LAB_0007d490                            
                            LAB_0007d490:                 ;XREF[1,0]:   0007d48e
ram:0007d490    0720            movs        param_1,#0x7                            
ram:0007d492    cfe7            b           LAB_0007d434                            
                            ;************************************************************************************************
                            ;*                                           FUNCTION                                           *
                            ;************************************************************************************************
                            ;undefined thunk_FUN_0007ae04(void)
                                                          ;XREF[0,2]:   0007c666,0007c6dc
ram:0007d494    fdf7b6bc        b.w         FUN_0007ae04                            ;undefined FUN_0007ae04(void)
                            ;************************************************************************************************
                            ;*                                           FUNCTION                                           *
                            ;************************************************************************************************
                            ;undefined4 FUN_0007d498(int param_1)
          ;param_1       int                 r0                      
                                                          ;XREF[1,0]:   0007c5e6
ram:0007d498    18b1            cbz         param_1,LAB_0007d4a2                    
ram:0007d49a    0349            ldr         r1,[DAT_0007d4a8]                       ;= 20002CC0h
ram:0007d49c    c860            str         param_1,[r1,#0xc]=>DAT_20002ccc         
ram:0007d49e    0020            movs        param_1,#0x0                            
ram:0007d4a0    7047            bx          lr                                      
                            LAB_0007d4a2:                 ;XREF[1,0]:   0007d498
ram:0007d4a2    0e20            movs        param_1,#0xe                            
ram:0007d4a4    7047            bx          lr                                      
ram:0007d4a6    0000            movs        r0,r0                                   
                            DAT_0007d4a8:                 ;XREF[1,0]:   0007d49a
ram:0007d4a8    c02c0020        undefined4  20002CC0h                               
                            ;************************************************************************************************
                            ;*                                           FUNCTION                                           *
                            ;************************************************************************************************
                            ;undefined FUN_0007d4ac(void)
          ;local_c       undefined4          -c                      ;XREF[1,0]:   0007d4b0
          ;local_10      undefined4         -10                      ;XREF[1,0]:   0007d4b2
                                                          ;XREF[1,0]:   0007b628
ram:0007d4ac    1cb5            push        {r2,r3,r4,lr}                           
ram:0007d4ae    0349            ldr         r1,[DAT_0007d4bc]                       ;= 20002C00h
ram:0007d4b0    0191            str         r1,[sp,#local_c+0x10]                   
ram:0007d4b2    0091            str         r1,[sp,#0x0]=>local_10                  
ram:0007d4b4    6946            mov         r1,sp                                   
ram:0007d4b6    60df            svc         0x60                                    
ram:0007d4b8    1cbd            pop         {r2,r3,r4,pc}                           
ram:0007d4ba    0000            movs        r0,r0                                   
                            DAT_0007d4bc:                 ;XREF[1,0]:   0007d4ae
ram:0007d4bc    002c0020        undefined4  20002C00h                               
                            ;************************************************************************************************
                            ;*                                           FUNCTION                                           *
                            ;************************************************************************************************
                            ;undefined4 FUN_0007d4c0(int param_1, undefined param_2, undefined2 * param_3)
          ;param_1       int                 r0                      
          ;param_2       undefined           r1                      
          ;param_3       undefined2 *        r2                      
                                                          ;XREF[1,0]:   0007b616
ram:0007d4c0    70b5            push        {r4,r5,r6,lr}                           
ram:0007d4c2    0e46            mov         r6,param_2                              
ram:0007d4c4    0546            mov         r5,param_1                              
ram:0007d4c6    1446            mov         r4,param_3                              
ram:0007d4c8    1c21            movs        param_2,#0x1c                           
ram:0007d4ca    1046            mov         param_1,param_3                         
ram:0007d4cc    fdf76ff8        bl          FUN_0007a5ae                            ;undefined FUN_0007a5ae(undefined * p...
ram:0007d4d0    0120            movs        param_1,#0x1                            
ram:0007d4d2    2080            strh        param_1,[r4,#0x0]                       
ram:0007d4d4    0021            movs        param_2,#0x0                            
ram:0007d4d6    a161            str         param_2,[r4,#0x18]                      
ram:0007d4d8    2175            strb        param_2,[r4,#0x14]                      
ram:0007d4da    2672            strb        r6,[r4,#0x8]                            
ram:0007d4dc    6572            strb        r5,[r4,#0x9]                            
ram:0007d4de    05b1            cbz         r5,LAB_0007d4e2                         
ram:0007d4e0    a072            strb        param_1,[r4,#0xa]                       
                            LAB_0007d4e2:                 ;XREF[1,0]:   0007d4de
ram:0007d4e2    0020            movs        param_1,#0x0                            
ram:0007d4e4    70bd            pop         {r4,r5,r6,pc}                           
                            ;************************************************************************************************
                            ;*                                           FUNCTION                                           *
                            ;************************************************************************************************
                            ;undefined FUN_0007d4e6(undefined4 param_1, int param_2, undefined4 param_3, uint param_4)
          ;param_1       undefined4          r0                      
          ;param_2       int                 r1                      
          ;param_3       undefined4          r2                      
          ;param_4       uint                r3                      
          ;local_18      undefined4         -18                      
                                                          ;XREF[0,2]:   0007d4fa,0007d504
ram:0007d4e6    10b5            push        {r4,lr}                                 
ram:0007d4e8    11b1            cbz         param_2,LAB_0007d4f0                    
ram:0007d4ea    0020            movs        param_1,#0x0                            
ram:0007d4ec    fdf78afc        bl          FUN_0007ae04                            ;undefined FUN_0007ae04(void)
                            LAB_0007d4f0:                 ;XREF[1,0]:   0007d4e8
ram:0007d4f0    bde81040        pop.w       {r4,lr}                                 
ram:0007d4f4    fff7f0b9        b.w         FUN_0007c8d8                            
                            ;************************************************************************************************
                            ;*                                           FUNCTION                                           *
                            ;************************************************************************************************
                            ;undefined LAB_0007d4f8+1(void)
                                                          ;XREF[0,2]:   0007b5fe,0007b648
ram:0007d4f8    0021            movs        r1,#0x0                                 
ram:0007d4fa    024a            ldr         r2=>FUN_0007d4e6+1,[PTR_FUN_0007d4e6+...;= 0007d4e7
ram:0007d4fc    0846            mov         r0,r1                                   
ram:0007d4fe    fdf7c1bc        b.w         FUN_0007ae84                            ;undefined4 FUN_0007ae84(undefined4 *...
ram:0007d502    00              ??          00h                                     
ram:0007d503    00              ??          00h                                     
                            PTR_FUN_0007d4e6+1_0007d504:  ;XREF[1,0]:   0007d4fa
ram:0007d504    e7d40700        addr        FUN_0007d4e6+1                          
                            ;************************************************************************************************
                            ;*                                           FUNCTION                                           *
                            ;************************************************************************************************
                            ;undefined thunk_FUN_0007ade0(void)
                                                          ;XREF[0,2]:   0007d522,0007d53c
ram:0007d508    fdf76abc        b.w         FUN_0007ade0                            ;undefined FUN_0007ade0(void)
                            ;************************************************************************************************
                            ;*                                           FUNCTION                                           *
                            ;************************************************************************************************
                            ;int FUN_0007d50c(int param_1, uint param_2, undefined2 param_3, undefined4 param_4)
          ;param_1       int                 r0                      
          ;param_2       uint                r1                      
          ;param_3       undefined2          r2                      
          ;param_4       undefined4          r3                      
                                                          ;XREF[1,0]:   0007b606
ram:0007d50c    30b4            push        {r4,r5}                                 
ram:0007d50e    09b1            cbz         param_2,LAB_0007d514                    
ram:0007d510    8c07            lsls        r4,param_2,#0x1e                        
ram:0007d512    02d0            beq         LAB_0007d51a                            
                            LAB_0007d514:                 ;XREF[1,0]:   0007d50e
ram:0007d514    0720            movs        param_1,#0x7                            
                            LAB_0007d516:                 ;XREF[1,0]:   0007d52a
ram:0007d516    30bc            pop         {r4,r5}                                 
ram:0007d518    7047            bx          lr                                      
                            LAB_0007d51a:                 ;XREF[1,0]:   0007d512
ram:0007d51a    074c            ldr         r4,[DAT_0007d538]                       ;= 20002CC0h
ram:0007d51c    0125            movs        r5,#0x1                                 
ram:0007d51e    a160            str         param_2,[r4,#0x8]=>DAT_20002cc8         
ram:0007d520    6280            strh        param_3,[r4,#0x2]=>DAT_20002cc2         
ram:0007d522    0649            ldr         param_2=>thunk_F...,[PTR_thunk_FUN_00...;= 0007d509
ram:0007d524    6360            str         param_4,[r4,#0x4]=>DAT_20002cc4         
ram:0007d526    10df            svc         0x10                                    
ram:0007d528    0028            cmp         param_1,#0x0                            
ram:0007d52a    f4d1            bne         LAB_0007d516                            
ram:0007d52c    2570            strb        r5,[r4,#0x0]=>DAT_20002cc0              
ram:0007d52e    30bc            pop         {r4,r5}                                 
ram:0007d530    1620            movs        param_1,#0x16                           
ram:0007d532    fff7f1be        b.w         FUN_0007d318                            ;undefined4 FUN_0007d318(uint param_1)
ram:0007d536    00              ??          00h                                     
ram:0007d537    00              ??          00h                                     
                            DAT_0007d538:                 ;XREF[1,0]:   0007d51a
ram:0007d538    c02c0020        undefined4  20002CC0h                               
                            PTR_thunk_FUN_0007ade0+1_00...;XREF[1,0]:   0007d522
ram:0007d53c    09d50700        addr        thunk_FUN_0007ade0+1                    
                            ;************************************************************************************************
                            ;*                                           FUNCTION                                           *
                            ;************************************************************************************************
                            ;undefined4 FUN_0007d540(int param_1)
          ;param_1       int                 r0                      
                                                          ;XREF[1,0]:   0007b634
ram:0007d540    18b1            cbz         param_1,LAB_0007d54a                    
ram:0007d542    0349            ldr         r1,[DAT_0007d550]                       ;= 20002CC0h
ram:0007d544    0861            str         param_1,[r1,#0x10]=>DAT_20002cd0        
ram:0007d546    0020            movs        param_1,#0x0                            
ram:0007d548    7047            bx          lr                                      
                            LAB_0007d54a:                 ;XREF[1,0]:   0007d540
ram:0007d54a    0e20            movs        param_1,#0xe                            
ram:0007d54c    7047            bx          lr                                      
ram:0007d54e    0000            movs        r0,r0                                   
                            DAT_0007d550:                 ;XREF[1,0]:   0007d542
ram:0007d550    c02c0020        undefined4  20002CC0h                               
                            LAB_0007d554:                 ;XREF[1,0]:   0007d0d4
ram:0007d554    10b5            push        {r4,lr}                                 
ram:0007d556    88b0            sub         sp,#0x20                                
ram:0007d558    0446            mov         r4,param_1                              
ram:0007d55a    0020            movs        param_1,#0x0                            
ram:0007d55c    0090            str         param_1,[sp,#0x0]=>local_28             
ram:0007d55e    0190            str         param_1,[sp,#local_24+0x28]             
ram:0007d560    0290            str         param_1,[sp,#local_20+0x28]             
ram:0007d562    0390            str         param_1,[sp,#local_1c+0x28]             
ram:0007d564    1948            ldr         param_1,[DAT_0007d5cc]                  ;= 20002C64h
ram:0007d566    1a4a            ldr         r2,[PTR_DAT_0007d5d0]                   ;= 0007d964
ram:0007d568    4079            ldrb        param_1,[param_1,#0x5]=>DAT_20002c69    
ram:0007d56a    8df80000        strb.w      param_1,[sp,#0x0]=>local_28             
ram:0007d56e    1068            ldr         param_1,[r2,#0x0]=>DAT_0007d964         ;= 00000003h
ram:0007d570    9268            ldr         r2,[r2,#0x8]=>DAT_0007d96c              
ram:0007d572    0490            str         param_1,[sp,#local_18+0x28]             
ram:0007d574    6846            mov         param_1,sp                              
ram:0007d576    cde90502        strd        param_1,r2,[sp,#local_14+0x28]          
ram:0007d57a    087a            ldrb        param_1,[param_2,#0x8]                  
ram:0007d57c    0c28            cmp         param_1,#0xc                            
ram:0007d57e    05d0            beq         LAB_0007d58c                            
ram:0007d580    0322            movs        r2,#0x3                                 
ram:0007d582    1ce0            b           LAB_0007d5be                            
                            LAB_0007d584:                 ;XREF[1,0]:   0007d5c8
ram:0007d584    fdf73efc        bl          FUN_0007ae04                            ;undefined FUN_0007ae04(void)
                            LAB_0007d588:                 ;XREF[2,0]:   0007d5b4,0007d5ca
ram:0007d588    08b0            add         sp,#0x20                                
ram:0007d58a    10bd            pop         {r4,pc}                                 
                            LAB_0007d58c:                 ;XREF[1,0]:   0007d57e
ram:0007d58c    4868            ldr         param_1,[param_2,#0x4]                  
ram:0007d58e    c278            ldrb        r2,[param_1,#0x3]                       
ram:0007d590    0168            ldr         param_2,[param_1,#0x0]                  
ram:0007d592    62f31f61        bfi         param_2,r2,#0x18,#0x8                   
ram:0007d596    0191            str         param_2,[sp,#local_24+0x28]             
ram:0007d598    c279            ldrb        r2,[param_1,#0x7]                       
ram:0007d59a    4168            ldr         param_2,[param_1,#0x4]                  
ram:0007d59c    62f31f61        bfi         param_2,r2,#0x18,#0x8                   
ram:0007d5a0    0291            str         param_2,[sp,#local_20+0x28]             
ram:0007d5a2    c17a            ldrb        param_2,[param_1,#0xb]                  
ram:0007d5a4    8068            ldr         param_1,[param_1,#0x8]                  
ram:0007d5a6    61f31f60        bfi         param_1,param_2,#0x18,#0x8              
ram:0007d5aa    0390            str         param_1,[sp,#local_1c+0x28]             
ram:0007d5ac    04a8            add         param_1,sp,#0x10                        
ram:0007d5ae    fef75dff        bl          FUN_0007c46c                            ;int FUN_0007c46c(int param_1)
ram:0007d5b2    0028            cmp         param_1,#0x0                            
ram:0007d5b4    e8d0            beq         LAB_0007d588                            
ram:0007d5b6    0121            movs        param_2,#0x1                            
ram:0007d5b8    fff7e5fb        bl          FUN_0007cd86                            ;undefined4 FUN_0007cd86(int param_1,...
ram:0007d5bc    0246            mov         r2,param_1                              
                            LAB_0007d5be:                 ;XREF[1,0]:   0007d582
ram:0007d5be    0121            movs        param_2,#0x1                            
ram:0007d5c0    2046            mov         param_1,r4                              
ram:0007d5c2    fdf7c5ff        bl          FUN_0007b550                            ;undefined8 FUN_0007b550(ushort * par...
ram:0007d5c6    0028            cmp         param_1,#0x0                            
ram:0007d5c8    dcd1            bne         LAB_0007d584                            
ram:0007d5ca    dde7            b           LAB_0007d588                            
                            DAT_0007d5cc:                 ;XREF[1,0]:   0007d564
ram:0007d5cc    642c0020        undefined4  20002C64h                               
                            PTR_DAT_0007d5d0:             ;XREF[1,0]:   0007d566
ram:0007d5d0    64d90700        addr        DAT_0007d964                            ;= 00000003h
                            ;************************************************************************************************
                            ;*                                           FUNCTION                                           *
                            ;************************************************************************************************
                            ;undefined thunk_FUN_0007d220(int param_1)
          ;param_1       int                 r0                      
                                                          ;XREF[0,2]:   0007b632,0007b650
ram:0007d5d4    fff724be        b.w         FUN_0007d220                            
                            ;************************************************************************************************
                            ;*                                           FUNCTION                                           *
                            ;************************************************************************************************
                            ;undefined FUN_0007d5d8(void)
          ;local_28      undefined4         -28                      ;XREF[1,0]:   0007d5fc
                                                          ;XREF[1,0]:   0007a6e8
ram:0007d5d8    2de9f84f        push        {r3,r4,r5,r6,r7,r8,r9,r10,r11,lr}       
ram:0007d5dc    204c            ldr         r4,[DAT_0007d660]                       ;= 20002CA0h
ram:0007d5de    0025            movs        r5,#0x0                                 
ram:0007d5e0    6846            mov         r0,sp                                   
                                                          ; FWD[2,0]:   20002cac,20002cb0
ram:0007d5e2    d4e903b6        ldrd        r11,r6,[r4,#0xc]=>DAT_20002cac          
ram:0007d5e6    fff77df8        bl          FUN_0007c6e4                            ;undefined4 FUN_0007c6e4(int * param_1)
ram:0007d5ea    8046            mov         r8,r0                                   
ram:0007d5ec    fff7f0f9        bl          FUN_0007c9d0                            ;bool FUN_0007c9d0(void)
ram:0007d5f0    0746            mov         r7,r0                                   
ram:0007d5f2    a946            mov         r9,r5                                   
ram:0007d5f4    b8f1000f        cmp.w       r8,#0x0                                 
ram:0007d5f8    25d0            beq         LAB_0007d646                            
ram:0007d5fa    0023            movs        r3,#0x0                                 
ram:0007d5fc    009a            ldr         r2,[sp,#0x0]=>local_28                  
ram:0007d5fe    cc46            mov         r12,r9                                  
ram:0007d600    e068            ldr         r0,[r4,#0xc]=>DAT_20002cac              
ram:0007d602    19e0            b           LAB_0007d638                            
                            LAB_0007d604:                 ;XREF[1,0]:   0007d63a
ram:0007d604    0768            ldr         r7,[r0,#0x0]                            
ram:0007d606    0146            mov         r1,r0                                   
ram:0007d608    9742            cmp         r7,r2                                   
ram:0007d60a    02d9            bls         LAB_0007d612                            
ram:0007d60c    ba1a            subs        r2,r7,r2                                
ram:0007d60e    0260            str         r2,[r0,#0x0]                            
ram:0007d610    14e0            b           LAB_0007d63c                            
                            LAB_0007d612:                 ;XREF[1,0]:   0007d60a
ram:0007d612    c1f800c0        str.w       r12,[r1,#0x0]                           
ram:0007d616    d1f80c80        ldr.w       r8,[r1,#0xc]                            
ram:0007d61a    d21b            subs        r2,r2,r7                                
ram:0007d61c    c869            ldr         r0,[r1,#0x1c]                           
ram:0007d61e    3b44            add         r3,r7                                   
ram:0007d620    8a46            mov         r10,r1                                  
ram:0007d622    b8f1000f        cmp.w       r8,#0x0                                 
ram:0007d626    07d0            beq         LAB_0007d638                            
ram:0007d628    f718            adds        r7,r6,r3                                
ram:0007d62a    27f07f47        bic         r7,r7,#0xff000000                       
ram:0007d62e    c1e90178        strd        r7,r8,[r1,#0x4]                         
ram:0007d632    caf81c50        str.w       r5,[r10,#0x1c]                          
ram:0007d636    0d46            mov         r5,r1                                   
                            LAB_0007d638:                 ;XREF[2,0]:   0007d602,0007d626
ram:0007d638    0028            cmp         r0,#0x0                                 
ram:0007d63a    e3d1            bne         LAB_0007d604                            
                            LAB_0007d63c:                 ;XREF[1,0]:   0007d610
ram:0007d63c    e060            str         r0,[r4,#0xc]=>DAT_20002cac              
ram:0007d63e    2846            mov         r0,r5                                   
ram:0007d640    fff724fa        bl          FUN_0007ca8c                            ;bool FUN_0007ca8c(uint * param_1)
ram:0007d644    04e0            b           LAB_0007d650                            
                            LAB_0007d646:                 ;XREF[1,0]:   0007d5f8
ram:0007d646    2846            mov         r0,r5                                   
ram:0007d648    fff720fa        bl          FUN_0007ca8c                            ;bool FUN_0007ca8c(uint * param_1)
ram:0007d64c    00b9            cbnz        r0,LAB_0007d650                         
ram:0007d64e    17b1            cbz         r7,LAB_0007d656                         
                            LAB_0007d650:                 ;XREF[2,0]:   0007d644,0007d64c
ram:0007d650    5846            mov         r0,r11                                  
ram:0007d652    fef7d7f9        bl          FUN_0007ba04                            ;undefined FUN_0007ba04(void)
                            LAB_0007d656:                 ;XREF[1,0]:   0007d64e
ram:0007d656    84f80490        strb.w      r9,[r4,#0x4]=>DAT_20002ca4              
ram:0007d65a    bde8f88f        pop.w       {r3,r4,r5,r6,r7,r8,r9,r10,r11,pc}       
ram:0007d65e    00              ??          00h                                     
ram:0007d65f    00              ??          00h                                     
                            DAT_0007d660:                 ;XREF[1,0]:   0007d5dc
ram:0007d660    a02c0020        undefined4  20002CA0h                               
                            ;************************************************************************************************
                            ;*                                           FUNCTION                                           *
                            ;************************************************************************************************
                            ;undefined FUN_0007d664(uint * param_1)
          ;param_1       uint *              r0                      
                                                          ;XREF[1,0]:   0007cb28
ram:0007d664    0d4b            ldr         r3,[DAT_0007d69c]                       ;= 20002CA0h
ram:0007d666    10b5            push        {r4,lr}                                 
ram:0007d668    d968            ldr         r1,[r3,#0xc]=>DAT_20002cac              
ram:0007d66a    31b1            cbz         r1,LAB_0007d67a                         
ram:0007d66c    0268            ldr         r2,[param_1,#0x0]                       
ram:0007d66e    0c68            ldr         r4,[r1,#0x0]                            
ram:0007d670    a242            cmp         r2,r4                                   
ram:0007d672    04d8            bhi         LAB_0007d67e                            
ram:0007d674    a21a            subs        r2,r4,r2                                
ram:0007d676    0a60            str         r2,[r1,#0x0]                            
ram:0007d678    c161            str         r1,[param_1,#0x1c]                      
                            LAB_0007d67a:                 ;XREF[1,0]:   0007d66a
ram:0007d67a    d860            str         param_1,[r3,#0xc]=>DAT_20002cac         
ram:0007d67c    10bd            pop         {r4,pc}                                 
                            LAB_0007d67e:                 ;XREF[1,0]:   0007d672
ram:0007d67e    0b46            mov         r3,r1                                   
ram:0007d680    03e0            b           LAB_0007d68a                            
                            LAB_0007d682:                 ;XREF[1,0]:   0007d68e
ram:0007d682    0b46            mov         r3,r1                                   
ram:0007d684    c969            ldr         r1,[r1,#0x1c]                           
ram:0007d686    121b            subs        r2,r2,r4                                
ram:0007d688    21b1            cbz         r1,LAB_0007d694                         
                            LAB_0007d68a:                 ;XREF[1,0]:   0007d680
ram:0007d68a    0c68            ldr         r4,[r1,#0x0]                            
ram:0007d68c    9442            cmp         r4,r2                                   
ram:0007d68e    f8d3            bcc         LAB_0007d682                            
ram:0007d690    a41a            subs        r4,r4,r2                                
ram:0007d692    0c60            str         r4,[r1,#0x0]                            
                            LAB_0007d694:                 ;XREF[1,0]:   0007d688
ram:0007d694    0260            str         r2,[param_1,#0x0]                       
ram:0007d696    c161            str         r1,[param_1,#0x1c]                      
ram:0007d698    d861            str         param_1,[r3,#0x1c]                      
ram:0007d69a    10bd            pop         {r4,pc}                                 
                            DAT_0007d69c:                 ;XREF[1,0]:   0007d664
ram:0007d69c    a02c0020        undefined4  20002CA0h                               
                            ;************************************************************************************************
                            ;*                                           FUNCTION                                           *
                            ;************************************************************************************************
                            ;undefined FUN_0007d6a0(void)
                                                          ;XREF[1,0]:   0007a6e0
ram:0007d6a0    2de9f041        push        {r4,r5,r6,r7,r8,lr}                     
ram:0007d6a4    1d4d            ldr         r5,[DAT_0007d71c]                       ;= 20002CA0h
ram:0007d6a6    ec68            ldr         r4,[r5,#0xc]=>DAT_20002cac              
ram:0007d6a8    002c            cmp         r4,#0x0                                 
ram:0007d6aa    35d0            beq         LAB_0007d718                            
ram:0007d6ac    1c48            ldr         r0,[DAT_0007d720]                       ;= 40011504h
ram:0007d6ae    0027            movs        r7,#0x0                                 
ram:0007d6b0    0068            ldr         r0,[r0,#0x0]=>DAT_40011504              
ram:0007d6b2    2969            ldr         r1,[r5,#0x10]=>DAT_20002cb0             
ram:0007d6b4    b846            mov         r8,r7                                   
ram:0007d6b6    401a            subs        r0,r0,r1                                
ram:0007d6b8    20f07f46        bic         r6,r0,#0xff000000                       
                            LAB_0007d6bc:                 ;XREF[1,0]:   0007d6ec
ram:0007d6bc    2068            ldr         r0,[r4,#0x0]                            
ram:0007d6be    b042            cmp         r0,r6                                   
ram:0007d6c0    15d8            bhi         LAB_0007d6ee                            
ram:0007d6c2    2246            mov         r2,r4                                   
ram:0007d6c4    361a            subs        r6,r6,r0                                
ram:0007d6c6    0744            add         r7,r0                                   
ram:0007d6c8    e469            ldr         r4,[r4,#0x1c]                           
ram:0007d6ca    107c            ldrb        r0,[r2,#0x10]                           
ram:0007d6cc    68b1            cbz         r0,LAB_0007d6ea                         
ram:0007d6ce    82f81080        strb.w      r8,[r2,#0x10]                           
ram:0007d6d2    6b69            ldr         r3,[r5,#0x14]=>DAT_20002cb4             
ram:0007d6d4    33b1            cbz         r3,LAB_0007d6e4                         
ram:0007d6d6    d2e90501        ldrd        r0,r1,[r2,#0x14]                        
ram:0007d6da    9847            blx         r3                                      
ram:0007d6dc    28b1            cbz         r0,LAB_0007d6ea                         
ram:0007d6de    fdf791fb        bl          FUN_0007ae04                            ;undefined FUN_0007ae04(void)
ram:0007d6e2    02e0            b           LAB_0007d6ea                            
                            LAB_0007d6e4:                 ;XREF[1,0]:   0007d6d4
ram:0007d6e4    d2e90510        ldrd        r1,r0,[r2,#0x14]                        
ram:0007d6e8    8847            blx         r1                                      
                            LAB_0007d6ea:                 ;XREF[3,0]:   0007d6cc,0007d6dc,0007d6e2
ram:0007d6ea    002c            cmp         r4,#0x0                                 
ram:0007d6ec    e6d1            bne         LAB_0007d6bc                            
                            LAB_0007d6ee:                 ;XREF[1,0]:   0007d6c0
ram:0007d6ee    6978            ldrb        r1,[r5,#0x1]=>DAT_20002ca1              
ram:0007d6f0    a878            ldrb        r0,[r5,#0x2]=>DAT_20002ca2              
ram:0007d6f2    8142            cmp         r1,r0                                   
ram:0007d6f4    06d1            bne         LAB_0007d704                            
ram:0007d6f6    401c            adds        r0,r0,#0x1                              
ram:0007d6f8    c0b2            uxtb        r0,r0                                   
ram:0007d6fa    a870            strb        r0,[r5,#0x2]=>DAT_20002ca2              
ram:0007d6fc    0228            cmp         r0,#0x2                                 
ram:0007d6fe    01d1            bne         LAB_0007d704                            
ram:0007d700    85f80280        strb.w      r8,[r5,#0x2]=>DAT_20002ca2              
                            LAB_0007d704:                 ;XREF[2,0]:   0007d6f4,0007d6fe
ram:0007d704    0548            ldr         r0,[DAT_0007d71c]                       ;= 20002CA0h
ram:0007d706    a978            ldrb        r1,[r5,#0x2]=>DAT_20002ca2              
ram:0007d708    1830            adds        r0,#0x18                                
ram:0007d70a    40f82170        str.w       r7,r0=>DAT_20002cb8,r1,0x2              
ram:0007d70e    bde8f041        pop.w       {r4,r5,r6,r7,r8,lr}                     
ram:0007d712    1420            movs        r0,#0x14                                
ram:0007d714    fcf7babf        b.w         FUN_0007a68c                            ;undefined FUN_0007a68c(uint param_1)
                            LAB_0007d718:                 ;XREF[1,0]:   0007d6aa
ram:0007d718    bde8f081        pop.w       {r4,r5,r6,r7,r8,pc}                     
                            DAT_0007d71c:                 ;XREF[2,0]:   0007d6a4,0007d704
ram:0007d71c    a02c0020        undefined4  20002CA0h                               
                            DAT_0007d720:                 ;XREF[1,0]:   0007d6ac
ram:0007d720    04150140        undefined4  40011504h                               
                            ;************************************************************************************************
                            ;*                                           FUNCTION                                           *
                            ;************************************************************************************************
                            ;undefined4 FUN_0007d724(undefined4 param_1, undefined * param_2)
          ;param_1       undefined4          r0                      
          ;param_2       undefined *         r1                      
                                                          ;XREF[5,0]:   0007ab12,0007bb1a,0007bb2a,0007cca6
                                                          ;             0007d45c
ram:0007d724    0870            strb        param_1,[param_2,#0x0]                  
ram:0007d726    000a            lsrs        param_1,param_1,#0x8                    
ram:0007d728    4870            strb        param_1,[param_2,#0x1]                  
ram:0007d72a    0220            movs        param_1,#0x2                            
ram:0007d72c    7047            bx          lr                                      
                            ;************************************************************************************************
                            ;*                                           FUNCTION                                           *
                            ;************************************************************************************************
                            ;undefined4 FUN_0007d72e(undefined4 param_1, undefined * param_2)
          ;param_1       undefined4          r0                      
          ;param_2       undefined *         r1                      
                                                          ;XREF[2,0]:   0007b386,0007b50e
ram:0007d72e    0870            strb        param_1,[param_2,#0x0]                  
ram:0007d730    020a            lsrs        r2,param_1,#0x8                         
ram:0007d732    4a70            strb        r2,[param_2,#0x1]                       
ram:0007d734    020c            lsrs        r2,param_1,#0x10                        
ram:0007d736    8a70            strb        r2,[param_2,#0x2]                       
ram:0007d738    000e            lsrs        param_1,param_1,#0x18                   
ram:0007d73a    c870            strb        param_1,[param_2,#0x3]                  
ram:0007d73c    0420            movs        param_1,#0x4                            
ram:0007d73e    7047            bx          lr                                      
                            ;************************************************************************************************
                            ;*                                           FUNCTION                                           *
                            ;************************************************************************************************
                            ;undefined FUN_0007d740(void)
          ;local_10      undefined1         -10                      ;XREF[1,0]:   0007d78e
ram:0007d740    38b5            push        {r3,r4,r5,lr}                           
ram:0007d742    1549            ldr         r1,[DAT_0007d798]                       ;= 20002C08h
ram:0007d744    4888            ldrh        r0,[r1,#0x2]=>DAT_20002c0a              
ram:0007d746    a0f57f42        sub.w       r2,r0,#0xff00                           
ram:0007d74a    ff3a            subs        r2,#0xff                                
ram:0007d74c    23d0            beq         LAB_0007d796                            
ram:0007d74e    4a78            ldrb        r2,[r1,#0x1]=>DAT_20002c09              
ram:0007d750    124c            ldr         r4,[DAT_0007d79c]                       ;= 2000306Ch
ram:0007d752    521c            adds        r2,r2,#0x1                              
ram:0007d754    d2b2            uxtb        r2,r2                                   
ram:0007d756    4a70            strb        r2,[r1,#0x1]=>DAT_20002c09              
ram:0007d758    237b            ldrb        r3,[r4,#0xc]=>DAT_20003078              
ram:0007d75a    9342            cmp         r3,r2                                   
ram:0007d75c    0ad3            bcc         LAB_0007d774                            
ram:0007d75e    091d            adds        r1,r1,#0x4                              
ram:0007d760    75df            svc         0x75                                    
ram:0007d762    0028            cmp         r0,#0x0                                 
ram:0007d764    17d0            beq         LAB_0007d796                            
ram:0007d766    a169            ldr         r1,[r4,#0x18]=>DAT_20003084             
ram:0007d768    0029            cmp         r1,#0x0                                 
ram:0007d76a    14d0            beq         LAB_0007d796                            
ram:0007d76c    01b0            add         sp,#0x4                                 
ram:0007d76e    bde83040        pop.w       {r4,r5,lr}                              
ram:0007d772    0847            bx          r1                                      
                            LAB_0007d774:                 ;XREF[1,0]:   0007d75c
ram:0007d774    0025            movs        r5,#0x0                                 
ram:0007d776    4d70            strb        r5,[r1,#0x1]=>DAT_20002c09              
ram:0007d778    217c            ldrb        r1,[r4,#0x10]=>DAT_2000307c             
ram:0007d77a    29b1            cbz         r1,LAB_0007d788                         
ram:0007d77c    3b21            movs        r1,#0x3b                                
ram:0007d77e    76df            svc         0x76                                    
ram:0007d780    10b1            cbz         r0,LAB_0007d788                         
ram:0007d782    a169            ldr         r1,[r4,#0x18]=>DAT_20003084             
ram:0007d784    01b1            cbz         r1,LAB_0007d788                         
ram:0007d786    8847            blx         r1                                      
                            LAB_0007d788:                 ;XREF[3,0]:   0007d77a,0007d780,0007d784
ram:0007d788    6169            ldr         r1,[r4,#0x14]=>DAT_20003080             
ram:0007d78a    0029            cmp         r1,#0x0                                 
ram:0007d78c    03d0            beq         LAB_0007d796                            
ram:0007d78e    8df80050        strb.w      r5,[sp,#0x0]=>local_10                  
ram:0007d792    6846            mov         r0,sp                                   
ram:0007d794    8847            blx         r1                                      
                            LAB_0007d796:                 ;XREF[4,0]:   0007d74c,0007d764,0007d76a,0007d78c
ram:0007d796    38bd            pop         {r3,r4,r5,pc}                           
                            DAT_0007d798:                 ;XREF[1,0]:   0007d742
ram:0007d798    082c0020        undefined4  20002C08h                               
                            DAT_0007d79c:                 ;XREF[1,0]:   0007d750
ram:0007d79c    6c300020        undefined4  2000306Ch                               
                            ;************************************************************************************************
                            ;*                                           FUNCTION                                           *
                            ;************************************************************************************************
                            ;undefined4 FUN_0007d7a0(void)
                                                          ;XREF[2,0]:   0007b080,0007b0e8
ram:0007d7a0    eff30580        mrs         r0,ipsr                                 
ram:0007d7a4    c005            lsls        r0,r0,#0x17                             
ram:0007d7a6    c00d            lsrs        r0,r0,#0x17                             
ram:0007d7a8    13d0            beq         LAB_0007d7d2                            
ram:0007d7aa    1038            subs        r0,#0x10                                
ram:0007d7ac    40b2            sxtb        r0,r0                                   
ram:0007d7ae    0028            cmp         r0,#0x0                                 
ram:0007d7b0    06da            bge         LAB_0007d7c0                            
ram:0007d7b2    00f00f00        and         r0,r0,#0xf                              
ram:0007d7b6    00f1e020        add.w       r0,r0,#0xe000e000                       
ram:0007d7ba    90f8140d        ldrb.w      r0,[r0,#0xd14]                          
ram:0007d7be    03e0            b           LAB_0007d7c8                            
                            LAB_0007d7c0:                 ;XREF[1,0]:   0007d7b0
ram:0007d7c0    00f1e020        add.w       r0,r0,#0xe000e000                       
ram:0007d7c4    90f80004        ldrb.w      r0,[r0,#0x400]                          
                            LAB_0007d7c8:                 ;XREF[1,0]:   0007d7be
ram:0007d7c8    4009            lsrs        r0,r0,#0x5                              
ram:0007d7ca    0228            cmp         r0,#0x2                                 
ram:0007d7cc    03d0            beq         LAB_0007d7d6                            
ram:0007d7ce    0628            cmp         r0,#0x6                                 
ram:0007d7d0    03d0            beq         LAB_0007d7da                            
                            LAB_0007d7d2:                 ;XREF[1,0]:   0007d7a8
ram:0007d7d2    0220            movs        r0,#0x2                                 
ram:0007d7d4    7047            bx          lr                                      
                            LAB_0007d7d6:                 ;XREF[1,0]:   0007d7cc
ram:0007d7d6    0020            movs        r0,#0x0                                 
ram:0007d7d8    7047            bx          lr                                      
                            LAB_0007d7da:                 ;XREF[1,0]:   0007d7d0
ram:0007d7da    0120            movs        r0,#0x1                                 
ram:0007d7dc    7047            bx          lr                                      
                            ;************************************************************************************************
                            ;*                                           FUNCTION                                           *
                            ;************************************************************************************************
                            ;int FUN_0007d7de(char * param_1, char * param_2)
          ;param_1       char *              r0                      
          ;param_2       char *              r1                      
                                                          ;XREF[2,0]:   0007b090,0007b0f6
ram:0007d7de    4278            ldrb        r2,[param_1,#0x1]                       
ram:0007d7e0    8378            ldrb        r3,[param_1,#0x2]                       
ram:0007d7e2    521c            adds        r2,r2,#0x1                              
ram:0007d7e4    d2b2            uxtb        r2,r2                                   
ram:0007d7e6    9342            cmp         r3,r2                                   
ram:0007d7e8    00d1            bne         LAB_0007d7ec                            
ram:0007d7ea    0022            movs        r2,#0x0                                 
                            LAB_0007d7ec:                 ;XREF[1,0]:   0007d7e8
ram:0007d7ec    0378            ldrb        r3,[param_1,#0x0]                       
ram:0007d7ee    9342            cmp         r3,r2                                   
ram:0007d7f0    01d1            bne         LAB_0007d7f6                            
ram:0007d7f2    0020            movs        param_1,#0x0                            
ram:0007d7f4    7047            bx          lr                                      
                            LAB_0007d7f6:                 ;XREF[1,0]:   0007d7f0
ram:0007d7f6    0a70            strb        r2,[param_2,#0x0]                       
ram:0007d7f8    4168            ldr         param_2,[param_1,#0x4]                  
ram:0007d7fa    4078            ldrb        param_1,[param_1,#0x1]                  
ram:0007d7fc    00eb4000        add.w       param_1,param_1,param_1, lsl #0x1       
ram:0007d800    01ebc000        add.w       param_1,param_2,param_1, lsl #0x3       
ram:0007d804    7047            bx          lr                                      
                            ;************************************************************************************************
                            ;*                                           FUNCTION                                           *
                            ;************************************************************************************************
                            ;undefined8 FUN_0007d806(ushort * param_1, byte * param_2, byte * param_3, int param_4, ushort * param_5, byte * param_6)
          ;param_1       ushort *            r0                      
          ;param_2       byte *              r1                      
          ;param_3       byte *              r2                      
          ;param_4       int                 r3                      
          ;param_5       ushort *             0                      ;XREF[1,0]:   0007d80c
          ;param_6       byte *               4                      
          ;local_20      undefined4         -20                      ;XREF[2,0]:   0007d810,0007d822
                                                          ;XREF[3,0]:   0007ab98,0007abb2,0007abcc
ram:0007d806    2de9fc41        push        {param_3,param_4,r4,r5,r6,r7,r8,lr}     
ram:0007d80a    1646            mov         r6,param_3                              
ram:0007d80c    dde90854        ldrd        r5,r4,[sp,#param_5+0x20]                
ram:0007d810    cde90054        strd        r5,r4,[sp,#0x0]=>local_20               
ram:0007d814    1f46            mov         r7,param_4                              
ram:0007d816    8046            mov         r8,param_1                              
ram:0007d818    0222            movs        param_3,#0x2                            
ram:0007d81a    00f00cf8        bl          FUN_0007d836                            ;undefined8 FUN_0007d836(ushort * par...
ram:0007d81e    0028            cmp         param_1,#0x0                            
ram:0007d820    07d1            bne         LAB_0007d832                            
ram:0007d822    cde90054        strd        r5,r4,[sp,#0x0]=>local_20               
ram:0007d826    3b46            mov         param_4,r7                              
ram:0007d828    1022            movs        param_3,#0x10                           
ram:0007d82a    3146            mov         param_2,r6                              
ram:0007d82c    4046            mov         param_1,r8                              
ram:0007d82e    00f002f8        bl          FUN_0007d836                            ;undefined8 FUN_0007d836(ushort * par...
                            LAB_0007d832:                 ;XREF[1,0]:   0007d820
ram:0007d832    bde8fc81        pop.w       {param_3,param_4,r4,r5,r6,r7,r8,pc}     
                            ;************************************************************************************************
                            ;*                                           FUNCTION                                           *
                            ;************************************************************************************************
                            ;undefined8 FUN_0007d836(ushort * param_1, byte * param_2, uint param_3, int param_4, ushort * param_5, byte * param_6)
          ;param_1       ushort *            r0                      
          ;param_2       byte *              r1                      
          ;param_3       uint                r2                      
          ;param_4       int                 r3                      
          ;param_5       ushort *             0                      ;XREF[1,0]:   0007d83c
          ;param_6       byte *               4                      
          ;local_2c      undefined4         -2c                      ;XREF[1,0]:   0007d85c
          ;local_30      undefined1         -30                      ;XREF[2,0]:   0007d866,0007d8a6
                                                          ;XREF[2,0]:   0007d81a,0007d82e
ram:0007d836    2de9fc5f        push        {param_3,param_4,r4,r5,r6,r7,r8,r9,r1...
ram:0007d83a    0026            movs        r6,#0x0                                 
ram:0007d83c    dde90c4b        ldrd        r4,r11,[sp,#param_5+0x30]               
ram:0007d840    9946            mov         r9,param_4                              
ram:0007d842    9246            mov         r10,param_3                             
ram:0007d844    8e46            mov         lr,param_2                              
ram:0007d846    8046            mov         r8,param_1                              
ram:0007d848    2788            ldrh        r7,[r4,#0x0]                            
ram:0007d84a    3546            mov         r5,r6                                   
ram:0007d84c    30e0            b           LAB_0007d8b0                            
                            LAB_0007d84e:                 ;XREF[1,0]:   0007d8b6
ram:0007d84e    d8f80400        ldr.w       param_1,[r8,#0x4]                       
ram:0007d852    0022            movs        param_3,#0x0                            
ram:0007d854    00eb8500        add.w       param_1,param_1,r5, lsl #0x2            
ram:0007d858    6946            mov         param_2,sp                              
ram:0007d85a    0068            ldr         param_1,[param_1,#0x0]                  
ram:0007d85c    0190            str         param_1,[sp,#local_2c+0x30]             
ram:0007d85e    01a8            add         param_1,sp,#0x4                         
ram:0007d860    65df            svc         0x65                                    
ram:0007d862    0028            cmp         param_1,#0x0                            
ram:0007d864    30d1            bne         LAB_0007d8c8                            
ram:0007d866    9df80000        ldrb.w      param_1,[sp,#0x0]=>local_30             
ram:0007d86a    5045            cmp         param_1,r10                             
ram:0007d86c    1fd1            bne         LAB_0007d8ae                            
ram:0007d86e    0eb1            cbz         r6,LAB_0007d874                         
ram:0007d870    0021            movs        param_2,#0x0                            
ram:0007d872    00e0            b           LAB_0007d876                            
                            LAB_0007d874:                 ;XREF[1,0]:   0007d86e
ram:0007d874    0221            movs        param_2,#0x2                            
                            LAB_0007d876:                 ;XREF[1,0]:   0007d872
ram:0007d876    2288            ldrh        param_3,[r4,#0x0]                       
ram:0007d878    0844            add         param_1,param_2                         
ram:0007d87a    1118            adds        param_2,param_3,param_1                 
ram:0007d87c    5945            cmp         param_2,r11                             
ram:0007d87e    22d8            bhi         LAB_0007d8c6                            
ram:0007d880    46b9            cbnz        r6,LAB_0007d894                         
ram:0007d882    521c            adds        param_3,param_3,#0x1                    
ram:0007d884    90b2            uxth        param_1,param_3                         
ram:0007d886    2080            strh        param_1,[r4,#0x0]                       
ram:0007d888    09f800e0        strb.w      lr,r9,param_1,0x0                       
ram:0007d88c    2088            ldrh        param_1,[r4,#0x0]                       
ram:0007d88e    401c            adds        param_1,param_1,#0x1                    
ram:0007d890    2080            strh        param_1,[r4,#0x0]                       
ram:0007d892    0126            movs        r6,#0x1                                 
                            LAB_0007d894:                 ;XREF[1,0]:   0007d880
ram:0007d894    2188            ldrh        param_2,[r4,#0x0]                       
ram:0007d896    01a8            add         param_1,sp,#0x4                         
ram:0007d898    01eb0902        add.w       param_3,param_2,r9                      
ram:0007d89c    6946            mov         param_2,sp                              
ram:0007d89e    65df            svc         0x65                                    
ram:0007d8a0    0028            cmp         param_1,#0x0                            
ram:0007d8a2    11d1            bne         LAB_0007d8c8                            
ram:0007d8a4    2088            ldrh        param_1,[r4,#0x0]                       
ram:0007d8a6    9df80010        ldrb.w      param_2=>local_30,[sp,#0x0]             
ram:0007d8aa    0844            add         param_1,param_2                         
ram:0007d8ac    2080            strh        param_1,[r4,#0x0]                       
                            LAB_0007d8ae:                 ;XREF[1,0]:   0007d86c
ram:0007d8ae    6d1c            adds        r5,r5,#0x1                              
                            LAB_0007d8b0:                 ;XREF[1,0]:   0007d84c
ram:0007d8b0    b8f80000        ldrh.w      param_1,[r8,#0x0]                       
ram:0007d8b4    a842            cmp         param_1,r5                              
ram:0007d8b6    cadc            bgt         LAB_0007d84e                            
ram:0007d8b8    56b1            cbz         r6,LAB_0007d8d0                         
ram:0007d8ba    2088            ldrh        param_1,[r4,#0x0]                       
ram:0007d8bc    c01b            subs        param_1,param_1,r7                      
ram:0007d8be    401e            subs        param_1,param_1,#0x1                    
ram:0007d8c0    80b2            uxth        param_1,param_1                         
ram:0007d8c2    ff28            cmp         param_1,#0xff                           
ram:0007d8c4    02d9            bls         LAB_0007d8cc                            
                            LAB_0007d8c6:                 ;XREF[1,0]:   0007d87e
ram:0007d8c6    0c20            movs        param_1,#0xc                            
                            LAB_0007d8c8:                 ;XREF[3,0]:   0007d864,0007d8a2,0007d8d2
ram:0007d8c8    bde8fc9f        pop.w       {param_3,param_4,r4,r5,r6,r7,r8,r9,r1...
                            LAB_0007d8cc:                 ;XREF[1,0]:   0007d8c4
ram:0007d8cc    09f80700        strb.w      param_1,r9,r7,0x0                       
                            LAB_0007d8d0:                 ;XREF[1,0]:   0007d8b8
ram:0007d8d0    0020            movs        param_1,#0x0                            
ram:0007d8d2    f9e7            b           LAB_0007d8c8                            
                            ;************************************************************************************************
                            ;*                                           FUNCTION                                           *
                            ;************************************************************************************************
                            ;undefined FUN_0007d8d4(uint param_1, undefined4 param_2, uint param_3, undefined * param_4)
          ;param_1       uint                r0                      
          ;param_2       undefined4          r1                      
          ;param_3       uint                r2                      
          ;param_4       undefined *         r3                      
                                                          ;XREF[2,0]:   0007b75a,0007b792
ram:0007d8d4    10b5            push        {r4,lr}                                 
ram:0007d8d6    074c            ldr         r4,[DAT_0007d8f4]                       ;= 20002C2Ch
                            LAB_0007d8d8:                 ;XREF[1,0]:   0007d8f0
ram:0007d8d8    3edf            svc         0x3e                                    
ram:0007d8da    08b1            cbz         param_1,LAB_0007d8e0                    
ram:0007d8dc    fdf792fa        bl          FUN_0007ae04                            ;undefined FUN_0007ae04(void)
                            LAB_0007d8e0:                 ;XREF[1,0]:   0007d8da
ram:0007d8e0    fdf720fb        bl          FUN_0007af24                            ;undefined FUN_0007af24(undefined4 pa...
ram:0007d8e4    2078            ldrb        param_1,[r4,#0x0]=>DAT_20002c2c         
ram:0007d8e6    0228            cmp         param_1,#0x2                            
ram:0007d8e8    03d0            beq         LAB_0007d8f2                            
ram:0007d8ea    0328            cmp         param_1,#0x3                            
ram:0007d8ec    01d0            beq         LAB_0007d8f2                            
ram:0007d8ee    0428            cmp         param_1,#0x4                            
ram:0007d8f0    f2d1            bne         LAB_0007d8d8                            
                            LAB_0007d8f2:                 ;XREF[2,0]:   0007d8e8,0007d8ec
ram:0007d8f2    10bd            pop         {r4,pc}                                 
                            DAT_0007d8f4:                 ;XREF[1,0]:   0007d8d6
ram:0007d8f4    2c2c0020        undefined4  20002C2Ch                               
                            DAT_0007d8f8:                 ;XREF[2,0]:   0007b5e2,0007b644
ram:0007d8f8    00200200        undefined4  00022000h                               
                            DAT_0007d8fc:                 ;XREF[1,0]:   0007b5dc
ram:0007d8fc    02000000        undefined4  00000002h                               
                            DAT_0007d900:                 ;XREF[1,0]:   0007b5dc
ram:0007d900    00000000        undefined4  00000000h                               
                            DAT_0007d904:                 ;XREF[1,0]:   0007b5dc
ram:0007d904    00000000        undefined4  00000000h                               
                            DAT_0007d908:                 ;XREF[1,0]:   0007b5dc
ram:0007d908    00000000        undefined4  00000000h                               
                            DAT_0007d90c:                 ;XREF[11,0]:  0007af7a,0007b248,0007b25c,0007b270
                                                          ;             0007b2b8,0007b2e0,0007b2e6,0007b2ec
                                                          ;             0007bb3c,0007bb74,0007bb94
ram:0007d90c    4c300020        undefined4  2000304Ch                               
                            DAT_0007d910:                 ;XREF[2,0]:   0007b3e0,0007b44c
ram:0007d910    23d1bcea        undefined4  EABCD123h                               
                            DAT_0007d914:                 ;XREF[1,0]:   0007b3e0
ram:0007d914    5f782315        undefined4  1523785Fh                               
                            DAT_0007d918:                 ;XREF[1,0]:   0007b3e0
ram:0007d918    deef1212        undefined4  1212EFDEh                               
                            DAT_0007d91c:                 ;XREF[1,0]:   0007b3e0
ram:0007d91c    00000000        undefined4  00000000h                               
                            PTR_LAB_0007d100+1+1_0007d920:;XREF[2,0]:   0007b888,0007b8a8
ram:0007d920    01d10700        addr        LAB_0007d100+1+1                        
                            DAT_0007d924:                 ;XREF[1,0]:   0007b888
ram:0007d924    00000000        undefined4  00000000h                               
                            DAT_0007d928:                 ;XREF[1,0]:   0007b888
ram:0007d928    00000000        undefined4  00000000h                               
                            DAT_0007d92c:                 ;XREF[2,0]:   0007b742,0007b764
ram:0007d92c    02              ??          02h                                     
ram:0007d92d    00              ??          00h                                     
ram:0007d92e    00              ??          00h                                     
ram:0007d92f    00              ??          00h                                     
ram:0007d930    00              ??          00h                                     
ram:0007d931    00              ??          00h                                     
ram:0007d932    00              ??          00h                                     
ram:0007d933    00              ??          00h                                     
ram:0007d934    00              ??          00h                                     
ram:0007d935    00              ??          00h                                     
ram:0007d936    00              ??          00h                                     
ram:0007d937    00              ??          00h                                     
ram:0007d938    00              ??          00h                                     
ram:0007d939    00              ??          00h                                     
ram:0007d93a    00              ??          00h                                     
ram:0007d93b    00              ??          00h                                     
ram:0007d93c    00              ??          00h                                     
ram:0007d93d    00              ??          00h                                     
ram:0007d93e    00              ??          00h                                     
ram:0007d93f    00              ??          00h                                     
                            DAT_0007d940:                 ;XREF[8,0]:   0007bf6c,0007bf88,0007c022,0007c034
                                                          ;             0007c04c,0007c56a,0007c57c,0007c594
ram:0007d940    a8310020        undefined4  200031A8h                               
                            DAT_0007d944:                 ;XREF[2,0]:   0007bdda,0007bdf8
ram:0007d944    04              ??          04h                                     
ram:0007d945    00              ??          00h                                     
ram:0007d946    00              ??          00h                                     
ram:0007d947    00              ??          00h                                     
ram:0007d948    00              ??          00h                                     
ram:0007d949    00              ??          00h                                     
ram:0007d94a    00              ??          00h                                     
ram:0007d94b    00              ??          00h                                     
ram:0007d94c    00              ??          00h                                     
ram:0007d94d    00              ??          00h                                     
ram:0007d94e    00              ??          00h                                     
ram:0007d94f    00              ??          00h                                     
ram:0007d950    00              ??          00h                                     
ram:0007d951    00              ??          00h                                     
ram:0007d952    00              ??          00h                                     
ram:0007d953    00              ??          00h                                     
ram:0007d954    00              ??          00h                                     
ram:0007d955    00              ??          00h                                     
ram:0007d956    00              ??          00h                                     
ram:0007d957    00              ??          00h                                     
                            PTR_FUN_0007d120+1_0007d958:  ;XREF[1,0]:   0007bfd8
ram:0007d958    21d10700        addr        FUN_0007d120+1                          
                            DAT_0007d95c:                 ;XREF[1,0]:   0007bfd8
ram:0007d95c    00000000        undefined4  00000000h                               
                            DAT_0007d960:                 ;XREF[1,0]:   0007bfd8
ram:0007d960    00000000        undefined4  00000000h                               
                            DAT_0007d964:                 ;XREF[2,0]:   0007d56e,0007d5d0
ram:0007d964    03000000        undefined4  00000003h                               
ram:0007d968    00              ??          00h                                     
ram:0007d969    00              ??          00h                                     
ram:0007d96a    00              ??          00h                                     
ram:0007d96b    00              ??          00h                                     
                            DAT_0007d96c:                 ;XREF[1,0]:   0007d570
ram:0007d96c    00000000        undefined4  00000000h                               
                            DAT_0007d970:                 ;XREF[2,0]:   0007cef4,0007cf30
ram:0007d970    05              ??          05h                                     
ram:0007d971    00              ??          00h                                     
ram:0007d972    00              ??          00h                                     
ram:0007d973    00              ??          00h                                     
ram:0007d974    00              ??          00h                                     
ram:0007d975    00              ??          00h                                     
ram:0007d976    00              ??          00h                                     
ram:0007d977    00              ??          00h                                     
ram:0007d978    00              ??          00h                                     
ram:0007d979    00              ??          00h                                     
ram:0007d97a    00              ??          00h                                     
ram:0007d97b    00              ??          00h                                     
ram:0007d97c    00              ??          00h                                     
ram:0007d97d    00              ??          00h                                     
ram:0007d97e    00              ??          00h                                     
ram:0007d97f    00              ??          00h                                     
ram:0007d980    00              ??          00h                                     
ram:0007d981    00              ??          00h                                     
ram:0007d982    00              ??          00h                                     
ram:0007d983    00              ??          00h                                     
                            PTR_DAT_0007d984:             ;XREF[2,0]:   0007a5ec,0007a604
ram:0007d984    a4d90700        addr        DAT_0007d9a4                            
                            DAT_0007d988:                 ;XREF[1,0]:   0007a5ec
ram:0007d988    002c0020        undefined4  20002C00h                               
                            DAT_0007d98c:                 ;XREF[1,0]:   0007a5ec
ram:0007d98c    d8000000        undefined4  000000D8h                               
                            PTR_thunk_FUN_0007a9e8_0007...;XREF[1,0]:   0007a5e6
ram:0007d990    e0a90700        addr        thunk_FUN_0007a9e8                      
ram:0007d994    7c              ??          7Ch    |                                
ram:0007d995    da              ??          DAh                                     
ram:0007d996    07              ??          07h                                     
ram:0007d997    00              ??          00h                                     
ram:0007d998    d8              ??          D8h                                     
ram:0007d999    2c              ??          2Ch    ,                                
ram:0007d99a    00              ??          00h                                     
ram:0007d99b    20              ??          20h                                     
ram:0007d99c    60              ??          60h    `                                
ram:0007d99d    27              ??          27h    '                                
ram:0007d99e    00              ??          00h                                     
ram:0007d99f    00              ??          00h                                     
ram:0007d9a0    f0              ??          F0h                                     ;?  ->  0007a9f0
ram:0007d9a1    a9              ??          A9h                                     
ram:0007d9a2    07              ??          07h                                     
ram:0007d9a3    00              ??          00h                                     
                            DAT_0007d9a4:                 ;XREF[2,0]:   0007a5ec,0007d984
ram:0007d9a4    00              ??          00h                                     
ram:0007d9a5    00              ??          00h                                     
ram:0007d9a6    00              ??          00h                                     
ram:0007d9a7    00              ??          00h                                     
ram:0007d9a8    00              ??          00h                                     
ram:0007d9a9    00              ??          00h                                     
ram:0007d9aa    00              ??          00h                                     
ram:0007d9ab    00              ??          00h                                     
ram:0007d9ac    00              ??          00h                                     
ram:0007d9ad    00              ??          00h                                     
ram:0007d9ae    00              ??          00h                                     
ram:0007d9af    00              ??          00h                                     
ram:0007d9b0    00              ??          00h                                     
ram:0007d9b1    00              ??          00h                                     
ram:0007d9b2    00              ??          00h                                     
ram:0007d9b3    00              ??          00h                                     
ram:0007d9b4    00              ??          00h                                     
ram:0007d9b5    00              ??          00h                                     
ram:0007d9b6    00              ??          00h                                     
ram:0007d9b7    00              ??          00h                                     
ram:0007d9b8    00              ??          00h                                     
ram:0007d9b9    00              ??          00h                                     
ram:0007d9ba    00              ??          00h                                     
ram:0007d9bb    00              ??          00h                                     
ram:0007d9bc    00              ??          00h                                     
ram:0007d9bd    00              ??          00h                                     
ram:0007d9be    00              ??          00h                                     
ram:0007d9bf    00              ??          00h                                     
ram:0007d9c0    00              ??          00h                                     
ram:0007d9c1    00              ??          00h                                     
ram:0007d9c2    00              ??          00h                                     
ram:0007d9c3    00              ??          00h                                     
ram:0007d9c4    00              ??          00h                                     
ram:0007d9c5    00              ??          00h                                     
ram:0007d9c6    00              ??          00h                                     
ram:0007d9c7    00              ??          00h                                     
ram:0007d9c8    00              ??          00h                                     
ram:0007d9c9    00              ??          00h                                     
ram:0007d9ca    00              ??          00h                                     
ram:0007d9cb    00              ??          00h                                     
ram:0007d9cc    00              ??          00h                                     
ram:0007d9cd    00              ??          00h                                     
ram:0007d9ce    00              ??          00h                                     
ram:0007d9cf    00              ??          00h                                     
ram:0007d9d0    00              ??          00h                                     
ram:0007d9d1    00              ??          00h                                     
ram:0007d9d2    00              ??          00h                                     
ram:0007d9d3    00              ??          00h                                     
ram:0007d9d4    00              ??          00h                                     
ram:0007d9d5    00              ??          00h                                     
ram:0007d9d6    00              ??          00h                                     
ram:0007d9d7    00              ??          00h                                     
ram:0007d9d8    00              ??          00h                                     
ram:0007d9d9    00              ??          00h                                     
ram:0007d9da    00              ??          00h                                     
ram:0007d9db    00              ??          00h                                     
ram:0007d9dc    00              ??          00h                                     
ram:0007d9dd    00              ??          00h                                     
ram:0007d9de    00              ??          00h                                     
ram:0007d9df    00              ??          00h                                     
ram:0007d9e0    00              ??          00h                                     
ram:0007d9e1    00              ??          00h                                     
ram:0007d9e2    00              ??          00h                                     
ram:0007d9e3    00              ??          00h                                     
ram:0007d9e4    00              ??          00h                                     
ram:0007d9e5    00              ??          00h                                     
ram:0007d9e6    00              ??          00h                                     
ram:0007d9e7    00              ??          00h                                     
ram:0007d9e8    00              ??          00h                                     
ram:0007d9e9    00              ??          00h                                     
ram:0007d9ea    00              ??          00h                                     
ram:0007d9eb    00              ??          00h                                     
ram:0007d9ec    00              ??          00h                                     
ram:0007d9ed    00              ??          00h                                     
ram:0007d9ee    00              ??          00h                                     
ram:0007d9ef    00              ??          00h                                     
ram:0007d9f0    00              ??          00h                                     
ram:0007d9f1    00              ??          00h                                     
ram:0007d9f2    00              ??          00h                                     
ram:0007d9f3    00              ??          00h                                     
ram:0007d9f4    00              ??          00h                                     
ram:0007d9f5    00              ??          00h                                     
ram:0007d9f6    00              ??          00h                                     
ram:0007d9f7    00              ??          00h                                     
ram:0007d9f8    00              ??          00h                                     
ram:0007d9f9    00              ??          00h                                     
ram:0007d9fa    00              ??          00h                                     
ram:0007d9fb    00              ??          00h                                     
ram:0007d9fc    00              ??          00h                                     
ram:0007d9fd    00              ??          00h                                     
ram:0007d9fe    00              ??          00h                                     
ram:0007d9ff    00              ??          00h                                     
ram:0007da00    00              ??          00h                                     
ram:0007da01    00              ??          00h                                     
ram:0007da02    00              ??          00h                                     
ram:0007da03    00              ??          00h                                     
ram:0007da04    00              ??          00h                                     
ram:0007da05    00              ??          00h                                     
ram:0007da06    00              ??          00h                                     
ram:0007da07    00              ??          00h                                     
ram:0007da08    00              ??          00h                                     
ram:0007da09    00              ??          00h                                     
ram:0007da0a    00              ??          00h                                     
ram:0007da0b    00              ??          00h                                     
ram:0007da0c    00              ??          00h                                     
ram:0007da0d    00              ??          00h                                     
ram:0007da0e    ff              ??          FFh                                     
ram:0007da0f    ff              ??          FFh                                     
ram:0007da10    00              ??          00h                                     
ram:0007da11    00              ??          00h                                     
ram:0007da12    00              ??          00h                                     
ram:0007da13    00              ??          00h                                     
ram:0007da14    32              ??          32h    2                                
ram:0007da15    00              ??          00h                                     
ram:0007da16    00              ??          00h                                     
ram:0007da17    00              ??          00h                                     
ram:0007da18    00              ??          00h                                     
ram:0007da19    00              ??          00h                                     
ram:0007da1a    00              ??          00h                                     
ram:0007da1b    00              ??          00h                                     
ram:0007da1c    00              ??          00h                                     
ram:0007da1d    00              ??          00h                                     
ram:0007da1e    00              ??          00h                                     
ram:0007da1f    00              ??          00h                                     
ram:0007da20    00              ??          00h                                     
ram:0007da21    00              ??          00h                                     
ram:0007da22    00              ??          00h                                     
ram:0007da23    00              ??          00h                                     
ram:0007da24    00              ??          00h                                     
ram:0007da25    00              ??          00h                                     
ram:0007da26    00              ??          00h                                     
ram:0007da27    00              ??          00h                                     
ram:0007da28    00              ??          00h                                     
ram:0007da29    00              ??          00h                                     
ram:0007da2a    00              ??          00h                                     
ram:0007da2b    00              ??          00h                                     
ram:0007da2c    00              ??          00h                                     
ram:0007da2d    00              ??          00h                                     
ram:0007da2e    00              ??          00h                                     
ram:0007da2f    00              ??          00h                                     
ram:0007da30    00              ??          00h                                     
ram:0007da31    00              ??          00h                                     
ram:0007da32    00              ??          00h                                     
ram:0007da33    00              ??          00h                                     
ram:0007da34    00              ??          00h                                     
ram:0007da35    00              ??          00h                                     
ram:0007da36    00              ??          00h                                     
ram:0007da37    00              ??          00h                                     
ram:0007da38    00              ??          00h                                     
ram:0007da39    00              ??          00h                                     
ram:0007da3a    00              ??          00h                                     
ram:0007da3b    00              ??          00h                                     
ram:0007da3c    00              ??          00h                                     
ram:0007da3d    00              ??          00h                                     
ram:0007da3e    00              ??          00h                                     
ram:0007da3f    00              ??          00h                                     
ram:0007da40    00              ??          00h                                     
ram:0007da41    00              ??          00h                                     
ram:0007da42    00              ??          00h                                     
ram:0007da43    00              ??          00h                                     
ram:0007da44    00              ??          00h                                     
ram:0007da45    00              ??          00h                                     
ram:0007da46    00              ??          00h                                     
ram:0007da47    00              ??          00h                                     
ram:0007da48    00              ??          00h                                     
ram:0007da49    00              ??          00h                                     
ram:0007da4a    00              ??          00h                                     
ram:0007da4b    00              ??          00h                                     
ram:0007da4c    00              ??          00h                                     
ram:0007da4d    00              ??          00h                                     
ram:0007da4e    00              ??          00h                                     
ram:0007da4f    00              ??          00h                                     
ram:0007da50    00              ??          00h                                     
ram:0007da51    00              ??          00h                                     
ram:0007da52    00              ??          00h                                     
ram:0007da53    00              ??          00h                                     
ram:0007da54    00              ??          00h                                     
ram:0007da55    00              ??          00h                                     
ram:0007da56    00              ??          00h                                     
ram:0007da57    00              ??          00h                                     
ram:0007da58    00              ??          00h                                     
ram:0007da59    00              ??          00h                                     
ram:0007da5a    00              ??          00h                                     
ram:0007da5b    00              ??          00h                                     
ram:0007da5c    00              ??          00h                                     
ram:0007da5d    00              ??          00h                                     
ram:0007da5e    00              ??          00h                                     
ram:0007da5f    00              ??          00h                                     
ram:0007da60    00              ??          00h                                     
ram:0007da61    00              ??          00h                                     
ram:0007da62    00              ??          00h                                     
ram:0007da63    00              ??          00h                                     
ram:0007da64    00              ??          00h                                     
ram:0007da65    00              ??          00h                                     
ram:0007da66    00              ??          00h                                     
ram:0007da67    00              ??          00h                                     
ram:0007da68    00              ??          00h                                     
ram:0007da69    00              ??          00h                                     
ram:0007da6a    00              ??          00h                                     
ram:0007da6b    00              ??          00h                                     
ram:0007da6c    00              ??          00h                                     
ram:0007da6d    00              ??          00h                                     
ram:0007da6e    00              ??          00h                                     
ram:0007da6f    00              ??          00h                                     
ram:0007da70    00              ??          00h                                     
ram:0007da71    00              ??          00h                                     
ram:0007da72    00              ??          00h                                     
ram:0007da73    00              ??          00h                                     
ram:0007da74    00              ??          00h                                     
ram:0007da75    00              ??          00h                                     
ram:0007da76    00              ??          00h                                     
ram:0007da77    00              ??          00h                                     
ram:0007da78    00              ??          00h                                     
ram:0007da79    90              ??          90h                                     
ram:0007da7a    d0              ??          D0h                                     
ram:0007da7b    03              ??          03h                                     
