                            MasterStackPointer:           ;XREF[11,0]:  0007b53c,0007b53c,0007bbe4,0007bc0c
                                                          ;             0007bc10,0007bc28,0007bf02,0007c150
                                                          ;             0007c39e,0007c3b4,0007ca9e
ram:0007a000    08540020        addr        DAT_20005408                            
                            Reset:                        ;XREF[1,0]:   Entry Point
ram:0007a004    59a50700        addr        FUNC_Reset_0007a558+1                   
                            NMI:                          ;XREF[1,0]:   Entry Point
ram:0007a008    61a50700        addr        FUNC_NMI_0007a560+1                     
                            HardFault:                    ;XREF[1,0]:   Entry Point
ram:0007a00c    63a50700        addr        FUNC_HardFault_0007a562+1               
                            MemManage:                    ;XREF[1,0]:   Entry Point
ram:0007a010    65a50700        addr        FUNC_MemManage_0007a564+1               
                            BusFault:                     ;XREF[1,0]:   Entry Point
ram:0007a014    67a50700        addr        FUNC_BusFault_0007a566+1                
                            UsageFault:                   ;XREF[1,0]:   Entry Point
ram:0007a018    69a50700        addr        FUNC_UsageFault_0007a568+1              
                            Reserved1:                    ;XREF[1,0]:   Entry Point
ram:0007a01c    00000000        addr        00000000                                
                            Reserved2:                    ;XREF[1,0]:   Entry Point
ram:0007a020    00000000        addr        00000000                                
                            Reserved3:                    ;XREF[1,0]:   Entry Point
ram:0007a024    00000000        addr        00000000                                
                            Reserved5:                    ;XREF[1,0]:   Entry Point
                            Reserved6:                    
                            Reserved4:                    
ram:0007a028    00000000        addr        00000000                                
                            SVCall:                       ;XREF[1,0]:   Entry Point
ram:0007a02c    15a40700        addr        FUNC_SVCall_0007a414+1                  
ram:0007a030    00000000        addr        00000000                                
ram:0007a034    00000000        addr        00000000                                
                            PendSV:                       ;XREF[1,0]:   Entry Point
ram:0007a038    6da50700        addr        FUNC_PendSV_0007a56c+1                  
                            SysTick:                      ;XREF[1,0]:   Entry Point
ram:0007a03c    6fa50700        addr        FUNC_SysTick_0007a56e+1                 
                            IRQ:                          ;XREF[1,0]:   Entry Point
ram:0007a040    71a50700        addr        FUNC_IRQ_0007a570+1                     
ram:0007a044    71a50700        addr        FUNC_IRQ_0007a570+1                     
ram:0007a048    71a50700        addr        FUNC_IRQ_0007a570+1                     
ram:0007a04c    71a50700        addr        FUNC_IRQ_0007a570+1                     
ram:0007a050    71a50700        addr        FUNC_IRQ_0007a570+1                     
ram:0007a054    71a50700        addr        FUNC_IRQ_0007a570+1                     
ram:0007a058    71a50700        addr        FUNC_IRQ_0007a570+1                     
ram:0007a05c    71a50700        addr        FUNC_IRQ_0007a570+1                     
ram:0007a060    71a50700        addr        FUNC_IRQ_0007a570+1                     
ram:0007a064    71a50700        addr        FUNC_IRQ_0007a570+1                     
ram:0007a068    71a50700        addr        FUNC_IRQ_0007a570+1                     
ram:0007a06c    71a50700        addr        FUNC_IRQ_0007a570+1                     
ram:0007a070    71a50700        addr        FUNC_IRQ_0007a570+1                     
ram:0007a074    71a50700        addr        FUNC_IRQ_0007a570+1                     
ram:0007a078    71a50700        addr        FUNC_IRQ_0007a570+1                     
ram:0007a07c    71a50700        addr        FUNC_IRQ_0007a570+1                     
ram:0007a080    71a50700        addr        FUNC_IRQ_0007a570+1                     
ram:0007a084    c5a60700        addr        FUNC_VT_0007a6c4+1                      
ram:0007a088    71a50700        addr        FUNC_IRQ_0007a570+1                     
ram:0007a08c    71a50700        addr        FUNC_IRQ_0007a570+1                     
ram:0007a090    e9a60700        addr        thunk_FUN_0007d4e8+1                    
ram:0007a094    71a50700        addr        FUNC_IRQ_0007a570+1                     
ram:0007a098    eda60700        addr        FUNC_VT_0007a6ec+1                      
ram:0007a09c    71a50700        addr        FUNC_IRQ_0007a570+1                     
ram:0007a0a0    71a50700        addr        FUNC_IRQ_0007a570+1                     
ram:0007a0a4    71a50700        addr        FUNC_IRQ_0007a570+1                     
ram:0007a0a8    71a50700        addr        FUNC_IRQ_0007a570+1                     
ram:0007a0ac    71a50700        addr        FUNC_IRQ_0007a570+1                     
ram:0007a0b0    71a50700        addr        FUNC_IRQ_0007a570+1                     
ram:0007a0b4    71a50700        addr        FUNC_IRQ_0007a570+1                     
ram:0007a0b8    00000000        addr        00000000                                
ram:0007a0bc    00000000        addr        00000000                                
ram:0007a0c0    71a50700        addr        FUNC_IRQ_0007a570+1                     
ram:0007a0c4    71a50700        addr        FUNC_IRQ_0007a570+1                     
ram:0007a0c8    71a50700        addr        FUNC_IRQ_0007a570+1                     
ram:0007a0cc    71a50700        addr        FUNC_IRQ_0007a570+1                     
ram:0007a0d0    71a50700        addr        FUNC_IRQ_0007a570+1                     
ram:0007a0d4    71a50700        addr        FUNC_IRQ_0007a570+1                     
ram:0007a0d8    00000000        addr        00000000                                
ram:0007a0dc    00000000        addr        00000000                                
ram:0007a0e0    00000000        addr        00000000                                
ram:0007a0e4    00000000        addr        00000000                                
ram:0007a0e8    00000000        addr        00000000                                
ram:0007a0ec    00              ??          00h                                     
ram:0007a0ed    00              ??          00h                                     
ram:0007a0ee    00              ??          00h                                     
ram:0007a0ef    00              ??          00h                                     
ram:0007a0f0    00              ??          00h                                     
ram:0007a0f1    00              ??          00h                                     
ram:0007a0f2    00              ??          00h                                     
ram:0007a0f3    00              ??          00h                                     
ram:0007a0f4    00              ??          00h                                     
ram:0007a0f5    00              ??          00h                                     
ram:0007a0f6    00              ??          00h                                     
ram:0007a0f7    00              ??          00h                                     
ram:0007a0f8    00              ??          00h                                     
ram:0007a0f9    00              ??          00h                                     
ram:0007a0fa    00              ??          00h                                     
ram:0007a0fb    00              ??          00h                                     
ram:0007a0fc    00              ??          00h                                     
ram:0007a0fd    00              ??          00h                                     
ram:0007a0fe    00              ??          00h                                     
ram:0007a0ff    00              ??          00h                                     
ram:0007a100    00              ??          00h                                     
ram:0007a101    00              ??          00h                                     
ram:0007a102    00              ??          00h                                     
ram:0007a103    00              ??          00h                                     
ram:0007a104    00              ??          00h                                     
ram:0007a105    00              ??          00h                                     
ram:0007a106    00              ??          00h                                     
ram:0007a107    00              ??          00h                                     
ram:0007a108    00              ??          00h                                     
ram:0007a109    00              ??          00h                                     
ram:0007a10a    00              ??          00h                                     
ram:0007a10b    00              ??          00h                                     
ram:0007a10c    00              ??          00h                                     
ram:0007a10d    00              ??          00h                                     
ram:0007a10e    00              ??          00h                                     
ram:0007a10f    00              ??          00h                                     
ram:0007a110    00              ??          00h                                     
ram:0007a111    00              ??          00h                                     
ram:0007a112    00              ??          00h                                     
ram:0007a113    00              ??          00h                                     
ram:0007a114    00              ??          00h                                     
ram:0007a115    00              ??          00h                                     
ram:0007a116    00              ??          00h                                     
ram:0007a117    00              ??          00h                                     
ram:0007a118    00              ??          00h                                     
ram:0007a119    00              ??          00h                                     
ram:0007a11a    00              ??          00h                                     
ram:0007a11b    00              ??          00h                                     
ram:0007a11c    00              ??          00h                                     
ram:0007a11d    00              ??          00h                                     
ram:0007a11e    00              ??          00h                                     
ram:0007a11f    00              ??          00h                                     
ram:0007a120    00              ??          00h                                     
ram:0007a121    00              ??          00h                                     
ram:0007a122    00              ??          00h                                     
ram:0007a123    00              ??          00h                                     
ram:0007a124    00              ??          00h                                     
ram:0007a125    00              ??          00h                                     
ram:0007a126    00              ??          00h                                     
ram:0007a127    00              ??          00h                                     
ram:0007a128    00              ??          00h                                     
ram:0007a129    00              ??          00h                                     
ram:0007a12a    00              ??          00h                                     
ram:0007a12b    00              ??          00h                                     
ram:0007a12c    00              ??          00h                                     
ram:0007a12d    00              ??          00h                                     
ram:0007a12e    00              ??          00h                                     
ram:0007a12f    00              ??          00h                                     
ram:0007a130    00              ??          00h                                     
ram:0007a131    00              ??          00h                                     
ram:0007a132    00              ??          00h                                     
ram:0007a133    00              ??          00h                                     
ram:0007a134    00              ??          00h                                     
ram:0007a135    00              ??          00h                                     
ram:0007a136    00              ??          00h                                     
ram:0007a137    00              ??          00h                                     
ram:0007a138    00              ??          00h                                     
ram:0007a139    00              ??          00h                                     
ram:0007a13a    00              ??          00h                                     
ram:0007a13b    00              ??          00h                                     
ram:0007a13c    00              ??          00h                                     
ram:0007a13d    00              ??          00h                                     
ram:0007a13e    00              ??          00h                                     
ram:0007a13f    00              ??          00h                                     
ram:0007a140    00              ??          00h                                     
ram:0007a141    00              ??          00h                                     
ram:0007a142    00              ??          00h                                     
ram:0007a143    00              ??          00h                                     
ram:0007a144    00              ??          00h                                     
ram:0007a145    00              ??          00h                                     
ram:0007a146    00              ??          00h                                     
ram:0007a147    00              ??          00h                                     
ram:0007a148    00              ??          00h                                     
ram:0007a149    00              ??          00h                                     
ram:0007a14a    00              ??          00h                                     
ram:0007a14b    00              ??          00h                                     
ram:0007a14c    00              ??          00h                                     
ram:0007a14d    00              ??          00h                                     
ram:0007a14e    00              ??          00h                                     
ram:0007a14f    00              ??          00h                                     
ram:0007a150    00              ??          00h                                     
ram:0007a151    00              ??          00h                                     
ram:0007a152    00              ??          00h                                     
ram:0007a153    00              ??          00h                                     
ram:0007a154    00              ??          00h                                     
ram:0007a155    00              ??          00h                                     
ram:0007a156    00              ??          00h                                     
ram:0007a157    00              ??          00h                                     
ram:0007a158    00              ??          00h                                     
ram:0007a159    00              ??          00h                                     
ram:0007a15a    00              ??          00h                                     
ram:0007a15b    00              ??          00h                                     
ram:0007a15c    00              ??          00h                                     
ram:0007a15d    00              ??          00h                                     
ram:0007a15e    00              ??          00h                                     
ram:0007a15f    00              ??          00h                                     
ram:0007a160    00              ??          00h                                     
ram:0007a161    00              ??          00h                                     
ram:0007a162    00              ??          00h                                     
ram:0007a163    00              ??          00h                                     
ram:0007a164    00              ??          00h                                     
ram:0007a165    00              ??          00h                                     
ram:0007a166    00              ??          00h                                     
ram:0007a167    00              ??          00h                                     
ram:0007a168    00              ??          00h                                     
ram:0007a169    00              ??          00h                                     
ram:0007a16a    00              ??          00h                                     
ram:0007a16b    00              ??          00h                                     
ram:0007a16c    00              ??          00h                                     
ram:0007a16d    00              ??          00h                                     
ram:0007a16e    00              ??          00h                                     
ram:0007a16f    00              ??          00h                                     
ram:0007a170    00              ??          00h                                     
ram:0007a171    00              ??          00h                                     
ram:0007a172    00              ??          00h                                     
ram:0007a173    00              ??          00h                                     
ram:0007a174    00              ??          00h                                     
ram:0007a175    00              ??          00h                                     
ram:0007a176    00              ??          00h                                     
ram:0007a177    00              ??          00h                                     
ram:0007a178    00              ??          00h                                     
ram:0007a179    00              ??          00h                                     
ram:0007a17a    00              ??          00h                                     
ram:0007a17b    00              ??          00h                                     
ram:0007a17c    00              ??          00h                                     
ram:0007a17d    00              ??          00h                                     
ram:0007a17e    00              ??          00h                                     
ram:0007a17f    00              ??          00h                                     
ram:0007a180    00              ??          00h                                     
ram:0007a181    00              ??          00h                                     
ram:0007a182    00              ??          00h                                     
ram:0007a183    00              ??          00h                                     
ram:0007a184    00              ??          00h                                     
ram:0007a185    00              ??          00h                                     
ram:0007a186    00              ??          00h                                     
ram:0007a187    00              ??          00h                                     
ram:0007a188    00              ??          00h                                     
ram:0007a189    00              ??          00h                                     
ram:0007a18a    00              ??          00h                                     
ram:0007a18b    00              ??          00h                                     
ram:0007a18c    00              ??          00h                                     
ram:0007a18d    00              ??          00h                                     
ram:0007a18e    00              ??          00h                                     
ram:0007a18f    00              ??          00h                                     
ram:0007a190    00              ??          00h                                     
ram:0007a191    00              ??          00h                                     
ram:0007a192    00              ??          00h                                     
ram:0007a193    00              ??          00h                                     
ram:0007a194    00              ??          00h                                     
ram:0007a195    00              ??          00h                                     
ram:0007a196    00              ??          00h                                     
ram:0007a197    00              ??          00h                                     
ram:0007a198    00              ??          00h                                     
ram:0007a199    00              ??          00h                                     
ram:0007a19a    00              ??          00h                                     
ram:0007a19b    00              ??          00h                                     
ram:0007a19c    00              ??          00h                                     
ram:0007a19d    00              ??          00h                                     
ram:0007a19e    00              ??          00h                                     
ram:0007a19f    00              ??          00h                                     
ram:0007a1a0    00              ??          00h                                     
ram:0007a1a1    00              ??          00h                                     
ram:0007a1a2    00              ??          00h                                     
ram:0007a1a3    00              ??          00h                                     
ram:0007a1a4    00              ??          00h                                     
ram:0007a1a5    00              ??          00h                                     
ram:0007a1a6    00              ??          00h                                     
ram:0007a1a7    00              ??          00h                                     
ram:0007a1a8    00              ??          00h                                     
ram:0007a1a9    00              ??          00h                                     
ram:0007a1aa    00              ??          00h                                     
ram:0007a1ab    00              ??          00h                                     
ram:0007a1ac    00              ??          00h                                     
ram:0007a1ad    00              ??          00h                                     
ram:0007a1ae    00              ??          00h                                     
ram:0007a1af    00              ??          00h                                     
ram:0007a1b0    00              ??          00h                                     
ram:0007a1b1    00              ??          00h                                     
ram:0007a1b2    00              ??          00h                                     
ram:0007a1b3    00              ??          00h                                     
ram:0007a1b4    00              ??          00h                                     
ram:0007a1b5    00              ??          00h                                     
ram:0007a1b6    00              ??          00h                                     
ram:0007a1b7    00              ??          00h                                     
ram:0007a1b8    00              ??          00h                                     
ram:0007a1b9    00              ??          00h                                     
ram:0007a1ba    00              ??          00h                                     
ram:0007a1bb    00              ??          00h                                     
ram:0007a1bc    00              ??          00h                                     
ram:0007a1bd    00              ??          00h                                     
ram:0007a1be    00              ??          00h                                     
ram:0007a1bf    00              ??          00h                                     
ram:0007a1c0    00              ??          00h                                     
ram:0007a1c1    00              ??          00h                                     
ram:0007a1c2    00              ??          00h                                     
ram:0007a1c3    00              ??          00h                                     
ram:0007a1c4    00              ??          00h                                     
ram:0007a1c5    00              ??          00h                                     
ram:0007a1c6    00              ??          00h                                     
ram:0007a1c7    00              ??          00h                                     
ram:0007a1c8    00              ??          00h                                     
ram:0007a1c9    00              ??          00h                                     
ram:0007a1ca    00              ??          00h                                     
ram:0007a1cb    00              ??          00h                                     
ram:0007a1cc    00              ??          00h                                     
ram:0007a1cd    00              ??          00h                                     
ram:0007a1ce    00              ??          00h                                     
ram:0007a1cf    00              ??          00h                                     
ram:0007a1d0    00              ??          00h                                     
ram:0007a1d1    00              ??          00h                                     
ram:0007a1d2    00              ??          00h                                     
ram:0007a1d3    00              ??          00h                                     
ram:0007a1d4    00              ??          00h                                     
ram:0007a1d5    00              ??          00h                                     
ram:0007a1d6    00              ??          00h                                     
ram:0007a1d7    00              ??          00h                                     
ram:0007a1d8    00              ??          00h                                     
ram:0007a1d9    00              ??          00h                                     
ram:0007a1da    00              ??          00h                                     
ram:0007a1db    00              ??          00h                                     
ram:0007a1dc    00              ??          00h                                     
ram:0007a1dd    00              ??          00h                                     
ram:0007a1de    00              ??          00h                                     
ram:0007a1df    00              ??          00h                                     
ram:0007a1e0    00              ??          00h                                     
ram:0007a1e1    00              ??          00h                                     
ram:0007a1e2    00              ??          00h                                     
ram:0007a1e3    00              ??          00h                                     
ram:0007a1e4    00              ??          00h                                     
ram:0007a1e5    00              ??          00h                                     
ram:0007a1e6    00              ??          00h                                     
ram:0007a1e7    00              ??          00h                                     
ram:0007a1e8    00              ??          00h                                     
ram:0007a1e9    00              ??          00h                                     
ram:0007a1ea    00              ??          00h                                     
ram:0007a1eb    00              ??          00h                                     
ram:0007a1ec    00              ??          00h                                     
ram:0007a1ed    00              ??          00h                                     
ram:0007a1ee    00              ??          00h                                     
ram:0007a1ef    00              ??          00h                                     
ram:0007a1f0    00              ??          00h                                     
ram:0007a1f1    00              ??          00h                                     
ram:0007a1f2    00              ??          00h                                     
ram:0007a1f3    00              ??          00h                                     
ram:0007a1f4    00              ??          00h                                     
ram:0007a1f5    00              ??          00h                                     
ram:0007a1f6    00              ??          00h                                     
ram:0007a1f7    00              ??          00h                                     
ram:0007a1f8    00              ??          00h                                     
ram:0007a1f9    00              ??          00h                                     
ram:0007a1fa    00              ??          00h                                     
ram:0007a1fb    00              ??          00h                                     
ram:0007a1fc    00              ??          00h                                     
ram:0007a1fd    00              ??          00h                                     
ram:0007a1fe    00              ??          00h                                     
ram:0007a1ff    00              ??          00h                                     
ram:0007a200    00              ??          00h                                     
ram:0007a201    00              ??          00h                                     
ram:0007a202    00              ??          00h                                     
ram:0007a203    00              ??          00h                                     
ram:0007a204    00              ??          00h                                     
ram:0007a205    00              ??          00h                                     
ram:0007a206    00              ??          00h                                     
ram:0007a207    00              ??          00h                                     
ram:0007a208    00              ??          00h                                     
ram:0007a209    00              ??          00h                                     
ram:0007a20a    00              ??          00h                                     
ram:0007a20b    00              ??          00h                                     
ram:0007a20c    00              ??          00h                                     
ram:0007a20d    00              ??          00h                                     
ram:0007a20e    00              ??          00h                                     
ram:0007a20f    00              ??          00h                                     
ram:0007a210    00              ??          00h                                     
ram:0007a211    00              ??          00h                                     
ram:0007a212    00              ??          00h                                     
ram:0007a213    00              ??          00h                                     
ram:0007a214    00              ??          00h                                     
ram:0007a215    00              ??          00h                                     
ram:0007a216    00              ??          00h                                     
ram:0007a217    00              ??          00h                                     
ram:0007a218    00              ??          00h                                     
ram:0007a219    00              ??          00h                                     
ram:0007a21a    00              ??          00h                                     
ram:0007a21b    00              ??          00h                                     
ram:0007a21c    00              ??          00h                                     
ram:0007a21d    00              ??          00h                                     
ram:0007a21e    00              ??          00h                                     
ram:0007a21f    00              ??          00h                                     
ram:0007a220    00              ??          00h                                     
ram:0007a221    00              ??          00h                                     
ram:0007a222    00              ??          00h                                     
ram:0007a223    00              ??          00h                                     
ram:0007a224    00              ??          00h                                     
ram:0007a225    00              ??          00h                                     
ram:0007a226    00              ??          00h                                     
ram:0007a227    00              ??          00h                                     
ram:0007a228    00              ??          00h                                     
ram:0007a229    00              ??          00h                                     
ram:0007a22a    00              ??          00h                                     
ram:0007a22b    00              ??          00h                                     
ram:0007a22c    00              ??          00h                                     
ram:0007a22d    00              ??          00h                                     
ram:0007a22e    00              ??          00h                                     
ram:0007a22f    00              ??          00h                                     
ram:0007a230    00              ??          00h                                     
ram:0007a231    00              ??          00h                                     
ram:0007a232    00              ??          00h                                     
ram:0007a233    00              ??          00h                                     
ram:0007a234    00              ??          00h                                     
ram:0007a235    00              ??          00h                                     
ram:0007a236    00              ??          00h                                     
ram:0007a237    00              ??          00h                                     
ram:0007a238    00              ??          00h                                     
ram:0007a239    00              ??          00h                                     
ram:0007a23a    00              ??          00h                                     
ram:0007a23b    00              ??          00h                                     
ram:0007a23c    00              ??          00h                                     
ram:0007a23d    00              ??          00h                                     
ram:0007a23e    00              ??          00h                                     
ram:0007a23f    00              ??          00h                                     
ram:0007a240    00              ??          00h                                     
ram:0007a241    00              ??          00h                                     
ram:0007a242    00              ??          00h                                     
ram:0007a243    00              ??          00h                                     
ram:0007a244    00              ??          00h                                     
ram:0007a245    00              ??          00h                                     
ram:0007a246    00              ??          00h                                     
ram:0007a247    00              ??          00h                                     
ram:0007a248    00              ??          00h                                     
ram:0007a249    00              ??          00h                                     
ram:0007a24a    00              ??          00h                                     
ram:0007a24b    00              ??          00h                                     
ram:0007a24c    00              ??          00h                                     
ram:0007a24d    00              ??          00h                                     
ram:0007a24e    00              ??          00h                                     
ram:0007a24f    00              ??          00h                                     
ram:0007a250    00              ??          00h                                     
ram:0007a251    00              ??          00h                                     
ram:0007a252    00              ??          00h                                     
ram:0007a253    00              ??          00h                                     
ram:0007a254    00              ??          00h                                     
ram:0007a255    00              ??          00h                                     
ram:0007a256    00              ??          00h                                     
ram:0007a257    00              ??          00h                                     
ram:0007a258    00              ??          00h                                     
ram:0007a259    00              ??          00h                                     
ram:0007a25a    00              ??          00h                                     
ram:0007a25b    00              ??          00h                                     
ram:0007a25c    00              ??          00h                                     
ram:0007a25d    00              ??          00h                                     
ram:0007a25e    00              ??          00h                                     
ram:0007a25f    00              ??          00h                                     
ram:0007a260    00              ??          00h                                     
ram:0007a261    00              ??          00h                                     
ram:0007a262    00              ??          00h                                     
ram:0007a263    00              ??          00h                                     
ram:0007a264    00              ??          00h                                     
ram:0007a265    00              ??          00h                                     
ram:0007a266    00              ??          00h                                     
ram:0007a267    00              ??          00h                                     
ram:0007a268    00              ??          00h                                     
ram:0007a269    00              ??          00h                                     
ram:0007a26a    00              ??          00h                                     
ram:0007a26b    00              ??          00h                                     
ram:0007a26c    00              ??          00h                                     
ram:0007a26d    00              ??          00h                                     
ram:0007a26e    00              ??          00h                                     
ram:0007a26f    00              ??          00h                                     
ram:0007a270    00              ??          00h                                     
ram:0007a271    00              ??          00h                                     
ram:0007a272    00              ??          00h                                     
ram:0007a273    00              ??          00h                                     
ram:0007a274    00              ??          00h                                     
ram:0007a275    00              ??          00h                                     
ram:0007a276    00              ??          00h                                     
ram:0007a277    00              ??          00h                                     
ram:0007a278    00              ??          00h                                     
ram:0007a279    00              ??          00h                                     
ram:0007a27a    00              ??          00h                                     
ram:0007a27b    00              ??          00h                                     
ram:0007a27c    00              ??          00h                                     
ram:0007a27d    00              ??          00h                                     
ram:0007a27e    00              ??          00h                                     
ram:0007a27f    00              ??          00h                                     
ram:0007a280    00              ??          00h                                     
ram:0007a281    00              ??          00h                                     
ram:0007a282    00              ??          00h                                     
ram:0007a283    00              ??          00h                                     
ram:0007a284    00              ??          00h                                     
ram:0007a285    00              ??          00h                                     
ram:0007a286    00              ??          00h                                     
ram:0007a287    00              ??          00h                                     
ram:0007a288    00              ??          00h                                     
ram:0007a289    00              ??          00h                                     
ram:0007a28a    00              ??          00h                                     
ram:0007a28b    00              ??          00h                                     
ram:0007a28c    00              ??          00h                                     
ram:0007a28d    00              ??          00h                                     
ram:0007a28e    00              ??          00h                                     
ram:0007a28f    00              ??          00h                                     
ram:0007a290    00              ??          00h                                     
ram:0007a291    00              ??          00h                                     
ram:0007a292    00              ??          00h                                     
ram:0007a293    00              ??          00h                                     
ram:0007a294    00              ??          00h                                     
ram:0007a295    00              ??          00h                                     
ram:0007a296    00              ??          00h                                     
ram:0007a297    00              ??          00h                                     
ram:0007a298    00              ??          00h                                     
ram:0007a299    00              ??          00h                                     
ram:0007a29a    00              ??          00h                                     
ram:0007a29b    00              ??          00h                                     
ram:0007a29c    00              ??          00h                                     
ram:0007a29d    00              ??          00h                                     
ram:0007a29e    00              ??          00h                                     
ram:0007a29f    00              ??          00h                                     
ram:0007a2a0    00              ??          00h                                     
ram:0007a2a1    00              ??          00h                                     
ram:0007a2a2    00              ??          00h                                     
ram:0007a2a3    00              ??          00h                                     
ram:0007a2a4    00              ??          00h                                     
ram:0007a2a5    00              ??          00h                                     
ram:0007a2a6    00              ??          00h                                     
ram:0007a2a7    00              ??          00h                                     
ram:0007a2a8    00              ??          00h                                     
ram:0007a2a9    00              ??          00h                                     
ram:0007a2aa    00              ??          00h                                     
ram:0007a2ab    00              ??          00h                                     
ram:0007a2ac    00              ??          00h                                     
ram:0007a2ad    00              ??          00h                                     
ram:0007a2ae    00              ??          00h                                     
ram:0007a2af    00              ??          00h                                     
ram:0007a2b0    00              ??          00h                                     
ram:0007a2b1    00              ??          00h                                     
ram:0007a2b2    00              ??          00h                                     
ram:0007a2b3    00              ??          00h                                     
ram:0007a2b4    00              ??          00h                                     
ram:0007a2b5    00              ??          00h                                     
ram:0007a2b6    00              ??          00h                                     
ram:0007a2b7    00              ??          00h                                     
ram:0007a2b8    00              ??          00h                                     
ram:0007a2b9    00              ??          00h                                     
ram:0007a2ba    00              ??          00h                                     
ram:0007a2bb    00              ??          00h                                     
ram:0007a2bc    00              ??          00h                                     
ram:0007a2bd    00              ??          00h                                     
ram:0007a2be    00              ??          00h                                     
ram:0007a2bf    00              ??          00h                                     
ram:0007a2c0    00              ??          00h                                     
ram:0007a2c1    00              ??          00h                                     
ram:0007a2c2    00              ??          00h                                     
ram:0007a2c3    00              ??          00h                                     
ram:0007a2c4    00              ??          00h                                     
ram:0007a2c5    00              ??          00h                                     
ram:0007a2c6    00              ??          00h                                     
ram:0007a2c7    00              ??          00h                                     
ram:0007a2c8    00              ??          00h                                     
ram:0007a2c9    00              ??          00h                                     
ram:0007a2ca    00              ??          00h                                     
ram:0007a2cb    00              ??          00h                                     
ram:0007a2cc    00              ??          00h                                     
ram:0007a2cd    00              ??          00h                                     
ram:0007a2ce    00              ??          00h                                     
ram:0007a2cf    00              ??          00h                                     
ram:0007a2d0    00              ??          00h                                     
ram:0007a2d1    00              ??          00h                                     
ram:0007a2d2    00              ??          00h                                     
ram:0007a2d3    00              ??          00h                                     
ram:0007a2d4    00              ??          00h                                     
ram:0007a2d5    00              ??          00h                                     
ram:0007a2d6    00              ??          00h                                     
ram:0007a2d7    00              ??          00h                                     
ram:0007a2d8    00              ??          00h                                     
ram:0007a2d9    00              ??          00h                                     
ram:0007a2da    00              ??          00h                                     
ram:0007a2db    00              ??          00h                                     
ram:0007a2dc    00              ??          00h                                     
ram:0007a2dd    00              ??          00h                                     
ram:0007a2de    00              ??          00h                                     
ram:0007a2df    00              ??          00h                                     
ram:0007a2e0    00              ??          00h                                     
ram:0007a2e1    00              ??          00h                                     
ram:0007a2e2    00              ??          00h                                     
ram:0007a2e3    00              ??          00h                                     
ram:0007a2e4    00              ??          00h                                     
ram:0007a2e5    00              ??          00h                                     
ram:0007a2e6    00              ??          00h                                     
ram:0007a2e7    00              ??          00h                                     
ram:0007a2e8    00              ??          00h                                     
ram:0007a2e9    00              ??          00h                                     
ram:0007a2ea    00              ??          00h                                     
ram:0007a2eb    00              ??          00h                                     
ram:0007a2ec    00              ??          00h                                     
ram:0007a2ed    00              ??          00h                                     
ram:0007a2ee    00              ??          00h                                     
ram:0007a2ef    00              ??          00h                                     
ram:0007a2f0    00              ??          00h                                     
ram:0007a2f1    00              ??          00h                                     
ram:0007a2f2    00              ??          00h                                     
ram:0007a2f3    00              ??          00h                                     
ram:0007a2f4    00              ??          00h                                     
ram:0007a2f5    00              ??          00h                                     
ram:0007a2f6    00              ??          00h                                     
ram:0007a2f7    00              ??          00h                                     
ram:0007a2f8    00              ??          00h                                     
ram:0007a2f9    00              ??          00h                                     
ram:0007a2fa    00              ??          00h                                     
ram:0007a2fb    00              ??          00h                                     
ram:0007a2fc    00              ??          00h                                     
ram:0007a2fd    00              ??          00h                                     
ram:0007a2fe    00              ??          00h                                     
ram:0007a2ff    00              ??          00h                                     
ram:0007a300    00              ??          00h                                     
ram:0007a301    00              ??          00h                                     
ram:0007a302    00              ??          00h                                     
ram:0007a303    00              ??          00h                                     
ram:0007a304    00              ??          00h                                     
ram:0007a305    00              ??          00h                                     
ram:0007a306    00              ??          00h                                     
ram:0007a307    00              ??          00h                                     
ram:0007a308    00              ??          00h                                     
ram:0007a309    00              ??          00h                                     
ram:0007a30a    00              ??          00h                                     
ram:0007a30b    00              ??          00h                                     
ram:0007a30c    00              ??          00h                                     
ram:0007a30d    00              ??          00h                                     
ram:0007a30e    00              ??          00h                                     
ram:0007a30f    00              ??          00h                                     
ram:0007a310    00              ??          00h                                     
ram:0007a311    00              ??          00h                                     
ram:0007a312    00              ??          00h                                     
ram:0007a313    00              ??          00h                                     
ram:0007a314    00              ??          00h                                     
ram:0007a315    00              ??          00h                                     
ram:0007a316    00              ??          00h                                     
ram:0007a317    00              ??          00h                                     
ram:0007a318    00              ??          00h                                     
ram:0007a319    00              ??          00h                                     
ram:0007a31a    00              ??          00h                                     
ram:0007a31b    00              ??          00h                                     
ram:0007a31c    00              ??          00h                                     
ram:0007a31d    00              ??          00h                                     
ram:0007a31e    00              ??          00h                                     
ram:0007a31f    00              ??          00h                                     
ram:0007a320    00              ??          00h                                     
ram:0007a321    00              ??          00h                                     
ram:0007a322    00              ??          00h                                     
ram:0007a323    00              ??          00h                                     
ram:0007a324    00              ??          00h                                     
ram:0007a325    00              ??          00h                                     
ram:0007a326    00              ??          00h                                     
ram:0007a327    00              ??          00h                                     
ram:0007a328    00              ??          00h                                     
ram:0007a329    00              ??          00h                                     
ram:0007a32a    00              ??          00h                                     
ram:0007a32b    00              ??          00h                                     
ram:0007a32c    00              ??          00h                                     
ram:0007a32d    00              ??          00h                                     
ram:0007a32e    00              ??          00h                                     
ram:0007a32f    00              ??          00h                                     
ram:0007a330    00              ??          00h                                     
ram:0007a331    00              ??          00h                                     
ram:0007a332    00              ??          00h                                     
ram:0007a333    00              ??          00h                                     
ram:0007a334    00              ??          00h                                     
ram:0007a335    00              ??          00h                                     
ram:0007a336    00              ??          00h                                     
ram:0007a337    00              ??          00h                                     
ram:0007a338    00              ??          00h                                     
ram:0007a339    00              ??          00h                                     
ram:0007a33a    00              ??          00h                                     
ram:0007a33b    00              ??          00h                                     
ram:0007a33c    00              ??          00h                                     
ram:0007a33d    00              ??          00h                                     
ram:0007a33e    00              ??          00h                                     
ram:0007a33f    00              ??          00h                                     
ram:0007a340    00              ??          00h                                     
ram:0007a341    00              ??          00h                                     
ram:0007a342    00              ??          00h                                     
ram:0007a343    00              ??          00h                                     
ram:0007a344    00              ??          00h                                     
ram:0007a345    00              ??          00h                                     
ram:0007a346    00              ??          00h                                     
ram:0007a347    00              ??          00h                                     
ram:0007a348    00              ??          00h                                     
ram:0007a349    00              ??          00h                                     
ram:0007a34a    00              ??          00h                                     
ram:0007a34b    00              ??          00h                                     
ram:0007a34c    00              ??          00h                                     
ram:0007a34d    00              ??          00h                                     
ram:0007a34e    00              ??          00h                                     
ram:0007a34f    00              ??          00h                                     
ram:0007a350    00              ??          00h                                     
ram:0007a351    00              ??          00h                                     
ram:0007a352    00              ??          00h                                     
ram:0007a353    00              ??          00h                                     
ram:0007a354    00              ??          00h                                     
ram:0007a355    00              ??          00h                                     
ram:0007a356    00              ??          00h                                     
ram:0007a357    00              ??          00h                                     
ram:0007a358    00              ??          00h                                     
ram:0007a359    00              ??          00h                                     
ram:0007a35a    00              ??          00h                                     
ram:0007a35b    00              ??          00h                                     
ram:0007a35c    00              ??          00h                                     
ram:0007a35d    00              ??          00h                                     
ram:0007a35e    00              ??          00h                                     
ram:0007a35f    00              ??          00h                                     
ram:0007a360    00              ??          00h                                     
ram:0007a361    00              ??          00h                                     
ram:0007a362    00              ??          00h                                     
ram:0007a363    00              ??          00h                                     
ram:0007a364    00              ??          00h                                     
ram:0007a365    00              ??          00h                                     
ram:0007a366    00              ??          00h                                     
ram:0007a367    00              ??          00h                                     
ram:0007a368    00              ??          00h                                     
ram:0007a369    00              ??          00h                                     
ram:0007a36a    00              ??          00h                                     
ram:0007a36b    00              ??          00h                                     
ram:0007a36c    00              ??          00h                                     
ram:0007a36d    00              ??          00h                                     
ram:0007a36e    00              ??          00h                                     
ram:0007a36f    00              ??          00h                                     
ram:0007a370    00              ??          00h                                     
ram:0007a371    00              ??          00h                                     
ram:0007a372    00              ??          00h                                     
ram:0007a373    00              ??          00h                                     
ram:0007a374    00              ??          00h                                     
ram:0007a375    00              ??          00h                                     
ram:0007a376    00              ??          00h                                     
ram:0007a377    00              ??          00h                                     
ram:0007a378    00              ??          00h                                     
ram:0007a379    00              ??          00h                                     
ram:0007a37a    00              ??          00h                                     
ram:0007a37b    00              ??          00h                                     
ram:0007a37c    00              ??          00h                                     
ram:0007a37d    00              ??          00h                                     
ram:0007a37e    00              ??          00h                                     
ram:0007a37f    00              ??          00h                                     
ram:0007a380    00              ??          00h                                     
ram:0007a381    00              ??          00h                                     
ram:0007a382    00              ??          00h                                     
ram:0007a383    00              ??          00h                                     
ram:0007a384    00              ??          00h                                     
ram:0007a385    00              ??          00h                                     
ram:0007a386    00              ??          00h                                     
ram:0007a387    00              ??          00h                                     
ram:0007a388    00              ??          00h                                     
ram:0007a389    00              ??          00h                                     
ram:0007a38a    00              ??          00h                                     
ram:0007a38b    00              ??          00h                                     
ram:0007a38c    00              ??          00h                                     
ram:0007a38d    00              ??          00h                                     
ram:0007a38e    00              ??          00h                                     
ram:0007a38f    00              ??          00h                                     
ram:0007a390    00              ??          00h                                     
ram:0007a391    00              ??          00h                                     
ram:0007a392    00              ??          00h                                     
ram:0007a393    00              ??          00h                                     
ram:0007a394    00              ??          00h                                     
ram:0007a395    00              ??          00h                                     
ram:0007a396    00              ??          00h                                     
ram:0007a397    00              ??          00h                                     
ram:0007a398    00              ??          00h                                     
ram:0007a399    00              ??          00h                                     
ram:0007a39a    00              ??          00h                                     
ram:0007a39b    00              ??          00h                                     
ram:0007a39c    00              ??          00h                                     
ram:0007a39d    00              ??          00h                                     
ram:0007a39e    00              ??          00h                                     
ram:0007a39f    00              ??          00h                                     
ram:0007a3a0    00              ??          00h                                     
ram:0007a3a1    00              ??          00h                                     
ram:0007a3a2    00              ??          00h                                     
ram:0007a3a3    00              ??          00h                                     
ram:0007a3a4    00              ??          00h                                     
ram:0007a3a5    00              ??          00h                                     
ram:0007a3a6    00              ??          00h                                     
ram:0007a3a7    00              ??          00h                                     
ram:0007a3a8    00              ??          00h                                     
ram:0007a3a9    00              ??          00h                                     
ram:0007a3aa    00              ??          00h                                     
ram:0007a3ab    00              ??          00h                                     
ram:0007a3ac    00              ??          00h                                     
ram:0007a3ad    00              ??          00h                                     
ram:0007a3ae    00              ??          00h                                     
ram:0007a3af    00              ??          00h                                     
ram:0007a3b0    00              ??          00h                                     
ram:0007a3b1    00              ??          00h                                     
ram:0007a3b2    00              ??          00h                                     
ram:0007a3b3    00              ??          00h                                     
ram:0007a3b4    00              ??          00h                                     
ram:0007a3b5    00              ??          00h                                     
ram:0007a3b6    00              ??          00h                                     
ram:0007a3b7    00              ??          00h                                     
ram:0007a3b8    00              ??          00h                                     
ram:0007a3b9    00              ??          00h                                     
ram:0007a3ba    00              ??          00h                                     
ram:0007a3bb    00              ??          00h                                     
ram:0007a3bc    00              ??          00h                                     
ram:0007a3bd    00              ??          00h                                     
ram:0007a3be    00              ??          00h                                     
ram:0007a3bf    00              ??          00h                                     
ram:0007a3c0    00              ??          00h                                     
ram:0007a3c1    00              ??          00h                                     
ram:0007a3c2    00              ??          00h                                     
ram:0007a3c3    00              ??          00h                                     
ram:0007a3c4    00              ??          00h                                     
ram:0007a3c5    00              ??          00h                                     
ram:0007a3c6    00              ??          00h                                     
ram:0007a3c7    00              ??          00h                                     
ram:0007a3c8    00              ??          00h                                     
ram:0007a3c9    00              ??          00h                                     
ram:0007a3ca    00              ??          00h                                     
ram:0007a3cb    00              ??          00h                                     
ram:0007a3cc    00              ??          00h                                     
ram:0007a3cd    00              ??          00h                                     
ram:0007a3ce    00              ??          00h                                     
ram:0007a3cf    00              ??          00h                                     
ram:0007a3d0    00              ??          00h                                     
ram:0007a3d1    00              ??          00h                                     
ram:0007a3d2    00              ??          00h                                     
ram:0007a3d3    00              ??          00h                                     
ram:0007a3d4    00              ??          00h                                     
ram:0007a3d5    00              ??          00h                                     
ram:0007a3d6    00              ??          00h                                     
ram:0007a3d7    00              ??          00h                                     
ram:0007a3d8    00              ??          00h                                     
ram:0007a3d9    00              ??          00h                                     
ram:0007a3da    00              ??          00h                                     
ram:0007a3db    00              ??          00h                                     
ram:0007a3dc    00              ??          00h                                     
ram:0007a3dd    00              ??          00h                                     
ram:0007a3de    00              ??          00h                                     
ram:0007a3df    00              ??          00h                                     
ram:0007a3e0    00              ??          00h                                     
ram:0007a3e1    00              ??          00h                                     
ram:0007a3e2    00              ??          00h                                     
ram:0007a3e3    00              ??          00h                                     
ram:0007a3e4    00              ??          00h                                     
ram:0007a3e5    00              ??          00h                                     
ram:0007a3e6    00              ??          00h                                     
ram:0007a3e7    00              ??          00h                                     
ram:0007a3e8    00              ??          00h                                     
ram:0007a3e9    00              ??          00h                                     
ram:0007a3ea    00              ??          00h                                     
ram:0007a3eb    00              ??          00h                                     
ram:0007a3ec    00              ??          00h                                     
ram:0007a3ed    00              ??          00h                                     
ram:0007a3ee    00              ??          00h                                     
ram:0007a3ef    00              ??          00h                                     
ram:0007a3f0    00              ??          00h                                     
ram:0007a3f1    00              ??          00h                                     
ram:0007a3f2    00              ??          00h                                     
ram:0007a3f3    00              ??          00h                                     
ram:0007a3f4    00              ??          00h                                     
ram:0007a3f5    00              ??          00h                                     
ram:0007a3f6    00              ??          00h                                     
ram:0007a3f7    00              ??          00h                                     
ram:0007a3f8    00              ??          00h                                     
ram:0007a3f9    00              ??          00h                                     
ram:0007a3fa    00              ??          00h                                     
ram:0007a3fb    00              ??          00h                                     
ram:0007a3fc    00              ??          00h                                     
ram:0007a3fd    00              ??          00h                                     
ram:0007a3fe    00              ??          00h                                     
ram:0007a3ff    00              ??          00h                                     
                            ;************************************************************************************************
                            ;*                                           FUNCTION                                           *
                            ;************************************************************************************************
                            ;undefined LAB_0007a400+1(undefined4 param_1, undefined4 param_2, undefined * param_3)
          ;param_1       undefined4          r0                      
          ;param_2       undefined4          r1                      
          ;param_3       undefined *         r2                      
                                                          ;XREF[1,1]:   0007a55e,0007a578
ram:0007a400    dff80cd0        ldr.w       sp,[DAT_0007a410]                       ;= 20005408h
ram:0007a404    00f0ecf8        bl          FUN_0007a5e0                            ;undefined FUN_0007a5e0(undefined4 pa...
                            ;************************************************************************************************
                            ;*                                           FUNCTION                                           *
                            ;************************************************************************************************
                            ;undefined thunk_FUN_0007ca68(void)
                                                          ;XREF[1,0]:   0007a5f8
ram:0007a408    0048            ldr         r0,[DAT_0007a40c]                       ;= 0007CA69h
ram:0007a40a    0047            bx          r0=>FUN_0007ca68                        ;undefined FUN_0007ca68(void)
                            DAT_0007a40c:                 ;XREF[1,0]:   0007a408
ram:0007a40c    69ca0700        undefined4  0007CA69h                               ;?  ->  0007ca69
                            DAT_0007a410:                 ;XREF[1,0]:   0007a400
ram:0007a410    08540020        undefined4  20005408h                               
                            ;************************************************************************************************
                            ;*                                           FUNCTION                                           *
                            ;************************************************************************************************
                            ;undefined FUNC_SVCall_0007a414(void)
                                                          ;XREF[0,1]:   0007a02c
ram:0007a414    6ff00200        mvn         r0,#0x2                                 
ram:0007a418    7045            cmp         r0,lr                                   
ram:0007a41a    02d1            bne         LAB_0007a422                            
ram:0007a41c    eff30981        mrs         r1,psp                                  
ram:0007a420    01e0            b           LAB_0007a426                            
                            LAB_0007a422:                 ;XREF[1,0]:   0007a41a
ram:0007a422    eff30881        mrs         r1,msp                                  
                            LAB_0007a426:                 ;XREF[1,0]:   0007a420
ram:0007a426    8869            ldr         r0,[r1,#0x18]                           
ram:0007a428    0238            subs        r0,#0x2                                 
ram:0007a42a    0078            ldrb        r0,[r0,#0x0]                            
ram:0007a42c    004a            ldr         r2,[DAT_0007a430]                       ;= 0007A605h
ram:0007a42e    1047            bx          r2=>LAB_0007a604                        
                            DAT_0007a430:                 ;XREF[1,0]:   0007a42c
ram:0007a430    05a60700        undefined4  0007A605h                               ;?  ->  0007a605
                            ;************************************************************************************************
                            ;*                                           FUNCTION                                           *
                            ;************************************************************************************************
                            ;undefined FUN_0007a434(int param_1)
          ;param_1       int                 r0                      
                                                          ;XREF[2,0]:   0007a4a6,0007ccb2
ram:0007a434    401e            subs        param_1,param_1,#0x1                    
ram:0007a436    00bf            nop                                                  
ram:0007a438    00bf            nop                                                  
ram:0007a43a    00bf            nop                                                  
ram:0007a43c    00bf            nop                                                  
ram:0007a43e    00bf            nop                                                  
ram:0007a440    00bf            nop                                                  
ram:0007a442    00bf            nop                                                  
ram:0007a444    00bf            nop                                                  
ram:0007a446    00bf            nop                                                  
ram:0007a448    00bf            nop                                                  
ram:0007a44a    00bf            nop                                                  
ram:0007a44c    00bf            nop                                                  
ram:0007a44e    00bf            nop                                                  
ram:0007a450    00bf            nop                                                  
ram:0007a452    00bf            nop                                                  
ram:0007a454    00bf            nop                                                  
ram:0007a456    00bf            nop                                                  
ram:0007a458    00bf            nop                                                  
ram:0007a45a    00bf            nop                                                  
ram:0007a45c    00bf            nop                                                  
ram:0007a45e    00bf            nop                                                  
ram:0007a460    00bf            nop                                                  
ram:0007a462    00bf            nop                                                  
ram:0007a464    00bf            nop                                                  
ram:0007a466    00bf            nop                                                  
ram:0007a468    00bf            nop                                                  
ram:0007a46a    00bf            nop                                                  
ram:0007a46c    00bf            nop                                                  
ram:0007a46e    00bf            nop                                                  
ram:0007a470    00bf            nop                                                  
ram:0007a472    00bf            nop                                                  
ram:0007a474    00bf            nop                                                  
ram:0007a476    00bf            nop                                                  
ram:0007a478    00bf            nop                                                  
ram:0007a47a    00bf            nop                                                  
ram:0007a47c    00bf            nop                                                  
ram:0007a47e    00bf            nop                                                  
ram:0007a480    00bf            nop                                                  
ram:0007a482    00bf            nop                                                  
ram:0007a484    00bf            nop                                                  
ram:0007a486    00bf            nop                                                  
ram:0007a488    00bf            nop                                                  
ram:0007a48a    00bf            nop                                                  
ram:0007a48c    00bf            nop                                                  
ram:0007a48e    00bf            nop                                                  
ram:0007a490    00bf            nop                                                  
ram:0007a492    00bf            nop                                                  
ram:0007a494    00bf            nop                                                  
ram:0007a496    00bf            nop                                                  
ram:0007a498    00bf            nop                                                  
ram:0007a49a    00bf            nop                                                  
ram:0007a49c    00bf            nop                                                  
ram:0007a49e    00bf            nop                                                  
ram:0007a4a0    00bf            nop                                                  
ram:0007a4a2    00bf            nop                                                  
ram:0007a4a4    00bf            nop                                                  
ram:0007a4a6    c5d1            bne         FUN_0007a434                            
ram:0007a4a8    7047            bx          lr                                      
ram:0007a4aa    0000            movs        r0,r0                                   
                            ;************************************************************************************************
                            ;*                                           FUNCTION                                           *
                            ;************************************************************************************************
                            ;undefined FUN_0007a4ac(int param_1)
          ;param_1       int                 r0                      
                                                          ;XREF[5,0]:   0007a51e,0007b976,0007b9ae,0007d25c
                                                          ;             0007d268
ram:0007a4ac    401e            subs        param_1,param_1,#0x1                    
ram:0007a4ae    00bf            nop                                                  
ram:0007a4b0    00bf            nop                                                  
ram:0007a4b2    00bf            nop                                                  
ram:0007a4b4    00bf            nop                                                  
ram:0007a4b6    00bf            nop                                                  
ram:0007a4b8    00bf            nop                                                  
ram:0007a4ba    00bf            nop                                                  
ram:0007a4bc    00bf            nop                                                  
ram:0007a4be    00bf            nop                                                  
ram:0007a4c0    00bf            nop                                                  
ram:0007a4c2    00bf            nop                                                  
ram:0007a4c4    00bf            nop                                                  
ram:0007a4c6    00bf            nop                                                  
ram:0007a4c8    00bf            nop                                                  
ram:0007a4ca    00bf            nop                                                  
ram:0007a4cc    00bf            nop                                                  
ram:0007a4ce    00bf            nop                                                  
ram:0007a4d0    00bf            nop                                                  
ram:0007a4d2    00bf            nop                                                  
ram:0007a4d4    00bf            nop                                                  
ram:0007a4d6    00bf            nop                                                  
ram:0007a4d8    00bf            nop                                                  
ram:0007a4da    00bf            nop                                                  
ram:0007a4dc    00bf            nop                                                  
ram:0007a4de    00bf            nop                                                  
ram:0007a4e0    00bf            nop                                                  
ram:0007a4e2    00bf            nop                                                  
ram:0007a4e4    00bf            nop                                                  
ram:0007a4e6    00bf            nop                                                  
ram:0007a4e8    00bf            nop                                                  
ram:0007a4ea    00bf            nop                                                  
ram:0007a4ec    00bf            nop                                                  
ram:0007a4ee    00bf            nop                                                  
ram:0007a4f0    00bf            nop                                                  
ram:0007a4f2    00bf            nop                                                  
ram:0007a4f4    00bf            nop                                                  
ram:0007a4f6    00bf            nop                                                  
ram:0007a4f8    00bf            nop                                                  
ram:0007a4fa    00bf            nop                                                  
ram:0007a4fc    00bf            nop                                                  
ram:0007a4fe    00bf            nop                                                  
ram:0007a500    00bf            nop                                                  
ram:0007a502    00bf            nop                                                  
ram:0007a504    00bf            nop                                                  
ram:0007a506    00bf            nop                                                  
ram:0007a508    00bf            nop                                                  
ram:0007a50a    00bf            nop                                                  
ram:0007a50c    00bf            nop                                                  
ram:0007a50e    00bf            nop                                                  
ram:0007a510    00bf            nop                                                  
ram:0007a512    00bf            nop                                                  
ram:0007a514    00bf            nop                                                  
ram:0007a516    00bf            nop                                                  
ram:0007a518    00bf            nop                                                  
ram:0007a51a    00bf            nop                                                  
ram:0007a51c    00bf            nop                                                  
ram:0007a51e    c5d1            bne         FUN_0007a4ac                            
ram:0007a520    7047            bx          lr                                      
ram:0007a522    0000            movs        r0,r0                                   
                            ;************************************************************************************************
                            ;*                                           FUNCTION                                           *
                            ;************************************************************************************************
                            ;undefined FUN_0007a524(undefined4 * param_1)
          ;param_1       undefined4 *        r0                      
                                                          ;XREF[1,0]:   0007b83c
ram:0007a524    0568            ldr         r5,[param_1,#0x0]                       
ram:0007a526    85f30888        msr         msp,r5                                  
ram:0007a52a    4068            ldr         param_1,[param_1,#0x4]                  
ram:0007a52c    ff24            movs        r4,#0xff                                
ram:0007a52e    64b2            sxtb        r4,r4                                   
                            ;************************************************************************************************
                            ;*                                           FUNCTION                                           *
                            ;************************************************************************************************
                            ;undefined FUN_0007a530(undefined * UNRECOVERED_JUMPTABLE)
          ;UNRECOVERE... undefined *         r0                      
                                                          ;XREF[1,0]:   0007a5fc
ram:0007a530    eff30585        mrs         r5,ipsr                                 
ram:0007a534    002d            cmp         r5,#0x0                                 
ram:0007a536    01d1            bne         LAB_0007a53c                            
ram:0007a538    a646            mov         lr,r4                                   
ram:0007a53a    0047            bx          UNRECOVERED_JUMPTABLE                   
                            LAB_0007a53c:                 ;XREF[1,0]:   0007a536
ram:0007a53c    2546            mov         r5,r4                                   
ram:0007a53e    0646            mov         r6,UNRECOVERED_JUMPTABLE                
ram:0007a540    2127            movs        r7,#0x21                                
ram:0007a542    3fba            rev         r7,r7                                   
ram:0007a544    f0b4            push        {r4,r5,r6,r7}=>PTR_DAT_0007d898         ;= 0007d8b8
ram:0007a546    0024            movs        r4,#0x0                                 
ram:0007a548    0025            movs        r5,#0x0                                 
ram:0007a54a    0026            movs        r6,#0x0                                 
ram:0007a54c    0027            movs        r7,#0x0                                 
ram:0007a54e    f0b4            push        {r4,r5,r6,r7}                           
ram:0007a550    f920            movs        UNRECOVERED_JUMPTABLE,#0xf9             
ram:0007a552    40b2            sxtb        UNRECOVERED_JUMP...,UNRECOVERED_JUMPT...
ram:0007a554    0047            bx          UNRECOVERED_JUMPTABLE=>LAB_fffffff8     
ram:0007a556    0000            movs        r0,r0                                   
                            ;************************************************************************************************
                            ;*                                           FUNCTION                                           *
                            ;************************************************************************************************
                            ;undefined FUNC_Reset_0007a558(void)
                                                          ;XREF[0,1]:   0007a004
ram:0007a558    0648            ldr         r0,[PTR_FUN_0007a710+1_0007a574]        ;= 0007a711
ram:0007a55a    8047            blx         r0=>FUN_0007a710                        ;undefined FUN_0007a710(void)
ram:0007a55c    0648            ldr         r0,[PTR_LAB_0007a400+1+1_0007a578]      ;= 0007a401
ram:0007a55e    0047            bx          r0=>LAB_0007a400+1                      ;undefined LAB_0007a400+1(undefined4 ...
                            ;************************************************************************************************
                            ;*                                           FUNCTION                                           *
                            ;************************************************************************************************
                            ;undefined FUNC_NMI_0007a560(void)
                                                          ;XREF[1,1]:   0007a560,0007a008
ram:0007a560    fee7            b           FUNC_NMI_0007a560                       
                            ;************************************************************************************************
                            ;*                                           FUNCTION                                           *
                            ;************************************************************************************************
                            ;undefined FUNC_HardFault_0007a562(void)
                                                          ;XREF[1,1]:   0007a562,0007a00c
ram:0007a562    fee7            b           FUNC_HardFault_0007a562                 
                            ;************************************************************************************************
                            ;*                                           FUNCTION                                           *
                            ;************************************************************************************************
                            ;undefined FUNC_MemManage_0007a564(void)
                                                          ;XREF[1,1]:   0007a564,0007a010
ram:0007a564    fee7            b           FUNC_MemManage_0007a564                 
                            ;************************************************************************************************
                            ;*                                           FUNCTION                                           *
                            ;************************************************************************************************
                            ;undefined FUNC_BusFault_0007a566(void)
                                                          ;XREF[1,1]:   0007a566,0007a014
ram:0007a566    fee7            b           FUNC_BusFault_0007a566                  
                            ;************************************************************************************************
                            ;*                                           FUNCTION                                           *
                            ;************************************************************************************************
                            ;undefined FUNC_UsageFault_0007a568(void)
                                                          ;XREF[1,1]:   0007a568,0007a018
ram:0007a568    fee7            b           FUNC_UsageFault_0007a568                
                            ;************************************************************************************************
                            ;*                                           FUNCTION                                           *
                            ;************************************************************************************************
                            ;undefined FUN_0007a56a(void)
                                                          ;XREF[1,0]:   0007a56a
ram:0007a56a    fee7            b           FUN_0007a56a                            
                            ;************************************************************************************************
                            ;*                                           FUNCTION                                           *
                            ;************************************************************************************************
                            ;undefined FUNC_PendSV_0007a56c(void)
                                                          ;XREF[1,1]:   0007a56c,0007a038
ram:0007a56c    fee7            b           FUNC_PendSV_0007a56c                    
                            ;************************************************************************************************
                            ;*                                           FUNCTION                                           *
                            ;************************************************************************************************
                            ;undefined FUNC_SysTick_0007a56e(void)
                                                          ;XREF[1,1]:   0007a56e,0007a03c
ram:0007a56e    fee7            b           FUNC_SysTick_0007a56e                   
                            ;************************************************************************************************
                            ;*                                           FUNCTION                                           *
                            ;************************************************************************************************
                            ;undefined FUNC_IRQ_0007a570(void)
                                                          ;XREF[1,33]:  0007a570,0007a040,0007a044,0007a048
                                                          ;             0007a04c,0007a050,0007a054,0007a058
                                                          ;             0007a05c,0007a060,0007a064,0007a068
                                                          ;             0007a06c,0007a070,0007a074,0007a078
                                                          ;             0007a07c,0007a080,0007a088,0007a08c
                                                          ;             0007a094,0007a09c,0007a0a0,0007a0a4
                                                          ;             0007a0a8,0007a0ac,0007a0b0,0007a0b4
                                                          ;             0007a0c0,0007a0c4,0007a0c8,0007a0cc
                                                          ;             0007a0d0,0007a0d4
ram:0007a570    fee7            b           FUNC_IRQ_0007a570                       
ram:0007a572    0000            movs        r0,r0                                   
                            PTR_FUN_0007a710+1_0007a574:  ;XREF[2,0]:   0007a558,0007a600
ram:0007a574    11a70700        addr        FUN_0007a710+1                          
                            PTR_LAB_0007a400+1+1_0007a578:;XREF[1,0]:   0007a55c
ram:0007a578    01a40700        addr        LAB_0007a400+1+1                        
                            ;************************************************************************************************
                            ;*                                           FUNCTION                                           *
                            ;************************************************************************************************
                            ;undefined FUN_0007a57c(undefined4 * param_1, undefined4 * param_2, uint param_3)
          ;param_1       undefined4 *        r0                      
          ;param_2       undefined4 *        r1                      
          ;param_3       uint                r2                      
                                                          ;XREF[14,0]:  0007a640,0007acca,0007aeba,0007b15a
                                                          ;             0007b692,0007bc5c,0007bcde,0007bfbe
                                                          ;             0007c01c,0007cbf4,0007ce22,0007ce2c
                                                          ;             0007ce4e,0007d35e
ram:0007a57c    40ea0103        orr.w       r3,param_1,param_2                      
ram:0007a580    9b07            lsls        r3,r3,#0x1e                             
ram:0007a582    03d0            beq         LAB_0007a58c                            
ram:0007a584    09e0            b           LAB_0007a59a                            
                            LAB_0007a586:                 ;XREF[1,0]:   0007a58e
ram:0007a586    08c9            ldmia       param_2!,{r3}                           
ram:0007a588    121f            subs        param_3,param_3,#0x4                    
ram:0007a58a    08c0            stmia       param_1!,{r3}                           
                            LAB_0007a58c:                 ;XREF[1,0]:   0007a582
ram:0007a58c    042a            cmp         param_3,#0x4                            
ram:0007a58e    fad2            bcs         LAB_0007a586                            
ram:0007a590    03e0            b           LAB_0007a59a                            
                            LAB_0007a592:                 ;XREF[1,0]:   0007a59c
ram:0007a592    11f8013b        ldrb.w      r3,[param_2],#0x1                       
ram:0007a596    00f8013b        strb.w      r3,[param_1],#0x1                       
                            LAB_0007a59a:                 ;XREF[2,0]:   0007a584,0007a590
ram:0007a59a    521e            subs        param_3,param_3,#0x1                    
ram:0007a59c    f9d2            bcs         LAB_0007a592                            
ram:0007a59e    7047            bx          lr                                      
                            ;************************************************************************************************
                            ;*                                           FUNCTION                                           *
                            ;************************************************************************************************
                            ;undefined FUN_0007a5a0(undefined * param_1, int param_2, undefined param_3)
          ;param_1       undefined *         r0                      
          ;param_2       int                 r1                      
          ;param_3       undefined           r2                      
                                                          ;XREF[2,0]:   0007a5b0,0007a5bc
ram:0007a5a0    d2b2            uxtb        param_3,param_3                         
ram:0007a5a2    01e0            b           LAB_0007a5a8                            
                            LAB_0007a5a4:                 ;XREF[1,0]:   0007a5aa
ram:0007a5a4    00f8012b        strb.w      param_3,[param_1],#0x1                  
                            LAB_0007a5a8:                 ;XREF[1,0]:   0007a5a2
ram:0007a5a8    491e            subs        param_2,param_2,#0x1                    
ram:0007a5aa    fbd2            bcs         LAB_0007a5a4                            
ram:0007a5ac    7047            bx          lr                                      
                            ;************************************************************************************************
                            ;*                                           FUNCTION                                           *
                            ;************************************************************************************************
                            ;undefined FUN_0007a5ae(undefined * param_1, int param_2)
          ;param_1       undefined *         r0                      
          ;param_2       int                 r1                      
                                                          ;XREF[11,0]:  0007aba6,0007abee,0007bb24,0007bd34
                                                          ;             0007bd9a,0007c082,0007c0e8,0007c198
                                                          ;             0007c1fe,0007c58a,0007d3b8
ram:0007a5ae    0022            movs        r2,#0x0                                 
ram:0007a5b0    f6e7            b           FUN_0007a5a0                            ;undefined FUN_0007a5a0(undefined * p...
                            ;************************************************************************************************
                            ;*                                           FUNCTION                                           *
                            ;************************************************************************************************
                            ;undefined * FUN_0007a5b2(undefined * param_1, undefined param_2, int param_3)
          ;param_1       undefined *         r0                      
          ;param_2       undefined           r1                      
          ;param_3       int                 r2                      
ram:0007a5b2    10b5            push        {r4,lr}                                 
ram:0007a5b4    1346            mov         r3,param_3                              
ram:0007a5b6    0a46            mov         param_3,param_2                         
ram:0007a5b8    0446            mov         r4,param_1                              
ram:0007a5ba    1946            mov         param_2,r3                              
ram:0007a5bc    fff7f0ff        bl          FUN_0007a5a0                            ;undefined FUN_0007a5a0(undefined * p...
ram:0007a5c0    2046            mov         param_1,r4                              
ram:0007a5c2    10bd            pop         {r4,pc}                                 
                            ;************************************************************************************************
                            ;*                                           FUNCTION                                           *
                            ;************************************************************************************************
                            ;undefined FUN_0007a5c4(int param_1, int param_2, uint param_3)
          ;param_1       int                 r0                      
          ;param_2       int                 r1                      
          ;param_3       uint                r2                      
                                                          ;XREF[1,0]:   0007ac14
ram:0007a5c4    30b5            push        {r4,r5,lr}                              
ram:0007a5c6    0446            mov         r4,param_1                              
ram:0007a5c8    0020            movs        param_1,#0x0                            
ram:0007a5ca    0346            mov         r3,param_1                              
ram:0007a5cc    00e0            b           LAB_0007a5d0                            
                            LAB_0007a5ce:                 ;XREF[1,0]:   0007a5da
ram:0007a5ce    5b1c            adds        r3,r3,#0x1                              
                            LAB_0007a5d0:                 ;XREF[1,0]:   0007a5cc
ram:0007a5d0    9342            cmp         r3,param_3                              
ram:0007a5d2    03d2            bcs         LAB_0007a5dc                            
ram:0007a5d4    e05c            ldrb        param_1,[r4,r3]                         
ram:0007a5d6    cd5c            ldrb        r5,[param_2,r3]                         
ram:0007a5d8    401b            subs        param_1,param_1,r5                      
ram:0007a5da    f8d0            beq         LAB_0007a5ce                            
                            LAB_0007a5dc:                 ;XREF[1,0]:   0007a5d2
ram:0007a5dc    30bd            pop         {r4,r5,pc}                              
ram:0007a5de    0000            movs        r0,r0                                   
                            ;************************************************************************************************
                            ;*                                           FUNCTION                                           *
                            ;************************************************************************************************
                            ;undefined FUN_0007a5e0(undefined4 param_1, undefined4 param_2, undefined * param_3)
          ;param_1       undefined4          r0                      
          ;param_2       undefined4          r1                      
          ;param_3       undefined *         r2                      
                                                          ;XREF[1,0]:   0007a404
ram:0007a5e0    064c            ldr         r4,[LAB_0007a5fc]                       
ram:0007a5e2    074d            ldr         r5,[LAB_0007a600]                       
ram:0007a5e4    06e0            b           LAB_0007a5f4                            
                            LAB_0007a5e6:                 ;XREF[1,0]:   0007a5f6
ram:0007a5e6    e068            ldr         param_1,[r4,#0xc]=>->thunk_FUN_0007a974 ;= 0007a96c
ram:0007a5e8    40f00103        orr         r3,param_1,#0x1                         
                                                          ; FWD[5,0]:   0007d898,0007d89c,0007d8a0,0007d8b8
                                                          ;             20002c00
ram:0007a5ec    94e80700        ldm.w       r4,{param_1,param_2,param_3}=>PTR_DAT...;= 0007d8b8
                                                                                    ;= 20002C00h
                                                                                    ;= 000000D4h
ram:0007a5f0    9847            blx         r3=>thunk_FUN_0007a974                  ;undefined thunk_FUN_0007a974(undefin...
ram:0007a5f2    1034            adds        r4,#0x10                                
                            LAB_0007a5f4:                 ;XREF[1,0]:   0007a5e4
ram:0007a5f4    ac42            cmp         r4,r5                                   
ram:0007a5f6    f6d3            bcc         LAB_0007a5e6                            
ram:0007a5f8    fff706ff        bl          thunk_FUN_0007ca68                      ;undefined thunk_FUN_0007ca68(void)
                            LAB_0007a5fc:                 ;XREF[3,0]:   0007a5e0,0007a60e,0007a658
ram:0007a5fc    98d8            bhi         FUN_0007a530                            
ram:0007a5fe    0700            movs        r7,param_1                              
                            LAB_0007a600:                 ;XREF[1,0]:   0007a5e2
ram:0007a600    b8d8            bhi         PTR_FUN_0007a710+1_0007a574             
ram:0007a602    0700            movs        r7,param_1                              
                            LAB_0007a604:                 ;XREF[1,0]:   0007a42e
ram:0007a604    10b5            push        {r4,lr}=>PTR_DAT_0007d898               ;= 0007d8b8
ram:0007a606    0c46            mov         r4,param_2                              
ram:0007a608    10b1            cbz         param_1,LAB_0007a610                    
ram:0007a60a    0120            movs        param_1,#0x1                            
ram:0007a60c    0860            str         param_1,[param_2,#0x0]                  
ram:0007a60e    10bd            pop         {r4,pc}=>LAB_0007a5fc                   
                            LAB_0007a610:                 ;XREF[1,0]:   0007a608
ram:0007a610    2168            ldr         param_2,[r4,#0x0]                       
ram:0007a612    91b1            cbz         param_2,LAB_0007a63a                    
ram:0007a614    1148            ldr         param_1,[DAT_0007a65c]                  ;= 20007F82h
ram:0007a616    421a            subs        param_3,param_1,param_2                 
ram:0007a618    8142            cmp         param_2,param_1                         
ram:0007a61a    13d0            beq         LAB_0007a644                            
ram:0007a61c    3c2a            cmp         param_3,#0x3c                           
ram:0007a61e    0ed2            bcs         LAB_0007a63e                            
ram:0007a620    0122            movs        param_3,#0x1                            
ram:0007a622    3c30            adds        param_1,#0x3c                           
ram:0007a624    11f13c01        adds.w      param_2,param_2,#0x3c                   
                            LAB_0007a628:                 ;XREF[1,0]:   0007a636
ram:0007a628    11f80139        ldrb.w      r3,[param_2],#-0x1                      
                                                          ; FWD[2,0]:   20007fbd,20007fbe
ram:0007a62c    00f80139        strb.w      r3,[param_1],#-0x1=>DAT_20007fbe        
ram:0007a630    1346            mov         r3,param_3                              
ram:0007a632    521c            adds        param_3,param_3,#0x1                    
ram:0007a634    3c2b            cmp         r3,#0x3c                                
ram:0007a636    f7d9            bls         LAB_0007a628                            
ram:0007a638    04e0            b           LAB_0007a644                            
                            LAB_0007a63a:                 ;XREF[1,0]:   0007a612
ram:0007a63a    0e20            movs        param_1,#0xe                            
ram:0007a63c    0be0            b           LAB_0007a656                            
                            LAB_0007a63e:                 ;XREF[1,0]:   0007a61e
ram:0007a63e    3c22            movs        param_3,#0x3c                           
ram:0007a640    fff79cff        bl          FUN_0007a57c                            ;undefined FUN_0007a57c(undefined4 * ...
                            LAB_0007a644:                 ;XREF[2,0]:   0007a61a,0007a638
ram:0007a644    0022            movs        param_3,#0x0                            
ram:0007a646    3c21            movs        param_2,#0x3c                           
ram:0007a648    0448            ldr         param_1,[DAT_0007a65c]                  ;= 20007F82h
ram:0007a64a    01f039fa        bl          FUN_0007bac0                            ;uint FUN_0007bac0(int param_1, uint ...
ram:0007a64e    0349            ldr         param_2,[DAT_0007a65c]                  ;= 20007F82h
ram:0007a650    891e            subs        param_2,param_2,#0x2                    
ram:0007a652    0880            strh        param_1,[param_2,#0x0]=>DAT_20007f80    
ram:0007a654    0020            movs        param_1,#0x0                            
                            LAB_0007a656:                 ;XREF[1,0]:   0007a63c
ram:0007a656    2060            str         param_1,[r4,#0x0]                       
ram:0007a658    10bd            pop         {r4,pc}=>LAB_0007a5fc                   
ram:0007a65a    0000            movs        r0,r0                                   
                            DAT_0007a65c:                 ;XREF[3,0]:   0007a614,0007a648,0007a64e
ram:0007a65c    827f0020        undefined4  20007F82h                               
                            ;************************************************************************************************
                            ;*                                           FUNCTION                                           *
                            ;************************************************************************************************
                            ;undefined FUN_0007a660(uint param_1)
          ;param_1       uint                r0                      
                                                          ;XREF[2,0]:   0007afd6,0007b962
ram:0007a660    00f01f02        and         r2,param_1,#0x1f                        
ram:0007a664    0121            movs        r1,#0x1                                 
ram:0007a666    9140            lsls        r1,r2                                   
ram:0007a668    4009            lsrs        param_1,param_1,#0x5                    
ram:0007a66a    8000            lsls        param_1,param_1,#0x2                    
ram:0007a66c    00f1e020        add.w       param_1,param_1,#0xe000e000             
ram:0007a670    c0f88012        str.w       r1,[param_1,#0x280]                     
ram:0007a674    7047            bx          lr                                      
                            ;************************************************************************************************
                            ;*                                           FUNCTION                                           *
                            ;************************************************************************************************
                            ;undefined FUN_0007a676(uint param_1)
          ;param_1       uint                r0                      
                                                          ;XREF[2,0]:   0007afe4,0007b968
ram:0007a676    00f01f02        and         r2,param_1,#0x1f                        
ram:0007a67a    0121            movs        r1,#0x1                                 
ram:0007a67c    9140            lsls        r1,r2                                   
ram:0007a67e    4009            lsrs        param_1,param_1,#0x5                    
ram:0007a680    8000            lsls        param_1,param_1,#0x2                    
ram:0007a682    00f1e020        add.w       param_1,param_1,#0xe000e000             
ram:0007a686    c0f80011        str.w       r1,[param_1,#0x100]=>DAT_e000e100       
ram:0007a68a    7047            bx          lr                                      
                            ;************************************************************************************************
                            ;*                                           FUNCTION                                           *
                            ;************************************************************************************************
                            ;undefined FUN_0007a68c(uint param_1)
          ;param_1       uint                r0                      
                                                          ;XREF[4,0]:   0007b07a,0007b0d4,0007b9bc,0007d624
ram:0007a68c    00f01f02        and         r2,param_1,#0x1f                        
ram:0007a690    0121            movs        r1,#0x1                                 
ram:0007a692    9140            lsls        r1,r2                                   
ram:0007a694    4009            lsrs        param_1,param_1,#0x5                    
ram:0007a696    8000            lsls        param_1,param_1,#0x2                    
ram:0007a698    00f1e020        add.w       param_1,param_1,#0xe000e000             
ram:0007a69c    c0f80012        str.w       r1,[param_1,#0x200]                     
ram:0007a6a0    7047            bx          lr                                      
                            ;************************************************************************************************
                            ;*                                           FUNCTION                                           *
                            ;************************************************************************************************
                            ;undefined FUN_0007a6a2(uint param_1, int param_2)
          ;param_1       uint                r0                      
          ;param_2       int                 r1                      
                                                          ;XREF[2,0]:   0007afde,0007aff2
ram:0007a6a2    4907            lsls        param_2,param_2,#0x1d                   
ram:0007a6a4    090e            lsrs        param_2,param_2,#0x18                   
ram:0007a6a6    0028            cmp         param_1,#0x0                            
ram:0007a6a8    06da            bge         LAB_0007a6b8                            
ram:0007a6aa    00f00f00        and         param_1,param_1,#0xf                    
ram:0007a6ae    00f1e020        add.w       param_1,param_1,#0xe000e000             
ram:0007a6b2    80f8141d        strb.w      param_2,[param_1,#0xd14]                
ram:0007a6b6    7047            bx          lr                                      
                            LAB_0007a6b8:                 ;XREF[1,0]:   0007a6a8
ram:0007a6b8    00f1e020        add.w       param_1,param_1,#0xe000e000             
ram:0007a6bc    80f80014        strb.w      param_2,[param_1,#0x400]                
ram:0007a6c0    7047            bx          lr                                      
ram:0007a6c2    0000            movs        r0,r0                                   
                            ;************************************************************************************************
                            ;*                                           FUNCTION                                           *
                            ;************************************************************************************************
                            ;undefined FUNC_VT_0007a6c4(void)
                                                          ;XREF[0,1]:   0007a084
ram:0007a6c4    0748            ldr         r0=>DAT_40011000,[DAT_0007a6e4]         ;= 40011000h
ram:0007a6c6    0021            movs        r1,#0x0                                 
ram:0007a6c8    c0f84011        str.w       r1,[r0,#0x140]=>DAT_40011140            
ram:0007a6cc    c0f84411        str.w       r1,[r0,#0x144]=>DAT_40011144            
ram:0007a6d0    c0f84811        str.w       r1,[r0,#0x148]=>DAT_40011148            
ram:0007a6d4    c0f84c11        str.w       r1,[r0,#0x14c]=>DAT_4001114c            
ram:0007a6d8    c0f80011        str.w       r1,[r0,#0x100]=>DAT_40011100            
ram:0007a6dc    c0f80411        str.w       r1,[r0,#0x104]=>DAT_40011104            
ram:0007a6e0    02f066bf        b.w         FUN_0007d5b0                            ;undefined FUN_0007d5b0(void)
                            DAT_0007a6e4:                 ;XREF[1,0]:   0007a6c4
ram:0007a6e4    00100140        undefined4  40011000h                               
                            ;************************************************************************************************
                            ;*                                           FUNCTION                                           *
                            ;************************************************************************************************
                            ;undefined thunk_FUN_0007d4e8(void)
                                                          ;XREF[0,1]:   0007a090
ram:0007a6e8    02f0febe        b.w         FUN_0007d4e8                            ;undefined FUN_0007d4e8(void)
                            ;************************************************************************************************
                            ;*                                           FUNCTION                                           *
                            ;************************************************************************************************
                            ;undefined FUNC_VT_0007a6ec(void)
                                                          ;XREF[0,1]:   0007a098
ram:0007a6ec    0748            ldr         r0,[DAT_0007a70c]                       ;= 20002CBCh
ram:0007a6ee    10b5            push        {r4,lr}                                 
ram:0007a6f0    4068            ldr         r0,[r0,#0x4]=>DAT_20002cc0              
ram:0007a6f2    30b1            cbz         r0,LAB_0007a702                         
ram:0007a6f4    8047            blx         r0                                      
ram:0007a6f6    0028            cmp         r0,#0x0                                 
ram:0007a6f8    07d0            beq         LAB_0007a70a                            
ram:0007a6fa    bde81040        pop.w       {r4,lr}                                 
ram:0007a6fe    00f03fbb        b.w         FUN_0007ad80                            ;undefined FUN_0007ad80(void)
                            LAB_0007a702:                 ;XREF[1,0]:   0007a6f2
ram:0007a702    bde81040        pop.w       {r4,lr}                                 
ram:0007a706    02f075b8        b.w         FUN_0007c7f4                            
                            LAB_0007a70a:                 ;XREF[1,0]:   0007a6f8
ram:0007a70a    10bd            pop         {r4,pc}                                 
                            DAT_0007a70c:                 ;XREF[1,0]:   0007a6ec
ram:0007a70c    bc2c0020        undefined4  20002CBCh                               
                            ;************************************************************************************************
                            ;*                                           FUNCTION                                           *
                            ;************************************************************************************************
                            ;undefined FUN_0007a710(void)
                                                          ;XREF[1,1]:   0007a55a,0007a574
ram:0007a710    f0b5            push        {r4,r5,r6,r7,lr}                        
ram:0007a712    8c48            ldr         r0,[DAT_0007a944]                       ;= F0000FE0h
ram:0007a714    0022            movs        r2,#0x0                                 
ram:0007a716    041d            adds        r4,r0,#0x4                              
ram:0007a718    0378            ldrb        r3,[r0,#0x0]=>DAT_f0000fe0              
ram:0007a71a    211d            adds        r1,r4,#0x4                              
ram:0007a71c    081d            adds        r0,r1,#0x4                              
ram:0007a71e    0126            movs        r6,#0x1                                 
ram:0007a720    062b            cmp         r3,#0x6                                 
ram:0007a722    17d1            bne         LAB_0007a754                            
ram:0007a724    2578            ldrb        r5,[r4,#0x0]=>DAT_f0000fe4              
ram:0007a726    2d07            lsls        r5,r5,#0x1c                             
ram:0007a728    14d1            bne         LAB_0007a754                            
ram:0007a72a    0d78            ldrb        r5,[r1,#0x0]=>DAT_f0000fe8              
ram:0007a72c    c5f30315        ubfx        r5,r5,#0x4,#0x4                         
ram:0007a730    032d            cmp         r5,#0x3                                 
ram:0007a732    03d1            bne         LAB_0007a73c                            
ram:0007a734    0778            ldrb        r7,[r0,#0x0]=>DAT_f0000fec              
ram:0007a736    17f0f00f        tst         r7,#0xf0                                
ram:0007a73a    0ed0            beq         LAB_0007a75a                            
                            LAB_0007a73c:                 ;XREF[1,0]:   0007a732
ram:0007a73c    042d            cmp         r5,#0x4                                 
ram:0007a73e    03d1            bne         LAB_0007a748                            
ram:0007a740    0778            ldrb        r7,[r0,#0x0]=>DAT_f0000fec              
ram:0007a742    17f0f00f        tst         r7,#0xf0                                
ram:0007a746    08d0            beq         LAB_0007a75a                            
                            LAB_0007a748:                 ;XREF[1,0]:   0007a73e
ram:0007a748    052d            cmp         r5,#0x5                                 
ram:0007a74a    03d1            bne         LAB_0007a754                            
ram:0007a74c    0578            ldrb        r5,[r0,#0x0]=>DAT_f0000fec              
ram:0007a74e    15f0f00f        tst         r5,#0xf0                                
ram:0007a752    02d0            beq         LAB_0007a75a                            
                            LAB_0007a754:                 ;XREF[3,0]:   0007a722,0007a728,0007a74a
ram:0007a754    062b            cmp         r3,#0x6                                 
ram:0007a756    09d0            beq         LAB_0007a76c                            
ram:0007a758    14e0            b           LAB_0007a784                            
                            LAB_0007a75a:                 ;XREF[3,0]:   0007a73a,0007a746,0007a752
ram:0007a75a    4ff08055        mov.w       r5,#0x10000000                          
ram:0007a75e    d5f84452        ldr.w       r5,[r5,#offset DAT_10000244 &0xffff]    
ram:0007a762    794f            ldr         r7,[DAT_0007a948]                       ;= 4000053Ch
ram:0007a764    c5f34235        ubfx        r5,r5,#0xd,#0x3                         
ram:0007a768    3d60            str         r5,[r7,#0x0]=>DAT_4000053c              
ram:0007a76a    02e0            b           LAB_0007a772                            
                            LAB_0007a76c:                 ;XREF[1,0]:   0007a756
ram:0007a76c    2578            ldrb        r5,[r4,#0x0]=>DAT_f0000fe4              
ram:0007a76e    2d07            lsls        r5,r5,#0x1c                             
ram:0007a770    08d1            bne         LAB_0007a784                            
                            LAB_0007a772:                 ;XREF[1,0]:   0007a76a
ram:0007a772    0d78            ldrb        r5,[r1,#0x0]=>DAT_f0000fe8              
ram:0007a774    c5f30315        ubfx        r5,r5,#0x4,#0x4                         
ram:0007a778    032d            cmp         r5,#0x3                                 
ram:0007a77a    03d1            bne         LAB_0007a784                            
ram:0007a77c    0578            ldrb        r5,[r0,#0x0]=>DAT_f0000fec              
ram:0007a77e    15f0f00f        tst         r5,#0xf0                                
ram:0007a782    02d0            beq         LAB_0007a78a                            
                            LAB_0007a784:                 ;XREF[3,0]:   0007a758,0007a770,0007a77a
ram:0007a784    062b            cmp         r3,#0x6                                 
ram:0007a786    06d0            beq         LAB_0007a796                            
ram:0007a788    1de0            b           LAB_0007a7c6                            
                            LAB_0007a78a:                 ;XREF[1,0]:   0007a782
ram:0007a78a    704d            ldr         r5,[DAT_0007a94c]                       ;= E000EDFCh
ram:0007a78c    2f68            ldr         r7,[r5,#0x0]=>DAT_e000edfc              
ram:0007a78e    27f08077        bic         r7,r7,#0x1000000                        
ram:0007a792    2f60            str         r7,[r5,#0x0]=>DAT_e000edfc              
ram:0007a794    1ae0            b           LAB_0007a7cc                            
                            LAB_0007a796:                 ;XREF[1,0]:   0007a786
ram:0007a796    2578            ldrb        r5,[r4,#0x0]=>DAT_f0000fe4              
ram:0007a798    2d07            lsls        r5,r5,#0x1c                             
ram:0007a79a    14d1            bne         LAB_0007a7c6                            
ram:0007a79c    0d78            ldrb        r5,[r1,#0x0]=>DAT_f0000fe8              
ram:0007a79e    c5f30315        ubfx        r5,r5,#0x4,#0x4                         
ram:0007a7a2    032d            cmp         r5,#0x3                                 
ram:0007a7a4    03d1            bne         LAB_0007a7ae                            
ram:0007a7a6    0778            ldrb        r7,[r0,#0x0]=>DAT_f0000fec              
ram:0007a7a8    17f0f00f        tst         r7,#0xf0                                
ram:0007a7ac    0ed0            beq         LAB_0007a7cc                            
                            LAB_0007a7ae:                 ;XREF[1,0]:   0007a7a4
ram:0007a7ae    042d            cmp         r5,#0x4                                 
ram:0007a7b0    03d1            bne         LAB_0007a7ba                            
ram:0007a7b2    0778            ldrb        r7,[r0,#0x0]=>DAT_f0000fec              
ram:0007a7b4    17f0f00f        tst         r7,#0xf0                                
ram:0007a7b8    08d0            beq         LAB_0007a7cc                            
                            LAB_0007a7ba:                 ;XREF[1,0]:   0007a7b0
ram:0007a7ba    052d            cmp         r5,#0x5                                 
ram:0007a7bc    03d1            bne         LAB_0007a7c6                            
ram:0007a7be    0578            ldrb        r5,[r0,#0x0]=>DAT_f0000fec              
ram:0007a7c0    15f0f00f        tst         r5,#0xf0                                
ram:0007a7c4    02d0            beq         LAB_0007a7cc                            
                            LAB_0007a7c6:                 ;XREF[3,0]:   0007a788,0007a79a,0007a7bc
ram:0007a7c6    062b            cmp         r3,#0x6                                 
ram:0007a7c8    0ad0            beq         LAB_0007a7e0                            
ram:0007a7ca    15e0            b           LAB_0007a7f8                            
                            LAB_0007a7cc:                 ;XREF[4,0]:   0007a794,0007a7ac,0007a7b8,0007a7c4
ram:0007a7cc    4ff08045        mov.w       r5,#0x40000000                          
ram:0007a7d0    c5f80c21        str.w       r2,[r5,#offset DAT_4000010c &0xffff]    
ram:0007a7d4    c5f81021        str.w       r2,[r5,#offset DAT_40000110 &0xffff]    
ram:0007a7d8    5b4d            ldr         r5,[DAT_0007a948]                       ;= 4000053Ch
ram:0007a7da    2d1f            subs        r5,r5,#0x4                              
ram:0007a7dc    2a60            str         r2,[r5,#0x0]=>DAT_40000538              
ram:0007a7de    02e0            b           LAB_0007a7e6                            
                            LAB_0007a7e0:                 ;XREF[1,0]:   0007a7c8
ram:0007a7e0    2578            ldrb        r5,[r4,#0x0]=>DAT_f0000fe4              
ram:0007a7e2    2d07            lsls        r5,r5,#0x1c                             
ram:0007a7e4    08d1            bne         LAB_0007a7f8                            
                            LAB_0007a7e6:                 ;XREF[1,0]:   0007a7de
ram:0007a7e6    0d78            ldrb        r5,[r1,#0x0]=>DAT_f0000fe8              
ram:0007a7e8    c5f30315        ubfx        r5,r5,#0x4,#0x4                         
ram:0007a7ec    032d            cmp         r5,#0x3                                 
ram:0007a7ee    03d1            bne         LAB_0007a7f8                            
ram:0007a7f0    0578            ldrb        r5,[r0,#0x0]=>DAT_f0000fec              
ram:0007a7f2    15f0f00f        tst         r5,#0xf0                                
ram:0007a7f6    02d0            beq         LAB_0007a7fe                            
                            LAB_0007a7f8:                 ;XREF[3,0]:   0007a7ca,0007a7e4,0007a7ee
ram:0007a7f8    062b            cmp         r3,#0x6                                 
ram:0007a7fa    05d0            beq         LAB_0007a808                            
ram:0007a7fc    66e0            b           LAB_0007a8cc                            
                            LAB_0007a7fe:                 ;XREF[1,0]:   0007a7f6
ram:0007a7fe    524c            ldr         r4,[DAT_0007a948]                       ;= 4000053Ch
ram:0007a800    0323            movs        r3,#0x3                                 
ram:0007a802    6434            adds        r4,#0x64                                
ram:0007a804    2360            str         r3,[r4,#0x0]=>DAT_400005a0              
ram:0007a806    02e0            b           LAB_0007a80e                            
                            LAB_0007a808:                 ;XREF[1,0]:   0007a7fa
ram:0007a808    2378            ldrb        r3,[r4,#0x0]=>DAT_f0000fe4              
ram:0007a80a    1b07            lsls        r3,r3,#0x1c                             
ram:0007a80c    5ed1            bne         LAB_0007a8cc                            
                            LAB_0007a80e:                 ;XREF[1,0]:   0007a806
ram:0007a80e    0978            ldrb        r1,[r1,#0x0]=>DAT_f0000fe8              
ram:0007a810    c1f30311        ubfx        r1,r1,#0x4,#0x4                         
ram:0007a814    0529            cmp         r1,#0x5                                 
ram:0007a816    59d1            bne         LAB_0007a8cc                            
ram:0007a818    0078            ldrb        r0,[r0,#0x0]=>DAT_f0000fec              
ram:0007a81a    10f0f00f        tst         r0,#0xf0                                
ram:0007a81e    55d1            bne         LAB_0007a8cc                            
ram:0007a820    4b48            ldr         r0,[DAT_0007a950]                       ;= 10000404h
ram:0007a822    0068            ldr         r0,[r0,#0x0]=>DAT_10000404              
ram:0007a824    4b49            ldr         r1,[DAT_0007a954]                       ;= 4000C520h
ram:0007a826    0860            str         r0,[r1,#0x0]=>DAT_4000c520              
ram:0007a828    4948            ldr         r0,[DAT_0007a950]                       ;= 10000404h
ram:0007a82a    001d            adds        r0,r0,#0x4                              
ram:0007a82c    0068            ldr         r0,[r0,#0x0]=>DAT_10000408              
ram:0007a82e    091d            adds        r1,r1,#0x4                              
ram:0007a830    0860            str         r0,[r1,#0x0]=>DAT_4000c524              
ram:0007a832    4748            ldr         r0,[DAT_0007a950]                       ;= 10000404h
ram:0007a834    0830            adds        r0,#0x8                                 
ram:0007a836    0068            ldr         r0,[r0,#0x0]=>DAT_1000040c              
ram:0007a838    091d            adds        r1,r1,#0x4                              
ram:0007a83a    0860            str         r0,[r1,#0x0]=>DAT_4000c528              
ram:0007a83c    4448            ldr         r0,[DAT_0007a950]                       ;= 10000404h
ram:0007a83e    0c30            adds        r0,#0xc                                 
ram:0007a840    0068            ldr         r0,[r0,#0x0]=>DAT_10000410              
ram:0007a842    091d            adds        r1,r1,#0x4                              
ram:0007a844    0860            str         r0,[r1,#0x0]=>DAT_4000c52c              
ram:0007a846    4248            ldr         r0,[DAT_0007a950]                       ;= 10000404h
ram:0007a848    1030            adds        r0,#0x10                                
ram:0007a84a    0068            ldr         r0,[r0,#0x0]=>DAT_10000414              
ram:0007a84c    091d            adds        r1,r1,#0x4                              
ram:0007a84e    0860            str         r0,[r1,#0x0]=>DAT_4000c530              
ram:0007a850    3f48            ldr         r0,[DAT_0007a950]                       ;= 10000404h
ram:0007a852    1430            adds        r0,#0x14                                
ram:0007a854    0068            ldr         r0,[r0,#0x0]=>DAT_10000418              
ram:0007a856    091d            adds        r1,r1,#0x4                              
ram:0007a858    0860            str         r0,[r1,#0x0]=>DAT_4000c534              
ram:0007a85a    3d48            ldr         r0,[DAT_0007a950]                       ;= 10000404h
ram:0007a85c    1830            adds        r0,#0x18                                
ram:0007a85e    0068            ldr         r0,[r0,#0x0]=>DAT_1000041c              
ram:0007a860    3c49            ldr         r1,[DAT_0007a954]                       ;= 4000C520h
ram:0007a862    2031            adds        r1,#0x20                                
ram:0007a864    0860            str         r0,[r1,#0x0]=>DAT_4000c540              
ram:0007a866    3a48            ldr         r0,[DAT_0007a950]                       ;= 10000404h
ram:0007a868    1c30            adds        r0,#0x1c                                
ram:0007a86a    0068            ldr         r0,[r0,#0x0]=>DAT_10000420              
ram:0007a86c    091d            adds        r1,r1,#0x4                              
ram:0007a86e    0860            str         r0,[r1,#0x0]=>DAT_4000c544              
ram:0007a870    3748            ldr         r0,[DAT_0007a950]                       ;= 10000404h
ram:0007a872    2030            adds        r0,#0x20                                
ram:0007a874    0068            ldr         r0,[r0,#0x0]=>DAT_10000424              
ram:0007a876    091d            adds        r1,r1,#0x4                              
ram:0007a878    0860            str         r0,[r1,#0x0]=>DAT_4000c548              
ram:0007a87a    3548            ldr         r0,[DAT_0007a950]                       ;= 10000404h
ram:0007a87c    2430            adds        r0,#0x24                                
ram:0007a87e    0068            ldr         r0,[r0,#0x0]=>DAT_10000428              
ram:0007a880    091d            adds        r1,r1,#0x4                              
ram:0007a882    0860            str         r0,[r1,#0x0]=>DAT_4000c54c              
ram:0007a884    3248            ldr         r0,[DAT_0007a950]                       ;= 10000404h
ram:0007a886    2830            adds        r0,#0x28                                
ram:0007a888    0068            ldr         r0,[r0,#0x0]=>DAT_1000042c              
ram:0007a88a    091d            adds        r1,r1,#0x4                              
ram:0007a88c    0860            str         r0,[r1,#0x0]=>DAT_4000c550              
ram:0007a88e    3048            ldr         r0,[DAT_0007a950]                       ;= 10000404h
ram:0007a890    2c30            adds        r0,#0x2c                                
ram:0007a892    0068            ldr         r0,[r0,#0x0]=>DAT_10000430              
ram:0007a894    091d            adds        r1,r1,#0x4                              
ram:0007a896    0860            str         r0,[r1,#0x0]=>DAT_4000c554              
ram:0007a898    2d48            ldr         r0,[DAT_0007a950]                       ;= 10000404h
ram:0007a89a    3030            adds        r0,#0x30                                
ram:0007a89c    0068            ldr         r0,[r0,#0x0]=>DAT_10000434              
ram:0007a89e    2d49            ldr         r1,[DAT_0007a954]                       ;= 4000C520h
ram:0007a8a0    4031            adds        r1,#0x40                                
ram:0007a8a2    0860            str         r0,[r1,#0x0]=>DAT_4000c560              
ram:0007a8a4    2a48            ldr         r0,[DAT_0007a950]                       ;= 10000404h
ram:0007a8a6    3430            adds        r0,#0x34                                
ram:0007a8a8    0068            ldr         r0,[r0,#0x0]=>DAT_10000438              
ram:0007a8aa    091d            adds        r1,r1,#0x4                              
ram:0007a8ac    0860            str         r0,[r1,#0x0]=>DAT_4000c564              
ram:0007a8ae    2848            ldr         r0,[DAT_0007a950]                       ;= 10000404h
ram:0007a8b0    3830            adds        r0,#0x38                                
ram:0007a8b2    0068            ldr         r0,[r0,#0x0]=>DAT_1000043c              
ram:0007a8b4    091d            adds        r1,r1,#0x4                              
ram:0007a8b6    0860            str         r0,[r1,#0x0]=>DAT_4000c568              
ram:0007a8b8    2548            ldr         r0,[DAT_0007a950]                       ;= 10000404h
ram:0007a8ba    3c30            adds        r0,#0x3c                                
ram:0007a8bc    0068            ldr         r0,[r0,#0x0]=>DAT_10000440              
ram:0007a8be    091d            adds        r1,r1,#0x4                              
ram:0007a8c0    0860            str         r0,[r1,#0x0]=>DAT_4000c56c              
ram:0007a8c2    2348            ldr         r0,[DAT_0007a950]                       ;= 10000404h
ram:0007a8c4    4030            adds        r0,#0x40                                
ram:0007a8c6    0068            ldr         r0,[r0,#0x0]=>DAT_10000444              
ram:0007a8c8    091d            adds        r1,r1,#0x4                              
ram:0007a8ca    0860            str         r0,[r1,#0x0]=>DAT_4000c570              
                            LAB_0007a8cc:                 ;XREF[4,0]:   0007a7fc,0007a80c,0007a816,0007a81e
ram:0007a8cc    1f48            ldr         r0,[DAT_0007a94c]                       ;= E000EDFCh
ram:0007a8ce    7438            subs        r0,#0x74                                
ram:0007a8d0    0168            ldr         r1,[r0,#0x0]=>DAT_e000ed88              
ram:0007a8d2    41f47001        orr         r1,r1,#0xf00000                         
ram:0007a8d6    0160            str         r1,[r0,#0x0]=>DAT_e000ed88              
ram:0007a8d8    bff34f8f        dsb         0xf                                     
ram:0007a8dc    bff36f8f        isb         0xf                                     
ram:0007a8e0    4ff01021        mov.w       r1,#0x10001000                          
ram:0007a8e4    d1f80002        ldr.w       r0,[r1,#0x200]=>DAT_10001200            
ram:0007a8e8    0028            cmp         r0,#0x0                                 
ram:0007a8ea    03db            blt         LAB_0007a8f4                            
ram:0007a8ec    d1f80002        ldr.w       r0,[r1,#0x200]=>DAT_10001200            
ram:0007a8f0    0028            cmp         r0,#0x0                                 
ram:0007a8f2    22da            bge         LAB_0007a93a                            
                            LAB_0007a8f4:                 ;XREF[1,0]:   0007a8ea
ram:0007a8f4    184b            ldr         r3,[DAT_0007a958]                       ;= 4001E504h
ram:0007a8f6    1e60            str         r6,[r3,#0x0]=>DAT_4001e504              
ram:0007a8f8    1848            ldr         r0,[DAT_0007a95c]                       ;= 4001E400h
                            LAB_0007a8fa:                 ;XREF[1,0]:   0007a8fe
ram:0007a8fa    0468            ldr         r4,[r0,#0x0]=>DAT_4001e400              
ram:0007a8fc    002c            cmp         r4,#0x0                                 
ram:0007a8fe    fcd0            beq         LAB_0007a8fa                            
ram:0007a900    1524            movs        r4,#0x15                                
ram:0007a902    c1f80042        str.w       r4,[r1,#0x200]=>DAT_10001200            
                            LAB_0007a906:                 ;XREF[1,0]:   0007a90a
ram:0007a906    0568            ldr         r5,[r0,#0x0]=>DAT_4001e400              
ram:0007a908    002d            cmp         r5,#0x0                                 
ram:0007a90a    fcd0            beq         LAB_0007a906                            
ram:0007a90c    c1f80442        str.w       r4,[r1,#0x204]=>DAT_10001204            
                            LAB_0007a910:                 ;XREF[1,0]:   0007a914
ram:0007a910    0168            ldr         r1,[r0,#0x0]=>DAT_4001e400              
ram:0007a912    0029            cmp         r1,#0x0                                 
ram:0007a914    fcd0            beq         LAB_0007a910                            
ram:0007a916    1a60            str         r2,[r3,#0x0]=>DAT_4001e504              
                            LAB_0007a918:                 ;XREF[1,0]:   0007a91c
ram:0007a918    0168            ldr         r1,[r0,#0x0]=>DAT_4001e400              
ram:0007a91a    0029            cmp         r1,#0x0                                 
ram:0007a91c    fcd0            beq         LAB_0007a918                            
ram:0007a91e    bff34f8f        dsb         0xf                                     
ram:0007a922    0a48            ldr         r0,[DAT_0007a94c]                       ;= E000EDFCh
ram:0007a924    f038            subs        r0,#0xf0                                
ram:0007a926    0168            ldr         r1,[r0,#0x0]=>DAT_e000ed0c              
ram:0007a928    0d4a            ldr         r2,[DAT_0007a960]                       ;= 05FA0004h
ram:0007a92a    01f4e061        and         r1,r1,#0x700                            
ram:0007a92e    1143            orrs        r1,r2                                   
ram:0007a930    0160            str         r1,[r0,#0x0]=>DAT_e000ed0c              
ram:0007a932    bff34f8f        dsb         0xf                                     
                            LAB_0007a936:                 ;XREF[1,0]:   0007a938
ram:0007a936    00bf            nop                                                  
ram:0007a938    fde7            b           LAB_0007a936                            
                            LAB_0007a93a:                 ;XREF[1,0]:   0007a8f2
ram:0007a93a    0b49            ldr         r1,[DAT_0007a968]                       ;= 20002CD0h
ram:0007a93c    0948            ldr         r0,[DAT_0007a964]                       ;= 03D09000h
ram:0007a93e    0860            str         r0,[r1,#0x0]=>DAT_20002cd0              
ram:0007a940    f0bd            pop         {r4,r5,r6,r7,pc}                        
ram:0007a942    0000            movs        r0,r0                                   
                            DAT_0007a944:                 ;XREF[1,0]:   0007a712
ram:0007a944    e00f00f0        undefined4  F0000FE0h                               
                            DAT_0007a948:                 ;XREF[3,0]:   0007a762,0007a7d8,0007a7fe
ram:0007a948    3c050040        undefined4  4000053Ch                               
                            DAT_0007a94c:                 ;XREF[3,0]:   0007a78a,0007a8cc,0007a922
ram:0007a94c    fced00e0        undefined4  E000EDFCh                               
                            DAT_0007a950:                 ;XREF[17,0]:  0007a820,0007a828,0007a832,0007a83c
                                                          ;             0007a846,0007a850,0007a85a,0007a866
                                                          ;             0007a870,0007a87a,0007a884,0007a88e
                                                          ;             0007a898,0007a8a4,0007a8ae,0007a8b8
                                                          ;             0007a8c2
ram:0007a950    04040010        undefined4  10000404h                               
                            DAT_0007a954:                 ;XREF[3,0]:   0007a824,0007a860,0007a89e
ram:0007a954    20c50040        undefined4  4000C520h                               
                            DAT_0007a958:                 ;XREF[1,0]:   0007a8f4
ram:0007a958    04e50140        undefined4  4001E504h                               
                            DAT_0007a95c:                 ;XREF[1,0]:   0007a8f8
ram:0007a95c    00e40140        undefined4  4001E400h                               
                            DAT_0007a960:                 ;XREF[1,0]:   0007a928
ram:0007a960    0400fa05        undefined4  05FA0004h                               
                            DAT_0007a964:                 ;XREF[1,0]:   0007a93c
ram:0007a964    0090d003        undefined4  03D09000h                               
                            DAT_0007a968:                 ;XREF[1,0]:   0007a93a
ram:0007a968    d02c0020        undefined4  20002CD0h                               
                            ;************************************************************************************************
                            ;*                                           FUNCTION                                           *
                            ;************************************************************************************************
                            ;undefined thunk_FUN_0007a974(undefined4 * param_1, undefined4 * param_2, int param_3)
          ;param_1       undefined4 *        r0                      
          ;param_2       undefined4 *        r1                      
          ;param_3       int                 r2                      
                                                          ;XREF[2,0]:   0007a5f0,0007d8a4
ram:0007a96c    02e0            b           FUN_0007a974                            
                            LAB_0007a96e:                 ;XREF[1,0]:   0007a976
ram:0007a96e    08c8            ldmia       param_1!,{r3}                           
ram:0007a970    121f            subs        param_3,param_3,#0x4                    
ram:0007a972    08c1            stmia       param_2!,{r3}                           
                            ;************************************************************************************************
                            ;*                                           FUNCTION                                           *
                            ;************************************************************************************************
                            ;undefined FUN_0007a974(undefined4 * param_1, undefined4 * param_2, int param_3)
          ;param_1       undefined4 *        r0                      
          ;param_2       undefined4 *        r1                      
          ;param_3       int                 r2                      
                                                          ;XREF[1,0]:   0007a96c
ram:0007a974    002a            cmp         param_3,#0x0                            
ram:0007a976    fad1            bne         LAB_0007a96e                            
ram:0007a978    7047            bx          lr                                      
ram:0007a97a    7047            bx          lr                                      
ram:0007a97c    0020            movs        r0,#0x0                                 
ram:0007a97e    01e0            b           LAB_0007a984                            
                            LAB_0007a980:                 ;XREF[1,0]:   0007a986
ram:0007a980    01c1            stmia       r1!,{r0}                                
ram:0007a982    121f            subs        r2,r2,#0x4                              
                            LAB_0007a984:                 ;XREF[1,0]:   0007a97e
ram:0007a984    002a            cmp         r2,#0x0                                 
ram:0007a986    fbd1            bne         LAB_0007a980                            
ram:0007a988    7047            bx          lr                                      
                            ;************************************************************************************************
                            ;*                                           FUNCTION                                           *
                            ;************************************************************************************************
                            ;char * FUN_0007a98a(byte * param_1, undefined * param_2, ushort * param_3)
          ;param_1       byte *              r0                      
          ;param_2       undefined *         r1                      
          ;param_3       ushort *            r2                      
          ;local_30      undefined4         -30                      ;XREF[4,0]:   0007aa74,0007aaf0,0007ab0a,0007ab24
                                                          ;XREF[2,0]:   0007b108,0007b12c
ram:0007a98a    2de9fc5f        push        {param_3,r3,r4,r5,r6,r7,r8,r9,r10,r11...
ram:0007a98e    0025            movs        r5,#0x0                                 
ram:0007a990    1688            ldrh        r6,[param_3,#0x0]                       
ram:0007a992    0746            mov         r7,param_1                              
ram:0007a994    1580            strh        r5,[param_3,#0x0]                       
ram:0007a996    406b            ldr         param_1,[param_1,#0x34]                 
ram:0007a998    1446            mov         r4,param_3                              
ram:0007a99a    8946            mov         r9,param_2                              
ram:0007a99c    a846            mov         r8,r5                                   
ram:0007a99e    4ff00c0a        mov.w       r10,#0xc                                
ram:0007a9a2    1123            movs        r3,#0x11                                
ram:0007a9a4    4ff0020b        mov.w       r11,#0x2                                
ram:0007a9a8    98b1            cbz         param_1,LAB_0007a9d2                    
ram:0007a9aa    0178            ldrb        param_2,[param_1,#0x0]                  
ram:0007a9ac    4846            mov         param_1,r9                              
ram:0007a9ae    032e            cmp         r6,#0x3                                 
ram:0007a9b0    48d3            bcc         LAB_0007aa44                            
ram:0007a9b2    80f800b0        strb.w      r11,[param_1,#0x0]                      
ram:0007a9b6    2288            ldrh        param_3,[r4,#0x0]                       
ram:0007a9b8    521c            adds        param_3,param_3,#0x1                    
ram:0007a9ba    92b2            uxth        param_3,param_3                         
ram:0007a9bc    2280            strh        param_3,[r4,#0x0]                       
ram:0007a9be    8354            strb        r3,[param_1,param_3]                    
ram:0007a9c0    2288            ldrh        param_3,[r4,#0x0]                       
ram:0007a9c2    521c            adds        param_3,param_3,#0x1                    
ram:0007a9c4    92b2            uxth        param_3,param_3                         
ram:0007a9c6    2280            strh        param_3,[r4,#0x0]                       
ram:0007a9c8    09f80210        strb.w      param_2,r9,param_3,0x0                  
ram:0007a9cc    2088            ldrh        param_1,[r4,#0x0]                       
ram:0007a9ce    401c            adds        param_1,param_1,#0x1                    
ram:0007a9d0    2080            strh        param_1,[r4,#0x0]                       
                            LAB_0007a9d2:                 ;XREF[1,0]:   0007a9a8
ram:0007a9d2    3a6b            ldr         param_3,[r7,#0x30]                      
ram:0007a9d4    dab1            cbz         param_3,LAB_0007aa0e                    
ram:0007a9d6    2088            ldrh        param_1,[r4,#0x0]                       
ram:0007a9d8    4946            mov         param_2,r9                              
ram:0007a9da    00f11205        add.w       r5,param_1,#0x12                        
ram:0007a9de    b542            cmp         r5,r6                                   
ram:0007a9e0    30d8            bhi         LAB_0007aa44                            
ram:0007a9e2    0b54            strb        r3,[param_2,param_1]                    
ram:0007a9e4    2088            ldrh        param_1,[r4,#0x0]                       
ram:0007a9e6    1023            movs        r3,#0x10                                
ram:0007a9e8    401c            adds        param_1,param_1,#0x1                    
ram:0007a9ea    80b2            uxth        param_1,param_1                         
ram:0007a9ec    2080            strh        param_1,[r4,#0x0]                       
ram:0007a9ee    0b54            strb        r3,[param_2,param_1]                    
ram:0007a9f0    2088            ldrh        param_1,[r4,#0x0]                       
ram:0007a9f2    401c            adds        param_1,param_1,#0x1                    
ram:0007a9f4    2080            strh        param_1,[r4,#0x0]                       
ram:0007a9f6    0f20            movs        param_1,#0xf                            
                            LAB_0007a9f8:                 ;XREF[1,0]:   0007aa0a
ram:0007a9f8    2388            ldrh        r3,[r4,#0x0]                            
ram:0007a9fa    155c            ldrb        r5,[param_3,param_1]                    
ram:0007a9fc    401e            subs        param_1,param_1,#0x1                    
ram:0007a9fe    cd54            strb        r5,[param_2,r3]                         
ram:0007aa00    2388            ldrh        r3,[r4,#0x0]                            
ram:0007aa02    40b2            sxtb        param_1,param_1                         
ram:0007aa04    5b1c            adds        r3,r3,#0x1                              
ram:0007aa06    2380            strh        r3,[r4,#0x0]                            
ram:0007aa08    0028            cmp         param_1,#0x0                            
ram:0007aa0a    f5da            bge         LAB_0007a9f8                            
ram:0007aa0c    4546            mov         r5,r8                                   
                            LAB_0007aa0e:                 ;XREF[1,0]:   0007a9d4
ram:0007aa0e    97f82e00        ldrb.w      param_1,[r7,#0x2e]                      
ram:0007aa12    30b1            cbz         param_1,LAB_0007aa22                    
ram:0007aa14    3346            mov         r3,r6                                   
ram:0007aa16    2246            mov         param_3,r4                              
ram:0007aa18    4946            mov         param_2,r9                              
ram:0007aa1a    01f037ff        bl          FUN_0007c88c                            ;undefined4 FUN_0007c88c(int param_1,...
ram:0007aa1e    0500            movs        r5,param_1                              
ram:0007aa20    11d1            bne         LAB_0007aa46                            
                            LAB_0007aa22:                 ;XREF[1,0]:   0007aa12
ram:0007aa22    97f82d00        ldrb.w      param_1,[r7,#0x2d]                      
ram:0007aa26    30b1            cbz         param_1,LAB_0007aa36                    
ram:0007aa28    3246            mov         param_3,r6                              
ram:0007aa2a    2146            mov         param_2,r4                              
ram:0007aa2c    4846            mov         param_1,r9                              
ram:0007aa2e    00f007fc        bl          FUN_0007b240                            ;char * FUN_0007b240(int param_1, ush...
ram:0007aa32    0500            movs        r5,param_1                              
ram:0007aa34    07d1            bne         LAB_0007aa46                            
                            LAB_0007aa36:                 ;XREF[1,0]:   0007aa26
ram:0007aa36    b878            ldrb        param_1,[r7,#0x2]                       
ram:0007aa38    20b3            cbz         param_1,LAB_0007aa84                    
ram:0007aa3a    2088            ldrh        param_1,[r4,#0x0]                       
ram:0007aa3c    c846            mov         r8,r9                                   
ram:0007aa3e    001d            adds        param_1,param_1,#0x4                    
ram:0007aa40    b042            cmp         param_1,r6                              
ram:0007aa42    02d9            bls         LAB_0007aa4a                            
                            LAB_0007aa44:                 ;XREF[4,0]:   0007a9b0,0007a9e0,0007aa94,0007aac8
ram:0007aa44    5046            mov         param_1,r10                             
                            LAB_0007aa46:                 ;XREF[7,0]:   0007aa20,0007aa34,0007aa50,0007ab04
                                                          ;             0007ab1e,0007ab38,0007ab8a
ram:0007aa46    bde8fc9f        pop.w       {param_3,r3,r4,r5,r6,r7,r8,r9,r10,r11...
                            LAB_0007aa4a:                 ;XREF[1,0]:   0007aa42
ram:0007aa4a    6846            mov         param_1,sp                              
ram:0007aa4c    79df            svc         0x79                                    
ram:0007aa4e    0028            cmp         param_1,#0x0                            
ram:0007aa50    f9d1            bne         LAB_0007aa46                            
ram:0007aa52    2188            ldrh        param_2,[r4,#0x0]                       
ram:0007aa54    0320            movs        param_1,#0x3                            
ram:0007aa56    08f80100        strb.w      param_1,r8,param_2,0x0                  
ram:0007aa5a    2088            ldrh        param_1,[r4,#0x0]                       
ram:0007aa5c    1921            movs        param_2,#0x19                           
ram:0007aa5e    401c            adds        param_1,param_1,#0x1                    
ram:0007aa60    80b2            uxth        param_1,param_1                         
ram:0007aa62    2080            strh        param_1,[r4,#0x0]                       
ram:0007aa64    08f80010        strb.w      param_2,r8,param_1,0x0                  
ram:0007aa68    2088            ldrh        param_1,[r4,#0x0]                       
ram:0007aa6a    401c            adds        param_1,param_1,#0x1                    
ram:0007aa6c    80b2            uxth        param_1,param_1                         
ram:0007aa6e    2080            strh        param_1,[r4,#0x0]                       
ram:0007aa70    00eb0801        add.w       param_2,param_1,r8                      
ram:0007aa74    bdf80000        ldrh.w      param_1,[sp,#0x0]=>local_30             
ram:0007aa78    02f0dcfd        bl          FUN_0007d634                            ;undefined4 FUN_0007d634(undefined4 p...
ram:0007aa7c    0146            mov         param_2,param_1                         
ram:0007aa7e    2088            ldrh        param_1,[r4,#0x0]                       
ram:0007aa80    0844            add         param_1,param_2                         
ram:0007aa82    2080            strh        param_1,[r4,#0x0]                       
                            LAB_0007aa84:                 ;XREF[1,0]:   0007aa38
ram:0007aa84    f878            ldrb        param_1,[r7,#0x3]                       
ram:0007aa86    b8b1            cbz         param_1,LAB_0007aab8                    
ram:0007aa88    2288            ldrh        param_3,[r4,#0x0]                       
ram:0007aa8a    97f90310        ldrsb.w     param_2,[r7,#0x3]                       
ram:0007aa8e    d31c            adds        r3,param_3,#0x3                         
ram:0007aa90    4846            mov         param_1,r9                              
ram:0007aa92    b342            cmp         r3,r6                                   
ram:0007aa94    d6d8            bhi         LAB_0007aa44                            
ram:0007aa96    00f802b0        strb.w      r11,param_1,param_3,0x0                 
ram:0007aa9a    2288            ldrh        param_3,[r4,#0x0]                       
ram:0007aa9c    0123            movs        r3,#0x1                                 
ram:0007aa9e    521c            adds        param_3,param_3,#0x1                    
ram:0007aaa0    92b2            uxth        param_3,param_3                         
ram:0007aaa2    2280            strh        param_3,[r4,#0x0]                       
ram:0007aaa4    8354            strb        r3,[param_1,param_3]                    
ram:0007aaa6    2288            ldrh        param_3,[r4,#0x0]                       
ram:0007aaa8    521c            adds        param_3,param_3,#0x1                    
ram:0007aaaa    92b2            uxth        param_3,param_3                         
ram:0007aaac    2280            strh        param_3,[r4,#0x0]                       
ram:0007aaae    09f80210        strb.w      param_2,r9,param_3,0x0                  
ram:0007aab2    2088            ldrh        param_1,[r4,#0x0]                       
ram:0007aab4    401c            adds        param_1,param_1,#0x1                    
ram:0007aab6    2080            strh        param_1,[r4,#0x0]                       
                            LAB_0007aab8:                 ;XREF[1,0]:   0007aa86
ram:0007aab8    7868            ldr         param_1,[r7,#0x4]                       
ram:0007aaba    b8b1            cbz         param_1,LAB_0007aaec                    
ram:0007aabc    2188            ldrh        param_2,[r4,#0x0]                       
ram:0007aabe    90f90020        ldrsb.w     param_3,[param_1,#0x0]                  
ram:0007aac2    cb1c            adds        r3,param_2,#0x3                         
ram:0007aac4    4846            mov         param_1,r9                              
ram:0007aac6    b342            cmp         r3,r6                                   
ram:0007aac8    bcd8            bhi         LAB_0007aa44                            
ram:0007aaca    00f801b0        strb.w      r11,param_1,param_2,0x0                 
ram:0007aace    2188            ldrh        param_2,[r4,#0x0]                       
ram:0007aad0    0a23            movs        r3,#0xa                                 
ram:0007aad2    491c            adds        param_2,param_2,#0x1                    
ram:0007aad4    89b2            uxth        param_2,param_2                         
ram:0007aad6    2180            strh        param_2,[r4,#0x0]                       
ram:0007aad8    4354            strb        r3,[param_1,param_2]                    
ram:0007aada    2188            ldrh        param_2,[r4,#0x0]                       
ram:0007aadc    491c            adds        param_2,param_2,#0x1                    
ram:0007aade    89b2            uxth        param_2,param_2                         
ram:0007aae0    2180            strh        param_2,[r4,#0x0]                       
ram:0007aae2    09f80120        strb.w      param_3,r9,param_2,0x0                  
ram:0007aae6    2088            ldrh        param_1,[r4,#0x0]                       
ram:0007aae8    401c            adds        param_1,param_1,#0x1                    
ram:0007aaea    2080            strh        param_1,[r4,#0x0]                       
                            LAB_0007aaec:                 ;XREF[1,0]:   0007aaba
ram:0007aaec    3889            ldrh        param_1,[r7,#0x8]                       
ram:0007aaee    50b1            cbz         param_1,LAB_0007ab06                    
ram:0007aaf0    cde90046        strd        r4,r6,[sp,#0x0]=>local_30               
ram:0007aaf4    4b46            mov         r3,r9                                   
ram:0007aaf6    0622            movs        param_3,#0x6                            
ram:0007aaf8    0221            movs        param_2,#0x2                            
ram:0007aafa    07f10800        add.w       param_1,r7,#0x8                         
ram:0007aafe    02f00dfe        bl          FUN_0007d71c                            ;undefined8 FUN_0007d71c(ushort * par...
ram:0007ab02    0500            movs        r5,param_1                              
                            LAB_0007ab04:                 ;XREF[4,0]:   0007ab4a,0007ab5c,0007ab72,0007ab86
ram:0007ab04    9fd1            bne         LAB_0007aa46                            
                            LAB_0007ab06:                 ;XREF[1,0]:   0007aaee
ram:0007ab06    388a            ldrh        param_1,[r7,#0x10]                      
ram:0007ab08    50b1            cbz         param_1,LAB_0007ab20                    
ram:0007ab0a    cde90046        strd        r4,r6,[sp,#0x0]=>local_30               
ram:0007ab0e    4b46            mov         r3,r9                                   
ram:0007ab10    0722            movs        param_3,#0x7                            
ram:0007ab12    0321            movs        param_2,#0x3                            
ram:0007ab14    07f11000        add.w       param_1,r7,#0x10                        
ram:0007ab18    02f000fe        bl          FUN_0007d71c                            ;undefined8 FUN_0007d71c(ushort * par...
ram:0007ab1c    0500            movs        r5,param_1                              
ram:0007ab1e    92d1            bne         LAB_0007aa46                            
                            LAB_0007ab20:                 ;XREF[1,0]:   0007ab08
ram:0007ab20    388b            ldrh        param_1,[r7,#0x18]                      
ram:0007ab22    50b1            cbz         param_1,LAB_0007ab3a                    
ram:0007ab24    cde90046        strd        r4,r6,[sp,#0x0]=>local_30               
ram:0007ab28    4b46            mov         r3,r9                                   
ram:0007ab2a    1522            movs        param_3,#0x15                           
ram:0007ab2c    1421            movs        param_2,#0x14                           
ram:0007ab2e    07f11800        add.w       param_1,r7,#0x18                        
ram:0007ab32    02f0f3fd        bl          FUN_0007d71c                            ;undefined8 FUN_0007d71c(ushort * par...
ram:0007ab36    0500            movs        r5,param_1                              
ram:0007ab38    85d1            bne         LAB_0007aa46                            
                            LAB_0007ab3a:                 ;XREF[1,0]:   0007ab22
ram:0007ab3a    386a            ldr         param_1,[r7,#0x20]                      
ram:0007ab3c    30b1            cbz         param_1,LAB_0007ab4c                    
ram:0007ab3e    3346            mov         r3,r6                                   
ram:0007ab40    2246            mov         param_3,r4                              
ram:0007ab42    4946            mov         param_2,r9                              
ram:0007ab44    00f048ff        bl          FUN_0007b9d8                            ;undefined4 FUN_0007b9d8(ushort * par...
ram:0007ab48    0500            movs        r5,param_1                              
ram:0007ab4a    dbd1            bne         LAB_0007ab04                            
                            LAB_0007ab4c:                 ;XREF[1,0]:   0007ab3c
ram:0007ab4c    786a            ldr         param_1,[r7,#0x24]                      
ram:0007ab4e    30b1            cbz         param_1,LAB_0007ab5e                    
ram:0007ab50    3346            mov         r3,r6                                   
ram:0007ab52    2246            mov         param_3,r4                              
ram:0007ab54    4946            mov         param_2,r9                              
ram:0007ab56    02f025f8        bl          FUN_0007cba4                            ;undefined4 FUN_0007cba4(ushort * par...
ram:0007ab5a    0500            movs        r5,param_1                              
ram:0007ab5c    d2d1            bne         LAB_0007ab04                            
                            LAB_0007ab5e:                 ;XREF[1,0]:   0007ab4e
ram:0007ab5e    97f82c00        ldrb.w      param_1,[r7,#0x2c]                      
ram:0007ab62    38b1            cbz         param_1,LAB_0007ab74                    
ram:0007ab64    3346            mov         r3,r6                                   
ram:0007ab66    2246            mov         param_3,r4                              
ram:0007ab68    4946            mov         param_2,r9                              
ram:0007ab6a    3846            mov         param_1,r7                              
ram:0007ab6c    02f0c4fb        bl          FUN_0007d2f8                            ;undefined4 FUN_0007d2f8(int param_1,...
ram:0007ab70    0500            movs        r5,param_1                              
ram:0007ab72    c7d1            bne         LAB_0007ab04                            
                            LAB_0007ab74:                 ;XREF[1,0]:   0007ab62
ram:0007ab74    3878            ldrb        param_1,[r7,#0x0]                       
ram:0007ab76    38b1            cbz         param_1,LAB_0007ab88                    
ram:0007ab78    3346            mov         r3,r6                                   
ram:0007ab7a    2246            mov         param_3,r4                              
ram:0007ab7c    4946            mov         param_2,r9                              
ram:0007ab7e    3846            mov         param_1,r7                              
ram:0007ab80    02f042f8        bl          FUN_0007cc08                            ;longlong FUN_0007cc08(byte * param_1...
ram:0007ab84    0500            movs        r5,param_1                              
ram:0007ab86    bdd1            bne         LAB_0007ab04                            
                            LAB_0007ab88:                 ;XREF[1,0]:   0007ab76
ram:0007ab88    2846            mov         param_1,r5                              
ram:0007ab8a    5ce7            b           LAB_0007aa46                            
                            ;************************************************************************************************
                            ;*                                           FUNCTION                                           *
                            ;************************************************************************************************
                            ;undefined FUN_0007ab8c(undefined param_1)
          ;param_1       undefined           r0                      
          ;local_e       undefined1          -e                      ;XREF[1,0]:   0007ab98
          ;local_10      undefined2         -10                      ;XREF[1,0]:   0007aba0
          ;local_3c      undefined4         -3c                      ;XREF[1,0]:   0007abbe
          ;local_40      undefined2         -40                      ;XREF[1,0]:   0007abb8
          ;local_45      undefined1         -45                      ;XREF[1,0]:   0007abc0
          ;local_46      undefined1         -46                      ;XREF[1,0]:   0007abb2
          ;local_48      undefined1         -48                      ;XREF[1,0]:   0007abac
                                                          ;XREF[3,0]:   0007ac32,0007ac66,0007ac76
ram:0007ab8c    10b5            push        {r4,lr}                                 
ram:0007ab8e    0446            mov         r4,param_1                              
ram:0007ab90    1148            ldr         param_1,[DAT_0007abd8]                  ;= 20003260h
ram:0007ab92    90b0            sub         sp,#0x40                                
ram:0007ab94    3821            movs        r1,#0x38                                
ram:0007ab96    8079            ldrb        param_1,[param_1,#0x6]=>DAT_20003266    
ram:0007ab98    8df83a00        strb.w      param_1,[sp,#local_e+0x48]              
ram:0007ab9c    41f23050        movw        param_1,#0x1530                         
ram:0007aba0    adf83800        strh.w      param_1,[sp,#local_10+0x48]             
ram:0007aba4    6846            mov         param_1,sp                              
ram:0007aba6    fff702fd        bl          FUN_0007a5ae                            ;undefined FUN_0007a5ae(undefined * p...
ram:0007abaa    0220            movs        param_1,#0x2                            
ram:0007abac    8df80000        strb.w      param_1,[sp,#0x0]=>local_48             
ram:0007abb0    0020            movs        param_1,#0x0                            
ram:0007abb2    8df80200        strb.w      param_1,[sp,#local_46+0x48]             
ram:0007abb6    0120            movs        param_1,#0x1                            
ram:0007abb8    adf80800        strh.w      param_1,[sp,#local_40+0x48]             
ram:0007abbc    0ea8            add         param_1,sp,#0x38                        
ram:0007abbe    0390            str         param_1,[sp,#local_3c+0x48]             
ram:0007abc0    8df80340        strb.w      r4,[sp,#local_45+0x48]                  
ram:0007abc4    0021            movs        r1,#0x0                                 
ram:0007abc6    6846            mov         param_1,sp                              
ram:0007abc8    00f08efa        bl          FUN_0007b0e8                            ;char * FUN_0007b0e8(byte * param_1, ...
ram:0007abcc    0028            cmp         param_1,#0x0                            
ram:0007abce    01d0            beq         LAB_0007abd4                            
ram:0007abd0    00f0d6f8        bl          FUN_0007ad80                            ;undefined FUN_0007ad80(void)
                            LAB_0007abd4:                 ;XREF[1,0]:   0007abce
ram:0007abd4    10b0            add         sp,#0x40                                
ram:0007abd6    10bd            pop         {r4,pc}                                 
                            DAT_0007abd8:                 ;XREF[1,0]:   0007ab90
ram:0007abd8    60320020        undefined4  20003260h                               
                            ;************************************************************************************************
                            ;*                                           FUNCTION                                           *
                            ;************************************************************************************************
                            ;undefined FUN_0007abdc(void)
          ;local_28      undefined4         -28                      ;XREF[1,0]:   0007ac1c
          ;local_2c      undefined1         -2c                      ;XREF[1,0]:   0007ac2c
          ;local_30      undefined4         -30                      ;XREF[1,0]:   0007ac26
          ;local_34      undefined1         -34                      ;XREF[1,0]:   0007ac28
          ;local_38      undefined4         -38                      ;XREF[1,0]:   0007ac22
          ;local_3c      undefined4         -3c                      ;XREF[1,0]:   0007ac12
          ;local_40      undefined4         -40                      ;XREF[1,0]:   0007ac0a
          ;local_44      undefined4         -44                      ;XREF[1,0]:   0007ac08
          ;local_48      undefined4         -48                      ;XREF[1,0]:   0007ac06
                                                          ;XREF[3,0]:   0007c5d6,0007cdb2,0007cdfa
ram:0007abdc    2de9f043        push        {r4,r5,r6,r7,r8,r9,lr}                  
ram:0007abe0    284c            ldr         r4,[DAT_0007ac84]                       ;= 20002C94h
ram:0007abe2    8bb0            sub         sp,#0x2c                                
ram:0007abe4    a078            ldrb        r0,[r4,#0x2]=>DAT_20002c96              
ram:0007abe6    0028            cmp         r0,#0x0                                 
ram:0007abe8    38d1            bne         LAB_0007ac5c                            
ram:0007abea    1821            movs        r1,#0x18                                
ram:0007abec    2648            ldr         r0=>DAT_20003248,[DAT_0007ac88]         ;= 20003248h
ram:0007abee    fff7defc        bl          FUN_0007a5ae                            ;undefined FUN_0007a5ae(undefined * p...
ram:0007abf2    a046            mov         r8,r4                                   
ram:0007abf4    e078            ldrb        r0,[r4,#0x3]=>DAT_20002c97              
ram:0007abf6    244c            ldr         r4,[DAT_0007ac88]                       ;= 20003248h
ram:0007abf8    0025            movs        r5,#0x0                                 
ram:0007abfa    4ff02809        mov.w       r9,#0x28                                
ram:0007abfe    0126            movs        r6,#0x1                                 
ram:0007ac00    78b3            cbz         r0,LAB_0007ac62                         
ram:0007ac02    04f14807        add.w       r7,r4,#0x48                             
ram:0007ac06    0095            str         r5,[sp,#0x0]=>local_48                  
ram:0007ac08    0195            str         r5,[sp,#local_44+0x48]                  
ram:0007ac0a    0295            str         r5,[sp,#local_40+0x48]                  
ram:0007ac0c    1022            movs        r2,#0x10                                
ram:0007ac0e    6946            mov         r1,sp                                   
ram:0007ac10    f81d            adds        r0,r7,#0x7                              
ram:0007ac12    0395            str         r5,[sp,#local_3c+0x48]                  
ram:0007ac14    fff7d6fc        bl          FUN_0007a5c4                            ;undefined FUN_0007a5c4(int param_1, ...
ram:0007ac18    20b3            cbz         r0,LAB_0007ac64                         
ram:0007ac1a    f81d            adds        r0,r7,#0x7                              
ram:0007ac1c    cde90807        strd        r0,r7=>DAT_20003290,[sp,#local_28+0x48] 
ram:0007ac20    09a8            add         r0,sp,#0x24                             
ram:0007ac22    0490            str         r0,[sp,#local_38+0x48]                  
ram:0007ac24    08a8            add         r0,sp,#0x20                             
ram:0007ac26    0690            str         r0,[sp,#local_30+0x48]                  
ram:0007ac28    8df81460        strb.w      r6,[sp,#local_34+0x48]                  
ram:0007ac2c    8df81c60        strb.w      r6,[sp,#local_2c+0x48]                  
ram:0007ac30    0420            movs        r0,#0x4                                 
ram:0007ac32    fff7abff        bl          FUN_0007ab8c                            ;undefined FUN_0007ab8c(undefined par...
ram:0007ac36    2570            strb        r5,[r4,#0x0]=>DAT_20003248              
ram:0007ac38    0220            movs        r0,#0x2                                 
ram:0007ac3a    2072            strb        r0,[r4,#0x8]=>DAT_20003250              
ram:0007ac3c    04a8            add         r0,sp,#0x10                             
ram:0007ac3e    e060            str         r0,[r4,#0xc]=>DAT_20003254              
                            LAB_0007ac40:                 ;XREF[1,0]:   0007ac80
ram:0007ac40    a4f81090        strh.w      r9,[r4,#0x10]=>DAT_20003258             
                            LAB_0007ac44:                 ;XREF[1,0]:   0007ac72
ram:0007ac44    6582            strh        r5,[r4,#0x12]=>DAT_2000325a             
ram:0007ac46    1048            ldr         r0=>DAT_20003248,[DAT_0007ac88]         ;= 20003248h
ram:0007ac48    73df            svc         0x73                                    
ram:0007ac4a    08b1            cbz         r0,LAB_0007ac50                         
ram:0007ac4c    00f098f8        bl          FUN_0007ad80                            ;undefined FUN_0007ad80(void)
                            LAB_0007ac50:                 ;XREF[1,0]:   0007ac4a
ram:0007ac50    0e49            ldr         r1,[DAT_0007ac8c]                       ;= 5000050Ch
ram:0007ac52    4ff40030        mov.w       r0,#0x20000                             
ram:0007ac56    0860            str         r0,[r1,#0x0]=>DAT_5000050c              
ram:0007ac58    88f80260        strb.w      r6,[r8,#0x2]=>DAT_20002c96              
                            LAB_0007ac5c:                 ;XREF[1,0]:   0007abe8
ram:0007ac5c    0bb0            add         sp,#0x2c                                
ram:0007ac5e    bde8f083        pop.w       {r4,r5,r6,r7,r8,r9,pc}                  
                            LAB_0007ac62:                 ;XREF[1,0]:   0007ac00
ram:0007ac62    07e0            b           LAB_0007ac74                            
                            LAB_0007ac64:                 ;XREF[1,0]:   0007ac18
ram:0007ac64    0520            movs        r0,#0x5                                 
ram:0007ac66    fff791ff        bl          FUN_0007ab8c                            ;undefined FUN_0007ab8c(undefined par...
ram:0007ac6a    2670            strb        r6,[r4,#0x0]=>DAT_20003248              
ram:0007ac6c    6760            str         r7=>DAT_20003290,[r4,#0x4]=>DAT_2000324c
ram:0007ac6e    2572            strb        r5,[r4,#0x8]=>DAT_20003250              
ram:0007ac70    2582            strh        r5,[r4,#0x10]=>DAT_20003258             
ram:0007ac72    e7e7            b           LAB_0007ac44                            
                            LAB_0007ac74:                 ;XREF[1,0]:   0007ac62
ram:0007ac74    0620            movs        r0,#0x6                                 
ram:0007ac76    fff789ff        bl          FUN_0007ab8c                            ;undefined FUN_0007ab8c(undefined par...
ram:0007ac7a    2570            strb        r5,[r4,#0x0]=>DAT_20003248              
ram:0007ac7c    6560            str         r5,[r4,#0x4]=>DAT_2000324c              
ram:0007ac7e    2572            strb        r5,[r4,#0x8]=>DAT_20003250              
ram:0007ac80    dee7            b           LAB_0007ac40                            
ram:0007ac82    0000            movs        r0,r0                                   
                            DAT_0007ac84:                 ;XREF[1,0]:   0007abe0
ram:0007ac84    942c0020        undefined4  20002C94h                               
                            DAT_0007ac88:                 ;XREF[3,0]:   0007abec,0007abf6,0007ac46
ram:0007ac88    48320020        undefined4  20003248h                               
                            DAT_0007ac8c:                 ;XREF[1,0]:   0007ac50
ram:0007ac8c    0c050050        undefined4  5000050Ch                               
                            ;************************************************************************************************
                            ;*                                           FUNCTION                                           *
                            ;************************************************************************************************
                            ;undefined8 FUN_0007ac90(ushort * param_1, int param_2, uint param_3, int param_4)
          ;param_1       ushort *            r0                      
          ;param_2       int                 r1                      
          ;param_3       uint                r2                      
          ;param_4       int                 r3                      
          ;local_1c      undefined4         -1c                      ;XREF[1,0]:   0007acf8
          ;local_20      undefined4         -20                      ;XREF[1,0]:   0007acf4
          ;local_24      undefined4         -24                      ;XREF[1,0]:   0007acee
          ;local_28      undefined4         -28                      ;XREF[4,0]:   0007acb6,0007acc6,0007acce,0007acf0
                                                          ;XREF[1,0]:   0007d050
ram:0007ac90    2de9ff41        push        {param_1,param_2,param_3,param_4,r4,r...
ram:0007ac94    0546            mov         r5,param_1                              
ram:0007ac96    087a            ldrb        param_1,[param_2,#0x8]                  
ram:0007ac98    0e46            mov         r6,param_2                              
ram:0007ac9a    8107            lsls        param_2,param_1,#0x1e                   
ram:0007ac9c    0ad0            beq         LAB_0007acb4                            
ram:0007ac9e    0322            movs        param_3,#0x3                            
ram:0007aca0    1146            mov         param_2,param_3                         
ram:0007aca2    2846            mov         param_1,r5                              
ram:0007aca4    00f0fcfb        bl          FUN_0007b4a0                            ;undefined8 FUN_0007b4a0(ushort * par...
ram:0007aca8    0028            cmp         param_1,#0x0                            
ram:0007acaa    01d0            beq         LAB_0007acb0                            
ram:0007acac    00f068f8        bl          FUN_0007ad80                            ;undefined FUN_0007ad80(void)
                            LAB_0007acb0:                 ;XREF[6,0]:   0007acaa,0007acea,0007ad28,0007ad36
                                                          ;             0007ad42,0007ad54
ram:0007acb0    bde8ff81        pop.w       {param_1,param_2,param_3,param_4,r4,r...
                            LAB_0007acb4:                 ;XREF[1,0]:   0007ac9c
ram:0007acb4    2849            ldr         param_2=>DAT_20002ca8,[DAT_0007ad58]    ;= 20002CA8h
ram:0007acb6    0090            str         param_1,[sp,#0x0]=>local_28             
ram:0007acb8    01f046fd        bl          FUN_0007c748                            ;undefined4 FUN_0007c748(uint param_1...
ram:0007acbc    0100            movs        param_2,param_1                         
ram:0007acbe    11d1            bne         LAB_0007ace4                            
ram:0007acc0    254c            ldr         r4,[DAT_0007ad58]                       ;= 20002CA8h
ram:0007acc2    7168            ldr         param_2,[r6,#0x4]                       
ram:0007acc4    143c            subs        r4,#0x14                                
ram:0007acc6    009a            ldr         param_3,[sp,#0x0]=>local_28             
ram:0007acc8    6069            ldr         param_1,[r4,#0x14]=>DAT_20002ca8        
ram:0007acca    fff757fc        bl          FUN_0007a57c                            ;undefined FUN_0007a57c(undefined4 * ...
ram:0007acce    0098            ldr         param_1,[sp,#0x0]=>local_28             
ram:0007acd0    01f006fd        bl          FUN_0007c6e0                            ;undefined4 FUN_0007c6e0(undefined4 p...
ram:0007acd4    0100            movs        param_2,param_1                         
ram:0007acd6    05d1            bne         LAB_0007ace4                            
ram:0007acd8    6946            mov         param_2,sp                              
ram:0007acda    1f48            ldr         param_1=>DAT_20002ca8,[DAT_0007ad58]    ;= 20002CA8h
ram:0007acdc    01f010fd        bl          FUN_0007c700                            ;undefined4 FUN_0007c700(int * param_...
ram:0007ace0    0100            movs        param_2,param_1                         
ram:0007ace2    03d0            beq         LAB_0007acec                            
                            LAB_0007ace4:                 ;XREF[3,0]:   0007acbe,0007acd6,0007ad1a
ram:0007ace4    2846            mov         param_1,r5                              
ram:0007ace6    01f0a5f8        bl          FUN_0007be34                            ;undefined FUN_0007be34(ushort * para...
ram:0007acea    e1e7            b           LAB_0007acb0                            
                            LAB_0007acec:                 ;XREF[1,0]:   0007ace2
ram:0007acec    0420            movs        param_1,#0x4                            
ram:0007acee    0190            str         param_1,[sp,#local_24+0x28]             
ram:0007acf0    0098            ldr         param_1,[sp,#0x0]=>local_28             
ram:0007acf2    8008            lsrs        param_1,param_1,#0x2                    
ram:0007acf4    0290            str         param_1,[sp,#local_20+0x28]             
ram:0007acf6    6069            ldr         param_1,[r4,#0x14]=>DAT_20002ca8        
ram:0007acf8    0390            str         param_1,[sp,#local_1c+0x28]             
ram:0007acfa    01a8            add         param_1,sp,#0x4                         
ram:0007acfc    01f064f8        bl          FUN_0007bdc8                            ;int FUN_0007bdc8(int param_1, undefi...
ram:0007ad00    0700            movs        r7,param_1                              
ram:0007ad02    0bd0            beq         LAB_0007ad1c                            
ram:0007ad04    092f            cmp         r7,#0x9                                 
ram:0007ad06    10d0            beq         LAB_0007ad2a                            
ram:0007ad08    6069            ldr         param_1,[r4,#0x14]=>DAT_20002ca8        
ram:0007ad0a    01f0b3fc        bl          FUN_0007c674                            ;undefined4 FUN_0007c674(int param_1)
ram:0007ad0e    0100            movs        param_2,param_1                         
ram:0007ad10    02d0            beq         LAB_0007ad18                            
ram:0007ad12    2846            mov         param_1,r5                              
ram:0007ad14    01f08ef8        bl          FUN_0007be34                            ;undefined FUN_0007be34(ushort * para...
                            LAB_0007ad18:                 ;XREF[1,0]:   0007ad10
ram:0007ad18    3946            mov         param_2,r7                              
ram:0007ad1a    e3e7            b           LAB_0007ace4                            
                            LAB_0007ad1c:                 ;XREF[1,0]:   0007ad02
ram:0007ad1c    307a            ldrb        param_1,[r6,#0x8]                       
ram:0007ad1e    2169            ldr         param_2,[r4,#0x10]=>DAT_20002ca4        
ram:0007ad20    0844            add         param_1,param_2                         
ram:0007ad22    2061            str         param_1,[r4,#0x10]=>DAT_20002ca4        
ram:0007ad24    6069            ldr         param_1,[r4,#0x14]=>DAT_20002ca8        
ram:0007ad26    a061            str         param_1,[r4,#0x18]=>DAT_20002cac        
ram:0007ad28    c2e7            b           LAB_0007acb0                            
                            LAB_0007ad2a:                 ;XREF[1,0]:   0007ad06
ram:0007ad2a    307a            ldrb        param_1,[r6,#0x8]                       
ram:0007ad2c    2169            ldr         param_2,[r4,#0x10]=>DAT_20002ca4        
ram:0007ad2e    0144            add         param_2,param_1                         
ram:0007ad30    2161            str         param_2,[r4,#0x10]=>DAT_20002ca4        
ram:0007ad32    6078            ldrb        param_1,[r4,#0x1]=>DAT_20002c95         
ram:0007ad34    0028            cmp         param_1,#0x0                            
ram:0007ad36    bbd0            beq         LAB_0007acb0                            
ram:0007ad38    6089            ldrh        param_1,[r4,#0xa]=>DAT_20002c9e         
ram:0007ad3a    401e            subs        param_1,param_1,#0x1                    
ram:0007ad3c    0004            lsls        param_1,param_1,#0x10                   
ram:0007ad3e    000c            lsrs        param_1,param_1,#0x10                   
ram:0007ad40    6081            strh        param_1,[r4,#0xa]=>DAT_20002c9e         
ram:0007ad42    b5d1            bne         LAB_0007acb0                            
ram:0007ad44    2846            mov         param_1,r5                              
ram:0007ad46    00f073fb        bl          FUN_0007b430                            ;undefined8 FUN_0007b430(ushort * par...
ram:0007ad4a    08b1            cbz         param_1,LAB_0007ad50                    
ram:0007ad4c    00f018f8        bl          FUN_0007ad80                            ;undefined FUN_0007ad80(void)
                            LAB_0007ad50:                 ;XREF[1,0]:   0007ad4a
ram:0007ad50    2089            ldrh        param_1,[r4,#0x8]=>DAT_20002c9c         
ram:0007ad52    6081            strh        param_1,[r4,#0xa]=>DAT_20002c9e         
ram:0007ad54    ace7            b           LAB_0007acb0                            
ram:0007ad56    0000            movs        r0,r0                                   
                            DAT_0007ad58:                 ;XREF[3,0]:   0007acb4,0007acc0,0007acda
ram:0007ad58    a82c0020        undefined4  20002CA8h                               
                            ;************************************************************************************************
                            ;*                                           FUNCTION                                           *
                            ;************************************************************************************************
                            ;undefined FUN_0007ad5c(void)
                                                          ;XREF[2,0]:   0007ad90,0007d3f4
ram:0007ad5c    bff34f8f        dsb         0xf                                     
ram:0007ad60    0548            ldr         r0,[DAT_0007ad78]                       ;= E000ED0Ch
ram:0007ad62    0168            ldr         r1,[r0,#0x0]=>DAT_e000ed0c              
ram:0007ad64    054a            ldr         r2,[DAT_0007ad7c]                       ;= 05FA0004h
ram:0007ad66    01f4e061        and         r1,r1,#0x700                            
ram:0007ad6a    1143            orrs        r1,r2                                   
ram:0007ad6c    0160            str         r1,[r0,#0x0]=>DAT_e000ed0c              
ram:0007ad6e    bff34f8f        dsb         0xf                                     
                            LAB_0007ad72:                 ;XREF[1,0]:   0007ad74
ram:0007ad72    00bf            nop                                                  
ram:0007ad74    fde7            b           LAB_0007ad72                            
ram:0007ad76    0000            movs        r0,r0                                   
                            DAT_0007ad78:                 ;XREF[1,0]:   0007ad60
ram:0007ad78    0ced00e0        undefined4  E000ED0Ch                               
                            DAT_0007ad7c:                 ;XREF[1,0]:   0007ad64
ram:0007ad7c    0400fa05        undefined4  05FA0004h                               
                            ;************************************************************************************************
                            ;*                                           FUNCTION                                           *
                            ;************************************************************************************************
                            ;undefined FUN_0007ad80(void)
          ;local_c       undefined4          -c                      ;XREF[1,0]:   0007ad86
          ;local_10      undefined4         -10                      ;XREF[1,0]:   0007ad84
                                                          ;XREF[65,0]:  0007a6fe,0007abd0,0007ac4c,0007acac
                                                          ;             0007ad4c,0007ae58,0007ae98,0007af62
                                                          ;             0007b538,0007b544,0007b556,0007b566
                                                          ;             0007b578,0007b586,0007b5e2,0007b622
                                                          ;             0007b66a,0007b674,0007b680,0007b790
                                                          ;             0007b81a,0007b832,0007ba60,0007bb08
                                                          ;             0007bc9a,0007bcb6,0007be54,0007be74
                                                          ;             0007bf1c,0007bf2e,0007c132,0007c164
                                                          ;             0007c44a,0007c45e,0007c488,0007c496
                                                          ;             0007c4aa,0007c504,0007c51a,0007c53c
                                                          ;             0007c562,0007c582,0007c5b8,0007c7ec
                                                          ;             0007c820,0007c844,0007caa6,0007cab8
                                                          ;             0007caca,0007caf8,0007cb0e,0007cb56
                                                          ;             0007cdd0,0007cdf2,0007cfe2,0007cff4
                                                          ;             0007d032,0007d098,0007d0e8,0007d28c
                                                          ;             0007d380,0007d3d8,0007d494,0007d5ee
                                                          ;             0007d7f4
ram:0007ad80    0eb5            push        {r1,r2,r3,lr}                           
ram:0007ad82    0021            movs        r1,#0x0                                 
ram:0007ad84    0091            str         r1,[sp,#0x0]=>local_10                  
ram:0007ad86    cde90110        strd        r1,r0,[sp,#local_c+0x10]                
ram:0007ad8a    6a46            mov         r2,sp                                   
ram:0007ad8c    44f20200        movw        r0,#0x4002                              
ram:0007ad90    fff7e4ff        bl          FUN_0007ad5c                            ;undefined FUN_0007ad5c(void)
                            ;************************************************************************************************
                            ;*                                           FUNCTION                                           *
                            ;************************************************************************************************
                            ;undefined FUN_0007ad94(undefined4 param_1, undefined * param_2)
          ;param_1       undefined4          r0                      
          ;param_2       undefined *         r1                      
          ;local_10      undefined4         -10                      ;XREF[1,0]:   0007ada4
                                                          ;XREF[3,0]:   0007adb0,0007d1fc,0007d22e
ram:0007ad94    38b5            push        {r3,r4,r5,lr}                           
ram:0007ad96    0c46            mov         r4,param_2                              
ram:0007ad98    064b            ldr         r3,[DAT_0007adb4]                       ;= 20002C24h
ram:0007ad9a    e268            ldr         r2,[r4,#DAT_0000000c]                   
ram:0007ad9c    0978            ldrb        param_2,[param_2,#0x0]                  
ram:0007ad9e    53f82250        ldr.w       r5,r3=>DAT_20002c24,r2,0x2              
ram:0007ada2    6268            ldr         r2,[r4,#DAT_00000004]                   
ram:0007ada4    0092            str         r2,[sp,#0x0]=>local_10                  
ram:0007ada6    0246            mov         r2,param_1                              
ram:0007ada8    04f10c00        add.w       param_1,r4,#0xc                         
ram:0007adac    6369            ldr         r3,[r4,#DAT_00000014]                   
ram:0007adae    a847            blx         r5                                      
                            LAB_0007adb0:                 ;XREF[1,0]:   0007adb0
                                                          ; FWD[2,0]:   0007ad94,0007adb0
ram:0007adb0    38bd            pop         {r3,r4,r5,pc}=>FUN_0007ad94             
ram:0007adb2    0000            movs        r0,r0                                   
                            DAT_0007adb4:                 ;XREF[1,0]:   0007ad98
ram:0007adb4    242c0020        undefined4  20002C24h                               
                            ;************************************************************************************************
                            ;*                                           FUNCTION                                           *
                            ;************************************************************************************************
                            ;undefined4 FUN_0007adb8(int * param_1, undefined2 * param_2, undefined4 * param_3)
          ;param_1       int *               r0                      
          ;param_2       undefined2 *        r1                      
          ;param_3       undefined4 *        r2                      
                                                          ;XREF[1,0]:   0007aefc
ram:0007adb8    70b5            push        {r4,r5,r6,lr}                           
ram:0007adba    0f4b            ldr         r3,[DAT_0007adf8]                       ;= 20002C2Ch
ram:0007adbc    0546            mov         r5,param_1                              
ram:0007adbe    0520            movs        param_1,#0x5                            
ram:0007adc0    1c78            ldrb        r4,[r3,#0x0]=>DAT_20002c2c              
ram:0007adc2    5e78            ldrb        r6,[r3,#0x1]=>DAT_20002c2d              
ram:0007adc4    a642            cmp         r6,r4                                   
ram:0007adc6    16d0            beq         LAB_0007adf6                            
ram:0007adc8    1c78            ldrb        r4,[r3,#0x0]=>DAT_20002c2c              
ram:0007adca    1878            ldrb        param_1,[r3,#0x0]=>DAT_20002c2c         
ram:0007adcc    9e88            ldrh        r6,[r3,#0x4]=>DAT_20002c30              
ram:0007adce    b042            cmp         param_1,r6                              
ram:0007add0    01da            bge         LAB_0007add6                            
ram:0007add2    401c            adds        param_1,param_1,#0x1                    
ram:0007add4    00e0            b           LAB_0007add8                            
                            LAB_0007add6:                 ;XREF[1,0]:   0007add0
ram:0007add6    0020            movs        param_1,#0x0                            
                            LAB_0007add8:                 ;XREF[1,0]:   0007add4
ram:0007add8    1870            strb        param_1,[r3,#0x0]=>DAT_20002c2c         
ram:0007adda    5e88            ldrh        r6,[r3,#0x2]=>DAT_20002c2e              
ram:0007addc    d868            ldr         param_1,[r3,#0xc]=>DAT_20002c38         
ram:0007adde    04fb0600        mla         param_1,r4,r6,param_1                   
ram:0007ade2    2860            str         param_1,[r5,#0x0]                       
ram:0007ade4    9868            ldr         param_1,[r3,#0x8]=>DAT_20002c34         
ram:0007ade6    00ebc403        add.w       r3,param_1,r4, lsl #0x3                 
ram:0007adea    9b88            ldrh        r3,[r3,#0x4]                            
ram:0007adec    0b80            strh        r3,[param_2,#0x0]                       
ram:0007adee    50f83400        ldr.w       param_1,param_1,r4,0x3                  
ram:0007adf2    1060            str         param_1,[param_3,#0x0]                  
ram:0007adf4    0020            movs        param_1,#0x0                            
                            LAB_0007adf6:                 ;XREF[1,0]:   0007adc6
ram:0007adf6    70bd            pop         {r4,r5,r6,pc}                           
                            DAT_0007adf8:                 ;XREF[1,0]:   0007adba
ram:0007adf8    2c2c0020        undefined4  20002C2Ch                               
                            ;************************************************************************************************
                            ;*                                           FUNCTION                                           *
                            ;************************************************************************************************
                            ;undefined4 FUN_0007adfc(undefined4 * param_1, uint param_2, undefined4 param_3)
          ;param_1       undefined4 *        r0                      
          ;param_2       uint                r1                      
          ;param_3       undefined4          r2                      
          ;local_28      undefined1         -28                      ;XREF[2,0]:   0007ae14,0007ae8c
                                                          ;XREF[2,0]:   0007af7c,0007d3ea
ram:0007adfc    2de9f84f        push        {r3,r4,r5,r6,r7,r8,r9,r10,r11,lr}       
ram:0007ae00    374c            ldr         r4,[DAT_0007aee0]                       ;= 20002C2Ch
ram:0007ae02    8246            mov         r10,param_1                             
ram:0007ae04    9346            mov         r11,param_3                             
ram:0007ae06    6088            ldrh        param_1,[r4,#0x2]=>DAT_20002c2e         
ram:0007ae08    0f46            mov         r7,param_2                              
ram:0007ae0a    8142            cmp         param_2,param_1                         
ram:0007ae0c    65d8            bhi         LAB_0007aeda                            
ram:0007ae0e    3548            ldr         param_1,[DAT_0007aee4]                  ;= E000ED04h
ram:0007ae10    4ff00009        mov.w       r9,#0x0                                 
ram:0007ae14    8df80090        strb.w      r9,[sp,#0x0]=>local_28                  
ram:0007ae18    4ff6ff78        movw        r8,#0xffff                              
ram:0007ae1c    0068            ldr         param_1,[param_1,#0x0]=>DAT_e000ed04    
ram:0007ae1e    4546            mov         r5,r8                                   
ram:0007ae20    10eae810        ands.w      param_1,param_1,r8, asr #0x7            
ram:0007ae24    12d0            beq         LAB_0007ae4c                            
ram:0007ae26    1038            subs        param_1,#0x10                           
ram:0007ae28    40b2            sxtb        param_1,param_1                         
ram:0007ae2a    0028            cmp         param_1,#0x0                            
ram:0007ae2c    06da            bge         LAB_0007ae3c                            
ram:0007ae2e    00f00f00        and         param_1,param_1,#0xf                    
ram:0007ae32    00f1e020        add.w       param_1,param_1,#0xe000e000             
ram:0007ae36    90f8140d        ldrb.w      param_1,[param_1,#0xd14]                
ram:0007ae3a    03e0            b           LAB_0007ae44                            
                            LAB_0007ae3c:                 ;XREF[1,0]:   0007ae2c
ram:0007ae3c    00f1e020        add.w       param_1,param_1,#0xe000e000             
ram:0007ae40    90f80004        ldrb.w      param_1,[param_1,#0x400]                
                            LAB_0007ae44:                 ;XREF[1,0]:   0007ae3a
ram:0007ae44    4609            lsrs        r6,param_1,#0x5                         
ram:0007ae46    012e            cmp         r6,#0x1                                 
ram:0007ae48    01d1            bne         LAB_0007ae4e                            
ram:0007ae4a    07e0            b           LAB_0007ae5c                            
                            LAB_0007ae4c:                 ;XREF[1,0]:   0007ae24
ram:0007ae4c    0426            movs        r6,#0x4                                 
                            LAB_0007ae4e:                 ;XREF[1,0]:   0007ae48
ram:0007ae4e    6846            mov         param_1,sp                              
ram:0007ae50    36df            svc         0x36                                    
ram:0007ae52    0228            cmp         param_1,#0x2                            
ram:0007ae54    09d0            beq         LAB_0007ae6a                            
ram:0007ae56    08b1            cbz         param_1,LAB_0007ae5c                    
ram:0007ae58    fff792ff        bl          FUN_0007ad80                            ;undefined FUN_0007ad80(void)
                            LAB_0007ae5c:                 ;XREF[3,0]:   0007ae4a,0007ae56,0007ae6c
ram:0007ae5c    2178            ldrb        param_2,[r4,#0x0]=>DAT_20002c2c         
ram:0007ae5e    6078            ldrb        param_1,[r4,#0x1]=>DAT_20002c2d         
ram:0007ae60    a288            ldrh        param_3,[r4,#0x4]=>DAT_20002c30         
ram:0007ae62    9042            cmp         param_1,param_3                         
ram:0007ae64    03da            bge         LAB_0007ae6e                            
ram:0007ae66    401c            adds        param_1,param_1,#0x1                    
ram:0007ae68    02e0            b           LAB_0007ae70                            
                            LAB_0007ae6a:                 ;XREF[1,0]:   0007ae54
ram:0007ae6a    72b6            cpsid       i                                       
ram:0007ae6c    f6e7            b           LAB_0007ae5c                            
                            LAB_0007ae6e:                 ;XREF[1,0]:   0007ae64
ram:0007ae6e    0020            movs        param_1,#0x0                            
                            LAB_0007ae70:                 ;XREF[1,0]:   0007ae68
ram:0007ae70    c0b2            uxtb        param_1,param_1                         
ram:0007ae72    8842            cmp         param_1,param_2                         
ram:0007ae74    07d0            beq         LAB_0007ae86                            
ram:0007ae76    6578            ldrb        r5,[r4,#0x1]=>DAT_20002c2d              
ram:0007ae78    6078            ldrb        param_1,[r4,#0x1]=>DAT_20002c2d         
ram:0007ae7a    9042            cmp         param_1,param_3                         
ram:0007ae7c    01da            bge         LAB_0007ae82                            
ram:0007ae7e    401c            adds        param_1,param_1,#0x1                    
ram:0007ae80    00e0            b           LAB_0007ae84                            
                            LAB_0007ae82:                 ;XREF[1,0]:   0007ae7c
ram:0007ae82    0020            movs        param_1,#0x0                            
                            LAB_0007ae84:                 ;XREF[1,0]:   0007ae80
ram:0007ae84    6070            strb        param_1,[r4,#0x1]=>DAT_20002c2d         
                            LAB_0007ae86:                 ;XREF[1,0]:   0007ae74
ram:0007ae86    012e            cmp         r6,#0x1                                 
ram:0007ae88    08d0            beq         LAB_0007ae9c                            
ram:0007ae8a    62b6            cpsie       i                                       
ram:0007ae8c    9df80000        ldrb.w      param_1,[sp,#0x0]=>local_28             
ram:0007ae90    37df            svc         0x37                                    
ram:0007ae92    0228            cmp         param_1,#0x2                            
ram:0007ae94    02d0            beq         LAB_0007ae9c                            
ram:0007ae96    08b1            cbz         param_1,LAB_0007ae9c                    
ram:0007ae98    fff772ff        bl          FUN_0007ad80                            ;undefined FUN_0007ad80(void)
                            LAB_0007ae9c:                 ;XREF[3,0]:   0007ae88,0007ae94,0007ae96
ram:0007ae9c    4545            cmp         r5,r8                                   
ram:0007ae9e    1ad0            beq         LAB_0007aed6                            
ram:0007aea0    a068            ldr         param_1,[r4,#0x8]=>DAT_20002c34         
ram:0007aea2    baf1000f        cmp.w       r10,#0x0                                
ram:0007aea6    40f835b0        str.w       r11=>FUN_0007d3d2+1,param_1,r5,0x3      
ram:0007aeaa    0dd0            beq         LAB_0007aec8                            
ram:0007aeac    67b1            cbz         r7,LAB_0007aec8                         
ram:0007aeae    6188            ldrh        param_2,[r4,#0x2]=>DAT_20002c2e         
ram:0007aeb0    e068            ldr         param_1,[r4,#0xc]=>DAT_20002c38         
ram:0007aeb2    3a46            mov         param_3,r7                              
ram:0007aeb4    05fb0100        mla         param_1,r5,param_2,param_1              
ram:0007aeb8    5146            mov         param_2,r10                             
ram:0007aeba    fff75ffb        bl          FUN_0007a57c                            ;undefined FUN_0007a57c(undefined4 * ...
ram:0007aebe    a068            ldr         param_1,[r4,#0x8]=>DAT_20002c34         
ram:0007aec0    00ebc500        add.w       param_1,param_1,r5, lsl #0x3            
ram:0007aec4    8780            strh        r7,[param_1,#0x4]                       
ram:0007aec6    03e0            b           LAB_0007aed0                            
                            LAB_0007aec8:                 ;XREF[2,0]:   0007aeaa,0007aeac
ram:0007aec8    00ebc500        add.w       param_1,param_1,r5, lsl #0x3            
ram:0007aecc    a0f80490        strh.w      r9,[param_1,#0x4]                       
                            LAB_0007aed0:                 ;XREF[1,0]:   0007aec6
ram:0007aed0    0020            movs        param_1,#0x0                            
                            LAB_0007aed2:                 ;XREF[2,0]:   0007aed8,0007aedc
ram:0007aed2    bde8f88f        pop.w       {r3,r4,r5,r6,r7,r8,r9,r10,r11,pc}       
                            LAB_0007aed6:                 ;XREF[1,0]:   0007ae9e
ram:0007aed6    0420            movs        param_1,#0x4                            
ram:0007aed8    fbe7            b           LAB_0007aed2                            
                            LAB_0007aeda:                 ;XREF[1,0]:   0007ae0c
ram:0007aeda    0920            movs        param_1,#0x9                            
ram:0007aedc    f9e7            b           LAB_0007aed2                            
ram:0007aede    0000            movs        r0,r0                                   
                            DAT_0007aee0:                 ;XREF[1,0]:   0007ae00
ram:0007aee0    2c2c0020        undefined4  20002C2Ch                               
                            DAT_0007aee4:                 ;XREF[1,0]:   0007ae0e
ram:0007aee4    04ed00e0        undefined4  E000ED04h                               
                            ;************************************************************************************************
                            ;*                                           FUNCTION                                           *
                            ;************************************************************************************************
                            ;undefined FUN_0007aee8(undefined4 param_1, int param_2, uint param_3, undefined * param_4)
          ;param_1       undefined4          r0                      
          ;param_2       int                 r1                      
          ;param_3       uint                r2                      
          ;param_4       undefined *         r3                      
          ;local_8       undefined4          -8                      ;XREF[1,0]:   0007aeec
          ;local_c       undefined2          -c                      ;XREF[1,0]:   0007aeee
          ;local_10      undefined4         -10                      ;XREF[1,0]:   0007aef2
                                                          ;XREF[1,0]:   0007d7f8
ram:0007aee8    0eb5            push        {param_2,param_3,param_4,lr}            
ram:0007aeea    04e0            b           LAB_0007aef6                            
                            LAB_0007aeec:                 ;XREF[1,0]:   0007af02
ram:0007aeec    029a            ldr         param_3=>local_8,[sp,#0x8]              
ram:0007aeee    bdf80410        ldrh.w      param_2=>local_c,[sp,#0x4]              
ram:0007aef2    0098            ldr         param_1,[sp,#0x0]=>local_10             
ram:0007aef4    9047            blx         param_3                                 
                            LAB_0007aef6:                 ;XREF[1,0]:   0007aeea
ram:0007aef6    02aa            add         param_3,sp,#0x8                         
ram:0007aef8    01a9            add         param_2,sp,#0x4                         
ram:0007aefa    6846            mov         param_1,sp                              
ram:0007aefc    fff75cff        bl          FUN_0007adb8                            ;undefined4 FUN_0007adb8(int * param_...
ram:0007af00    0028            cmp         param_1,#0x0                            
ram:0007af02    f3d0            beq         LAB_0007aeec                            
ram:0007af04    0ebd            pop         {param_2,param_3,param_4,pc}            
ram:0007af06    0000            movs        r0,r0                                   
                            ;************************************************************************************************
                            ;*                                           FUNCTION                                           *
                            ;************************************************************************************************
                            ;undefined4 FUN_0007af08(undefined2 param_1, short param_2, uint param_3)
          ;param_1       undefined2          r0                      
          ;param_2       short               r1                      
          ;param_3       uint                r2                      
                                                          ;XREF[1,0]:   0007d280
ram:0007af08    30b5            push        {r4,r5,lr}                              
ram:0007af0a    cb00            lsls        r3,param_2,#0x3                         
ram:0007af0c    0833            adds        r3,#0x8                                 
ram:0007af0e    9db2            uxth        r5,r3                                   
ram:0007af10    9307            lsls        r3,param_3,#0x1e                        
ram:0007af12    4ff00004        mov.w       r4,#0x0                                 
ram:0007af16    01d0            beq         LAB_0007af1c                            
ram:0007af18    0720            movs        param_1,#0x7                            
ram:0007af1a    30bd            pop         {r4,r5,pc}                              
                            LAB_0007af1c:                 ;XREF[1,0]:   0007af16
ram:0007af1c    044b            ldr         r3,[DAT_0007af30]                       ;= 20002C2Ch
ram:0007af1e    9a60            str         param_3,[r3,#0x8]=>DAT_20002c34         
ram:0007af20    2a44            add         param_3,r5                              
ram:0007af22    da60            str         param_3,[r3,#0xc]=>DAT_20002c38         
ram:0007af24    5c70            strb        r4,[r3,#0x1]=>DAT_20002c2d              
ram:0007af26    1c70            strb        r4,[r3,#0x0]=>DAT_20002c2c              
ram:0007af28    5880            strh        param_1,[r3,#0x2]=>DAT_20002c2e         
ram:0007af2a    9980            strh        param_2,[r3,#0x4]=>DAT_20002c30         
ram:0007af2c    0020            movs        param_1,#0x0                            
ram:0007af2e    30bd            pop         {r4,r5,pc}                              
                            DAT_0007af30:                 ;XREF[1,0]:   0007af1c
ram:0007af30    2c2c0020        undefined4  20002C2Ch                               
                            ;************************************************************************************************
                            ;*                                           FUNCTION                                           *
                            ;************************************************************************************************
                            ;undefined4 FUN_0007af34(int * param_1, undefined param_2, int param_3)
          ;param_1       int *               r0                      
          ;param_2       undefined           r1                      
          ;param_3       int                 r2                      
                                                          ;XREF[2,0]:   0007b192,0007bf16
ram:0007af34    074b            ldr         r3,[DAT_0007af54]                       ;= 20002C3Ch
ram:0007af36    9b68            ldr         r3,[r3,#0x8]=>DAT_20002c44              
ram:0007af38    23b1            cbz         r3,LAB_0007af44                         
ram:0007af3a    2ab1            cbz         param_3,LAB_0007af48                    
ram:0007af3c    20b1            cbz         param_1,LAB_0007af48                    
ram:0007af3e    0068            ldr         param_1,[param_1,#0x0]=>DAT_0007d820    ;= 20003034h
ram:0007af40    037c            ldrb        r3,[param_1,#0x10]=>DAT_20003044        
ram:0007af42    1bb1            cbz         r3,LAB_0007af4c                         
                            LAB_0007af44:                 ;XREF[1,0]:   0007af38
ram:0007af44    0820            movs        param_1,#0x8                            
ram:0007af46    7047            bx          lr                                      
                            LAB_0007af48:                 ;XREF[2,0]:   0007af3a,0007af3c
ram:0007af48    0720            movs        param_1,#0x7                            
ram:0007af4a    7047            bx          lr                                      
                            LAB_0007af4c:                 ;XREF[1,0]:   0007af42
ram:0007af4c    4174            strb        param_2,[param_1,#0x11]=>DAT_20003045   
ram:0007af4e    4261            str         param_3,[param_1,#0x14]=>DAT_20003048   
ram:0007af50    0020            movs        param_1,#0x0                            
ram:0007af52    7047            bx          lr                                      
                            DAT_0007af54:                 ;XREF[1,0]:   0007af34
ram:0007af54    3c2c0020        undefined4  20002C3Ch                               
                            ;************************************************************************************************
                            ;*                                           FUNCTION                                           *
                            ;************************************************************************************************
                            ;undefined FUN_0007af58(undefined * * param_1, int param_2)
          ;param_1       undefined * *       r0                      
          ;param_2       int                 r1                      
ram:0007af58    10b5            push        {r4,lr}                                 
ram:0007af5a    0446            mov         r4,param_1                              
ram:0007af5c    0829            cmp         param_2,#0x8                            
ram:0007af5e    02d0            beq         LAB_0007af66                            
ram:0007af60    0020            movs        param_1,#0x0                            
ram:0007af62    fff70dff        bl          FUN_0007ad80                            ;undefined FUN_0007ad80(void)
                            LAB_0007af66:                 ;XREF[1,0]:   0007af5e
ram:0007af66    d4e90010        ldrd        param_2,param_1,[r4,#0x0]               
ram:0007af6a    bde81040        pop.w       {r4,lr}                                 
ram:0007af6e    0847            bx          param_2                                 
                            ;************************************************************************************************
                            ;*                                           FUNCTION                                           *
                            ;************************************************************************************************
                            ;undefined LAB_0007af70+1(undefined4 param_1, undefined4 param_2)
          ;param_1       undefined4          r0                      
          ;param_2       undefined4          r1                      
          ;local_10      undefined4         -10                      ;XREF[1,0]:   0007af74
                                                          ;XREF[0,2]:   0007cabc,0007cb94
ram:0007af70    1cb5            push        {r2,r3,r4,lr}                           
ram:0007af72    044a            ldr         r2,[DAT_0007af84]                       ;= 0007AF59h
ram:0007af74    cde90001        strd        param_1,param_2,[sp,#0x0]=>local_10     
ram:0007af78    0821            movs        param_2,#0x8                            
ram:0007af7a    6846            mov         param_1,sp                              
ram:0007af7c    fff73eff        bl          FUN_0007adfc                            ;undefined4 FUN_0007adfc(undefined4 *...
ram:0007af80    1cbd            pop         {r2,r3,r4,pc}                           
ram:0007af82    0000            movs        r0,r0                                   
                            DAT_0007af84:                 ;XREF[1,0]:   0007af72
ram:0007af84    59af0700        undefined4  0007AF59h                               ;?  ->  0007af59
                            ;************************************************************************************************
                            ;*                                           FUNCTION                                           *
                            ;************************************************************************************************
                            ;undefined4 FUN_0007af88(undefined4 param_1, int param_2, uint param_3, undefined4 param_4)
          ;param_1       undefined4          r0                      
          ;param_2       int                 r1                      
          ;param_3       uint                r2                      
          ;param_4       undefined4          r3                      
                                                          ;XREF[1,0]:   0007cac4
ram:0007af88    2de9f047        push        {r4,r5,r6,r7,r8,r9,r10,lr}              
ram:0007af8c    8046            mov         r8,param_1                              
ram:0007af8e    9946            mov         r9,param_4                              
ram:0007af90    1446            mov         r4,param_3                              
ram:0007af92    0f46            mov         r7,param_2                              
ram:0007af94    9007            lsls        param_1,param_3,#0x1e                   
ram:0007af96    4ff00006        mov.w       r6,#0x0                                 
ram:0007af9a    34d1            bne         LAB_0007b006                            
ram:0007af9c    1c4d            ldr         r5,[DAT_0007b010]                       ;= 20002C3Ch
ram:0007af9e    8cb3            cbz         r4,LAB_0007b004                         
ram:0007afa0    02f04cf9        bl          FUN_0007d23c                            ;undefined FUN_0007d23c(void)
ram:0007afa4    0320            movs        param_1,#0x3                            
ram:0007afa6    c5f81490        str.w       r9,[r5,#0x14]=>DAT_20002c50             
ram:0007afaa    2870            strb        param_1,[r5,#0x0]=>DAT_20002c3c         
ram:0007afac    04f11800        add.w       param_1,r4,#0x18                        
ram:0007afb0    0021            movs        param_2,#0x0                            
ram:0007afb2    07eb4703        add.w       param_4,r7,r7, lsl #0x1                 
ram:0007afb6    ac60            str         r4,[r5,#0x8]=>DAT_20002c44              
                            LAB_0007afb8:                 ;XREF[1,0]:   0007afcc
ram:0007afb8    04ebc102        add.w       param_3,r4,param_2, lsl #0x3            
ram:0007afbc    491c            adds        param_2,param_2,#0x1                    
ram:0007afbe    1670            strb        r6,[param_3,#0x0]                       
ram:0007afc0    5670            strb        r6,[param_3,#0x1]                       
ram:0007afc2    9770            strb        r7,[param_3,#0x2]                       
ram:0007afc4    5060            str         param_1,[param_3,#0x4]                  
ram:0007afc6    00ebc300        add.w       param_1,param_1,param_4, lsl #0x3       
ram:0007afca    0329            cmp         param_2,#0x3                            
ram:0007afcc    f4db            blt         LAB_0007afb8                            
ram:0007afce    ee60            str         r6,[r5,#0xc]=>DAT_20002c48              
ram:0007afd0    6e70            strb        r6,[r5,#0x1]=>DAT_20002c3d              
ram:0007afd2    ae70            strb        r6,[r5,#0x2]=>DAT_20002c3e              
ram:0007afd4    1420            movs        param_1,#0x14                           
ram:0007afd6    fff743fb        bl          FUN_0007a660                            ;undefined FUN_0007a660(uint param_1)
ram:0007afda    0321            movs        param_2,#0x3                            
ram:0007afdc    1420            movs        param_1,#0x14                           
ram:0007afde    fff760fb        bl          FUN_0007a6a2                            ;undefined FUN_0007a6a2(uint param_1,...
ram:0007afe2    1420            movs        param_1,#0x14                           
ram:0007afe4    fff747fb        bl          FUN_0007a676                            ;undefined FUN_0007a676(uint param_1)
ram:0007afe8    0a49            ldr         param_2,[DAT_0007b014]                  ;= 40011508h
ram:0007afea    c1f80080        str.w       r8,[param_2,#0x0]=>DAT_40011508         
ram:0007afee    0321            movs        param_2,#0x3                            
ram:0007aff0    1120            movs        param_1,#0x11                           
ram:0007aff2    fff756fb        bl          FUN_0007a6a2                            ;undefined FUN_0007a6a2(uint param_1,...
ram:0007aff6    0748            ldr         param_1,[DAT_0007b014]                  ;= 40011508h
ram:0007aff8    001f            subs        param_1,param_1,#0x4                    
ram:0007affa    0068            ldr         param_1,[param_1,#0x0]=>DAT_40011504    
ram:0007affc    2861            str         param_1,[r5,#0x10]=>DAT_20002c4c        
ram:0007affe    0020            movs        param_1,#0x0                            
                            LAB_0007b000:                 ;XREF[1,0]:   0007b008
ram:0007b000    bde8f087        pop.w       {r4,r5,r6,r7,r8,r9,r10,pc}              
                            LAB_0007b004:                 ;XREF[1,0]:   0007af9e
ram:0007b004    01e0            b           LAB_0007b00a                            
                            LAB_0007b006:                 ;XREF[2,0]:   0007af9a,0007b00c
ram:0007b006    0720            movs        param_1,#0x7                            
ram:0007b008    fae7            b           LAB_0007b000                            
                            LAB_0007b00a:                 ;XREF[1,0]:   0007b004
ram:0007b00a    ae60            str         r6,[r5,#0x8]=>DAT_20002c44              
ram:0007b00c    fbe7            b           LAB_0007b006                            
ram:0007b00e    0000            movs        r0,r0                                   
                            DAT_0007b010:                 ;XREF[1,0]:   0007af9c
ram:0007b010    3c2c0020        undefined4  20002C3Ch                               
                            DAT_0007b014:                 ;XREF[2,0]:   0007afe8,0007aff6
ram:0007b014    08150140        undefined4  40011508h                               
                            ;************************************************************************************************
                            ;*                                           FUNCTION                                           *
                            ;************************************************************************************************
                            ;undefined4 FUN_0007b018(int param_1, uint param_2, undefined4 param_3, undefined4 param_4)
          ;param_1       int                 r0                      
          ;param_2       uint                r1                      
          ;param_3       undefined4          r2                      
          ;param_4       undefined4          r3                      
          ;local_20      undefined1         -20                      ;XREF[1,0]:   0007b072
                                                          ;XREF[3,0]:   0007ba9e,0007bf28,0007c456
ram:0007b018    2de9f843        push        {param_4,r4,r5,r6,r7,r8,r9,lr}          
ram:0007b01c    dff87090        ldr.w       r9,[DAT_0007b090]                       ;= 20002C3Ch
ram:0007b020    0d46            mov         r5,param_2                              
ram:0007b022    1746            mov         r7,param_3                              
ram:0007b024    d9f80810        ldr.w       param_2,[r9,#0x8]=>DAT_20002c44         
ram:0007b028    0446            mov         r4,param_1                              
ram:0007b02a    51b3            cbz         param_2,LAB_0007b082                    
ram:0007b02c    4cb3            cbz         r4,LAB_0007b082                         
ram:0007b02e    052d            cmp         r5,#0x5                                 
ram:0007b030    02d2            bcs         LAB_0007b038                            
ram:0007b032    0720            movs        param_1,#0x7                            
                            LAB_0007b034:                 ;XREF[3,0]:   0007b080,0007b084,0007b08c
ram:0007b034    bde8f883        pop.w       {param_4,r4,r5,r6,r7,r8,r9,pc}          
                            LAB_0007b038:                 ;XREF[1,0]:   0007b030
ram:0007b038    6069            ldr         param_1,[r4,#0x14]                      
ram:0007b03a    10b3            cbz         param_1,LAB_0007b082                    
ram:0007b03c    607c            ldrb        param_1,[r4,#0x11]                      
ram:0007b03e    0128            cmp         param_1,#0x1                            
ram:0007b040    21d0            beq         LAB_0007b086                            
ram:0007b042    0026            movs        r6,#0x0                                 
                            LAB_0007b044:                 ;XREF[1,0]:   0007b088
ram:0007b044    02f034fb        bl          FUN_0007d6b0                            ;undefined4 FUN_0007d6b0(void)
ram:0007b048    d9f80810        ldr.w       param_2,[r9,#0x8]=>DAT_20002c44         
ram:0007b04c    8046            mov         r8,param_1                              
ram:0007b04e    01ebc800        add.w       param_1,param_2,r8, lsl #0x3            
ram:0007b052    6946            mov         param_2,sp                              
ram:0007b054    02f04efb        bl          FUN_0007d6f4                            ;int FUN_0007d6f4(char * param_1, cha...
ram:0007b058    b8b1            cbz         param_1,LAB_0007b08a                    
ram:0007b05a    0121            movs        param_2,#0x1                            
ram:0007b05c    00f8041b        strb.w      param_2,[param_1],#0x4                  
ram:0007b060    0c49            ldr         param_2,[DAT_0007b094]                  ;= 40011504h
ram:0007b062    10c0            stmia       param_1!,{r4}                           
ram:0007b064    0968            ldr         param_2,[param_2,#0x0]=>DAT_40011504    
ram:0007b066    80e8e200        stm         param_1,{param_2,r5,r6,r7}              
ram:0007b06a    d9f80810        ldr.w       param_2,[r9,#0x8]=>DAT_20002c44         
ram:0007b06e    01ebc800        add.w       param_1,param_2,r8, lsl #0x3            
ram:0007b072    9df80010        ldrb.w      param_2,[sp,#0x0]=>local_20             
ram:0007b076    4170            strb        param_2,[param_1,#0x1]                  
ram:0007b078    1420            movs        param_1,#0x14                           
ram:0007b07a    fff707fb        bl          FUN_0007a68c                            ;undefined FUN_0007a68c(uint param_1)
ram:0007b07e    0020            movs        param_1,#0x0                            
ram:0007b080    d8e7            b           LAB_0007b034                            
                            LAB_0007b082:                 ;XREF[3,0]:   0007b02a,0007b02c,0007b03a
ram:0007b082    0820            movs        param_1,#0x8                            
ram:0007b084    d6e7            b           LAB_0007b034                            
                            LAB_0007b086:                 ;XREF[1,0]:   0007b040
ram:0007b086    2e46            mov         r6,r5                                   
ram:0007b088    dce7            b           LAB_0007b044                            
                            LAB_0007b08a:                 ;XREF[1,0]:   0007b058
ram:0007b08a    0420            movs        param_1,#0x4                            
ram:0007b08c    d2e7            b           LAB_0007b034                            
ram:0007b08e    0000            movs        r0,r0                                   
                            DAT_0007b090:                 ;XREF[1,0]:   0007b01c
ram:0007b090    3c2c0020        undefined4  20002C3Ch                               
                            DAT_0007b094:                 ;XREF[1,0]:   0007b060
ram:0007b094    04150140        undefined4  40011504h                               
                            ;************************************************************************************************
                            ;*                                           FUNCTION                                           *
                            ;************************************************************************************************
                            ;undefined4 FUN_0007b098(int param_1, undefined4 param_2, undefined4 param_3, undefined4 param_4)
          ;param_1       int                 r0                      
          ;param_2       undefined4          r1                      
          ;param_3       undefined4          r2                      
          ;param_4       undefined4          r3                      
          ;local_18      undefined1         -18                      ;XREF[1,0]:   0007b0c8
                                                          ;XREF[4,0]:   0007b206,0007b238,0007be6e,0007c444
ram:0007b098    f8b5            push        {param_4,r4,r5,r6,r7,lr}                
ram:0007b09a    124e            ldr         r6,[DAT_0007b0e4]                       ;= 20002C3Ch
ram:0007b09c    0446            mov         r4,param_1                              
ram:0007b09e    b168            ldr         param_2,[r6,#0x8]=>DAT_20002c44         
ram:0007b0a0    e1b1            cbz         param_2,LAB_0007b0dc                    
ram:0007b0a2    dcb1            cbz         r4,LAB_0007b0dc                         
ram:0007b0a4    6069            ldr         param_1,[r4,#0x14]                      
ram:0007b0a6    c8b1            cbz         param_1,LAB_0007b0dc                    
ram:0007b0a8    0027            movs        r7,#0x0                                 
ram:0007b0aa    2774            strb        r7,[r4,#0x10]                           
ram:0007b0ac    02f000fb        bl          FUN_0007d6b0                            ;undefined4 FUN_0007d6b0(void)
ram:0007b0b0    0546            mov         r5,param_1                              
ram:0007b0b2    b068            ldr         param_1,[r6,#0x8]=>DAT_20002c44         
ram:0007b0b4    6946            mov         param_2,sp                              
ram:0007b0b6    00ebc500        add.w       param_1,param_1,r5, lsl #0x3            
ram:0007b0ba    02f01bfb        bl          FUN_0007d6f4                            ;int FUN_0007d6f4(char * param_1, cha...
ram:0007b0be    78b1            cbz         param_1,LAB_0007b0e0                    
ram:0007b0c0    0221            movs        param_2,#0x2                            
ram:0007b0c2    0170            strb        param_2,[param_1,#0x0]                  
ram:0007b0c4    4460            str         r4,[param_1,#0x4]                       
ram:0007b0c6    b068            ldr         param_1,[r6,#0x8]=>DAT_20002c44         
ram:0007b0c8    9df80010        ldrb.w      param_2,[sp,#0x0]=>local_18             
ram:0007b0cc    00ebc500        add.w       param_1,param_1,r5, lsl #0x3            
ram:0007b0d0    4170            strb        param_2,[param_1,#0x1]                  
ram:0007b0d2    1420            movs        param_1,#0x14                           
ram:0007b0d4    fff7dafa        bl          FUN_0007a68c                            ;undefined FUN_0007a68c(uint param_1)
ram:0007b0d8    3846            mov         param_1,r7                              
ram:0007b0da    f8bd            pop         {param_4,r4,r5,r6,r7,pc}                
                            LAB_0007b0dc:                 ;XREF[3,0]:   0007b0a0,0007b0a2,0007b0a6
ram:0007b0dc    0820            movs        param_1,#0x8                            
ram:0007b0de    f8bd            pop         {param_4,r4,r5,r6,r7,pc}                
                            LAB_0007b0e0:                 ;XREF[1,0]:   0007b0be
ram:0007b0e0    0420            movs        param_1,#0x4                            
ram:0007b0e2    f8bd            pop         {param_4,r4,r5,r6,r7,pc}                
                            DAT_0007b0e4:                 ;XREF[1,0]:   0007b09a
ram:0007b0e4    3c2c0020        undefined4  20002C3Ch                               
                            ;************************************************************************************************
                            ;*                                           FUNCTION                                           *
                            ;************************************************************************************************
                            ;char * FUN_0007b0e8(byte * param_1, byte * param_2)
          ;param_1       byte *              r0                      
          ;param_2       byte *              r1                      
          ;local_5c      undefined2         -5c                      ;XREF[3,0]:   0007b0f6,0007b13a,0007b13e
          ;local_60      undefined2         -60                      ;XREF[3,0]:   0007b0f2,0007b116,0007b144
                                                          ;XREF[1,0]:   0007abc8
ram:0007b0e8    f0b5            push        {r4,r5,r6,r7,lr}                        
ram:0007b0ea    0c46            mov         r4,param_2                              
ram:0007b0ec    93b0            sub         sp,#0x4c                                
ram:0007b0ee    1f21            movs        param_2,#0x1f                           
ram:0007b0f0    0726            movs        r6,#0x7                                 
ram:0007b0f2    adf80010        strh.w      param_2,[sp,#0x0]=>local_60             
ram:0007b0f6    adf80410        strh.w      param_2,[sp,#local_5c+0x60]             
ram:0007b0fa    0027            movs        r7,#0x0                                 
ram:0007b0fc    50b1            cbz         param_1,LAB_0007b114                    
ram:0007b0fe    c178            ldrb        param_2,[param_1,#0x3]                  
ram:0007b100    4907            lsls        param_2,param_2,#0x1d                   
ram:0007b102    0dd5            bpl         LAB_0007b120                            
ram:0007b104    6a46            mov         r2,sp                                   
ram:0007b106    02a9            add         param_2,sp,#0x8                         
ram:0007b108    fff73ffc        bl          FUN_0007a98a                            ;char * FUN_0007a98a(byte * param_1, ...
ram:0007b10c    0028            cmp         param_1,#0x0                            
ram:0007b10e    08d1            bne         LAB_0007b122                            
ram:0007b110    02ad            add         r5,sp,#0x8                              
ram:0007b112    02e0            b           LAB_0007b11a                            
                            LAB_0007b114:                 ;XREF[1,0]:   0007b0fc
ram:0007b114    0025            movs        r5,#0x0                                 
ram:0007b116    adf80070        strh.w      r7,[sp,#0x0]=>local_60                  
                            LAB_0007b11a:                 ;XREF[1,0]:   0007b112
ram:0007b11a    6cb1            cbz         r4,LAB_0007b138                         
ram:0007b11c    e078            ldrb        param_1,[r4,#0x3]                       
ram:0007b11e    10b1            cbz         param_1,LAB_0007b126                    
                            LAB_0007b120:                 ;XREF[1,0]:   0007b102
ram:0007b120    3046            mov         param_1,r6                              
                            LAB_0007b122:                 ;XREF[3,0]:   0007b10e,0007b132,0007b14e
ram:0007b122    13b0            add         sp,#0x4c                                
ram:0007b124    f0bd            pop         {r4,r5,r6,r7,pc}                        
                            LAB_0007b126:                 ;XREF[1,0]:   0007b11e
ram:0007b126    01aa            add         r2,sp,#0x4                              
ram:0007b128    0aa9            add         param_2,sp,#0x28                        
ram:0007b12a    2046            mov         param_1,r4                              
ram:0007b12c    fff72dfc        bl          FUN_0007a98a                            ;char * FUN_0007a98a(byte * param_1, ...
ram:0007b130    0028            cmp         param_1,#0x0                            
ram:0007b132    f6d1            bne         LAB_0007b122                            
ram:0007b134    0aaa            add         r2,sp,#0x28                             
ram:0007b136    02e0            b           LAB_0007b13e                            
                            LAB_0007b138:                 ;XREF[1,0]:   0007b11a
ram:0007b138    0022            movs        r2,#0x0                                 
ram:0007b13a    adf80470        strh.w      r7,[sp,#local_5c+0x60]                  
                            LAB_0007b13e:                 ;XREF[1,0]:   0007b136
ram:0007b13e    bdf80400        ldrh.w      param_1,[sp,#local_5c+0x60]             
ram:0007b142    c3b2            uxtb        r3,param_1                              
ram:0007b144    bdf80000        ldrh.w      param_1,[sp,#0x0]=>local_60             
ram:0007b148    c1b2            uxtb        param_2,param_1                         
ram:0007b14a    2846            mov         param_1,r5                              
ram:0007b14c    72df            svc         0x72                                    
ram:0007b14e    e8e7            b           LAB_0007b122                            
                            ;************************************************************************************************
                            ;*                                           FUNCTION                                           *
                            ;************************************************************************************************
                            ;undefined FUN_0007b150(int * param_1)
          ;param_1       int *               r0                      
                                                          ;XREF[1,0]:   0007c5b2
ram:0007b150    70b5            push        {r4,r5,r6,lr}                           
ram:0007b152    0546            mov         r5,param_1                              
ram:0007b154    0146            mov         r1,param_1                              
ram:0007b156    1c22            movs        r2,#0x1c                                
ram:0007b158    0f48            ldr         param_1,[DAT_0007b198]                  ;= 20003054h
ram:0007b15a    fff70ffa        bl          FUN_0007a57c                            ;undefined FUN_0007a57c(undefined4 * ...
ram:0007b15e    0f4c            ldr         r4,[DAT_0007b19c]                       ;= 20002C00h
ram:0007b160    0026            movs        r6,#0x0                                 
ram:0007b162    2670            strb        r6,[r4,#0x0]=>DAT_20002c00              
ram:0007b164    2868            ldr         param_1,[r5,#0x0]                       
ram:0007b166    30b1            cbz         param_1,LAB_0007b176                    
ram:0007b168    0168            ldr         r1,[param_1,#0x0]                       
ram:0007b16a    6160            str         r1,[r4,#offset DAT_20002c04 &0xff]      
ram:0007b16c    4068            ldr         param_1,[param_1,#0x4]                  
ram:0007b16e    a060            str         param_1,[r4,#offset DAT_20002c08 &0xff] 
ram:0007b170    201d            adds        param_1=>DAT_20002c04,r4,#0x4           
ram:0007b172    7adf            svc         0x7a                                    
ram:0007b174    02e0            b           LAB_0007b17c                            
                            LAB_0007b176:                 ;XREF[1,0]:   0007b166
ram:0007b176    0948            ldr         param_1,[DAT_0007b19c]                  ;= 20002C00h
ram:0007b178    001d            adds        param_1,param_1,#0x4                    
ram:0007b17a    7bdf            svc         0x7b                                    
                            LAB_0007b17c:                 ;XREF[1,0]:   0007b174
ram:0007b17c    0028            cmp         param_1,#0x0                            
ram:0007b17e    0ad1            bne         LAB_0007b196                            
ram:0007b180    4ff6ff70        movw        param_1,#0xffff                         
ram:0007b184    6080            strh        param_1,[r4,#offset DAT_20002c02 &0xff] 
ram:0007b186    6670            strb        r6,[r4,#offset DAT_20002c01 &0xff]      
ram:0007b188    bde87040        pop.w       {r4,r5,r6,lr}                           
ram:0007b18c    044a            ldr         r2,[DAT_0007b1a0]                       ;= 0007D651h
ram:0007b18e    0021            movs        r1,#0x0                                 
ram:0007b190    0448            ldr         param_1=>DAT_0007d820,[PTR_DAT_0007b1a4];= 20003034h
                                                                                    ;= 0007d820
ram:0007b192    fff7cfbe        b.w         FUN_0007af34                            ;undefined4 FUN_0007af34(int * param_...
                            LAB_0007b196:                 ;XREF[1,0]:   0007b17e
ram:0007b196    70bd            pop         {r4,r5,r6,pc}                           
                            DAT_0007b198:                 ;XREF[1,0]:   0007b158
ram:0007b198    54300020        undefined4  20003054h                               
                            DAT_0007b19c:                 ;XREF[2,0]:   0007b15e,0007b176
ram:0007b19c    002c0020        undefined4  20002C00h                               
                            DAT_0007b1a0:                 ;XREF[1,0]:   0007b18c
ram:0007b1a0    51d60700        undefined4  0007D651h                               ;?  ->  0007d651
                            PTR_DAT_0007b1a4:             ;XREF[1,0]:   0007b190
ram:0007b1a4    20d80700        addr        DAT_0007d820                            ;= 20003034h
                            ;************************************************************************************************
                            ;*                                           FUNCTION                                           *
                            ;************************************************************************************************
                            ;undefined FUN_0007b1a8(short * param_1)
          ;param_1       short *             r0                      
          ;local_18      undefined1         -18                      ;XREF[2,0]:   0007ba7c,0007ba8c
                                                          ;XREF[1,0]:   0007b504
ram:0007b1a8    70b5            push        {r4,r5,r6,lr}                           
ram:0007b1aa    204c            ldr         r4,[DAT_0007b22c]                       ;= 20003054h
ram:0007b1ac    0688            ldrh        r6,[param_1,#0x0]                       
ram:0007b1ae    0025            movs        r5,#0x0                                 
ram:0007b1b0    1d49            ldr         r1=>DAT_20002c00,[DAT_0007b228]         ;= 20002C00h
ram:0007b1b2    e289            ldrh        r2,[r4,#0xe]=>DAT_20003062              
ram:0007b1b4    102e            cmp         r6,#0x10                                
ram:0007b1b6    15d0            beq         LAB_0007b1e4                            
ram:0007b1b8    1d4b            ldr         r3=>DAT_0007d820,[PTR_DAT_0007b230]     ;= 20003034h
                                                                                    ;= 0007d820
ram:0007b1ba    112e            cmp         r6,#0x11                                
ram:0007b1bc    1ed0            beq         LAB_0007b1fc                            
ram:0007b1be    122e            cmp         r6,#0x12                                
ram:0007b1c0    2bd0            beq         LAB_0007b21a                            
ram:0007b1c2    502e            cmp         r6,#0x50                                
ram:0007b1c4    19d1            bne         LAB_0007b1fa                            
ram:0007b1c6    30f8061f        ldrh.w      r1,[param_1,#0x6]!                      
ram:0007b1ca    9142            cmp         r1,r2                                   
ram:0007b1cc    15d1            bne         LAB_0007b1fa                            
ram:0007b1ce    018b            ldrh        r1,[param_1,#0x18]                      
ram:0007b1d0    0229            cmp         r1,#0x2                                 
ram:0007b1d2    12d1            bne         LAB_0007b1fa                            
ram:0007b1d4    807e            ldrb        param_1,[param_1,#0x1a]                 
ram:0007b1d6    10f0010f        tst         param_1,#0x1                            
ram:0007b1da    13d0            beq         LAB_0007b204                            
                            LAB_0007b1dc:                 ;XREF[2,0]:   0007b1f8,0007b224
ram:0007b1dc    bde87040        pop.w       {r4,r5,r6,lr}                           
ram:0007b1e0    00f040bc        b.w         LAB_0007ba64                            
                            LAB_0007b1e4:                 ;XREF[1,0]:   0007b1b6
ram:0007b1e4    8388            ldrh        r3,[param_1,#0x4]                       
ram:0007b1e6    4b80            strh        r3,[r1,#offset DAT_20002c02 &0xff]      
ram:0007b1e8    d0f81630        ldr.w       r3,[param_1,#0x16]                      
ram:0007b1ec    cb60            str         r3,[r1,#offset DAT_20002c0c &0xff]      
ram:0007b1ee    d0f81a00        ldr.w       param_1,[param_1,#0x1a]                 
ram:0007b1f2    0861            str         param_1,[r1,#offset DAT_20002c10 &0xff] 
ram:0007b1f4    4d70            strb        r5,[r1,#offset DAT_20002c01 &0xff]      
ram:0007b1f6    002a            cmp         r2,#0x0                                 
ram:0007b1f8    f0d0            beq         LAB_0007b1dc                            
                            LAB_0007b1fa:                 ;XREF[5,0]:   0007b1c4,0007b1cc,0007b1d2,0007b20c
                                                          ;             0007b212
ram:0007b1fa    70bd            pop         {r4,r5,r6,pc}                           
                            LAB_0007b1fc:                 ;XREF[1,0]:   0007b1bc
ram:0007b1fc    4ff6ff70        movw        param_1,#0xffff                         
ram:0007b200    4880            strh        param_1,[r1,#offset DAT_20002c02 &0xff] 
ram:0007b202    4d70            strb        r5,[r1,#offset DAT_20002c01 &0xff]      
                            LAB_0007b204:                 ;XREF[1,0]:   0007b1da
ram:0007b204    1868            ldr         param_1,[r3,#0x0]=>DAT_0007d820         ;= 20003034h
ram:0007b206    fff747ff        bl          FUN_0007b098                            ;undefined4 FUN_0007b098(int param_1,...
ram:0007b20a    0028            cmp         param_1,#0x0                            
ram:0007b20c    f5d0            beq         LAB_0007b1fa                            
ram:0007b20e    a169            ldr         r1,[r4,#0x18]=>DAT_2000306c             
ram:0007b210    0029            cmp         r1,#0x0                                 
ram:0007b212    f2d0            beq         LAB_0007b1fa                            
ram:0007b214    bde87040        pop.w       {r4,r5,r6,lr}                           
ram:0007b218    0847            bx          r1                                      
                            LAB_0007b21a:                 ;XREF[1,0]:   0007b1c0
ram:0007b21a    50f8062f        ldr.w       r2,[param_1,#0x6]!                      
ram:0007b21e    ca60            str         r2,[r1,#offset DAT_20002c0c &0xff]      
ram:0007b220    4068            ldr         param_1,[param_1,#0x4]                  
ram:0007b222    0861            str         param_1,[r1,#offset DAT_20002c10 &0xff] 
ram:0007b224    dae7            b           LAB_0007b1dc                            
ram:0007b226    0000            movs        r0,r0                                   
                            DAT_0007b228:                 ;XREF[1,0]:   0007b1b0
ram:0007b228    002c0020        undefined4  20002C00h                               
                            DAT_0007b22c:                 ;XREF[1,0]:   0007b1aa
ram:0007b22c    54300020        undefined4  20003054h                               
                            PTR_DAT_0007b230:             ;XREF[1,0]:   0007b1b8
ram:0007b230    20d80700        addr        DAT_0007d820                            ;= 20003034h
                            ;************************************************************************************************
                            ;*                                           FUNCTION                                           *
                            ;************************************************************************************************
                            ;undefined FUN_0007b234(undefined4 param_1, undefined4 param_2, undefined4 param_3, undefined4 param_4)
          ;param_1       undefined4          r0                      
          ;param_2       undefined4          r1                      
          ;param_3       undefined4          r2                      
          ;param_4       undefined4          r3                      
                                                          ;XREF[1,0]:   0007c4a4
ram:0007b234    0148            ldr         param_1,[PTR_DAT_0007b23c]              ;= 0007d820
ram:0007b236    0068            ldr         param_1,[param_1,#0x0]=>DAT_0007d820    ;= 20003034h
ram:0007b238    fff72ebf        b.w         FUN_0007b098                            ;undefined4 FUN_0007b098(int param_1,...
                            PTR_DAT_0007b23c:             ;XREF[1,0]:   0007b234
ram:0007b23c    20d80700        addr        DAT_0007d820                            ;= 20003034h
                            ;************************************************************************************************
                            ;*                                           FUNCTION                                           *
                            ;************************************************************************************************
                            ;char * FUN_0007b240(int param_1, ushort * param_2, uint param_3, undefined4 param_4)
          ;param_1       int                 r0                      
          ;param_2       ushort *            r1                      
          ;param_3       uint                r2                      
          ;param_4       undefined4          r3                      
          ;local_13      undefined2         -13                      ;XREF[1,0]:   0007b27c
          ;local_17      undefined4         -17                      ;XREF[1,0]:   0007b276
          ;local_18      undefined1         -18                      ;XREF[1,0]:   0007b28a
                                                          ;XREF[1,0]:   0007aa2e
ram:0007b240    7cb5            push        {param_3,param_4,r4,r5,r6,lr}           
ram:0007b242    0546            mov         r5,param_1                              
ram:0007b244    0888            ldrh        param_1,[param_2,#0x0]                  
ram:0007b246    0c46            mov         r4,param_2                              
ram:0007b248    0930            adds        param_1,#0x9                            
ram:0007b24a    9042            cmp         param_1,param_3                         
ram:0007b24c    01d9            bls         LAB_0007b252                            
ram:0007b24e    0c20            movs        param_1,#0xc                            
                            LAB_0007b250:                 ;XREF[1,0]:   0007b258
ram:0007b250    7cbd            pop         {param_3,param_4,r4,r5,r6,pc}           
                            LAB_0007b252:                 ;XREF[1,0]:   0007b24c
ram:0007b252    6846            mov         param_1,sp                              
ram:0007b254    71df            svc         0x71                                    
ram:0007b256    0028            cmp         param_1,#0x0                            
ram:0007b258    fad1            bne         LAB_0007b250                            
ram:0007b25a    2188            ldrh        param_2,[r4,#0x0]                       
ram:0007b25c    0820            movs        param_1,#0x8                            
ram:0007b25e    6854            strb        param_1,[r5,param_2]                    
ram:0007b260    2088            ldrh        param_1,[r4,#0x0]                       
ram:0007b262    1b21            movs        param_2,#0x1b                           
ram:0007b264    401c            adds        param_1,param_1,#0x1                    
ram:0007b266    80b2            uxth        param_1,param_1                         
ram:0007b268    2080            strh        param_1,[r4,#0x0]                       
ram:0007b26a    2954            strb        param_2,[r5,param_1]                    
ram:0007b26c    2088            ldrh        param_1,[r4,#0x0]                       
ram:0007b26e    401c            adds        param_1,param_1,#0x1                    
ram:0007b270    80b2            uxth        param_1,param_1                         
ram:0007b272    2080            strh        param_1,[r4,#0x0]                       
ram:0007b274    2844            add         param_1,r5                              
ram:0007b276    ddf80110        ldr.w       param_2,[sp,#local_17+0x18]             
ram:0007b27a    0160            str         param_2,[param_1,#0x0]                  
ram:0007b27c    bdf80510        ldrh.w      param_2,[sp,#local_13+0x18]             
ram:0007b280    8180            strh        param_2,[param_1,#0x4]                  
ram:0007b282    2088            ldrh        param_1,[r4,#0x0]                       
ram:0007b284    801d            adds        param_1,param_1,#0x6                    
ram:0007b286    80b2            uxth        param_1,param_1                         
ram:0007b288    2080            strh        param_1,[r4,#0x0]                       
ram:0007b28a    9df80010        ldrb.w      param_2,[sp,#0x0]=>local_18             
ram:0007b28e    01b1            cbz         param_2,LAB_0007b292                    
ram:0007b290    0121            movs        param_2,#0x1                            
                            LAB_0007b292:                 ;XREF[1,0]:   0007b28e
ram:0007b292    2954            strb        param_2,[r5,param_1]                    
ram:0007b294    2088            ldrh        param_1,[r4,#0x0]                       
ram:0007b296    401c            adds        param_1,param_1,#0x1                    
ram:0007b298    2080            strh        param_1,[r4,#0x0]                       
ram:0007b29a    0020            movs        param_1,#0x0                            
ram:0007b29c    7cbd            pop         {param_3,param_4,r4,r5,r6,pc}           
ram:0007b29e    0000            movs        r0,r0                                   
                            ;************************************************************************************************
                            ;*                                           FUNCTION                                           *
                            ;************************************************************************************************
                            ;undefined8 FUN_0007b2a0(ushort * param_1, undefined * param_2)
          ;param_1       ushort *            r0                      
          ;param_2       undefined *         r1                      
          ;local_18      undefined2         -18                      ;XREF[3,0]:   0007b2cc,0007b2da,0007b2e2
          ;local_1c      undefined4         -1c                      ;XREF[1,0]:   0007b2ea
          ;local_20      undefined4         -20                      ;XREF[2,0]:   0007b2e8,0007b2f4
          ;local_24      undefined4         -24                      ;XREF[2,0]:   0007b2e6,0007b2fc
          ;local_28      undefined4         -28                      ;XREF[2,1]:   0007b2de,0007b2ee,0007b2f8
                                                          ;XREF[1,0]:   0007d07a
ram:0007b2a0    f0b5            push        {r4,r5,r6,r7,lr}                        
ram:0007b2a2    85b0            sub         sp,#0x14                                
ram:0007b2a4    0a46            mov         r2,param_2                              
ram:0007b2a6    0500            movs        r5,param_1                              
ram:0007b2a8    2fd0            beq         LAB_0007b30a                            
ram:0007b2aa    2888            ldrh        param_1,[r5,#0x0]                       
ram:0007b2ac    a0f57f41        sub.w       param_2,param_1,#0xff00                 
ram:0007b2b0    ff39            subs        param_2,#0xff                           
ram:0007b2b2    2cd0            beq         LAB_0007b30e                            
ram:0007b2b4    1748            ldr         param_1,[DAT_0007b314]                  ;= 20002C14h
ram:0007b2b6    0078            ldrb        param_1,[param_1,#0x0]=>DAT_20002c14    
ram:0007b2b8    48b3            cbz         param_1,LAB_0007b30e                    
ram:0007b2ba    164c            ldr         r4,[DAT_0007b314]                       ;= 20002C14h
ram:0007b2bc    1020            movs        param_1,#0x10                           
ram:0007b2be    641c            adds        r4,r4,#0x1                              
ram:0007b2c0    0127            movs        r7,#0x1                                 
ram:0007b2c2    2070            strb        param_1,[r4,#0x0]=>DAT_20002c15         
ram:0007b2c4    0720            movs        param_1,#0x7                            
ram:0007b2c6    6070            strb        param_1,[r4,#0x1]=>DAT_20002c16         
ram:0007b2c8    a770            strb        r7,[r4,#0x2]=>DAT_20002c17              
ram:0007b2ca    0320            movs        param_1,#0x3                            
ram:0007b2cc    adf81000        strh.w      param_1,[sp,#local_18+0x28]             
ram:0007b2d0    0026            movs        r6,#0x0                                 
ram:0007b2d2    e11c            adds        param_2,r4,#0x3                         
ram:0007b2d4    1046            mov         param_1,r2                              
ram:0007b2d6    02f0b2f9        bl          FUN_0007d63e                            ;undefined4 FUN_0007d63e(undefined4 p...
ram:0007b2da    bdf81010        ldrh.w      param_2,[sp,#local_18+0x28]             
ram:0007b2de    0096            str         r6,[sp,#0x0]=>local_28                  
ram:0007b2e0    0844            add         param_1,param_2                         
ram:0007b2e2    adf81000        strh.w      param_1,[sp,#local_18+0x28]             
ram:0007b2e6    0196            str         r6,[sp,#local_24+0x28]                  
ram:0007b2e8    0296            str         r6,[sp,#local_20+0x28]                  
ram:0007b2ea    0396            str         r6,[sp,#local_1c+0x28]                  
ram:0007b2ec    288a            ldrh        param_1,[r5,#0x10]                      
ram:0007b2ee    adf80000        strh.w      param_1,[sp,#0x0]=>local_28             
ram:0007b2f2    04a8            add         param_1,sp,#0x10                        
ram:0007b2f4    cde90204        strd        param_1,r4=>DAT_2000...,[sp,#local_20...
ram:0007b2f8    8df80270        strb.w      r7,[sp,#local_28+0x2a]                  
ram:0007b2fc    adf80460        strh.w      r6,[sp,#local_24+0x28]                  
ram:0007b300    2888            ldrh        param_1,[r5,#0x0]                       
ram:0007b302    6946            mov         param_2,sp                              
ram:0007b304    a6df            svc         0xa6                                    
                            LAB_0007b306:                 ;XREF[2,0]:   0007b30c,0007b310
ram:0007b306    05b0            add         sp,#0x14                                
ram:0007b308    f0bd            pop         {r4,r5,r6,r7,pc}                        
                            LAB_0007b30a:                 ;XREF[1,0]:   0007b2a8
ram:0007b30a    0e20            movs        param_1,#0xe                            
ram:0007b30c    fbe7            b           LAB_0007b306                            
                            LAB_0007b30e:                 ;XREF[2,0]:   0007b2b2,0007b2b8
ram:0007b30e    0820            movs        param_1,#0x8                            
ram:0007b310    f9e7            b           LAB_0007b306                            
ram:0007b312    0000            movs        r0,r0                                   
                            DAT_0007b314:                 ;XREF[2,0]:   0007b2b4,0007b2ba
ram:0007b314    142c0020        undefined4  20002C14h                               
                            ;************************************************************************************************
                            ;*                                           FUNCTION                                           *
                            ;************************************************************************************************
                            ;undefined8 FUN_0007b318(undefined2 * param_1, undefined * param_2)
          ;param_1       undefined2 *        r0                      
          ;param_2       undefined *         r1                      
          ;local_1c      undefined4         -1c                      ;XREF[1,0]:   0007b336
          ;local_1e      undefined1         -1e                      ;XREF[1,0]:   0007b358
          ;local_20      undefined2         -20                      ;XREF[1,0]:   0007b33e
                                                          ;XREF[1,0]:   0007c57c
ram:0007b318    30b5            push        {r4,r5,lr}                              
ram:0007b31a    85b0            sub         sp,#0x14                                
ram:0007b31c    0d46            mov         r5,param_2                              
ram:0007b31e    0400            movs        r4,param_1                              
ram:0007b320    39d0            beq         LAB_0007b396                            
ram:0007b322    bdb3            cbz         r5,LAB_0007b394                         
ram:0007b324    6868            ldr         param_1,[r5,#0x4]                       
ram:0007b326    a8b3            cbz         param_1,LAB_0007b394                    
ram:0007b328    1c4b            ldr         r3,[PTR_DAT_0007b39c]                   ;= 0007d824
ram:0007b32a    4ff6ff70        movw        param_1,#0xffff                         
ram:0007b32e    2080            strh        param_1,[r4,#0x0]                       
                                                          ; FWD[4,0]:   0007d824,0007d828,0007d82c,0007d830
ram:0007b330    0fcb            ldmia       r3,{param_1,param_2,r2,r3}=>DAT_0007d824;= EABCD123h
                                                                                    ;= 1523785Fh
                                                                                    ;= 1212EFDEh
ram:0007b332    0df1040c        add.w       r12,sp,#0x4                             
ram:0007b336    8ce80f00        stm         r12=>local_1c,{param_1,param_2,r2,r3}   
ram:0007b33a    41f23050        movw        param_1,#0x1530                         
ram:0007b33e    adf80000        strh.w      param_1,[sp,#0x0]=>local_20             
ram:0007b342    01a8            add         param_1,sp,#0x4                         
ram:0007b344    811e            subs        param_2,param_1,#0x2                    
ram:0007b346    63df            svc         0x63                                    
ram:0007b348    0028            cmp         param_1,#0x0                            
ram:0007b34a    21d1            bne         LAB_0007b390                            
ram:0007b34c    221d            adds        r2,r4,#0x4                              
ram:0007b34e    6946            mov         param_2,sp                              
ram:0007b350    0120            movs        param_1,#0x1                            
ram:0007b352    a0df            svc         0xa0                                    
ram:0007b354    0028            cmp         param_1,#0x0                            
ram:0007b356    1bd1            bne         LAB_0007b390                            
ram:0007b358    9df80200        ldrb.w      param_1,[sp,#local_1e+0x20]             
ram:0007b35c    a071            strb        param_1,[r4,#0x6]                       
ram:0007b35e    2046            mov         param_1,r4                              
ram:0007b360    00f08afe        bl          FUN_0007c078                            ;undefined8 FUN_0007c078(int param_1)
ram:0007b364    0028            cmp         param_1,#0x0                            
ram:0007b366    13d1            bne         LAB_0007b390                            
ram:0007b368    2046            mov         param_1,r4                              
ram:0007b36a    00f0defc        bl          FUN_0007bd2a                            ;undefined8 FUN_0007bd2a(int param_1)
ram:0007b36e    0028            cmp         param_1,#0x0                            
ram:0007b370    0ed1            bne         LAB_0007b390                            
ram:0007b372    2946            mov         param_2,r5                              
ram:0007b374    2046            mov         param_1,r4                              
ram:0007b376    00f009ff        bl          FUN_0007c18c                            ;undefined8 FUN_0007c18c(int param_1)
ram:0007b37a    0028            cmp         param_1,#0x0                            
ram:0007b37c    08d1            bne         LAB_0007b390                            
ram:0007b37e    6868            ldr         param_1,[r5,#0x4]                       
ram:0007b380    a062            str         param_1,[r4,#0x28]                      
ram:0007b382    a868            ldr         param_1,[r5,#0x8]                       
ram:0007b384    00b1            cbz         param_1,LAB_0007b388                    
ram:0007b386    e062            str         param_1,[r4,#0x2c]                      
                            LAB_0007b388:                 ;XREF[1,0]:   0007b384
ram:0007b388    0549            ldr         param_2,[DAT_0007b3a0]                  ;= 20002C14h
ram:0007b38a    0120            movs        param_1,#0x1                            
ram:0007b38c    0870            strb        param_1,[param_2,#0x0]=>DAT_20002c14    
ram:0007b38e    0020            movs        param_1,#0x0                            
                            LAB_0007b390:                 ;XREF[6,0]:   0007b34a,0007b356,0007b366,0007b370
                                                          ;             0007b37c,0007b398
ram:0007b390    05b0            add         sp,#0x14                                
ram:0007b392    30bd            pop         {r4,r5,pc}                              
                            LAB_0007b394:                 ;XREF[2,0]:   0007b322,0007b326
ram:0007b394    ffe7            b           LAB_0007b396                            
                            LAB_0007b396:                 ;XREF[2,0]:   0007b320,0007b394
ram:0007b396    0e20            movs        param_1,#0xe                            
ram:0007b398    fae7            b           LAB_0007b390                            
ram:0007b39a    0000            movs        r0,r0                                   
                            PTR_DAT_0007b39c:             ;XREF[1,0]:   0007b328
ram:0007b39c    24d80700        addr        DAT_0007d824                            ;= EABCD123h
                            DAT_0007b3a0:                 ;XREF[1,0]:   0007b388
ram:0007b3a0    142c0020        undefined4  20002C14h                               
                            ;************************************************************************************************
                            ;*                                           FUNCTION                                           *
                            ;************************************************************************************************
                            ;undefined FUN_0007b3a4(ushort * param_1, short * param_2, undefined4 param_3, uint param_4)
          ;param_1       ushort *            r0                      
          ;param_2       short *             r1                      
          ;param_3       undefined4          r2                      
          ;param_4       uint                r3                      
          ;local_10      undefined1         -10                      ;XREF[1,0]:   0007b418
          ;local_14      undefined4         -14                      ;XREF[1,0]:   0007b41c
          ;local_18      undefined1         -18                      ;XREF[1,0]:   0007b410
                                                          ;XREF[1,0]:   0007b50c
ram:0007b3a4    3eb5            push        {param_2,param_3,param_4,r4,r5,lr}      
ram:0007b3a6    0028            cmp         param_1,#0x0                            
ram:0007b3a8    3cd0            beq         LAB_0007b424                            
ram:0007b3aa    0029            cmp         param_2,#0x0                            
ram:0007b3ac    3ad0            beq         LAB_0007b424                            
ram:0007b3ae    826a            ldr         param_3,[param_1,#0x28]                 
ram:0007b3b0    002a            cmp         param_3,#0x0                            
ram:0007b3b2    37d0            beq         LAB_0007b424                            
ram:0007b3b4    0a88            ldrh        param_3,[param_2,#0x0]                  
ram:0007b3b6    102a            cmp         param_3,#0x10                           
ram:0007b3b8    23d0            beq         LAB_0007b402                            
ram:0007b3ba    112a            cmp         param_3,#0x11                           
ram:0007b3bc    33d0            beq         LAB_0007b426                            
ram:0007b3be    502a            cmp         param_3,#0x50                           
ram:0007b3c0    21d0            beq         LAB_0007b406                            
ram:0007b3c2    512a            cmp         param_3,#0x51                           
ram:0007b3c4    2ed1            bne         LAB_0007b424                            
ram:0007b3c6    0446            mov         r4,param_1                              
ram:0007b3c8    0a46            mov         param_3,param_2                         
ram:0007b3ca    11f8060f        ldrb.w      param_1,[param_2,#0x6]!                 
ram:0007b3ce    0228            cmp         param_1,#0x2                            
ram:0007b3d0    28d1            bne         LAB_0007b424                            
ram:0007b3d2    4888            ldrh        param_1,[param_2,#0x2]                  
ram:0007b3d4    238a            ldrh        param_4,[r4,#0x10]                      
ram:0007b3d6    9842            cmp         param_1,param_4                         
ram:0007b3d8    24d1            bne         LAB_0007b424                            
ram:0007b3da    907a            ldrb        param_1,[param_3,#0xa]                  
ram:0007b3dc    0428            cmp         param_1,#0x4                            
ram:0007b3de    21d0            beq         LAB_0007b424                            
ram:0007b3e0    0628            cmp         param_1,#0x6                            
ram:0007b3e2    1fd0            beq         LAB_0007b424                            
ram:0007b3e4    0528            cmp         param_1,#0x5                            
ram:0007b3e6    1dd0            beq         LAB_0007b424                            
ram:0007b3e8    2046            mov         param_1,r4                              
ram:0007b3ea    891c            adds        param_2,param_2,#0x2                    
ram:0007b3ec    01f064fd        bl          FUN_0007ceb8                            ;uint FUN_0007ceb8(ushort * param_1, ...
ram:0007b3f0    0028            cmp         param_1,#0x0                            
ram:0007b3f2    17d0            beq         LAB_0007b424                            
ram:0007b3f4    e16a            ldr         param_2,[r4,#0x2c]                      
ram:0007b3f6    0029            cmp         param_2,#0x0                            
ram:0007b3f8    14d0            beq         LAB_0007b424                            
ram:0007b3fa    03b0            add         sp,#0xc                                 
ram:0007b3fc    bde83040        pop.w       {r4,r5,lr}                              
ram:0007b400    0847            bx          param_2                                 
                            LAB_0007b402:                 ;XREF[1,0]:   0007b3b8
ram:0007b402    8988            ldrh        param_2,[param_2,#0x4]                  
ram:0007b404    11e0            b           LAB_0007b42a                            
                            LAB_0007b406:                 ;XREF[1,0]:   0007b3c0
ram:0007b406    ca88            ldrh        param_3,[param_2,#0x6]                  
ram:0007b408    0389            ldrh        param_4,[param_1,#0x8]                  
ram:0007b40a    9a42            cmp         param_3,param_4                         
ram:0007b40c    0ad1            bne         LAB_0007b424                            
ram:0007b40e    0822            movs        param_3,#0x8                            
ram:0007b410    8df80020        strb.w      param_3,[sp,#0x0]=>local_18             
ram:0007b414    8a7f            ldrb        param_3,[param_2,#0x1e]                 
ram:0007b416    2031            adds        param_2,#0x20                           
ram:0007b418    8df80820        strb.w      param_3,[sp,#local_10+0x18]             
ram:0007b41c    0191            str         param_2,[sp,#local_14+0x18]             
ram:0007b41e    826a            ldr         param_3,[param_1,#0x28]                 
ram:0007b420    6946            mov         param_2,sp                              
ram:0007b422    9047            blx         param_3                                 
                            LAB_0007b424:                 ;XREF[12,0]:  0007b3a8,0007b3ac,0007b3b2,0007b3c4
                                                          ;             0007b3d0,0007b3d8,0007b3de,0007b3e2
                                                          ;             0007b3e6,0007b3f2,0007b3f8,0007b40c
ram:0007b424    3ebd            pop         {param_2,param_3,param_4,r4,r5,pc}      
                            LAB_0007b426:                 ;XREF[1,0]:   0007b3bc
ram:0007b426    4ff6ff71        movw        param_2,#0xffff                         
                            LAB_0007b42a:                 ;XREF[1,0]:   0007b404
ram:0007b42a    0180            strh        param_2,[param_1,#0x0]                  
ram:0007b42c    3ebd            pop         {param_2,param_3,param_4,r4,r5,pc}      
ram:0007b42e    0000            movs        r0,r0                                   
                            ;************************************************************************************************
                            ;*                                           FUNCTION                                           *
                            ;************************************************************************************************
                            ;undefined8 FUN_0007b430(ushort * param_1, undefined * param_2)
          ;param_1       ushort *            r0                      
          ;param_2       undefined *         r1                      
          ;local_18      undefined2         -18                      ;XREF[3,0]:   0007b456,0007b462,0007b46a
          ;local_1c      undefined4         -1c                      ;XREF[1,0]:   0007b472
          ;local_20      undefined4         -20                      ;XREF[2,0]:   0007b470,0007b47c
          ;local_24      undefined4         -24                      ;XREF[2,0]:   0007b46e,0007b484
          ;local_28      undefined4         -28                      ;XREF[2,1]:   0007b466,0007b476,0007b480
                                                          ;XREF[1,0]:   0007ad46
ram:0007b430    f0b5            push        {r4,r5,r6,r7,lr}                        
ram:0007b432    85b0            sub         sp,#0x14                                
ram:0007b434    0a46            mov         r2,param_2                              
ram:0007b436    0500            movs        r5,param_1                              
ram:0007b438    2bd0            beq         LAB_0007b492                            
ram:0007b43a    2888            ldrh        param_1,[r5,#0x0]                       
ram:0007b43c    a0f57f41        sub.w       param_2,param_1,#0xff00                 
ram:0007b440    ff39            subs        param_2,#0xff                           
ram:0007b442    28d0            beq         LAB_0007b496                            
ram:0007b444    1548            ldr         param_1,[DAT_0007b49c]                  ;= 20002C14h
ram:0007b446    0078            ldrb        param_1,[param_1,#0x0]=>DAT_20002c14    
ram:0007b448    28b3            cbz         param_1,LAB_0007b496                    
ram:0007b44a    144c            ldr         r4,[DAT_0007b49c]                       ;= 20002C14h
ram:0007b44c    1120            movs        param_1,#0x11                           
ram:0007b44e    641c            adds        r4,r4,#0x1                              
ram:0007b450    0127            movs        r7,#0x1                                 
ram:0007b452    2070            strb        param_1,[r4,#0x0]=>DAT_20002c15         
ram:0007b454    0026            movs        r6,#0x0                                 
ram:0007b456    adf81070        strh.w      r7,[sp,#local_18+0x28]                  
ram:0007b45a    611c            adds        param_2=>DAT_20002c16,r4,#0x1           
ram:0007b45c    1046            mov         param_1,r2                              
ram:0007b45e    02f0eef8        bl          FUN_0007d63e                            ;undefined4 FUN_0007d63e(undefined4 p...
ram:0007b462    bdf81010        ldrh.w      param_2,[sp,#local_18+0x28]             
ram:0007b466    0096            str         r6,[sp,#0x0]=>local_28                  
ram:0007b468    0844            add         param_1,param_2                         
ram:0007b46a    adf81000        strh.w      param_1,[sp,#local_18+0x28]             
ram:0007b46e    0196            str         r6,[sp,#local_24+0x28]                  
ram:0007b470    0296            str         r6,[sp,#local_20+0x28]                  
ram:0007b472    0396            str         r6,[sp,#local_1c+0x28]                  
ram:0007b474    288a            ldrh        param_1,[r5,#0x10]                      
ram:0007b476    adf80000        strh.w      param_1,[sp,#0x0]=>local_28             
ram:0007b47a    04a8            add         param_1,sp,#0x10                        
ram:0007b47c    cde90204        strd        param_1,r4=>DAT_2000...,[sp,#local_20...
ram:0007b480    8df80270        strb.w      r7,[sp,#local_28+0x2a]                  
ram:0007b484    adf80460        strh.w      r6,[sp,#local_24+0x28]                  
ram:0007b488    2888            ldrh        param_1,[r5,#0x0]                       
ram:0007b48a    6946            mov         param_2,sp                              
ram:0007b48c    a6df            svc         0xa6                                    
                            LAB_0007b48e:                 ;XREF[2,0]:   0007b494,0007b498
ram:0007b48e    05b0            add         sp,#0x14                                
ram:0007b490    f0bd            pop         {r4,r5,r6,r7,pc}                        
                            LAB_0007b492:                 ;XREF[1,0]:   0007b438
ram:0007b492    0e20            movs        param_1,#0xe                            
ram:0007b494    fbe7            b           LAB_0007b48e                            
                            LAB_0007b496:                 ;XREF[2,0]:   0007b442,0007b448
ram:0007b496    0820            movs        param_1,#0x8                            
ram:0007b498    f9e7            b           LAB_0007b48e                            
ram:0007b49a    0000            movs        r0,r0                                   
                            DAT_0007b49c:                 ;XREF[2,0]:   0007b444,0007b44a
ram:0007b49c    142c0020        undefined4  20002C14h                               
                            ;************************************************************************************************
                            ;*                                           FUNCTION                                           *
                            ;************************************************************************************************
                            ;undefined8 FUN_0007b4a0(ushort * param_1, undefined * param_2, char param_3)
          ;param_1       ushort *            r0                      
          ;param_2       undefined *         r1                      
          ;param_3       char                r2                      
          ;local_10      undefined2         -10                      ;XREF[1,0]:   0007b4c8
          ;local_14      undefined4         -14                      ;XREF[1,0]:   0007b4d2
          ;local_18      undefined4         -18                      ;XREF[2,0]:   0007b4d0,0007b4dc
          ;local_1c      undefined4         -1c                      ;XREF[2,0]:   0007b4ce,0007b4e4
          ;local_20      undefined4         -20                      ;XREF[2,1]:   0007b4cc,0007b4d6,0007b4e0
                                                          ;XREF[7,0]:   0007aca4,0007bcaa,0007be48,0007c7e4
                                                          ;             0007cf8c,0007d026,0007d4d2
ram:0007b4a0    30b5            push        {r4,r5,lr}                              
ram:0007b4a2    85b0            sub         sp,#0x14                                
ram:0007b4a4    28b3            cbz         param_1,LAB_0007b4f2                    
ram:0007b4a6    0388            ldrh        r3,[param_1,#0x0]                       
ram:0007b4a8    a3f57f44        sub.w       r4,r3,#0xff00                           
ram:0007b4ac    ff3c            subs        r4,#0xff                                
ram:0007b4ae    22d0            beq         LAB_0007b4f6                            
ram:0007b4b0    124b            ldr         r3,[DAT_0007b4fc]                       ;= 20002C14h
ram:0007b4b2    1b78            ldrb        r3,[r3,#0x0]=>DAT_20002c14              
ram:0007b4b4    fbb1            cbz         r3,LAB_0007b4f6                         
ram:0007b4b6    114b            ldr         r3,[DAT_0007b4fc]                       ;= 20002C14h
ram:0007b4b8    1025            movs        r5,#0x10                                
ram:0007b4ba    5b1c            adds        r3,r3,#0x1                              
ram:0007b4bc    0024            movs        r4,#0x0                                 
ram:0007b4be    1d70            strb        r5,[r3,#0x0]=>DAT_20002c15              
ram:0007b4c0    5970            strb        param_2,[r3,#0x1]=>DAT_20002c16         
ram:0007b4c2    9a70            strb        param_3,[r3,#0x2]=>DAT_20002c17         
ram:0007b4c4    0125            movs        r5,#0x1                                 
ram:0007b4c6    0321            movs        param_2,#0x3                            
ram:0007b4c8    adf81010        strh.w      param_2,[sp,#local_10+0x20]             
ram:0007b4cc    0094            str         r4,[sp,#0x0]=>local_20                  
ram:0007b4ce    0194            str         r4,[sp,#local_1c+0x20]                  
ram:0007b4d0    0294            str         r4,[sp,#local_18+0x20]                  
ram:0007b4d2    0394            str         r4,[sp,#local_14+0x20]                  
ram:0007b4d4    018a            ldrh        param_2,[param_1,#0x10]                 
ram:0007b4d6    adf80010        strh.w      param_2,[sp,#0x0]=>local_20             
ram:0007b4da    04a9            add         param_2,sp,#0x10                        
ram:0007b4dc    cde90213        strd        param_2,r3=>DAT_2000...,[sp,#local_18...
ram:0007b4e0    8df80250        strb.w      r5,[sp,#local_20+0x22]                  
ram:0007b4e4    adf80440        strh.w      r4,[sp,#local_1c+0x20]                  
ram:0007b4e8    0088            ldrh        param_1,[param_1,#0x0]                  
ram:0007b4ea    6946            mov         param_2,sp                              
ram:0007b4ec    a6df            svc         0xa6                                    
                            LAB_0007b4ee:                 ;XREF[2,0]:   0007b4f4,0007b4f8
ram:0007b4ee    05b0            add         sp,#0x14                                
ram:0007b4f0    30bd            pop         {r4,r5,pc}                              
                            LAB_0007b4f2:                 ;XREF[1,0]:   0007b4a4
ram:0007b4f2    0e20            movs        param_1,#0xe                            
ram:0007b4f4    fbe7            b           LAB_0007b4ee                            
                            LAB_0007b4f6:                 ;XREF[2,0]:   0007b4ae,0007b4b4
ram:0007b4f6    0820            movs        param_1,#0x8                            
ram:0007b4f8    f9e7            b           LAB_0007b4ee                            
ram:0007b4fa    0000            movs        r0,r0                                   
                            DAT_0007b4fc:                 ;XREF[2,0]:   0007b4b0,0007b4b6
ram:0007b4fc    142c0020        undefined4  20002C14h                               
                            ;************************************************************************************************
                            ;*                                           FUNCTION                                           *
                            ;************************************************************************************************
                            ;undefined FUN_0007b500(ushort * param_1, undefined4 param_2, undefined4 param_3, uint param_4)
          ;param_1       ushort *            r0                      
          ;param_2       undefined4          r1                      
          ;param_3       undefined4          r2                      
          ;param_4       uint                r3                      
                                                          ;XREF[0,2]:   0007c4dc,0007c5ec
ram:0007b500    10b5            push        {r4,lr}                                 
ram:0007b502    0446            mov         r4,param_1                              
ram:0007b504    fff750fe        bl          FUN_0007b1a8                            ;undefined FUN_0007b1a8(short * param_1)
ram:0007b508    2146            mov         param_2,r4                              
ram:0007b50a    0448            ldr         param_1,[DAT_0007b51c]                  ;= 20003260h
ram:0007b50c    fff74aff        bl          FUN_0007b3a4                            ;undefined FUN_0007b3a4(ushort * para...
ram:0007b510    2046            mov         param_1,r4                              
ram:0007b512    bde81040        pop.w       {r4,lr}                                 
ram:0007b516    01f00dbc        b.w         FUN_0007cd34                            ;undefined FUN_0007cd34(ushort * para...
ram:0007b51a    00              ??          00h                                     
ram:0007b51b    00              ??          00h                                     
                            DAT_0007b51c:                 ;XREF[1,0]:   0007b50a
ram:0007b51c    60320020        undefined4  20003260h                               
                            ;************************************************************************************************
                            ;*                                           FUNCTION                                           *
                            ;************************************************************************************************
                            ;undefined FUN_0007b520(int param_1)
          ;param_1       int                 r0                      
          ;local_1c      undefined4         -1c                      ;XREF[1,0]:   0007b52c
          ;local_24      undefined1         -24                      ;XREF[1,0]:   0007b56c
                                                          ;XREF[2,0]:   0007cb00,0007cb20
ram:0007b520    10b5            push        {r4,lr}                                 
ram:0007b522    1b4a            ldr         r2,[PTR_DAT_0007b590]                   ;= 0007d810
ram:0007b524    8ab0            sub         sp,#0x28                                
ram:0007b526    0df1140c        add.w       r12,sp,#0x14                            
                                                          ; FWD[4,0]:   0007d810,0007d814,0007d818,0007d81c
ram:0007b52a    1eca            ldmia       r2,{r1,r2,r3,r4}=>DAT_0007d810          ;= 00000002h
ram:0007b52c    8ce81e00        stm         r12=>local_1c,{r1,r2,r3,r4}             
ram:0007b530    20b1            cbz         param_1,LAB_0007b53c                    
ram:0007b532    05a8            add         param_1,sp,#0x14                        
ram:0007b534    18df            svc         0x18                                    
ram:0007b536    08b1            cbz         param_1,LAB_0007b53c                    
ram:0007b538    fff722fc        bl          FUN_0007ad80                            ;undefined FUN_0007ad80(void)
                            LAB_0007b53c:                 ;XREF[2,0]:   0007b530,0007b536
ram:0007b53c    4ff4f420        mov.w       param_1=>MasterS...,#MasterStackPointer ;= 20005408
ram:0007b540    13df            svc         0x13                                    
ram:0007b542    08b1            cbz         param_1,LAB_0007b548                    
ram:0007b544    fff71cfc        bl          FUN_0007ad80                            ;undefined FUN_0007ad80(void)
                            LAB_0007b548:                 ;XREF[1,0]:   0007b542
ram:0007b548    124b            ldr         r3=>LAB_0007d3e4...,[PTR_LAB_0007d3e4...;= 0007d3e5
ram:0007b54a    4822            movs        r2,#0x48                                
ram:0007b54c    1249            ldr         r1,[DAT_0007b598]                       ;= 20002E9Ch
ram:0007b54e    0820            movs        param_1,#0x8                            
ram:0007b550    01f052ff        bl          FUN_0007d3f8                            ;undefined8 FUN_0007d3f8(int param_1,...
ram:0007b554    08b1            cbz         param_1,LAB_0007b55a                    
ram:0007b556    fff713fc        bl          FUN_0007ad80                            ;undefined FUN_0007ad80(void)
                            LAB_0007b55a:                 ;XREF[1,0]:   0007b554
ram:0007b55a    0121            movs        r1,#0x1                                 
ram:0007b55c    6a46            mov         r2,sp                                   
ram:0007b55e    0846            mov         param_1,r1                              
ram:0007b560    01f024ff        bl          FUN_0007d3ac                            ;undefined4 FUN_0007d3ac(int param_1,...
ram:0007b564    08b1            cbz         param_1,LAB_0007b56a                    
ram:0007b566    fff70bfc        bl          FUN_0007ad80                            ;undefined FUN_0007ad80(void)
                            LAB_0007b56a:                 ;XREF[1,0]:   0007b564
ram:0007b56a    0120            movs        param_1,#0x1                            
ram:0007b56c    8df80c00        strb.w      param_1,[sp,#local_24+0x30]             
ram:0007b570    6846            mov         param_1,sp                              
ram:0007b572    01f011ff        bl          FUN_0007d398                            ;undefined FUN_0007d398(void)
ram:0007b576    08b1            cbz         param_1,LAB_0007b57c                    
ram:0007b578    fff702fc        bl          FUN_0007ad80                            ;undefined FUN_0007ad80(void)
                            LAB_0007b57c:                 ;XREF[1,0]:   0007b576
ram:0007b57c    0748            ldr         param_1=>thunk_F...,[PTR_thunk_FUN_00...;= 0007d4e5
ram:0007b57e    01f067ff        bl          FUN_0007d450                            ;undefined4 FUN_0007d450(int param_1)
ram:0007b582    0028            cmp         param_1,#0x0                            
ram:0007b584    01d0            beq         LAB_0007b58a                            
ram:0007b586    fff7fbfb        bl          FUN_0007ad80                            ;undefined FUN_0007ad80(void)
                            LAB_0007b58a:                 ;XREF[1,0]:   0007b584
ram:0007b58a    0ab0            add         sp,#0x28                                
ram:0007b58c    10bd            pop         {r4,pc}                                 
ram:0007b58e    0000            movs        r0,r0                                   
                            PTR_DAT_0007b590:             ;XREF[1,0]:   0007b522
ram:0007b590    10d80700        addr        DAT_0007d810                            ;= 00000002h
                            PTR_LAB_0007d3e4+1+1_0007b594:;XREF[1,0]:   0007b548
ram:0007b594    e5d30700        addr        LAB_0007d3e4+1+1                        
                            DAT_0007b598:                 ;XREF[1,0]:   0007b54c
ram:0007b598    9c2e0020        undefined4  20002E9Ch                               
                            PTR_thunk_FUN_0007d1a0+1_00...;XREF[1,0]:   0007b57c
ram:0007b59c    e5d40700        addr        thunk_FUN_0007d1a0+1                    
                            ;************************************************************************************************
                            ;*                                           FUNCTION                                           *
                            ;************************************************************************************************
                            ;int FUN_0007b5a0(int * param_1, undefined4 param_2, undefined4 param_3, char * param_4)
          ;param_1       int *               r0                      
          ;param_2       undefined4          r1                      
          ;param_3       undefined4          r2                      
          ;param_4       char *              r3                      
          ;local_10      undefined4         -10                      ;XREF[2,0]:   0007b5b0,0007b5ca
                                                          ;XREF[2,0]:   0007cb48,0007cb5e
ram:0007b5a0    38b5            push        {param_4,r4,r5,lr}                      
ram:0007b5a2    0068            ldr         param_1,[param_1,#0x0]                  
ram:0007b5a4    401c            adds        param_1,param_1,#0x1                    
ram:0007b5a6    18d0            beq         LAB_0007b5da                            
ram:0007b5a8    0024            movs        r4,#0x0                                 
ram:0007b5aa    6846            mov         param_1,sp                              
ram:0007b5ac    00f048f9        bl          FUN_0007b840                            ;undefined FUN_0007b840(undefined4 * ...
ram:0007b5b0    0098            ldr         param_1,[sp,#0x0]=>local_10             
ram:0007b5b2    0178            ldrb        param_2,[param_1,#0x0]                  
ram:0007b5b4    0129            cmp         param_2,#0x1                            
ram:0007b5b6    0fd1            bne         LAB_0007b5d8                            
ram:0007b5b8    4188            ldrh        param_2,[param_1,#0x2]                  
ram:0007b5ba    51b1            cbz         param_2,LAB_0007b5d2                    
ram:0007b5bc    8168            ldr         param_2,[param_1,#0x8]                  
ram:0007b5be    4ff44050        mov.w       param_1,#0x3000                         
ram:0007b5c2    0022            movs        param_3,#0x0                            
ram:0007b5c4    8068            ldr         param_1,[param_1,#offset DAT_00003008...
ram:0007b5c6    00f07bfa        bl          FUN_0007bac0                            ;uint FUN_0007bac0(int param_1, uint ...
ram:0007b5ca    0099            ldr         param_2,[sp,#0x0]=>local_10             
ram:0007b5cc    4988            ldrh        param_2,[param_2,#0x2]                  
ram:0007b5ce    8142            cmp         param_2,param_1                         
ram:0007b5d0    01d1            bne         LAB_0007b5d6                            
                            LAB_0007b5d2:                 ;XREF[1,0]:   0007b5ba
ram:0007b5d2    0124            movs        r4,#0x1                                 
ram:0007b5d4    00e0            b           LAB_0007b5d8                            
                            LAB_0007b5d6:                 ;XREF[1,0]:   0007b5d0
ram:0007b5d6    0024            movs        r4,#0x0                                 
                            LAB_0007b5d8:                 ;XREF[2,0]:   0007b5b6,0007b5d4
ram:0007b5d8    2046            mov         param_1,r4                              
                            LAB_0007b5da:                 ;XREF[1,0]:   0007b5a6
ram:0007b5da    38bd            pop         {param_4,r4,r5,pc}                      
                            ;************************************************************************************************
                            ;*                                           FUNCTION                                           *
                            ;************************************************************************************************
                            ;undefined FUN_0007b5dc(int param_1)
          ;param_1       int                 r0                      
                                                          ;XREF[1,0]:   0007cb6c
ram:0007b5dc    70b5            push        {r4,r5,r6,lr}                           
ram:0007b5de    11df            svc         0x11                                    
ram:0007b5e0    08b1            cbz         param_1,LAB_0007b5e6                    
ram:0007b5e2    fff7cdfb        bl          FUN_0007ad80                            ;undefined FUN_0007ad80(void)
                            LAB_0007b5e6:                 ;XREF[1,0]:   0007b5e0
ram:0007b5e6    4ff0e021        mov.w       r1,#0xe000e000                          
ram:0007b5ea    0020            movs        param_1,#0x0                            
ram:0007b5ec    d1f80031        ldr.w       r3,[r1,#0x100]=>DAT_e000e100            
ram:0007b5f0    5ff00104        movs.w      r4,#0x1                                 
                            LAB_0007b5f4:                 ;XREF[1,0]:   0007b616
ram:0007b5f4    04fa00f2        lsl.w       r2,r4,param_1                           
ram:0007b5f8    1a42            tst         r2,r3                                   
ram:0007b5fa    0ad0            beq         LAB_0007b612                            
ram:0007b5fc    42b2            sxtb        r2,param_1                              
ram:0007b5fe    02f01f05        and         r5,r2,#0x1f                             
ram:0007b602    04fa05f1        lsl.w       r1,r4,r5                                
ram:0007b606    5209            lsrs        r2,r2,#0x5                              
ram:0007b608    9200            lsls        r2,r2,#0x2                              
ram:0007b60a    02f1e022        add.w       r2,r2,#0xe000e000                       
ram:0007b60e    c2f88011        str.w       r1,[r2,#0x180]=>DAT_e000e180            
                            LAB_0007b612:                 ;XREF[1,0]:   0007b5fa
ram:0007b612    401c            adds        param_1,param_1,#0x1                    
ram:0007b614    2028            cmp         param_1,#0x20                           
ram:0007b616    edd3            bcc         LAB_0007b5f4                            
ram:0007b618    4ff44054        mov.w       r4,#0x3000                              
ram:0007b61c    a068            ldr         param_1,[r4,#offset DAT_00003008 &0xff] 
ram:0007b61e    13df            svc         0x13                                    
ram:0007b620    08b1            cbz         param_1,LAB_0007b626                    
ram:0007b622    fff7adfb        bl          FUN_0007ad80                            ;undefined FUN_0007ad80(void)
                            LAB_0007b626:                 ;XREF[1,0]:   0007b620
ram:0007b626    a068            ldr         param_1,[r4,#offset DAT_00003008 &0xff] 
ram:0007b628    bde87040        pop.w       {r4,r5,r6,lr}                           
ram:0007b62c    00f006b9        b.w         LAB_0007b83c                            
                            ;************************************************************************************************
                            ;*                                           FUNCTION                                           *
                            ;************************************************************************************************
                            ;undefined4 FUN_0007b630(void)
          ;local_8       undefined4          -8                      ;XREF[1,0]:   0007b638
                                                          ;XREF[2,0]:   0007cae2,0007cb64
ram:0007b630    08b5            push        {r3,lr}                                 
ram:0007b632    6846            mov         r0,sp                                   
ram:0007b634    00f004f9        bl          FUN_0007b840                            ;undefined FUN_0007b840(undefined4 * ...
ram:0007b638    0098            ldr         r0,[sp,#0x0]=>local_8                   
ram:0007b63a    0178            ldrb        r1,[r0,#0x0]                            
ram:0007b63c    a529            cmp         r1,#0xa5                                
ram:0007b63e    04d0            beq         LAB_0007b64a                            
ram:0007b640    0079            ldrb        r0,[r0,#0x4]                            
ram:0007b642    aa28            cmp         r0,#0xaa                                
ram:0007b644    01d0            beq         LAB_0007b64a                            
ram:0007b646    0020            movs        r0,#0x0                                 
ram:0007b648    08bd            pop         {r3,pc}                                 
                            LAB_0007b64a:                 ;XREF[2,0]:   0007b63e,0007b644
ram:0007b64a    0120            movs        r0,#0x1                                 
ram:0007b64c    08bd            pop         {r3,pc}                                 
                            ;************************************************************************************************
                            ;*                                           FUNCTION                                           *
                            ;************************************************************************************************
                            ;undefined * FUN_0007b64e(undefined4 param_1, undefined4 param_2, undefined4 param_3, undefined * param_4)
          ;param_1       undefined4          r0                      
          ;param_2       undefined4          r1                      
          ;param_3       undefined4          r2                      
          ;param_4       undefined *         r3                      
                                                          ;XREF[1,0]:   0007caf2
ram:0007b64e    10b5            push        {r4,lr}                                 
ram:0007b650    00f028fe        bl          FUN_0007c2a4                            ;undefined * FUN_0007c2a4(undefined4 ...
ram:0007b654    18b9            cbnz        param_1,LAB_0007b65e                    
ram:0007b656    00f0cafa        bl          FUN_0007bbee                            ;undefined * FUN_0007bbee(undefined4 ...
ram:0007b65a    0028            cmp         param_1,#0x0                            
ram:0007b65c    13d0            beq         LAB_0007b686                            
                            LAB_0007b65e:                 ;XREF[1,0]:   0007b654
ram:0007b65e    6420            movs        param_1,#0x64                           
ram:0007b660    01f020fb        bl          FUN_0007cca4                            ;undefined FUN_0007cca4(int param_1)
ram:0007b664    00f0e1fd        bl          FUN_0007c22a                            ;undefined FUN_0007c22a(undefined4 pa...
ram:0007b668    08b1            cbz         param_1,LAB_0007b66e                    
ram:0007b66a    fff789fb        bl          FUN_0007ad80                            ;undefined FUN_0007ad80(void)
                            LAB_0007b66e:                 ;XREF[1,0]:   0007b668
ram:0007b66e    00f019fe        bl          FUN_0007c2a4                            ;undefined * FUN_0007c2a4(undefined4 ...
ram:0007b672    08b1            cbz         param_1,LAB_0007b678                    
ram:0007b674    fff784fb        bl          FUN_0007ad80                            ;undefined FUN_0007ad80(void)
                            LAB_0007b678:                 ;XREF[1,0]:   0007b672
ram:0007b678    00f09afa        bl          FUN_0007bbb0                            ;undefined * FUN_0007bbb0(undefined4 ...
ram:0007b67c    0400            movs        r4,param_1                              
ram:0007b67e    01d0            beq         LAB_0007b684                            
ram:0007b680    fff77efb        bl          FUN_0007ad80                            ;undefined FUN_0007ad80(void)
                            LAB_0007b684:                 ;XREF[1,0]:   0007b67e
ram:0007b684    2046            mov         param_1,r4                              
                            LAB_0007b686:                 ;XREF[1,0]:   0007b65c
ram:0007b686    10bd            pop         {r4,pc}                                 
                            ;************************************************************************************************
                            ;*                                           FUNCTION                                           *
                            ;************************************************************************************************
                            ;undefined4 FUN_0007b688(void)
          ;local_c       undefined4          -c                      ;XREF[1,0]:   0007b696
          ;local_1c      undefined4         -1c                      ;XREF[1,0]:   0007b69e
          ;local_20      undefined4         -20                      ;XREF[1,0]:   0007b69c
                                                          ;XREF[1,0]:   0007cb08
ram:0007b688    00b5            push        {lr}                                    
ram:0007b68a    87b0            sub         sp,#0x1c                                
ram:0007b68c    1422            movs        r2,#0x14                                
ram:0007b68e    0849            ldr         r1=>DAT_0007d840,[PTR_DAT_0007b6b0]     ;= 02h
                                                                                    ;= 0007d840
ram:0007b690    01a8            add         r0,sp,#0x4                              
ram:0007b692    fef773ff        bl          FUN_0007a57c                            ;undefined FUN_0007a57c(undefined4 * ...
ram:0007b696    0598            ldr         r0,[sp,#local_c+0x20]                   
ram:0007b698    0df1040c        add.w       r12,sp,#0x4                             
ram:0007b69c    0090            str         r0,[sp,#0x0]=>local_20                  
ram:0007b69e    9ce80f00        ldm.w       r12=>local_1c,{r0,r1,r2,r3}             
ram:0007b6a2    00f013f8        bl          FUN_0007b6cc                            ;undefined FUN_0007b6cc(uint param_1,...
ram:0007b6a6    02f0a1f8        bl          FUN_0007d7ec                            ;undefined FUN_0007d7ec(uint param_1,...
ram:0007b6aa    07b0            add         sp,#0x1c                                
ram:0007b6ac    0020            movs        r0,#0x0                                 
ram:0007b6ae    00bd            pop         {pc}                                    
                            PTR_DAT_0007b6b0:             ;XREF[1,0]:   0007b68e
ram:0007b6b0    40d80700        addr        DAT_0007d840                            ;= 02h
                            ;************************************************************************************************
                            ;*                                           FUNCTION                                           *
                            ;************************************************************************************************
                            ;uint FUN_0007b6b4(undefined4 param_1, undefined4 param_2, uint param_3, undefined * param_4)
          ;param_1       undefined4          r0                      
          ;param_2       undefined4          r1                      
          ;param_3       uint                r2                      
          ;param_4       undefined *         r3                      
                                                          ;XREF[1,0]:   0007cb50
ram:0007b6b4    10b5            push        {r4,lr}                                 
ram:0007b6b6    00f009fc        bl          FUN_0007becc                            ;longlong FUN_0007becc(void)
ram:0007b6ba    0028            cmp         param_1,#0x0                            
ram:0007b6bc    05d1            bne         LAB_0007b6ca                            
ram:0007b6be    00f0fbfe        bl          FUN_0007c4b8                            ;int FUN_0007c4b8(void)
ram:0007b6c2    0446            mov         r4,param_1                              
ram:0007b6c4    02f092f8        bl          FUN_0007d7ec                            ;undefined FUN_0007d7ec(uint param_1,...
ram:0007b6c8    2046            mov         param_1,r4                              
                            LAB_0007b6ca:                 ;XREF[1,0]:   0007b6bc
ram:0007b6ca    10bd            pop         {r4,pc}                                 
                            ;************************************************************************************************
                            ;*                                           FUNCTION                                           *
                            ;************************************************************************************************
                            ;undefined FUN_0007b6cc(uint param_1, int param_2, int param_3, char * param_4, undefined4 param_5)
          ;param_1       uint                r0                      
          ;param_2       int                 r1                      
          ;param_3       int                 r2                      
          ;param_4       char *              r3                      
          ;param_5       undefined4           0                      ;XREF[1,0]:   0007b6da
          ;local_20      undefined4         -20                      ;XREF[3,0]:   0007b748,0007b762,0007b7a0
                                                          ;XREF[8,0]:   0007b6a2,0007bb48,0007bb72,0007bba0
                                                          ;             0007bcee,0007c186,0007c428,0007ce5c
ram:0007b6cc    2de9f843        push        {param_4,r4,r5,r6,r7,r8,r9,lr}          
ram:0007b6d0    0446            mov         r4,param_1                              
ram:0007b6d2    0e46            mov         r6,param_2                              
ram:0007b6d4    1746            mov         r7,param_3                              
ram:0007b6d6    1d46            mov         r5,param_4                              
ram:0007b6d8    6846            mov         param_1,sp                              
ram:0007b6da    ddf82080        ldr.w       r8,[sp,#param_5+0x20]                   
ram:0007b6de    00f0aff8        bl          FUN_0007b840                            ;undefined FUN_0007b840(undefined4 * ...
ram:0007b6e2    14f0ff02        ands        param_3,r4,#0xff                        
ram:0007b6e6    4fea1441        lsr.w       param_2,r4,#0x10                        
ram:0007b6ea    2f4c            ldr         r4,[DAT_0007b7a8]                       ;= 20002C5Ch
ram:0007b6ec    2f48            ldr         param_1=>DAT_20003164,[DAT_0007b7ac]    ;= 20003164h
ram:0007b6ee    4ff00103        mov.w       param_4,#0x1                            
ram:0007b6f2    4ff0ff0c        mov.w       r12,#0xff                               
ram:0007b6f6    10d0            beq         LAB_0007b71a                            
ram:0007b6f8    012a            cmp         param_3,#0x1                            
ram:0007b6fa    14d0            beq         LAB_0007b726                            
ram:0007b6fc    032a            cmp         param_3,#0x3                            
ram:0007b6fe    23d0            beq         LAB_0007b748                            
ram:0007b700    0021            movs        param_2,#0x0                            
ram:0007b702    022a            cmp         param_3,#0x2                            
ram:0007b704    2dd0            beq         LAB_0007b762                            
ram:0007b706    052a            cmp         param_3,#0x5                            
ram:0007b708    3fd0            beq         LAB_0007b78a                            
ram:0007b70a    042a            cmp         param_3,#0x4                            
ram:0007b70c    44d0            beq         LAB_0007b798                            
ram:0007b70e    062a            cmp         param_3,#0x6                            
ram:0007b710    01d1            bne         LAB_0007b716                            
ram:0007b712    0420            movs        param_1,#0x4                            
                            LAB_0007b714:                 ;XREF[1,0]:   0007b796
ram:0007b714    2070            strb        param_1,[r4,#0x0]=>DAT_20002c5c         
                            LAB_0007b716:                 ;XREF[2,0]:   0007b710,0007b746
ram:0007b716    bde8f883        pop.w       {param_4,r4,r5,r6,r7,r8,r9,pc}          
                            LAB_0007b71a:                 ;XREF[1,0]:   0007b6f6
ram:0007b71a    4180            strh        param_2,[param_1,#0x2]=>DAT_20003166    
ram:0007b71c    8560            str         r5,[param_1,#0x8]=>DAT_2000316c         
ram:0007b71e    0370            strb        param_4,[param_1,#0x0]=>DAT_20003164    
ram:0007b720    80f804c0        strb.w      r12,[param_1,#0x4]=>DAT_20003168        
ram:0007b724    0be0            b           LAB_0007b73e                            
                            LAB_0007b726:                 ;XREF[1,0]:   0007b6fa
ram:0007b726    4180            strh        param_2,[param_1,#0x2]=>DAT_20003166    
ram:0007b728    f119            adds        param_2,r6,r7                           
ram:0007b72a    2944            add         param_2,r5                              
ram:0007b72c    8160            str         param_2,[param_1,#0x8]=>DAT_2000316c    
ram:0007b72e    a521            movs        param_2,#0xa5                           
ram:0007b730    0170            strb        param_2,[param_1,#0x0]=>DAT_20003164    
ram:0007b732    80f804c0        strb.w      r12,[param_1,#0x4]=>DAT_20003168        
ram:0007b736    c0f81880        str.w       r8,[param_1,#0x18]=>DAT_2000317c        
ram:0007b73a    c660            str         r6,[param_1,#0xc]=>DAT_20003170         
ram:0007b73c    0ee0            b           LAB_0007b75c                            
                            LAB_0007b73e:                 ;XREF[3,0]:   0007b724,0007b760,0007b77e
ram:0007b73e    2370            strb        param_4,[r4,#0x0]=>DAT_20002c5c         
                            LAB_0007b740:                 ;XREF[1,0]:   0007b7a6
ram:0007b740    1a48            ldr         param_1=>DAT_20003164,[DAT_0007b7ac]    ;= 20003164h
ram:0007b742    00f063f8        bl          FUN_0007b80c                            ;undefined FUN_0007b80c(uint param_1)
ram:0007b746    e6e7            b           LAB_0007b716                            
                            LAB_0007b748:                 ;XREF[1,0]:   0007b6fe
ram:0007b748    0099            ldr         param_2,[sp,#0x0]=>local_20             
ram:0007b74a    0a78            ldrb        param_3,[param_2,#0x0]                  
ram:0007b74c    0270            strb        param_3,[param_1,#0x0]=>DAT_20003164    
ram:0007b74e    4a88            ldrh        param_3,[param_2,#0x2]                  
ram:0007b750    4280            strh        param_3,[param_1,#0x2]=>DAT_20003166    
ram:0007b752    8968            ldr         param_2,[param_2,#0x8]                  
ram:0007b754    8160            str         param_2,[param_1,#0x8]=>DAT_2000316c    
ram:0007b756    aa21            movs        param_2,#0xaa                           
ram:0007b758    0171            strb        param_2,[param_1,#0x4]=>DAT_20003168    
ram:0007b75a    c660            str         r6,[param_1,#0xc]=>DAT_20003170         
                            LAB_0007b75c:                 ;XREF[1,0]:   0007b73c
                                                          ; FWD[2,0]:   20003174,20003178
ram:0007b75c    c0e90475        strd        r7,r5,[param_1,#0x10]=>DAT_20003174     
ram:0007b760    ede7            b           LAB_0007b73e                            
                            LAB_0007b762:                 ;XREF[1,0]:   0007b704
ram:0007b762    009a            ldr         param_3,[sp,#0x0]=>local_20             
ram:0007b764    1578            ldrb        r5,[param_3,#0x0]                       
ram:0007b766    a52d            cmp         r5,#0xa5                                
ram:0007b768    0ad0            beq         LAB_0007b780                            
ram:0007b76a    0570            strb        r5,[param_1,#0x0]=>DAT_20003164         
ram:0007b76c    5588            ldrh        r5,[param_3,#0x2]                       
ram:0007b76e    4580            strh        r5,[param_1,#0x2]=>DAT_20003166         
ram:0007b770    9268            ldr         param_3,[param_3,#0x8]                  
ram:0007b772    8260            str         param_3,[param_1,#0x8]=>DAT_2000316c    
                            LAB_0007b774:                 ;XREF[1,0]:   0007b788
ram:0007b774    80f804c0        strb.w      r12,[param_1,#0x4]=>DAT_20003168        
ram:0007b778    c160            str         param_2,[param_1,#0xc]=>DAT_20003170    
ram:0007b77a    0161            str         param_2,[param_1,#0x10]=>DAT_20003174   
ram:0007b77c    4161            str         param_2,[param_1,#0x14]=>DAT_20003178   
ram:0007b77e    dee7            b           LAB_0007b73e                            
                            LAB_0007b780:                 ;XREF[1,0]:   0007b768
ram:0007b780    4180            strh        param_2,[param_1,#0x2]=>DAT_20003166    
ram:0007b782    8160            str         param_2,[param_1,#0x8]=>DAT_2000316c    
ram:0007b784    80f800c0        strb.w      r12,[param_1,#0x0]=>DAT_20003164        
ram:0007b788    f4e7            b           LAB_0007b774                            
                            LAB_0007b78a:                 ;XREF[1,0]:   0007b708
ram:0007b78a    00f071fe        bl          FUN_0007c470                            ;undefined4 FUN_0007c470(undefined4 p...
ram:0007b78e    08b1            cbz         param_1,LAB_0007b794                    
ram:0007b790    fff7f6fa        bl          FUN_0007ad80                            ;undefined FUN_0007ad80(void)
                            LAB_0007b794:                 ;XREF[1,0]:   0007b78e
ram:0007b794    0320            movs        param_1,#0x3                            
ram:0007b796    bde7            b           LAB_0007b714                            
                            LAB_0007b798:                 ;XREF[1,0]:   0007b70c
ram:0007b798    4180            strh        param_2,[param_1,#0x2]=>DAT_20003166    
ram:0007b79a    8160            str         param_2,[param_1,#0x8]=>DAT_2000316c    
ram:0007b79c    80f800c0        strb.w      r12,[param_1,#0x0]=>DAT_20003164        
ram:0007b7a0    0099            ldr         param_2,[sp,#0x0]=>local_20             
ram:0007b7a2    0979            ldrb        param_2,[param_2,#0x4]                  
ram:0007b7a4    0171            strb        param_2,[param_1,#0x4]=>DAT_20003168    
ram:0007b7a6    cbe7            b           LAB_0007b740                            
                            DAT_0007b7a8:                 ;XREF[1,0]:   0007b6ea
ram:0007b7a8    5c2c0020        undefined4  20002C5Ch                               
                            DAT_0007b7ac:                 ;XREF[2,0]:   0007b6ec,0007b740
ram:0007b7ac    64310020        undefined4  20003164h                               
                            ;************************************************************************************************
                            ;*                                           FUNCTION                                           *
                            ;************************************************************************************************
                            ;undefined FUN_0007b7b0(void)
          ;local_10      undefined4         -10                      ;XREF[1,0]:   0007b7b6
                                                          ;XREF[1,0]:   0007cade
ram:0007b7b0    0eb5            push        {r1,r2,r3,lr}                           
ram:0007b7b2    084a            ldr         r2,[PTR_PTR_LAB_0007d084+1+1_0007b7d4]  ;= 0007d834
                                                          ; FWD[4,0]:   0007d085,0007d834,0007d838,0007d83c
ram:0007b7b4    07ca            ldmia       r2,{r0,r1,r2}=>PTR_LAB_0007d084+1+1_0...;= 0007d085
ram:0007b7b6    8de80700        stm         sp=>local_10,{r0,r1,r2}=>LAB_0007d084...
ram:0007b7ba    01f0a7fc        bl          FUN_0007d10c                            ;undefined4 FUN_0007d10c(void)
ram:0007b7be    0028            cmp         r0,#0x0                                 
ram:0007b7c0    06d1            bne         LAB_0007b7d0                            
ram:0007b7c2    0549            ldr         r1,[DAT_0007b7d8]                       ;= 20002C60h
ram:0007b7c4    4ff4fe20        mov.w       r0,#0x7f000                             
ram:0007b7c8    4860            str         r0,[r1,#0x4]=>DAT_20002c64              
ram:0007b7ca    6846            mov         r0,sp                                   
ram:0007b7cc    01f0befc        bl          FUN_0007d14c                            ;undefined4 FUN_0007d14c(int * param_...
                            LAB_0007b7d0:                 ;XREF[1,0]:   0007b7c0
ram:0007b7d0    0ebd            pop         {r1,r2,r3,pc}                           
ram:0007b7d2    0000            movs        r0,r0                                   
                            PTR_PTR_LAB_0007d084+1+1_00...;XREF[1,0]:   0007b7b2
ram:0007b7d4    34d80700        addr        PTR_LAB_0007d084+1+1_0007d834           ;= 0007d085
                            DAT_0007b7d8:                 ;XREF[1,0]:   0007b7c2
ram:0007b7d8    602c0020        undefined4  20002C60h                               
                            ;************************************************************************************************
                            ;*                                           FUNCTION                                           *
                            ;************************************************************************************************
                            ;undefined FUN_0007b7dc(undefined * param_1, undefined4 param_2, undefined4 param_3, undefined * param_4)
          ;param_1       undefined *         r0                      
          ;param_2       undefined4          r1                      
          ;param_3       undefined4          r2                      
          ;param_4       undefined *         r3                      
          ;local_10      undefined4         -10                      ;XREF[1,0]:   0007b7e6
                                                          ;XREF[4,0]:   0007bbb6,0007bbf4,0007c232,0007c2aa
ram:0007b7dc    38b5            push        {param_4,r4,r5,lr}                      
ram:0007b7de    0446            mov         r4,param_1                              
ram:0007b7e0    6846            mov         param_1,sp                              
ram:0007b7e2    00f02df8        bl          FUN_0007b840                            ;undefined FUN_0007b840(undefined4 * ...
ram:0007b7e6    0098            ldr         param_1,[sp,#0x0]=>local_10             
ram:0007b7e8    0178            ldrb        param_2,[param_1,#0x0]                  
ram:0007b7ea    2170            strb        param_2,[r4,#0x0]                       
ram:0007b7ec    4188            ldrh        param_2,[param_1,#0x2]                  
ram:0007b7ee    6180            strh        param_2,[r4,#0x2]                       
ram:0007b7f0    8168            ldr         param_2,[param_1,#0x8]                  
ram:0007b7f2    a160            str         param_2,[r4,#0x8]                       
ram:0007b7f4    0179            ldrb        param_2,[param_1,#0x4]                  
ram:0007b7f6    2171            strb        param_2,[r4,#0x4]                       
ram:0007b7f8    c168            ldr         param_2,[param_1,#0xc]                  
ram:0007b7fa    e160            str         param_2,[r4,#0xc]                       
ram:0007b7fc    0169            ldr         param_2,[param_1,#0x10]                 
ram:0007b7fe    2161            str         param_2,[r4,#0x10]                      
ram:0007b800    4169            ldr         param_2,[param_1,#0x14]                 
ram:0007b802    6161            str         param_2,[r4,#0x14]                      
ram:0007b804    8069            ldr         param_1,[param_1,#0x18]                 
ram:0007b806    a061            str         param_1,[r4,#0x18]                      
ram:0007b808    38bd            pop         {param_4,r4,r5,pc}                      
ram:0007b80a    0000            movs        r0,r0                                   
                            ;************************************************************************************************
                            ;*                                           FUNCTION                                           *
                            ;************************************************************************************************
                            ;undefined FUN_0007b80c(uint param_1)
          ;param_1       uint                r0                      
                                                          ;XREF[1,0]:   0007b742
ram:0007b80c    10b5            push        {r4,lr}                                 
ram:0007b80e    0446            mov         r4,param_1                              
ram:0007b810    1c21            movs        r1,#0x1c                                
ram:0007b812    0948            ldr         param_1,[DAT_0007b838]                  ;= 20002C60h
ram:0007b814    01f070fc        bl          FUN_0007d0f8                            ;undefined FUN_0007d0f8(undefined4 * ...
ram:0007b818    08b1            cbz         param_1,LAB_0007b81e                    
ram:0007b81a    fff7b1fa        bl          FUN_0007ad80                            ;undefined FUN_0007ad80(void)
                            LAB_0007b81e:                 ;XREF[1,0]:   0007b818
ram:0007b81e    0023            movs        r3,#0x0                                 
ram:0007b820    1c22            movs        r2,#0x1c                                
ram:0007b822    2146            mov         r1,r4                                   
ram:0007b824    0448            ldr         param_1,[DAT_0007b838]                  ;= 20002C60h
ram:0007b826    01f0a3fc        bl          FUN_0007d170                            ;int FUN_0007d170(undefined4 * param_...
ram:0007b82a    0028            cmp         param_1,#0x0                            
ram:0007b82c    03d0            beq         LAB_0007b836                            
ram:0007b82e    bde81040        pop.w       {r4,lr}                                 
ram:0007b832    fff7a5ba        b.w         FUN_0007ad80                            ;undefined FUN_0007ad80(void)
                            LAB_0007b836:                 ;XREF[1,0]:   0007b82c
ram:0007b836    10bd            pop         {r4,pc}                                 
                            DAT_0007b838:                 ;XREF[2,0]:   0007b812,0007b824
ram:0007b838    602c0020        undefined4  20002C60h                               
                            LAB_0007b83c:                 ;XREF[1,0]:   0007b62c
ram:0007b83c    fef772be        b.w         FUN_0007a524                            
                            ;************************************************************************************************
                            ;*                                           FUNCTION                                           *
                            ;************************************************************************************************
                            ;undefined FUN_0007b840(undefined4 * param_1)
          ;param_1       undefined4 *        r0                      
                                                          ;XREF[4,0]:   0007b5ac,0007b634,0007b6de,0007b7e2
ram:0007b840    0149            ldr         r1,[DAT_0007b848]                       ;= 0007F000h
ram:0007b842    0160            str         r1,[param_1,#0x0]                       
ram:0007b844    7047            bx          lr                                      
ram:0007b846    0000            movs        r0,r0                                   
                            DAT_0007b848:                 ;XREF[1,0]:   0007b840
ram:0007b848    00f00700        undefined4  0007F000h                               
                            ;************************************************************************************************
                            ;*                                           FUNCTION                                           *
                            ;************************************************************************************************
                            ;undefined8 FUN_0007b84c(void)
                                                          ;XREF[2,0]:   0007b90e,0007d212
ram:0007b84c    70b5            push        {r4,r5,r6,lr}                           
ram:0007b84e    174c            ldr         r4,[DAT_0007b8ac]                       ;= 20003070h
ram:0007b850    0f20            movs        r0,#0xf                                 
ram:0007b852    2178            ldrb        r1,[r4,#0x0]=>DAT_20003070              
ram:0007b854    01eb4101        add.w       r1,r1,r1, lsl #0x1                      
ram:0007b858    04ebc102        add.w       r2,r4,r1, lsl #0x3                      
ram:0007b85c    1449            ldr         r1,[DAT_0007b8b0]                       ;= 20002C1Ch
ram:0007b85e    5369            ldr         r3,[r2,#0x14]                           
ram:0007b860    12f8045f        ldrb.w      r5,[r2,#0x4]!                           
ram:0007b864    4968            ldr         r1,[r1,#0x4]=>DAT_20002c20              
ram:0007b866    012d            cmp         r5,#0x1                                 
ram:0007b868    0ed0            beq         LAB_0007b888                            
ram:0007b86a    032d            cmp         r5,#0x3                                 
ram:0007b86c    0bd1            bne         LAB_0007b886                            
ram:0007b86e    4ff08050        mov.w       r0,#0x10000000                          
ram:0007b872    0069            ldr         r0,[r0,#offset DAT_10000010 &0xff]      
ram:0007b874    80b2            uxth        r0,r0                                   
ram:0007b876    b3fbf0f0        udiv        r0,r3,r0                                
ram:0007b87a    0844            add         r0,r1                                   
ram:0007b87c    28df            svc         0x28                                    
                            LAB_0007b87e:                 ;XREF[2,0]:   0007b8a2,0007b8aa
ram:0007b87e    0028            cmp         r0,#0x0                                 
ram:0007b880    01d1            bne         LAB_0007b886                            
ram:0007b882    0121            movs        r1,#0x1                                 
ram:0007b884    a170            strb        r1,[r4,#0x2]=>DAT_20003072              
                            LAB_0007b886:                 ;XREF[2,0]:   0007b86c,0007b880
ram:0007b886    70bd            pop         {r4,r5,r6,pc}                           
                            LAB_0007b888:                 ;XREF[1,0]:   0007b868
ram:0007b888    0803            lsls        r0,r1,#0xc                              
ram:0007b88a    5168            ldr         r1,[r2,#0x4]                            
ram:0007b88c    5669            ldr         r6,[r2,#0x14]                           
ram:0007b88e    0d1a            subs        r5,r1,r0                                
ram:0007b890    3118            adds        r1,r6,r0                                
ram:0007b892    9268            ldr         r2,[r2,#0x8]                            
ram:0007b894    1844            add         r0,r3                                   
ram:0007b896    1044            add         r0,r2                                   
ram:0007b898    b5f5805f        cmp.w       r5,#0x1000                              
ram:0007b89c    02d2            bcs         LAB_0007b8a4                            
ram:0007b89e    aa08            lsrs        r2,r5,#0x2                              
ram:0007b8a0    29df            svc         0x29                                    
ram:0007b8a2    ece7            b           LAB_0007b87e                            
                            LAB_0007b8a4:                 ;XREF[1,0]:   0007b89c
ram:0007b8a4    4ff48062        mov.w       r2,#0x400                               
ram:0007b8a8    29df            svc         0x29                                    
ram:0007b8aa    e8e7            b           LAB_0007b87e                            
                            DAT_0007b8ac:                 ;XREF[1,0]:   0007b84e
ram:0007b8ac    70300020        undefined4  20003070h                               
                            DAT_0007b8b0:                 ;XREF[1,0]:   0007b85c
ram:0007b8b0    1c2c0020        undefined4  20002C1Ch                               
                            ;************************************************************************************************
                            ;*                                           FUNCTION                                           *
                            ;************************************************************************************************
                            ;undefined FUN_0007b8b4(int param_1)
          ;param_1       int                 r0                      
                                                          ;XREF[2,0]:   0007d120,0007d202
ram:0007b8b4    00eb4002        add.w       r2,param_1,param_1, lsl #0x1            
ram:0007b8b8    0548            ldr         param_1,[DAT_0007b8d0]                  ;= 20003070h
ram:0007b8ba    0021            movs        r1,#0x0                                 
ram:0007b8bc    00ebc200        add.w       param_1,param_1,r2, lsl #0x3            
ram:0007b8c0    0222            movs        r2,#0x2                                 
ram:0007b8c2    0171            strb        r1,[param_1,#0x4]                       
ram:0007b8c4    8160            str         r1,[param_1,#0x8]                       
ram:0007b8c6    c0e90421        strd        r2,r1,[param_1,#0x10]                   
ram:0007b8ca    8161            str         r1,[param_1,#0x18]                      
ram:0007b8cc    c160            str         r1,[param_1,#0xc]                       
ram:0007b8ce    7047            bx          lr                                      
                            DAT_0007b8d0:                 ;XREF[1,0]:   0007b8b8
ram:0007b8d0    70300020        undefined4  20003070h                               
                            ;************************************************************************************************
                            ;*                                           FUNCTION                                           *
                            ;************************************************************************************************
                            ;int FUN_0007b8d4(char param_1, undefined4 * param_2, undefined4 param_3, undefined4 param_4, undefined4 param_5)
          ;param_1       char                r0                      
          ;param_2       undefined4 *        r1                      
          ;param_3       undefined4          r2                      
          ;param_4       undefined4          r3                      
          ;param_5       undefined4           0                      ;XREF[1,0]:   0007b8da
                                                          ;XREF[2,0]:   0007d104,0007d194
ram:0007b8d4    2de9f041        push        {r4,r5,r6,r7,r8,lr}                     
ram:0007b8d8    134c            ldr         r4,[DAT_0007b928]                       ;= 20003070h
ram:0007b8da    069e            ldr         r6,[sp,#param_5+0x18]                   
ram:0007b8dc    6578            ldrb        r5,[r4,#0x1]=>DAT_20003071              
ram:0007b8de    0a2d            cmp         r5,#0xa                                 
ram:0007b8e0    1fd0            beq         LAB_0007b922                            
ram:0007b8e2    2778            ldrb        r7,[r4,#0x0]=>DAT_20003070              
ram:0007b8e4    3d44            add         r5,r7                                   
ram:0007b8e6    edb2            uxtb        r5,r5                                   
ram:0007b8e8    0a2d            cmp         r5,#0xa                                 
ram:0007b8ea    01d3            bcc         LAB_0007b8f0                            
ram:0007b8ec    0a3d            subs        r5,#0xa                                 
ram:0007b8ee    edb2            uxtb        r5,r5                                   
                            LAB_0007b8f0:                 ;XREF[1,0]:   0007b8ea
ram:0007b8f0    05eb4505        add.w       r5,r5,r5, lsl #0x1                      
ram:0007b8f4    04ebc505        add.w       r5,r4,r5, lsl #0x3                      
ram:0007b8f8    2871            strb        param_1,[r5,#0x4]                       
ram:0007b8fa    aa61            str         param_3,[r5,#0x18]                      
ram:0007b8fc    d1e90001        ldrd        param_1,param_2,[param_2,#0x0]          
ram:0007b900    c5e90401        strd        param_1,param_2,[r5,#0x10]              
ram:0007b904    c5e90236        strd        param_4,r6,[r5,#0x8]                    
ram:0007b908    a178            ldrb        param_2,[r4,#0x2]=>DAT_20003072         
ram:0007b90a    0020            movs        param_1,#0x0                            
ram:0007b90c    21b9            cbnz        param_2,LAB_0007b918                    
ram:0007b90e    fff79dff        bl          FUN_0007b84c                            ;undefined8 FUN_0007b84c(void)
ram:0007b912    1128            cmp         param_1,#0x11                           
ram:0007b914    00d1            bne         LAB_0007b918                            
ram:0007b916    0020            movs        param_1,#0x0                            
                            LAB_0007b918:                 ;XREF[2,0]:   0007b90c,0007b914
ram:0007b918    6178            ldrb        param_2,[r4,#0x1]=>DAT_20003071         
ram:0007b91a    491c            adds        param_2,param_2,#0x1                    
ram:0007b91c    6170            strb        param_2,[r4,#0x1]=>DAT_20003071         
                            LAB_0007b91e:                 ;XREF[1,0]:   0007b924
ram:0007b91e    bde8f081        pop.w       {r4,r5,r6,r7,r8,pc}                     
                            LAB_0007b922:                 ;XREF[1,0]:   0007b8e0
ram:0007b922    0420            movs        param_1,#0x4                            
ram:0007b924    fbe7            b           LAB_0007b91e                            
ram:0007b926    0000            movs        r0,r0                                   
                            DAT_0007b928:                 ;XREF[1,0]:   0007b8d8
ram:0007b928    70300020        undefined4  20003070h                               
                            ;************************************************************************************************
                            ;*                                           FUNCTION                                           *
                            ;************************************************************************************************
                            ;undefined FUN_0007b92c(void)
                                                          ;XREF[1,0]:   0007d562
ram:0007b92c    2de9f05f        push        {r4,r5,r6,r7,r8,r9,r10,r11,r12,lr}      
ram:0007b930    2648            ldr         r0=>DAT_20002c3c,[DAT_0007b9cc]         ;= 20002C3Ch
ram:0007b932    c168            ldr         r1,[r0,#0xc]=>DAT_20002c48              
ram:0007b934    f1b3            cbz         r1,LAB_0007b9b4                         
ram:0007b936    dff898b0        ldr.w       r11,[DAT_0007b9d0]                      ;= 40011504h
ram:0007b93a    0e68            ldr         r6,[r1,#0x0]                            
ram:0007b93c    8146            mov         r9,r0                                   
ram:0007b93e    dbf80040        ldr.w       r4,[r11,#0x0]=>DAT_40011504             
ram:0007b942    0769            ldr         r7,[r0,#0x10]=>DAT_20002c4c             
ram:0007b944    c078            ldrb        r0,[r0,#0x3]=>DAT_20002c3f              
ram:0007b946    e11b            subs        r1,r4,r7                                
ram:0007b948    21f07f45        bic         r5,r1,#0xff000000                       
ram:0007b94c    ed1c            adds        r5,r5,#0x3                              
ram:0007b94e    b0b9            cbnz        r0,LAB_0007b97e                         
ram:0007b950    dff88080        ldr.w       r8,[DAT_0007b9d4]                       ;= 40011000h
ram:0007b954    4ff48030        mov.w       r0,#0x10000                             
ram:0007b958    c8f84403        str.w       r0,[r8,#0x344]=>DAT_40011344            
ram:0007b95c    c8f80403        str.w       r0,[r8,#0x304]=>DAT_40011304            
ram:0007b960    1120            movs        r0,#0x11                                
ram:0007b962    fef77dfe        bl          FUN_0007a660                            ;undefined FUN_0007a660(uint param_1)
ram:0007b966    1120            movs        r0,#0x11                                
ram:0007b968    fef785fe        bl          FUN_0007a676                            ;undefined FUN_0007a676(uint param_1)
ram:0007b96c    4ff0010a        mov.w       r10,#0x1                                
ram:0007b970    c8f800a0        str.w       r10,[r8,#0x0]=>DAT_40011000             
ram:0007b974    2f20            movs        r0,#0x2f                                
ram:0007b976    fef799fd        bl          FUN_0007a4ac                            ;undefined FUN_0007a4ac(int param_1)
ram:0007b97a    89f803a0        strb.w      r10,[r9,#0x3]=>DAT_20002c3f             
                            LAB_0007b97e:                 ;XREF[1,0]:   0007b94e
ram:0007b97e    b542            cmp         r5,r6                                   
ram:0007b980    00d2            bcs         LAB_0007b984                            
ram:0007b982    3546            mov         r5,r6                                   
                            LAB_0007b984:                 ;XREF[1,0]:   0007b980
ram:0007b984    124b            ldr         r3,[DAT_0007b9d0]                       ;= 40011504h
ram:0007b986    e819            adds        r0,r5,r7                                
ram:0007b988    3c33            adds        r3=>DAT_40011540,#0x3c                  
ram:0007b98a    20f07f40        bic         r0,r0,#0xff000000                       
ram:0007b98e    1860            str         r0,[r3,#0x0]=>DAT_40011540              
ram:0007b990    dbf80010        ldr.w       r1,[r11,#0x0]=>DAT_40011504             
ram:0007b994    5a46            mov         r2=>DAT_40011504,r11                    
ram:0007b996    091b            subs        r1,r1,r4                                
ram:0007b998    21f07f41        bic         r1,r1,#0xff000000                       
ram:0007b99c    001b            subs        r0,r0,r4                                
ram:0007b99e    20f07f40        bic         r0,r0,#0xff000000                       
ram:0007b9a2    c91c            adds        r1,r1,#0x3                              
ram:0007b9a4    8142            cmp         r1,r0                                   
ram:0007b9a6    0fd9            bls         LAB_0007b9c8                            
ram:0007b9a8    1068            ldr         r0,[r2,#0x0]=>DAT_40011504              
ram:0007b9aa    1860            str         r0,[r3,#0x0]=>DAT_40011540              
ram:0007b9ac    2f20            movs        r0,#0x2f                                
ram:0007b9ae    fef77dfd        bl          FUN_0007a4ac                            ;undefined FUN_0007a4ac(int param_1)
ram:0007b9b2    00e0            b           LAB_0007b9b6                            
                            LAB_0007b9b4:                 ;XREF[1,0]:   0007b934
ram:0007b9b4    04e0            b           LAB_0007b9c0                            
                            LAB_0007b9b6:                 ;XREF[1,0]:   0007b9b2
ram:0007b9b6    bde8f05f        pop.w       {r4,r5,r6,r7,r8,r9,r10,r11,r12,lr}      
ram:0007b9ba    1120            movs        r0,#0x11                                
ram:0007b9bc    fef766be        b.w         FUN_0007a68c                            ;undefined FUN_0007a68c(uint param_1)
                            LAB_0007b9c0:                 ;XREF[1,0]:   0007b9b4
ram:0007b9c0    bde8f05f        pop.w       {r4,r5,r6,r7,r8,r9,r10,r11,r12,lr}      
ram:0007b9c4    01f03abc        b.w         FUN_0007d23c                            ;undefined FUN_0007d23c(void)
                            LAB_0007b9c8:                 ;XREF[1,0]:   0007b9a6
ram:0007b9c8    bde8f09f        pop.w       {r4,r5,r6,r7,r8,r9,r10,r11,r12,pc}      
                            DAT_0007b9cc:                 ;XREF[1,0]:   0007b930
ram:0007b9cc    3c2c0020        undefined4  20002C3Ch                               
                            DAT_0007b9d0:                 ;XREF[2,0]:   0007b936,0007b984
ram:0007b9d0    04150140        undefined4  40011504h                               
                            DAT_0007b9d4:                 ;XREF[1,0]:   0007b950
ram:0007b9d4    00100140        undefined4  40011000h                               
                            ;************************************************************************************************
                            ;*                                           FUNCTION                                           *
                            ;************************************************************************************************
                            ;undefined4 FUN_0007b9d8(ushort * param_1, int param_2, ushort * param_3, uint param_4)
          ;param_1       ushort *            r0                      
          ;param_2       int                 r1                      
          ;param_3       ushort *            r2                      
          ;param_4       uint                r3                      
                                                          ;XREF[1,0]:   0007ab44
ram:0007b9d8    2de9f041        push        {r4,r5,r6,r7,r8,lr}                     
ram:0007b9dc    1788            ldrh        r7,[param_3,#0x0]                       
ram:0007b9de    0646            mov         r6,param_1                              
ram:0007b9e0    b81d            adds        param_1,r7,#0x6                         
ram:0007b9e2    1446            mov         r4,param_3                              
ram:0007b9e4    0d46            mov         r5,param_2                              
ram:0007b9e6    9842            cmp         param_1,param_4                         
ram:0007b9e8    02d9            bls         LAB_0007b9f0                            
ram:0007b9ea    0c20            movs        param_1,#0xc                            
                            LAB_0007b9ec:                 ;XREF[2,0]:   0007ba10,0007ba5e
ram:0007b9ec    bde8f081        pop.w       {r4,r5,r6,r7,r8,pc}                     
                            LAB_0007b9f0:                 ;XREF[1,0]:   0007b9e8
ram:0007b9f0    3188            ldrh        param_2,[r6,#0x0]                       
ram:0007b9f2    0722            movs        param_3,#0x7                            
ram:0007b9f4    0629            cmp         param_2,#0x6                            
ram:0007b9f6    0ad3            bcc         LAB_0007ba0e                            
ram:0007b9f8    4ff4486c        mov.w       r12,#0xc80                              
ram:0007b9fc    4ff6ff73        movw        param_4,#0xffff                         
ram:0007ba00    6145            cmp         param_2,r12                             
ram:0007ba02    01d9            bls         LAB_0007ba08                            
ram:0007ba04    9942            cmp         param_2,param_4                         
ram:0007ba06    02d1            bne         LAB_0007ba0e                            
                            LAB_0007ba08:                 ;XREF[1,0]:   0007ba02
ram:0007ba08    7088            ldrh        param_1,[r6,#0x2]                       
ram:0007ba0a    0628            cmp         param_1,#0x6                            
ram:0007ba0c    01d2            bcs         LAB_0007ba12                            
                            LAB_0007ba0e:                 ;XREF[4,0]:   0007b9f6,0007ba06,0007ba18,0007ba24
ram:0007ba0e    1046            mov         param_1,param_3                         
ram:0007ba10    ece7            b           LAB_0007b9ec                            
                            LAB_0007ba12:                 ;XREF[1,0]:   0007ba0c
ram:0007ba12    6045            cmp         param_1,r12                             
ram:0007ba14    01d9            bls         LAB_0007ba1a                            
ram:0007ba16    9842            cmp         param_1,param_4                         
ram:0007ba18    f9d1            bne         LAB_0007ba0e                            
                            LAB_0007ba1a:                 ;XREF[1,0]:   0007ba14
ram:0007ba1a    9942            cmp         param_2,param_4                         
ram:0007ba1c    03d0            beq         LAB_0007ba26                            
ram:0007ba1e    9842            cmp         param_1,param_4                         
ram:0007ba20    01d0            beq         LAB_0007ba26                            
ram:0007ba22    8142            cmp         param_2,param_1                         
ram:0007ba24    f3d8            bhi         LAB_0007ba0e                            
                            LAB_0007ba26:                 ;XREF[2,0]:   0007ba1c,0007ba20
ram:0007ba26    0520            movs        param_1,#0x5                            
ram:0007ba28    e855            strb        param_1,[r5,r7]                         
ram:0007ba2a    2088            ldrh        param_1,[r4,#0x0]                       
ram:0007ba2c    1221            movs        param_2,#0x12                           
ram:0007ba2e    401c            adds        param_1,param_1,#0x1                    
ram:0007ba30    80b2            uxth        param_1,param_1                         
ram:0007ba32    2080            strh        param_1,[r4,#0x0]                       
ram:0007ba34    2954            strb        param_2,[r5,param_1]                    
ram:0007ba36    2088            ldrh        param_1,[r4,#0x0]                       
ram:0007ba38    401c            adds        param_1,param_1,#0x1                    
ram:0007ba3a    80b2            uxth        param_1,param_1                         
ram:0007ba3c    2080            strh        param_1,[r4,#0x0]                       
ram:0007ba3e    4119            adds        param_2,param_1,r5                      
ram:0007ba40    3088            ldrh        param_1,[r6,#0x0]                       
ram:0007ba42    01f0f7fd        bl          FUN_0007d634                            ;undefined4 FUN_0007d634(undefined4 p...
ram:0007ba46    2188            ldrh        param_2,[r4,#0x0]                       
ram:0007ba48    0844            add         param_1,param_2                         
ram:0007ba4a    80b2            uxth        param_1,param_1                         
ram:0007ba4c    2080            strh        param_1,[r4,#0x0]                       
ram:0007ba4e    4119            adds        param_2,param_1,r5                      
ram:0007ba50    7088            ldrh        param_1,[r6,#0x2]                       
ram:0007ba52    01f0effd        bl          FUN_0007d634                            ;undefined4 FUN_0007d634(undefined4 p...
ram:0007ba56    2188            ldrh        param_2,[r4,#0x0]                       
ram:0007ba58    0844            add         param_1,param_2                         
ram:0007ba5a    2080            strh        param_1,[r4,#0x0]                       
ram:0007ba5c    0020            movs        param_1,#0x0                            
ram:0007ba5e    c5e7            b           LAB_0007b9ec                            
                            ;************************************************************************************************
                            ;*                                           FUNCTION                                           *
                            ;************************************************************************************************
                            ;undefined thunk_FUN_0007ad80(void)
                                                          ;XREF[0,2]:   0007c5ac,0007c608
ram:0007ba60    fff78eb9        b.w         FUN_0007ad80                            ;undefined FUN_0007ad80(void)
                            LAB_0007ba64:                 ;XREF[1,0]:   0007b1e0
ram:0007ba64    f8b5            push        {r3,r4,r5,r6,r7,lr}=>DAT_0007d820       ;= 20003034h
ram:0007ba66    1348            ldr         param_1=>DAT_20002c0c,[DAT_0007bab4]    ;= 20002C0Ch
ram:0007ba68    00f0fcfe        bl          FUN_0007c864                            ;undefined4 FUN_0007c864(int param_1)
ram:0007ba6c    114d            ldr         r5,[DAT_0007bab4]                       ;= 20002C0Ch
ram:0007ba6e    0026            movs        r6,#0x0                                 
ram:0007ba70    114c            ldr         r4,[DAT_0007bab8]                       ;= 20003054h
ram:0007ba72    0c3d            subs        r5,#0xc                                 
ram:0007ba74    30b1            cbz         param_1,LAB_0007ba84                    
ram:0007ba76    6169            ldr         r1,[r4,#0x14]=>DAT_20003068             
ram:0007ba78    b9b1            cbz         r1,LAB_0007baaa                         
ram:0007ba7a    0120            movs        param_1,#0x1                            
ram:0007ba7c    8df80000        strb.w      param_1,[sp,#0x0]=>local_18             
                            LAB_0007ba80:                 ;XREF[1,0]:   0007ba90
ram:0007ba80    6846            mov         param_1,sp                              
ram:0007ba82    11e0            b           LAB_0007baa8                            
                            LAB_0007ba84:                 ;XREF[1,0]:   0007ba74
ram:0007ba84    2878            ldrb        param_1,[r5,#0x0]=>DAT_20002c00         
ram:0007ba86    20b1            cbz         param_1,LAB_0007ba92                    
ram:0007ba88    6169            ldr         r1,[r4,#0x14]=>DAT_20003068             
ram:0007ba8a    71b1            cbz         r1,LAB_0007baaa                         
ram:0007ba8c    8df80060        strb.w      r6,[sp,#0x0]=>local_18                  
ram:0007ba90    f6e7            b           LAB_0007ba80                            
                            LAB_0007ba92:                 ;XREF[1,0]:   0007ba86
ram:0007ba92    6878            ldrb        param_1,[r5,#offset DAT_20002c01 &0xff] 
ram:0007ba94    58b1            cbz         param_1,LAB_0007baae                    
ram:0007ba96    a168            ldr         r1,[r4,#0x8]=>DAT_2000305c              
                            LAB_0007ba98:                 ;XREF[1,0]:   0007bab0
ram:0007ba98    0848            ldr         param_1,[PTR_DAT_0007babc]              ;= 0007d820
ram:0007ba9a    0022            movs        r2,#0x0                                 
ram:0007ba9c    0068            ldr         param_1,[param_1,#0x0]=>DAT_0007d820    ;= 20003034h
ram:0007ba9e    fff7bbfa        bl          FUN_0007b018                            ;undefined4 FUN_0007b018(int param_1,...
ram:0007baa2    10b1            cbz         param_1,LAB_0007baaa                    
ram:0007baa4    a169            ldr         r1,[r4,#0x18]=>DAT_2000306c             
ram:0007baa6    01b1            cbz         r1,LAB_0007baaa                         
                            LAB_0007baa8:                 ;XREF[1,0]:   0007ba82
ram:0007baa8    8847            blx         r1                                      
                            LAB_0007baaa:                 ;XREF[4,0]:   0007ba78,0007ba8a,0007baa2,0007baa6
ram:0007baaa    2e70            strb        r6,[r5,#0x0]=>DAT_20002c00              
ram:0007baac    f8bd            pop         {r3,r4,r5,r6,r7,pc}                     
                            LAB_0007baae:                 ;XREF[1,0]:   0007ba94
ram:0007baae    6168            ldr         r1,[r4,#0x4]=>DAT_20003058              
ram:0007bab0    f2e7            b           LAB_0007ba98                            
ram:0007bab2    0000            movs        r0,r0                                   
                            DAT_0007bab4:                 ;XREF[2,0]:   0007ba66,0007ba6c
ram:0007bab4    0c2c0020        undefined4  20002C0Ch                               
                            DAT_0007bab8:                 ;XREF[1,0]:   0007ba70
ram:0007bab8    54300020        undefined4  20003054h                               
                            PTR_DAT_0007babc:             ;XREF[1,0]:   0007ba98
ram:0007babc    20d80700        addr        DAT_0007d820                            ;= 20003034h
                            ;************************************************************************************************
                            ;*                                           FUNCTION                                           *
                            ;************************************************************************************************
                            ;uint FUN_0007bac0(int param_1, uint param_2, ushort * param_3)
          ;param_1       int                 r0                      
          ;param_2       uint                r1                      
          ;param_3       ushort *            r2                      
                                                          ;XREF[4,0]:   0007a64a,0007b5c6,0007bc40,0007bfd8
ram:0007bac0    10b5            push        {r4,lr}                                 
ram:0007bac2    0446            mov         r4,param_1                              
ram:0007bac4    12b1            cbz         param_3,LAB_0007bacc                    
ram:0007bac6    1088            ldrh        param_1,[param_3,#0x0]                  
                            LAB_0007bac8:                 ;XREF[1,0]:   0007bad0
ram:0007bac8    0022            movs        param_3,#0x0                            
ram:0007baca    11e0            b           LAB_0007baf0                            
                            LAB_0007bacc:                 ;XREF[1,0]:   0007bac4
ram:0007bacc    4ff6ff70        movw        param_1,#0xffff                         
ram:0007bad0    fae7            b           LAB_0007bac8                            
                            LAB_0007bad2:                 ;XREF[1,0]:   0007baf2
ram:0007bad2    030a            lsrs        r3,param_1,#0x8                         
ram:0007bad4    43ea0023        orr.w       r3,r3,param_1, lsl #0x8                 
ram:0007bad8    a05c            ldrb        param_1,[r4,param_3]                    
ram:0007bada    5840            eors        param_1,r3                              
ram:0007badc    c0f30313        ubfx        r3,param_1,#0x4,#0x4                    
ram:0007bae0    5840            eors        param_1,r3                              
ram:0007bae2    80ea0030        eor.w       param_1,param_1,param_1, lsl #0xc       
ram:0007bae6    80b2            uxth        param_1,param_1                         
ram:0007bae8    c3b2            uxtb        r3,param_1                              
ram:0007baea    80ea4310        eor.w       param_1,param_1,r3, lsl #0x5            
ram:0007baee    521c            adds        param_3,param_3,#0x1                    
                            LAB_0007baf0:                 ;XREF[1,0]:   0007baca
ram:0007baf0    8a42            cmp         param_3,param_2                         
ram:0007baf2    eed3            bcc         LAB_0007bad2                            
ram:0007baf4    10bd            pop         {r4,pc}                                 
ram:0007baf6    0000            movs        r0,r0                                   
                            ;************************************************************************************************
                            ;*                                           FUNCTION                                           *
                            ;************************************************************************************************
                            ;int FUN_0007baf8(void)
          ;local_14      undefined4         -14                      ;XREF[1,0]:   0007bb40
          ;local_18      undefined4         -18                      ;XREF[1,0]:   0007bb3e
          ;local_24      undefined4         -24                      ;XREF[2,1]:   0007bb2a,0007bb44,0007bb38
          ;local_28      undefined4         -28                      ;XREF[1,0]:   0007bb42
ram:0007baf8    30b5            push        {r4,r5,lr}                              
ram:0007bafa    164c            ldr         r4,[DAT_0007bb54]                       ;= 200031A0h
ram:0007bafc    87b0            sub         sp,#0x1c                                
ram:0007bafe    1648            ldr         r0=>DAT_20002c88,[DAT_0007bb58]         ;= 20002C88h
ram:0007bb00    e168            ldr         r1,[r4,#0xc]=>DAT_200031ac              
ram:0007bb02    01f0f9fa        bl          FUN_0007d0f8                            ;undefined FUN_0007d0f8(undefined4 * ...
ram:0007bb06    08b1            cbz         r0,LAB_0007bb0c                         
ram:0007bb08    fff73af9        bl          FUN_0007ad80                            ;undefined FUN_0007ad80(void)
                            LAB_0007bb0c:                 ;XREF[1,0]:   0007bb06
ram:0007bb0c    1248            ldr         r0,[DAT_0007bb58]                       ;= 20002C88h
ram:0007bb0e    e268            ldr         r2,[r4,#0xc]=>DAT_200031ac              
ram:0007bb10    0838            subs        r0,#0x8                                 
ram:0007bb12    0023            movs        r3,#0x0                                 
ram:0007bb14    4168            ldr         r1,[r0,#0x4]=>DAT_20002c84              
ram:0007bb16    0830            adds        r0=>DAT_20002c88,#0x8                   
ram:0007bb18    01f02afb        bl          FUN_0007d170                            ;int FUN_0007d170(undefined4 * param_...
ram:0007bb1c    0500            movs        r5,r0                                   
ram:0007bb1e    15d1            bne         LAB_0007bb4c                            
ram:0007bb20    1421            movs        r1,#0x14                                
ram:0007bb22    01a8            add         r0,sp,#0x4                              
ram:0007bb24    fef743fd        bl          FUN_0007a5ae                            ;undefined FUN_0007a5ae(undefined * p...
ram:0007bb28    0020            movs        r0,#0x0                                 
ram:0007bb2a    8df80400        strb.w      r0,[sp,#local_24+0x28]                  
ram:0007bb2e    0a48            ldr         r0,[DAT_0007bb58]                       ;= 20002C88h
ram:0007bb30    0df1040c        add.w       r12,sp,#0x4                             
ram:0007bb34    2038            subs        r0,#0x20                                
ram:0007bb36    8088            ldrh        r0,[r0,#0x4]=>DAT_20002c6c              
ram:0007bb38    adf80600        strh.w      r0,[sp,#local_24+0x2a]                  
ram:0007bb3c    e068            ldr         r0,[r4,#0xc]=>DAT_200031ac              
ram:0007bb3e    0490            str         r0,[sp,#local_18+0x28]                  
ram:0007bb40    0598            ldr         r0,[sp,#local_14+0x28]                  
ram:0007bb42    0090            str         r0,[sp,#0x0]=>local_28                  
ram:0007bb44    9ce80f00        ldm.w       r12=>local_24,{r0,r1,r2,r3}             
ram:0007bb48    fff7c0fd        bl          FUN_0007b6cc                            ;undefined FUN_0007b6cc(uint param_1,...
                            LAB_0007bb4c:                 ;XREF[1,0]:   0007bb1e
ram:0007bb4c    07b0            add         sp,#0x1c                                
ram:0007bb4e    2846            mov         r0,r5                                   
ram:0007bb50    30bd            pop         {r4,r5,pc}                              
ram:0007bb52    0000            movs        r0,r0                                   
                            DAT_0007bb54:                 ;XREF[1,0]:   0007bafa
ram:0007bb54    a0310020        undefined4  200031A0h                               
                            DAT_0007bb58:                 ;XREF[3,0]:   0007bafe,0007bb0c,0007bb2e
ram:0007bb58    882c0020        undefined4  20002C88h                               
                            ;************************************************************************************************
                            ;*                                           FUNCTION                                           *
                            ;************************************************************************************************
                            ;undefined4 LAB_0007bb5c+1(uint param_1)
          ;param_1       uint                r0                      
          ;local_8       undefined4          -8                      ;XREF[1,0]:   0007bb70
                                                          ;XREF[0,2]:   0007c3d4,0007c410
ram:0007bb5c    0321            movs        r1,#0x3                                 
ram:0007bb5e    61f30700        bfi         param_1,r1,#0x0,#0x8                    
ram:0007bb62    08b5            push        {r3,lr}                                 
ram:0007bb64    0549            ldr         r1,[DAT_0007bb7c]                       ;= 20002C68h
ram:0007bb66    064b            ldr         r3,[DAT_0007bb80]                       ;= 200031A4h
ram:0007bb68    8988            ldrh        r1,[r1,#0x4]=>DAT_20002c6c              
ram:0007bb6a    61f31f40        bfi         param_1,r1,#0x10,#0x10                  
                                                          ; FWD[3,0]:   200031a4,200031a8,200031ac
ram:0007bb6e    0ecb            ldmia       r3=>DAT_200031a4,{r1,r2,r3}=>DAT_2000...
ram:0007bb70    0094            str         r4,[sp,#0x0]=>local_8                   
ram:0007bb72    fff7abfd        bl          FUN_0007b6cc                            ;undefined FUN_0007b6cc(uint param_1,...
ram:0007bb76    0020            movs        param_1,#0x0                            
ram:0007bb78    08bd            pop         {r3,pc}                                 
ram:0007bb7a    0000            movs        r0,r0                                   
                            DAT_0007bb7c:                 ;XREF[1,0]:   0007bb64
ram:0007bb7c    682c0020        undefined4  20002C68h                               
                            DAT_0007bb80:                 ;XREF[1,0]:   0007bb66
ram:0007bb80    a4310020        undefined4  200031A4h                               
                            ;************************************************************************************************
                            ;*                                           FUNCTION                                           *
                            ;************************************************************************************************
                            ;undefined4 LAB_0007bb84+1(uint param_1)
          ;param_1       uint                r0                      
          ;local_10      undefined4         -10                      ;XREF[1,0]:   0007bb9e
                                                          ;XREF[0,2]:   0007c3d4,0007c404
ram:0007bb84    0121            movs        r1,#0x1                                 
ram:0007bb86    38b5            push        {r3,r4,r5,lr}                           
ram:0007bb88    61f30700        bfi         param_1,r1,#0x0,#0x8                    
ram:0007bb8c    0649            ldr         r1,[DAT_0007bba8]                       ;= 20002C68h
ram:0007bb8e    074b            ldr         r3,[DAT_0007bbac]                       ;= 200031A4h
ram:0007bb90    8988            ldrh        r1,[r1,#0x4]=>DAT_20002c6c              
ram:0007bb92    61f31f40        bfi         param_1,r1,#0x10,#0x10                  
ram:0007bb96    4ff44051        mov.w       r1,#0x3000                              
ram:0007bb9a    8c68            ldr         r4,[r1,#offset DAT_00003008 &0xff]      
                                                          ; FWD[3,0]:   200031a4,200031a8,200031ac
ram:0007bb9c    0ecb            ldmia       r3=>DAT_200031a4,{r1,r2,r3}=>DAT_2000...
ram:0007bb9e    0094            str         r4,[sp,#0x0]=>local_10                  
ram:0007bba0    fff794fd        bl          FUN_0007b6cc                            ;undefined FUN_0007b6cc(uint param_1,...
ram:0007bba4    0020            movs        param_1,#0x0                            
ram:0007bba6    38bd            pop         {r3,r4,r5,pc}                           
                            DAT_0007bba8:                 ;XREF[1,0]:   0007bb8c
ram:0007bba8    682c0020        undefined4  20002C68h                               
                            DAT_0007bbac:                 ;XREF[1,0]:   0007bb8e
ram:0007bbac    a4310020        undefined4  200031A4h                               
                            ;************************************************************************************************
                            ;*                                           FUNCTION                                           *
                            ;************************************************************************************************
                            ;undefined * FUN_0007bbb0(undefined4 param_1, undefined4 param_2, undefined4 param_3, undefined * param_4)
          ;param_1       undefined4          r0                      
          ;param_2       undefined4          r1                      
          ;param_3       undefined4          r2                      
          ;param_4       undefined *         r3                      
          ;local_8       undefined4          -8                      ;XREF[1,0]:   0007bbc6
          ;local_10      undefined4         -10                      ;XREF[2,0]:   0007bbba,0007bbd0
          ;local_14      undefined4         -14                      ;XREF[2,0]:   0007bbc0,0007bbc4
          ;local_28      undefined4         -28                      ;XREF[1,0]:   0007bbd4
          ;local_30      undefined4         -30                      ;XREF[1,0]:   0007bbcc
                                                          ;XREF[1,0]:   0007b678
ram:0007bbb0    00b5            push        {lr}                                    
ram:0007bbb2    8bb0            sub         sp,#0x2c                                
ram:0007bbb4    04a8            add         param_1,sp,#0x10                        
ram:0007bbb6    fff711fe        bl          FUN_0007b7dc                            ;undefined FUN_0007b7dc(undefined * p...
ram:0007bbba    0898            ldr         param_1,[sp,#local_10+0x30]             
ram:0007bbbc    0028            cmp         param_1,#0x0                            
ram:0007bbbe    0cd0            beq         LAB_0007bbda                            
ram:0007bbc0    0798            ldr         param_1,[sp,#local_14+0x30]             
ram:0007bbc2    60b1            cbz         param_1,LAB_0007bbde                    
ram:0007bbc4    0799            ldr         param_2,[sp,#local_14+0x30]             
ram:0007bbc6    0a98            ldr         param_1,[sp,#local_8+0x30]              
ram:0007bbc8    0844            add         param_1,param_2                         
                            LAB_0007bbca:                 ;XREF[1,0]:   0007bbec
ram:0007bbca    0021            movs        param_2,#0x0                            
ram:0007bbcc    cde90010        strd        param_2,param_1,[sp,#0x0]=>local_30     
ram:0007bbd0    0898            ldr         param_1,[sp,#local_10+0x30]             
ram:0007bbd2    8008            lsrs        param_1,param_1,#0x2                    
ram:0007bbd4    0290            str         param_1,[sp,#local_28+0x30]             
ram:0007bbd6    6846            mov         param_1,sp                              
ram:0007bbd8    18df            svc         0x18                                    
                            LAB_0007bbda:                 ;XREF[1,0]:   0007bbbe
ram:0007bbda    0bb0            add         sp,#0x2c                                
ram:0007bbdc    00bd            pop         {pc}                                    
                            LAB_0007bbde:                 ;XREF[1,0]:   0007bbc2
ram:0007bbde    4ff44050        mov.w       param_1,#0x3000                         
ram:0007bbe2    8068            ldr         param_1,[param_1,#offset DAT_00003008...
ram:0007bbe4    c0f5f421        rsb.w       param_2,param_1,#MasterStackPointer     ;= 20005408
ram:0007bbe8    00eb5100        add.w       param_1,param_1,param_2, lsr #0x1       
ram:0007bbec    ede7            b           LAB_0007bbca                            
                            ;************************************************************************************************
                            ;*                                           FUNCTION                                           *
                            ;************************************************************************************************
                            ;undefined * FUN_0007bbee(undefined4 param_1, undefined4 param_2, undefined4 param_3, undefined * param_4)
          ;param_1       undefined4          r0                      
          ;param_2       undefined4          r1                      
          ;param_3       undefined4          r2                      
          ;param_4       undefined *         r3                      
          ;local_8       undefined4          -8                      ;XREF[1,0]:   0007bc04
          ;local_10      undefined4         -10                      ;XREF[2,0]:   0007bbf8,0007bc14
          ;local_14      undefined4         -14                      ;XREF[2,0]:   0007bbfe,0007bc02
          ;local_24      undefined4         -24                      ;XREF[1,0]:   0007bc18
          ;local_2c      undefined4         -2c                      ;XREF[1,0]:   0007bc10
          ;local_30      undefined4         -30                      ;XREF[1,0]:   0007bc0a
                                                          ;XREF[1,0]:   0007b656
ram:0007bbee    00b5            push        {lr}                                    
ram:0007bbf0    8bb0            sub         sp,#0x2c                                
ram:0007bbf2    04a8            add         param_1,sp,#0x10                        
ram:0007bbf4    fff7f2fd        bl          FUN_0007b7dc                            ;undefined FUN_0007b7dc(undefined * p...
ram:0007bbf8    0898            ldr         param_1,[sp,#local_10+0x30]             
ram:0007bbfa    0028            cmp         param_1,#0x0                            
ram:0007bbfc    0fd0            beq         LAB_0007bc1e                            
ram:0007bbfe    0798            ldr         param_1,[sp,#local_14+0x30]             
ram:0007bc00    78b1            cbz         param_1,LAB_0007bc22                    
ram:0007bc02    0799            ldr         param_2,[sp,#local_14+0x30]             
ram:0007bc04    0a98            ldr         param_1,[sp,#local_8+0x30]              
ram:0007bc06    0844            add         param_1,param_2                         
                            LAB_0007bc08:                 ;XREF[1,0]:   0007bc30
ram:0007bc08    0321            movs        param_2,#0x3                            
ram:0007bc0a    0091            str         param_2,[sp,#0x0]=>local_30             
ram:0007bc0c    4ff4f421        mov.w       param_2,#MasterStackPointer             ;= 20005408
ram:0007bc10    cde90110        strd        param_2=>...,param_1,[sp,#local_2c+0x30];= 20005408
ram:0007bc14    0898            ldr         param_1,[sp,#local_10+0x30]             
ram:0007bc16    8008            lsrs        param_1,param_1,#0x2                    
ram:0007bc18    0390            str         param_1,[sp,#local_24+0x30]             
ram:0007bc1a    6846            mov         param_1,sp                              
ram:0007bc1c    18df            svc         0x18                                    
                            LAB_0007bc1e:                 ;XREF[1,0]:   0007bbfc
ram:0007bc1e    0bb0            add         sp,#0x2c                                
ram:0007bc20    00bd            pop         {pc}                                    
                            LAB_0007bc22:                 ;XREF[1,0]:   0007bc00
ram:0007bc22    4ff44050        mov.w       param_1,#0x3000                         
ram:0007bc26    8068            ldr         param_1,[param_1,#offset DAT_00003008...
ram:0007bc28    c0f5f421        rsb.w       param_2,param_1,#MasterStackPointer     ;= 20005408
ram:0007bc2c    00eb5100        add.w       param_1,param_1,param_2, lsr #0x1       
ram:0007bc30    eae7            b           LAB_0007bc08                            
ram:0007bc32    0000            movs        r0,r0                                   
                            ;************************************************************************************************
                            ;*                                           FUNCTION                                           *
                            ;************************************************************************************************
                            ;undefined4 FUN_0007bc34(undefined4 * param_1)
          ;param_1       undefined4 *        r0                      
                                                          ;XREF[1,0]:   0007c4f6
ram:0007bc34    70b5            push        {r4,r5,r6,lr}                           
ram:0007bc36    0400            movs        r4,param_1                              
ram:0007bc38    0bd0            beq         LAB_0007bc52                            
ram:0007bc3a    0022            movs        r2,#0x0                                 
ram:0007bc3c    3c21            movs        r1,#0x3c                                
ram:0007bc3e    0b48            ldr         param_1,[DAT_0007bc6c]                  ;= 20007F82h
ram:0007bc40    fff73eff        bl          FUN_0007bac0                            ;uint FUN_0007bac0(int param_1, uint ...
ram:0007bc44    094d            ldr         r5,[DAT_0007bc6c]                       ;= 20007F82h
ram:0007bc46    ad1e            subs        r5,r5,#0x2                              
ram:0007bc48    2988            ldrh        r1,[r5,#0x0]=>DAT_20007f80              
ram:0007bc4a    8842            cmp         param_1,r1                              
ram:0007bc4c    03d0            beq         LAB_0007bc56                            
ram:0007bc4e    0b20            movs        param_1,#0xb                            
ram:0007bc50    70bd            pop         {r4,r5,r6,pc}                           
                            LAB_0007bc52:                 ;XREF[1,0]:   0007bc38
ram:0007bc52    0e20            movs        param_1,#0xe                            
ram:0007bc54    70bd            pop         {r4,r5,r6,pc}                           
                            LAB_0007bc56:                 ;XREF[1,0]:   0007bc4c
ram:0007bc56    3c22            movs        r2,#0x3c                                
ram:0007bc58    0449            ldr         r1,[DAT_0007bc6c]                       ;= 20007F82h
ram:0007bc5a    2046            mov         param_1,r4                              
ram:0007bc5c    fef78efc        bl          FUN_0007a57c                            ;undefined FUN_0007a57c(undefined4 * ...
ram:0007bc60    2888            ldrh        param_1,[r5,#0x0]=>DAT_20007f80         
ram:0007bc62    401c            adds        param_1,param_1,#0x1                    
ram:0007bc64    2880            strh        param_1,[r5,#0x0]=>DAT_20007f80         
ram:0007bc66    0020            movs        param_1,#0x0                            
ram:0007bc68    70bd            pop         {r4,r5,r6,pc}                           
ram:0007bc6a    0000            movs        r0,r0                                   
                            DAT_0007bc6c:                 ;XREF[3,0]:   0007bc3e,0007bc44,0007bc58
ram:0007bc6c    827f0020        undefined4  20007F82h                               
                            ;************************************************************************************************
                            ;*                                           FUNCTION                                           *
                            ;************************************************************************************************
                            ;undefined FUN_0007bc70(int param_1, int param_2, int param_3)
          ;param_1       int                 r0                      
          ;param_2       int                 r1                      
          ;param_3       int                 r2                      
                                                          ;XREF[0,2]:   0007c4e6,0007c5f0
ram:0007bc70    70b5            push        {r4,r5,r6,lr}                           
ram:0007bc72    1546            mov         r5,param_3                              
ram:0007bc74    0a46            mov         param_3,param_2                         
ram:0007bc76    0328            cmp         param_1,#0x3                            
ram:0007bc78    1fd0            beq         LAB_0007bcba                            
ram:0007bc7a    0428            cmp         param_1,#0x4                            
ram:0007bc7c    24d1            bne         LAB_0007bcc8                            
ram:0007bc7e    134c            ldr         r4,[DAT_0007bccc]                       ;= 20002C94h
ram:0007bc80    39b1            cbz         param_2,LAB_0007bc92                    
ram:0007bc82    e088            ldrh        param_1,[r4,#0x6]=>DAT_20002c9a         
ram:0007bc84    a0f57f41        sub.w       param_2,param_1,#0xff00                 
ram:0007bc88    ff39            subs        param_2,#0xff                           
ram:0007bc8a    1dd0            beq         LAB_0007bcc8                            
ram:0007bc8c    1321            movs        param_2,#0x13                           
ram:0007bc8e    76df            svc         0x76                                    
ram:0007bc90    0de0            b           LAB_0007bcae                            
                            LAB_0007bc92:                 ;XREF[1,0]:   0007bc80
ram:0007bc92    2846            mov         param_1,r5                              
ram:0007bc94    00f0eefc        bl          FUN_0007c674                            ;undefined4 FUN_0007c674(int param_1)
ram:0007bc98    08b1            cbz         param_1,LAB_0007bc9e                    
ram:0007bc9a    fff771f8        bl          FUN_0007ad80                            ;undefined FUN_0007ad80(void)
                            LAB_0007bc9e:                 ;XREF[1,0]:   0007bc98
ram:0007bc9e    a069            ldr         param_1,[r4,#0x18]=>DAT_20002cac        
ram:0007bca0    a842            cmp         param_1,r5                              
ram:0007bca2    11d1            bne         LAB_0007bcc8                            
ram:0007bca4    0122            movs        param_3,#0x1                            
ram:0007bca6    0321            movs        param_2,#0x3                            
                            LAB_0007bca8:                 ;XREF[1,0]:   0007bcc6
ram:0007bca8    0948            ldr         param_1,[DAT_0007bcd0]                  ;= 20003260h
ram:0007bcaa    fff7f9fb        bl          FUN_0007b4a0                            ;undefined8 FUN_0007b4a0(ushort * par...
                            LAB_0007bcae:                 ;XREF[1,0]:   0007bc90
ram:0007bcae    0028            cmp         param_1,#0x0                            
ram:0007bcb0    0ad0            beq         LAB_0007bcc8                            
ram:0007bcb2    bde87040        pop.w       {r4,r5,r6,lr}                           
ram:0007bcb6    fff763b8        b.w         FUN_0007ad80                            ;undefined FUN_0007ad80(void)
                            LAB_0007bcba:                 ;XREF[1,0]:   0007bc78
ram:0007bcba    0121            movs        param_2,#0x1                            
ram:0007bcbc    1046            mov         param_1,param_3                         
ram:0007bcbe    00f0feff        bl          FUN_0007ccbe                            ;undefined4 FUN_0007ccbe(int param_1,...
ram:0007bcc2    0246            mov         param_3,param_1                         
ram:0007bcc4    0121            movs        param_2,#0x1                            
ram:0007bcc6    efe7            b           LAB_0007bca8                            
                            LAB_0007bcc8:                 ;XREF[4,0]:   0007bc7c,0007bc8a,0007bca2,0007bcb0
ram:0007bcc8    70bd            pop         {r4,r5,r6,pc}                           
ram:0007bcca    0000            movs        r0,r0                                   
                            DAT_0007bccc:                 ;XREF[1,0]:   0007bc7e
ram:0007bccc    942c0020        undefined4  20002C94h                               
                            DAT_0007bcd0:                 ;XREF[1,0]:   0007bca8
ram:0007bcd0    60320020        undefined4  20003260h                               
                            ;************************************************************************************************
                            ;*                                           FUNCTION                                           *
                            ;************************************************************************************************
                            ;undefined FUN_0007bcd4(void)
          ;local_c       undefined4          -c                      ;XREF[1,0]:   0007bce2
          ;local_1c      undefined4         -1c                      ;XREF[1,0]:   0007bcea
          ;local_20      undefined4         -20                      ;XREF[1,0]:   0007bce8
                                                          ;XREF[0,2]:   0007c3ac,0007c400
ram:0007bcd4    00b5            push        {lr}                                    
ram:0007bcd6    87b0            sub         sp,#0x1c                                
ram:0007bcd8    1422            movs        r2,#0x14                                
ram:0007bcda    0749            ldr         r1=>DAT_0007d858,[PTR_DAT_0007bcf8]     ;= 04h
                                                                                    ;= 0007d858
ram:0007bcdc    01a8            add         r0,sp,#0x4                              
ram:0007bcde    fef74dfc        bl          FUN_0007a57c                            ;undefined FUN_0007a57c(undefined4 * ...
ram:0007bce2    0598            ldr         r0,[sp,#local_c+0x20]                   
ram:0007bce4    0df1040c        add.w       r12,sp,#0x4                             
ram:0007bce8    0090            str         r0,[sp,#0x0]=>local_20                  
ram:0007bcea    9ce80f00        ldm.w       r12=>local_1c,{r0,r1,r2,r3}             
ram:0007bcee    fff7edfc        bl          FUN_0007b6cc                            ;undefined FUN_0007b6cc(uint param_1,...
ram:0007bcf2    07b0            add         sp,#0x1c                                
ram:0007bcf4    00bd            pop         {pc}                                    
ram:0007bcf6    0000            movs        r0,r0                                   
                            PTR_DAT_0007bcf8:             ;XREF[1,0]:   0007bcda
ram:0007bcf8    58d80700        addr        DAT_0007d858                            ;= 04h
                            ;************************************************************************************************
                            ;*                                           FUNCTION                                           *
                            ;************************************************************************************************
                            ;undefined LAB_0007bcfc+1(void)
                                                          ;XREF[0,2]:   0007c3c8,0007c40c
ram:0007bcfc    7047            bx          lr                                      
                            ;************************************************************************************************
                            ;*                                           FUNCTION                                           *
                            ;************************************************************************************************
                            ;undefined * FUN_0007bcfe(void)
          ;local_c       undefined4          -c                      ;XREF[1,0]:   0007bd0a
          ;local_14      undefined4         -14                      ;XREF[1,0]:   0007bd04
          ;local_18      undefined4         -18                      ;XREF[1,0]:   0007bd02
                                                          ;XREF[2,0]:   0007c310,0007c346
ram:0007bcfe    1fb5            push        {r0,r1,r2,r3,r4,lr}                     
ram:0007bd00    0323            movs        r3,#0x3                                 
ram:0007bd02    0093            str         r3,[sp,#0x0]=>local_18                  
ram:0007bd04    cde90101        strd        r0,r1,[sp,#local_14+0x18]               
ram:0007bd08    9008            lsrs        r0,r2,#0x2                              
ram:0007bd0a    0390            str         r0,[sp,#local_c+0x18]                   
ram:0007bd0c    6846            mov         r0,sp                                   
ram:0007bd0e    18df            svc         0x18                                    
ram:0007bd10    04b0            add         sp,#0x10                                
ram:0007bd12    10bd            pop         {r4,pc}                                 
                            ;************************************************************************************************
                            ;*                                           FUNCTION                                           *
                            ;************************************************************************************************
                            ;undefined * FUN_0007bd14(void)
          ;local_c       undefined4          -c                      ;XREF[1,0]:   0007bd20
          ;local_14      undefined4         -14                      ;XREF[1,0]:   0007bd1a
          ;local_18      undefined4         -18                      ;XREF[1,0]:   0007bd18
                                                          ;XREF[4,0]:   0007c272,0007c280,0007c29e,0007c334
ram:0007bd14    1fb5            push        {r0,r1,r2,r3,r4,lr}                     
ram:0007bd16    0123            movs        r3,#0x1                                 
ram:0007bd18    0093            str         r3,[sp,#0x0]=>local_18                  
ram:0007bd1a    cde90101        strd        r0,r1,[sp,#local_14+0x18]               
ram:0007bd1e    9008            lsrs        r0,r2,#0x2                              
ram:0007bd20    0390            str         r0,[sp,#local_c+0x18]                   
ram:0007bd22    6846            mov         r0,sp                                   
ram:0007bd24    18df            svc         0x18                                    
ram:0007bd26    04b0            add         sp,#0x10                                
ram:0007bd28    10bd            pop         {r4,pc}                                 
                            ;************************************************************************************************
                            ;*                                           FUNCTION                                           *
                            ;************************************************************************************************
                            ;undefined8 FUN_0007bd2a(int param_1)
          ;param_1       int                 r0                      
          ;local_12      undefined1         -12                      ;XREF[1,0]:   0007bd52
          ;local_14      undefined2         -14                      ;XREF[1,0]:   0007bd5a
          ;local_18      undefined4         -18                      ;XREF[3,4]:   0007bd5e,0007bd60,0007bd6a,0007bd6e,0007bd7e
                                                                     ;             0007bd82,0007bd94
          ;local_1c      undefined4         -1c                      ;XREF[1,0]:   0007bdb4
          ;local_20      undefined2         -20                      ;XREF[1,0]:   0007bdb0
          ;local_22      undefined2         -22                      ;XREF[1,0]:   0007bdac
          ;local_24      undefined2         -24                      ;XREF[1,0]:   0007bda6
          ;local_28      undefined4         -28                      ;XREF[1,0]:   0007bda4
          ;local_2c      undefined4         -2c                      ;XREF[1,0]:   0007bda0
          ;local_30      undefined4         -30                      ;XREF[1,0]:   0007bd4e
          ;local_34      undefined4         -34                      ;XREF[1,0]:   0007bd4c
          ;local_38      undefined4         -38                      ;XREF[1,0]:   0007bd4a
          ;local_3c      undefined4         -3c                      ;XREF[1,0]:   0007bd48
          ;local_44      undefined4         -44                      ;XREF[1,0]:   0007bd3e
          ;local_48      undefined1         -48                      ;XREF[2,0]:   0007bd3a,0007bd44
                                                          ;XREF[1,0]:   0007b36a
ram:0007bd2a    30b5            push        {r4,r5,lr}                              
ram:0007bd2c    8fb0            sub         sp,#0x3c                                
ram:0007bd2e    0546            mov         r5,param_1                              
ram:0007bd30    1c21            movs        r1,#0x1c                                
ram:0007bd32    6846            mov         param_1,sp                              
ram:0007bd34    fef73bfc        bl          FUN_0007a5ae                            ;undefined FUN_0007a5ae(undefined * p...
ram:0007bd38    0024            movs        r4,#0x0                                 
ram:0007bd3a    9df80000        ldrb.w      param_1,[sp,#0x0]=>local_48             
ram:0007bd3e    0194            str         r4,[sp,#local_44+0x48]                  
ram:0007bd40    40f01800        orr         param_1,param_1,#0x18                   
ram:0007bd44    8df80000        strb.w      param_1,[sp,#0x0]=>local_48             
ram:0007bd48    0394            str         r4,[sp,#local_3c+0x48]                  
ram:0007bd4a    0494            str         r4,[sp,#local_38+0x48]                  
ram:0007bd4c    0594            str         r4,[sp,#local_34+0x48]                  
ram:0007bd4e    0694            str         r4,[sp,#local_30+0x48]                  
ram:0007bd50    a879            ldrb        param_1,[r5,#0x6]                       
ram:0007bd52    8df83600        strb.w      param_1,[sp,#local_12+0x48]             
ram:0007bd56    41f23150        movw        param_1,#0x1531                         
ram:0007bd5a    adf83400        strh.w      param_1,[sp,#local_14+0x48]             
ram:0007bd5e    0c94            str         r4,[sp,#local_18+0x48]                  
ram:0007bd60    9df83000        ldrb.w      param_1,[sp,#local_18+0x48]             
ram:0007bd64    1421            movs        r1,#0x14                                
ram:0007bd66    20f0ff00        bic         param_1,param_1,#0xff                   
ram:0007bd6a    8df83000        strb.w      param_1,[sp,#local_18+0x48]             
ram:0007bd6e    9df83100        ldrb.w      param_1,[sp,#local_18+0x49]             
ram:0007bd72    20f00f00        bic         param_1,param_1,#0xf                    
ram:0007bd76    401c            adds        param_1,param_1,#0x1                    
ram:0007bd78    20f0f000        bic         param_1,param_1,#0xf0                   
ram:0007bd7c    1030            adds        param_1,#0x10                           
ram:0007bd7e    8df83100        strb.w      param_1,[sp,#local_18+0x49]             
ram:0007bd82    9df83200        ldrb.w      param_1,[sp,#local_18+0x4a]             
ram:0007bd86    20f00600        bic         param_1,param_1,#0x6                    
ram:0007bd8a    801c            adds        param_1,param_1,#0x2                    
ram:0007bd8c    20f00800        bic         param_1,param_1,#0x8                    
ram:0007bd90    40f01100        orr         param_1,param_1,#0x11                   
ram:0007bd94    8df83200        strb.w      param_1,[sp,#local_18+0x4a]             
ram:0007bd98    07a8            add         param_1,sp,#0x1c                        
ram:0007bd9a    fef708fc        bl          FUN_0007a5ae                            ;undefined FUN_0007a5ae(undefined * p...
ram:0007bd9e    0da8            add         param_1,sp,#0x34                        
ram:0007bda0    0790            str         param_1,[sp,#local_2c+0x48]             
ram:0007bda2    0ca8            add         param_1,sp,#0x30                        
ram:0007bda4    0890            str         param_1,[sp,#local_28+0x48]             
ram:0007bda6    adf82440        strh.w      r4,[sp,#local_24+0x48]                  
ram:0007bdaa    1720            movs        param_1,#0x17                           
ram:0007bdac    adf82640        strh.w      r4,[sp,#local_22+0x48]                  
ram:0007bdb0    adf82800        strh.w      param_1,[sp,#local_20+0x48]             
ram:0007bdb4    0b94            str         r4,[sp,#local_1c+0x48]                  
ram:0007bdb6    a888            ldrh        param_1,[r5,#0x4]                       
ram:0007bdb8    05f11003        add.w       r3,r5,#0x10                             
ram:0007bdbc    07aa            add         r2,sp,#0x1c                             
ram:0007bdbe    6946            mov         r1,sp                                   
ram:0007bdc0    a2df            svc         0xa2                                    
ram:0007bdc2    0fb0            add         sp,#0x3c                                
ram:0007bdc4    30bd            pop         {r4,r5,pc}                              
ram:0007bdc6    0000            movs        r0,r0                                   
                            ;************************************************************************************************
                            ;*                                           FUNCTION                                           *
                            ;************************************************************************************************
                            ;int FUN_0007bdc8(int param_1, undefined4 param_2, undefined4 param_3, undefined4 param_4)
          ;param_1       int                 r0                      
          ;param_2       undefined4          r1                      
          ;param_3       undefined4          r2                      
          ;param_4       undefined4          r3                      
                                                          ;XREF[1,0]:   0007acfc
ram:0007bdc8    70b5            push        {r4,r5,r6,lr}                           
ram:0007bdca    0500            movs        r5,param_1                              
ram:0007bdcc    04d0            beq         LAB_0007bdd8                            
ram:0007bdce    287a            ldrb        param_1,[r5,#0x8]                       
ram:0007bdd0    8007            lsls        param_1,param_1,#0x1e                   
ram:0007bdd2    03d0            beq         LAB_0007bddc                            
ram:0007bdd4    1020            movs        param_1,#0x10                           
ram:0007bdd6    70bd            pop         {r4,r5,r6,pc}                           
                            LAB_0007bdd8:                 ;XREF[1,0]:   0007bdcc
ram:0007bdd8    0e20            movs        param_1,#0xe                            
ram:0007bdda    70bd            pop         {r4,r5,r6,pc}                           
                            LAB_0007bddc:                 ;XREF[1,0]:   0007bdd2
ram:0007bddc    144c            ldr         r4,[DAT_0007be30]                       ;= 20002C68h
ram:0007bdde    6078            ldrb        param_1,[r4,#0x1]=>DAT_20002c69         
ram:0007bde0    0328            cmp         param_1,#0x3                            
ram:0007bde2    03d0            beq         LAB_0007bdec                            
ram:0007bde4    0428            cmp         param_1,#0x4                            
ram:0007bde6    01d0            beq         LAB_0007bdec                            
ram:0007bde8    0528            cmp         param_1,#0x5                            
ram:0007bdea    01d0            beq         LAB_0007bdf0                            
                            LAB_0007bdec:                 ;XREF[2,0]:   0007bde2,0007bde6
ram:0007bdec    0820            movs        param_1,#0x8                            
ram:0007bdee    70bd            pop         {r4,r5,r6,pc}                           
                            LAB_0007bdf0:                 ;XREF[1,0]:   0007bdea
ram:0007bdf0    6868            ldr         param_1,[r5,#0x4]                       
ram:0007bdf2    e168            ldr         param_2,[r4,#0xc]=>DAT_20002c74         
ram:0007bdf4    8600            lsls        r6,param_1,#0x2                         
ram:0007bdf6    a068            ldr         param_1,[r4,#0x8]=>DAT_20002c70         
ram:0007bdf8    3044            add         param_1,r6                              
ram:0007bdfa    8842            cmp         param_1,param_2                         
ram:0007bdfc    04d9            bls         LAB_0007be08                            
ram:0007bdfe    4ff0ff30        mov.w       param_1,#0xffffffff                     
ram:0007be02    a060            str         param_1,[r4,#0x8]=>DAT_20002c70         
ram:0007be04    0c20            movs        param_1,#0xc                            
                            LAB_0007be06:                 ;XREF[3,0]:   0007be0e,0007be1e,0007be2a
ram:0007be06    70bd            pop         {r4,r5,r6,pc}                           
                            LAB_0007be08:                 ;XREF[1,0]:   0007bdfc
ram:0007be08    00f014fb        bl          FUN_0007c434                            ;int FUN_0007c434(undefined4 param_1,...
ram:0007be0c    0028            cmp         param_1,#0x0                            
ram:0007be0e    fad1            bne         LAB_0007be06                            
ram:0007be10    a968            ldr         param_2,[r5,#0x8]                       
ram:0007be12    3246            mov         param_3,r6                              
ram:0007be14    a368            ldr         param_4,[r4,#0x8]=>DAT_20002c70         
ram:0007be16    2069            ldr         param_1,[r4,#0x10]=>DAT_20002c78        
ram:0007be18    01f0aaf9        bl          FUN_0007d170                            ;int FUN_0007d170(undefined4 * param_...
ram:0007be1c    0028            cmp         param_1,#0x0                            
ram:0007be1e    f2d1            bne         LAB_0007be06                            
ram:0007be20    a168            ldr         param_2,[r4,#0x8]=>DAT_20002c70         
ram:0007be22    3144            add         param_2,r6                              
ram:0007be24    a160            str         param_2,[r4,#0x8]=>DAT_20002c70         
ram:0007be26    e268            ldr         param_3,[r4,#0xc]=>DAT_20002c74         
ram:0007be28    9142            cmp         param_2,param_3                         
ram:0007be2a    ecd0            beq         LAB_0007be06                            
ram:0007be2c    0920            movs        param_1,#0x9                            
ram:0007be2e    70bd            pop         {r4,r5,r6,pc}                           
                            DAT_0007be30:                 ;XREF[1,0]:   0007bddc
ram:0007be30    682c0020        undefined4  20002C68h                               
                            ;************************************************************************************************
                            ;*                                           FUNCTION                                           *
                            ;************************************************************************************************
                            ;undefined FUN_0007be34(ushort * param_1, int param_2)
          ;param_1       ushort *            r0                      
          ;param_2       int                 r1                      
                                                          ;XREF[2,0]:   0007ace6,0007ad14
ram:0007be34    10b5            push        {r4,lr}                                 
ram:0007be36    0a46            mov         r2,param_2                              
ram:0007be38    0446            mov         r4,param_1                              
ram:0007be3a    0321            movs        param_2,#0x3                            
ram:0007be3c    1046            mov         param_1,r2                              
ram:0007be3e    00f03eff        bl          FUN_0007ccbe                            ;undefined4 FUN_0007ccbe(int param_1,...
ram:0007be42    0246            mov         r2,param_1                              
ram:0007be44    0321            movs        param_2,#0x3                            
ram:0007be46    2046            mov         param_1,r4                              
ram:0007be48    fff72afb        bl          FUN_0007b4a0                            ;undefined8 FUN_0007b4a0(ushort * par...
ram:0007be4c    0028            cmp         param_1,#0x0                            
ram:0007be4e    03d0            beq         LAB_0007be58                            
ram:0007be50    bde81040        pop.w       {r4,lr}                                 
ram:0007be54    fef794bf        b.w         FUN_0007ad80                            ;undefined FUN_0007ad80(void)
                            LAB_0007be58:                 ;XREF[1,0]:   0007be4e
ram:0007be58    10bd            pop         {r4,pc}                                 
ram:0007be5a    0000            movs        r0,r0                                   
                            ;************************************************************************************************
                            ;*                                           FUNCTION                                           *
                            ;************************************************************************************************
                            ;undefined4 FUN_0007be5c(undefined4 param_1, undefined4 param_2, undefined4 param_3, undefined4 param_4)
          ;param_1       undefined4          r0                      
          ;param_2       undefined4          r1                      
          ;param_3       undefined4          r2                      
          ;param_4       undefined4          r3                      
                                                          ;XREF[1,0]:   0007cfe6
ram:0007be5c    0948            ldr         param_1,[DAT_0007be84]                  ;= 20002C68h
ram:0007be5e    10b5            push        {r4,lr}                                 
ram:0007be60    4078            ldrb        param_1,[param_1,#0x1]=>DAT_20002c69    
ram:0007be62    0728            cmp         param_1,#0x7                            
ram:0007be64    01d0            beq         LAB_0007be6a                            
ram:0007be66    0820            movs        param_1,#0x8                            
ram:0007be68    10bd            pop         {r4,pc}                                 
                            LAB_0007be6a:                 ;XREF[1,0]:   0007be64
ram:0007be6a    0748            ldr         param_1,[PTR_DAT_0007be88]              ;= 0007d854
ram:0007be6c    0068            ldr         param_1,[param_1,#0x0]=>DAT_0007d854    ;= 20003180h
ram:0007be6e    fff713f9        bl          FUN_0007b098                            ;undefined4 FUN_0007b098(int param_1,...
ram:0007be72    08b1            cbz         param_1,LAB_0007be78                    
ram:0007be74    fef784ff        bl          FUN_0007ad80                            ;undefined FUN_0007ad80(void)
                            LAB_0007be78:                 ;XREF[1,0]:   0007be72
ram:0007be78    0448            ldr         param_1,[DAT_0007be8c]                  ;= 20003230h
ram:0007be7a    8068            ldr         param_1,[param_1,#0x8]=>DAT_20003238    
ram:0007be7c    bde81040        pop.w       {r4,lr}                                 
ram:0007be80    0047            bx          param_1                                 
ram:0007be82    0000            movs        r0,r0                                   
                            DAT_0007be84:                 ;XREF[1,0]:   0007be5c
ram:0007be84    682c0020        undefined4  20002C68h                               
                            PTR_DAT_0007be88:             ;XREF[1,0]:   0007be6a
ram:0007be88    54d80700        addr        DAT_0007d854                            ;= 20003180h
                            DAT_0007be8c:                 ;XREF[1,0]:   0007be78
ram:0007be8c    30320020        undefined4  20003230h                               
                            ;************************************************************************************************
                            ;*                                           FUNCTION                                           *
                            ;************************************************************************************************
                            ;int FUN_0007be90(undefined4 param_1, undefined4 param_2, undefined4 param_3, undefined4 param_4)
          ;param_1       undefined4          r0                      
          ;param_2       undefined4          r1                      
          ;param_3       undefined4          r2                      
          ;param_4       undefined4          r3                      
                                                          ;XREF[1,0]:   0007cfcc
ram:0007be90    10b5            push        {r4,lr}                                 
ram:0007be92    0d4c            ldr         r4,[DAT_0007bec8]                       ;= 20002C68h
ram:0007be94    6078            ldrb        param_1,[r4,#0x1]=>DAT_20002c69         
ram:0007be96    0528            cmp         param_1,#0x5                            
ram:0007be98    13d1            bne         LAB_0007bec2                            
                                                          ; FWD[2,0]:   20002c70,20002c74
ram:0007be9a    d4e90201        ldrd        param_1,param_2,[r4,#0x8]=>DAT_20002c70 
ram:0007be9e    8842            cmp         param_1,param_2                         
ram:0007bea0    0fd1            bne         LAB_0007bec2                            
ram:0007bea2    0620            movs        param_1,#0x6                            
ram:0007bea4    6070            strb        param_1,[r4,#0x1]=>DAT_20002c69         
ram:0007bea6    00f0c5fa        bl          FUN_0007c434                            ;int FUN_0007c434(undefined4 param_1,...
ram:0007beaa    0028            cmp         param_1,#0x0                            
ram:0007beac    08d1            bne         LAB_0007bec0                            
ram:0007beae    2069            ldr         param_1,[r4,#0x10]=>DAT_20002c78        
ram:0007beb0    e168            ldr         param_2,[r4,#0xc]=>DAT_20002c74         
ram:0007beb2    4068            ldr         param_1,[param_1,#0x4]                  
ram:0007beb4    00f08ef8        bl          FUN_0007bfd4                            ;undefined4 FUN_0007bfd4(int param_1,...
ram:0007beb8    0028            cmp         param_1,#0x0                            
ram:0007beba    01d1            bne         LAB_0007bec0                            
ram:0007bebc    0721            movs        param_2,#0x7                            
ram:0007bebe    6170            strb        param_2,[r4,#0x1]=>DAT_20002c69         
                            LAB_0007bec0:                 ;XREF[2,0]:   0007beac,0007beba
ram:0007bec0    10bd            pop         {r4,pc}                                 
                            LAB_0007bec2:                 ;XREF[2,0]:   0007be98,0007bea0
ram:0007bec2    0820            movs        param_1,#0x8                            
ram:0007bec4    10bd            pop         {r4,pc}                                 
ram:0007bec6    0000            movs        r0,r0                                   
                            DAT_0007bec8:                 ;XREF[1,0]:   0007be92
ram:0007bec8    682c0020        undefined4  20002C68h                               
                            ;************************************************************************************************
                            ;*                                           FUNCTION                                           *
                            ;************************************************************************************************
                            ;longlong FUN_0007becc(void)
          ;local_20      undefined4         -20                      ;XREF[1,0]:   0007beda
                                                          ;XREF[1,0]:   0007b6b6
ram:0007becc    feb5            push        {r1,r2,r3,r4,r5,r6,r7,lr}               
ram:0007bece    1b4e            ldr         r6,[PTR_DAT_0007bf3c]                   ;= 0007d854
ram:0007bed0    1b4c            ldr         r4,[DAT_0007bf40]                       ;= 20002C68h
ram:0007bed2    06f11800        add.w       r0,r6,#0x18                             
ram:0007bed6    0025            movs        r5,#0x0                                 
                                                          ; FWD[3,0]:   0007d86c,0007d870,0007d874
ram:0007bed8    07c8            ldmia       r0,{r0,r1,r2}=>PTR_FUN_0007d0a4+1_000...;= 0007d0a5
ram:0007beda    8de80700        stm         sp=>local_20,{r0,r1,r2}=>FUN_0007d0a4+1 
ram:0007bede    a570            strb        r5,[r4,#0x2]=>DAT_20002c6a              
ram:0007bee0    a580            strh        r5,[r4,#0x4]=>DAT_20002c6c              
ram:0007bee2    04f12001        add.w       r1=>DAT_20002c88,r4,#0x20               
ram:0007bee6    6846            mov         r0,sp                                   
ram:0007bee8    01f030f9        bl          FUN_0007d14c                            ;undefined4 FUN_0007d14c(int * param_...
ram:0007beec    08b1            cbz         r0,LAB_0007bef2                         
ram:0007beee    6570            strb        r5,[r4,#0x1]=>DAT_20002c69              
ram:0007bef0    febd            pop         {r1,r2,r3,r4,r5,r6,r7,pc}               
                            LAB_0007bef2:                 ;XREF[1,0]:   0007beec
ram:0007bef2    1349            ldr         r1,[DAT_0007bf40]                       ;= 20002C68h
ram:0007bef4    4ff44050        mov.w       r0,#0x3000                              
ram:0007bef8    2031            adds        r1,#0x20                                
ram:0007befa    8068            ldr         r0,[r0,#offset DAT_00003008 &0xff]      
ram:0007befc    4860            str         r0,[r1,#0x4]=>DAT_20002c8c              
ram:0007befe    216a            ldr         r1,[r4,#0x20]=>DAT_20002c88             
ram:0007bf00    a161            str         r1,[r4,#0x18]=>DAT_20002c80             
ram:0007bf02    c0f5f421        rsb.w       r1,r0,#MasterStackPointer               ;= 20005408
ram:0007bf06    00eb5100        add.w       r0,r0,r1, lsr #0x1                      
ram:0007bf0a    0d49            ldr         r1,[DAT_0007bf40]                       ;= 20002C68h
ram:0007bf0c    0d4a            ldr         r2=>LAB_0007c418...,[PTR_LAB_0007c418...;= 0007c419
ram:0007bf0e    1831            adds        r1,#0x18                                
ram:0007bf10    4860            str         r0,[r1,#0x4]=>DAT_20002c84              
ram:0007bf12    0021            movs        r1,#0x0                                 
ram:0007bf14    0948            ldr         r0=>DAT_0007d854,[PTR_DAT_0007bf3c]     ;= 20003180h
                                                                                    ;= 0007d854
ram:0007bf16    fff70df8        bl          FUN_0007af34                            ;undefined4 FUN_0007af34(int * param_...
ram:0007bf1a    08b1            cbz         r0,LAB_0007bf20                         
ram:0007bf1c    fef730ff        bl          FUN_0007ad80                            ;undefined FUN_0007ad80(void)
                            LAB_0007bf20:                 ;XREF[1,0]:   0007bf1a
ram:0007bf20    0022            movs        r2,#0x0                                 
ram:0007bf22    4ff47011        mov.w       r1,#0x3c0000                            
ram:0007bf26    3068            ldr         r0,[r6,#0x0]=>DAT_0007d854              ;= 20003180h
ram:0007bf28    fff776f8        bl          FUN_0007b018                            ;undefined4 FUN_0007b018(int param_1,...
ram:0007bf2c    08b1            cbz         r0,LAB_0007bf32                         
ram:0007bf2e    fef727ff        bl          FUN_0007ad80                            ;undefined FUN_0007ad80(void)
                            LAB_0007bf32:                 ;XREF[1,0]:   0007bf2c
ram:0007bf32    0120            movs        r0,#0x1                                 
ram:0007bf34    a560            str         r5,[r4,#0x8]=>DAT_20002c70              
ram:0007bf36    6070            strb        r0,[r4,#0x1]=>DAT_20002c69              
ram:0007bf38    0020            movs        r0,#0x0                                 
ram:0007bf3a    febd            pop         {r1,r2,r3,r4,r5,r6,r7,pc}               
                            PTR_DAT_0007bf3c:             ;XREF[2,0]:   0007bece,0007bf14
ram:0007bf3c    54d80700        addr        DAT_0007d854                            ;= 20003180h
                            DAT_0007bf40:                 ;XREF[3,0]:   0007bed0,0007bef2,0007bf0a
ram:0007bf40    682c0020        undefined4  20002C68h                               
                            PTR_LAB_0007c418+1+1_0007bf44:;XREF[1,0]:   0007bf0c
ram:0007bf44    19c40700        addr        LAB_0007c418+1+1                        
                            ;************************************************************************************************
                            ;*                                           FUNCTION                                           *
                            ;************************************************************************************************
                            ;int FUN_0007bf48(void)
                                                          ;XREF[1,0]:   0007d016
ram:0007bf48    10b5            push        {r4,lr}                                 
ram:0007bf4a    094c            ldr         r4,[DAT_0007bf70]                       ;= 20002C68h
ram:0007bf4c    0820            movs        r0,#0x8                                 
ram:0007bf4e    a168            ldr         r1,[r4,#0x8]=>DAT_20002c70              
ram:0007bf50    01b1            cbz         r1,LAB_0007bf54                         
                            LAB_0007bf52:                 ;XREF[1,0]:   0007bf58
ram:0007bf52    10bd            pop         {r4,pc}                                 
                            LAB_0007bf54:                 ;XREF[1,0]:   0007bf50
ram:0007bf54    6178            ldrb        r1,[r4,#0x1]=>DAT_20002c69              
ram:0007bf56    0429            cmp         r1,#0x4                                 
ram:0007bf58    fbd1            bne         LAB_0007bf52                            
ram:0007bf5a    a178            ldrb        r1,[r4,#0x2]=>DAT_20002c6a              
ram:0007bf5c    0548            ldr         r0,[DAT_0007bf74]                       ;= 200031B0h
ram:0007bf5e    00f047f8        bl          FUN_0007bff0                            ;undefined4 FUN_0007bff0(short * para...
ram:0007bf62    10b1            cbz         r0,LAB_0007bf6a                         
ram:0007bf64    0021            movs        r1,#0x0                                 
ram:0007bf66    a170            strb        r1,[r4,#0x2]=>DAT_20002c6a              
ram:0007bf68    10bd            pop         {r4,pc}                                 
                            LAB_0007bf6a:                 ;XREF[1,0]:   0007bf62
ram:0007bf6a    0521            movs        r1,#0x5                                 
ram:0007bf6c    6170            strb        r1,[r4,#0x1]=>DAT_20002c69              
ram:0007bf6e    10bd            pop         {r4,pc}                                 
                            DAT_0007bf70:                 ;XREF[1,0]:   0007bf4a
ram:0007bf70    682c0020        undefined4  20002C68h                               
                            DAT_0007bf74:                 ;XREF[1,0]:   0007bf5c
ram:0007bf74    b0310020        undefined4  200031B0h                               
                            ;************************************************************************************************
                            ;*                                           FUNCTION                                           *
                            ;************************************************************************************************
                            ;int FUN_0007bf78(int param_1, undefined4 param_2, undefined4 param_3, undefined4 param_4)
          ;param_1       int                 r0                      
          ;param_2       undefined4          r1                      
          ;param_3       undefined4          r2                      
          ;param_4       undefined4          r3                      
                                                          ;XREF[1,0]:   0007c7d0
ram:0007bf78    2de9f041        push        {r4,r5,r6,r7,r8,lr}                     
ram:0007bf7c    134c            ldr         r4,[DAT_0007bfcc]                       ;= 20002C68h
ram:0007bf7e    0746            mov         r7,param_1                              
ram:0007bf80    6078            ldrb        param_1,[r4,#0x1]=>DAT_20002c69         
ram:0007bf82    0328            cmp         param_1,#0x3                            
ram:0007bf84    05d0            beq         LAB_0007bf92                            
ram:0007bf86    0428            cmp         param_1,#0x4                            
ram:0007bf88    05d0            beq         LAB_0007bf96                            
ram:0007bf8a    0825            movs        r5,#0x8                                 
                            LAB_0007bf8c:                 ;XREF[1,0]:   0007bfc8
ram:0007bf8c    2846            mov         param_1,r5                              
                            LAB_0007bf8e:                 ;XREF[3,0]:   0007bf9c,0007bfa4,0007bfb4
ram:0007bf8e    bde8f081        pop.w       {r4,r5,r6,r7,r8,pc}                     
                            LAB_0007bf92:                 ;XREF[1,0]:   0007bf84
ram:0007bf92    0420            movs        param_1,#0x4                            
ram:0007bf94    6070            strb        param_1,[r4,#0x1]=>DAT_20002c69         
                            LAB_0007bf96:                 ;XREF[1,0]:   0007bf88
ram:0007bf96    a068            ldr         param_1,[r4,#0x8]=>DAT_20002c70         
ram:0007bf98    08b1            cbz         param_1,LAB_0007bf9e                    
ram:0007bf9a    0820            movs        param_1,#0x8                            
ram:0007bf9c    f7e7            b           LAB_0007bf8e                            
                            LAB_0007bf9e:                 ;XREF[1,0]:   0007bf98
ram:0007bf9e    00f049fa        bl          FUN_0007c434                            ;int FUN_0007c434(undefined4 param_1,...
ram:0007bfa2    0500            movs        r5,param_1                              
ram:0007bfa4    f3d1            bne         LAB_0007bf8e                            
ram:0007bfa6    7868            ldr         param_1,[r7,#0x4]                       
ram:0007bfa8    8600            lsls        r6,param_1,#0x2                         
ram:0007bfaa    a078            ldrb        param_1,[r4,#0x2]=>DAT_20002c6a         
ram:0007bfac    8119            adds        param_2,param_1,r6                      
ram:0007bfae    8029            cmp         param_2,#0x80                           
ram:0007bfb0    01d9            bls         LAB_0007bfb6                            
ram:0007bfb2    0920            movs        param_1,#0x9                            
ram:0007bfb4    ebe7            b           LAB_0007bf8e                            
                            LAB_0007bfb6:                 ;XREF[1,0]:   0007bfb0
ram:0007bfb6    064a            ldr         param_3,[DAT_0007bfd0]                  ;= 200031B0h
ram:0007bfb8    b968            ldr         param_2,[r7,#0x8]                       
ram:0007bfba    1044            add         param_1,param_3                         
ram:0007bfbc    3246            mov         param_3,r6                              
ram:0007bfbe    fef7ddfa        bl          FUN_0007a57c                            ;undefined FUN_0007a57c(undefined4 * ...
ram:0007bfc2    a078            ldrb        param_1,[r4,#0x2]=>DAT_20002c6a         
ram:0007bfc4    3044            add         param_1,r6                              
ram:0007bfc6    a070            strb        param_1,[r4,#0x2]=>DAT_20002c6a         
ram:0007bfc8    e0e7            b           LAB_0007bf8c                            
ram:0007bfca    0000            movs        r0,r0                                   
                            DAT_0007bfcc:                 ;XREF[1,0]:   0007bf7c
ram:0007bfcc    682c0020        undefined4  20002C68h                               
                            DAT_0007bfd0:                 ;XREF[1,0]:   0007bfb6
ram:0007bfd0    b0310020        undefined4  200031B0h                               
                            ;************************************************************************************************
                            ;*                                           FUNCTION                                           *
                            ;************************************************************************************************
                            ;undefined4 FUN_0007bfd4(int param_1, uint param_2)
          ;param_1       int                 r0                      
          ;param_2       uint                r1                      
                                                          ;XREF[1,0]:   0007beb4
ram:0007bfd4    10b5            push        {r4,lr}                                 
ram:0007bfd6    0022            movs        r2,#0x0                                 
ram:0007bfd8    fff772fd        bl          FUN_0007bac0                            ;uint FUN_0007bac0(int param_1, uint ...
ram:0007bfdc    0349            ldr         param_2,[DAT_0007bfec]                  ;= 2000323Ch
ram:0007bfde    0988            ldrh        param_2,[param_2,#0x0]=>DAT_2000323c    
ram:0007bfe0    8842            cmp         param_1,param_2                         
ram:0007bfe2    01d0            beq         LAB_0007bfe8                            
ram:0007bfe4    0b20            movs        param_1,#0xb                            
ram:0007bfe6    10bd            pop         {r4,pc}                                 
                            LAB_0007bfe8:                 ;XREF[1,0]:   0007bfe2
ram:0007bfe8    0020            movs        param_1,#0x0                            
ram:0007bfea    10bd            pop         {r4,pc}                                 
                            DAT_0007bfec:                 ;XREF[1,0]:   0007bfdc
ram:0007bfec    3c320020        undefined4  2000323Ch                               
                            ;************************************************************************************************
                            ;*                                           FUNCTION                                           *
                            ;************************************************************************************************
                            ;undefined4 FUN_0007bff0(short * param_1, uint param_2)
          ;param_1       short *             r0                      
          ;param_2       uint                r1                      
                                                          ;XREF[1,0]:   0007bf5e
ram:0007bff0    70b5            push        {r4,r5,r6,lr}                           
ram:0007bff2    0025            movs        r5,#0x0                                 
ram:0007bff4    0c29            cmp         param_2,#0xc                            
ram:0007bff6    0ed3            bcc         LAB_0007c016                            
ram:0007bff8    4318            adds        r3,param_1,param_2                      
ram:0007bffa    0189            ldrh        param_2,[param_1,#0x8]                  
ram:0007bffc    0446            mov         r4,param_1                              
ram:0007bffe    00eb4101        add.w       param_2,param_1,param_2, lsl #0x1       
ram:0007c002    581a            subs        param_1,r3,param_2                      
ram:0007c004    0a38            subs        param_1,#0xa                            
ram:0007c006    c2b2            uxtb        r2,param_1                              
ram:0007c008    1948            ldr         param_1,[DAT_0007c070]                  ;= 20002C90h
ram:0007c00a    022a            cmp         r2,#0x2                                 
ram:0007c00c    0270            strb        r2,[param_1,#0x0]=>DAT_20002c90         
ram:0007c00e    02d3            bcc         LAB_0007c016                            
ram:0007c010    0a31            adds        param_2,#0xa                            
ram:0007c012    8b42            cmp         r3,param_2                              
ram:0007c014    01d2            bcs         LAB_0007c01a                            
                            LAB_0007c016:                 ;XREF[2,0]:   0007bff6,0007c00e
ram:0007c016    0920            movs        param_1,#0x9                            
ram:0007c018    70bd            pop         {r4,r5,r6,pc}                           
                            LAB_0007c01a:                 ;XREF[1,0]:   0007c014
ram:0007c01a    1648            ldr         param_1=>DAT_2000323c,[DAT_0007c074]    ;= 2000323Ch
ram:0007c01c    fef7aefa        bl          FUN_0007a57c                            ;undefined FUN_0007a57c(undefined4 * ...
ram:0007c020    4ff01021        mov.w       param_2,#0x10001000                     
ram:0007c024    4ff6ff70        movw        param_1,#0xffff                         
ram:0007c028    b1f88020        ldrh.w      r2,[param_2,#offset DAT_10001080 &0xff] 
ram:0007c02c    8242            cmp         r2,param_1                              
ram:0007c02e    02d0            beq         LAB_0007c036                            
ram:0007c030    2388            ldrh        r3,[r4,#0x0]                            
ram:0007c032    9342            cmp         r3,r2                                   
ram:0007c034    19d1            bne         LAB_0007c06a                            
                            LAB_0007c036:                 ;XREF[1,0]:   0007c02e
ram:0007c036    b1f88210        ldrh.w      param_2,[param_2,#offset DAT_10001082...
ram:0007c03a    8142            cmp         param_2,param_1                         
ram:0007c03c    02d0            beq         LAB_0007c044                            
ram:0007c03e    6088            ldrh        param_1,[r4,#0x2]                       
ram:0007c040    8842            cmp         param_1,param_2                         
ram:0007c042    12d1            bne         LAB_0007c06a                            
                            LAB_0007c044:                 ;XREF[1,0]:   0007c03c
ram:0007c044    2089            ldrh        param_1,[r4,#0x8]                       
ram:0007c046    4ff6fe72        movw        r2,#0xfffe                              
ram:0007c04a    4ff44053        mov.w       r3,#0x3000                              
                            LAB_0007c04e:                 ;XREF[1,0]:   0007c064
ram:0007c04e    a842            cmp         param_1,r5                              
ram:0007c050    0bd9            bls         LAB_0007c06a                            
ram:0007c052    04eb4501        add.w       param_2,r4,r5, lsl #0x1                 
ram:0007c056    4989            ldrh        param_2,[param_2,#0xa]                  
ram:0007c058    9142            cmp         param_2,r2                              
ram:0007c05a    04d0            beq         LAB_0007c066                            
ram:0007c05c    9e89            ldrh        r6,[r3,#offset DAT_0000300c &0xff]      
ram:0007c05e    6d1c            adds        r5,r5,#0x1                              
ram:0007c060    b6b2            uxth        r6,r6                                   
ram:0007c062    b142            cmp         param_2,r6                              
ram:0007c064    f3d1            bne         LAB_0007c04e                            
                            LAB_0007c066:                 ;XREF[1,0]:   0007c05a
ram:0007c066    0020            movs        param_1,#0x0                            
ram:0007c068    70bd            pop         {r4,r5,r6,pc}                           
                            LAB_0007c06a:                 ;XREF[3,0]:   0007c034,0007c042,0007c050
ram:0007c06a    0b20            movs        param_1,#0xb                            
ram:0007c06c    70bd            pop         {r4,r5,r6,pc}                           
ram:0007c06e    0000            movs        r0,r0                                   
                            DAT_0007c070:                 ;XREF[1,0]:   0007c008
ram:0007c070    902c0020        undefined4  20002C90h                               
                            DAT_0007c074:                 ;XREF[1,0]:   0007c01a
ram:0007c074    3c320020        undefined4  2000323Ch                               
                            ;************************************************************************************************
                            ;*                                           FUNCTION                                           *
                            ;************************************************************************************************
                            ;undefined8 FUN_0007c078(int param_1)
          ;param_1       int                 r0                      
          ;local_12      undefined1         -12                      ;XREF[1,0]:   0007c0a0
          ;local_14      undefined2         -14                      ;XREF[1,0]:   0007c0a8
          ;local_18      undefined4         -18                      ;XREF[3,4]:   0007c0ac,0007c0ae,0007c0b8,0007c0bc,0007c0cc
                                                                     ;             0007c0d0,0007c0e2
          ;local_1c      undefined4         -1c                      ;XREF[1,0]:   0007c102
          ;local_20      undefined2         -20                      ;XREF[1,0]:   0007c0fe
          ;local_22      undefined2         -22                      ;XREF[1,0]:   0007c0fa
          ;local_24      undefined2         -24                      ;XREF[1,0]:   0007c0f4
          ;local_28      undefined4         -28                      ;XREF[1,0]:   0007c0f2
          ;local_2c      undefined4         -2c                      ;XREF[1,0]:   0007c0ee
          ;local_30      undefined4         -30                      ;XREF[1,0]:   0007c09c
          ;local_34      undefined4         -34                      ;XREF[1,0]:   0007c09a
          ;local_38      undefined4         -38                      ;XREF[1,0]:   0007c098
          ;local_3c      undefined4         -3c                      ;XREF[1,0]:   0007c096
          ;local_44      undefined4         -44                      ;XREF[1,0]:   0007c08c
          ;local_48      undefined1         -48                      ;XREF[2,0]:   0007c088,0007c092
                                                          ;XREF[1,0]:   0007b360
ram:0007c078    30b5            push        {r4,r5,lr}                              
ram:0007c07a    8fb0            sub         sp,#0x3c                                
ram:0007c07c    0546            mov         r5,param_1                              
ram:0007c07e    1c21            movs        r1,#0x1c                                
ram:0007c080    6846            mov         param_1,sp                              
ram:0007c082    fef794fa        bl          FUN_0007a5ae                            ;undefined FUN_0007a5ae(undefined * p...
ram:0007c086    0024            movs        r4,#0x0                                 
ram:0007c088    9df80000        ldrb.w      param_1,[sp,#0x0]=>local_48             
ram:0007c08c    0194            str         r4,[sp,#local_44+0x48]                  
ram:0007c08e    40f00400        orr         param_1,param_1,#0x4                    
ram:0007c092    8df80000        strb.w      param_1,[sp,#0x0]=>local_48             
ram:0007c096    0394            str         r4,[sp,#local_3c+0x48]                  
ram:0007c098    0494            str         r4,[sp,#local_38+0x48]                  
ram:0007c09a    0594            str         r4,[sp,#local_34+0x48]                  
ram:0007c09c    0694            str         r4,[sp,#local_30+0x48]                  
ram:0007c09e    a879            ldrb        param_1,[r5,#0x6]                       
ram:0007c0a0    8df83600        strb.w      param_1,[sp,#local_12+0x48]             
ram:0007c0a4    41f23250        movw        param_1,#0x1532                         
ram:0007c0a8    adf83400        strh.w      param_1,[sp,#local_14+0x48]             
ram:0007c0ac    0c94            str         r4,[sp,#local_18+0x48]                  
ram:0007c0ae    9df83000        ldrb.w      param_1,[sp,#local_18+0x48]             
ram:0007c0b2    1421            movs        r1,#0x14                                
ram:0007c0b4    20f0ff00        bic         param_1,param_1,#0xff                   
ram:0007c0b8    8df83000        strb.w      param_1,[sp,#local_18+0x48]             
ram:0007c0bc    9df83100        ldrb.w      param_1,[sp,#local_18+0x49]             
ram:0007c0c0    20f00f00        bic         param_1,param_1,#0xf                    
ram:0007c0c4    401c            adds        param_1,param_1,#0x1                    
ram:0007c0c6    20f0f000        bic         param_1,param_1,#0xf0                   
ram:0007c0ca    1030            adds        param_1,#0x10                           
ram:0007c0cc    8df83100        strb.w      param_1,[sp,#local_18+0x49]             
ram:0007c0d0    9df83200        ldrb.w      param_1,[sp,#local_18+0x4a]             
ram:0007c0d4    20f00600        bic         param_1,param_1,#0x6                    
ram:0007c0d8    801c            adds        param_1,param_1,#0x2                    
ram:0007c0da    20f01800        bic         param_1,param_1,#0x18                   
ram:0007c0de    40f00100        orr         param_1,param_1,#0x1                    
ram:0007c0e2    8df83200        strb.w      param_1,[sp,#local_18+0x4a]             
ram:0007c0e6    07a8            add         param_1,sp,#0x1c                        
ram:0007c0e8    fef761fa        bl          FUN_0007a5ae                            ;undefined FUN_0007a5ae(undefined * p...
ram:0007c0ec    0da8            add         param_1,sp,#0x34                        
ram:0007c0ee    0790            str         param_1,[sp,#local_2c+0x48]             
ram:0007c0f0    0ca8            add         param_1,sp,#0x30                        
ram:0007c0f2    0890            str         param_1,[sp,#local_28+0x48]             
ram:0007c0f4    adf82440        strh.w      r4,[sp,#local_24+0x48]                  
ram:0007c0f8    1420            movs        param_1,#0x14                           
ram:0007c0fa    adf82640        strh.w      r4,[sp,#local_22+0x48]                  
ram:0007c0fe    adf82800        strh.w      param_1,[sp,#local_20+0x48]             
ram:0007c102    0b94            str         r4,[sp,#local_1c+0x48]                  
ram:0007c104    a888            ldrh        param_1,[r5,#0x4]                       
ram:0007c106    05f10803        add.w       r3,r5,#0x8                              
ram:0007c10a    07aa            add         r2,sp,#0x1c                             
ram:0007c10c    6946            mov         r1,sp                                   
ram:0007c10e    a2df            svc         0xa2                                    
ram:0007c110    0fb0            add         sp,#0x3c                                
ram:0007c112    30bd            pop         {r4,r5,pc}                              
                            ;************************************************************************************************
                            ;*                                           FUNCTION                                           *
                            ;************************************************************************************************
                            ;undefined FUN_0007c114(void)
                                                          ;XREF[1,0]:   0007c3ee
ram:0007c114    0849            ldr         r1,[DAT_0007c138]                       ;= 20002C88h
ram:0007c116    10b5            push        {r4,lr}                                 
ram:0007c118    a1f12000        sub.w       r0,r1,#0x20                             
ram:0007c11c    0161            str         r1=>DAT_20002c88,[r0,#0x10]=>DAT_2000...
ram:0007c11e    0221            movs        r1,#0x2                                 
ram:0007c120    4170            strb        r1,[r0,#0x1]=>DAT_20002c69              
ram:0007c122    c168            ldr         r1,[r0,#0xc]=>DAT_20002c74              
ram:0007c124    2030            adds        r0=>DAT_20002c88,#0x20                  
ram:0007c126    00f0e7ff        bl          FUN_0007d0f8                            ;undefined FUN_0007d0f8(undefined4 * ...
ram:0007c12a    0028            cmp         r0,#0x0                                 
ram:0007c12c    03d0            beq         LAB_0007c136                            
ram:0007c12e    bde81040        pop.w       {r4,lr}                                 
ram:0007c132    fef725be        b.w         FUN_0007ad80                            ;undefined FUN_0007ad80(void)
                            LAB_0007c136:                 ;XREF[1,0]:   0007c12c
ram:0007c136    10bd            pop         {r4,pc}                                 
                            DAT_0007c138:                 ;XREF[1,0]:   0007c114
ram:0007c138    882c0020        undefined4  20002C88h                               
                            ;************************************************************************************************
                            ;*                                           FUNCTION                                           *
                            ;************************************************************************************************
                            ;undefined LAB_0007c13c+1(void)
                                                          ;XREF[0,2]:   0007c3c4,0007c408
ram:0007c13c    0b49            ldr         r1,[DAT_0007c16c]                       ;= 20002C80h
ram:0007c13e    10b5            push        {r4,lr}                                 
ram:0007c140    a1f11800        sub.w       r0,r1,#0x18                             
ram:0007c144    0161            str         r1=>DAT_20002c80,[r0,#0x10]=>DAT_2000...
ram:0007c146    0221            movs        r1,#0x2                                 
ram:0007c148    4170            strb        r1,[r0,#0x1]=>DAT_20002c69              
ram:0007c14a    4ff44050        mov.w       r0,#0x3000                              
ram:0007c14e    8068            ldr         r0,[r0,#offset DAT_00003008 &0xff]      
ram:0007c150    c0f5f420        rsb.w       r0,r0,#MasterStackPointer               ;= 20005408
ram:0007c154    4108            lsrs        r1,r0,#0x1                              
ram:0007c156    0548            ldr         r0=>DAT_20002c80,[DAT_0007c16c]         ;= 20002C80h
ram:0007c158    00f0ceff        bl          FUN_0007d0f8                            ;undefined FUN_0007d0f8(undefined4 * ...
ram:0007c15c    0028            cmp         r0,#0x0                                 
ram:0007c15e    03d0            beq         LAB_0007c168                            
ram:0007c160    bde81040        pop.w       {r4,lr}                                 
ram:0007c164    fef70cbe        b.w         FUN_0007ad80                            ;undefined FUN_0007ad80(void)
                            LAB_0007c168:                 ;XREF[1,0]:   0007c15e
ram:0007c168    10bd            pop         {r4,pc}                                 
ram:0007c16a    0000            movs        r0,r0                                   
                            DAT_0007c16c:                 ;XREF[2,0]:   0007c13c,0007c156
ram:0007c16c    802c0020        undefined4  20002C80h                               
                            ;************************************************************************************************
                            ;*                                           FUNCTION                                           *
                            ;************************************************************************************************
                            ;undefined FUN_0007c170(undefined4 param_1)
          ;param_1       undefined4          r0                      
                                                          ;XREF[1,0]:   0007c4e8
ram:0007c170    0149            ldr         r1,[DAT_0007c178]                       ;= 20002C68h
ram:0007c172    4861            str         param_1,[r1,#0x14]=>DAT_20002c7c        
ram:0007c174    7047            bx          lr                                      
ram:0007c176    0000            movs        r0,r0                                   
                            DAT_0007c178:                 ;XREF[1,0]:   0007c170
ram:0007c178    682c0020        undefined4  20002C68h                               
                            ;************************************************************************************************
                            ;*                                           FUNCTION                                           *
                            ;************************************************************************************************
                            ;undefined FUN_0007c17c(uint param_1, int param_2, int param_3, char * param_4)
          ;param_1       uint                r0                      
          ;param_2       int                 r1                      
          ;param_3       int                 r2                      
          ;param_4       char *              r3                      
          ;local_10      undefined4         -10                      ;XREF[1,0]:   0007c184
                                                          ;XREF[1,0]:   0007cffc
ram:0007c17c    38b5            push        {param_4,r4,r5,lr}                      
ram:0007c17e    0625            movs        r5,#0x6                                 
ram:0007c180    65f30700        bfi         param_1,r5,#0x0,#0x8                    
ram:0007c184    0094            str         r4,[sp,#0x0]=>local_10                  
ram:0007c186    fff7a1fa        bl          FUN_0007b6cc                            ;undefined FUN_0007b6cc(uint param_1,...
ram:0007c18a    38bd            pop         {param_4,r4,r5,pc}                      
                            ;************************************************************************************************
                            ;*                                           FUNCTION                                           *
                            ;************************************************************************************************
                            ;undefined8 FUN_0007c18c(int param_1)
          ;param_1       int                 r0                      
          ;local_12      undefined1         -12                      ;XREF[1,0]:   0007c1b6
          ;local_14      undefined2         -14                      ;XREF[1,0]:   0007c1be
          ;local_18      undefined4         -18                      ;XREF[3,4]:   0007c1c2,0007c1c4,0007c1d6,0007c1da,0007c1e2
                                                                     ;             0007c1e6,0007c1f8
          ;local_1c      undefined4         -1c                      ;XREF[1,0]:   0007c218
          ;local_20      undefined2         -20                      ;XREF[1,0]:   0007c214
          ;local_22      undefined2         -22                      ;XREF[1,0]:   0007c210
          ;local_24      undefined2         -24                      ;XREF[1,0]:   0007c20c
          ;local_28      undefined4         -28                      ;XREF[1,0]:   0007c208
          ;local_2c      undefined4         -2c                      ;XREF[1,0]:   0007c204
          ;local_30      undefined4         -30                      ;XREF[1,0]:   0007c1b2
          ;local_34      undefined4         -34                      ;XREF[1,0]:   0007c1b0
          ;local_38      undefined4         -38                      ;XREF[1,0]:   0007c1ae
          ;local_3c      undefined4         -3c                      ;XREF[1,0]:   0007c1ac
          ;local_44      undefined4         -44                      ;XREF[1,0]:   0007c1a2
          ;local_48      undefined1         -48                      ;XREF[2,0]:   0007c19e,0007c1a8
                                                          ;XREF[1,0]:   0007b376
ram:0007c18c    70b5            push        {r4,r5,r6,lr}                           
ram:0007c18e    8eb0            sub         sp,#0x38                                
ram:0007c190    0e46            mov         r6,r1                                   
ram:0007c192    0546            mov         r5,param_1                              
ram:0007c194    1c21            movs        r1,#0x1c                                
ram:0007c196    6846            mov         param_1,sp                              
ram:0007c198    fef709fa        bl          FUN_0007a5ae                            ;undefined FUN_0007a5ae(undefined * p...
ram:0007c19c    0024            movs        r4,#0x0                                 
ram:0007c19e    9df80000        ldrb.w      param_1,[sp,#0x0]=>local_48             
ram:0007c1a2    0194            str         r4,[sp,#local_44+0x48]                  
ram:0007c1a4    40f00200        orr         param_1,param_1,#0x2                    
ram:0007c1a8    8df80000        strb.w      param_1,[sp,#0x0]=>local_48             
ram:0007c1ac    0394            str         r4,[sp,#local_3c+0x48]                  
ram:0007c1ae    0494            str         r4,[sp,#local_38+0x48]                  
ram:0007c1b0    0594            str         r4,[sp,#local_34+0x48]                  
ram:0007c1b2    0694            str         r4,[sp,#local_30+0x48]                  
ram:0007c1b4    a879            ldrb        param_1,[r5,#0x6]                       
ram:0007c1b6    8df83600        strb.w      param_1,[sp,#local_12+0x48]             
ram:0007c1ba    41f23450        movw        param_1,#0x1534                         
ram:0007c1be    adf83400        strh.w      param_1,[sp,#local_14+0x48]             
ram:0007c1c2    0c94            str         r4,[sp,#local_18+0x48]                  
ram:0007c1c4    9df83000        ldrb.w      param_1,[sp,#local_18+0x48]             
ram:0007c1c8    1421            movs        r1,#0x14                                
ram:0007c1ca    20f00f00        bic         param_1,param_1,#0xf                    
ram:0007c1ce    401c            adds        param_1,param_1,#0x1                    
ram:0007c1d0    20f0f000        bic         param_1,param_1,#0xf0                   
ram:0007c1d4    1030            adds        param_1,#0x10                           
ram:0007c1d6    8df83000        strb.w      param_1,[sp,#local_18+0x48]             
ram:0007c1da    9df83100        ldrb.w      param_1,[sp,#local_18+0x49]             
ram:0007c1de    20f0ff00        bic         param_1,param_1,#0xff                   
ram:0007c1e2    8df83100        strb.w      param_1,[sp,#local_18+0x49]             
ram:0007c1e6    9df83200        ldrb.w      param_1,[sp,#local_18+0x4a]             
ram:0007c1ea    20f00600        bic         param_1,param_1,#0x6                    
ram:0007c1ee    801c            adds        param_1,param_1,#0x2                    
ram:0007c1f0    20f01800        bic         param_1,param_1,#0x18                   
ram:0007c1f4    40f00100        orr         param_1,param_1,#0x1                    
ram:0007c1f8    8df83200        strb.w      param_1,[sp,#local_18+0x4a]             
ram:0007c1fc    07a8            add         param_1,sp,#0x1c                        
ram:0007c1fe    fef7d6f9        bl          FUN_0007a5ae                            ;undefined FUN_0007a5ae(undefined * p...
ram:0007c202    0da8            add         param_1,sp,#0x34                        
ram:0007c204    0790            str         param_1,[sp,#local_2c+0x48]             
ram:0007c206    0ca8            add         param_1,sp,#0x30                        
ram:0007c208    0890            str         param_1,[sp,#local_28+0x48]             
ram:0007c20a    0220            movs        param_1,#0x2                            
ram:0007c20c    adf82400        strh.w      param_1,[sp,#local_24+0x48]             
ram:0007c210    adf82640        strh.w      r4,[sp,#local_22+0x48]                  
ram:0007c214    adf82800        strh.w      param_1,[sp,#local_20+0x48]             
ram:0007c218    0b96            str         r6,[sp,#local_1c+0x48]                  
ram:0007c21a    a888            ldrh        param_1,[r5,#0x4]                       
ram:0007c21c    05f12003        add.w       r3,r5,#0x20                             
ram:0007c220    07aa            add         r2,sp,#0x1c                             
ram:0007c222    6946            mov         r1,sp                                   
ram:0007c224    a2df            svc         0xa2                                    
ram:0007c226    0eb0            add         sp,#0x38                                
ram:0007c228    70bd            pop         {r4,r5,r6,pc}                           
                            ;************************************************************************************************
                            ;*                                           FUNCTION                                           *
                            ;************************************************************************************************
                            ;undefined FUN_0007c22a(undefined4 param_1, undefined4 param_2, undefined4 param_3, undefined * param_4)
          ;param_1       undefined4          r0                      
          ;param_2       undefined4          r1                      
          ;param_3       undefined4          r2                      
          ;param_4       undefined *         r3                      
          ;local_20      undefined4         -20                      ;XREF[2,0]:   0007c23c,0007c29c
          ;local_2c      undefined4         -2c                      ;XREF[3,0]:   0007c236,0007c252,0007c29a
                                                          ;XREF[1,0]:   0007b664
ram:0007c22a    2de9f041        push        {r4,r5,r6,r7,r8,lr}                     
ram:0007c22e    88b0            sub         sp,#0x20                                
ram:0007c230    6846            mov         param_1,sp                              
ram:0007c232    fff7d3fa        bl          FUN_0007b7dc                            ;undefined FUN_0007b7dc(undefined * p...
ram:0007c236    0398            ldr         param_1,[sp,#local_2c+0x38]             
ram:0007c238    0028            cmp         param_1,#0x0                            
ram:0007c23a    2bd0            beq         LAB_0007c294                            
ram:0007c23c    069a            ldr         param_3,[sp,#local_20+0x38]             
ram:0007c23e    00f58050        add.w       param_1,param_1,#0x1000                 
ram:0007c242    4ff48051        mov.w       param_2,#0x1000                         
ram:0007c246    9042            cmp         param_1,param_3                         
ram:0007c248    27d9            bls         LAB_0007c29a                            
ram:0007c24a    a2f58050        sub.w       param_1,param_3,#0x1000                 
ram:0007c24e    4408            lsrs        r4,param_1,#0x1                         
ram:0007c250    1046            mov         param_1,param_3                         
ram:0007c252    039a            ldr         param_3,[sp,#local_2c+0x38]             
ram:0007c254    00eb4406        add.w       r6,param_1,r4, lsl #0x1                 
ram:0007c258    8718            adds        r7,param_1,param_3                      
ram:0007c25a    4ff44050        mov.w       param_1,#0x3000                         
ram:0007c25e    0d46            mov         r5,param_2                              
ram:0007c260    8068            ldr         param_1,[param_1,#offset DAT_00003008...
ram:0007c262    01eb4408        add.w       r8,param_2,r4, lsl #0x1                 
ram:0007c266    9042            cmp         param_1,param_3                         
ram:0007c268    0ed2            bcs         LAB_0007c288                            
ram:0007c26a    04f58050        add.w       param_1,r4,#0x1000                      
ram:0007c26e    0422            movs        param_3,#0x4                            
ram:0007c270    0146            mov         param_2,param_1                         
ram:0007c272    fff74ffd        bl          FUN_0007bd14                            ;undefined * FUN_0007bd14(void)
ram:0007c276    0028            cmp         param_1,#0x0                            
ram:0007c278    0cd1            bne         LAB_0007c294                            
ram:0007c27a    2946            mov         param_2,r5                              
ram:0007c27c    0422            movs        param_3,#0x4                            
ram:0007c27e    0846            mov         param_1,param_2                         
ram:0007c280    fff748fd        bl          FUN_0007bd14                            ;undefined * FUN_0007bd14(void)
ram:0007c284    0028            cmp         param_1,#0x0                            
ram:0007c286    05d1            bne         LAB_0007c294                            
                            LAB_0007c288:                 ;XREF[1,0]:   0007c268
ram:0007c288    ba1b            subs        param_3,r7,r6                           
ram:0007c28a    2346            mov         param_4,r4                              
ram:0007c28c    4146            mov         param_2,r8                              
ram:0007c28e    3046            mov         param_1,r6                              
ram:0007c290    00f038f8        bl          FUN_0007c304                            ;undefined FUN_0007c304(int param_1, ...
                            LAB_0007c294:                 ;XREF[4,0]:   0007c23a,0007c278,0007c286,0007c2a2
ram:0007c294    08b0            add         sp,#0x20                                
ram:0007c296    bde8f081        pop.w       {r4,r5,r6,r7,r8,pc}                     
                            LAB_0007c29a:                 ;XREF[1,0]:   0007c248
ram:0007c29a    039a            ldr         param_3,[sp,#local_2c+0x38]             
ram:0007c29c    0698            ldr         param_1,[sp,#local_20+0x38]             
ram:0007c29e    fff739fd        bl          FUN_0007bd14                            ;undefined * FUN_0007bd14(void)
ram:0007c2a2    f7e7            b           LAB_0007c294                            
                            ;************************************************************************************************
                            ;*                                           FUNCTION                                           *
                            ;************************************************************************************************
                            ;undefined * FUN_0007c2a4(undefined4 param_1, undefined4 param_2, undefined4 param_3, undefined * param_4)
          ;param_1       undefined4          r0                      
          ;param_2       undefined4          r1                      
          ;param_3       undefined4          r2                      
          ;param_4       undefined *         r3                      
          ;local_10      undefined4         -10                      ;XREF[1,0]:   0007c2fc
          ;local_1c      undefined4         -1c                      ;XREF[1,0]:   0007c2f4
          ;local_28      undefined4         -28                      ;XREF[1,0]:   0007c2b4
          ;local_34      undefined4         -34                      ;XREF[4,0]:   0007c2ae,0007c2ce,0007c2d2,0007c2f8
                                                          ;XREF[2,0]:   0007b650,0007b66e
ram:0007c2a4    30b5            push        {r4,r5,lr}                              
ram:0007c2a6    8fb0            sub         sp,#0x3c                                
ram:0007c2a8    02a8            add         param_1,sp,#0x8                         
ram:0007c2aa    fff797fa        bl          FUN_0007b7dc                            ;undefined FUN_0007b7dc(undefined * p...
ram:0007c2ae    0598            ldr         param_1,[sp,#local_34+0x48]             
ram:0007c2b0    0028            cmp         param_1,#0x0                            
ram:0007c2b2    17d0            beq         LAB_0007c2e4                            
ram:0007c2b4    089a            ldr         param_3,[sp,#local_28+0x48]             
ram:0007c2b6    00f58050        add.w       param_1,param_1,#0x1000                 
ram:0007c2ba    4ff48051        mov.w       param_2,#0x1000                         
ram:0007c2be    9042            cmp         param_1,param_3                         
ram:0007c2c0    16d9            bls         LAB_0007c2f0                            
ram:0007c2c2    a2f58050        sub.w       param_1,param_3,#0x1000                 
ram:0007c2c6    4308            lsrs        param_4,param_1,#0x1                    
ram:0007c2c8    1046            mov         param_1,param_3                         
ram:0007c2ca    4ff44054        mov.w       r4,#0x3000                              
ram:0007c2ce    059a            ldr         param_3,[sp,#local_34+0x48]             
ram:0007c2d0    a468            ldr         r4,[r4,#offset DAT_00003008 &0xff]      
ram:0007c2d2    059d            ldr         r5,[sp,#local_34+0x48]                  
ram:0007c2d4    0244            add         param_3,param_1                         
ram:0007c2d6    00eb4300        add.w       param_1,param_1,param_4, lsl #0x1       
ram:0007c2da    01eb4301        add.w       param_2,param_2,param_4, lsl #0x1       
ram:0007c2de    ac42            cmp         r4,r5                                   
ram:0007c2e0    02d2            bcs         LAB_0007c2e8                            
ram:0007c2e2    0e20            movs        param_1,#0xe                            
                            LAB_0007c2e4:                 ;XREF[3,0]:   0007c2b2,0007c2ee,0007c302
ram:0007c2e4    0fb0            add         sp,#0x3c                                
ram:0007c2e6    30bd            pop         {r4,r5,pc}                              
                            LAB_0007c2e8:                 ;XREF[1,0]:   0007c2e0
ram:0007c2e8    121a            subs        param_3,param_3,param_1                 
ram:0007c2ea    00f00bf8        bl          FUN_0007c304                            ;undefined FUN_0007c304(int param_1, ...
ram:0007c2ee    f9e7            b           LAB_0007c2e4                            
                            LAB_0007c2f0:                 ;XREF[1,0]:   0007c2c0
ram:0007c2f0    0bab            add         param_4,sp,#0x2c                        
ram:0007c2f2    0320            movs        param_1,#0x3                            
ram:0007c2f4    83e80700        stm         param_4=>local_1c,{param_1,param_2,pa...
ram:0007c2f8    0598            ldr         param_1,[sp,#local_34+0x48]             
ram:0007c2fa    8008            lsrs        param_1,param_1,#0x2                    
ram:0007c2fc    0e90            str         param_1,[sp,#local_10+0x48]             
ram:0007c2fe    0ba8            add         param_1,sp,#0x2c                        
ram:0007c300    18df            svc         0x18                                    
ram:0007c302    efe7            b           LAB_0007c2e4                            
                            ;************************************************************************************************
                            ;*                                           FUNCTION                                           *
                            ;************************************************************************************************
                            ;undefined FUN_0007c304(int param_1, uint param_2, undefined4 param_3, int param_4)
          ;param_1       int                 r0                      
          ;param_2       uint                r1                      
          ;param_3       undefined4          r2                      
          ;param_4       int                 r3                      
                                                          ;XREF[3,0]:   0007c290,0007c2ea,0007c326
ram:0007c304    2de9f041        push        {r4,r5,r6,r7,r8,lr}                     
ram:0007c308    1c46            mov         r4,param_4                              
ram:0007c30a    1746            mov         r7,param_3                              
ram:0007c30c    0d46            mov         r5,param_2                              
ram:0007c30e    0646            mov         r6,param_1                              
ram:0007c310    fff7f5fc        bl          FUN_0007bcfe                            ;undefined * FUN_0007bcfe(void)
ram:0007c314    0028            cmp         param_1,#0x0                            
ram:0007c316    18d0            beq         LAB_0007c34a                            
ram:0007c318    b5f5805f        cmp.w       r5,#0x1000                              
ram:0007c31c    07d9            bls         LAB_0007c32e                            
ram:0007c31e    2346            mov         param_4,r4                              
ram:0007c320    291b            subs        param_2,r5,r4                           
ram:0007c322    301b            subs        param_1,r6,r4                           
ram:0007c324    1a46            mov         param_3,param_4                         
ram:0007c326    fff7edff        bl          FUN_0007c304                            ;undefined FUN_0007c304(int param_1, ...
ram:0007c32a    0028            cmp         param_1,#0x0                            
ram:0007c32c    0dd1            bne         LAB_0007c34a                            
                            LAB_0007c32e:                 ;XREF[1,0]:   0007c31c
ram:0007c32e    3a46            mov         param_3,r7                              
ram:0007c330    2946            mov         param_2,r5                              
ram:0007c332    3046            mov         param_1,r6                              
ram:0007c334    fff7eefc        bl          FUN_0007bd14                            ;undefined * FUN_0007bd14(void)
ram:0007c338    0028            cmp         param_1,#0x0                            
ram:0007c33a    06d1            bne         LAB_0007c34a                            
ram:0007c33c    3a46            mov         param_3,r7                              
ram:0007c33e    2946            mov         param_2,r5                              
ram:0007c340    3046            mov         param_1,r6                              
ram:0007c342    bde8f041        pop.w       {r4,r5,r6,r7,r8,lr}                     
ram:0007c346    fff7dabc        b.w         FUN_0007bcfe                            ;undefined * FUN_0007bcfe(void)
                            LAB_0007c34a:                 ;XREF[3,0]:   0007c316,0007c32c,0007c33a
ram:0007c34a    bde8f081        pop.w       {r4,r5,r6,r7,r8,pc}                     
ram:0007c34e    00              ??          00h                                     
ram:0007c34f    00              ??          00h                                     
                            ;************************************************************************************************
                            ;*                                           FUNCTION                                           *
                            ;************************************************************************************************
                            ;int FUN_0007c350(int param_1)
          ;param_1       int                 r0                      
                                                          ;XREF[1,0]:   0007d4be
ram:0007c350    70b5            push        {r4,r5,r6,lr}                           
ram:0007c352    4268            ldr         r2,[param_1,#0x4]                       
ram:0007c354    2748            ldr         param_1,[DAT_0007c3f4]                  ;= 200031A0h
ram:0007c356    d2e90043        ldrd        r4,r3,[r2,#0x0]                         
ram:0007c35a    d2e90212        ldrd        r1,r2,[r2,#0x8]                         
                                                          ; FWD[2,0]:   200031a8,200031ac
ram:0007c35e    c0e90212        strd        r1,r2,[param_1,#0x8]=>DAT_200031a8      
                                                          ; FWD[2,0]:   200031a0,200031a4
ram:0007c362    c0e90043        strd        r4,r3,[param_1,#0x0]=>DAT_200031a0      
ram:0007c366    0078            ldrb        param_1,[param_1,#0x0]=>DAT_200031a0    
ram:0007c368    4407            lsls        r4,param_1,#0x1d                        
ram:0007c36a    01d5            bpl         LAB_0007c370                            
ram:0007c36c    8407            lsls        r4,param_1,#0x1e                        
ram:0007c36e    05d1            bne         LAB_0007c37c                            
                            LAB_0007c370:                 ;XREF[1,0]:   0007c36a
ram:0007c370    9c07            lsls        r4,r3,#0x1e                             
ram:0007c372    03d1            bne         LAB_0007c37c                            
ram:0007c374    8c07            lsls        r4,r1,#0x1e                             
ram:0007c376    01d1            bne         LAB_0007c37c                            
ram:0007c378    9407            lsls        r4,r2,#0x1e                             
ram:0007c37a    01d0            beq         LAB_0007c380                            
                            LAB_0007c37c:                 ;XREF[3,0]:   0007c36e,0007c372,0007c376
ram:0007c37c    0620            movs        param_1,#0x6                            
ram:0007c37e    70bd            pop         {r4,r5,r6,pc}                           
                            LAB_0007c380:                 ;XREF[1,0]:   0007c37a
ram:0007c380    1d4d            ldr         r5,[DAT_0007c3f8]                       ;= 20002C68h
ram:0007c382    0b44            add         r3,r1                                   
ram:0007c384    1a44            add         r2,r3                                   
ram:0007c386    ea60            str         r2,[r5,#0xc]=>DAT_20002c74              
ram:0007c388    b1f5a04f        cmp.w       r1,#0x5000                              
ram:0007c38c    17d8            bhi         LAB_0007c3be                            
ram:0007c38e    194c            ldr         r4,[DAT_0007c3f4]                       ;= 200031A0h
ram:0007c390    c307            lsls        r3,param_1,#0x1f                        
ram:0007c392    4ff44051        mov.w       r1,#0x3000                              
ram:0007c396    04f19004        add.w       r4,r4,#0x90                             
ram:0007c39a    0ad0            beq         LAB_0007c3b2                            
ram:0007c39c    8868            ldr         param_1,[r1,#offset DAT_00003008 &0xff] 
ram:0007c39e    c0f5f420        rsb.w       param_1,param_1,#MasterStackPointer     ;= 20005408
ram:0007c3a2    9042            cmp         param_1,r2                              
ram:0007c3a4    0bd3            bcc         LAB_0007c3be                            
ram:0007c3a6    1548            ldr         param_1,[DAT_0007c3fc]                  ;= 0007C115h
ram:0007c3a8    2060            str         param_1,[r4,#0x0]=>DAT_20003230         
ram:0007c3aa    1548            ldr         param_1,[PTR_FUN_0007bcd4+1_0007c400]   ;= 0007bcd5
ram:0007c3ac    6060            str         param_1=>FUN_000...,[r4,#0x4]=>DAT_20...
ram:0007c3ae    1548            ldr         param_1,[PTR_LAB_0007bb84+1+1_0007c404] ;= 0007bb85
ram:0007c3b0    10e0            b           LAB_0007c3d4                            
                            LAB_0007c3b2:                 ;XREF[1,0]:   0007c39a
ram:0007c3b2    8968            ldr         r1,[r1,#offset DAT_00003008 &0xff]      
ram:0007c3b4    c1f5f421        rsb.w       r1,r1,#MasterStackPointer               ;= 20005408
ram:0007c3b8    b2eb510f        cmp.w       r2,r1, lsr #0x1                         
ram:0007c3bc    01d9            bls         LAB_0007c3c2                            
                            LAB_0007c3be:                 ;XREF[2,0]:   0007c38c,0007c3a4
ram:0007c3be    0c20            movs        param_1,#0xc                            
ram:0007c3c0    70bd            pop         {r4,r5,r6,pc}                           
                            LAB_0007c3c2:                 ;XREF[1,0]:   0007c3bc
ram:0007c3c2    1149            ldr         r1,[PTR_LAB_0007c13c+1+1_0007c408]      ;= 0007c13d
ram:0007c3c4    2160            str         r1=>LAB_0007c13c...,[r4,#0x0]=>DAT_20...
ram:0007c3c6    1149            ldr         r1,[PTR_LAB_0007bcfc+1+1_0007c40c]      ;= 0007bcfd
ram:0007c3c8    6160            str         r1=>LAB_0007bcfc...,[r4,#0x4]=>DAT_20...
ram:0007c3ca    8007            lsls        param_1,param_1,#0x1e                   
ram:0007c3cc    01d5            bpl         LAB_0007c3d2                            
ram:0007c3ce    1048            ldr         param_1,[PTR_LAB_0007bb5c+1+1_0007c410] ;= 0007bb5d
ram:0007c3d0    00e0            b           LAB_0007c3d4                            
                            LAB_0007c3d2:                 ;XREF[1,0]:   0007c3cc
ram:0007c3d2    1048            ldr         param_1,[DAT_0007c414]                  ;= 0007BAF9h
                            LAB_0007c3d4:                 ;XREF[2,0]:   0007c3b0,0007c3d0
                                                          ; FWD[3,0]:   0007bb5d,0007bb85,20003238
ram:0007c3d4    a060            str         param_1=>LAB_000...,[r4,#0x8]=>DAT_20...
ram:0007c3d6    6878            ldrb        param_1,[r5,#0x1]=>DAT_20002c69         
ram:0007c3d8    0128            cmp         param_1,#0x1                            
ram:0007c3da    02d0            beq         LAB_0007c3e2                            
ram:0007c3dc    0826            movs        r6,#0x8                                 
                            LAB_0007c3de:                 ;XREF[1,0]:   0007c3f0
ram:0007c3de    3046            mov         param_1,r6                              
                            LAB_0007c3e0:                 ;XREF[1,0]:   0007c3e8
ram:0007c3e0    70bd            pop         {r4,r5,r6,pc}                           
                            LAB_0007c3e2:                 ;XREF[1,0]:   0007c3da
ram:0007c3e2    00f027f8        bl          FUN_0007c434                            ;int FUN_0007c434(undefined4 param_1,...
ram:0007c3e6    0600            movs        r6,param_1                              
ram:0007c3e8    fad1            bne         LAB_0007c3e0                            
ram:0007c3ea    2168            ldr         r1,[r4,#0x0]=>DAT_20003230              
ram:0007c3ec    e868            ldr         param_1,[r5,#0xc]=>DAT_20002c74         
ram:0007c3ee    8847            blx         r1=>FUN_0007c114                        ;undefined FUN_0007c114(void)
ram:0007c3f0    f5e7            b           LAB_0007c3de                            
ram:0007c3f2    0000            movs        r0,r0                                   
                            DAT_0007c3f4:                 ;XREF[2,0]:   0007c354,0007c38e
ram:0007c3f4    a0310020        undefined4  200031A0h                               
                            DAT_0007c3f8:                 ;XREF[1,0]:   0007c380
ram:0007c3f8    682c0020        undefined4  20002C68h                               
                            DAT_0007c3fc:                 ;XREF[1,0]:   0007c3a6
ram:0007c3fc    15c10700        undefined4  0007C115h                               ;?  ->  0007c115
                            PTR_FUN_0007bcd4+1_0007c400:  ;XREF[1,0]:   0007c3aa
ram:0007c400    d5bc0700        addr        FUN_0007bcd4+1                          
                            PTR_LAB_0007bb84+1+1_0007c404:;XREF[1,0]:   0007c3ae
ram:0007c404    85bb0700        addr        LAB_0007bb84+1+1                        
                            PTR_LAB_0007c13c+1+1_0007c408:;XREF[1,0]:   0007c3c2
ram:0007c408    3dc10700        addr        LAB_0007c13c+1+1                        
                            PTR_LAB_0007bcfc+1+1_0007c40c:;XREF[1,0]:   0007c3c6
ram:0007c40c    fdbc0700        addr        LAB_0007bcfc+1+1                        
                            PTR_LAB_0007bb5c+1+1_0007c410:;XREF[1,0]:   0007c3ce
ram:0007c410    5dbb0700        addr        LAB_0007bb5c+1+1                        
                            DAT_0007c414:                 ;XREF[1,0]:   0007c3d2
ram:0007c414    f9ba0700        undefined4  0007BAF9h                               ;?  ->  0007baf9
                            ;************************************************************************************************
                            ;*                                           FUNCTION                                           *
                            ;************************************************************************************************
                            ;undefined LAB_0007c418+1(uint param_1, int param_2, int param_3, char * param_4)
          ;param_1       uint                r0                      
          ;param_2       int                 r1                      
          ;param_3       int                 r2                      
          ;param_4       char *              r3                      
          ;local_10      undefined4         -10                      ;XREF[1,0]:   0007c426
                                                          ;XREF[0,2]:   0007bf0c,0007bf44
ram:0007c418    68b5            push        {param_4,r5,r6,lr}                      
ram:0007c41a    054e            ldr         r6,[DAT_0007c430]                       ;= 20002C68h
ram:0007c41c    0125            movs        r5,#0x1                                 
ram:0007c41e    3570            strb        r5,[r6,#0x0]=>DAT_20002c68              
ram:0007c420    0525            movs        r5,#0x5                                 
ram:0007c422    65f30700        bfi         param_1,r5,#0x0,#0x8                    
ram:0007c426    0094            str         r4,[sp,#0x0]=>local_10                  
ram:0007c428    fff750f9        bl          FUN_0007b6cc                            ;undefined FUN_0007b6cc(uint param_1,...
ram:0007c42c    68bd            pop         {param_4,r5,r6,pc}                      
ram:0007c42e    0000            movs        r0,r0                                   
                            DAT_0007c430:                 ;XREF[1,0]:   0007c41a
ram:0007c430    682c0020        undefined4  20002C68h                               
                            ;************************************************************************************************
                            ;*                                           FUNCTION                                           *
                            ;************************************************************************************************
                            ;int FUN_0007c434(undefined4 param_1, undefined4 param_2, undefined4 param_3, undefined4 param_4)
          ;param_1       undefined4          r0                      
          ;param_2       undefined4          r1                      
          ;param_3       undefined4          r2                      
          ;param_4       undefined4          r3                      
                                                          ;XREF[4,0]:   0007be08,0007bea6,0007bf9e,0007c3e2
ram:0007c434    0c48            ldr         param_1,[DAT_0007c468]                  ;= 20002C68h
ram:0007c436    10b5            push        {r4,lr}                                 
ram:0007c438    0078            ldrb        param_1,[param_1,#0x0]=>DAT_20002c68    
ram:0007c43a    08b1            cbz         param_1,LAB_0007c440                    
ram:0007c43c    0820            movs        param_1,#0x8                            
ram:0007c43e    10bd            pop         {r4,pc}                                 
                            LAB_0007c440:                 ;XREF[1,0]:   0007c43a
ram:0007c440    0a4c            ldr         r4,[PTR_DAT_0007c46c]                   ;= 0007d854
ram:0007c442    2068            ldr         param_1,[r4,#0x0]=>DAT_0007d854         ;= 20003180h
ram:0007c444    fef728fe        bl          FUN_0007b098                            ;undefined4 FUN_0007b098(int param_1,...
ram:0007c448    08b1            cbz         param_1,LAB_0007c44e                    
ram:0007c44a    fef799fc        bl          FUN_0007ad80                            ;undefined FUN_0007ad80(void)
                            LAB_0007c44e:                 ;XREF[1,0]:   0007c448
ram:0007c44e    0022            movs        param_3,#0x0                            
ram:0007c450    4ff47011        mov.w       param_2,#0x3c0000                       
ram:0007c454    2068            ldr         param_1,[r4,#0x0]=>DAT_0007d854         ;= 20003180h
ram:0007c456    fef7dffd        bl          FUN_0007b018                            ;undefined4 FUN_0007b018(int param_1,...
ram:0007c45a    0400            movs        r4,param_1                              
ram:0007c45c    01d0            beq         LAB_0007c462                            
ram:0007c45e    fef78ffc        bl          FUN_0007ad80                            ;undefined FUN_0007ad80(void)
                            LAB_0007c462:                 ;XREF[1,0]:   0007c45c
ram:0007c462    2046            mov         param_1,r4                              
ram:0007c464    10bd            pop         {r4,pc}                                 
ram:0007c466    0000            movs        r0,r0                                   
                            DAT_0007c468:                 ;XREF[1,0]:   0007c434
ram:0007c468    682c0020        undefined4  20002C68h                               
                            PTR_DAT_0007c46c:             ;XREF[1,0]:   0007c440
ram:0007c46c    54d80700        addr        DAT_0007d854                            ;= 20003180h
                            ;************************************************************************************************
                            ;*                                           FUNCTION                                           *
                            ;************************************************************************************************
                            ;undefined4 FUN_0007c470(undefined4 param_1, undefined4 param_2, undefined4 param_3, undefined4 param_4)
          ;param_1       undefined4          r0                      
          ;param_2       undefined4          r1                      
          ;param_3       undefined4          r2                      
          ;param_4       undefined4          r3                      
                                                          ;XREF[3,0]:   0007b78a,0007cfdc,0007cfee
ram:0007c470    10b5            push        {r4,lr}                                 
ram:0007c472    104c            ldr         r4,[DAT_0007c4b4]                       ;= 20002C94h
ram:0007c474    0120            movs        param_1,#0x1                            
ram:0007c476    2070            strb        param_1,[r4,#0x0]=>DAT_20002c94         
ram:0007c478    e088            ldrh        param_1,[r4,#0x6]=>DAT_20002c9a         
ram:0007c47a    a0f57f41        sub.w       param_2,param_1,#0xff00                 
ram:0007c47e    ff39            subs        param_2,#0xff                           
ram:0007c480    05d0            beq         LAB_0007c48e                            
ram:0007c482    1321            movs        param_2,#0x13                           
ram:0007c484    76df            svc         0x76                                    
ram:0007c486    68b1            cbz         param_1,LAB_0007c4a4                    
ram:0007c488    fef77afc        bl          FUN_0007ad80                            ;undefined FUN_0007ad80(void)
ram:0007c48c    0ae0            b           LAB_0007c4a4                            
                            LAB_0007c48e:                 ;XREF[1,0]:   0007c480
ram:0007c48e    a078            ldrb        param_1,[r4,#0x2]=>DAT_20002c96         
ram:0007c490    40b1            cbz         param_1,LAB_0007c4a4                    
ram:0007c492    74df            svc         0x74                                    
ram:0007c494    08b1            cbz         param_1,LAB_0007c49a                    
ram:0007c496    fef773fc        bl          FUN_0007ad80                            ;undefined FUN_0007ad80(void)
                            LAB_0007c49a:                 ;XREF[1,0]:   0007c494
ram:0007c49a    1120            movs        param_1,#0x11                           
ram:0007c49c    00f042fc        bl          FUN_0007cd24                            ;undefined FUN_0007cd24(uint param_1)
ram:0007c4a0    0020            movs        param_1,#0x0                            
ram:0007c4a2    a070            strb        param_1,[r4,#0x2]=>DAT_20002c96         
                            LAB_0007c4a4:                 ;XREF[3,0]:   0007c486,0007c48c,0007c490
ram:0007c4a4    fef7c6fe        bl          FUN_0007b234                            ;undefined FUN_0007b234(undefined4 pa...
ram:0007c4a8    08b1            cbz         param_1,LAB_0007c4ae                    
ram:0007c4aa    fef769fc        bl          FUN_0007ad80                            ;undefined FUN_0007ad80(void)
                            LAB_0007c4ae:                 ;XREF[1,0]:   0007c4a8
ram:0007c4ae    0020            movs        param_1,#0x0                            
ram:0007c4b0    10bd            pop         {r4,pc}                                 
ram:0007c4b2    0000            movs        r0,r0                                   
                            DAT_0007c4b4:                 ;XREF[1,0]:   0007c472
ram:0007c4b4    942c0020        undefined4  20002C94h                               
                            ;************************************************************************************************
                            ;*                                           FUNCTION                                           *
                            ;************************************************************************************************
                            ;int FUN_0007c4b8(void)
          ;local_14      undefined4         -14                      ;XREF[1,0]:   0007c5ac
          ;local_18      undefined1         -18                      ;XREF[1,0]:   0007c5a8
          ;local_1a      undefined2         -1a                      ;XREF[1,0]:   0007c5a4
          ;local_1c      undefined1         -1c                      ;XREF[1,0]:   0007c59e
          ;local_20      undefined4         -20                      ;XREF[4,0]:   0007c51e,0007c530,0007c574,0007c59a
          ;local_24      undefined4         -24                      ;XREF[3,1]:   0007c54a,0007c550,0007c570,0007c558
          ;local_28      undefined4         -28                      ;XREF[5,3]:   0007c540,0007c544,0007c568,0007c56a,0007c592
                                                                     ;             0007c508,0007c510,0007c54c
                                                          ;XREF[1,0]:   0007b6be
ram:0007c4b8    30b5            push        {r4,r5,lr}                              
ram:0007c4ba    4b4d            ldr         r5,[DAT_0007c5e8]                       ;= 20002C94h
ram:0007c4bc    87b0            sub         sp,#0x1c                                
ram:0007c4be    0024            movs        r4,#0x0                                 
ram:0007c4c0    2c70            strb        r4,[r5,#0x0]=>DAT_20002c94              
ram:0007c4c2    2c71            strb        r4,[r5,#0x4]=>DAT_20002c98              
ram:0007c4c4    1120            movs        r0,#0x11                                
ram:0007c4c6    00f025fc        bl          FUN_0007cd14                            ;undefined FUN_0007cd14(int param_1)
ram:0007c4ca    1220            movs        r0,#0x12                                
ram:0007c4cc    00f022fc        bl          FUN_0007cd14                            ;undefined FUN_0007cd14(int param_1)
ram:0007c4d0    1120            movs        r0,#0x11                                
ram:0007c4d2    00f027fc        bl          FUN_0007cd24                            ;undefined FUN_0007cd24(uint param_1)
ram:0007c4d6    1220            movs        r0,#0x12                                
ram:0007c4d8    00f024fc        bl          FUN_0007cd24                            ;undefined FUN_0007cd24(uint param_1)
ram:0007c4dc    4348            ldr         r0=>FUN_0007b500+1,[PTR_FUN_0007b500+...;= 0007b501
ram:0007c4de    00f051ff        bl          FUN_0007d384                            ;undefined4 FUN_0007d384(int param_1)
ram:0007c4e2    0028            cmp         r0,#0x0                                 
ram:0007c4e4    7ad1            bne         LAB_0007c5dc                            
ram:0007c4e6    4248            ldr         r0=>FUN_0007bc70+1,[PTR_FUN_0007bc70+...;= 0007bc71
ram:0007c4e8    fff742fe        bl          FUN_0007c170                            ;undefined FUN_0007c170(undefined4 pa...
ram:0007c4ec    00f0aef8        bl          FUN_0007c64c                            ;undefined4 FUN_0007c64c(void)
ram:0007c4f0    0028            cmp         r0,#0x0                                 
ram:0007c4f2    73d1            bne         LAB_0007c5dc                            
ram:0007c4f4    3f48            ldr         r0=>DAT_20003290,[DAT_0007c5f4]         ;= 90h
ram:0007c4f6    fff79dfb        bl          FUN_0007bc34                            ;undefined4 FUN_0007bc34(undefined4 *...
ram:0007c4fa    0028            cmp         r0,#0x0                                 
ram:0007c4fc    71d0            beq         LAB_0007c5e2                            
ram:0007c4fe    6846            mov         r0,sp                                   
ram:0007c500    71df            svc         0x71                                    
ram:0007c502    08b1            cbz         r0,LAB_0007c508                         
ram:0007c504    fef73cfc        bl          FUN_0007ad80                            ;undefined FUN_0007ad80(void)
                            LAB_0007c508:                 ;XREF[1,0]:   0007c502
ram:0007c508    9df80100        ldrb.w      r0,[sp,#local_28+0x29]                  
ram:0007c50c    6946            mov         r1,sp                                   
ram:0007c50e    401c            adds        r0,r0,#0x1                              
ram:0007c510    8df80100        strb.w      r0,[sp,#local_28+0x29]                  
ram:0007c514    0020            movs        r0,#0x0                                 
ram:0007c516    70df            svc         0x70                                    
ram:0007c518    08b1            cbz         r0,LAB_0007c51e                         
ram:0007c51a    fef731fc        bl          FUN_0007ad80                            ;undefined FUN_0007ad80(void)
                            LAB_0007c51e:                 ;XREF[2,0]:   0007c518,0007c5e6
ram:0007c51e    9df80800        ldrb.w      r0,[sp,#local_20+0x28]                  
ram:0007c522    35a1            adr         r1=>s_DfuTarg_00...,[s_DfuTarg_0007c5...;= "DfuTarg"
ram:0007c524    20f00f00        bic         r0,r0,#0xf                              
ram:0007c528    401c            adds        r0,r0,#0x1                              
ram:0007c52a    20f0f000        bic         r0,r0,#0xf0                             
ram:0007c52e    1030            adds        r0,#0x10                                
ram:0007c530    8df80800        strb.w      r0,[sp,#local_20+0x28]                  
ram:0007c534    0722            movs        r2,#0x7                                 
ram:0007c536    02a8            add         r0,sp,#0x8                              
ram:0007c538    7cdf            svc         0x7c                                    
ram:0007c53a    08b1            cbz         r0,LAB_0007c540                         
ram:0007c53c    fef720fc        bl          FUN_0007ad80                            ;undefined FUN_0007ad80(void)
                            LAB_0007c540:                 ;XREF[1,0]:   0007c53a
ram:0007c540    0094            str         r4,[sp,#0x0]=>local_28                  
ram:0007c542    0c20            movs        r0,#0xc                                 
ram:0007c544    adf80000        strh.w      r0,[sp,#0x0]=>local_28                  
ram:0007c548    1820            movs        r0,#0x18                                
ram:0007c54a    0194            str         r4,[sp,#local_24+0x28]                  
ram:0007c54c    adf80200        strh.w      r0,[sp,#local_28+0x2a]                  
ram:0007c550    adf80440        strh.w      r4,[sp,#local_24+0x28]                  
ram:0007c554    4ff4c870        mov.w       r0,#0x190                               
ram:0007c558    adf80600        strh.w      r0,[sp,#local_24+0x2a]                  
ram:0007c55c    6846            mov         r0,sp                                   
ram:0007c55e    7adf            svc         0x7a                                    
ram:0007c560    08b1            cbz         r0,LAB_0007c566                         
ram:0007c562    fef70dfc        bl          FUN_0007ad80                            ;undefined FUN_0007ad80(void)
                            LAB_0007c566:                 ;XREF[1,0]:   0007c560
ram:0007c566    0820            movs        r0,#0x8                                 
ram:0007c568    0094            str         r4,[sp,#0x0]=>local_28                  
ram:0007c56a    adf80000        strh.w      r0,[sp,#0x0]=>local_28                  
ram:0007c56e    2448            ldr         r0,[PTR_FUN_0007cfb0+1_0007c600]        ;= 0007cfb1
ram:0007c570    0190            str         r0=>FUN_0007cfb0+1,[sp,#local_24+0x28]  
ram:0007c572    2448            ldr         r0,[PTR_thunk_FUN_0007ad80+1_0007c604]  ;= 0007d381
ram:0007c574    0290            str         r0=>thunk_FUN_00...,[sp,#local_20+0x28] 
ram:0007c576    1f48            ldr         r0,[DAT_0007c5f4]                       ;= 90h
ram:0007c578    6946            mov         r1,sp                                   
ram:0007c57a    3038            subs        r0,#0x30                                
ram:0007c57c    fef7ccfe        bl          FUN_0007b318                            ;undefined8 FUN_0007b318(undefined2 *...
ram:0007c580    08b1            cbz         r0,LAB_0007c586                         
ram:0007c582    fef7fdfb        bl          FUN_0007ad80                            ;undefined FUN_0007ad80(void)
                            LAB_0007c586:                 ;XREF[1,0]:   0007c580
ram:0007c586    1c21            movs        r1,#0x1c                                
ram:0007c588    6846            mov         r0,sp                                   
ram:0007c58a    fef710f8        bl          FUN_0007a5ae                            ;undefined FUN_0007a5ae(undefined * p...
ram:0007c58e    40f6cd40        movw        r0,#0xccd                               
ram:0007c592    cde90040        strd        r4,r0,[sp,#0x0]=>local_28               
ram:0007c596    4ff48040        mov.w       r0,#0x4000                              
ram:0007c59a    0290            str         r0,[sp,#local_20+0x28]                  
ram:0007c59c    0320            movs        r0,#0x3                                 
ram:0007c59e    8df80c00        strb.w      r0,[sp,#local_1c+0x28]                  
ram:0007c5a2    1948            ldr         r0,[PTR_thunk_FUN_0007ad80+1_0007c608]  ;= 0007ba61
ram:0007c5a4    adf80e40        strh.w      r4,[sp,#local_1a+0x28]                  
ram:0007c5a8    8df81040        strb.w      r4,[sp,#local_18+0x28]                  
ram:0007c5ac    cde90540        strd        r4,r0=>thunk_FUN_0...,[sp,#local_14+0...
ram:0007c5b0    6846            mov         r0,sp                                   
ram:0007c5b2    fef7cdfd        bl          FUN_0007b150                            ;undefined FUN_0007b150(int * param_1)
ram:0007c5b6    08b1            cbz         r0,LAB_0007c5bc                         
ram:0007c5b8    fef7e2fb        bl          FUN_0007ad80                            ;undefined FUN_0007ad80(void)
                            LAB_0007c5bc:                 ;XREF[1,0]:   0007c5b6
ram:0007c5bc    0a48            ldr         r0,[DAT_0007c5e8]                       ;= 20002C94h
ram:0007c5be    1c30            adds        r0=>DAT_20002cb0,#0x1c                  
ram:0007c5c0    0178            ldrb        r1,[r0,#0x0]=>DAT_20002cb0              
ram:0007c5c2    21f01f01        bic         r1,r1,#0x1f                             
ram:0007c5c6    0c31            adds        r1,#0xc                                 
ram:0007c5c8    21f02001        bic         r1,r1,#0x20                             
ram:0007c5cc    0170            strb        r1,[r0,#0x0]=>DAT_20002cb0              
ram:0007c5ce    0721            movs        r1,#0x7                                 
ram:0007c5d0    4170            strb        r1,[r0,#0x1]=>DAT_20002cb1              
ram:0007c5d2    1021            movs        r1,#0x10                                
ram:0007c5d4    8170            strb        r1,[r0,#0x2]=>DAT_20002cb2              
ram:0007c5d6    fef701fb        bl          FUN_0007abdc                            ;undefined FUN_0007abdc(void)
ram:0007c5da    0020            movs        r0,#0x0                                 
                            LAB_0007c5dc:                 ;XREF[2,0]:   0007c4e4,0007c4f2
ram:0007c5dc    07b0            add         sp,#0x1c                                
ram:0007c5de    30bd            pop         {r4,r5,pc}                              
ram:0007c5e0    ffe7            b           LAB_0007c5e2                            
                            LAB_0007c5e2:                 ;XREF[2,0]:   0007c4fc,0007c5e0
ram:0007c5e2    0120            movs        r0,#0x1                                 
ram:0007c5e4    e870            strb        r0,[r5,#0x3]=>DAT_20002c97              
ram:0007c5e6    9ae7            b           LAB_0007c51e                            
                            DAT_0007c5e8:                 ;XREF[2,0]:   0007c4ba,0007c5bc
ram:0007c5e8    942c0020        undefined4  20002C94h                               
                            PTR_FUN_0007b500+1_0007c5ec:  ;XREF[1,0]:   0007c4dc
ram:0007c5ec    01b50700        addr        FUN_0007b500+1                          
                            PTR_FUN_0007bc70+1_0007c5f0:  ;XREF[1,0]:   0007c4e6
ram:0007c5f0    71bc0700        addr        FUN_0007bc70+1                          
                            DAT_0007c5f4:                 ;XREF[2,0]:   0007c4f4,0007c576
ram:0007c5f4    90              ??          90h                                     
ram:0007c5f5    32              ??          32h    2                                
ram:0007c5f6    00              ??          00h                                     
                                                          ;XREF[0,2]:   0007c522,0007c522
ram:0007c5f7    204466755...    ds          " DfuTarg"                              
                            PTR_FUN_0007cfb0+1_0007c600:  ;XREF[1,0]:   0007c56e
ram:0007c600    b1cf0700        addr        FUN_0007cfb0+1                          
                            PTR_thunk_FUN_0007ad80+1_00...;XREF[1,0]:   0007c572
ram:0007c604    81d30700        addr        thunk_FUN_0007ad80+1                    
                            PTR_thunk_FUN_0007ad80+1_00...;XREF[1,0]:   0007c5a2
ram:0007c608    61ba0700        addr        thunk_FUN_0007ad80+1                    
                            ;************************************************************************************************
                            ;*                                           FUNCTION                                           *
                            ;************************************************************************************************
                            ;undefined4 FUN_0007c60c(int * param_1)
          ;param_1       int *               r0                      
                                                          ;XREF[1,0]:   0007d4f6
ram:0007c60c    0e49            ldr         r1,[DAT_0007c648]                       ;= 20002C3Ch
ram:0007c60e    10b5            push        {r4,lr}                                 
ram:0007c610    4a78            ldrb        r2,[r1,#0x1]=>DAT_20002c3d              
ram:0007c612    8c78            ldrb        r4,[r1,#0x2]=>DAT_20002c3e              
ram:0007c614    0023            movs        r3,#0x0                                 
ram:0007c616    a242            cmp         r2,r4                                   
ram:0007c618    12d0            beq         LAB_0007c640                            
ram:0007c61a    521c            adds        r2,r2,#0x1                              
ram:0007c61c    d2b2            uxtb        r2,r2                                   
ram:0007c61e    4a70            strb        r2,[r1,#0x1]=>DAT_20002c3d              
ram:0007c620    022a            cmp         r2,#0x2                                 
ram:0007c622    00d1            bne         LAB_0007c626                            
ram:0007c624    4b70            strb        r3,[r1,#0x1]=>DAT_20002c3d              
                            LAB_0007c626:                 ;XREF[1,0]:   0007c622
ram:0007c626    084a            ldr         r2,[DAT_0007c648]                       ;= 20002C3Ch
ram:0007c628    4b78            ldrb        r3,[r1,#0x1]=>DAT_20002c3d              
ram:0007c62a    1832            adds        r2,#0x18                                
ram:0007c62c    52f82320        ldr.w       r2=>DAT_20002c54,r2,r3,0x2              
ram:0007c630    0260            str         r2,[param_1,#0x0]                       
ram:0007c632    0869            ldr         param_1,[r1,#0x10]=>DAT_20002c4c        
ram:0007c634    1044            add         param_1,r2                              
ram:0007c636    20f07f40        bic         param_1,param_1,#0xff000000             
ram:0007c63a    0861            str         param_1,[r1,#0x10]=>DAT_20002c4c        
ram:0007c63c    0120            movs        param_1,#0x1                            
ram:0007c63e    10bd            pop         {r4,pc}                                 
                            LAB_0007c640:                 ;XREF[1,0]:   0007c618
ram:0007c640    0360            str         r3,[param_1,#0x0]                       
ram:0007c642    0020            movs        param_1,#0x0                            
ram:0007c644    10bd            pop         {r4,pc}                                 
ram:0007c646    0000            movs        r0,r0                                   
                            DAT_0007c648:                 ;XREF[2,0]:   0007c60c,0007c626
ram:0007c648    3c2c0020        undefined4  20002C3Ch                               
                            ;************************************************************************************************
                            ;*                                           FUNCTION                                           *
                            ;************************************************************************************************
                            ;undefined4 FUN_0007c64c(void)
                                                          ;XREF[1,0]:   0007c4ec
ram:0007c64c    0748            ldr         r0,[DAT_0007c66c]                       ;= 20002CB5h
ram:0007c64e    0021            movs        r1,#0x0                                 
ram:0007c650    074a            ldr         r2,[DAT_0007c670]                       ;= 200032CCh
ram:0007c652    0170            strb        r1,[r0,#0x0]=>DAT_20002cb5              
ram:0007c654    02f59070        add.w       r0,r2,#0x120                            
ram:0007c658    0260            str         r2,[r0,#0x0]=>DAT_200033ec              
ram:0007c65a    0822            movs        r2,#0x8                                 
                                                          ; FWD[2,0]:   200033f0,200033f4
ram:0007c65c    c0e90121        strd        r2,r1,[r0,#0x4]=>DAT_200033f0           
ram:0007c660    c160            str         r1,[r0,#0xc]=>DAT_200033f8              
ram:0007c662    0161            str         r1,[r0,#0x10]=>DAT_200033fc             
ram:0007c664    4161            str         r1,[r0,#0x14]=>DAT_20003400             
ram:0007c666    8161            str         r1,[r0,#0x18]=>DAT_20003404             
ram:0007c668    0846            mov         r0,r1                                   
ram:0007c66a    7047            bx          lr                                      
                            DAT_0007c66c:                 ;XREF[1,0]:   0007c64c
ram:0007c66c    b52c0020        undefined4  20002CB5h                               
                            DAT_0007c670:                 ;XREF[1,0]:   0007c650
ram:0007c670    cc320020        undefined4  200032CCh                               
                            ;************************************************************************************************
                            ;*                                           FUNCTION                                           *
                            ;************************************************************************************************
                            ;undefined4 FUN_0007c674(int param_1)
          ;param_1       int                 r0                      
                                                          ;XREF[2,0]:   0007ad0a,0007bc94
ram:0007c674    f0b5            push        {r4,r5,r6,r7,lr}                        
ram:0007c676    194a            ldr         r2,[DAT_0007c6dc]                       ;= 200033ECh
ram:0007c678    0646            mov         r6,param_1                              
ram:0007c67a    9168            ldr         r1,[r2,#0x8]=>DAT_200033f4              
ram:0007c67c    61b3            cbz         r1,LAB_0007c6d8                         
ram:0007c67e    5569            ldr         r5,[r2,#0x14]=>DAT_20003400             
ram:0007c680    1020            movs        param_1,#0x10                           
ram:0007c682    691a            subs        r1,r5,r1                                
ram:0007c684    01f00701        and         r1,r1,#0x7                              
ram:0007c688    d2f80070        ldr.w       r7,[r2,#0x0]=>DAT_200033ec              
ram:0007c68c    0b46            mov         r3,r1                                   
ram:0007c68e    0124            movs        r4,#0x1                                 
                            LAB_0007c690:                 ;XREF[1,0]:   0007c6b2
ram:0007c690    01ebc10c        add.w       r12,r1,r1, lsl #0x3                     
ram:0007c694    07eb8c0c        add.w       r12,r7,r12, lsl #0x2                    
ram:0007c698    b445            cmp         r12,r6                                  
ram:0007c69a    06d1            bne         LAB_0007c6aa                            
ram:0007c69c    9569            ldr         r5,[r2,#0x18]=>DAT_20003404             
ram:0007c69e    04fa01f6        lsl.w       r6,r4,r1                                
ram:0007c6a2    7540            eors        r5,r6                                   
ram:0007c6a4    0020            movs        param_1,#0x0                            
ram:0007c6a6    9561            str         r5,[r2,#0x18]=>DAT_20003404             
ram:0007c6a8    04e0            b           LAB_0007c6b4                            
                            LAB_0007c6aa:                 ;XREF[1,0]:   0007c69a
ram:0007c6aa    491c            adds        r1,r1,#0x1                              
ram:0007c6ac    01f00701        and         r1,r1,#0x7                              
ram:0007c6b0    8d42            cmp         r5,r1                                   
ram:0007c6b2    edd1            bne         LAB_0007c690                            
                            LAB_0007c6b4:                 ;XREF[1,0]:   0007c6a8
ram:0007c6b4    491c            adds        r1,r1,#0x1                              
ram:0007c6b6    9569            ldr         r5,[r2,#0x18]=>DAT_20003404             
ram:0007c6b8    01f00701        and         r1,r1,#0x7                              
                            LAB_0007c6bc:                 ;XREF[1,0]:   0007c6d6
ram:0007c6bc    04fa03f3        lsl.w       r3,r4,r3                                
ram:0007c6c0    1d42            tst         r5,r3                                   
ram:0007c6c2    0ad1            bne         LAB_0007c6da                            
ram:0007c6c4    9368            ldr         r3,[r2,#0x8]=>DAT_200033f4              
ram:0007c6c6    002b            cmp         r3,#0x0                                 
ram:0007c6c8    07d0            beq         LAB_0007c6da                            
ram:0007c6ca    5b1e            subs        r3,r3,#0x1                              
ram:0007c6cc    9360            str         r3,[r2,#0x8]=>DAT_200033f4              
ram:0007c6ce    5368            ldr         r3,[r2,#0x4]=>DAT_200033f0              
ram:0007c6d0    5b1c            adds        r3,r3,#0x1                              
ram:0007c6d2    5360            str         r3,[r2,#0x4]=>DAT_200033f0              
ram:0007c6d4    0b46            mov         r3,r1                                   
ram:0007c6d6    f1e7            b           LAB_0007c6bc                            
                            LAB_0007c6d8:                 ;XREF[1,0]:   0007c67c
ram:0007c6d8    0420            movs        param_1,#0x4                            
                            LAB_0007c6da:                 ;XREF[2,0]:   0007c6c2,0007c6c8
ram:0007c6da    f0bd            pop         {r4,r5,r6,r7,pc}                        
                            DAT_0007c6dc:                 ;XREF[1,0]:   0007c676
ram:0007c6dc    ec330020        undefined4  200033ECh                               
                            ;************************************************************************************************
                            ;*                                           FUNCTION                                           *
                            ;************************************************************************************************
                            ;undefined4 FUN_0007c6e0(undefined4 param_1)
          ;param_1       undefined4          r0                      
                                                          ;XREF[1,0]:   0007acd0
ram:0007c6e0    0649            ldr         r1,[DAT_0007c6fc]                       ;= 200033ECh
ram:0007c6e2    2023            movs        r3,#0x20                                
ram:0007c6e4    0a7c            ldrb        r2,[r1,#0x10]=>DAT_200033fc             
ram:0007c6e6    0968            ldr         r1,[r1,#0x0]=>DAT_200033ec              
ram:0007c6e8    521e            subs        r2,r2,#0x1                              
ram:0007c6ea    02f00702        and         r2,r2,#0x7                              
ram:0007c6ee    02ebc202        add.w       r2,r2,r2, lsl #0x3                      
ram:0007c6f2    03eb8202        add.w       r2,r3,r2, lsl #0x2                      
ram:0007c6f6    8850            str         param_1,[r1,r2]                         
ram:0007c6f8    0020            movs        param_1,#0x0                            
ram:0007c6fa    7047            bx          lr                                      
                            DAT_0007c6fc:                 ;XREF[1,0]:   0007c6e0
ram:0007c6fc    ec330020        undefined4  200033ECh                               
                            ;************************************************************************************************
                            ;*                                           FUNCTION                                           *
                            ;************************************************************************************************
                            ;undefined4 FUN_0007c700(int * param_1, undefined4 * param_2)
          ;param_1       int *               r0                      
          ;param_2       undefined4 *        r1                      
                                                          ;XREF[1,0]:   0007acdc
ram:0007c700    70b5            push        {r4,r5,r6,lr}                           
ram:0007c702    d0b1            cbz         param_1,LAB_0007c73a                    
ram:0007c704    c9b1            cbz         param_2,LAB_0007c73a                    
ram:0007c706    0f4a            ldr         r2,[DAT_0007c744]                       ;= 200033ECh
ram:0007c708    d368            ldr         r3,[r2,#0xc]=>DAT_200033f8              
ram:0007c70a    c3b1            cbz         r3,LAB_0007c73e                         
ram:0007c70c    5b1e            subs        r3,r3,#0x1                              
ram:0007c70e    d360            str         r3,[r2,#0xc]=>DAT_200033f8              
ram:0007c710    9368            ldr         r3,[r2,#0x8]=>DAT_200033f4              
ram:0007c712    5b1c            adds        r3,r3,#0x1                              
ram:0007c714    9360            str         r3,[r2,#0x8]=>DAT_200033f4              
ram:0007c716    5369            ldr         r3,[r2,#0x14]=>DAT_20003400             
ram:0007c718    1568            ldr         r5,[r2,#0x0]=>DAT_200033ec              
ram:0007c71a    03ebc304        add.w       r4,r3,r3, lsl #0x3                      
ram:0007c71e    05eb8406        add.w       r6,r5,r4, lsl #0x2                      
ram:0007c722    0660            str         r6,[param_1,#0x0]                       
ram:0007c724    2020            movs        param_1,#0x20                           
ram:0007c726    00eb8400        add.w       param_1,param_1,r4, lsl #0x2            
ram:0007c72a    5b1c            adds        r3,r3,#0x1                              
ram:0007c72c    2858            ldr         param_1,[r5,param_1]                    
ram:0007c72e    0860            str         param_1,[param_2,#0x0]                  
ram:0007c730    03f00700        and         param_1,r3,#0x7                         
ram:0007c734    5061            str         param_1,[r2,#0x14]=>DAT_20003400        
ram:0007c736    0020            movs        param_1,#0x0                            
ram:0007c738    70bd            pop         {r4,r5,r6,pc}                           
                            LAB_0007c73a:                 ;XREF[2,0]:   0007c702,0007c704
ram:0007c73a    0e20            movs        param_1,#0xe                            
ram:0007c73c    70bd            pop         {r4,r5,r6,pc}                           
                            LAB_0007c73e:                 ;XREF[1,0]:   0007c70a
ram:0007c73e    0420            movs        param_1,#0x4                            
ram:0007c740    70bd            pop         {r4,r5,r6,pc}                           
ram:0007c742    0000            movs        r0,r0                                   
                            DAT_0007c744:                 ;XREF[1,0]:   0007c706
ram:0007c744    ec330020        undefined4  200033ECh                               
                            ;************************************************************************************************
                            ;*                                           FUNCTION                                           *
                            ;************************************************************************************************
                            ;undefined4 FUN_0007c748(uint param_1, int * param_2)
          ;param_1       uint                r0                      
          ;param_2       int *               r1                      
                                                          ;XREF[1,0]:   0007acb8
ram:0007c748    10b5            push        {r4,lr}                                 
ram:0007c74a    e9b1            cbz         param_2,LAB_0007c788                    
ram:0007c74c    0022            movs        r2,#0x0                                 
ram:0007c74e    0a60            str         r2,[param_2,#0x0]                       
ram:0007c750    104a            ldr         r2,[DAT_0007c794]                       ;= 200033ECh
ram:0007c752    5368            ldr         r3,[r2,#0x4]=>DAT_200033f0              
ram:0007c754    e3b1            cbz         r3,LAB_0007c790                         
ram:0007c756    2028            cmp         param_1,#0x20                           
ram:0007c758    18d8            bhi         LAB_0007c78c                            
ram:0007c75a    5b1e            subs        r3,r3,#0x1                              
ram:0007c75c    5360            str         r3,[r2,#0x4]=>DAT_200033f0              
ram:0007c75e    d068            ldr         param_1,[r2,#0xc]=>DAT_200033f8         
ram:0007c760    401c            adds        param_1,param_1,#0x1                    
ram:0007c762    d060            str         param_1,[r2,#0xc]=>DAT_200033f8         
ram:0007c764    1069            ldr         param_1,[r2,#0x10]=>DAT_200033fc        
ram:0007c766    1368            ldr         r3,[r2,#0x0]=>DAT_200033ec              
ram:0007c768    00ebc004        add.w       r4,param_1,param_1, lsl #0x3            
ram:0007c76c    03eb8403        add.w       r3,r3,r4, lsl #0x2                      
ram:0007c770    0b60            str         r3,[param_2,#0x0]                       
ram:0007c772    0123            movs        r3,#0x1                                 
ram:0007c774    8340            lsls        r3,param_1                              
ram:0007c776    9169            ldr         param_2,[r2,#0x18]=>DAT_20003404        
ram:0007c778    401c            adds        param_1,param_1,#0x1                    
ram:0007c77a    1943            orrs        param_2,r3                              
ram:0007c77c    00f00700        and         param_1,param_1,#0x7                    
ram:0007c780    9161            str         param_2,[r2,#0x18]=>DAT_20003404        
ram:0007c782    1061            str         param_1,[r2,#0x10]=>DAT_200033fc        
ram:0007c784    0020            movs        param_1,#0x0                            
ram:0007c786    10bd            pop         {r4,pc}                                 
                            LAB_0007c788:                 ;XREF[1,0]:   0007c74a
ram:0007c788    0e20            movs        param_1,#0xe                            
ram:0007c78a    10bd            pop         {r4,pc}                                 
                            LAB_0007c78c:                 ;XREF[1,0]:   0007c758
ram:0007c78c    0c20            movs        param_1,#0xc                            
ram:0007c78e    10bd            pop         {r4,pc}                                 
                            LAB_0007c790:                 ;XREF[1,0]:   0007c754
ram:0007c790    0420            movs        param_1,#0x4                            
ram:0007c792    10bd            pop         {r4,pc}                                 
                            DAT_0007c794:                 ;XREF[1,0]:   0007c750
ram:0007c794    ec330020        undefined4  200033ECh                               
                            ;************************************************************************************************
                            ;*                                           FUNCTION                                           *
                            ;************************************************************************************************
                            ;undefined FUN_0007c798(ushort * param_1, int param_2, undefined4 param_3, uint param_4)
          ;param_1       ushort *            r0                      
          ;param_2       int                 r1                      
          ;param_3       undefined4          r2                      
          ;param_4       uint                r3                      
          ;local_18      undefined4         -18                      ;XREF[1,0]:   0007c7c6
          ;local_1c      undefined4         -1c                      ;XREF[1,0]:   0007c7cc
          ;local_20      undefined4         -20                      ;XREF[1,0]:   0007c7c2
                                                          ;XREF[1,0]:   0007d060
ram:0007c798    feb5            push        {param_2,param_3,param_4,r4,r5,r6,r7,lr}
ram:0007c79a    0446            mov         r4,param_1                              
ram:0007c79c    087a            ldrb        param_1,[param_2,#0x8]                  
ram:0007c79e    8207            lsls        param_3,param_1,#0x1e                   
ram:0007c7a0    0ed0            beq         LAB_0007c7c0                            
ram:0007c7a2    00f00302        and         param_3,param_1,#0x3                    
ram:0007c7a6    c2f10403        rsb.w       param_4,param_3,#0x4                    
ram:0007c7aa    0022            movs        param_3,#0x0                            
ram:0007c7ac    1546            mov         r5,param_3                              
ram:0007c7ae    04e0            b           LAB_0007c7ba                            
                            LAB_0007c7b0:                 ;XREF[1,0]:   0007c7bc
ram:0007c7b0    4e68            ldr         r6,[param_2,#0x4]                       
ram:0007c7b2    3554            strb        r5,[r6,param_1]                         
ram:0007c7b4    401c            adds        param_1,param_1,#0x1                    
ram:0007c7b6    c0b2            uxtb        param_1,param_1                         
ram:0007c7b8    521c            adds        param_3,param_3,#0x1                    
                            LAB_0007c7ba:                 ;XREF[1,0]:   0007c7ae
ram:0007c7ba    9a42            cmp         param_3,param_4                         
ram:0007c7bc    f8d3            bcc         LAB_0007c7b0                            
ram:0007c7be    0872            strb        param_1,[param_2,#0x8]                  
                            LAB_0007c7c0:                 ;XREF[1,0]:   0007c7a0
ram:0007c7c0    0120            movs        param_1,#0x1                            
ram:0007c7c2    0090            str         param_1,[sp,#0x0]=>local_20             
ram:0007c7c4    4868            ldr         param_1,[param_2,#0x4]                  
ram:0007c7c6    0290            str         param_1,[sp,#local_18+0x20]             
ram:0007c7c8    087a            ldrb        param_1,[param_2,#0x8]                  
ram:0007c7ca    8008            lsrs        param_1,param_1,#0x2                    
ram:0007c7cc    0190            str         param_1,[sp,#local_1c+0x20]             
ram:0007c7ce    6846            mov         param_1,sp                              
ram:0007c7d0    fff7d2fb        bl          FUN_0007bf78                            ;int FUN_0007bf78(int param_1, undefi...
ram:0007c7d4    0028            cmp         param_1,#0x0                            
ram:0007c7d6    0bd0            beq         LAB_0007c7f0                            
ram:0007c7d8    0221            movs        param_2,#0x2                            
ram:0007c7da    00f070fa        bl          FUN_0007ccbe                            ;undefined4 FUN_0007ccbe(int param_1,...
ram:0007c7de    0246            mov         param_3,param_1                         
ram:0007c7e0    0221            movs        param_2,#0x2                            
ram:0007c7e2    2046            mov         param_1,r4                              
ram:0007c7e4    fef75cfe        bl          FUN_0007b4a0                            ;undefined8 FUN_0007b4a0(ushort * par...
ram:0007c7e8    0028            cmp         param_1,#0x0                            
ram:0007c7ea    01d0            beq         LAB_0007c7f0                            
ram:0007c7ec    fef7c8fa        bl          FUN_0007ad80                            ;undefined FUN_0007ad80(void)
                            LAB_0007c7f0:                 ;XREF[2,0]:   0007c7d6,0007c7ea
ram:0007c7f0    febd            pop         {param_2,param_3,param_4,r4,r5,r6,r7,pc}
ram:0007c7f2    0000            movs        r0,r0                                   
                            ;************************************************************************************************
                            ;*                                           FUNCTION                                           *
                            ;************************************************************************************************
                            ;undefined FUN_0007c7f4(void)
          ;local_18      undefined4         -18                      ;XREF[2,0]:   0007c82c,0007c834
                                                          ;XREF[2,0]:   0007a706,0007d3e0
ram:0007c7f4    f8b5            push        {r3,r4,r5,r6,r7,lr}                     
ram:0007c7f6    1a4c            ldr         r4,[DAT_0007c860]                       ;= 20002CBCh
ram:0007c7f8    2078            ldrb        r0,[r4,#0x0]=>DAT_20002cbc              
ram:0007c7fa    0028            cmp         r0,#0x0                                 
ram:0007c7fc    2ed0            beq         LAB_0007c85c                            
ram:0007c7fe    2069            ldr         r0,[r4,#0x10]=>DAT_20002ccc             
ram:0007c800    28b1            cbz         r0,LAB_0007c80e                         
ram:0007c802    0026            movs        r6,#0x0                                 
                            LAB_0007c804:                 ;XREF[1,0]:   0007c810
ram:0007c804    e068            ldr         r0,[r4,#0xc]=>DAT_20002cc8              
ram:0007c806    20b1            cbz         r0,LAB_0007c812                         
ram:0007c808    0025            movs        r5,#0x0                                 
                            LAB_0007c80a:                 ;XREF[2,0]:   0007c814,0007c85a
ram:0007c80a    26b1            cbz         r6,LAB_0007c816                         
ram:0007c80c    10e0            b           LAB_0007c830                            
                            LAB_0007c80e:                 ;XREF[1,0]:   0007c800
ram:0007c80e    0126            movs        r6,#0x1                                 
ram:0007c810    f8e7            b           LAB_0007c804                            
                            LAB_0007c812:                 ;XREF[1,0]:   0007c806
ram:0007c812    0125            movs        r5,#0x1                                 
ram:0007c814    f9e7            b           LAB_0007c80a                            
                            LAB_0007c816:                 ;XREF[2,0]:   0007c80a,0007c856
ram:0007c816    6846            mov         r0,sp                                   
ram:0007c818    52df            svc         0x52                                    
ram:0007c81a    0528            cmp         r0,#0x5                                 
ram:0007c81c    03d0            beq         LAB_0007c826                            
ram:0007c81e    20b1            cbz         r0,LAB_0007c82a                         
ram:0007c820    fef7aefa        bl          FUN_0007ad80                            ;undefined FUN_0007ad80(void)
ram:0007c824    04e0            b           LAB_0007c830                            
                            LAB_0007c826:                 ;XREF[1,0]:   0007c81c
ram:0007c826    0126            movs        r6,#0x1                                 
ram:0007c828    02e0            b           LAB_0007c830                            
                            LAB_0007c82a:                 ;XREF[1,0]:   0007c81e
ram:0007c82a    2169            ldr         r1,[r4,#0x10]=>DAT_20002ccc             
ram:0007c82c    0098            ldr         r0=>local_18,[sp,#0x0]                  
ram:0007c82e    8847            blx         r1                                      
                            LAB_0007c830:                 ;XREF[3,0]:   0007c80c,0007c824,0007c828
ram:0007c830    85b9            cbnz        r5,LAB_0007c854                         
ram:0007c832    6088            ldrh        r0,[r4,#0x2]=>DAT_20002cbe              
ram:0007c834    adf80000        strh.w      r0,[sp,#0x0]=>local_18                  
ram:0007c838    6946            mov         r1,sp                                   
ram:0007c83a    a068            ldr         r0,[r4,#0x8]=>DAT_20002cc4              
ram:0007c83c    61df            svc         0x61                                    
ram:0007c83e    0528            cmp         r0,#0x5                                 
ram:0007c840    03d0            beq         LAB_0007c84a                            
ram:0007c842    20b1            cbz         r0,LAB_0007c84e                         
ram:0007c844    fef79cfa        bl          FUN_0007ad80                            ;undefined FUN_0007ad80(void)
ram:0007c848    04e0            b           LAB_0007c854                            
                            LAB_0007c84a:                 ;XREF[1,0]:   0007c840
ram:0007c84a    0125            movs        r5,#0x1                                 
ram:0007c84c    02e0            b           LAB_0007c854                            
                            LAB_0007c84e:                 ;XREF[1,0]:   0007c842
                                                          ; FWD[2,0]:   20002cc4,20002cc8
ram:0007c84e    d4e90201        ldrd        r0,r1,[r4,#0x8]=>DAT_20002cc4           
ram:0007c852    8847            blx         r1                                      
                            LAB_0007c854:                 ;XREF[3,0]:   0007c830,0007c848,0007c84c
ram:0007c854    002e            cmp         r6,#0x0                                 
ram:0007c856    ded0            beq         LAB_0007c816                            
ram:0007c858    002d            cmp         r5,#0x0                                 
ram:0007c85a    d6d0            beq         LAB_0007c80a                            
                            LAB_0007c85c:                 ;XREF[1,0]:   0007c7fc
ram:0007c85c    f8bd            pop         {r3,r4,r5,r6,r7,pc}                     
ram:0007c85e    0000            movs        r0,r0                                   
                            DAT_0007c860:                 ;XREF[1,0]:   0007c7f6
ram:0007c860    bc2c0020        undefined4  20002CBCh                               
                            ;************************************************************************************************
                            ;*                                           FUNCTION                                           *
                            ;************************************************************************************************
                            ;undefined4 FUN_0007c864(int param_1)
          ;param_1       int                 r0                      
                                                          ;XREF[1,0]:   0007ba68
ram:0007c864    0549            ldr         r1,[DAT_0007c87c]                       ;= 20002C04h
ram:0007c866    4088            ldrh        param_1,[param_1,#0x2]                  
ram:0007c868    0a88            ldrh        r2,[r1,#0x0]=>DAT_20002c04              
ram:0007c86a    9042            cmp         param_1,r2                              
ram:0007c86c    04d3            bcc         LAB_0007c878                            
ram:0007c86e    4988            ldrh        r1,[r1,#0x2]=>DAT_20002c06              
ram:0007c870    8842            cmp         param_1,r1                              
ram:0007c872    01d8            bhi         LAB_0007c878                            
ram:0007c874    0120            movs        param_1,#0x1                            
ram:0007c876    7047            bx          lr                                      
                            LAB_0007c878:                 ;XREF[2,0]:   0007c86c,0007c872
ram:0007c878    0020            movs        param_1,#0x0                            
ram:0007c87a    7047            bx          lr                                      
                            DAT_0007c87c:                 ;XREF[1,0]:   0007c864
ram:0007c87c    042c0020        undefined4  20002C04h                               
                            ;************************************************************************************************
                            ;*                                           FUNCTION                                           *
                            ;************************************************************************************************
                            ;undefined4 FUN_0007c880(uint param_1)
          ;param_1       uint                r0                      
                                                          ;XREF[2,0]:   0007d17c,0007d184
ram:0007c880    8007            lsls        param_1,param_1,#0x1e                   
ram:0007c882    01d0            beq         LAB_0007c888                            
ram:0007c884    0020            movs        param_1,#0x0                            
ram:0007c886    7047            bx          lr                                      
                            LAB_0007c888:                 ;XREF[1,0]:   0007c882
ram:0007c888    0120            movs        param_1,#0x1                            
ram:0007c88a    7047            bx          lr                                      
                            ;************************************************************************************************
                            ;*                                           FUNCTION                                           *
                            ;************************************************************************************************
                            ;undefined4 FUN_0007c88c(int param_1, int param_2, ushort * param_3, uint param_4)
          ;param_1       int                 r0                      
          ;param_2       int                 r1                      
          ;param_3       ushort *            r2                      
          ;param_4       uint                r3                      
                                                          ;XREF[1,0]:   0007aa1a
ram:0007c88c    30b5            push        {r4,r5,lr}                              
ram:0007c88e    1488            ldrh        r4,[param_3,#0x0]                       
ram:0007c890    e51c            adds        r5,r4,#0x3                              
ram:0007c892    9d42            cmp         r5,param_4                              
ram:0007c894    01d9            bls         LAB_0007c89a                            
ram:0007c896    0c20            movs        param_1,#0xc                            
ram:0007c898    30bd            pop         {r4,r5,pc}                              
                            LAB_0007c89a:                 ;XREF[1,0]:   0007c894
ram:0007c89a    0225            movs        r5,#0x2                                 
ram:0007c89c    0d55            strb        r5,[param_2,r4]                         
ram:0007c89e    1388            ldrh        param_4,[param_3,#0x0]                  
ram:0007c8a0    1c24            movs        r4,#0x1c                                
ram:0007c8a2    5b1c            adds        param_4,param_4,#0x1                    
ram:0007c8a4    9bb2            uxth        param_4,param_4                         
ram:0007c8a6    1380            strh        param_4,[param_3,#0x0]                  
ram:0007c8a8    cc54            strb        r4,[param_2,param_4]                    
ram:0007c8aa    1388            ldrh        param_4,[param_3,#0x0]                  
ram:0007c8ac    5b1c            adds        param_4,param_4,#0x1                    
ram:0007c8ae    9bb2            uxth        param_4,param_4                         
ram:0007c8b0    1380            strh        param_4,[param_3,#0x0]                  
ram:0007c8b2    0128            cmp         param_1,#0x1                            
ram:0007c8b4    07d0            beq         LAB_0007c8c6                            
ram:0007c8b6    0228            cmp         param_1,#0x2                            
ram:0007c8b8    07d0            beq         LAB_0007c8ca                            
ram:0007c8ba    0328            cmp         param_1,#0x3                            
ram:0007c8bc    07d0            beq         LAB_0007c8ce                            
ram:0007c8be    0428            cmp         param_1,#0x4                            
ram:0007c8c0    07d0            beq         LAB_0007c8d2                            
ram:0007c8c2    0720            movs        param_1,#0x7                            
ram:0007c8c4    30bd            pop         {r4,r5,pc}                              
                            LAB_0007c8c6:                 ;XREF[1,0]:   0007c8b4
ram:0007c8c6    0020            movs        param_1,#0x0                            
ram:0007c8c8    04e0            b           LAB_0007c8d4                            
                            LAB_0007c8ca:                 ;XREF[1,0]:   0007c8b8
ram:0007c8ca    0120            movs        param_1,#0x1                            
ram:0007c8cc    02e0            b           LAB_0007c8d4                            
                            LAB_0007c8ce:                 ;XREF[1,0]:   0007c8bc
ram:0007c8ce    cd54            strb        r5,[param_2,param_4]                    
ram:0007c8d0    01e0            b           LAB_0007c8d6                            
                            LAB_0007c8d2:                 ;XREF[1,0]:   0007c8c0
ram:0007c8d2    0320            movs        param_1,#0x3                            
                            LAB_0007c8d4:                 ;XREF[2,0]:   0007c8c8,0007c8cc
ram:0007c8d4    c854            strb        param_1,[param_2,param_4]               
                            LAB_0007c8d6:                 ;XREF[1,0]:   0007c8d0
ram:0007c8d6    1088            ldrh        param_1,[param_3,#0x0]                  
ram:0007c8d8    401c            adds        param_1,param_1,#0x1                    
ram:0007c8da    1080            strh        param_1,[param_3,#0x0]                  
ram:0007c8dc    0020            movs        param_1,#0x0                            
ram:0007c8de    30bd            pop         {r4,r5,pc}                              
                            ;************************************************************************************************
                            ;*                                           FUNCTION                                           *
                            ;************************************************************************************************
                            ;bool FUN_0007c8e0(void)
                                                          ;XREF[1,0]:   0007d4fc
ram:0007c8e0    2de9f047        push        {r4,r5,r6,r7,r8,r9,r10,lr}              
ram:0007c8e4    dff8aca0        ldr.w       r10,[DAT_0007c994]                      ;= 20002C3Ch
ram:0007c8e8    daf80c00        ldr.w       r0,[r10,#0xc]=>DAT_20002c48             
ram:0007c8ec    9af80040        ldrb.w      r4,[r10,#0x0]=>DAT_20002c3c             
ram:0007c8f0    8046            mov         r8,r0                                   
ram:0007c8f2    9af80460        ldrb.w      r6,[r10,#0x4]=>DAT_20002c40             
ram:0007c8f6    daf80890        ldr.w       r9,[r10,#0x8]=>DAT_20002c44             
ram:0007c8fa    daf81070        ldr.w       r7,[r10,#0x10]=>DAT_20002c4c            
ram:0007c8fe    3ae0            b           LAB_0007c976                            
                            LAB_0007c900:                 ;XREF[1,0]:   0007c97a
ram:0007c900    09ebc405        add.w       r5,r9,r4, lsl #0x3                      
ram:0007c904    2a78            ldrb        r2,[r5,#0x0]                            
ram:0007c906    33e0            b           LAB_0007c970                            
                            LAB_0007c908:                 ;XREF[1,0]:   0007c974
ram:0007c908    02eb4201        add.w       r1,r2,r2, lsl #0x1                      
ram:0007c90c    6b68            ldr         r3,[r5,#0x4]                            
ram:0007c90e    521c            adds        r2,r2,#0x1                              
ram:0007c910    03ebc101        add.w       r1,r3,r1, lsl #0x3                      
ram:0007c914    ab78            ldrb        r3,[r5,#0x2]                            
ram:0007c916    d2b2            uxtb        r2,r2                                   
ram:0007c918    9342            cmp         r3,r2                                   
ram:0007c91a    00d1            bne         LAB_0007c91e                            
ram:0007c91c    0022            movs        r2,#0x0                                 
                            LAB_0007c91e:                 ;XREF[1,0]:   0007c91a
ram:0007c91e    0b78            ldrb        r3,[r1,#0x0]                            
ram:0007c920    022b            cmp         r3,#0x2                                 
ram:0007c922    02d0            beq         LAB_0007c92a                            
ram:0007c924    032b            cmp         r3,#0x3                                 
ram:0007c926    23d1            bne         LAB_0007c970                            
ram:0007c928    1fe0            b           LAB_0007c96a                            
                            LAB_0007c92a:                 ;XREF[1,0]:   0007c922
ram:0007c92a    d1f804c0        ldr.w       r12,[r1,#0x4]                           
ram:0007c92e    0346            mov         r3,r0                                   
ram:0007c930    0146            mov         r1,r0                                   
ram:0007c932    03e0            b           LAB_0007c93c                            
                            LAB_0007c934:                 ;XREF[1,0]:   0007c93e
ram:0007c934    6145            cmp         r1,r12                                  
ram:0007c936    03d0            beq         LAB_0007c940                            
ram:0007c938    0b46            mov         r3,r1                                   
ram:0007c93a    c969            ldr         r1,[r1,#0x1c]                           
                            LAB_0007c93c:                 ;XREF[1,0]:   0007c932
ram:0007c93c    c1b1            cbz         r1,LAB_0007c970                         
ram:0007c93e    f9e7            b           LAB_0007c934                            
                            LAB_0007c940:                 ;XREF[1,0]:   0007c936
ram:0007c940    b1b1            cbz         r1,LAB_0007c970                         
ram:0007c942    8b42            cmp         r3,r1                                   
ram:0007c944    05d1            bne         LAB_0007c952                            
ram:0007c946    c069            ldr         r0,[r0,#0x1c]                           
ram:0007c948    18b9            cbnz        r0,LAB_0007c952                         
ram:0007c94a    134f            ldr         r7,[DAT_0007c998]                       ;= 40011000h
ram:0007c94c    0126            movs        r6,#0x1                                 
ram:0007c94e    be60            str         r6,[r7,#offset DAT_40011008 &0xff]      
ram:0007c950    0027            movs        r7,#0x0                                 
                            LAB_0007c952:                 ;XREF[2,0]:   0007c944,0007c948
ram:0007c952    d1f800c0        ldr.w       r12,[r1,#0x0]                           
ram:0007c956    c969            ldr         r1,[r1,#0x1c]                           
ram:0007c958    d961            str         r1,[r3,#0x1c]                           
ram:0007c95a    49b1            cbz         r1,LAB_0007c970                         
ram:0007c95c    0b68            ldr         r3,[r1,#0x0]                            
ram:0007c95e    6344            add         r3,r12                                  
ram:0007c960    0b60            str         r3,[r1,#0x0]                            
ram:0007c962    05e0            b           LAB_0007c970                            
                            LAB_0007c964:                 ;XREF[1,0]:   0007c96e
ram:0007c964    0174            strb        r1,[r0,#0x10]                           
ram:0007c966    c069            ldr         r0,[r0,#0x1c]                           
ram:0007c968    00e0            b           LAB_0007c96c                            
                            LAB_0007c96a:                 ;XREF[1,0]:   0007c928
ram:0007c96a    0021            movs        r1,#0x0                                 
                            LAB_0007c96c:                 ;XREF[1,0]:   0007c968
ram:0007c96c    0028            cmp         r0,#0x0                                 
ram:0007c96e    f9d1            bne         LAB_0007c964                            
                            LAB_0007c970:                 ;XREF[6,0]:   0007c906,0007c926,0007c93c,0007c940
                                                          ;             0007c95a,0007c962
ram:0007c970    6978            ldrb        r1,[r5,#0x1]                            
ram:0007c972    9142            cmp         r1,r2                                   
ram:0007c974    c8d1            bne         LAB_0007c908                            
                            LAB_0007c976:                 ;XREF[1,0]:   0007c8fe
ram:0007c976    641e            subs        r4,r4,#0x1                              
ram:0007c978    e4b2            uxtb        r4,r4                                   
ram:0007c97a    c1d2            bcs         LAB_0007c900                            
                                                          ; FWD[2,0]:   20002c48,20002c4c
ram:0007c97c    cae90307        strd        r0,r7,[r10,#0xc]=>DAT_20002c48          
ram:0007c980    8af80460        strb.w      r6,[r10,#0x4]=>DAT_20002c40             
ram:0007c984    4045            cmp         r0,r8                                   
ram:0007c986    02d0            beq         LAB_0007c98e                            
ram:0007c988    0120            movs        r0,#0x1                                 
                            LAB_0007c98a:                 ;XREF[1,0]:   0007c990
ram:0007c98a    bde8f087        pop.w       {r4,r5,r6,r7,r8,r9,r10,pc}              
                            LAB_0007c98e:                 ;XREF[1,0]:   0007c986
ram:0007c98e    0020            movs        r0,#0x0                                 
ram:0007c990    fbe7            b           LAB_0007c98a                            
ram:0007c992    0000            movs        r0,r0                                   
                            DAT_0007c994:                 ;XREF[1,0]:   0007c8e4
ram:0007c994    3c2c0020        undefined4  20002C3Ch                               
                            DAT_0007c998:                 ;XREF[1,0]:   0007c94a
ram:0007c998    00100140        undefined4  40011000h                               
                            ;************************************************************************************************
                            ;*                                           FUNCTION                                           *
                            ;************************************************************************************************
                            ;bool FUN_0007c99c(uint * param_1)
          ;param_1       uint *              r0                      
                                                          ;XREF[2,0]:   0007d550,0007d558
ram:0007c99c    2de9f047        push        {r4,r5,r6,r7,r8,r9,r10,lr}              
ram:0007c9a0    0546            mov         r5,param_1                              
ram:0007c9a2    2f48            ldr         param_1,[DAT_0007ca60]                  ;= 20002C3Ch
ram:0007c9a4    0026            movs        r6,#0x0                                 
ram:0007c9a6    8046            mov         r8,param_1                              
ram:0007c9a8    0778            ldrb        r7,[param_1,#0x0]=>DAT_20002c3c         
ram:0007c9aa    d0f80c90        ldr.w       r9,[param_1,#0xc]=>DAT_20002c48         
ram:0007c9ae    4be0            b           LAB_0007ca48                            
                            LAB_0007c9b0:                 ;XREF[1,0]:   0007ca4c
ram:0007c9b0    d8f80800        ldr.w       param_1,[r8,#0x8]=>DAT_20002c44         
ram:0007c9b4    00ebc704        add.w       r4,param_1,r7, lsl #0x3                 
ram:0007c9b8    40e0            b           LAB_0007ca3c                            
                            LAB_0007c9ba:                 ;XREF[1,0]:   0007ca3e
ram:0007c9ba    02d0            beq         LAB_0007c9c2                            
ram:0007c9bc    2846            mov         param_1,r5                              
ram:0007c9be    ed69            ldr         r5,[r5,#0x1c]                           
ram:0007c9c0    1ee0            b           LAB_0007ca00                            
                            LAB_0007c9c2:                 ;XREF[2,0]:   0007c9ba,0007ca46
ram:0007c9c2    2078            ldrb        param_1,[r4,#0x0]                       
ram:0007c9c4    6168            ldr         r1,[r4,#0x4]                            
ram:0007c9c6    00eb4002        add.w       r2,param_1,param_1, lsl #0x1            
ram:0007c9ca    401c            adds        param_1,param_1,#0x1                    
ram:0007c9cc    c0b2            uxtb        param_1,param_1                         
ram:0007c9ce    01ebc201        add.w       r1,r1,r2, lsl #0x3                      
ram:0007c9d2    2070            strb        param_1,[r4,#0x0]                       
ram:0007c9d4    a278            ldrb        r2,[r4,#0x2]                            
ram:0007c9d6    9042            cmp         param_1,r2                              
ram:0007c9d8    00d1            bne         LAB_0007c9dc                            
ram:0007c9da    2670            strb        r6,[r4,#0x0]                            
                            LAB_0007c9dc:                 ;XREF[1,0]:   0007c9d8
ram:0007c9dc    0a78            ldrb        r2,[r1,#0x0]                            
ram:0007c9de    4868            ldr         param_1,[r1,#0x4]                       
ram:0007c9e0    012a            cmp         r2,#0x1                                 
ram:0007c9e2    2dd1            bne         LAB_0007ca40                            
ram:0007c9e4    027c            ldrb        r2,[param_1,#0x10]                      
ram:0007c9e6    5abb            cbnz        r2,LAB_0007ca40                         
ram:0007c9e8    8a68            ldr         r2,[r1,#0x8]                            
ram:0007c9ea    4260            str         r2,[param_1,#0x4]                       
ram:0007c9ec    ca68            ldr         r2,[r1,#0xc]                            
ram:0007c9ee    8260            str         r2,[param_1,#0x8]                       
ram:0007c9f0    0a69            ldr         r2,[r1,#0x10]                           
ram:0007c9f2    c260            str         r2,[param_1,#0xc]                       
ram:0007c9f4    4969            ldr         r1,[r1,#0x14]                           
ram:0007c9f6    8161            str         r1,[param_1,#0x18]                      
ram:0007c9f8    98f80410        ldrb.w      r1,[r8,#0x4]=>DAT_20002c40              
ram:0007c9fc    01b1            cbz         r1,LAB_0007ca00                         
ram:0007c9fe    4660            str         r6,[param_1,#0x4]                       
                            LAB_0007ca00:                 ;XREF[2,0]:   0007c9c0,0007c9fc
ram:0007ca00    4268            ldr         r2,[param_1,#0x4]                       
ram:0007ca02    d8f81030        ldr.w       r3,[r8,#0x10]=>DAT_20002c4c             
ram:0007ca06    dff85cc0        ldr.w       r12,[DAT_0007ca64]                      ;= 007FFFFFh
ram:0007ca0a    d11a            subs        r1,r2,r3                                
ram:0007ca0c    21f07f41        bic         r1,r1,#0xff000000                       
ram:0007ca10    6145            cmp         r1,r12                                  
ram:0007ca12    02d2            bcs         LAB_0007ca1a                            
ram:0007ca14    8268            ldr         r2,[param_1,#0x8]                       
ram:0007ca16    1144            add         r1,r2                                   
ram:0007ca18    06e0            b           LAB_0007ca28                            
                            LAB_0007ca1a:                 ;XREF[1,0]:   0007ca12
ram:0007ca1a    991a            subs        r1,r3,r2                                
ram:0007ca1c    8268            ldr         r2,[param_1,#0x8]                       
ram:0007ca1e    21f07f41        bic         r1,r1,#0xff000000                       
ram:0007ca22    8a42            cmp         r2,r1                                   
ram:0007ca24    02d9            bls         LAB_0007ca2c                            
ram:0007ca26    511a            subs        r1,r2,r1                                
                            LAB_0007ca28:                 ;XREF[1,0]:   0007ca18
ram:0007ca28    0160            str         r1,[param_1,#0x0]                       
ram:0007ca2a    00e0            b           LAB_0007ca2e                            
                            LAB_0007ca2c:                 ;XREF[1,0]:   0007ca24
ram:0007ca2c    0660            str         r6,[param_1,#0x0]                       
                            LAB_0007ca2e:                 ;XREF[1,0]:   0007ca2a
ram:0007ca2e    4660            str         r6,[param_1,#0x4]                       
ram:0007ca30    0121            movs        r1,#0x1                                 
ram:0007ca32    8660            str         r6,[param_1,#0x8]                       
ram:0007ca34    0174            strb        r1,[param_1,#0x10]                      
ram:0007ca36    c661            str         r6,[param_1,#0x1c]                      
ram:0007ca38    00f09cfd        bl          FUN_0007d574                            ;undefined FUN_0007d574(uint * param_1)
                            LAB_0007ca3c:                 ;XREF[1,0]:   0007c9b8
ram:0007ca3c    002d            cmp         r5,#0x0                                 
ram:0007ca3e    bcd1            bne         LAB_0007c9ba                            
                            LAB_0007ca40:                 ;XREF[2,0]:   0007c9e2,0007c9e6
ram:0007ca40    2078            ldrb        param_1,[r4,#0x0]                       
ram:0007ca42    6178            ldrb        r1,[r4,#0x1]                            
ram:0007ca44    8842            cmp         param_1,r1                              
ram:0007ca46    bcd1            bne         LAB_0007c9c2                            
                            LAB_0007ca48:                 ;XREF[1,0]:   0007c9ae
ram:0007ca48    7f1e            subs        r7,r7,#0x1                              
ram:0007ca4a    ffb2            uxtb        r7,r7                                   
ram:0007ca4c    b0d2            bcs         LAB_0007c9b0                            
ram:0007ca4e    d8f80c10        ldr.w       r1,[r8,#0xc]=>DAT_20002c48              
ram:0007ca52    4945            cmp         r1,r9                                   
ram:0007ca54    02d0            beq         LAB_0007ca5c                            
ram:0007ca56    0120            movs        param_1,#0x1                            
                            LAB_0007ca58:                 ;XREF[1,0]:   0007ca5e
ram:0007ca58    bde8f087        pop.w       {r4,r5,r6,r7,r8,r9,r10,pc}              
                            LAB_0007ca5c:                 ;XREF[1,0]:   0007ca54
ram:0007ca5c    0020            movs        param_1,#0x0                            
ram:0007ca5e    fbe7            b           LAB_0007ca58                            
                            DAT_0007ca60:                 ;XREF[1,0]:   0007c9a2
ram:0007ca60    3c2c0020        undefined4  20002C3Ch                               
                            DAT_0007ca64:                 ;XREF[1,0]:   0007ca06
ram:0007ca64    ffff7f00        undefined4  007FFFFFh                               
                            ;************************************************************************************************
                            ;*                                           FUNCTION                                           *
                            ;************************************************************************************************
                            ;undefined FUN_0007ca68(void)
          ;local_c       undefined4          -c                      ;XREF[1,0]:   0007ca84
          ;local_10      undefined4         -10                      ;XREF[2,0]:   0007ca7e,0007cad0
                                                          ;XREF[1,0]:   0007a40a
ram:0007ca68    1cb5            push        {r2,r3,r4,lr}                           
ram:0007ca6a    4848            ldr         r0,[DAT_0007cb8c]                       ;= 4000051Ch
ram:0007ca6c    0168            ldr         r1,[r0,#0x0]=>DAT_4000051c              
ram:0007ca6e    0026            movs        r6,#0x0                                 
ram:0007ca70    b129            cmp         r1,#0xb1                                
ram:0007ca72    50d0            beq         LAB_0007cb16                            
ram:0007ca74    0025            movs        r5,#0x0                                 
                            LAB_0007ca76:                 ;XREF[1,0]:   0007cb1a
ram:0007ca76    1124            movs        r4,#0x11                                
ram:0007ca78    1427            movs        r7,#0x14                                
                            LAB_0007ca7a:                 ;XREF[1,0]:   0007ca8e
ram:0007ca7a    0122            movs        r2,#0x1                                 
ram:0007ca7c    2046            mov         r0,r4                                   
ram:0007ca7e    0096            str         r6,[sp,#0x0]=>local_10                  
ram:0007ca80    0023            movs        r3,#0x0                                 
ram:0007ca82    1146            mov         r1,r2                                   
ram:0007ca84    0196            str         r6,[sp,#local_c+0x10]                   
ram:0007ca86    00f034f9        bl          FUN_0007ccf2                            ;undefined FUN_0007ccf2(int param_1, ...
ram:0007ca8a    641c            adds        r4,r4,#0x1                              
ram:0007ca8c    bc42            cmp         r4,r7                                   
ram:0007ca8e    f4d9            bls         LAB_0007ca7a                            
ram:0007ca90    3f4f            ldr         r7,[DAT_0007cb90]                       ;= 50000508h
ram:0007ca92    4ff4f010        mov.w       r0,#0x1e0000                            
ram:0007ca96    3860            str         r0,[r7,#0x0]=>DAT_50000508              
ram:0007ca98    4ff01020        mov.w       r0,#0x10001000                          
ram:0007ca9c    4069            ldr         r0,[r0,#offset DAT_10001014 &0xff]      
ram:0007ca9e    b0f5f42f        cmp.w       r0,#MasterStackPointer                  ;= 20005408
ram:0007caa2    02d0            beq         LAB_0007caaa                            
ram:0007caa4    0020            movs        r0,#0x0                                 
ram:0007caa6    fef76bf9        bl          FUN_0007ad80                            ;undefined FUN_0007ad80(void)
                            LAB_0007caaa:                 ;XREF[1,0]:   0007caa2
ram:0007caaa    4ff08050        mov.w       r0,#0x10000000                          
ram:0007caae    0069            ldr         r0,[r0,#offset DAT_10000010 &0xff]      
ram:0007cab0    b0f5805f        cmp.w       r0,#0x1000                              
ram:0007cab4    02d0            beq         LAB_0007cabc                            
ram:0007cab6    0020            movs        r0,#0x0                                 
ram:0007cab8    fef762f9        bl          FUN_0007ad80                            ;undefined FUN_0007ad80(void)
                            LAB_0007cabc:                 ;XREF[1,0]:   0007cab4
ram:0007cabc    354b            ldr         r3=>LAB_0007af70...,[PTR_LAB_0007af70...;= 0007af71
ram:0007cabe    364a            ldr         r2,[DAT_0007cb98]                       ;= 20002CD4h
ram:0007cac0    0521            movs        r1,#0x5                                 
ram:0007cac2    0020            movs        r0,#0x0                                 
ram:0007cac4    fef760fa        bl          FUN_0007af88                            ;undefined4 FUN_0007af88(undefined4 p...
ram:0007cac8    08b1            cbz         r0,LAB_0007cace                         
ram:0007caca    fef759f9        bl          FUN_0007ad80                            ;undefined FUN_0007ad80(void)
                            LAB_0007cace:                 ;XREF[1,0]:   0007cac8
ram:0007cace    0323            movs        r3,#0x3                                 
ram:0007cad0    cde90063        strd        r6,r3,[sp,#0x0]=>local_10               
ram:0007cad4    0022            movs        r2,#0x0                                 
ram:0007cad6    1020            movs        r0,#0x10                                
ram:0007cad8    1146            mov         r1,r2                                   
ram:0007cada    00f00af9        bl          FUN_0007ccf2                            ;undefined FUN_0007ccf2(int param_1, ...
ram:0007cade    fef767fe        bl          FUN_0007b7b0                            ;undefined FUN_0007b7b0(void)
ram:0007cae2    fef7a5fd        bl          FUN_0007b630                            ;undefined4 FUN_0007b630(void)
ram:0007cae6    2a4e            ldr         r6,[DAT_0007cb90]                       ;= 50000508h
ram:0007cae8    4ff40024        mov.w       r4,#0x80000                             
ram:0007caec    361d            adds        r6,r6,#0x4                              
ram:0007caee    a8b1            cbz         r0,LAB_0007cb1c                         
ram:0007caf0    3460            str         r4,[r6,#0x0]=>DAT_5000050c              
ram:0007caf2    fef7acfd        bl          FUN_0007b64e                            ;undefined * FUN_0007b64e(undefined4 ...
ram:0007caf6    08b1            cbz         r0,LAB_0007cafc                         
ram:0007caf8    fef742f9        bl          FUN_0007ad80                            ;undefined FUN_0007ad80(void)
                            LAB_0007cafc:                 ;XREF[1,0]:   0007caf6
ram:0007cafc    85f00100        eor         r0,r5,#0x1                              
ram:0007cb00    fef70efd        bl          FUN_0007b520                            ;undefined FUN_0007b520(int param_1)
ram:0007cb04    00f0b8fb        bl          FUN_0007d278                            ;undefined FUN_0007d278(void)
ram:0007cb08    fef7befd        bl          FUN_0007b688                            ;undefined4 FUN_0007b688(void)
ram:0007cb0c    08b1            cbz         r0,LAB_0007cb12                         
ram:0007cb0e    fef737f9        bl          FUN_0007ad80                            ;undefined FUN_0007ad80(void)
                            LAB_0007cb12:                 ;XREF[1,0]:   0007cb0c
ram:0007cb12    3c60            str         r4,[r7,#0x0]=>DAT_50000508              
ram:0007cb14    08e0            b           LAB_0007cb28                            
                            LAB_0007cb16:                 ;XREF[1,0]:   0007ca72
ram:0007cb16    0125            movs        r5,#0x1                                 
ram:0007cb18    0660            str         r6,[r0,#0x0]=>DAT_4000051c              
ram:0007cb1a    ace7            b           LAB_0007ca76                            
                            LAB_0007cb1c:                 ;XREF[1,0]:   0007caee
ram:0007cb1c    85f00100        eor         r0,r5,#0x1                              
ram:0007cb20    fef7fefc        bl          FUN_0007b520                            ;undefined FUN_0007b520(int param_1)
ram:0007cb24    00f0a8fb        bl          FUN_0007d278                            ;undefined FUN_0007d278(void)
                            LAB_0007cb28:                 ;XREF[1,0]:   0007cb14
ram:0007cb28    1948            ldr         r0,[DAT_0007cb90]                       ;= 50000508h
ram:0007cb2a    0830            adds        r0,#0x8                                 
ram:0007cb2c    0068            ldr         r0,[r0,#0x0]=>DAT_50000510              
ram:0007cb2e    000c            lsrs        r0,r0,#0x10                             
ram:0007cb30    10f0010f        tst         r0,#0x1                                 
ram:0007cb34    05d0            beq         LAB_0007cb42                            
ram:0007cb36    0020            movs        r0,#0x0                                 
                            LAB_0007cb38:                 ;XREF[1,0]:   0007cb44
ram:0007cb38    2843            orrs        r0,r5                                   
ram:0007cb3a    4ff44055        mov.w       r5,#0x3000                              
ram:0007cb3e    06d1            bne         LAB_0007cb4e                            
ram:0007cb40    01e0            b           LAB_0007cb46                            
                            LAB_0007cb42:                 ;XREF[1,0]:   0007cb34
ram:0007cb42    0120            movs        r0,#0x1                                 
ram:0007cb44    f8e7            b           LAB_0007cb38                            
                            LAB_0007cb46:                 ;XREF[1,0]:   0007cb40
ram:0007cb46    a868            ldr         r0,[r5,#offset DAT_00003008 &0xff]      
ram:0007cb48    fef72afd        bl          FUN_0007b5a0                            ;int FUN_0007b5a0(int * param_1, unde...
ram:0007cb4c    30b9            cbnz        r0,LAB_0007cb5c                         
                            LAB_0007cb4e:                 ;XREF[1,0]:   0007cb3e
ram:0007cb4e    3460            str         r4,[r6,#0x0]=>DAT_5000050c              
ram:0007cb50    fef7b0fd        bl          FUN_0007b6b4                            ;uint FUN_0007b6b4(undefined4 param_1...
ram:0007cb54    08b1            cbz         r0,LAB_0007cb5a                         
ram:0007cb56    fef713f9        bl          FUN_0007ad80                            ;undefined FUN_0007ad80(void)
                            LAB_0007cb5a:                 ;XREF[1,0]:   0007cb54
ram:0007cb5a    3c60            str         r4,[r7,#0x0]=>DAT_50000508              
                            LAB_0007cb5c:                 ;XREF[1,0]:   0007cb4c
ram:0007cb5c    a868            ldr         r0,[r5,#offset DAT_00003008 &0xff]      
ram:0007cb5e    fef71ffd        bl          FUN_0007b5a0                            ;int FUN_0007b5a0(int * param_1, unde...
ram:0007cb62    28b1            cbz         r0,LAB_0007cb70                         
ram:0007cb64    fef764fd        bl          FUN_0007b630                            ;undefined4 FUN_0007b630(void)
ram:0007cb68    10b9            cbnz        r0,LAB_0007cb70                         
ram:0007cb6a    a868            ldr         r0,[r5,#offset DAT_00003008 &0xff]      
ram:0007cb6c    fef736fd        bl          FUN_0007b5dc                            ;undefined FUN_0007b5dc(int param_1)
                            LAB_0007cb70:                 ;XREF[2,0]:   0007cb62,0007cb68
ram:0007cb70    bff34f8f        dsb         0xf                                     
ram:0007cb74    0948            ldr         r0,[DAT_0007cb9c]                       ;= E000ED0Ch
ram:0007cb76    0168            ldr         r1,[r0,#0x0]=>DAT_e000ed0c              
ram:0007cb78    094a            ldr         r2,[DAT_0007cba0]                       ;= 05FA0004h
ram:0007cb7a    01f4e061        and         r1,r1,#0x700                            
ram:0007cb7e    1143            orrs        r1,r2                                   
ram:0007cb80    0160            str         r1,[r0,#0x0]=>DAT_e000ed0c              
ram:0007cb82    bff34f8f        dsb         0xf                                     
                            LAB_0007cb86:                 ;XREF[1,0]:   0007cb88
ram:0007cb86    00bf            nop                                                  
ram:0007cb88    fde7            b           LAB_0007cb86                            
ram:0007cb8a    0000            movs        r0,r0                                   
                            DAT_0007cb8c:                 ;XREF[1,0]:   0007ca6a
ram:0007cb8c    1c050040        undefined4  4000051Ch                               
                            DAT_0007cb90:                 ;XREF[3,0]:   0007ca90,0007cae6,0007cb28
ram:0007cb90    08050050        undefined4  50000508h                               
                            PTR_LAB_0007af70+1+1_0007cb94:;XREF[1,0]:   0007cabc
ram:0007cb94    71af0700        addr        LAB_0007af70+1+1                        
                            DAT_0007cb98:                 ;XREF[1,0]:   0007cabe
ram:0007cb98    d42c0020        undefined4  20002CD4h                               
                            DAT_0007cb9c:                 ;XREF[1,0]:   0007cb74
ram:0007cb9c    0ced00e0        undefined4  E000ED0Ch                               
                            DAT_0007cba0:                 ;XREF[1,0]:   0007cb78
ram:0007cba0    0400fa05        undefined4  05FA0004h                               
                            ;************************************************************************************************
                            ;*                                           FUNCTION                                           *
                            ;************************************************************************************************
                            ;undefined4 FUN_0007cba4(ushort * param_1, int param_2, ushort * param_3, uint param_4)
          ;param_1       ushort *            r0                      
          ;param_2       int                 r1                      
          ;param_3       ushort *            r2                      
          ;param_4       uint                r3                      
                                                          ;XREF[1,0]:   0007ab56
ram:0007cba4    70b5            push        {r4,r5,r6,lr}                           
ram:0007cba6    1446            mov         r4,param_3                              
ram:0007cba8    8288            ldrh        param_3,[param_1,#0x4]                  
ram:0007cbaa    0e46            mov         r6,param_2                              
ram:0007cbac    0546            mov         r5,param_1                              
ram:0007cbae    2088            ldrh        param_1,[r4,#0x0]                       
ram:0007cbb0    111d            adds        param_2,param_3,#0x4                    
ram:0007cbb2    0144            add         param_2,param_1                         
ram:0007cbb4    921c            adds        param_3,param_3,#0x2                    
ram:0007cbb6    9942            cmp         param_2,param_4                         
ram:0007cbb8    01d8            bhi         LAB_0007cbbe                            
ram:0007cbba    fe2a            cmp         param_3,#0xfe                           
ram:0007cbbc    01d9            bls         LAB_0007cbc2                            
                            LAB_0007cbbe:                 ;XREF[1,0]:   0007cbb8
ram:0007cbbe    0c20            movs        param_1,#0xc                            
ram:0007cbc0    70bd            pop         {r4,r5,r6,pc}                           
                            LAB_0007cbc2:                 ;XREF[1,0]:   0007cbbc
ram:0007cbc2    521c            adds        param_3,param_3,#0x1                    
ram:0007cbc4    3254            strb        param_3,[r6,param_1]                    
ram:0007cbc6    2088            ldrh        param_1,[r4,#0x0]                       
ram:0007cbc8    ff21            movs        param_2,#0xff                           
ram:0007cbca    401c            adds        param_1,param_1,#0x1                    
ram:0007cbcc    80b2            uxth        param_1,param_1                         
ram:0007cbce    2080            strh        param_1,[r4,#0x0]                       
ram:0007cbd0    3154            strb        param_2,[r6,param_1]                    
ram:0007cbd2    2088            ldrh        param_1,[r4,#0x0]                       
ram:0007cbd4    401c            adds        param_1,param_1,#0x1                    
ram:0007cbd6    80b2            uxth        param_1,param_1                         
ram:0007cbd8    2080            strh        param_1,[r4,#0x0]                       
ram:0007cbda    8119            adds        param_2,param_1,r6                      
ram:0007cbdc    2888            ldrh        param_1,[r5,#0x0]                       
ram:0007cbde    00f029fd        bl          FUN_0007d634                            ;undefined4 FUN_0007d634(undefined4 p...
ram:0007cbe2    2188            ldrh        param_2,[r4,#0x0]                       
ram:0007cbe4    0844            add         param_1,param_2                         
ram:0007cbe6    80b2            uxth        param_1,param_1                         
ram:0007cbe8    2080            strh        param_1,[r4,#0x0]                       
ram:0007cbea    aa88            ldrh        param_3,[r5,#0x4]                       
ram:0007cbec    42b1            cbz         param_3,LAB_0007cc00                    
ram:0007cbee    a968            ldr         param_2,[r5,#0x8]                       
ram:0007cbf0    41b1            cbz         param_2,LAB_0007cc04                    
ram:0007cbf2    3044            add         param_1,r6                              
ram:0007cbf4    fdf7c2fc        bl          FUN_0007a57c                            ;undefined FUN_0007a57c(undefined4 * ...
ram:0007cbf8    2088            ldrh        param_1,[r4,#0x0]                       
ram:0007cbfa    a988            ldrh        param_2,[r5,#0x4]                       
ram:0007cbfc    0844            add         param_1,param_2                         
ram:0007cbfe    2080            strh        param_1,[r4,#0x0]                       
                            LAB_0007cc00:                 ;XREF[1,0]:   0007cbec
ram:0007cc00    0020            movs        param_1,#0x0                            
ram:0007cc02    70bd            pop         {r4,r5,r6,pc}                           
                            LAB_0007cc04:                 ;XREF[1,0]:   0007cbf0
ram:0007cc04    0720            movs        param_1,#0x7                            
ram:0007cc06    70bd            pop         {r4,r5,r6,pc}                           
                            ;************************************************************************************************
                            ;*                                           FUNCTION                                           *
                            ;************************************************************************************************
                            ;longlong FUN_0007cc08(byte * param_1, int param_2, ushort * param_3, ushort * param_4)
          ;param_1       byte *              r0                      
          ;param_2       int                 r1                      
          ;param_3       ushort *            r2                      
          ;param_4       ushort *            r3                      
          ;local_18      undefined2         -18                      ;XREF[6,0]:   0007cc3c,0007cc54,0007cc6c,0007cc72,0007cc76
                                                                     ;             0007cc98
                                                          ;XREF[1,0]:   0007ab80
ram:0007cc08    f8b5            push        {param_4,r4,r5,r6,r7,lr}                
ram:0007cc0a    0e46            mov         r6,param_2                              
ram:0007cc0c    0178            ldrb        param_2,[param_1,#0x0]                  
ram:0007cc0e    1446            mov         r4,param_3                              
ram:0007cc10    0546            mov         r5,param_1                              
ram:0007cc12    0129            cmp         param_2,#0x1                            
ram:0007cc14    01d1            bne         LAB_0007cc1a                            
ram:0007cc16    6878            ldrb        param_1,[r5,#0x1]                       
ram:0007cc18    30b1            cbz         param_1,LAB_0007cc28                    
                            LAB_0007cc1a:                 ;XREF[1,0]:   0007cc14
ram:0007cc1a    2088            ldrh        param_1,[r4,#0x0]                       
ram:0007cc1c    821c            adds        param_3,param_1,#0x2                    
ram:0007cc1e    9a42            cmp         param_3,param_4                         
ram:0007cc20    2dd8            bhi         LAB_0007cc7e                            
ram:0007cc22    0129            cmp         param_2,#0x1                            
ram:0007cc24    02d0            beq         LAB_0007cc2c                            
ram:0007cc26    06e0            b           LAB_0007cc36                            
                            LAB_0007cc28:                 ;XREF[1,0]:   0007cc18
ram:0007cc28    0720            movs        param_1,#0x7                            
                            LAB_0007cc2a:                 ;XREF[1,0]:   0007cc4c
ram:0007cc2a    f8bd            pop         {param_4,r4,r5,r6,r7,pc}                
                            LAB_0007cc2c:                 ;XREF[1,0]:   0007cc24
ram:0007cc2c    6978            ldrb        param_2,[r5,#0x1]                       
ram:0007cc2e    0144            add         param_2,param_1                         
ram:0007cc30    891c            adds        param_2,param_2,#0x2                    
ram:0007cc32    9942            cmp         param_2,param_4                         
ram:0007cc34    23d8            bhi         LAB_0007cc7e                            
                            LAB_0007cc36:                 ;XREF[1,0]:   0007cc26
ram:0007cc36    181a            subs        param_1,param_4,param_1                 
ram:0007cc38    801e            subs        param_1,param_1,#0x2                    
ram:0007cc3a    87b2            uxth        r7,param_1                              
ram:0007cc3c    adf80070        strh.w      r7,[sp,#0x0]=>local_18                  
ram:0007cc40    2188            ldrh        param_2,[r4,#0x0]                       
ram:0007cc42    b01c            adds        param_1,r6,#0x2                         
ram:0007cc44    0844            add         param_1,param_2                         
ram:0007cc46    6946            mov         param_2,sp                              
ram:0007cc48    7ddf            svc         0x7d                                    
ram:0007cc4a    0028            cmp         param_1,#0x0                            
ram:0007cc4c    edd1            bne         LAB_0007cc2a                            
ram:0007cc4e    2878            ldrb        param_1,[r5,#0x0]                       
ram:0007cc50    0228            cmp         param_1,#0x2                            
ram:0007cc52    05d1            bne         LAB_0007cc60                            
ram:0007cc54    bdf80010        ldrh.w      param_2=>local_18,[sp,#0x0]             
ram:0007cc58    b942            cmp         param_2,r7                              
ram:0007cc5a    01d8            bhi         LAB_0007cc60                            
ram:0007cc5c    0921            movs        param_2,#0x9                            
ram:0007cc5e    0ae0            b           LAB_0007cc76                            
                            LAB_0007cc60:                 ;XREF[2,0]:   0007cc52,0007cc5a
ram:0007cc60    0821            movs        param_2,#0x8                            
ram:0007cc62    0128            cmp         param_1,#0x1                            
ram:0007cc64    05d1            bne         LAB_0007cc72                            
ram:0007cc66    6878            ldrb        param_1,[r5,#0x1]                       
ram:0007cc68    b842            cmp         param_1,r7                              
ram:0007cc6a    02d8            bhi         LAB_0007cc72                            
ram:0007cc6c    adf80000        strh.w      param_1,[sp,#0x0]=>local_18             
ram:0007cc70    01e0            b           LAB_0007cc76                            
                            LAB_0007cc72:                 ;XREF[2,0]:   0007cc64,0007cc6a
ram:0007cc72    adf80070        strh.w      r7,[sp,#0x0]=>local_18                  
                            LAB_0007cc76:                 ;XREF[2,0]:   0007cc5e,0007cc70
ram:0007cc76    bdf80000        ldrh.w      param_1,[sp,#0x0]=>local_18             
ram:0007cc7a    fe28            cmp         param_1,#0xfe                           
ram:0007cc7c    01d9            bls         LAB_0007cc82                            
                            LAB_0007cc7e:                 ;XREF[2,0]:   0007cc20,0007cc34
ram:0007cc7e    0c20            movs        param_1,#0xc                            
ram:0007cc80    f8bd            pop         {param_4,r4,r5,r6,r7,pc}                
                            LAB_0007cc82:                 ;XREF[1,0]:   0007cc7c
ram:0007cc82    2288            ldrh        param_3,[r4,#0x0]                       
ram:0007cc84    401c            adds        param_1,param_1,#0x1                    
ram:0007cc86    b054            strb        param_1,[r6,param_3]                    
ram:0007cc88    2088            ldrh        param_1,[r4,#0x0]                       
ram:0007cc8a    401c            adds        param_1,param_1,#0x1                    
ram:0007cc8c    80b2            uxth        param_1,param_1                         
ram:0007cc8e    2080            strh        param_1,[r4,#0x0]                       
ram:0007cc90    3154            strb        param_2,[r6,param_1]                    
ram:0007cc92    2088            ldrh        param_1,[r4,#0x0]                       
ram:0007cc94    401c            adds        param_1,param_1,#0x1                    
ram:0007cc96    2080            strh        param_1,[r4,#0x0]                       
ram:0007cc98    bdf80010        ldrh.w      param_2,[sp,#0x0]=>local_18             
ram:0007cc9c    0844            add         param_1,param_2                         
ram:0007cc9e    2080            strh        param_1,[r4,#0x0]                       
ram:0007cca0    0020            movs        param_1,#0x0                            
ram:0007cca2    f8bd            pop         {param_4,r4,r5,r6,r7,pc}                
                            ;************************************************************************************************
                            ;*                                           FUNCTION                                           *
                            ;************************************************************************************************
                            ;undefined FUN_0007cca4(int param_1)
          ;param_1       int                 r0                      
          ;local_10      undefined4         -10                      ;XREF[2,0]:   0007ccae,0007ccb6
                                                          ;XREF[1,0]:   0007b660
ram:0007cca4    31b5            push        {param_1,r4,r5,lr}                      
ram:0007cca6    40f2e734        movw        r4,#0x3e7                               
ram:0007ccaa    04e0            b           LAB_0007ccb6                            
                            LAB_0007ccac:                 ;XREF[1,0]:   0007ccba
ram:0007ccac    401e            subs        param_1,param_1,#0x1                    
ram:0007ccae    0090            str         param_1,[sp,#0x0]=>local_10             
ram:0007ccb0    2046            mov         param_1,r4                              
ram:0007ccb2    fdf7bffb        bl          FUN_0007a434                            ;undefined FUN_0007a434(int param_1)
                            LAB_0007ccb6:                 ;XREF[1,0]:   0007ccaa
ram:0007ccb6    0098            ldr         param_1,[sp,#0x0]=>local_10             
ram:0007ccb8    0028            cmp         param_1,#0x0                            
ram:0007ccba    f7d1            bne         LAB_0007ccac                            
ram:0007ccbc    38bd            pop         {r3,r4,r5,pc}                           
                            ;************************************************************************************************
                            ;*                                           FUNCTION                                           *
                            ;************************************************************************************************
                            ;undefined4 FUN_0007ccbe(int param_1, int param_2)
          ;param_1       int                 r0                      
          ;param_2       int                 r1                      
                                                          ;XREF[6,0]:   0007bcbe,0007be3e,0007c7da,0007cfd2
                                                          ;             0007d01c,0007d4c8
ram:0007ccbe    0828            cmp         param_1,#0x8                            
ram:0007ccc0    0bd0            beq         LAB_0007ccda                            
ram:0007ccc2    03dc            bgt         LAB_0007cccc                            
ram:0007ccc4    38b1            cbz         param_1,LAB_0007ccd6                    
ram:0007ccc6    0628            cmp         param_1,#0x6                            
ram:0007ccc8    0fd1            bne         LAB_0007ccea                            
ram:0007ccca    08e0            b           LAB_0007ccde                            
                            LAB_0007cccc:                 ;XREF[1,0]:   0007ccc2
ram:0007cccc    0b28            cmp         param_1,#0xb                            
ram:0007ccce    0ad0            beq         LAB_0007cce6                            
ram:0007ccd0    0c28            cmp         param_1,#0xc                            
ram:0007ccd2    0ad1            bne         LAB_0007ccea                            
ram:0007ccd4    05e0            b           LAB_0007cce2                            
                            LAB_0007ccd6:                 ;XREF[1,0]:   0007ccc4
ram:0007ccd6    0120            movs        param_1,#0x1                            
ram:0007ccd8    7047            bx          lr                                      
                            LAB_0007ccda:                 ;XREF[1,0]:   0007ccc0
ram:0007ccda    0220            movs        param_1,#0x2                            
ram:0007ccdc    7047            bx          lr                                      
                            LAB_0007ccde:                 ;XREF[1,0]:   0007ccca
ram:0007ccde    0320            movs        param_1,#0x3                            
ram:0007cce0    7047            bx          lr                                      
                            LAB_0007cce2:                 ;XREF[1,0]:   0007ccd4
ram:0007cce2    0420            movs        param_1,#0x4                            
ram:0007cce4    7047            bx          lr                                      
                            LAB_0007cce6:                 ;XREF[1,0]:   0007ccce
ram:0007cce6    0429            cmp         param_2,#0x4                            
ram:0007cce8    01d0            beq         LAB_0007ccee                            
                            LAB_0007ccea:                 ;XREF[2,0]:   0007ccc8,0007ccd2
ram:0007ccea    0620            movs        param_1,#0x6                            
ram:0007ccec    7047            bx          lr                                      
                            LAB_0007ccee:                 ;XREF[1,0]:   0007cce8
ram:0007ccee    0520            movs        param_1,#0x5                            
ram:0007ccf0    7047            bx          lr                                      
                            ;************************************************************************************************
                            ;*                                           FUNCTION                                           *
                            ;************************************************************************************************
                            ;undefined FUN_0007ccf2(int param_1, uint param_2, int param_3, int param_4, int param_5, int param_6)
          ;param_1       int                 r0                      
          ;param_2       uint                r1                      
          ;param_3       int                 r2                      
          ;param_4       int                 r3                      
          ;param_5       int                  0                      ;XREF[1,0]:   0007ccf8
          ;param_6       int                  4                      
                                                          ;XREF[2,0]:   0007ca86,0007cada
ram:0007ccf2    30b5            push        {r4,r5,lr}                              
ram:0007ccf4    41ea4201        orr.w       param_2,param_2,param_3, lsl #0x1       
ram:0007ccf8    dde90345        ldrd        r4,r5,[sp,#param_5+0xc]                 
ram:0007ccfc    41ea8301        orr.w       param_2,param_2,param_4, lsl #0x2       
ram:0007cd00    8000            lsls        param_1,param_1,#0x2                    
ram:0007cd02    41ea0421        orr.w       param_2,param_2,r4, lsl #0x8            
ram:0007cd06    00f1a040        add.w       param_1,param_1,#0x50000000             
ram:0007cd0a    41ea0541        orr.w       param_2,param_2,r5, lsl #0x10           
ram:0007cd0e    c0f80017        str.w       param_2,[param_1,#0x700]                
ram:0007cd12    30bd            pop         {r4,r5,pc}                              
                            ;************************************************************************************************
                            ;*                                           FUNCTION                                           *
                            ;************************************************************************************************
                            ;undefined FUN_0007cd14(int param_1)
          ;param_1       int                 r0                      
                                                          ;XREF[2,0]:   0007c4c6,0007c4cc
ram:0007cd14    0321            movs        r1,#0x3                                 
ram:0007cd16    8000            lsls        param_1,param_1,#0x2                    
ram:0007cd18    00f1a040        add.w       param_1,param_1,#0x50000000             
ram:0007cd1c    c0f80017        str.w       r1,[param_1,#0x700]                     
ram:0007cd20    7047            bx          lr                                      
ram:0007cd22    0000            movs        r0,r0                                   
                            ;************************************************************************************************
                            ;*                                           FUNCTION                                           *
                            ;************************************************************************************************
                            ;undefined FUN_0007cd24(uint param_1)
          ;param_1       uint                r0                      
                                                          ;XREF[5,0]:   0007c49c,0007c4d2,0007c4d8,0007cd60
                                                          ;             0007cde2
ram:0007cd24    0121            movs        r1,#0x1                                 
ram:0007cd26    8140            lsls        r1,param_1                              
ram:0007cd28    0148            ldr         param_1=>DAT_50000508,[DAT_0007cd30]    ;= 50000508h
ram:0007cd2a    0160            str         r1,[param_1,#0x0]=>DAT_50000508         
ram:0007cd2c    7047            bx          lr                                      
ram:0007cd2e    0000            movs        r0,r0                                   
                            DAT_0007cd30:                 ;XREF[1,0]:   0007cd28
ram:0007cd30    08050050        undefined4  50000508h                               
                            ;************************************************************************************************
                            ;*                                           FUNCTION                                           *
                            ;************************************************************************************************
                            ;undefined FUN_0007cd34(ushort * param_1, uint param_2)
          ;param_1       ushort *            r0                      
          ;param_2       uint                r1                      
          ;local_1c      undefined2         -1c                      ;XREF[1,0]:   0007cdd8
          ;local_28      undefined2         -28                      ;XREF[1,0]:   0007ce8c
          ;local_2c      undefined1         -2c                      ;XREF[2,0]:   0007ce82,0007ce9c
          ;local_84      undefined4         -84                      ;XREF[1,0]:   0007ce32
          ;local_88      undefined4         -88                      ;XREF[1,0]:   0007ce3a
          ;local_96      undefined1         -96                      ;XREF[1,0]:   0007ce1a
          ;local_98      undefined2         -98                      ;XREF[1,0]:   0007ce14
          ;local_9c      undefined4         -9c                      ;XREF[2,0]:   0007ce10,0007ce52
          ;local_ac      undefined4         -ac                      ;XREF[1,0]:   0007ce58
          ;local_b0      undefined4         -b0                      ;XREF[1,0]:   0007ce56
                                                          ;XREF[1,0]:   0007b516
ram:0007cd34    f0b5            push        {r4,r5,r6,r7,lr}                        
ram:0007cd36    5c4c            ldr         r4,[DAT_0007cea8]                       ;= 20002C94h
ram:0007cd38    0546            mov         r5,param_1                              
ram:0007cd3a    0088            ldrh        param_1,[param_1,#0x0]                  
ram:0007cd3c    0027            movs        r7,#0x0                                 
ram:0007cd3e    0122            movs        r2,#0x1                                 
ram:0007cd40    e688            ldrh        r6,[r4,#0x6]=>DAT_20002c9a              
ram:0007cd42    a7b0            sub         sp,#0x9c                                
ram:0007cd44    1728            cmp         param_1,#0x17                           
ram:0007cd46    10d0            beq         LAB_0007cd6a                            
ram:0007cd48    24dc            bgt         LAB_0007cd94                            
ram:0007cd4a    1128            cmp         param_1,#0x11                           
ram:0007cd4c    43d0            beq         LAB_0007cdd6                            
ram:0007cd4e    0edc            bgt         LAB_0007cd6e                            
ram:0007cd50    0228            cmp         param_1,#0x2                            
ram:0007cd52    78d0            beq         LAB_0007ce46                            
ram:0007cd54    1028            cmp         param_1,#0x10                           
ram:0007cd56    08d1            bne         LAB_0007cd6a                            
ram:0007cd58    5449            ldr         param_2=>DAT_5000050c,[DAT_0007ceac]    ;= 5000050Ch
ram:0007cd5a    8003            lsls        param_1,param_1,#0xe                    
ram:0007cd5c    0860            str         param_1,[param_2,#0x0]=>DAT_5000050c    
ram:0007cd5e    1120            movs        param_1,#0x11                           
ram:0007cd60    fff7e0ff        bl          FUN_0007cd24                            ;undefined FUN_0007cd24(uint param_1)
ram:0007cd64    a888            ldrh        param_1,[r5,#0x4]                       
ram:0007cd66    e080            strh        param_1,[r4,#0x6]=>DAT_20002c9a         
ram:0007cd68    a770            strb        r7,[r4,#0x2]=>DAT_20002c96              
                            LAB_0007cd6a:                 ;XREF[12,0]:  0007cd46,0007cd56,0007cd7a,0007cda0
                                                          ;             0007cda6,0007cdb6,0007cdbe,0007cdc4
                                                          ;             0007cdce,0007cdd4,0007ce04,0007ce60
ram:0007cd6a    27b0            add         sp,#0x9c                                
ram:0007cd6c    f0bd            pop         {r4,r5,r6,r7,pc}                        
                            LAB_0007cd6e:                 ;XREF[1,0]:   0007cd4e
ram:0007cd6e    5049            ldr         param_2,[DAT_0007ceb0]                  ;= 20003290h
ram:0007cd70    1328            cmp         param_1,#0x13                           
ram:0007cd72    01f11804        add.w       r4,param_2,#0x18                        
ram:0007cd76    46d0            beq         LAB_0007ce06                            
ram:0007cd78    1428            cmp         param_1,#0x14                           
ram:0007cd7a    f6d1            bne         LAB_0007cd6a                            
ram:0007cd7c    e889            ldrh        param_1,[r5,#0xe]                       
ram:0007cd7e    4a8d            ldrh        r2,[param_2,#0x2a]=>DAT_200032ba        
ram:0007cd80    0026            movs        r6,#0x0                                 
ram:0007cd82    9042            cmp         param_1,r2                              
ram:0007cd84    00d1            bne         LAB_0007cd88                            
ram:0007cd86    2646            mov         r6,r4                                   
                            LAB_0007cd88:                 ;XREF[1,0]:   0007cd84
ram:0007cd88    0023            movs        r3,#0x0                                 
ram:0007cd8a    ca1d            adds        r2,param_2,#0x7                         
ram:0007cd8c    a888            ldrh        param_1,[r5,#0x4]                       
ram:0007cd8e    3146            mov         param_2,r6                              
ram:0007cd90    82df            svc         0x82                                    
ram:0007cd92    1be0            b           LAB_0007cdcc                            
                            LAB_0007cd94:                 ;XREF[1,0]:   0007cd48
ram:0007cd94    5128            cmp         param_1,#0x51                           
ram:0007cd96    68d0            beq         LAB_0007ce6a                            
ram:0007cd98    0edc            bgt         LAB_0007cdb8                            
ram:0007cd9a    1828            cmp         param_1,#0x18                           
ram:0007cd9c    7cd0            beq         LAB_0007ce98                            
ram:0007cd9e    1928            cmp         param_1,#0x19                           
ram:0007cda0    e3d1            bne         LAB_0007cd6a                            
ram:0007cda2    a879            ldrb        param_1,[r5,#0x6]                       
ram:0007cda4    0028            cmp         param_1,#0x0                            
ram:0007cda6    e0d1            bne         LAB_0007cd6a                            
ram:0007cda8    a770            strb        r7,[r4,#0x2]=>DAT_20002c96              
ram:0007cdaa    e068            ldr         param_1,[r4,#0xc]=>DAT_20002ca0         
ram:0007cdac    401e            subs        param_1,param_1,#0x1                    
ram:0007cdae    e060            str         param_1,[r4,#0xc]=>DAT_20002ca0         
ram:0007cdb0    4ad0            beq         LAB_0007ce48                            
ram:0007cdb2    fdf713ff        bl          FUN_0007abdc                            ;undefined FUN_0007abdc(void)
                            LAB_0007cdb6:                 ;XREF[2,0]:   0007ce6e,0007ce7c
ram:0007cdb6    d8e7            b           LAB_0007cd6a                            
                            LAB_0007cdb8:                 ;XREF[1,0]:   0007cd98
ram:0007cdb8    5228            cmp         param_1,#0x52                           
ram:0007cdba    72d0            beq         LAB_0007cea2                            
ram:0007cdbc    5528            cmp         param_1,#0x55                           
ram:0007cdbe    d4d1            bne         LAB_0007cd6a                            
ram:0007cdc0    a879            ldrb        param_1,[r5,#0x6]                       
ram:0007cdc2    0028            cmp         param_1,#0x0                            
ram:0007cdc4    d1d1            bne         LAB_0007cd6a                            
ram:0007cdc6    1321            movs        param_2,#0x13                           
ram:0007cdc8    3046            mov         param_1,r6                              
ram:0007cdca    76df            svc         0x76                                    
                            LAB_0007cdcc:                 ;XREF[5,0]:   0007cd92,0007ce44,0007ce68,0007ce96
                                                          ;             0007cea6
ram:0007cdcc    0028            cmp         param_1,#0x0                            
ram:0007cdce    ccd0            beq         LAB_0007cd6a                            
ram:0007cdd0    fdf7d6ff        bl          FUN_0007ad80                            ;undefined FUN_0007ad80(void)
ram:0007cdd4    c9e7            b           LAB_0007cd6a                            
                            LAB_0007cdd6:                 ;XREF[1,0]:   0007cd4c
ram:0007cdd6    8020            movs        param_1,#0x80                           
ram:0007cdd8    adf89400        strh.w      param_1,[sp,#local_1c+0xb0]             
ram:0007cddc    3220            movs        param_1,#0x32                           
ram:0007cdde    e060            str         param_1,[r4,#0xc]=>DAT_20002ca0         
ram:0007cde0    1220            movs        param_1,#0x12                           
ram:0007cde2    fff79fff        bl          FUN_0007cd24                            ;undefined FUN_0007cd24(uint param_1)
ram:0007cde6    0123            movs        r3,#0x1                                 
ram:0007cde8    25aa            add         r2,sp,#0x94                             
ram:0007cdea    01a9            add         param_2,sp,#0x4                         
ram:0007cdec    e088            ldrh        param_1,[r4,#0x6]=>DAT_20002c9a         
ram:0007cdee    aadf            svc         0xaa                                    
ram:0007cdf0    08b1            cbz         param_1,LAB_0007cdf6                    
ram:0007cdf2    fdf7c5ff        bl          FUN_0007ad80                            ;undefined FUN_0007ad80(void)
                            LAB_0007cdf6:                 ;XREF[1,0]:   0007cdf0
ram:0007cdf6    2078            ldrb        param_1,[r4,#0x0]=>DAT_20002c94         
ram:0007cdf8    08b9            cbnz        param_1,LAB_0007cdfe                    
ram:0007cdfa    fdf7effe        bl          FUN_0007abdc                            ;undefined FUN_0007abdc(void)
                            LAB_0007cdfe:                 ;XREF[1,0]:   0007cdf8
ram:0007cdfe    4ff6ff70        movw        param_1,#0xffff                         
ram:0007ce02    e080            strh        param_1,[r4,#0x6]=>DAT_20002c9a         
ram:0007ce04    b1e7            b           LAB_0007cd6a                            
                            LAB_0007ce06:                 ;XREF[1,0]:   0007cd76
ram:0007ce06    2a48            ldr         param_1,[DAT_0007ceb0]                  ;= 20003290h
ram:0007ce08    c91d            adds        param_2,param_2,#0x7                    
ram:0007ce0a    4838            subs        param_1,#0x48                           
ram:0007ce0c    50f8482f        ldr.w       r2,[param_1,#0x48]!=>DAT_20003290       
ram:0007ce10    0592            str         r2,[sp,#local_9c+0xb0]                  
ram:0007ce12    8288            ldrh        r2,[param_1,#0x4]=>DAT_20003294         
ram:0007ce14    adf81820        strh.w      r2,[sp,#local_98+0xb0]                  
ram:0007ce18    8079            ldrb        param_1,[param_1,#0x6]=>DAT_20003296    
ram:0007ce1a    8df81a00        strb.w      param_1,[sp,#local_96+0xb0]             
ram:0007ce1e    1022            movs        r2,#0x10                                
ram:0007ce20    01a8            add         param_1,sp,#0x4                         
ram:0007ce22    fdf7abfb        bl          FUN_0007a57c                            ;undefined FUN_0007a57c(undefined4 * ...
ram:0007ce26    1c22            movs        r2,#0x1c                                
ram:0007ce28    2146            mov         param_2,r4                              
ram:0007ce2a    0ea8            add         param_1,sp,#0x38                        
ram:0007ce2c    fdf7a6fb        bl          FUN_0007a57c                            ;undefined FUN_0007a57c(undefined4 * ...
ram:0007ce30    01a8            add         param_1,sp,#0x4                         
ram:0007ce32    0b90            str         param_1,[sp,#local_84+0xb0]             
ram:0007ce34    1c4a            ldr         r2,[DAT_0007cea8]                       ;= 20002C94h
ram:0007ce36    0ea8            add         param_1,sp,#0x38                        
ram:0007ce38    1c32            adds        r2,#0x1c                                
ram:0007ce3a    0a90            str         param_1,[sp,#local_88+0xb0]             
ram:0007ce3c    07ab            add         r3,sp,#0x1c                             
ram:0007ce3e    8521            movs        param_2,#0x85                           
ram:0007ce40    3046            mov         param_1,r6                              
ram:0007ce42    7fdf            svc         0x7f                                    
ram:0007ce44    c2e7            b           LAB_0007cdcc                            
                            LAB_0007ce46:                 ;XREF[1,0]:   0007cd52
ram:0007ce46    0ce0            b           LAB_0007ce62                            
                            LAB_0007ce48:                 ;XREF[1,0]:   0007cdb0
ram:0007ce48    1422            movs        r2,#0x14                                
ram:0007ce4a    1a49            ldr         param_2=>DAT_0007d884,[PTR_DAT_0007ceb4];= 05h
                                                                                    ;= 0007d884
ram:0007ce4c    01a8            add         param_1,sp,#0x4                         
ram:0007ce4e    fdf795fb        bl          FUN_0007a57c                            ;undefined FUN_0007a57c(undefined4 * ...
ram:0007ce52    0598            ldr         param_1,[sp,#local_9c+0xb0]             
ram:0007ce54    01ac            add         r4,sp,#0x4                              
ram:0007ce56    0090            str         param_1,[sp,#0x0]=>local_b0             
ram:0007ce58    94e80f00        ldm.w       r4=>local_ac,{param_1,param_2,r2,r3}    
ram:0007ce5c    fef736fc        bl          FUN_0007b6cc                            ;undefined FUN_0007b6cc(uint param_1,...
ram:0007ce60    83e7            b           LAB_0007cd6a                            
                            LAB_0007ce62:                 ;XREF[1,0]:   0007ce46
ram:0007ce62    0021            movs        param_2,#0x0                            
ram:0007ce64    3046            mov         param_1,r6                              
ram:0007ce66    67df            svc         0x67                                    
ram:0007ce68    b0e7            b           LAB_0007cdcc                            
                            LAB_0007ce6a:                 ;XREF[1,0]:   0007cd96
ram:0007ce6a    a979            ldrb        param_2,[r5,#0x6]                       
ram:0007ce6c    0029            cmp         param_2,#0x0                            
ram:0007ce6e    a2d0            beq         LAB_0007cdb6                            
ram:0007ce70    a87a            ldrb        param_1,[r5,#0xa]                       
ram:0007ce72    0428            cmp         param_1,#0x4                            
ram:0007ce74    03d0            beq         LAB_0007ce7e                            
ram:0007ce76    0628            cmp         param_1,#0x6                            
ram:0007ce78    01d0            beq         LAB_0007ce7e                            
ram:0007ce7a    0528            cmp         param_1,#0x5                            
ram:0007ce7c    9bd1            bne         LAB_0007cdb6                            
                            LAB_0007ce7e:                 ;XREF[2,0]:   0007ce74,0007ce78
ram:0007ce7e    0229            cmp         param_2,#0x2                            
ram:0007ce80    0bd0            beq         LAB_0007ce9a                            
ram:0007ce82    8df88420        strb.w      r2,[sp,#local_2c+0xb0]                  
ram:0007ce86    00bf            nop                                                  
                            LAB_0007ce88:                 ;XREF[1,0]:   0007cea0
ram:0007ce88    4ff4c170        mov.w       param_1,#0x182                          
ram:0007ce8c    adf88800        strh.w      param_1,[sp,#local_28+0xb0]             
ram:0007ce90    21a9            add         param_2,sp,#0x84                        
ram:0007ce92    3046            mov         param_1,r6                              
ram:0007ce94    a8df            svc         0xa8                                    
ram:0007ce96    99e7            b           LAB_0007cdcc                            
                            LAB_0007ce98:                 ;XREF[1,0]:   0007cd9c
ram:0007ce98    03e0            b           LAB_0007cea2                            
                            LAB_0007ce9a:                 ;XREF[1,0]:   0007ce80
ram:0007ce9a    0220            movs        param_1,#0x2                            
ram:0007ce9c    8df88400        strb.w      param_1,[sp,#local_2c+0xb0]             
ram:0007cea0    f2e7            b           LAB_0007ce88                            
                            LAB_0007cea2:                 ;XREF[2,0]:   0007cdba,0007ce98
ram:0007cea2    00f0f9f9        bl          FUN_0007d298                            ;ulonglong FUN_0007d298(undefined4 pa...
ram:0007cea6    91e7            b           LAB_0007cdcc                            
                            DAT_0007cea8:                 ;XREF[2,0]:   0007cd36,0007ce34
ram:0007cea8    942c0020        undefined4  20002C94h                               
                            DAT_0007ceac:                 ;XREF[1,0]:   0007cd58
ram:0007ceac    0c050050        undefined4  5000050Ch                               
                            DAT_0007ceb0:                 ;XREF[2,0]:   0007cd6e,0007ce06
ram:0007ceb0    90320020        undefined4  20003290h                               
                            PTR_DAT_0007ceb4:             ;XREF[1,0]:   0007ce4a
ram:0007ceb4    84d80700        addr        DAT_0007d884                            ;= 05h
                            ;************************************************************************************************
                            ;*                                           FUNCTION                                           *
                            ;************************************************************************************************
                            ;uint FUN_0007ceb8(ushort * param_1, int param_2)
          ;param_1       ushort *            r0                      
          ;param_2       int                 r1                      
          ;local_1c      undefined4         -1c                      ;XREF[1,0]:   0007ceec
          ;local_20      undefined4         -20                      ;XREF[2,1]:   0007cede,0007cee2,0007cee8
          ;local_24      undefined1         -24                      ;XREF[1,0]:   0007cf02
          ;local_28      undefined4         -28                      ;XREF[1,0]:   0007cee0
          ;local_2a      undefined2         -2a                      ;XREF[1,0]:   0007ced4
          ;local_2c      undefined2         -2c                      ;XREF[1,0]:   0007cece
          ;local_2e      undefined1         -2e                      ;XREF[1,0]:   0007cec8
          ;local_30      undefined2         -30                      ;XREF[2,0]:   0007cf0c,0007cf36
          ;local_34      undefined1         -34                      ;XREF[1,0]:   0007cec4
          ;local_38      undefined1         -38                      ;XREF[1,0]:   0007cf50
          ;local_3c      undefined4         -3c                      ;XREF[2,0]:   0007cf54,0007cf96
          ;local_40      undefined1         -40                      ;XREF[4,0]:   0007cf44,0007cf62,0007cf6e,0007cf9e
                                                          ;XREF[1,0]:   0007b3ec
ram:0007ceb8    f0b5            push        {r4,r5,r6,r7,lr}                        
ram:0007ceba    8bb0            sub         sp,#0x2c                                
ram:0007cebc    0127            movs        r7,#0x1                                 
ram:0007cebe    4ff0020e        mov.w       lr,#0x2                                 
ram:0007cec2    0546            mov         r5,param_1                              
ram:0007cec4    8df80ce0        strb.w      lr,[sp,#local_34+0x40]                  
ram:0007cec8    8df81270        strb.w      r7,[sp,#local_2e+0x40]                  
ram:0007cecc    c88a            ldrh        param_1,[param_2,#0x16]                 
ram:0007cece    adf81400        strh.w      param_1,[sp,#local_2c+0x40]             
ram:0007ced2    088b            ldrh        param_1,[param_2,#0x18]                 
ram:0007ced4    adf81600        strh.w      param_1,[sp,#local_2a+0x40]             
ram:0007ced8    01f11a00        add.w       param_1,param_2,#0x1a                   
ram:0007cedc    0026            movs        r6,#0x0                                 
ram:0007cede    0896            str         r6,[sp,#local_20+0x40]                  
ram:0007cee0    0690            str         param_1,[sp,#local_28+0x40]             
ram:0007cee2    adf820e0        strh.w      lr,[sp,#local_20+0x40]                  
ram:0007cee6    07a8            add         param_1,sp,#0x1c                        
ram:0007cee8    adf82260        strh.w      r6,[sp,#local_20+0x42]                  
ram:0007ceec    0990            str         param_1,[sp,#local_1c+0x40]             
ram:0007ceee    0c46            mov         r4,param_2                              
ram:0007cef0    a98a            ldrh        param_2,[r5,#0x14]                      
ram:0007cef2    2888            ldrh        param_1,[r5,#0x0]                       
ram:0007cef4    08aa            add         r2,sp,#0x20                             
ram:0007cef6    a5df            svc         0xa5                                    
ram:0007cef8    18b1            cbz         param_1,LAB_0007cf02                    
ram:0007cefa    e96a            ldr         param_2,[r5,#0x2c]                      
ram:0007cefc    c9b1            cbz         param_2,LAB_0007cf32                    
ram:0007cefe    8847            blx         param_2                                 
ram:0007cf00    17e0            b           LAB_0007cf32                            
                            LAB_0007cf02:                 ;XREF[1,0]:   0007cef8
ram:0007cf02    9df81c00        ldrb.w      param_1,[sp,#local_24+0x40]             
ram:0007cf06    10f0010f        tst         param_1,#0x1                            
ram:0007cf0a    12d0            beq         LAB_0007cf32                            
ram:0007cf0c    adf81060        strh.w      r6,[sp,#local_30+0x40]                  
ram:0007cf10    2888            ldrh        param_1,[r5,#0x0]                       
ram:0007cf12    03a9            add         param_2,sp,#0xc                         
ram:0007cf14    a8df            svc         0xa8                                    
ram:0007cf16    0028            cmp         param_1,#0x0                            
ram:0007cf18    12d1            bne         LAB_0007cf40                            
ram:0007cf1a    a17e            ldrb        param_2,[r4,#0x1a]                      
ram:0007cf1c    04f11b00        add.w       param_1,r4,#0x1b                        
ram:0007cf20    0929            cmp         param_2,#0x9                            
ram:0007cf22    43d2            bcs         switchD_0007cf24::caseD_0               
                            switchD:                      ; FWD[10,0]:  0007cf28,0007cf44,0007cf62,0007cf6e
                                                          ;             0007cf74,0007cf78,0007cf7c,0007cf80
                                                          ;             0007cfa8,0007cfac
ram:0007cf24    dfe801f0        tbb         [switchD_0007cf24::switchdataD_0007cf...;= 42h
                            switchdataD_0007cf28:         ;XREF[1,0]:   0007cf24
ram:0007cf28    42              db          42h                                     
ram:0007cf29    0e              db          Eh                                      
ram:0007cf2a    1d              db          1Dh                                     
ram:0007cf2b    23              db          23h                                     
ram:0007cf2c    26              db          26h                                     
ram:0007cf2d    28              db          28h                                     
ram:0007cf2e    2a              db          2Ah                                     
ram:0007cf2f    40              db          40h                                     
ram:0007cf30    2c              db          2Ch                                     
ram:0007cf31    00              ??          00h                                     
                            LAB_0007cf32:                 ;XREF[3,0]:   0007cefc,0007cf00,0007cf0a
ram:0007cf32    40f2fd10        movw        param_1,#0x1fd                          
ram:0007cf36    adf81000        strh.w      param_1,[sp,#local_30+0x40]             
ram:0007cf3a    2888            ldrh        param_1,[r5,#0x0]                       
ram:0007cf3c    03a9            add         param_2,sp,#0xc                         
ram:0007cf3e    a8df            svc         0xa8                                    
                            LAB_0007cf40:                 ;XREF[3,0]:   0007cf18,0007cf60,0007cf90
ram:0007cf40    0bb0            add         sp,#0x2c                                
ram:0007cf42    f0bd            pop         {r4,r5,r6,r7,pc}                        
                            caseD_1:                      ;XREF[1,0]:   0007cf24
ram:0007cf44    8df80060        strb.w      r6,[sp,#0x0]=>local_40                  
ram:0007cf48    0de0            b           LAB_0007cf66                            
                            LAB_0007cf4a:                 ;XREF[1,0]:   0007cf6c
ram:0007cf4a    0622            movs        r2,#0x6                                 
ram:0007cf4c    1de0            b           LAB_0007cf8a                            
ram:0007cf4e    00bf            nop                                                  
                            LAB_0007cf50:                 ;XREF[1,0]:   0007cf6a
ram:0007cf50    8df80870        strb.w      r7,[sp,#local_38+0x40]                  
ram:0007cf54    0190            str         param_1,[sp,#local_3c+0x40]             
                            LAB_0007cf56:                 ;XREF[2,0]:   0007cf72,0007cfa2
ram:0007cf56    aa6a            ldr         r2,[r5,#0x28]                           
ram:0007cf58    6946            mov         param_2,sp                              
ram:0007cf5a    2846            mov         param_1,r5                              
ram:0007cf5c    9047            blx         r2                                      
ram:0007cf5e    0020            movs        param_1,#0x0                            
ram:0007cf60    eee7            b           LAB_0007cf40                            
                            caseD_2:                      ;XREF[1,0]:   0007cf24
ram:0007cf62    8df80070        strb.w      r7,[sp,#0x0]=>local_40                  
                            LAB_0007cf66:                 ;XREF[1,0]:   0007cf48
ram:0007cf66    228b            ldrh        r2,[r4,#0x18]                           
ram:0007cf68    022a            cmp         r2,#0x2                                 
ram:0007cf6a    f1d2            bcs         LAB_0007cf50                            
ram:0007cf6c    ede7            b           LAB_0007cf4a                            
                            caseD_3:                      ;XREF[1,0]:   0007cf24
ram:0007cf6e    8df800e0        strb.w      lr,[sp,#0x0]=>local_40                  
ram:0007cf72    f0e7            b           LAB_0007cf56                            
                            caseD_4:                      ;XREF[1,0]:   0007cf24
ram:0007cf74    0320            movs        param_1,#0x3                            
ram:0007cf76    12e0            b           LAB_0007cf9e                            
                            caseD_5:                      ;XREF[1,0]:   0007cf24
ram:0007cf78    0420            movs        param_1,#0x4                            
ram:0007cf7a    10e0            b           LAB_0007cf9e                            
                            caseD_6:                      ;XREF[1,0]:   0007cf24
ram:0007cf7c    0520            movs        param_1,#0x5                            
ram:0007cf7e    0ee0            b           LAB_0007cf9e                            
                            caseD_8:                      ;XREF[1,0]:   0007cf24
ram:0007cf80    208b            ldrh        param_1,[r4,#0x18]                      
ram:0007cf82    0328            cmp         param_1,#0x3                            
ram:0007cf84    05d2            bcs         LAB_0007cf92                            
ram:0007cf86    0322            movs        r2,#0x3                                 
ram:0007cf88    0821            movs        param_2,#0x8                            
                            LAB_0007cf8a:                 ;XREF[2,0]:   0007cf4c,0007cfae
ram:0007cf8a    2846            mov         param_1,r5                              
ram:0007cf8c    fef788fa        bl          FUN_0007b4a0                            ;undefined8 FUN_0007b4a0(ushort * par...
ram:0007cf90    d6e7            b           LAB_0007cf40                            
                            LAB_0007cf92:                 ;XREF[1,0]:   0007cf84
ram:0007cf92    b4f81b00        ldrh.w      param_1,[r4,#0x1b]                      
ram:0007cf96    adf80400        strh.w      param_1,[sp,#local_3c+0x40]             
ram:0007cf9a    18b1            cbz         param_1,LAB_0007cfa4                    
ram:0007cf9c    0620            movs        param_1,#0x6                            
                            LAB_0007cf9e:                 ;XREF[5,0]:   0007cf76,0007cf7a,0007cf7e,0007cfa6
                                                          ;             0007cfaa
ram:0007cf9e    8df80000        strb.w      param_1,[sp,#0x0]=>local_40             
ram:0007cfa2    d8e7            b           LAB_0007cf56                            
                            LAB_0007cfa4:                 ;XREF[1,0]:   0007cf9a
ram:0007cfa4    0720            movs        param_1,#0x7                            
ram:0007cfa6    fae7            b           LAB_0007cf9e                            
                            caseD_7:                      ;XREF[1,0]:   0007cf24
ram:0007cfa8    0920            movs        param_1,#0x9                            
ram:0007cfaa    f8e7            b           LAB_0007cf9e                            
                            caseD_0:                      ;XREF[2,0]:   0007cf22,0007cf24
ram:0007cfac    0322            movs        r2,#0x3                                 
ram:0007cfae    ece7            b           LAB_0007cf8a                            
                            ;************************************************************************************************
                            ;*                                           FUNCTION                                           *
                            ;************************************************************************************************
                            ;ushort * FUN_0007cfb0(ushort * param_1, byte * param_2)
          ;param_1       ushort *            r0                      
          ;param_2       byte *              r1                      
          ;local_10      undefined4         -10                      
          ;local_14      undefined4         -14                      ;XREF[1,0]:   0007d486
          ;local_18      undefined4         -18                      ;XREF[1,0]:   0007d482
          ;local_1c      undefined4         -1c                      ;XREF[2,0]:   0007d472,0007d4ba
          ;local_20      undefined4         -20                      ;XREF[2,0]:   0007d470,0007d4b0
          ;local_24      undefined4         -24                      ;XREF[2,0]:   0007d46e,0007d4a6
          ;local_28      undefined4         -28                      ;XREF[2,0]:   0007d46c,0007d47a
                                                          ;XREF[0,2]:   0007c570,0007c600
ram:0007cfb0    70b5            push        {r4,r5,r6,lr}                           
ram:0007cfb2    0446            mov         r4,param_1                              
ram:0007cfb4    0b78            ldrb        r3,[param_2,#0x0]                       
ram:0007cfb6    0120            movs        param_1,#0x1                            
ram:0007cfb8    314a            ldr         r2=>DAT_20002c94,[DAT_0007d080]         ;= 20002C94h
ram:0007cfba    0a2b            cmp         r3,#0xa                                 
ram:0007cfbc    16d2            bcs         switchD_0007cfbe::caseD_a               
                            switchD:                      ; FWD[12,0]:  0007cfc2,0007cfcc,0007cfdc,0007cfec
                                                          ;             0007cfee,0007d000,0007d00a,0007d036
                                                          ;             0007d03c,0007d064,0007d06e,0007d076
ram:0007cfbe    dfe803f0        tbb         [switchD_0007cfbe::switchdataD_0007cf...;= 1Fh
                            switchdataD_0007cfc2:         ;XREF[1,0]:   0007cfbe
ram:0007cfc2    1f              db          1Fh                                     
ram:0007cfc3    24              db          24h                                     
ram:0007cfc4    3a              db          3Ah                                     
ram:0007cfc5    05              db          5h                                      
ram:0007cfc6    0d              db          Dh                                      
ram:0007cfc7    16              db          16h                                     
ram:0007cfc8    51              db          51h                                     
ram:0007cfc9    56              db          56h                                     
ram:0007cfca    3d              db          3Dh                                     
ram:0007cfcb    5a              db          5Ah                                     
                            caseD_3:                      ;XREF[1,0]:   0007cfbe
ram:0007cfcc    fef760ff        bl          FUN_0007be90                            ;int FUN_0007be90(undefined4 param_1,...
ram:0007cfd0    0421            movs        param_2,#0x4                            
ram:0007cfd2    fff774fe        bl          FUN_0007ccbe                            ;undefined4 FUN_0007ccbe(int param_1,...
ram:0007cfd6    0246            mov         r2,param_1                              
ram:0007cfd8    0421            movs        param_2,#0x4                            
ram:0007cfda    23e0            b           LAB_0007d024                            
                            caseD_4:                      ;XREF[1,0]:   0007cfbe
ram:0007cfdc    fff748fa        bl          FUN_0007c470                            ;undefined4 FUN_0007c470(undefined4 p...
ram:0007cfe0    08b1            cbz         param_1,LAB_0007cfe6                    
ram:0007cfe2    fdf7cdfe        bl          FUN_0007ad80                            ;undefined FUN_0007ad80(void)
                            LAB_0007cfe6:                 ;XREF[1,0]:   0007cfe0
ram:0007cfe6    fef739ff        bl          FUN_0007be5c                            ;undefined4 FUN_0007be5c(undefined4 p...
ram:0007cfea    28b9            cbnz        param_1,LAB_0007cff8                    
                            caseD_a:                      ;XREF[2,0]:   0007cfbc,0007cfbe
ram:0007cfec    70bd            pop         {r4,r5,r6,pc}                           
                            caseD_5:                      ;XREF[1,0]:   0007cfbe
ram:0007cfee    fff73ffa        bl          FUN_0007c470                            ;undefined4 FUN_0007c470(undefined4 p...
ram:0007cff2    08b1            cbz         param_1,LAB_0007cff8                    
ram:0007cff4    fdf7c4fe        bl          FUN_0007ad80                            ;undefined FUN_0007ad80(void)
                            LAB_0007cff8:                 ;XREF[2,0]:   0007cfea,0007cff2
ram:0007cff8    bde87040        pop.w       {r4,r5,r6,lr}                           
ram:0007cffc    fff7beb8        b.w         FUN_0007c17c                            ;undefined FUN_0007c17c(uint param_1,...
                            caseD_0:                      ;XREF[1,0]:   0007cfbe
ram:0007d000    1071            strb        param_1,[r2,#0x4]=>DAT_20002c98         
ram:0007d002    4868            ldr         param_1,[param_2,#0x4]                  
ram:0007d004    0078            ldrb        param_1,[param_1,#0x0]                  
ram:0007d006    5071            strb        param_1,[r2,#0x5]=>DAT_20002c99         
                            LAB_0007d008:                 ;XREF[2,0]:   0007d014,0007d02c
ram:0007d008    70bd            pop         {r4,r5,r6,pc}                           
                            caseD_1:                      ;XREF[1,0]:   0007cfbe
ram:0007d00a    0220            movs        param_1,#0x2                            
ram:0007d00c    1071            strb        param_1,[r2,#0x4]=>DAT_20002c98         
ram:0007d00e    4868            ldr         param_1,[param_2,#0x4]                  
ram:0007d010    0078            ldrb        param_1,[param_1,#0x0]                  
ram:0007d012    0128            cmp         param_1,#0x1                            
ram:0007d014    f8d1            bne         LAB_0007d008                            
ram:0007d016    fef797ff        bl          FUN_0007bf48                            ;int FUN_0007bf48(void)
ram:0007d01a    0221            movs        param_2,#0x2                            
ram:0007d01c    fff74ffe        bl          FUN_0007ccbe                            ;undefined4 FUN_0007ccbe(int param_1,...
ram:0007d020    0246            mov         r2,param_1                              
ram:0007d022    0221            movs        param_2,#0x2                            
                            LAB_0007d024:                 ;XREF[1,0]:   0007cfda
ram:0007d024    2046            mov         param_1,r4                              
ram:0007d026    fef73bfa        bl          FUN_0007b4a0                            ;undefined8 FUN_0007b4a0(ushort * par...
                            LAB_0007d02a:                 ;XREF[1,0]:   0007d07e
ram:0007d02a    0028            cmp         param_1,#0x0                            
ram:0007d02c    ecd0            beq         LAB_0007d008                            
ram:0007d02e    bde87040        pop.w       {r4,r5,r6,lr}                           
ram:0007d032    fdf7a5be        b.w         FUN_0007ad80                            ;undefined FUN_0007ad80(void)
                            caseD_2:                      ;XREF[1,0]:   0007cfbe
ram:0007d036    0320            movs        param_1,#0x3                            
ram:0007d038    1071            strb        param_1,[r2,#0x4]=>DAT_20002c98         
                            LAB_0007d03a:                 ;XREF[1,0]:   0007d04a
ram:0007d03a    70bd            pop         {r4,r5,r6,pc}                           
                            caseD_8:                      ;XREF[1,0]:   0007cfbe
ram:0007d03c    1279            ldrb        r2,[r2,#0x4]=>DAT_20002c98              
ram:0007d03e    2046            mov         param_1,r4                              
ram:0007d040    012a            cmp         r2,#0x1                                 
ram:0007d042    07d0            beq         LAB_0007d054                            
ram:0007d044    022a            cmp         r2,#0x2                                 
ram:0007d046    09d0            beq         LAB_0007d05c                            
ram:0007d048    032a            cmp         r2,#0x3                                 
ram:0007d04a    f6d1            bne         LAB_0007d03a                            
ram:0007d04c    bde87040        pop.w       {r4,r5,r6,lr}                           
ram:0007d050    fdf71ebe        b.w         FUN_0007ac90                            ;undefined8 FUN_0007ac90(ushort * par...
                            LAB_0007d054:                 ;XREF[1,0]:   0007d042
ram:0007d054    bde87040        pop.w       {r4,r5,r6,lr}                           
ram:0007d058    00f004ba        b.w         LAB_0007d464                            
                            LAB_0007d05c:                 ;XREF[1,0]:   0007d046
ram:0007d05c    bde87040        pop.w       {r4,r5,r6,lr}                           
ram:0007d060    fff79abb        b.w         FUN_0007c798                            ;undefined FUN_0007c798(ushort * para...
                            caseD_6:                      ;XREF[1,0]:   0007cfbe
ram:0007d064    5070            strb        param_1,[r2,#0x1]=>DAT_20002c95         
ram:0007d066    8888            ldrh        param_1,[param_2,#0x4]                  
ram:0007d068    1081            strh        param_1,[r2,#0x8]=>DAT_20002c9c         
ram:0007d06a    5081            strh        param_1,[r2,#0xa]=>DAT_20002c9e         
ram:0007d06c    70bd            pop         {r4,r5,r6,pc}                           
                            caseD_7:                      ;XREF[1,0]:   0007cfbe
ram:0007d06e    0020            movs        param_1,#0x0                            
ram:0007d070    5070            strb        param_1,[r2,#0x1]=>DAT_20002c95         
ram:0007d072    1081            strh        param_1,[r2,#0x8]=>DAT_20002c9c         
ram:0007d074    70bd            pop         {r4,r5,r6,pc}                           
                            caseD_9:                      ;XREF[1,0]:   0007cfbe
ram:0007d076    2046            mov         param_1,r4                              
ram:0007d078    1169            ldr         param_2,[r2,#0x10]=>DAT_20002ca4        
ram:0007d07a    fef711f9        bl          FUN_0007b2a0                            ;undefined8 FUN_0007b2a0(ushort * par...
ram:0007d07e    d4e7            b           LAB_0007d02a                            
                            DAT_0007d080:                 ;XREF[1,0]:   0007cfb8
ram:0007d080    942c0020        undefined4  20002C94h                               
                            ;************************************************************************************************
                            ;*                                           FUNCTION                                           *
                            ;************************************************************************************************
                            ;undefined LAB_0007d084+1(undefined4 param_1, int param_2, int param_3)
          ;param_1       undefined4          r0                      
          ;param_2       int                 r1                      
          ;param_3       int                 r2                      
                                                          ;XREF[0,3]:   0007b7b4,0007b7b6,0007d834
ram:0007d084    0648            ldr         param_1,[DAT_0007d0a0]                  ;= 20002C5Ch
ram:0007d086    0378            ldrb        r3,[param_1,#0x0]=>DAT_20002c5c         
ram:0007d088    012b            cmp         r3,#0x1                                 
ram:0007d08a    03d1            bne         LAB_0007d094                            
ram:0007d08c    0129            cmp         param_2,#0x1                            
ram:0007d08e    01d1            bne         LAB_0007d094                            
ram:0007d090    0221            movs        param_2,#0x2                            
ram:0007d092    0170            strb        param_2,[param_1,#0x0]=>DAT_20002c5c    
                            LAB_0007d094:                 ;XREF[2,0]:   0007d08a,0007d08e
ram:0007d094    1000            movs        param_1,param_3                         
ram:0007d096    01d0            beq         LAB_0007d09c                            
ram:0007d098    fdf772be        b.w         FUN_0007ad80                            ;undefined FUN_0007ad80(void)
                            LAB_0007d09c:                 ;XREF[1,0]:   0007d096
ram:0007d09c    7047            bx          lr                                      
ram:0007d09e    0000            movs        r0,r0                                   
                            DAT_0007d0a0:                 ;XREF[1,0]:   0007d084
ram:0007d0a0    5c2c0020        undefined4  20002C5Ch                               
                            ;************************************************************************************************
                            ;*                                           FUNCTION                                           *
                            ;************************************************************************************************
                            ;undefined FUN_0007d0a4(undefined4 param_1, int param_2, int param_3, undefined4 param_4)
          ;param_1       undefined4          r0                      
          ;param_2       int                 r1                      
          ;param_3       int                 r2                      
          ;param_4       undefined4          r3                      
                                                          ;XREF[0,2]:   0007beda,0007d86c
ram:0007d0a4    70b5            push        {r4,r5,r6,lr}                           
ram:0007d0a6    124c            ldr         r4,[DAT_0007d0f0]                       ;= 20002C68h
ram:0007d0a8    1e46            mov         r6,param_4                              
ram:0007d0aa    1546            mov         r5,param_3                              
ram:0007d0ac    6078            ldrb        param_1,[r4,#0x1]=>DAT_20002c69         
ram:0007d0ae    0129            cmp         param_2,#0x1                            
ram:0007d0b0    02d0            beq         LAB_0007d0b8                            
ram:0007d0b2    0329            cmp         param_2,#0x3                            
ram:0007d0b4    14d1            bne         LAB_0007d0e0                            
ram:0007d0b6    07e0            b           LAB_0007d0c8                            
                            LAB_0007d0b8:                 ;XREF[1,0]:   0007d0b0
ram:0007d0b8    0528            cmp         param_1,#0x5                            
ram:0007d0ba    11d1            bne         LAB_0007d0e0                            
ram:0007d0bc    6369            ldr         param_4,[r4,#0x14]=>DAT_20002c7c        
ram:0007d0be    7bb1            cbz         param_4,LAB_0007d0e0                    
ram:0007d0c0    3246            mov         param_3,r6                              
ram:0007d0c2    2946            mov         param_2,r5                              
ram:0007d0c4    0420            movs        param_1,#0x4                            
ram:0007d0c6    0ae0            b           LAB_0007d0de                            
                            LAB_0007d0c8:                 ;XREF[1,0]:   0007d0b6
ram:0007d0c8    0228            cmp         param_1,#0x2                            
ram:0007d0ca    09d1            bne         LAB_0007d0e0                            
ram:0007d0cc    0948            ldr         param_1,[DAT_0007d0f4]                  ;= 20003230h
ram:0007d0ce    4068            ldr         param_1,[param_1,#0x4]=>DAT_20003234    
ram:0007d0d0    8047            blx         param_1                                 
ram:0007d0d2    0320            movs        param_1,#0x3                            
ram:0007d0d4    6070            strb        param_1,[r4,#0x1]=>DAT_20002c69         
ram:0007d0d6    6369            ldr         param_4,[r4,#0x14]=>DAT_20002c7c        
ram:0007d0d8    13b1            cbz         param_4,LAB_0007d0e0                    
ram:0007d0da    3246            mov         param_3,r6                              
ram:0007d0dc    2946            mov         param_2,r5                              
                            LAB_0007d0de:                 ;XREF[1,0]:   0007d0c6
ram:0007d0de    9847            blx         param_4                                 
                            LAB_0007d0e0:                 ;XREF[5,0]:   0007d0b4,0007d0ba,0007d0be,0007d0ca
                                                          ;             0007d0d8
ram:0007d0e0    2800            movs        param_1,r5                              
ram:0007d0e2    03d0            beq         LAB_0007d0ec                            
ram:0007d0e4    bde87040        pop.w       {r4,r5,r6,lr}                           
ram:0007d0e8    fdf74abe        b.w         FUN_0007ad80                            ;undefined FUN_0007ad80(void)
                            LAB_0007d0ec:                 ;XREF[1,0]:   0007d0e2
ram:0007d0ec    70bd            pop         {r4,r5,r6,pc}                           
ram:0007d0ee    0000            movs        r0,r0                                   
                            DAT_0007d0f0:                 ;XREF[1,0]:   0007d0a6
ram:0007d0f0    682c0020        undefined4  20002C68h                               
                            DAT_0007d0f4:                 ;XREF[1,0]:   0007d0cc
ram:0007d0f4    30320020        undefined4  20003230h                               
                            ;************************************************************************************************
                            ;*                                           FUNCTION                                           *
                            ;************************************************************************************************
                            ;undefined FUN_0007d0f8(undefined4 * param_1, undefined4 param_2)
          ;param_1       undefined4 *        r0                      
          ;param_2       undefined4          r1                      
          ;local_8       undefined4          -8                      ;XREF[1,0]:   0007d102
                                                          ;XREF[4,0]:   0007b814,0007bb02,0007c126,0007c158
ram:0007d0f8    08b5            push        {r3,lr}                                 
ram:0007d0fa    0b46            mov         r3,param_2                              
ram:0007d0fc    0022            movs        r2,#0x0                                 
ram:0007d0fe    0146            mov         param_2,param_1                         
ram:0007d100    0320            movs        param_1,#0x3                            
ram:0007d102    0092            str         r2,[sp,#0x0]=>local_8                   
ram:0007d104    fef7e6fb        bl          FUN_0007b8d4                            ;int FUN_0007b8d4(char param_1, undef...
ram:0007d108    08bd            pop         {r3,pc}                                 
ram:0007d10a    0000            movs        r0,r0                                   
                            ;************************************************************************************************
                            ;*                                           FUNCTION                                           *
                            ;************************************************************************************************
                            ;undefined4 FUN_0007d10c(void)
                                                          ;XREF[1,0]:   0007b7ba
ram:0007d10c    70b5            push        {r4,r5,r6,lr}                           
ram:0007d10e    0d4e            ldr         r6,[DAT_0007d144]                       ;= 20002C1Ch
ram:0007d110    0024            movs        r4,#0x0                                 
ram:0007d112    0d48            ldr         r0,[DAT_0007d148]                       ;= 20003070h
ram:0007d114    7460            str         r4,[r6,#0x4]=>DAT_20002c20              
ram:0007d116    2546            mov         r5,r4                                   
ram:0007d118    0470            strb        r4,[r0,#0x0]=>DAT_20003070              
ram:0007d11a    4470            strb        r4,[r0,#0x1]=>DAT_20003071              
ram:0007d11c    8470            strb        r4,[r0,#0x2]=>DAT_20003072              
                            LAB_0007d11e:                 ;XREF[1,0]:   0007d128
ram:0007d11e    2846            mov         r0,r5                                   
ram:0007d120    fef7c8fb        bl          FUN_0007b8b4                            ;undefined FUN_0007b8b4(int param_1)
ram:0007d124    6d1c            adds        r5,r5,#0x1                              
ram:0007d126    0a2d            cmp         r5,#0xa                                 
ram:0007d128    f9d3            bcc         LAB_0007d11e                            
ram:0007d12a    0649            ldr         r1,[DAT_0007d144]                       ;= 20002C1Ch
ram:0007d12c    3460            str         r4,[r6,#0x0]=>DAT_20002c1c              
ram:0007d12e    0020            movs        r0,#0x0                                 
ram:0007d130    0831            adds        r1,#0x8                                 
ram:0007d132    7460            str         r4,[r6,#0x4]=>DAT_20002c20              
                            LAB_0007d134:                 ;XREF[1,0]:   0007d13c
ram:0007d134    41f82040        str.w       r4,r1=>DAT_...,r0,offset DAT_20002c28...
ram:0007d138    401c            adds        r0,r0,#0x1                              
ram:0007d13a    0228            cmp         r0,#0x2                                 
ram:0007d13c    fad3            bcc         LAB_0007d134                            
ram:0007d13e    0020            movs        r0,#0x0                                 
ram:0007d140    70bd            pop         {r4,r5,r6,pc}                           
ram:0007d142    0000            movs        r0,r0                                   
                            DAT_0007d144:                 ;XREF[2,0]:   0007d10e,0007d12a
ram:0007d144    1c2c0020        undefined4  20002C1Ch                               
                            DAT_0007d148:                 ;XREF[1,0]:   0007d112
ram:0007d148    70300020        undefined4  20003070h                               
                            ;************************************************************************************************
                            ;*                                           FUNCTION                                           *
                            ;************************************************************************************************
                            ;undefined4 FUN_0007d14c(int * param_1, int * param_2)
          ;param_1       int *               r0                      
          ;param_2       int *               r1                      
                                                          ;XREF[2,0]:   0007b7cc,0007bee8
ram:0007d14c    074b            ldr         r3,[DAT_0007d16c]                       ;= 20002C1Ch
ram:0007d14e    1a68            ldr         r2,[r3,#0x0]=>DAT_20002c1c              
ram:0007d150    022a            cmp         r2,#0x2                                 
ram:0007d152    09d0            beq         LAB_0007d168                            
ram:0007d154    0a60            str         r2,[param_2,#0x0]                       
ram:0007d156    03f10801        add.w       param_2,r3,#0x8                         
ram:0007d15a    0068            ldr         param_1,[param_1,#0x0]                  
ram:0007d15c    41f82200        str.w       param_1,param_2=>DAT_20002c24,r2,0x2    
ram:0007d160    521c            adds        r2,r2,#0x1                              
ram:0007d162    0020            movs        param_1,#0x0                            
ram:0007d164    1a60            str         r2,[r3,#0x0]=>DAT_20002c1c              
ram:0007d166    7047            bx          lr                                      
                            LAB_0007d168:                 ;XREF[1,0]:   0007d152
ram:0007d168    0420            movs        param_1,#0x4                            
ram:0007d16a    7047            bx          lr                                      
                            DAT_0007d16c:                 ;XREF[1,0]:   0007d14c
ram:0007d16c    1c2c0020        undefined4  20002C1Ch                               
                            ;************************************************************************************************
                            ;*                                           FUNCTION                                           *
                            ;************************************************************************************************
                            ;int FUN_0007d170(undefined4 * param_1, uint param_2, undefined4 param_3, int param_4)
          ;param_1       undefined4 *        r0                      
          ;param_2       uint                r1                      
          ;param_3       undefined4          r2                      
          ;param_4       int                 r3                      
          ;local_18      undefined4         -18                      ;XREF[1,0]:   0007d192
                                                          ;XREF[3,0]:   0007b826,0007bb18,0007be18
ram:0007d170    f8b5            push        {param_4,r4,r5,r6,r7,lr}                
ram:0007d172    0746            mov         r7,param_1                              
ram:0007d174    1d46            mov         r5,param_4                              
ram:0007d176    1646            mov         r6,param_3                              
ram:0007d178    0c46            mov         r4,param_2                              
ram:0007d17a    0846            mov         param_1,param_2                         
ram:0007d17c    fff780fb        bl          FUN_0007c880                            ;undefined4 FUN_0007c880(uint param_1)
ram:0007d180    58b1            cbz         param_1,LAB_0007d19a                    
ram:0007d182    6019            adds        param_1,r4,r5                           
ram:0007d184    fff77cfb        bl          FUN_0007c880                            ;undefined4 FUN_0007c880(uint param_1)
ram:0007d188    38b1            cbz         param_1,LAB_0007d19a                    
ram:0007d18a    3346            mov         param_4,r6                              
ram:0007d18c    2246            mov         param_3,r4                              
ram:0007d18e    3946            mov         param_2,r7                              
ram:0007d190    0120            movs        param_1,#0x1                            
ram:0007d192    0095            str         r5,[sp,#0x0]=>local_18                  
ram:0007d194    fef79efb        bl          FUN_0007b8d4                            ;int FUN_0007b8d4(char param_1, undef...
ram:0007d198    f8bd            pop         {param_4,r4,r5,r6,r7,pc}                
                            LAB_0007d19a:                 ;XREF[2,0]:   0007d180,0007d188
ram:0007d19a    1020            movs        param_1,#0x10                           
ram:0007d19c    f8bd            pop         {param_4,r4,r5,r6,r7,pc}                
ram:0007d19e    0000            movs        r0,r0                                   
                            ;************************************************************************************************
                            ;*                                           FUNCTION                                           *
                            ;************************************************************************************************
                            ;undefined FUN_0007d1a0(int param_1)
          ;param_1       int                 r0                      
                                                          ;XREF[1,0]:   0007d4e4
ram:0007d1a0    70b5            push        {r4,r5,r6,lr}                           
ram:0007d1a2    244c            ldr         r4,[DAT_0007d234]                       ;= 20003070h
ram:0007d1a4    0646            mov         r6,param_1                              
ram:0007d1a6    0022            movs        r2,#0x0                                 
ram:0007d1a8    a078            ldrb        param_1,[r4,#0x2]=>DAT_20003072         
ram:0007d1aa    0128            cmp         param_1,#0x1                            
ram:0007d1ac    41d1            bne         LAB_0007d232                            
ram:0007d1ae    0023            movs        r3,#0x0                                 
ram:0007d1b0    2146            mov         r1,r4                                   
ram:0007d1b2    a370            strb        r3,[r4,#0x2]=>DAT_20003072              
ram:0007d1b4    0d78            ldrb        r5,[r1,#0x0]=>DAT_20003070              
ram:0007d1b6    022e            cmp         r6,#0x2                                 
ram:0007d1b8    05eb4500        add.w       param_1,r5,r5, lsl #0x1                 
ram:0007d1bc    01ebc001        add.w       r1,r1,param_1, lsl #0x3                 
ram:0007d1c0    03d0            beq         LAB_0007d1ca                            
ram:0007d1c2    032e            cmp         r6,#0x3                                 
ram:0007d1c4    35d1            bne         LAB_0007d232                            
ram:0007d1c6    0d20            movs        param_1,#0xd                            
ram:0007d1c8    2ee0            b           LAB_0007d228                            
                            LAB_0007d1ca:                 ;XREF[1,0]:   0007d1c0
ram:0007d1ca    1b48            ldr         param_1,[DAT_0007d238]                  ;= 20002C1Ch
ram:0007d1cc    4668            ldr         r6,[param_1,#0x4]=>DAT_20002c20         
ram:0007d1ce    761c            adds        r6,r6,#0x1                              
ram:0007d1d0    4660            str         r6,[param_1,#0x4]=>DAT_20002c20         
ram:0007d1d2    8968            ldr         r1,[r1,#0x8]                            
ram:0007d1d4    b1eb063f        cmp.w       r1,r6, lsl #0xc                         
ram:0007d1d8    15d8            bhi         LAB_0007d206                            
ram:0007d1da    4360            str         r3,[param_1,#0x4]=>DAT_20002c20         
ram:0007d1dc    6078            ldrb        param_1,[r4,#0x1]=>DAT_20003071         
ram:0007d1de    401e            subs        param_1,param_1,#0x1                    
ram:0007d1e0    6070            strb        param_1,[r4,#0x1]=>DAT_20003071         
ram:0007d1e2    681c            adds        param_1,r5,#0x1                         
ram:0007d1e4    c0b2            uxtb        param_1,param_1                         
ram:0007d1e6    2070            strb        param_1,[r4,#0x0]=>DAT_20003070         
ram:0007d1e8    0a28            cmp         param_1,#0xa                            
ram:0007d1ea    01d3            bcc         LAB_0007d1f0                            
ram:0007d1ec    0a38            subs        param_1,#0xa                            
ram:0007d1ee    2070            strb        param_1,[r4,#0x0]=>DAT_20003070         
                            LAB_0007d1f0:                 ;XREF[1,0]:   0007d1ea
ram:0007d1f0    05eb4500        add.w       param_1,r5,r5, lsl #0x1                 
ram:0007d1f4    04ebc001        add.w       r1,r4,param_1, lsl #0x3                 
ram:0007d1f8    1046            mov         param_1,r2                              
ram:0007d1fa    091d            adds        r1,r1,#0x4                              
ram:0007d1fc    fdf7cafd        bl          FUN_0007ad94                            ;undefined FUN_0007ad94(undefined4 pa...
ram:0007d200    2846            mov         param_1,r5                              
ram:0007d202    fef757fb        bl          FUN_0007b8b4                            ;undefined FUN_0007b8b4(int param_1)
                            LAB_0007d206:                 ;XREF[1,0]:   0007d1d8
ram:0007d206    6078            ldrb        param_1,[r4,#0x1]=>DAT_20003071         
ram:0007d208    0028            cmp         param_1,#0x0                            
ram:0007d20a    12d0            beq         LAB_0007d232                            
ram:0007d20c    a078            ldrb        param_1,[r4,#0x2]=>DAT_20003072         
ram:0007d20e    0028            cmp         param_1,#0x0                            
ram:0007d210    0fd1            bne         LAB_0007d232                            
ram:0007d212    fef71bfb        bl          FUN_0007b84c                            ;undefined8 FUN_0007b84c(void)
ram:0007d216    0028            cmp         param_1,#0x0                            
ram:0007d218    0bd0            beq         LAB_0007d232                            
ram:0007d21a    1128            cmp         param_1,#0x11                           
ram:0007d21c    09d0            beq         LAB_0007d232                            
ram:0007d21e    2178            ldrb        r1,[r4,#0x0]=>DAT_20003070              
ram:0007d220    01eb4101        add.w       r1,r1,r1, lsl #0x1                      
ram:0007d224    04ebc101        add.w       r1,r4,r1, lsl #0x3                      
                            LAB_0007d228:                 ;XREF[1,0]:   0007d1c8
ram:0007d228    bde87040        pop.w       {r4,r5,r6,lr}                           
ram:0007d22c    091d            adds        r1,r1,#0x4                              
ram:0007d22e    fdf7b1bd        b.w         FUN_0007ad94                            
                            LAB_0007d232:                 ;XREF[6,0]:   0007d1ac,0007d1c4,0007d20a,0007d210
                                                          ;             0007d218,0007d21c
ram:0007d232    70bd            pop         {r4,r5,r6,pc}                           
                            DAT_0007d234:                 ;XREF[1,0]:   0007d1a2
ram:0007d234    70300020        undefined4  20003070h                               
                            DAT_0007d238:                 ;XREF[1,0]:   0007d1ca
ram:0007d238    1c2c0020        undefined4  20002C1Ch                               
                            ;************************************************************************************************
                            ;*                                           FUNCTION                                           *
                            ;************************************************************************************************
                            ;undefined FUN_0007d23c(void)
                                                          ;XREF[2,0]:   0007afa0,0007b9c4
ram:0007d23c    70b5            push        {r4,r5,r6,lr}                           
ram:0007d23e    0126            movs        r6,#0x1                                 
ram:0007d240    7004            lsls        r0,r6,#0x11                             
ram:0007d242    4ff0e021        mov.w       r1,#0xe000e000                          
ram:0007d246    0025            movs        r5,#0x0                                 
ram:0007d248    c1f88001        str.w       r0,[r1,#0x180]=>DAT_e000e180            
ram:0007d24c    084c            ldr         r4,[DAT_0007d270]                       ;= 40011000h
ram:0007d24e    4010            asrs        r0,r0,#0x1                              
ram:0007d250    c4f84803        str.w       r0,[r4,#0x348]=>DAT_40011348            
ram:0007d254    c4f80803        str.w       r0,[r4,#0x308]=>DAT_40011308            
ram:0007d258    6660            str         r6,[r4,#offset DAT_40011004 &0xff]      
ram:0007d25a    2f20            movs        r0,#0x2f                                
ram:0007d25c    fdf726f9        bl          FUN_0007a4ac                            ;undefined FUN_0007a4ac(int param_1)
ram:0007d260    a660            str         r6,[r4,#offset DAT_40011008 &0xff]      
ram:0007d262    044c            ldr         r4,[DAT_0007d274]                       ;= 20002C3Ch
ram:0007d264    2f20            movs        r0,#0x2f                                
ram:0007d266    2561            str         r5,[r4,#0x10]=>DAT_20002c4c             
ram:0007d268    fdf720f9        bl          FUN_0007a4ac                            ;undefined FUN_0007a4ac(int param_1)
ram:0007d26c    e570            strb        r5,[r4,#0x3]=>DAT_20002c3f              
ram:0007d26e    70bd            pop         {r4,r5,r6,pc}                           
                            DAT_0007d270:                 ;XREF[1,0]:   0007d24c
ram:0007d270    00100140        undefined4  40011000h                               
                            DAT_0007d274:                 ;XREF[1,0]:   0007d262
ram:0007d274    3c2c0020        undefined4  20002C3Ch                               
                            ;************************************************************************************************
                            ;*                                           FUNCTION                                           *
                            ;************************************************************************************************
                            ;undefined FUN_0007d278(void)
                                                          ;XREF[2,0]:   0007cb04,0007cb24
ram:0007d278    10b5            push        {r4,lr}                                 
ram:0007d27a    064a            ldr         r2,[DAT_0007d294]                       ;= 20002EE4h
ram:0007d27c    1421            movs        r1,#0x14                                
ram:0007d27e    0820            movs        r0,#0x8                                 
ram:0007d280    fdf742fe        bl          FUN_0007af08                            ;undefined4 FUN_0007af08(undefined2 p...
ram:0007d284    0028            cmp         r0,#0x0                                 
ram:0007d286    03d0            beq         LAB_0007d290                            
ram:0007d288    bde81040        pop.w       {r4,lr}                                 
ram:0007d28c    fdf778bd        b.w         FUN_0007ad80                            ;undefined FUN_0007ad80(void)
                            LAB_0007d290:                 ;XREF[1,0]:   0007d286
ram:0007d290    10bd            pop         {r4,pc}                                 
ram:0007d292    0000            movs        r0,r0                                   
                            DAT_0007d294:                 ;XREF[1,0]:   0007d27a
ram:0007d294    e42e0020        undefined4  20002EE4h                               
                            ;************************************************************************************************
                            ;*                                           FUNCTION                                           *
                            ;************************************************************************************************
                            ;ulonglong FUN_0007d298(undefined4 param_1, uint param_2)
          ;param_1       undefined4          r0                      
          ;param_2       uint                r1                      
                                                          ;XREF[1,0]:   0007cea2
ram:0007d298    70b5            push        {r4,r5,r6,lr}                           
ram:0007d29a    154c            ldr         r4,[DAT_0007d2f0]                       ;= 20002C94h
ram:0007d29c    4ff6ff75        movw        r5,#0xffff                              
ram:0007d2a0    e088            ldrh        param_1,[r4,#0x6]=>DAT_20002c9a         
ram:0007d2a2    a842            cmp         param_1,r5                              
ram:0007d2a4    01d1            bne         LAB_0007d2aa                            
ram:0007d2a6    0820            movs        param_1,#0x8                            
                            LAB_0007d2a8:                 ;XREF[3,0]:   0007d2b8,0007d2c6,0007d2de
ram:0007d2a8    70bd            pop         {r4,r5,r6,pc}                           
                            LAB_0007d2aa:                 ;XREF[1,0]:   0007d2a4
ram:0007d2aa    e178            ldrb        param_2,[r4,#0x3]=>DAT_20002c97         
ram:0007d2ac    d1b1            cbz         param_2,LAB_0007d2e4                    
ram:0007d2ae    0123            movs        r3,#0x1                                 
ram:0007d2b0    0822            movs        r2,#0x8                                 
ram:0007d2b2    1049            ldr         param_2,[DAT_0007d2f4]                  ;= 200032C4h
ram:0007d2b4    a9df            svc         0xa9                                    
ram:0007d2b6    0028            cmp         param_1,#0x0                            
ram:0007d2b8    f6d1            bne         LAB_0007d2a8                            
ram:0007d2ba    0223            movs        r3,#0x2                                 
ram:0007d2bc    0022            movs        r2,#0x0                                 
ram:0007d2be    1146            mov         param_2,r2                              
ram:0007d2c0    e088            ldrh        param_1,[r4,#0x6]=>DAT_20002c9a         
ram:0007d2c2    a9df            svc         0xa9                                    
ram:0007d2c4    0028            cmp         param_1,#0x0                            
ram:0007d2c6    efd1            bne         LAB_0007d2a8                            
ram:0007d2c8    2a46            mov         r2,r5                                   
ram:0007d2ca    0c21            movs        param_2,#0xc                            
ram:0007d2cc    e088            ldrh        param_1,[r4,#0x6]=>DAT_20002c9a         
ram:0007d2ce    a7df            svc         0xa7                                    
ram:0007d2d0    a0f54051        sub.w       param_2,param_1,#0x3000                 
ram:0007d2d4    0239            subs        param_2,#0x2                            
ram:0007d2d6    03d0            beq         LAB_0007d2e0                            
ram:0007d2d8    0828            cmp         param_1,#0x8                            
ram:0007d2da    01d0            beq         LAB_0007d2e0                            
ram:0007d2dc    891e            subs        param_2,param_2,#0x2                    
ram:0007d2de    e3d1            bne         LAB_0007d2a8                            
                            LAB_0007d2e0:                 ;XREF[2,0]:   0007d2d6,0007d2da
ram:0007d2e0    0020            movs        param_1,#0x0                            
ram:0007d2e2    70bd            pop         {r4,r5,r6,pc}                           
                            LAB_0007d2e4:                 ;XREF[1,0]:   0007d2ac
ram:0007d2e4    0023            movs        r3,#0x0                                 
ram:0007d2e6    1a46            mov         r2,r3                                   
ram:0007d2e8    1946            mov         param_2,r3                              
ram:0007d2ea    a9df            svc         0xa9                                    
ram:0007d2ec    70bd            pop         {r4,r5,r6,pc}                           
ram:0007d2ee    0000            movs        r0,r0                                   
                            DAT_0007d2f0:                 ;XREF[1,0]:   0007d29a
ram:0007d2f0    942c0020        undefined4  20002C94h                               
                            DAT_0007d2f4:                 ;XREF[1,0]:   0007d2b2
ram:0007d2f4    c4320020        undefined4  200032C4h                               
                            ;************************************************************************************************
                            ;*                                           FUNCTION                                           *
                            ;************************************************************************************************
                            ;undefined4 FUN_0007d2f8(int param_1, int param_2, ushort * param_3)
          ;param_1       int                 r0                      
          ;param_2       int                 r1                      
          ;param_3       ushort *            r2                      
                                                          ;XREF[1,0]:   0007ab6c
ram:0007d2f8    2de9f041        push        {r4,r5,r6,r7,r8,lr}                     
ram:0007d2fc    0746            mov         r7,param_1                              
ram:0007d2fe    806a            ldr         param_1,[param_1,#0x28]                 
ram:0007d300    1446            mov         r4,param_3                              
ram:0007d302    8846            mov         r8,param_2                              
ram:0007d304    c8b3            cbz         param_1,LAB_0007d37a                    
ram:0007d306    0025            movs        r5,#0x0                                 
ram:0007d308    31e0            b           LAB_0007d36e                            
ram:0007d30a    00bf            nop                                                  
                            LAB_0007d30c:                 ;XREF[1,0]:   0007d374
ram:0007d30c    b96a            ldr         param_2,[r7,#0x28]                      
ram:0007d30e    05eb4500        add.w       param_1,r5,r5, lsl #0x1                 
ram:0007d312    01eb8006        add.w       r6,param_2,param_1, lsl #0x2            
ram:0007d316    b088            ldrh        param_1,[r6,#0x4]                       
ram:0007d318    801c            adds        param_1,param_1,#0x2                    
ram:0007d31a    fe28            cmp         param_1,#0xfe                           
ram:0007d31c    02d9            bls         LAB_0007d324                            
ram:0007d31e    0c20            movs        param_1,#0xc                            
                            LAB_0007d320:                 ;XREF[2,0]:   0007d378,0007d37e
ram:0007d320    bde8f081        pop.w       {r4,r5,r6,r7,r8,pc}                     
                            LAB_0007d324:                 ;XREF[1,0]:   0007d31c
ram:0007d324    2288            ldrh        param_3,[r4,#0x0]                       
ram:0007d326    401c            adds        param_1,param_1,#0x1                    
ram:0007d328    08f80200        strb.w      param_1,r8,param_3,0x0                  
ram:0007d32c    2088            ldrh        param_1,[r4,#0x0]                       
ram:0007d32e    1622            movs        param_3,#0x16                           
ram:0007d330    401c            adds        param_1,param_1,#0x1                    
ram:0007d332    80b2            uxth        param_1,param_1                         
ram:0007d334    2080            strh        param_1,[r4,#0x0]                       
ram:0007d336    08f80020        strb.w      param_3,r8,param_1,0x0                  
ram:0007d33a    2088            ldrh        param_1,[r4,#0x0]                       
ram:0007d33c    401c            adds        param_1,param_1,#0x1                    
ram:0007d33e    80b2            uxth        param_1,param_1                         
ram:0007d340    2080            strh        param_1,[r4,#0x0]                       
ram:0007d342    00eb0801        add.w       param_2,param_1,r8                      
ram:0007d346    3088            ldrh        param_1,[r6,#0x0]                       
ram:0007d348    00f074f9        bl          FUN_0007d634                            ;undefined4 FUN_0007d634(undefined4 p...
ram:0007d34c    2188            ldrh        param_2,[r4,#0x0]                       
ram:0007d34e    0844            add         param_1,param_2                         
ram:0007d350    80b2            uxth        param_1,param_1                         
ram:0007d352    2080            strh        param_1,[r4,#0x0]                       
ram:0007d354    b288            ldrh        param_3,[r6,#0x4]                       
ram:0007d356    42b1            cbz         param_3,LAB_0007d36a                    
ram:0007d358    b168            ldr         param_2,[r6,#0x8]                       
ram:0007d35a    71b1            cbz         param_2,LAB_0007d37a                    
ram:0007d35c    4044            add         param_1,r8                              
ram:0007d35e    fdf70df9        bl          FUN_0007a57c                            ;undefined FUN_0007a57c(undefined4 * ...
ram:0007d362    2088            ldrh        param_1,[r4,#0x0]                       
ram:0007d364    b188            ldrh        param_2,[r6,#0x4]                       
ram:0007d366    0844            add         param_1,param_2                         
ram:0007d368    2080            strh        param_1,[r4,#0x0]                       
                            LAB_0007d36a:                 ;XREF[1,0]:   0007d356
ram:0007d36a    6d1c            adds        r5,r5,#0x1                              
ram:0007d36c    edb2            uxtb        r5,r5                                   
                            LAB_0007d36e:                 ;XREF[1,0]:   0007d308
ram:0007d36e    97f82c00        ldrb.w      param_1,[r7,#0x2c]                      
ram:0007d372    a842            cmp         param_1,r5                              
ram:0007d374    cad8            bhi         LAB_0007d30c                            
ram:0007d376    0020            movs        param_1,#0x0                            
ram:0007d378    d2e7            b           LAB_0007d320                            
                            LAB_0007d37a:                 ;XREF[2,0]:   0007d304,0007d35a
ram:0007d37a    ffe7            b           LAB_0007d37c                            
                            LAB_0007d37c:                 ;XREF[1,0]:   0007d37a
ram:0007d37c    0720            movs        param_1,#0x7                            
ram:0007d37e    cfe7            b           LAB_0007d320                            
                            ;************************************************************************************************
                            ;*                                           FUNCTION                                           *
                            ;************************************************************************************************
                            ;undefined thunk_FUN_0007ad80(void)
                                                          ;XREF[0,2]:   0007c574,0007c604
ram:0007d380    fdf7febc        b.w         FUN_0007ad80                            ;undefined FUN_0007ad80(void)
                            ;************************************************************************************************
                            ;*                                           FUNCTION                                           *
                            ;************************************************************************************************
                            ;undefined4 FUN_0007d384(int param_1)
          ;param_1       int                 r0                      
                                                          ;XREF[1,0]:   0007c4de
ram:0007d384    18b1            cbz         param_1,LAB_0007d38e                    
ram:0007d386    0349            ldr         r1,[DAT_0007d394]                       ;= 20002CBCh
ram:0007d388    c860            str         param_1,[r1,#0xc]=>DAT_20002cc8         
ram:0007d38a    0020            movs        param_1,#0x0                            
ram:0007d38c    7047            bx          lr                                      
                            LAB_0007d38e:                 ;XREF[1,0]:   0007d384
ram:0007d38e    0e20            movs        param_1,#0xe                            
ram:0007d390    7047            bx          lr                                      
ram:0007d392    0000            movs        r0,r0                                   
                            DAT_0007d394:                 ;XREF[1,0]:   0007d386
ram:0007d394    bc2c0020        undefined4  20002CBCh                               
                            ;************************************************************************************************
                            ;*                                           FUNCTION                                           *
                            ;************************************************************************************************
                            ;undefined FUN_0007d398(void)
          ;local_c       undefined4          -c                      ;XREF[1,0]:   0007d39c
          ;local_10      undefined4         -10                      ;XREF[1,0]:   0007d39e
                                                          ;XREF[1,0]:   0007b572
ram:0007d398    1cb5            push        {r2,r3,r4,lr}                           
ram:0007d39a    0349            ldr         r1,[DAT_0007d3a8]                       ;= 20002C00h
ram:0007d39c    0191            str         r1=>DAT_20002c00,[sp,#local_c+0x10]     
ram:0007d39e    0091            str         r1=>DAT_20002c00,[sp,#0x0]=>local_10    
ram:0007d3a0    6946            mov         r1,sp                                   
ram:0007d3a2    60df            svc         0x60                                    
ram:0007d3a4    1cbd            pop         {r2,r3,r4,pc}                           
ram:0007d3a6    0000            movs        r0,r0                                   
                            DAT_0007d3a8:                 ;XREF[1,0]:   0007d39a
ram:0007d3a8    002c0020        undefined4  20002C00h                               
                            ;************************************************************************************************
                            ;*                                           FUNCTION                                           *
                            ;************************************************************************************************
                            ;undefined4 FUN_0007d3ac(int param_1, undefined param_2, undefined2 * param_3)
          ;param_1       int                 r0                      
          ;param_2       undefined           r1                      
          ;param_3       undefined2 *        r2                      
                                                          ;XREF[1,0]:   0007b560
ram:0007d3ac    70b5            push        {r4,r5,r6,lr}                           
ram:0007d3ae    0e46            mov         r6,param_2                              
ram:0007d3b0    0546            mov         r5,param_1                              
ram:0007d3b2    1446            mov         r4,param_3                              
ram:0007d3b4    1421            movs        param_2,#0x14                           
ram:0007d3b6    1046            mov         param_1,param_3                         
ram:0007d3b8    fdf7f9f8        bl          FUN_0007a5ae                            ;undefined FUN_0007a5ae(undefined * p...
ram:0007d3bc    0120            movs        param_1,#0x1                            
ram:0007d3be    2080            strh        param_1,[r4,#0x0]                       
ram:0007d3c0    0021            movs        param_2,#0x0                            
ram:0007d3c2    2161            str         param_2,[r4,#0x10]                      
ram:0007d3c4    2173            strb        param_2,[r4,#0xc]                       
ram:0007d3c6    2672            strb        r6,[r4,#0x8]                            
ram:0007d3c8    6572            strb        r5,[r4,#0x9]                            
ram:0007d3ca    05b1            cbz         r5,LAB_0007d3ce                         
ram:0007d3cc    a072            strb        param_1,[r4,#0xa]                       
                            LAB_0007d3ce:                 ;XREF[1,0]:   0007d3ca
ram:0007d3ce    0020            movs        param_1,#0x0                            
ram:0007d3d0    70bd            pop         {r4,r5,r6,pc}                           
                            ;************************************************************************************************
                            ;*                                           FUNCTION                                           *
                            ;************************************************************************************************
                            ;undefined FUN_0007d3d2(undefined4 param_1, int param_2, undefined4 param_3, uint param_4)
          ;param_1       undefined4          r0                      
          ;param_2       int                 r1                      
          ;param_3       undefined4          r2                      
          ;param_4       uint                r3                      
          ;local_18      undefined4         -18                      
                                                          ;XREF[0,3]:   0007aea6,0007d3e6,0007d3f0
ram:0007d3d2    10b5            push        {r4,lr}                                 
ram:0007d3d4    11b1            cbz         param_2,LAB_0007d3dc                    
ram:0007d3d6    0020            movs        param_1,#0x0                            
ram:0007d3d8    fdf7d2fc        bl          FUN_0007ad80                            ;undefined FUN_0007ad80(void)
                            LAB_0007d3dc:                 ;XREF[1,0]:   0007d3d4
ram:0007d3dc    bde81040        pop.w       {r4,lr}                                 
ram:0007d3e0    fff708ba        b.w         FUN_0007c7f4                            
                            ;************************************************************************************************
                            ;*                                           FUNCTION                                           *
                            ;************************************************************************************************
                            ;undefined LAB_0007d3e4+1(void)
                                                          ;XREF[0,2]:   0007b548,0007b594
ram:0007d3e4    0021            movs        r1,#0x0                                 
ram:0007d3e6    024a            ldr         r2=>FUN_0007d3d2+1,[PTR_FUN_0007d3d2+...;= 0007d3d3
ram:0007d3e8    0846            mov         r0,r1                                   
ram:0007d3ea    fdf707bd        b.w         FUN_0007adfc                            ;undefined4 FUN_0007adfc(undefined4 *...
ram:0007d3ee    00              ??          00h                                     
ram:0007d3ef    00              ??          00h                                     
                            PTR_FUN_0007d3d2+1_0007d3f0:  ;XREF[1,0]:   0007d3e6
ram:0007d3f0    d3d30700        addr        FUN_0007d3d2+1                          
                            ;************************************************************************************************
                            ;*                                           FUNCTION                                           *
                            ;************************************************************************************************
                            ;undefined thunk_FUN_0007ad5c(void)
                                                          ;XREF[0,1]:   0007d44c
ram:0007d3f4    fdf7b2bc        b.w         FUN_0007ad5c                            ;undefined FUN_0007ad5c(void)
                            ;************************************************************************************************
                            ;*                                           FUNCTION                                           *
                            ;************************************************************************************************
                            ;undefined8 FUN_0007d3f8(int param_1, undefined * param_2, undefined2 param_3, undefined4 param_4)
          ;param_1       int                 r0                      
          ;param_2       undefined *         r1                      
          ;param_3       undefined2          r2                      
          ;param_4       undefined4          r3                      
                                                          ;XREF[1,0]:   0007b550
ram:0007d3f8    2de9f041        push        {r4,r5,r6,r7,r8,lr}                     
ram:0007d3fc    19b1            cbz         param_2,LAB_0007d406                    
ram:0007d3fe    8c07            lsls        r4,param_2,#0x1e                        
ram:0007d400    4ff00006        mov.w       r6,#0x0                                 
ram:0007d404    02d0            beq         LAB_0007d40c                            
                            LAB_0007d406:                 ;XREF[1,0]:   0007d3fc
ram:0007d406    0720            movs        param_1,#0x7                            
                            LAB_0007d408:                 ;XREF[2,0]:   0007d42e,0007d440
ram:0007d408    bde8f081        pop.w       {r4,r5,r6,r7,r8,pc}                     
                            LAB_0007d40c:                 ;XREF[1,0]:   0007d404
ram:0007d40c    0d4c            ldr         r4,[DAT_0007d444]                       ;= 20002CBCh
ram:0007d40e    0e4d            ldr         r5,[DAT_0007d448]                       ;= E000ED88h
ram:0007d410    0127            movs        r7,#0x1                                 
ram:0007d412    a160            str         param_2,[r4,#0x8]=>DAT_20002cc4         
ram:0007d414    6280            strh        param_3,[r4,#0x2]=>DAT_20002cbe         
ram:0007d416    6360            str         param_4,[r4,#0x4]=>DAT_20002cc0         
ram:0007d418    2968            ldr         param_2,[r5,#0x0]=>DAT_e000ed88         
ram:0007d41a    41f47001        orr         param_2,param_2,#0xf00000               
ram:0007d41e    2960            str         param_2,[r5,#0x0]=>DAT_e000ed88         
ram:0007d420    bff34f8f        dsb         0xf                                     
ram:0007d424    bff36f8f        isb         0xf                                     
ram:0007d428    0849            ldr         param_2,[PTR_thunk_FUN_0007ad5c+1_000...;= 0007d3f5
ram:0007d42a    10df            svc         0x10                                    
ram:0007d42c    0028            cmp         param_1,#0x0                            
ram:0007d42e    ebd1            bne         LAB_0007d408                            
ram:0007d430    2e60            str         r6,[r5,#0x0]=>DAT_e000ed88              
ram:0007d432    bff34f8f        dsb         0xf                                     
ram:0007d436    bff36f8f        isb         0xf                                     
ram:0007d43a    2770            strb        r7,[r4,#0x0]=>DAT_20002cbc              
ram:0007d43c    1620            movs        param_1,#0x16                           
ram:0007d43e    2edf            svc         0x2e                                    
ram:0007d440    e2e7            b           LAB_0007d408                            
ram:0007d442    0000            movs        r0,r0                                   
                            DAT_0007d444:                 ;XREF[1,0]:   0007d40c
ram:0007d444    bc2c0020        undefined4  20002CBCh                               
                            DAT_0007d448:                 ;XREF[1,0]:   0007d40e
ram:0007d448    88ed00e0        undefined4  E000ED88h                               
                            PTR_thunk_FUN_0007ad5c+1_00...;XREF[1,0]:   0007d428
ram:0007d44c    f5d30700        addr        thunk_FUN_0007ad5c+1                    
                            ;************************************************************************************************
                            ;*                                           FUNCTION                                           *
                            ;************************************************************************************************
                            ;undefined4 FUN_0007d450(int param_1)
          ;param_1       int                 r0                      
                                                          ;XREF[1,0]:   0007b57e
ram:0007d450    18b1            cbz         param_1,LAB_0007d45a                    
ram:0007d452    0349            ldr         r1,[DAT_0007d460]                       ;= 20002CBCh
ram:0007d454    0861            str         param_1,[r1,#0x10]=>DAT_20002ccc        
ram:0007d456    0020            movs        param_1,#0x0                            
ram:0007d458    7047            bx          lr                                      
                            LAB_0007d45a:                 ;XREF[1,0]:   0007d450
ram:0007d45a    0e20            movs        param_1,#0xe                            
ram:0007d45c    7047            bx          lr                                      
ram:0007d45e    0000            movs        r0,r0                                   
                            DAT_0007d460:                 ;XREF[1,0]:   0007d452
ram:0007d460    bc2c0020        undefined4  20002CBCh                               
                            LAB_0007d464:                 ;XREF[1,0]:   0007d058
ram:0007d464    10b5            push        {r4,lr}                                 
ram:0007d466    88b0            sub         sp,#0x20                                
ram:0007d468    0446            mov         r4,param_1                              
ram:0007d46a    0020            movs        param_1,#0x0                            
ram:0007d46c    0090            str         param_1,[sp,#0x0]=>local_28             
ram:0007d46e    0190            str         param_1,[sp,#local_24+0x28]             
ram:0007d470    0290            str         param_1,[sp,#local_20+0x28]             
ram:0007d472    0390            str         param_1,[sp,#local_1c+0x28]             
ram:0007d474    1948            ldr         param_1,[DAT_0007d4dc]                  ;= 20002C94h
ram:0007d476    1a4a            ldr         r2,[PTR_DAT_0007d4e0]                   ;= 0007d878
ram:0007d478    4079            ldrb        param_1,[param_1,#0x5]=>DAT_20002c99    
ram:0007d47a    8df80000        strb.w      param_1,[sp,#0x0]=>local_28             
ram:0007d47e    1068            ldr         param_1,[r2,#0x0]=>DAT_0007d878         ;= 00000003h
ram:0007d480    9268            ldr         r2,[r2,#0x8]=>DAT_0007d880              
ram:0007d482    0490            str         param_1,[sp,#local_18+0x28]             
ram:0007d484    6846            mov         param_1,sp                              
ram:0007d486    cde90502        strd        param_1,r2,[sp,#local_14+0x28]          
ram:0007d48a    087a            ldrb        param_1,[param_2,#0x8]                  
ram:0007d48c    0c28            cmp         param_1,#0xc                            
ram:0007d48e    05d0            beq         LAB_0007d49c                            
ram:0007d490    0322            movs        r2,#0x3                                 
ram:0007d492    1ce0            b           LAB_0007d4ce                            
                            LAB_0007d494:                 ;XREF[1,0]:   0007d4d8
ram:0007d494    fdf774fc        bl          FUN_0007ad80                            ;undefined FUN_0007ad80(void)
                            LAB_0007d498:                 ;XREF[2,0]:   0007d4c4,0007d4da
ram:0007d498    08b0            add         sp,#0x20                                
ram:0007d49a    10bd            pop         {r4,pc}                                 
                            LAB_0007d49c:                 ;XREF[1,0]:   0007d48e
ram:0007d49c    4868            ldr         param_1,[param_2,#0x4]                  
ram:0007d49e    c278            ldrb        r2,[param_1,#0x3]                       
ram:0007d4a0    0168            ldr         param_2,[param_1,#0x0]                  
ram:0007d4a2    62f31f61        bfi         param_2,r2,#0x18,#0x8                   
ram:0007d4a6    0191            str         param_2,[sp,#local_24+0x28]             
ram:0007d4a8    c279            ldrb        r2,[param_1,#0x7]                       
ram:0007d4aa    4168            ldr         param_2,[param_1,#0x4]                  
ram:0007d4ac    62f31f61        bfi         param_2,r2,#0x18,#0x8                   
ram:0007d4b0    0291            str         param_2,[sp,#local_20+0x28]             
ram:0007d4b2    c17a            ldrb        param_2,[param_1,#0xb]                  
ram:0007d4b4    8068            ldr         param_1,[param_1,#0x8]                  
ram:0007d4b6    61f31f60        bfi         param_1,param_2,#0x18,#0x8              
ram:0007d4ba    0390            str         param_1,[sp,#local_1c+0x28]             
ram:0007d4bc    04a8            add         param_1,sp,#0x10                        
ram:0007d4be    fef747ff        bl          FUN_0007c350                            ;int FUN_0007c350(int param_1)
ram:0007d4c2    0028            cmp         param_1,#0x0                            
ram:0007d4c4    e8d0            beq         LAB_0007d498                            
ram:0007d4c6    0121            movs        param_2,#0x1                            
ram:0007d4c8    fff7f9fb        bl          FUN_0007ccbe                            ;undefined4 FUN_0007ccbe(int param_1,...
ram:0007d4cc    0246            mov         r2,param_1                              
                            LAB_0007d4ce:                 ;XREF[1,0]:   0007d492
ram:0007d4ce    0121            movs        param_2,#0x1                            
ram:0007d4d0    2046            mov         param_1,r4                              
ram:0007d4d2    fdf7e5ff        bl          FUN_0007b4a0                            ;undefined8 FUN_0007b4a0(ushort * par...
ram:0007d4d6    0028            cmp         param_1,#0x0                            
ram:0007d4d8    dcd1            bne         LAB_0007d494                            
ram:0007d4da    dde7            b           LAB_0007d498                            
                            DAT_0007d4dc:                 ;XREF[1,0]:   0007d474
ram:0007d4dc    942c0020        undefined4  20002C94h                               
                            PTR_DAT_0007d4e0:             ;XREF[1,0]:   0007d476
ram:0007d4e0    78d80700        addr        DAT_0007d878                            ;= 00000003h
                            ;************************************************************************************************
                            ;*                                           FUNCTION                                           *
                            ;************************************************************************************************
                            ;undefined thunk_FUN_0007d1a0(int param_1)
          ;param_1       int                 r0                      
                                                          ;XREF[0,2]:   0007b57c,0007b59c
ram:0007d4e4    fff75cbe        b.w         FUN_0007d1a0                            
                            ;************************************************************************************************
                            ;*                                           FUNCTION                                           *
                            ;************************************************************************************************
                            ;undefined FUN_0007d4e8(void)
          ;local_28      undefined4         -28                      ;XREF[1,0]:   0007d50c
                                                          ;XREF[1,0]:   0007a6e8
ram:0007d4e8    2de9f84f        push        {r3,r4,r5,r6,r7,r8,r9,r10,r11,lr}       
ram:0007d4ec    204c            ldr         r4,[DAT_0007d570]                       ;= 20002C3Ch
ram:0007d4ee    0025            movs        r5,#0x0                                 
ram:0007d4f0    6846            mov         r0,sp                                   
                                                          ; FWD[2,0]:   20002c48,20002c4c
ram:0007d4f2    d4e903b6        ldrd        r11,r6,[r4,#0xc]=>DAT_20002c48          
ram:0007d4f6    fff789f8        bl          FUN_0007c60c                            ;undefined4 FUN_0007c60c(int * param_1)
ram:0007d4fa    8046            mov         r8,r0                                   
ram:0007d4fc    fff7f0f9        bl          FUN_0007c8e0                            ;bool FUN_0007c8e0(void)
ram:0007d500    0746            mov         r7,r0                                   
ram:0007d502    a946            mov         r9,r5                                   
ram:0007d504    b8f1000f        cmp.w       r8,#0x0                                 
ram:0007d508    25d0            beq         LAB_0007d556                            
ram:0007d50a    0023            movs        r3,#0x0                                 
ram:0007d50c    009a            ldr         r2,[sp,#0x0]=>local_28                  
ram:0007d50e    cc46            mov         r12,r9                                  
ram:0007d510    e068            ldr         r0,[r4,#0xc]=>DAT_20002c48              
ram:0007d512    19e0            b           LAB_0007d548                            
                            LAB_0007d514:                 ;XREF[1,0]:   0007d54a
ram:0007d514    0768            ldr         r7,[r0,#0x0]                            
ram:0007d516    0146            mov         r1,r0                                   
ram:0007d518    9742            cmp         r7,r2                                   
ram:0007d51a    02d9            bls         LAB_0007d522                            
ram:0007d51c    ba1a            subs        r2,r7,r2                                
ram:0007d51e    0260            str         r2,[r0,#0x0]                            
ram:0007d520    14e0            b           LAB_0007d54c                            
                            LAB_0007d522:                 ;XREF[1,0]:   0007d51a
ram:0007d522    c1f800c0        str.w       r12,[r1,#0x0]                           
ram:0007d526    d1f80c80        ldr.w       r8,[r1,#0xc]                            
ram:0007d52a    d21b            subs        r2,r2,r7                                
ram:0007d52c    c869            ldr         r0,[r1,#0x1c]                           
ram:0007d52e    3b44            add         r3,r7                                   
ram:0007d530    8a46            mov         r10,r1                                  
ram:0007d532    b8f1000f        cmp.w       r8,#0x0                                 
ram:0007d536    07d0            beq         LAB_0007d548                            
ram:0007d538    f718            adds        r7,r6,r3                                
ram:0007d53a    27f07f47        bic         r7,r7,#0xff000000                       
ram:0007d53e    c1e90178        strd        r7,r8,[r1,#0x4]                         
ram:0007d542    caf81c50        str.w       r5,[r10,#0x1c]                          
ram:0007d546    0d46            mov         r5,r1                                   
                            LAB_0007d548:                 ;XREF[2,0]:   0007d512,0007d536
ram:0007d548    0028            cmp         r0,#0x0                                 
ram:0007d54a    e3d1            bne         LAB_0007d514                            
                            LAB_0007d54c:                 ;XREF[1,0]:   0007d520
ram:0007d54c    e060            str         r0,[r4,#0xc]=>DAT_20002c48              
ram:0007d54e    2846            mov         r0,r5                                   
ram:0007d550    fff724fa        bl          FUN_0007c99c                            ;bool FUN_0007c99c(uint * param_1)
ram:0007d554    04e0            b           LAB_0007d560                            
                            LAB_0007d556:                 ;XREF[1,0]:   0007d508
ram:0007d556    2846            mov         r0,r5                                   
ram:0007d558    fff720fa        bl          FUN_0007c99c                            ;bool FUN_0007c99c(uint * param_1)
ram:0007d55c    00b9            cbnz        r0,LAB_0007d560                         
ram:0007d55e    17b1            cbz         r7,LAB_0007d566                         
                            LAB_0007d560:                 ;XREF[2,0]:   0007d554,0007d55c
ram:0007d560    5846            mov         r0,r11                                  
ram:0007d562    fef7e3f9        bl          FUN_0007b92c                            ;undefined FUN_0007b92c(void)
                            LAB_0007d566:                 ;XREF[1,0]:   0007d55e
ram:0007d566    84f80490        strb.w      r9,[r4,#0x4]=>DAT_20002c40              
ram:0007d56a    bde8f88f        pop.w       {r3,r4,r5,r6,r7,r8,r9,r10,r11,pc}       
ram:0007d56e    00              ??          00h                                     
ram:0007d56f    00              ??          00h                                     
                            DAT_0007d570:                 ;XREF[1,0]:   0007d4ec
ram:0007d570    3c2c0020        undefined4  20002C3Ch                               
                            ;************************************************************************************************
                            ;*                                           FUNCTION                                           *
                            ;************************************************************************************************
                            ;undefined FUN_0007d574(uint * param_1)
          ;param_1       uint *              r0                      
                                                          ;XREF[1,0]:   0007ca38
ram:0007d574    0d4b            ldr         r3,[DAT_0007d5ac]                       ;= 20002C3Ch
ram:0007d576    10b5            push        {r4,lr}                                 
ram:0007d578    d968            ldr         r1,[r3,#0xc]=>DAT_20002c48              
ram:0007d57a    31b1            cbz         r1,LAB_0007d58a                         
ram:0007d57c    0268            ldr         r2,[param_1,#0x0]                       
ram:0007d57e    0c68            ldr         r4,[r1,#0x0]                            
ram:0007d580    a242            cmp         r2,r4                                   
ram:0007d582    04d8            bhi         LAB_0007d58e                            
ram:0007d584    a21a            subs        r2,r4,r2                                
ram:0007d586    0a60            str         r2,[r1,#0x0]                            
ram:0007d588    c161            str         r1,[param_1,#0x1c]                      
                            LAB_0007d58a:                 ;XREF[1,0]:   0007d57a
ram:0007d58a    d860            str         param_1,[r3,#0xc]=>DAT_20002c48         
ram:0007d58c    10bd            pop         {r4,pc}                                 
                            LAB_0007d58e:                 ;XREF[1,0]:   0007d582
ram:0007d58e    0b46            mov         r3,r1                                   
ram:0007d590    03e0            b           LAB_0007d59a                            
                            LAB_0007d592:                 ;XREF[1,0]:   0007d59e
ram:0007d592    0b46            mov         r3,r1                                   
ram:0007d594    c969            ldr         r1,[r1,#0x1c]                           
ram:0007d596    121b            subs        r2,r2,r4                                
ram:0007d598    21b1            cbz         r1,LAB_0007d5a4                         
                            LAB_0007d59a:                 ;XREF[1,0]:   0007d590
ram:0007d59a    0c68            ldr         r4,[r1,#0x0]                            
ram:0007d59c    9442            cmp         r4,r2                                   
ram:0007d59e    f8d3            bcc         LAB_0007d592                            
ram:0007d5a0    a41a            subs        r4,r4,r2                                
ram:0007d5a2    0c60            str         r4,[r1,#0x0]                            
                            LAB_0007d5a4:                 ;XREF[1,0]:   0007d598
ram:0007d5a4    0260            str         r2,[param_1,#0x0]                       
ram:0007d5a6    c161            str         r1,[param_1,#0x1c]                      
ram:0007d5a8    d861            str         param_1,[r3,#0x1c]                      
ram:0007d5aa    10bd            pop         {r4,pc}                                 
                            DAT_0007d5ac:                 ;XREF[1,0]:   0007d574
ram:0007d5ac    3c2c0020        undefined4  20002C3Ch                               
                            ;************************************************************************************************
                            ;*                                           FUNCTION                                           *
                            ;************************************************************************************************
                            ;undefined FUN_0007d5b0(void)
                                                          ;XREF[1,0]:   0007a6e0
ram:0007d5b0    2de9f041        push        {r4,r5,r6,r7,r8,lr}                     
ram:0007d5b4    1d4d            ldr         r5,[DAT_0007d62c]                       ;= 20002C3Ch
ram:0007d5b6    ec68            ldr         r4,[r5,#0xc]=>DAT_20002c48              
ram:0007d5b8    002c            cmp         r4,#0x0                                 
ram:0007d5ba    35d0            beq         LAB_0007d628                            
ram:0007d5bc    1c48            ldr         r0,[DAT_0007d630]                       ;= 40011504h
ram:0007d5be    0027            movs        r7,#0x0                                 
ram:0007d5c0    0068            ldr         r0,[r0,#0x0]=>DAT_40011504              
ram:0007d5c2    2969            ldr         r1,[r5,#0x10]=>DAT_20002c4c             
ram:0007d5c4    b846            mov         r8,r7                                   
ram:0007d5c6    401a            subs        r0,r0,r1                                
ram:0007d5c8    20f07f46        bic         r6,r0,#0xff000000                       
                            LAB_0007d5cc:                 ;XREF[1,0]:   0007d5fc
ram:0007d5cc    2068            ldr         r0,[r4,#0x0]                            
ram:0007d5ce    b042            cmp         r0,r6                                   
ram:0007d5d0    15d8            bhi         LAB_0007d5fe                            
ram:0007d5d2    2246            mov         r2,r4                                   
ram:0007d5d4    361a            subs        r6,r6,r0                                
ram:0007d5d6    0744            add         r7,r0                                   
ram:0007d5d8    e469            ldr         r4,[r4,#0x1c]                           
ram:0007d5da    107c            ldrb        r0,[r2,#0x10]                           
ram:0007d5dc    68b1            cbz         r0,LAB_0007d5fa                         
ram:0007d5de    82f81080        strb.w      r8,[r2,#0x10]                           
ram:0007d5e2    6b69            ldr         r3,[r5,#0x14]=>DAT_20002c50             
ram:0007d5e4    33b1            cbz         r3,LAB_0007d5f4                         
ram:0007d5e6    d2e90501        ldrd        r0,r1,[r2,#0x14]                        
ram:0007d5ea    9847            blx         r3                                      
ram:0007d5ec    28b1            cbz         r0,LAB_0007d5fa                         
ram:0007d5ee    fdf7c7fb        bl          FUN_0007ad80                            ;undefined FUN_0007ad80(void)
ram:0007d5f2    02e0            b           LAB_0007d5fa                            
                            LAB_0007d5f4:                 ;XREF[1,0]:   0007d5e4
ram:0007d5f4    d2e90510        ldrd        r1,r0,[r2,#0x14]                        
ram:0007d5f8    8847            blx         r1                                      
                            LAB_0007d5fa:                 ;XREF[3,0]:   0007d5dc,0007d5ec,0007d5f2
ram:0007d5fa    002c            cmp         r4,#0x0                                 
ram:0007d5fc    e6d1            bne         LAB_0007d5cc                            
                            LAB_0007d5fe:                 ;XREF[1,0]:   0007d5d0
ram:0007d5fe    6978            ldrb        r1,[r5,#0x1]=>DAT_20002c3d              
ram:0007d600    a878            ldrb        r0,[r5,#0x2]=>DAT_20002c3e              
ram:0007d602    8142            cmp         r1,r0                                   
ram:0007d604    06d1            bne         LAB_0007d614                            
ram:0007d606    401c            adds        r0,r0,#0x1                              
ram:0007d608    c0b2            uxtb        r0,r0                                   
ram:0007d60a    a870            strb        r0,[r5,#0x2]=>DAT_20002c3e              
ram:0007d60c    0228            cmp         r0,#0x2                                 
ram:0007d60e    01d1            bne         LAB_0007d614                            
ram:0007d610    85f80280        strb.w      r8,[r5,#0x2]=>DAT_20002c3e              
                            LAB_0007d614:                 ;XREF[2,0]:   0007d604,0007d60e
ram:0007d614    0548            ldr         r0,[DAT_0007d62c]                       ;= 20002C3Ch
ram:0007d616    a978            ldrb        r1,[r5,#0x2]=>DAT_20002c3e              
ram:0007d618    1830            adds        r0,#0x18                                
ram:0007d61a    40f82170        str.w       r7,r0=>DAT_20002c54,r1,0x2              
ram:0007d61e    bde8f041        pop.w       {r4,r5,r6,r7,r8,lr}                     
ram:0007d622    1420            movs        r0,#0x14                                
ram:0007d624    fdf732b8        b.w         FUN_0007a68c                            ;undefined FUN_0007a68c(uint param_1)
                            LAB_0007d628:                 ;XREF[1,0]:   0007d5ba
ram:0007d628    bde8f081        pop.w       {r4,r5,r6,r7,r8,pc}                     
                            DAT_0007d62c:                 ;XREF[2,0]:   0007d5b4,0007d614
ram:0007d62c    3c2c0020        undefined4  20002C3Ch                               
                            DAT_0007d630:                 ;XREF[1,0]:   0007d5bc
ram:0007d630    04150140        undefined4  40011504h                               
                            ;************************************************************************************************
                            ;*                                           FUNCTION                                           *
                            ;************************************************************************************************
                            ;undefined4 FUN_0007d634(undefined4 param_1, undefined * param_2)
          ;param_1       undefined4          r0                      
          ;param_2       undefined *         r1                      
                                                          ;XREF[5,0]:   0007aa78,0007ba42,0007ba52,0007cbde
                                                          ;             0007d348
ram:0007d634    0870            strb        param_1,[param_2,#0x0]                  
ram:0007d636    000a            lsrs        param_1,param_1,#0x8                    
ram:0007d638    4870            strb        param_1,[param_2,#0x1]                  
ram:0007d63a    0220            movs        param_1,#0x2                            
ram:0007d63c    7047            bx          lr                                      
                            ;************************************************************************************************
                            ;*                                           FUNCTION                                           *
                            ;************************************************************************************************
                            ;undefined4 FUN_0007d63e(undefined4 param_1, undefined * param_2)
          ;param_1       undefined4          r0                      
          ;param_2       undefined *         r1                      
                                                          ;XREF[2,0]:   0007b2d6,0007b45e
ram:0007d63e    0870            strb        param_1,[param_2,#0x0]                  
ram:0007d640    020a            lsrs        r2,param_1,#0x8                         
ram:0007d642    4a70            strb        r2,[param_2,#0x1]                       
ram:0007d644    020c            lsrs        r2,param_1,#0x10                        
ram:0007d646    8a70            strb        r2,[param_2,#0x2]                       
ram:0007d648    000e            lsrs        param_1,param_1,#0x18                   
ram:0007d64a    c870            strb        param_1,[param_2,#0x3]                  
ram:0007d64c    0420            movs        param_1,#0x4                            
ram:0007d64e    7047            bx          lr                                      
                            ;************************************************************************************************
                            ;*                                           FUNCTION                                           *
                            ;************************************************************************************************
                            ;undefined FUN_0007d650(void)
          ;local_10      undefined1         -10                      ;XREF[1,0]:   0007d69e
ram:0007d650    38b5            push        {r3,r4,r5,lr}                           
ram:0007d652    1549            ldr         r1,[DAT_0007d6a8]                       ;= 20002C00h
ram:0007d654    4888            ldrh        r0,[r1,#offset DAT_20002c02 &0xff]      
ram:0007d656    a0f57f42        sub.w       r2,r0,#0xff00                           
ram:0007d65a    ff3a            subs        r2,#0xff                                
ram:0007d65c    23d0            beq         LAB_0007d6a6                            
ram:0007d65e    4a78            ldrb        r2,[r1,#offset DAT_20002c01 &0xff]      
ram:0007d660    124c            ldr         r4,[DAT_0007d6ac]                       ;= 20003054h
ram:0007d662    521c            adds        r2,r2,#0x1                              
ram:0007d664    d2b2            uxtb        r2,r2                                   
ram:0007d666    4a70            strb        r2,[r1,#offset DAT_20002c01 &0xff]      
ram:0007d668    237b            ldrb        r3,[r4,#0xc]=>DAT_20003060              
ram:0007d66a    9342            cmp         r3,r2                                   
ram:0007d66c    0ad3            bcc         LAB_0007d684                            
ram:0007d66e    091d            adds        r1,r1,#0x4                              
ram:0007d670    75df            svc         0x75                                    
ram:0007d672    0028            cmp         r0,#0x0                                 
ram:0007d674    17d0            beq         LAB_0007d6a6                            
ram:0007d676    a169            ldr         r1,[r4,#0x18]=>DAT_2000306c             
ram:0007d678    0029            cmp         r1,#0x0                                 
ram:0007d67a    14d0            beq         LAB_0007d6a6                            
ram:0007d67c    01b0            add         sp,#0x4                                 
ram:0007d67e    bde83040        pop.w       {r4,r5,lr}                              
ram:0007d682    0847            bx          r1                                      
                            LAB_0007d684:                 ;XREF[1,0]:   0007d66c
ram:0007d684    0025            movs        r5,#0x0                                 
ram:0007d686    4d70            strb        r5,[r1,#offset DAT_20002c01 &0xff]      
ram:0007d688    217c            ldrb        r1,[r4,#0x10]=>DAT_20003064             
ram:0007d68a    29b1            cbz         r1,LAB_0007d698                         
ram:0007d68c    3b21            movs        r1,#0x3b                                
ram:0007d68e    76df            svc         0x76                                    
ram:0007d690    10b1            cbz         r0,LAB_0007d698                         
ram:0007d692    a169            ldr         r1,[r4,#0x18]=>DAT_2000306c             
ram:0007d694    01b1            cbz         r1,LAB_0007d698                         
ram:0007d696    8847            blx         r1                                      
                            LAB_0007d698:                 ;XREF[3,0]:   0007d68a,0007d690,0007d694
ram:0007d698    6169            ldr         r1,[r4,#0x14]=>DAT_20003068             
ram:0007d69a    0029            cmp         r1,#0x0                                 
ram:0007d69c    03d0            beq         LAB_0007d6a6                            
ram:0007d69e    8df80050        strb.w      r5,[sp,#0x0]=>local_10                  
ram:0007d6a2    6846            mov         r0,sp                                   
ram:0007d6a4    8847            blx         r1                                      
                            LAB_0007d6a6:                 ;XREF[4,0]:   0007d65c,0007d674,0007d67a,0007d69c
ram:0007d6a6    38bd            pop         {r3,r4,r5,pc}                           
                            DAT_0007d6a8:                 ;XREF[1,0]:   0007d652
ram:0007d6a8    002c0020        undefined4  20002C00h                               
                            DAT_0007d6ac:                 ;XREF[1,0]:   0007d660
ram:0007d6ac    54300020        undefined4  20003054h                               
                            ;************************************************************************************************
                            ;*                                           FUNCTION                                           *
                            ;************************************************************************************************
                            ;undefined4 FUN_0007d6b0(void)
                                                          ;XREF[2,0]:   0007b044,0007b0ac
ram:0007d6b0    0f48            ldr         r0,[DAT_0007d6f0]                       ;= E000ED04h
ram:0007d6b2    0068            ldr         r0,[r0,#0x0]=>DAT_e000ed04              
ram:0007d6b4    c005            lsls        r0,r0,#0x17                             
ram:0007d6b6    c00d            lsrs        r0,r0,#0x17                             
ram:0007d6b8    13d0            beq         LAB_0007d6e2                            
ram:0007d6ba    1038            subs        r0,#0x10                                
ram:0007d6bc    40b2            sxtb        r0,r0                                   
ram:0007d6be    0028            cmp         r0,#0x0                                 
ram:0007d6c0    06da            bge         LAB_0007d6d0                            
ram:0007d6c2    00f00f00        and         r0,r0,#0xf                              
ram:0007d6c6    00f1e020        add.w       r0,r0,#0xe000e000                       
ram:0007d6ca    90f8140d        ldrb.w      r0,[r0,#0xd14]                          
ram:0007d6ce    03e0            b           LAB_0007d6d8                            
                            LAB_0007d6d0:                 ;XREF[1,0]:   0007d6c0
ram:0007d6d0    00f1e020        add.w       r0,r0,#0xe000e000                       
ram:0007d6d4    90f80004        ldrb.w      r0,[r0,#0x400]                          
                            LAB_0007d6d8:                 ;XREF[1,0]:   0007d6ce
ram:0007d6d8    4009            lsrs        r0,r0,#0x5                              
ram:0007d6da    0128            cmp         r0,#0x1                                 
ram:0007d6dc    03d0            beq         LAB_0007d6e6                            
ram:0007d6de    0328            cmp         r0,#0x3                                 
ram:0007d6e0    03d0            beq         LAB_0007d6ea                            
                            LAB_0007d6e2:                 ;XREF[1,0]:   0007d6b8
ram:0007d6e2    0220            movs        r0,#0x2                                 
ram:0007d6e4    7047            bx          lr                                      
                            LAB_0007d6e6:                 ;XREF[1,0]:   0007d6dc
ram:0007d6e6    0020            movs        r0,#0x0                                 
ram:0007d6e8    7047            bx          lr                                      
                            LAB_0007d6ea:                 ;XREF[1,0]:   0007d6e0
ram:0007d6ea    0120            movs        r0,#0x1                                 
ram:0007d6ec    7047            bx          lr                                      
ram:0007d6ee    0000            movs        r0,r0                                   
                            DAT_0007d6f0:                 ;XREF[1,0]:   0007d6b0
ram:0007d6f0    04ed00e0        undefined4  E000ED04h                               
                            ;************************************************************************************************
                            ;*                                           FUNCTION                                           *
                            ;************************************************************************************************
                            ;int FUN_0007d6f4(char * param_1, char * param_2)
          ;param_1       char *              r0                      
          ;param_2       char *              r1                      
                                                          ;XREF[2,0]:   0007b054,0007b0ba
ram:0007d6f4    4278            ldrb        r2,[param_1,#0x1]                       
ram:0007d6f6    8378            ldrb        r3,[param_1,#0x2]                       
ram:0007d6f8    521c            adds        r2,r2,#0x1                              
ram:0007d6fa    d2b2            uxtb        r2,r2                                   
ram:0007d6fc    9342            cmp         r3,r2                                   
ram:0007d6fe    00d1            bne         LAB_0007d702                            
ram:0007d700    0022            movs        r2,#0x0                                 
                            LAB_0007d702:                 ;XREF[1,0]:   0007d6fe
ram:0007d702    0378            ldrb        r3,[param_1,#0x0]                       
ram:0007d704    9342            cmp         r3,r2                                   
ram:0007d706    01d1            bne         LAB_0007d70c                            
ram:0007d708    0020            movs        param_1,#0x0                            
ram:0007d70a    7047            bx          lr                                      
                            LAB_0007d70c:                 ;XREF[1,0]:   0007d706
ram:0007d70c    0a70            strb        r2,[param_2,#0x0]                       
ram:0007d70e    4168            ldr         param_2,[param_1,#0x4]                  
ram:0007d710    4078            ldrb        param_1,[param_1,#0x1]                  
ram:0007d712    00eb4000        add.w       param_1,param_1,param_1, lsl #0x1       
ram:0007d716    01ebc000        add.w       param_1,param_2,param_1, lsl #0x3       
ram:0007d71a    7047            bx          lr                                      
                            ;************************************************************************************************
                            ;*                                           FUNCTION                                           *
                            ;************************************************************************************************
                            ;undefined8 FUN_0007d71c(ushort * param_1, byte * param_2, byte * param_3, int param_4, ushort * param_5, byte * param_6)
          ;param_1       ushort *            r0                      
          ;param_2       byte *              r1                      
          ;param_3       byte *              r2                      
          ;param_4       int                 r3                      
          ;param_5       ushort *             0                      ;XREF[1,0]:   0007d722
          ;param_6       byte *               4                      
          ;local_20      undefined4         -20                      ;XREF[2,0]:   0007d726,0007d738
                                                          ;XREF[3,0]:   0007aafe,0007ab18,0007ab32
ram:0007d71c    2de9fc41        push        {param_3,param_4,r4,r5,r6,r7,r8,lr}     
ram:0007d720    1646            mov         r6,param_3                              
ram:0007d722    dde90854        ldrd        r5,r4,[sp,#param_5+0x20]                
ram:0007d726    cde90054        strd        r5,r4,[sp,#0x0]=>local_20               
ram:0007d72a    1f46            mov         r7,param_4                              
ram:0007d72c    8046            mov         r8,param_1                              
ram:0007d72e    0222            movs        param_3,#0x2                            
ram:0007d730    00f00cf8        bl          FUN_0007d74c                            ;undefined8 FUN_0007d74c(ushort * par...
ram:0007d734    0028            cmp         param_1,#0x0                            
ram:0007d736    07d1            bne         LAB_0007d748                            
ram:0007d738    cde90054        strd        r5,r4,[sp,#0x0]=>local_20               
ram:0007d73c    3b46            mov         param_4,r7                              
ram:0007d73e    1022            movs        param_3,#0x10                           
ram:0007d740    3146            mov         param_2,r6                              
ram:0007d742    4046            mov         param_1,r8                              
ram:0007d744    00f002f8        bl          FUN_0007d74c                            ;undefined8 FUN_0007d74c(ushort * par...
                            LAB_0007d748:                 ;XREF[1,0]:   0007d736
ram:0007d748    bde8fc81        pop.w       {param_3,param_4,r4,r5,r6,r7,r8,pc}     
                            ;************************************************************************************************
                            ;*                                           FUNCTION                                           *
                            ;************************************************************************************************
                            ;undefined8 FUN_0007d74c(ushort * param_1, byte * param_2, uint param_3, int param_4, ushort * param_5, byte * param_6)
          ;param_1       ushort *            r0                      
          ;param_2       byte *              r1                      
          ;param_3       uint                r2                      
          ;param_4       int                 r3                      
          ;param_5       ushort *             0                      ;XREF[1,0]:   0007d752
          ;param_6       byte *               4                      
          ;local_2c      undefined4         -2c                      ;XREF[1,0]:   0007d772
          ;local_30      undefined1         -30                      ;XREF[2,0]:   0007d77c,0007d7bc
                                                          ;XREF[2,0]:   0007d730,0007d744
ram:0007d74c    2de9fc5f        push        {param_3,param_4,r4,r5,r6,r7,r8,r9,r1...
ram:0007d750    0026            movs        r6,#0x0                                 
ram:0007d752    dde90c4b        ldrd        r4,r11,[sp,#param_5+0x30]               
ram:0007d756    9946            mov         r9,param_4                              
ram:0007d758    9246            mov         r10,param_3                             
ram:0007d75a    8e46            mov         lr,param_2                              
ram:0007d75c    8046            mov         r8,param_1                              
ram:0007d75e    2788            ldrh        r7,[r4,#0x0]                            
ram:0007d760    3546            mov         r5,r6                                   
ram:0007d762    30e0            b           LAB_0007d7c6                            
                            LAB_0007d764:                 ;XREF[1,0]:   0007d7cc
ram:0007d764    d8f80400        ldr.w       param_1,[r8,#0x4]                       
ram:0007d768    0022            movs        param_3,#0x0                            
ram:0007d76a    00eb8500        add.w       param_1,param_1,r5, lsl #0x2            
ram:0007d76e    6946            mov         param_2,sp                              
ram:0007d770    0068            ldr         param_1,[param_1,#0x0]                  
ram:0007d772    0190            str         param_1,[sp,#local_2c+0x30]             
ram:0007d774    01a8            add         param_1,sp,#0x4                         
ram:0007d776    65df            svc         0x65                                    
ram:0007d778    0028            cmp         param_1,#0x0                            
ram:0007d77a    30d1            bne         LAB_0007d7de                            
ram:0007d77c    9df80000        ldrb.w      param_1,[sp,#0x0]=>local_30             
ram:0007d780    5045            cmp         param_1,r10                             
ram:0007d782    1fd1            bne         LAB_0007d7c4                            
ram:0007d784    0eb1            cbz         r6,LAB_0007d78a                         
ram:0007d786    0021            movs        param_2,#0x0                            
ram:0007d788    00e0            b           LAB_0007d78c                            
                            LAB_0007d78a:                 ;XREF[1,0]:   0007d784
ram:0007d78a    0221            movs        param_2,#0x2                            
                            LAB_0007d78c:                 ;XREF[1,0]:   0007d788
ram:0007d78c    2288            ldrh        param_3,[r4,#0x0]                       
ram:0007d78e    0844            add         param_1,param_2                         
ram:0007d790    1118            adds        param_2,param_3,param_1                 
ram:0007d792    5945            cmp         param_2,r11                             
ram:0007d794    22d8            bhi         LAB_0007d7dc                            
ram:0007d796    46b9            cbnz        r6,LAB_0007d7aa                         
ram:0007d798    521c            adds        param_3,param_3,#0x1                    
ram:0007d79a    90b2            uxth        param_1,param_3                         
ram:0007d79c    2080            strh        param_1,[r4,#0x0]                       
ram:0007d79e    09f800e0        strb.w      lr,r9,param_1,0x0                       
ram:0007d7a2    2088            ldrh        param_1,[r4,#0x0]                       
ram:0007d7a4    401c            adds        param_1,param_1,#0x1                    
ram:0007d7a6    2080            strh        param_1,[r4,#0x0]                       
ram:0007d7a8    0126            movs        r6,#0x1                                 
                            LAB_0007d7aa:                 ;XREF[1,0]:   0007d796
ram:0007d7aa    2188            ldrh        param_2,[r4,#0x0]                       
ram:0007d7ac    01a8            add         param_1,sp,#0x4                         
ram:0007d7ae    01eb0902        add.w       param_3,param_2,r9                      
ram:0007d7b2    6946            mov         param_2,sp                              
ram:0007d7b4    65df            svc         0x65                                    
ram:0007d7b6    0028            cmp         param_1,#0x0                            
ram:0007d7b8    11d1            bne         LAB_0007d7de                            
ram:0007d7ba    2088            ldrh        param_1,[r4,#0x0]                       
ram:0007d7bc    9df80010        ldrb.w      param_2=>local_30,[sp,#0x0]             
ram:0007d7c0    0844            add         param_1,param_2                         
ram:0007d7c2    2080            strh        param_1,[r4,#0x0]                       
                            LAB_0007d7c4:                 ;XREF[1,0]:   0007d782
ram:0007d7c4    6d1c            adds        r5,r5,#0x1                              
                            LAB_0007d7c6:                 ;XREF[1,0]:   0007d762
ram:0007d7c6    b8f80000        ldrh.w      param_1,[r8,#0x0]                       
ram:0007d7ca    a842            cmp         param_1,r5                              
ram:0007d7cc    cadc            bgt         LAB_0007d764                            
ram:0007d7ce    56b1            cbz         r6,LAB_0007d7e6                         
ram:0007d7d0    2088            ldrh        param_1,[r4,#0x0]                       
ram:0007d7d2    c01b            subs        param_1,param_1,r7                      
ram:0007d7d4    401e            subs        param_1,param_1,#0x1                    
ram:0007d7d6    80b2            uxth        param_1,param_1                         
ram:0007d7d8    ff28            cmp         param_1,#0xff                           
ram:0007d7da    02d9            bls         LAB_0007d7e2                            
                            LAB_0007d7dc:                 ;XREF[1,0]:   0007d794
ram:0007d7dc    0c20            movs        param_1,#0xc                            
                            LAB_0007d7de:                 ;XREF[3,0]:   0007d77a,0007d7b8,0007d7e8
ram:0007d7de    bde8fc9f        pop.w       {param_3,param_4,r4,r5,r6,r7,r8,r9,r1...
                            LAB_0007d7e2:                 ;XREF[1,0]:   0007d7da
ram:0007d7e2    09f80700        strb.w      param_1,r9,r7,0x0                       
                            LAB_0007d7e6:                 ;XREF[1,0]:   0007d7ce
ram:0007d7e6    0020            movs        param_1,#0x0                            
ram:0007d7e8    f9e7            b           LAB_0007d7de                            
ram:0007d7ea    0000            movs        r0,r0                                   
                            ;************************************************************************************************
                            ;*                                           FUNCTION                                           *
                            ;************************************************************************************************
                            ;undefined FUN_0007d7ec(uint param_1, undefined4 param_2, uint param_3, undefined * param_4)
          ;param_1       uint                r0                      
          ;param_2       undefined4          r1                      
          ;param_3       uint                r2                      
          ;param_4       undefined *         r3                      
                                                          ;XREF[2,0]:   0007b6a6,0007b6c4
ram:0007d7ec    10b5            push        {r4,lr}                                 
ram:0007d7ee    074c            ldr         r4,[DAT_0007d80c]                       ;= 20002C5Ch
                            LAB_0007d7f0:                 ;XREF[1,0]:   0007d808
ram:0007d7f0    48df            svc         0x48                                    
ram:0007d7f2    08b1            cbz         param_1,LAB_0007d7f8                    
ram:0007d7f4    fdf7c4fa        bl          FUN_0007ad80                            ;undefined FUN_0007ad80(void)
                            LAB_0007d7f8:                 ;XREF[1,0]:   0007d7f2
ram:0007d7f8    fdf776fb        bl          FUN_0007aee8                            ;undefined FUN_0007aee8(undefined4 pa...
ram:0007d7fc    2078            ldrb        param_1,[r4,#0x0]=>DAT_20002c5c         
ram:0007d7fe    0228            cmp         param_1,#0x2                            
ram:0007d800    03d0            beq         LAB_0007d80a                            
ram:0007d802    0328            cmp         param_1,#0x3                            
ram:0007d804    01d0            beq         LAB_0007d80a                            
ram:0007d806    0428            cmp         param_1,#0x4                            
ram:0007d808    f2d1            bne         LAB_0007d7f0                            
                            LAB_0007d80a:                 ;XREF[2,0]:   0007d800,0007d804
ram:0007d80a    10bd            pop         {r4,pc}                                 
                            DAT_0007d80c:                 ;XREF[1,0]:   0007d7ee
ram:0007d80c    5c2c0020        undefined4  20002C5Ch                               
                            DAT_0007d810:                 ;XREF[2,0]:   0007b52a,0007b590
ram:0007d810    02000000        undefined4  00000002h                               
                            DAT_0007d814:                 ;XREF[1,0]:   0007b52a
ram:0007d814    00000000        undefined4  00000000h                               
                            DAT_0007d818:                 ;XREF[1,0]:   0007b52a
ram:0007d818    00000000        undefined4  00000000h                               
                            DAT_0007d81c:                 ;XREF[1,0]:   0007b52a
ram:0007d81c    00000000        undefined4  00000000h                               
                            DAT_0007d820:                 ;XREF[11,0]:  0007af3e,0007b190,0007b1a4,0007b1b8
                                                          ;             0007b204,0007b230,0007b236,0007b23c
                                                          ;             0007ba64,0007ba9c,0007babc
ram:0007d820    34300020        undefined4  20003034h                               
                            DAT_0007d824:                 ;XREF[2,0]:   0007b330,0007b39c
ram:0007d824    23d1bcea        undefined4  EABCD123h                               
                            DAT_0007d828:                 ;XREF[1,0]:   0007b330
ram:0007d828    5f782315        undefined4  1523785Fh                               
                            DAT_0007d82c:                 ;XREF[1,0]:   0007b330
ram:0007d82c    deef1212        undefined4  1212EFDEh                               
                            DAT_0007d830:                 ;XREF[1,0]:   0007b330
ram:0007d830    00000000        undefined4  00000000h                               
                            PTR_LAB_0007d084+1+1_0007d834:;XREF[2,0]:   0007b7b4,0007b7d4
ram:0007d834    85d00700        addr        LAB_0007d084+1+1                        
                            DAT_0007d838:                 ;XREF[1,0]:   0007b7b4
ram:0007d838    00000000        undefined4  00000000h                               
                            DAT_0007d83c:                 ;XREF[1,0]:   0007b7b4
ram:0007d83c    00000000        undefined4  00000000h                               
                            DAT_0007d840:                 ;XREF[2,0]:   0007b68e,0007b6b0
ram:0007d840    02              ??          02h                                     
ram:0007d841    00              ??          00h                                     
ram:0007d842    00              ??          00h                                     
ram:0007d843    00              ??          00h                                     
ram:0007d844    00              ??          00h                                     
ram:0007d845    00              ??          00h                                     
ram:0007d846    00              ??          00h                                     
ram:0007d847    00              ??          00h                                     
ram:0007d848    00              ??          00h                                     
ram:0007d849    00              ??          00h                                     
ram:0007d84a    00              ??          00h                                     
ram:0007d84b    00              ??          00h                                     
ram:0007d84c    00              ??          00h                                     
ram:0007d84d    00              ??          00h                                     
ram:0007d84e    00              ??          00h                                     
ram:0007d84f    00              ??          00h                                     
ram:0007d850    00              ??          00h                                     
ram:0007d851    00              ??          00h                                     
ram:0007d852    00              ??          00h                                     
ram:0007d853    00              ??          00h                                     
                            DAT_0007d854:                 ;XREF[8,0]:   0007be6c,0007be88,0007bf14,0007bf26
                                                          ;             0007bf3c,0007c442,0007c454,0007c46c
ram:0007d854    80310020        undefined4  20003180h                               
                            DAT_0007d858:                 ;XREF[2,0]:   0007bcda,0007bcf8
ram:0007d858    04              ??          04h                                     
ram:0007d859    00              ??          00h                                     
ram:0007d85a    00              ??          00h                                     
ram:0007d85b    00              ??          00h                                     
ram:0007d85c    00              ??          00h                                     
ram:0007d85d    00              ??          00h                                     
ram:0007d85e    00              ??          00h                                     
ram:0007d85f    00              ??          00h                                     
ram:0007d860    00              ??          00h                                     
ram:0007d861    00              ??          00h                                     
ram:0007d862    00              ??          00h                                     
ram:0007d863    00              ??          00h                                     
ram:0007d864    00              ??          00h                                     
ram:0007d865    00              ??          00h                                     
ram:0007d866    00              ??          00h                                     
ram:0007d867    00              ??          00h                                     
ram:0007d868    00              ??          00h                                     
ram:0007d869    00              ??          00h                                     
ram:0007d86a    00              ??          00h                                     
ram:0007d86b    00              ??          00h                                     
                            PTR_FUN_0007d0a4+1_0007d86c:  ;XREF[1,0]:   0007bed8
ram:0007d86c    a5d00700        addr        FUN_0007d0a4+1                          
                            DAT_0007d870:                 ;XREF[1,0]:   0007bed8
ram:0007d870    00000000        undefined4  00000000h                               
                            DAT_0007d874:                 ;XREF[1,0]:   0007bed8
ram:0007d874    00000000        undefined4  00000000h                               
                            DAT_0007d878:                 ;XREF[2,0]:   0007d47e,0007d4e0
ram:0007d878    03000000        undefined4  00000003h                               
ram:0007d87c    00              ??          00h                                     
ram:0007d87d    00              ??          00h                                     
ram:0007d87e    00              ??          00h                                     
ram:0007d87f    00              ??          00h                                     
                            DAT_0007d880:                 ;XREF[1,0]:   0007d480
ram:0007d880    00000000        undefined4  00000000h                               
                            DAT_0007d884:                 ;XREF[2,0]:   0007ce4a,0007ceb4
ram:0007d884    05              ??          05h                                     
ram:0007d885    00              ??          00h                                     
ram:0007d886    00              ??          00h                                     
ram:0007d887    00              ??          00h                                     
ram:0007d888    00              ??          00h                                     
ram:0007d889    00              ??          00h                                     
ram:0007d88a    00              ??          00h                                     
ram:0007d88b    00              ??          00h                                     
ram:0007d88c    00              ??          00h                                     
ram:0007d88d    00              ??          00h                                     
ram:0007d88e    00              ??          00h                                     
ram:0007d88f    00              ??          00h                                     
ram:0007d890    00              ??          00h                                     
ram:0007d891    00              ??          00h                                     
ram:0007d892    00              ??          00h                                     
ram:0007d893    00              ??          00h                                     
ram:0007d894    00              ??          00h                                     
ram:0007d895    00              ??          00h                                     
ram:0007d896    00              ??          00h                                     
ram:0007d897    00              ??          00h                                     
                            PTR_DAT_0007d898:             ;XREF[3,0]:   0007a544,0007a5ec,0007a604
ram:0007d898    b8d80700        addr        DAT_0007d8b8                            
                            DAT_0007d89c:                 ;XREF[1,0]:   0007a5ec
ram:0007d89c    002c0020        undefined4  20002C00h                               
                            DAT_0007d8a0:                 ;XREF[1,0]:   0007a5ec
ram:0007d8a0    d4000000        undefined4  000000D4h                               
                            PTR_thunk_FUN_0007a974_0007...;XREF[1,0]:   0007a5e6
ram:0007d8a4    6ca90700        addr        thunk_FUN_0007a974                      
ram:0007d8a8    8c              ??          8Ch                                     
ram:0007d8a9    d9              ??          D9h                                     
ram:0007d8aa    07              ??          07h                                     
ram:0007d8ab    00              ??          00h                                     
ram:0007d8ac    d4              ??          D4h                                     
ram:0007d8ad    2c              ??          2Ch    ,                                
ram:0007d8ae    00              ??          00h                                     
ram:0007d8af    20              ??          20h                                     
ram:0007d8b0    34              ??          34h    4                                
ram:0007d8b1    27              ??          27h    '                                
ram:0007d8b2    00              ??          00h                                     
ram:0007d8b3    00              ??          00h                                     
ram:0007d8b4    7c              ??          7Ch    |                                ;?  ->  0007a97c
ram:0007d8b5    a9              ??          A9h                                     
ram:0007d8b6    07              ??          07h                                     
ram:0007d8b7    00              ??          00h                                     
                            DAT_0007d8b8:                 ;XREF[2,0]:   0007a5ec,0007d898
ram:0007d8b8    00              ??          00h                                     
ram:0007d8b9    00              ??          00h                                     
ram:0007d8ba    00              ??          00h                                     
ram:0007d8bb    00              ??          00h                                     
ram:0007d8bc    00              ??          00h                                     
ram:0007d8bd    00              ??          00h                                     
ram:0007d8be    00              ??          00h                                     
ram:0007d8bf    00              ??          00h                                     
ram:0007d8c0    00              ??          00h                                     
ram:0007d8c1    00              ??          00h                                     
ram:0007d8c2    00              ??          00h                                     
ram:0007d8c3    00              ??          00h                                     
ram:0007d8c4    00              ??          00h                                     
ram:0007d8c5    00              ??          00h                                     
ram:0007d8c6    00              ??          00h                                     
ram:0007d8c7    00              ??          00h                                     
ram:0007d8c8    00              ??          00h                                     
ram:0007d8c9    00              ??          00h                                     
ram:0007d8ca    00              ??          00h                                     
ram:0007d8cb    00              ??          00h                                     
ram:0007d8cc    00              ??          00h                                     
ram:0007d8cd    00              ??          00h                                     
ram:0007d8ce    00              ??          00h                                     
ram:0007d8cf    00              ??          00h                                     
ram:0007d8d0    00              ??          00h                                     
ram:0007d8d1    00              ??          00h                                     
ram:0007d8d2    00              ??          00h                                     
ram:0007d8d3    00              ??          00h                                     
ram:0007d8d4    00              ??          00h                                     
ram:0007d8d5    00              ??          00h                                     
ram:0007d8d6    00              ??          00h                                     
ram:0007d8d7    00              ??          00h                                     
ram:0007d8d8    00              ??          00h                                     
ram:0007d8d9    00              ??          00h                                     
ram:0007d8da    00              ??          00h                                     
ram:0007d8db    00              ??          00h                                     
ram:0007d8dc    00              ??          00h                                     
ram:0007d8dd    00              ??          00h                                     
ram:0007d8de    00              ??          00h                                     
ram:0007d8df    00              ??          00h                                     
ram:0007d8e0    00              ??          00h                                     
ram:0007d8e1    00              ??          00h                                     
ram:0007d8e2    00              ??          00h                                     
ram:0007d8e3    00              ??          00h                                     
ram:0007d8e4    00              ??          00h                                     
ram:0007d8e5    00              ??          00h                                     
ram:0007d8e6    00              ??          00h                                     
ram:0007d8e7    00              ??          00h                                     
ram:0007d8e8    00              ??          00h                                     
ram:0007d8e9    00              ??          00h                                     
ram:0007d8ea    00              ??          00h                                     
ram:0007d8eb    00              ??          00h                                     
ram:0007d8ec    00              ??          00h                                     
ram:0007d8ed    00              ??          00h                                     
ram:0007d8ee    00              ??          00h                                     
ram:0007d8ef    00              ??          00h                                     
ram:0007d8f0    00              ??          00h                                     
ram:0007d8f1    00              ??          00h                                     
ram:0007d8f2    00              ??          00h                                     
ram:0007d8f3    00              ??          00h                                     
ram:0007d8f4    00              ??          00h                                     
ram:0007d8f5    00              ??          00h                                     
ram:0007d8f6    00              ??          00h                                     
ram:0007d8f7    00              ??          00h                                     
ram:0007d8f8    00              ??          00h                                     
ram:0007d8f9    00              ??          00h                                     
ram:0007d8fa    00              ??          00h                                     
ram:0007d8fb    00              ??          00h                                     
ram:0007d8fc    00              ??          00h                                     
ram:0007d8fd    00              ??          00h                                     
ram:0007d8fe    00              ??          00h                                     
ram:0007d8ff    00              ??          00h                                     
ram:0007d900    00              ??          00h                                     
ram:0007d901    00              ??          00h                                     
ram:0007d902    00              ??          00h                                     
ram:0007d903    00              ??          00h                                     
ram:0007d904    00              ??          00h                                     
ram:0007d905    00              ??          00h                                     
ram:0007d906    00              ??          00h                                     
ram:0007d907    00              ??          00h                                     
ram:0007d908    00              ??          00h                                     
ram:0007d909    00              ??          00h                                     
ram:0007d90a    00              ??          00h                                     
ram:0007d90b    00              ??          00h                                     
ram:0007d90c    00              ??          00h                                     
ram:0007d90d    00              ??          00h                                     
ram:0007d90e    00              ??          00h                                     
ram:0007d90f    00              ??          00h                                     
ram:0007d910    00              ??          00h                                     
ram:0007d911    00              ??          00h                                     
ram:0007d912    00              ??          00h                                     
ram:0007d913    00              ??          00h                                     
ram:0007d914    00              ??          00h                                     
ram:0007d915    00              ??          00h                                     
ram:0007d916    00              ??          00h                                     
ram:0007d917    00              ??          00h                                     
ram:0007d918    00              ??          00h                                     
ram:0007d919    00              ??          00h                                     
ram:0007d91a    00              ??          00h                                     
ram:0007d91b    00              ??          00h                                     
ram:0007d91c    00              ??          00h                                     
ram:0007d91d    00              ??          00h                                     
ram:0007d91e    00              ??          00h                                     
ram:0007d91f    00              ??          00h                                     
ram:0007d920    00              ??          00h                                     
ram:0007d921    00              ??          00h                                     
ram:0007d922    00              ??          00h                                     
ram:0007d923    00              ??          00h                                     
ram:0007d924    00              ??          00h                                     
ram:0007d925    00              ??          00h                                     
ram:0007d926    00              ??          00h                                     
ram:0007d927    00              ??          00h                                     
ram:0007d928    00              ??          00h                                     
ram:0007d929    00              ??          00h                                     
ram:0007d92a    00              ??          00h                                     
ram:0007d92b    00              ??          00h                                     
ram:0007d92c    00              ??          00h                                     
ram:0007d92d    00              ??          00h                                     
ram:0007d92e    00              ??          00h                                     
ram:0007d92f    00              ??          00h                                     
ram:0007d930    00              ??          00h                                     
ram:0007d931    00              ??          00h                                     
ram:0007d932    00              ??          00h                                     
ram:0007d933    00              ??          00h                                     
ram:0007d934    00              ??          00h                                     
ram:0007d935    00              ??          00h                                     
ram:0007d936    00              ??          00h                                     
ram:0007d937    00              ??          00h                                     
ram:0007d938    00              ??          00h                                     
ram:0007d939    00              ??          00h                                     
ram:0007d93a    00              ??          00h                                     
ram:0007d93b    00              ??          00h                                     
ram:0007d93c    00              ??          00h                                     
ram:0007d93d    00              ??          00h                                     
ram:0007d93e    00              ??          00h                                     
ram:0007d93f    00              ??          00h                                     
ram:0007d940    00              ??          00h                                     
ram:0007d941    00              ??          00h                                     
ram:0007d942    00              ??          00h                                     
ram:0007d943    00              ??          00h                                     
ram:0007d944    00              ??          00h                                     
ram:0007d945    00              ??          00h                                     
ram:0007d946    00              ??          00h                                     
ram:0007d947    00              ??          00h                                     
ram:0007d948    00              ??          00h                                     
ram:0007d949    00              ??          00h                                     
ram:0007d94a    00              ??          00h                                     
ram:0007d94b    00              ??          00h                                     
ram:0007d94c    00              ??          00h                                     
ram:0007d94d    00              ??          00h                                     
ram:0007d94e    00              ??          00h                                     
ram:0007d94f    00              ??          00h                                     
ram:0007d950    00              ??          00h                                     
ram:0007d951    00              ??          00h                                     
ram:0007d952    ff              ??          FFh                                     
ram:0007d953    ff              ??          FFh                                     
ram:0007d954    00              ??          00h                                     
ram:0007d955    00              ??          00h                                     
ram:0007d956    00              ??          00h                                     
ram:0007d957    00              ??          00h                                     
ram:0007d958    32              ??          32h    2                                
ram:0007d959    00              ??          00h                                     
ram:0007d95a    00              ??          00h                                     
ram:0007d95b    00              ??          00h                                     
ram:0007d95c    00              ??          00h                                     
ram:0007d95d    00              ??          00h                                     
ram:0007d95e    00              ??          00h                                     
ram:0007d95f    00              ??          00h                                     
ram:0007d960    00              ??          00h                                     
ram:0007d961    00              ??          00h                                     
ram:0007d962    00              ??          00h                                     
ram:0007d963    00              ??          00h                                     
ram:0007d964    00              ??          00h                                     
ram:0007d965    00              ??          00h                                     
ram:0007d966    00              ??          00h                                     
ram:0007d967    00              ??          00h                                     
ram:0007d968    00              ??          00h                                     
ram:0007d969    00              ??          00h                                     
ram:0007d96a    00              ??          00h                                     
ram:0007d96b    00              ??          00h                                     
ram:0007d96c    00              ??          00h                                     
ram:0007d96d    00              ??          00h                                     
ram:0007d96e    00              ??          00h                                     
ram:0007d96f    00              ??          00h                                     
ram:0007d970    00              ??          00h                                     
ram:0007d971    00              ??          00h                                     
ram:0007d972    00              ??          00h                                     
ram:0007d973    00              ??          00h                                     
ram:0007d974    00              ??          00h                                     
ram:0007d975    00              ??          00h                                     
ram:0007d976    00              ??          00h                                     
ram:0007d977    00              ??          00h                                     
ram:0007d978    00              ??          00h                                     
ram:0007d979    00              ??          00h                                     
ram:0007d97a    00              ??          00h                                     
ram:0007d97b    00              ??          00h                                     
ram:0007d97c    00              ??          00h                                     
ram:0007d97d    00              ??          00h                                     
ram:0007d97e    00              ??          00h                                     
ram:0007d97f    00              ??          00h                                     
ram:0007d980    00              ??          00h                                     
ram:0007d981    00              ??          00h                                     
ram:0007d982    00              ??          00h                                     
ram:0007d983    00              ??          00h                                     
ram:0007d984    00              ??          00h                                     
ram:0007d985    00              ??          00h                                     
ram:0007d986    00              ??          00h                                     
ram:0007d987    00              ??          00h                                     
ram:0007d988    00              ??          00h                                     
ram:0007d989    90              ??          90h                                     
ram:0007d98a    d0              ??          D0h                                     
ram:0007d98b    03              ??          03h                                     
