                            MasterStackPointer:           
ram:20001ea4    b0540020        addr        LAB_200054ae+2                          
                            Reset:                        ;XREF[1,0]:   Entry Point
ram:20001ea8    59a30700        addr        DAT_0007a359                            
                            NMI:                          ;XREF[1,0]:   Entry Point
ram:20001eac    61a30700        addr        DAT_0007a361                            
                            HardFault:                    ;XREF[1,0]:   Entry Point
ram:20001eb0    63a30700        addr        DAT_0007a363                            
                            MemManage:                    ;XREF[1,0]:   Entry Point
ram:20001eb4    65a30700        addr        DAT_0007a365                            
                            BusFault:                     ;XREF[1,0]:   Entry Point
ram:20001eb8    67a30700        addr        DAT_0007a367                            
                            UsageFault:                   ;XREF[1,0]:   Entry Point
ram:20001ebc    69a30700        addr        DAT_0007a369                            
                            Reserved1:                    ;XREF[1,0]:   Entry Point
ram:20001ec0    00000000        addr        00000000                                
                            Reserved2:                    ;XREF[1,0]:   Entry Point
ram:20001ec4    00000000        addr        00000000                                
                            Reserved3:                    ;XREF[1,0]:   Entry Point
ram:20001ec8    00000000        addr        00000000                                
                            Reserved5:                    ;XREF[1,0]:   Entry Point
                            Reserved6:                    
                            Reserved4:                    
ram:20001ecc    00000000        addr        00000000                                
                            SVCall:                       ;XREF[1,0]:   Entry Point
ram:20001ed0    15a20700        addr        DAT_0007a215                            
ram:20001ed4    6da30700        addr        DAT_0007a36d                            
ram:20001ed8    00000000        addr        00000000                                
                            PendSV:                       ;XREF[1,0]:   Entry Point
ram:20001edc    6fa30700        addr        DAT_0007a36f                            
                            SysTick:                      ;XREF[1,0]:   Entry Point
ram:20001ee0    71a30700        addr        DAT_0007a371                            
                            IRQ:                          ;XREF[1,0]:   Entry Point
ram:20001ee4    73a30700        addr        DAT_0007a373                            
ram:20001ee8    73a30700        addr        DAT_0007a373                            
ram:20001eec    73a30700        addr        DAT_0007a373                            
ram:20001ef0    73a30700        addr        DAT_0007a373                            
ram:20001ef4    73a30700        addr        DAT_0007a373                            
ram:20001ef8    73a30700        addr        DAT_0007a373                            
ram:20001efc    73a30700        addr        DAT_0007a373                            
ram:20001f00    73a30700        addr        DAT_0007a373                            
ram:20001f04    73a30700        addr        DAT_0007a373                            
ram:20001f08    73a30700        addr        DAT_0007a373                            
ram:20001f0c    73a30700        addr        DAT_0007a373                            
ram:20001f10    73a30700        addr        DAT_0007a373                            
ram:20001f14    73a30700        addr        DAT_0007a373                            
ram:20001f18    73a30700        addr        DAT_0007a373                            
ram:20001f1c    73a30700        addr        DAT_0007a373                            
ram:20001f20    73a30700        addr        DAT_0007a373                            
ram:20001f24    01a80700        addr        DAT_0007a801                            
ram:20001f28    c5a40700        addr        DAT_0007a4c5                            
ram:20001f2c    73a30700        addr        DAT_0007a373                            
ram:20001f30    73a30700        addr        DAT_0007a373                            
ram:20001f34    e9a40700        addr        DAT_0007a4e9                            
ram:20001f38    73a30700        addr        DAT_0007a373                            
ram:20001f3c    eda40700        addr        DAT_0007a4ed                            
ram:20001f40    73a30700        addr        DAT_0007a373                            
ram:20001f44    73a30700        addr        DAT_0007a373                            
ram:20001f48    73a30700        addr        DAT_0007a373                            
ram:20001f4c    73a30700        addr        DAT_0007a373                            
ram:20001f50    73a30700        addr        DAT_0007a373                            
ram:20001f54    73a30700        addr        DAT_0007a373                            
ram:20001f58    73a30700        addr        DAT_0007a373                            
ram:20001f5c    00000000        addr        00000000                                
ram:20001f60    00000000        addr        00000000                                
ram:20001f64    73a30700        addr        DAT_0007a373                            
ram:20001f68    73a30700        addr        DAT_0007a373                            
ram:20001f6c    73a30700        addr        DAT_0007a373                            
ram:20001f70    73a30700        addr        DAT_0007a373                            
ram:20001f74    73a30700        addr        DAT_0007a373                            
ram:20001f78    73a30700        addr        DAT_0007a373                            
ram:20001f7c    73a30700        addr        DAT_0007a373                            
ram:20001f80    00000000        addr        00000000                                
ram:20001f84    00000000        addr        00000000                                
ram:20001f88    00000000        addr        00000000                                
ram:20001f8c    00000000        addr        00000000                                
ram:20001f90    00000000        addr        00000000                                
ram:20001f94    00000000        addr        00000000                                
ram:20001f98    00000000        addr        00000000                                
ram:20001f9c    00000000        addr        00000000                                
ram:20001fa0    00000000        addr        00000000                                
ram:20001fa4    00000000        addr        00000000                                
ram:20001fa8    00000000        addr        00000000                                
ram:20001fac    00000000        addr        00000000                                
ram:20001fb0    00000000        addr        00000000                                
ram:20001fb4    00000000        addr        00000000                                
ram:20001fb8    00000000        addr        00000000                                
ram:20001fbc    00000000        addr        00000000                                
ram:20001fc0    00000000        addr        00000000                                
ram:20001fc4    00000000        addr        00000000                                
ram:20001fc8    00000000        addr        00000000                                
ram:20001fcc    00000000        addr        00000000                                
ram:20001fd0    00000000        addr        00000000                                
ram:20001fd4    00000000        addr        00000000                                
ram:20001fd8    00000000        addr        00000000                                
ram:20001fdc    00000000        addr        00000000                                
ram:20001fe0    00000000        addr        00000000                                
ram:20001fe4    00000000        addr        00000000                                
ram:20001fe8    00000000        addr        00000000                                
ram:20001fec    00000000        addr        00000000                                
ram:20001ff0    00000000        addr        00000000                                
ram:20001ff4    00000000        addr        00000000                                
ram:20001ff8    00000000        addr        00000000                                
ram:20001ffc    00000000        addr        00000000                                
ram:20002000    00000000        addr        00000000                                
ram:20002004    00000000        addr        00000000                                
ram:20002008    00000000        addr        00000000                                
ram:2000200c    00000000        addr        00000000                                
ram:20002010    00000000        addr        00000000                                
ram:20002014    00000000        addr        00000000                                
ram:20002018    00000000        addr        00000000                                
ram:2000201c    00000000        addr        00000000                                
ram:20002020    00000000        addr        00000000                                
ram:20002024    00000000        addr        00000000                                
ram:20002028    00000000        addr        00000000                                
ram:2000202c    00000000        addr        00000000                                
ram:20002030    00000000        addr        00000000                                
ram:20002034    00000000        addr        00000000                                
ram:20002038    00000000        addr        00000000                                
ram:2000203c    00000000        addr        00000000                                
ram:20002040    00000000        addr        00000000                                
ram:20002044    00000000        addr        00000000                                
ram:20002048    00000000        addr        00000000                                
ram:2000204c    00000000        addr        00000000                                
ram:20002050    00000000        addr        00000000                                
ram:20002054    00000000        addr        00000000                                
ram:20002058    00000000        addr        00000000                                
ram:2000205c    00000000        addr        00000000                                
ram:20002060    00000000        addr        00000000                                
ram:20002064    00000000        addr        00000000                                
ram:20002068    00000000        addr        00000000                                
ram:2000206c    00000000        addr        00000000                                
ram:20002070    00000000        addr        00000000                                
ram:20002074    00000000        addr        00000000                                
ram:20002078    00000000        addr        00000000                                
ram:2000207c    00000000        addr        00000000                                
ram:20002080    00000000        addr        00000000                                
ram:20002084    00000000        addr        00000000                                
ram:20002088    00000000        addr        00000000                                
ram:2000208c    00000000        addr        00000000                                
ram:20002090    00000000        addr        00000000                                
ram:20002094    00000000        addr        00000000                                
ram:20002098    00000000        addr        00000000                                
ram:2000209c    00000000        addr        00000000                                
ram:200020a0    00000000        addr        00000000                                
ram:200020a4    dff80cd0        addr        DAT_d00cf8df                            
ram:200020a8    00f0ecf8        addr        DAT_f8ecf000                            
                            PTR_DAT_200020ac:             ;XREF[1,0]:   2000229c
ram:200020ac    00480047        addr        DAT_47004800                            
ram:200020b0    95c90700        addr        DAT_0007c995                            
ram:200020b4    b0540020        addr        LAB_200054ae+2                          
ram:200020b8    6ff00200        addr        DAT_0002f06f                            
ram:200020bc    704502d1        addr        DAT_d1024570                            
ram:200020c0    eff30981        addr        DAT_8109f3ef                            
ram:200020c4    01e0eff3        addr        DAT_f3efe001                            
ram:200020c8    08818869        addr        DAT_69888108                            
ram:200020cc    02380078        addr        DAT_78003802                            
ram:200020d0    004a1047        addr        DAT_47104a00                            
ram:200020d4    05a40700        addr        DAT_0007a405                            
                            PTR_DAT_200020d8:             ;XREF[1,0]:   20004a2e
ram:200020d8    401e00bf        addr        DAT_bf001e40                            
ram:200020dc    00bf00bf        addr        DAT_bf00bf00                            
ram:200020e0    00bf00bf        addr        DAT_bf00bf00                            
ram:200020e4    00bf00bf        addr        DAT_bf00bf00                            
ram:200020e8    00bf00bf        addr        DAT_bf00bf00                            
ram:200020ec    00bf00bf        addr        DAT_bf00bf00                            
ram:200020f0    00bf00bf        addr        DAT_bf00bf00                            
ram:200020f4    00bf00bf        addr        DAT_bf00bf00                            
ram:200020f8    00bf00bf        addr        DAT_bf00bf00                            
ram:200020fc    00bf00bf        addr        DAT_bf00bf00                            
ram:20002100    00bf00bf        addr        DAT_bf00bf00                            
ram:20002104    00bf00bf        addr        DAT_bf00bf00                            
ram:20002108    00bf00bf        addr        DAT_bf00bf00                            
ram:2000210c    00bf00bf        addr        DAT_bf00bf00                            
ram:20002110    00bf00bf        addr        DAT_bf00bf00                            
ram:20002114    00bf00bf        addr        DAT_bf00bf00                            
ram:20002118    00bf00bf        addr        DAT_bf00bf00                            
ram:2000211c    00bf00bf        addr        DAT_bf00bf00                            
ram:20002120    00bf00bf        addr        DAT_bf00bf00                            
ram:20002124    00bf00bf        addr        DAT_bf00bf00                            
ram:20002128    00bf00bf        addr        DAT_bf00bf00                            
ram:2000212c    00bf00bf        addr        DAT_bf00bf00                            
ram:20002130    00bf00bf        addr        DAT_bf00bf00                            
ram:20002134    00bf00bf        addr        DAT_bf00bf00                            
ram:20002138    00bf00bf        addr        DAT_bf00bf00                            
ram:2000213c    00bf00bf        addr        DAT_bf00bf00                            
ram:20002140    00bf00bf        addr        DAT_bf00bf00                            
ram:20002144    00bf00bf        addr        DAT_bf00bf00                            
ram:20002148    00bfc5d1        addr        DAT_d1c5bf00                            
ram:2000214c    70470000        addr        DAT_00004770                            
                            ;************************************************************************************************
                            ;*                                           FUNCTION                                           *
                            ;************************************************************************************************
                            ;undefined FUN_20002150(int param_1)
          ;param_1       int                 r0                      
                                                          ;XREF[5,0]:   200021c2,20003736,2000376e,20004fb8
                                                          ;             20004fc4
ram:20002150    401e            subs        param_1,param_1,#0x1                    
ram:20002152    00bf            nop                                                  
ram:20002154    00bf            nop                                                  
ram:20002156    00bf            nop                                                  
ram:20002158    00bf            nop                                                  
ram:2000215a    00bf            nop                                                  
ram:2000215c    00bf            nop                                                  
ram:2000215e    00bf            nop                                                  
ram:20002160    00bf            nop                                                  
ram:20002162    00bf            nop                                                  
ram:20002164    00bf            nop                                                  
ram:20002166    00bf            nop                                                  
ram:20002168    00bf            nop                                                  
ram:2000216a    00bf            nop                                                  
ram:2000216c    00bf            nop                                                  
ram:2000216e    00bf            nop                                                  
ram:20002170    00bf            nop                                                  
ram:20002172    00bf            nop                                                  
ram:20002174    00bf            nop                                                  
ram:20002176    00bf            nop                                                  
ram:20002178    00bf            nop                                                  
ram:2000217a    00bf            nop                                                  
ram:2000217c    00bf            nop                                                  
ram:2000217e    00bf            nop                                                  
ram:20002180    00bf            nop                                                  
ram:20002182    00bf            nop                                                  
ram:20002184    00bf            nop                                                  
ram:20002186    00bf            nop                                                  
ram:20002188    00bf            nop                                                  
ram:2000218a    00bf            nop                                                  
ram:2000218c    00bf            nop                                                  
ram:2000218e    00bf            nop                                                  
ram:20002190    00bf            nop                                                  
ram:20002192    00bf            nop                                                  
ram:20002194    00bf            nop                                                  
ram:20002196    00bf            nop                                                  
ram:20002198    00bf            nop                                                  
ram:2000219a    00bf            nop                                                  
ram:2000219c    00bf            nop                                                  
ram:2000219e    00bf            nop                                                  
ram:200021a0    00bf            nop                                                  
ram:200021a2    00bf            nop                                                  
ram:200021a4    00bf            nop                                                  
ram:200021a6    00bf            nop                                                  
ram:200021a8    00bf            nop                                                  
ram:200021aa    00bf            nop                                                  
ram:200021ac    00bf            nop                                                  
ram:200021ae    00bf            nop                                                  
ram:200021b0    00bf            nop                                                  
ram:200021b2    00bf            nop                                                  
ram:200021b4    00bf            nop                                                  
ram:200021b6    00bf            nop                                                  
ram:200021b8    00bf            nop                                                  
ram:200021ba    00bf            nop                                                  
ram:200021bc    00bf            nop                                                  
ram:200021be    00bf            nop                                                  
ram:200021c0    00bf            nop                                                  
ram:200021c2    c5d1            bne         FUN_20002150                            
ram:200021c4    7047            bx          lr                                      
ram:200021c6    0000            movs        r0,r0                                   
                            ;************************************************************************************************
                            ;*                                           FUNCTION                                           *
                            ;************************************************************************************************
                            ;undefined FUN_200021c8(undefined4 * param_1)
          ;param_1       undefined4 *        r0                      
                                                          ;XREF[1,0]:   200035c4
ram:200021c8    0568            ldr         r5,[param_1,#0x0]                       
ram:200021ca    85f30888        msr         msp,r5                                  
ram:200021ce    4068            ldr         param_1,[param_1,#0x4]                  
ram:200021d0    ff24            movs        r4,#0xff                                
ram:200021d2    64b2            sxtb        r4,r4                                   
ram:200021d4    eff30585        mrs         r5,ipsr                                 
ram:200021d8    002d            cmp         r5,#0x0                                 
ram:200021da    01d1            bne         LAB_200021e0                            
ram:200021dc    a646            mov         lr,r4                                   
ram:200021de    0047            bx          param_1                                 
                            LAB_200021e0:                 ;XREF[1,0]:   200021da
ram:200021e0    2546            mov         r5,r4                                   
ram:200021e2    0646            mov         r6,param_1                              
ram:200021e4    2127            movs        r7,#0x21                                
ram:200021e6    3fba            rev         r7,r7                                   
ram:200021e8    f0b4            push        {r4,r5,r6,r7}                           
ram:200021ea    0024            movs        r4,#0x0                                 
ram:200021ec    0025            movs        r5,#0x0                                 
ram:200021ee    0026            movs        r6,#0x0                                 
ram:200021f0    0027            movs        r7,#0x0                                 
ram:200021f2    f0b4            push        {r4,r5,r6,r7}                           
ram:200021f4    f920            movs        param_1,#0xf9                           
ram:200021f6    40b2            sxtb        param_1,param_1                         
ram:200021f8    0047            bx          param_1=>LAB_fffffff8                   
ram:200021fa    0000            movs        r0,r0                                   
ram:200021fc    0648            ldr         r0,[DAT_20002218]                       ;= 0007A511h
ram:200021fe    8047            blx         r0=>SUB_0007a510                        
ram:20002200    0648            ldr         r0,[DAT_2000221c]                       ;= 0007A201h
ram:20002202    0047            bx          r0=>LAB_0007a200                        
                            LAB_20002204:                 ;XREF[1,0]:   20002204
ram:20002204    fee7            b           LAB_20002204                            
                            LAB_20002206:                 ;XREF[1,0]:   20002206
ram:20002206    fee7            b           LAB_20002206                            
                            LAB_20002208:                 ;XREF[1,0]:   20002208
ram:20002208    fee7            b           LAB_20002208                            
                            LAB_2000220a:                 ;XREF[1,0]:   2000220a
ram:2000220a    fee7            b           LAB_2000220a                            
                            LAB_2000220c:                 ;XREF[1,0]:   2000220c
ram:2000220c    fee7            b           LAB_2000220c                            
                            LAB_2000220e:                 ;XREF[1,0]:   2000220e
ram:2000220e    fee7            b           LAB_2000220e                            
                            LAB_20002210:                 ;XREF[1,0]:   20002210
ram:20002210    fee7            b           LAB_20002210                            
                            LAB_20002212:                 ;XREF[1,0]:   20002212
ram:20002212    fee7            b           LAB_20002212                            
                            LAB_20002214:                 ;XREF[1,0]:   20002214
ram:20002214    fee7            b           LAB_20002214                            
                            LAB_20002216:                 ;XREF[1,0]:   20002216
ram:20002216    fee7            b           LAB_20002216                            
                            DAT_20002218:                 ;XREF[1,0]:   200021fc
ram:20002218    11a50700        undefined4  0007A511h                               
                            DAT_2000221c:                 ;XREF[1,0]:   20002200
ram:2000221c    01a20700        undefined4  0007A201h                               
                            ;************************************************************************************************
                            ;*                                           FUNCTION                                           *
                            ;************************************************************************************************
                            ;undefined FUN_20002220(undefined4 * param_1, undefined4 * param_2, uint param_3)
          ;param_1       undefined4 *        r0                      
          ;param_2       undefined4 *        r1                      
          ;param_3       uint                r2                      
                                                          ;XREF[13,0]:  200022e4,20002a1e,20002bcc,20002ee2
                                                          ;             20003a28,20003aaa,20003d92,20003df0
                                                          ;             20004970,20004b80,20004b8a,20004bac
                                                          ;             20005166
ram:20002220    40ea0103        orr.w       r3,param_1,param_2                      
ram:20002224    9b07            lsls        r3,r3,#0x1e                             
ram:20002226    03d0            beq         LAB_20002230                            
ram:20002228    09e0            b           LAB_2000223e                            
                            LAB_2000222a:                 ;XREF[1,0]:   20002232
ram:2000222a    08c9            ldmia       param_2!,{r3}                           
ram:2000222c    121f            subs        param_3,param_3,#0x4                    
ram:2000222e    08c0            stmia       param_1!,{r3}                           
                            LAB_20002230:                 ;XREF[1,0]:   20002226
ram:20002230    042a            cmp         param_3,#0x4                            
ram:20002232    fad2            bcs         LAB_2000222a                            
ram:20002234    03e0            b           LAB_2000223e                            
                            LAB_20002236:                 ;XREF[1,0]:   20002240
ram:20002236    11f8013b        ldrb.w      r3,[param_2],#0x1                       
ram:2000223a    00f8013b        strb.w      r3,[param_1],#0x1                       
                            LAB_2000223e:                 ;XREF[2,0]:   20002228,20002234
ram:2000223e    521e            subs        param_3,param_3,#0x1                    
ram:20002240    f9d2            bcs         LAB_20002236                            
ram:20002242    7047            bx          lr                                      
                            ;************************************************************************************************
                            ;*                                           FUNCTION                                           *
                            ;************************************************************************************************
                            ;undefined FUN_20002244(undefined * param_1, int param_2, undefined param_3)
          ;param_1       undefined *         r0                      
          ;param_2       int                 r1                      
          ;param_3       undefined           r2                      
                                                          ;XREF[2,0]:   20002254,20002260
ram:20002244    d2b2            uxtb        param_3,param_3                         
ram:20002246    01e0            b           LAB_2000224c                            
                            LAB_20002248:                 ;XREF[1,0]:   2000224e
ram:20002248    00f8012b        strb.w      param_3,[param_1],#0x1                  
                            LAB_2000224c:                 ;XREF[1,0]:   20002246
ram:2000224c    491e            subs        param_2,param_2,#0x1                    
ram:2000224e    fbd2            bcs         LAB_20002248                            
ram:20002250    7047            bx          lr                                      
                            ;************************************************************************************************
                            ;*                                           FUNCTION                                           *
                            ;************************************************************************************************
                            ;undefined FUN_20002252(undefined * param_1, int param_2)
          ;param_1       undefined *         r0                      
          ;param_2       int                 r1                      
                                                          ;XREF[10,0]:  20002906,2000294e,200038e4,20003b00
                                                          ;             20003b66,20003e56,20003ebc,20003f70
                                                          ;             20003fd6,20004300
ram:20002252    0022            movs        r2,#0x0                                 
ram:20002254    f6e7            b           FUN_20002244                            ;undefined FUN_20002244(undefined * p...
                            ;************************************************************************************************
                            ;*                                           FUNCTION                                           *
                            ;************************************************************************************************
                            ;undefined * FUN_20002256(undefined * param_1, undefined param_2, int param_3)
          ;param_1       undefined *         r0                      
          ;param_2       undefined           r1                      
          ;param_3       int                 r2                      
ram:20002256    10b5            push        {r4,lr}                                 
ram:20002258    1346            mov         r3,param_3                              
ram:2000225a    0a46            mov         param_3,param_2                         
ram:2000225c    0446            mov         r4,param_1                              
ram:2000225e    1946            mov         param_2,r3                              
ram:20002260    fff7f0ff        bl          FUN_20002244                            ;undefined FUN_20002244(undefined * p...
ram:20002264    2046            mov         param_1,r4                              
ram:20002266    10bd            pop         {r4,pc}                                 
                            ;************************************************************************************************
                            ;*                                           FUNCTION                                           *
                            ;************************************************************************************************
                            ;undefined FUN_20002268(int param_1, int param_2, uint param_3)
          ;param_1       int                 r0                      
          ;param_2       int                 r1                      
          ;param_3       uint                r2                      
                                                          ;XREF[1,0]:   20002974
ram:20002268    30b5            push        {r4,r5,lr}                              
ram:2000226a    0446            mov         r4,param_1                              
ram:2000226c    0020            movs        param_1,#0x0                            
ram:2000226e    0346            mov         r3,param_1                              
ram:20002270    00e0            b           LAB_20002274                            
                            LAB_20002272:                 ;XREF[1,0]:   2000227e
ram:20002272    5b1c            adds        r3,r3,#0x1                              
                            LAB_20002274:                 ;XREF[1,0]:   20002270
ram:20002274    9342            cmp         r3,param_3                              
ram:20002276    03d2            bcs         LAB_20002280                            
ram:20002278    e05c            ldrb        param_1,[r4,r3]                         
ram:2000227a    cd5c            ldrb        r5,[param_2,r3]                         
ram:2000227c    401b            subs        param_1,param_1,r5                      
ram:2000227e    f8d0            beq         LAB_20002272                            
                            LAB_20002280:                 ;XREF[1,0]:   20002276
ram:20002280    30bd            pop         {r4,r5,pc}                              
ram:20002282    0000            movs        r0,r0                                   
ram:20002284    064c            ldr         r4,[LAB_200022a0]                       
ram:20002286    074d            ldr         r5,[LAB_200022a4]                       
ram:20002288    06e0            b           LAB_20002298                            
                            ;************************************************************************************************
                            ;*                                           FUNCTION                                           *
                            ;************************************************************************************************
                            ;undefined FUN_2000228a(void)
                                                          ;XREF[1,0]:   2000229a
ram:2000228a    e068            ldr         r0,[r4,#0xc]=>DAT_0007d83c              
ram:2000228c    40f00103        orr         r3,r0,#0x1                              
                                                          ; FWD[3,0]:   0007d830,0007d834,0007d838
ram:20002290    94e80700        ldm.w       r4=>DAT_0007d830,{r0,r1,r2}=>DAT_0007...
ram:20002294    9847            blx         r3                                      
ram:20002296    1034            adds        r4,#0x10                                
                            LAB_20002298:                 ;XREF[1,0]:   20002288
ram:20002298    ac42            cmp         r4,r5                                   
ram:2000229a    f6d3            bcc         FUN_2000228a                            
ram:2000229c    fff706ff        bl          PTR_DAT_200020ac                        
                            LAB_200022a0:                 ;XREF[1,0]:   20002284
ram:200022a0    30d8            bhi         FUN_20002304                            
ram:200022a2    0700            movs        r7,r0                                   
                            LAB_200022a4:                 ;XREF[1,0]:   20002286
ram:200022a4    50d8            bhi         LAB_20002348                            
ram:200022a6    0700            movs        r7,r0                                   
ram:200022a8    10b5            push        {r4,lr}                                 
ram:200022aa    0c46            mov         r4,r1                                   
ram:200022ac    10b1            cbz         r0,LAB_200022b4                         
ram:200022ae    0120            movs        r0,#0x1                                 
ram:200022b0    0860            str         r0,[r1,#0x0]                            
ram:200022b2    10bd            pop         {r4,pc}                                 
                            LAB_200022b4:                 ;XREF[1,0]:   200022ac
ram:200022b4    2168            ldr         r1,[r4,#0x0]                            
ram:200022b6    91b1            cbz         r1,LAB_200022de                         
ram:200022b8    1148            ldr         r0,[DAT_20002300]                       ;= 2000FF82h
ram:200022ba    421a            subs        r2,r0,r1                                
ram:200022bc    8142            cmp         r1,r0                                   
ram:200022be    13d0            beq         LAB_200022e8                            
ram:200022c0    3c2a            cmp         r2,#0x3c                                
ram:200022c2    0ed2            bcs         LAB_200022e2                            
ram:200022c4    0122            movs        r2,#0x1                                 
ram:200022c6    3c30            adds        r0,#0x3c                                
ram:200022c8    11f13c01        adds.w      r1,r1,#0x3c                             
                            LAB_200022cc:                 ;XREF[1,0]:   200022da
ram:200022cc    11f80139        ldrb.w      r3,[r1],#-0x1                           
                                                          ; FWD[2,0]:   2000ffbd,2000ffbe
ram:200022d0    00f80139        strb.w      r3,[r0],#-0x1=>DAT_2000ffbe             
ram:200022d4    1346            mov         r3,r2                                   
ram:200022d6    521c            adds        r2,r2,#0x1                              
ram:200022d8    3c2b            cmp         r3,#0x3c                                
ram:200022da    f7d9            bls         LAB_200022cc                            
ram:200022dc    04e0            b           LAB_200022e8                            
                            LAB_200022de:                 ;XREF[1,0]:   200022b6
ram:200022de    0e20            movs        r0,#0xe                                 
ram:200022e0    0be0            b           LAB_200022fa                            
                            LAB_200022e2:                 ;XREF[1,0]:   200022c2
ram:200022e2    3c22            movs        r2,#0x3c                                
ram:200022e4    fff79cff        bl          FUN_20002220                            ;undefined FUN_20002220(undefined4 * ...
                            LAB_200022e8:                 ;XREF[2,0]:   200022be,200022dc
ram:200022e8    0022            movs        r2,#0x0                                 
ram:200022ea    3c21            movs        r1,#0x3c                                
ram:200022ec    0448            ldr         r0,[DAT_20002300]                       ;= 2000FF82h
ram:200022ee    01f0c7fa        bl          FUN_20003880                            ;uint FUN_20003880(int param_1, uint ...
ram:200022f2    0349            ldr         r1,[DAT_20002300]                       ;= 2000FF82h
ram:200022f4    891e            subs        r1,r1,#0x2                              
ram:200022f6    0880            strh        r0,[r1,#0x0]=>DAT_2000ff80              
ram:200022f8    0020            movs        r0,#0x0                                 
                            LAB_200022fa:                 ;XREF[1,0]:   200022e0
ram:200022fa    2060            str         r0,[r4,#0x0]                            
ram:200022fc    10bd            pop         {r4,pc}                                 
ram:200022fe    0000            movs        r0,r0                                   
                            DAT_20002300:                 ;XREF[3,0]:   200022b8,200022ec,200022f2
ram:20002300    82ff0020        undefined4  2000FF82h                               
                            ;************************************************************************************************
                            ;*                                           FUNCTION                                           *
                            ;************************************************************************************************
                            ;undefined FUN_20002304(uint param_1)
          ;param_1       uint                r0                      
                                                          ;XREF[2,0]:   200022a0,20003722
ram:20002304    00f01f02        and         r2,param_1,#0x1f                        
ram:20002308    0121            movs        r1,#0x1                                 
ram:2000230a    9140            lsls        r1,r2                                   
ram:2000230c    4009            lsrs        param_1,param_1,#0x5                    
ram:2000230e    8000            lsls        param_1,param_1,#0x2                    
ram:20002310    00f1e020        add.w       param_1,param_1,#0xe000e000             
ram:20002314    c0f88012        str.w       r1,[param_1,#0x280]                     
ram:20002318    7047            bx          lr                                      
                            ;************************************************************************************************
                            ;*                                           FUNCTION                                           *
                            ;************************************************************************************************
                            ;undefined FUN_2000231a(uint param_1)
          ;param_1       uint                r0                      
                                                          ;XREF[1,0]:   20003728
ram:2000231a    00f01f02        and         r2,param_1,#0x1f                        
ram:2000231e    0121            movs        r1,#0x1                                 
ram:20002320    9140            lsls        r1,r2                                   
ram:20002322    4009            lsrs        param_1,param_1,#0x5                    
ram:20002324    8000            lsls        param_1,param_1,#0x2                    
ram:20002326    00f1e020        add.w       param_1,param_1,#0xe000e000             
ram:2000232a    c0f80011        str.w       r1,[param_1,#0x100]=>DAT_e000e100       
ram:2000232e    7047            bx          lr                                      
                            ;************************************************************************************************
                            ;*                                           FUNCTION                                           *
                            ;************************************************************************************************
                            ;undefined FUN_20002330(uint param_1)
          ;param_1       uint                r0                      
                                                          ;XREF[4,0]:   20002d86,20002de0,2000377c,20005408
ram:20002330    00f01f02        and         r2,param_1,#0x1f                        
ram:20002334    0121            movs        r1,#0x1                                 
ram:20002336    9140            lsls        r1,r2                                   
ram:20002338    4009            lsrs        param_1,param_1,#0x5                    
ram:2000233a    8000            lsls        param_1,param_1,#0x2                    
ram:2000233c    00f1e020        add.w       param_1,param_1,#0xe000e000             
ram:20002340    c0f80012        str.w       r1,[param_1,#0x200]                     
ram:20002344    7047            bx          lr                                      
ram:20002346    4907            lsls        r1,r1,#0x1d                             
                            LAB_20002348:                 ;XREF[1,0]:   200022a4
ram:20002348    090e            lsrs        r1,r1,#0x18                             
ram:2000234a    0028            cmp         r0,#0x0                                 
ram:2000234c    06da            bge         LAB_2000235c                            
ram:2000234e    00f00f00        and         r0,r0,#0xf                              
ram:20002352    00f1e020        add.w       r0,r0,#0xe000e000                       
ram:20002356    80f8141d        strb.w      r1,[r0,#0xd14]                          
ram:2000235a    7047            bx          lr                                      
                            LAB_2000235c:                 ;XREF[1,0]:   2000234c
ram:2000235c    00f1e020        add.w       r0,r0,#0xe000e000                       
ram:20002360    80f80014        strb.w      r1,[r0,#0x400]                          
ram:20002364    7047            bx          lr                                      
ram:20002366    0000            movs        r0,r0                                   
ram:20002368    0748            ldr         r0,[DAT_20002388]                       ;= 40011000h
ram:2000236a    0021            movs        r1,#0x0                                 
ram:2000236c    c0f84011        str.w       r1,[r0,#0x140]=>DAT_40011140            
ram:20002370    c0f84411        str.w       r1,[r0,#0x144]=>DAT_40011144            
ram:20002374    c0f84811        str.w       r1,[r0,#0x148]=>DAT_40011148            
ram:20002378    c0f84c11        str.w       r1,[r0,#0x14c]=>DAT_4001114c            
ram:2000237c    c0f80011        str.w       r1,[r0,#0x100]=>DAT_40011100            
ram:20002380    c0f80411        str.w       r1,[r0,#0x104]=>DAT_40011104            
ram:20002384    03f006b8        b.w         FUN_20005394                            ;undefined FUN_20005394(void)
                            DAT_20002388:                 ;XREF[1,0]:   20002368
ram:20002388    00100140        undefined4  40011000h                               
ram:2000238c    02              ??          02h                                     
ram:2000238d    f0              ??          F0h                                     
ram:2000238e    9e              ??          9Eh                                     
ram:2000238f    bf              ??          BFh                                     
ram:20002390    07              ??          07h                                     
ram:20002391    48              ??          48h    H                                
ram:20002392    10              ??          10h                                     
ram:20002393    b5              ??          B5h                                     
ram:20002394    40              ??          40h    @                                
ram:20002395    68              ??          68h    h                                
ram:20002396    30              ??          30h    0                                
ram:20002397    b1              ??          B1h                                     
ram:20002398    80              ??          80h                                     
ram:20002399    47              ??          47h    G                                
ram:2000239a    00              ??          00h                                     
ram:2000239b    28              ??          28h    (                                
ram:2000239c    07              ??          07h                                     
ram:2000239d    d0              ??          D0h                                     
ram:2000239e    bd              ??          BDh                                     
ram:2000239f    e8              ??          E8h                                     
ram:200023a0    10              ??          10h                                     
ram:200023a1    40              ??          40h    @                                
ram:200023a2    00              ??          00h                                     
ram:200023a3    f0              ??          F0h                                     
ram:200023a4    97              ??          97h                                     
ram:200023a5    bb              ??          BBh                                     
ram:200023a6    bd              ??          BDh                                     
ram:200023a7    e8              ??          E8h                                     
ram:200023a8    10              ??          10h                                     
ram:200023a9    40              ??          40h    @                                
ram:200023aa    02              ??          02h                                     
ram:200023ab    f0              ??          F0h                                     
ram:200023ac    03              ??          03h                                     
ram:200023ad    b9              ??          B9h                                     
ram:200023ae    10              ??          10h                                     
ram:200023af    bd              ??          BDh                                     
ram:200023b0    c0              ??          C0h                                     ;?  ->  20002cc0
ram:200023b1    2c              ??          2Ch    ,                                
ram:200023b2    00              ??          00h                                     
ram:200023b3    20              ??          20h                                     
ram:200023b4    f0              ??          F0h                                     
ram:200023b5    b5              ??          B5h                                     
ram:200023b6    ab              ??          ABh                                     
ram:200023b7    48              ??          48h    H                                
ram:200023b8    00              ??          00h                                     
ram:200023b9    23              ??          23h    #                                
ram:200023ba    02              ??          02h                                     
ram:200023bb    1d              ??          1Dh                                     
ram:200023bc    01              ??          01h                                     
ram:200023bd    78              ??          78h    x                                
ram:200023be    01              ??          01h                                     
ram:200023bf    24              ??          24h    $                                
ram:200023c0    10              ??          10h                                     
ram:200023c1    1d              ??          1Dh                                     
ram:200023c2    4f              ??          4Fh    O                                
ram:200023c3    f0              ??          F0h                                     
ram:200023c4    80              ??          80h                                     
ram:200023c5    55              ??          55h    U                                
ram:200023c6    06              ??          06h                                     
ram:200023c7    29              ??          29h    )                                
ram:200023c8    0b              ??          0Bh                                     
ram:200023c9    d1              ??          D1h                                     
ram:200023ca    16              ??          16h                                     
ram:200023cb    78              ??          78h    x                                
ram:200023cc    36              ??          36h    6                                
ram:200023cd    07              ??          07h                                     
ram:200023ce    08              ??          08h                                     
ram:200023cf    d1              ??          D1h                                     
ram:200023d0    06              ??          06h                                     
ram:200023d1    78              ??          78h    x                                
ram:200023d2    c6              ??          C6h                                     
ram:200023d3    f3              ??          F3h                                     
ram:200023d4    03              ??          03h                                     
ram:200023d5    16              ??          16h                                     
ram:200023d6    03              ??          03h                                     
ram:200023d7    2e              ??          2Eh    .                                
ram:200023d8    06              ??          06h                                     
ram:200023d9    d0              ??          D0h                                     
ram:200023da    04              ??          04h                                     
ram:200023db    2e              ??          2Eh    .                                
ram:200023dc    04              ??          04h                                     
ram:200023dd    d0              ??          D0h                                     
ram:200023de    05              ??          05h                                     
ram:200023df    2e              ??          2Eh    .                                
ram:200023e0    02              ??          02h                                     
ram:200023e1    d0              ??          D0h                                     
ram:200023e2    06              ??          06h                                     
ram:200023e3    29              ??          29h    )                                
ram:200023e4    07              ??          07h                                     
ram:200023e5    d0              ??          D0h                                     
ram:200023e6    0e              ??          0Eh                                     
ram:200023e7    e0              ??          E0h                                     
ram:200023e8    b5              ??          B5h                                     
ram:200023e9    f8              ??          F8h                                     
ram:200023ea    24              ??          24h    $                                
ram:200023eb    63              ??          63h    c                                
ram:200023ec    9e              ??          9Eh                                     
ram:200023ed    4f              ??          4Fh    O                                
ram:200023ee    c6              ??          C6h                                     
ram:200023ef    f3              ??          F3h                                     
ram:200023f0    04              ??          04h                                     
ram:200023f1    26              ??          26h    &                                
ram:200023f2    3e              ??          3Eh    >                                
ram:200023f3    60              ??          60h    `                                
ram:200023f4    02              ??          02h                                     
ram:200023f5    e0              ??          E0h                                     
ram:200023f6    16              ??          16h                                     
ram:200023f7    78              ??          78h    x                                
ram:200023f8    36              ??          36h    6                                
ram:200023f9    07              ??          07h                                     
ram:200023fa    04              ??          04h                                     
ram:200023fb    d1              ??          D1h                                     
ram:200023fc    06              ??          06h                                     
ram:200023fd    78              ??          78h    x                                
ram:200023fe    c6              ??          C6h                                     
ram:200023ff    f3              ??          F3h                                     
ram:20002400    03              ??          03h                                     
ram:20002401    16              ??          16h                                     
ram:20002402    03              ??          03h                                     
ram:20002403    2e              ??          2Eh    .                                
ram:20002404    02              ??          02h                                     
ram:20002405    d0              ??          D0h                                     
ram:20002406    06              ??          06h                                     
ram:20002407    29              ??          29h    )                                
ram:20002408    04              ??          04h                                     
ram:20002409    d0              ??          D0h                                     
ram:2000240a    0f              ??          0Fh                                     
ram:2000240b    e0              ??          E0h                                     
ram:2000240c    98              ??          98h                                     
ram:2000240d    4f              ??          4Fh    O                                
ram:2000240e    97              ??          97h                                     
ram:2000240f    4e              ??          4Eh    N                                
ram:20002410    7e              ??          7Eh    ~                                
ram:20002411    67              ??          67h    g                                
ram:20002412    0e              ??          0Eh                                     
ram:20002413    e0              ??          E0h                                     
ram:20002414    16              ??          16h                                     
ram:20002415    78              ??          78h    x                                
ram:20002416    36              ??          36h    6                                
ram:20002417    07              ??          07h                                     
ram:20002418    08              ??          08h                                     
ram:20002419    d1              ??          D1h                                     
ram:2000241a    06              ??          06h                                     
ram:2000241b    78              ??          78h    x                                
ram:2000241c    c6              ??          C6h                                     
ram:2000241d    f3              ??          F3h                                     
ram:2000241e    03              ??          03h                                     
ram:2000241f    16              ??          16h                                     
ram:20002420    03              ??          03h                                     
ram:20002421    2e              ??          2Eh    .                                
ram:20002422    06              ??          06h                                     
ram:20002423    d0              ??          D0h                                     
ram:20002424    04              ??          04h                                     
ram:20002425    2e              ??          2Eh    .                                
ram:20002426    04              ??          04h                                     
ram:20002427    d0              ??          D0h                                     
ram:20002428    05              ??          05h                                     
ram:20002429    2e              ??          2Eh    .                                
ram:2000242a    02              ??          02h                                     
ram:2000242b    d0              ??          D0h                                     
ram:2000242c    06              ??          06h                                     
ram:2000242d    29              ??          29h    )                                
ram:2000242e    07              ??          07h                                     
ram:2000242f    d0              ??          D0h                                     
ram:20002430    0e              ??          0Eh                                     
ram:20002431    e0              ??          E0h                                     
ram:20002432    d5              ??          D5h                                     
ram:20002433    f8              ??          F8h                                     
ram:20002434    44              ??          44h    D                                
ram:20002435    62              ??          62h    b                                
ram:20002436    8f              ??          8Fh                                     
ram:20002437    4f              ??          4Fh    O                                
ram:20002438    c6              ??          C6h                                     
ram:20002439    f3              ??          F3h                                     
ram:2000243a    42              ??          42h    B                                
ram:2000243b    36              ??          36h    6                                
ram:2000243c    3e              ??          3Eh    >                                
ram:2000243d    60              ??          60h    `                                
ram:2000243e    02              ??          02h                                     
ram:2000243f    e0              ??          E0h                                     
ram:20002440    16              ??          16h                                     
ram:20002441    78              ??          78h    x                                
ram:20002442    36              ??          36h    6                                
ram:20002443    07              ??          07h                                     
ram:20002444    04              ??          04h                                     
ram:20002445    d1              ??          D1h                                     
ram:20002446    06              ??          06h                                     
ram:20002447    78              ??          78h    x                                
ram:20002448    c6              ??          C6h                                     
ram:20002449    f3              ??          F3h                                     
ram:2000244a    03              ??          03h                                     
ram:2000244b    16              ??          16h                                     
ram:2000244c    03              ??          03h                                     
ram:2000244d    2e              ??          2Eh    .                                
ram:2000244e    02              ??          02h                                     
ram:2000244f    d0              ??          D0h                                     
ram:20002450    06              ??          06h                                     
ram:20002451    29              ??          29h    )                                
ram:20002452    06              ??          06h                                     
ram:20002453    d0              ??          D0h                                     
ram:20002454    11              ??          11h                                     
ram:20002455    e0              ??          E0h                                     
ram:20002456    88              ??          88h                                     
ram:20002457    4e              ??          4Eh    N                                
ram:20002458    37              ??          37h    7                                
ram:20002459    68              ??          68h    h                                
ram:2000245a    27              ??          27h    '                                
ram:2000245b    f0              ??          F0h                                     
ram:2000245c    80              ??          80h                                     
ram:2000245d    77              ??          77h    w                                
ram:2000245e    37              ??          37h    7                                
ram:2000245f    60              ??          60h    `                                
ram:20002460    0e              ??          0Eh                                     
ram:20002461    e0              ??          E0h                                     
ram:20002462    16              ??          16h                                     
ram:20002463    78              ??          78h    x                                
ram:20002464    36              ??          36h    6                                
ram:20002465    07              ??          07h                                     
ram:20002466    08              ??          08h                                     
ram:20002467    d1              ??          D1h                                     
ram:20002468    06              ??          06h                                     
ram:20002469    78              ??          78h    x                                
ram:2000246a    c6              ??          C6h                                     
ram:2000246b    f3              ??          F3h                                     
ram:2000246c    03              ??          03h                                     
ram:2000246d    16              ??          16h                                     
ram:2000246e    03              ??          03h                                     
ram:2000246f    2e              ??          2Eh    .                                
ram:20002470    06              ??          06h                                     
ram:20002471    d0              ??          D0h                                     
ram:20002472    04              ??          04h                                     
ram:20002473    2e              ??          2Eh    .                                
ram:20002474    04              ??          04h                                     
ram:20002475    d0              ??          D0h                                     
ram:20002476    05              ??          05h                                     
ram:20002477    2e              ??          2Eh    .                                
ram:20002478    02              ??          02h                                     
ram:20002479    d0              ??          D0h                                     
ram:2000247a    06              ??          06h                                     
ram:2000247b    29              ??          29h    )                                
ram:2000247c    0a              ??          0Ah                                     
ram:2000247d    d0              ??          D0h                                     
ram:2000247e    11              ??          11h                                     
ram:2000247f    e0              ??          E0h                                     
ram:20002480    4f              ??          4Fh    O                                
ram:20002481    f0              ??          F0h                                     
ram:20002482    80              ??          80h                                     
ram:20002483    46              ??          46h    F                                
ram:20002484    c6              ??          C6h                                     
ram:20002485    f8              ??          F8h                                     
ram:20002486    0c              ??          0Ch                                     
ram:20002487    31              ??          31h    1                                
ram:20002488    c6              ??          C6h                                     
ram:20002489    f8              ??          F8h                                     
ram:2000248a    10              ??          10h                                     
ram:2000248b    31              ??          31h    1                                
ram:2000248c    79              ??          79h    y                                
ram:2000248d    4e              ??          4Eh    N                                
ram:2000248e    36              ??          36h    6                                
ram:2000248f    1f              ??          1Fh                                     
ram:20002490    33              ??          33h    3                                
ram:20002491    60              ??          60h    `                                
ram:20002492    02              ??          02h                                     
ram:20002493    e0              ??          E0h                                     
ram:20002494    16              ??          16h                                     
ram:20002495    78              ??          78h    x                                
ram:20002496    36              ??          36h    6                                
ram:20002497    07              ??          07h                                     
ram:20002498    04              ??          04h                                     
ram:20002499    d1              ??          D1h                                     
ram:2000249a    06              ??          06h                                     
ram:2000249b    78              ??          78h    x                                
ram:2000249c    c6              ??          C6h                                     
ram:2000249d    f3              ??          F3h                                     
ram:2000249e    03              ??          03h                                     
ram:2000249f    16              ??          16h                                     
ram:200024a0    03              ??          03h                                     
ram:200024a1    2e              ??          2Eh    .                                
ram:200024a2    02              ??          02h                                     
ram:200024a3    d0              ??          D0h                                     
ram:200024a4    06              ??          06h                                     
ram:200024a5    29              ??          29h    )                                
ram:200024a6    05              ??          05h                                     
ram:200024a7    d0              ??          D0h                                     
ram:200024a8    0c              ??          0Ch                                     
ram:200024a9    e0              ??          E0h                                     
ram:200024aa    72              ??          72h    r                                
ram:200024ab    4f              ??          4Fh    O                                
ram:200024ac    03              ??          03h                                     
ram:200024ad    26              ??          26h    &                                
ram:200024ae    64              ??          64h    d                                
ram:200024af    37              ??          37h    7                                
ram:200024b0    3e              ??          3Eh    >                                
ram:200024b1    60              ??          60h    `                                
ram:200024b2    0a              ??          0Ah                                     
ram:200024b3    e0              ??          E0h                                     
ram:200024b4    16              ??          16h                                     
ram:200024b5    78              ??          78h    x                                
ram:200024b6    36              ??          36h    6                                
ram:200024b7    07              ??          07h                                     
ram:200024b8    04              ??          04h                                     
ram:200024b9    d1              ??          D1h                                     
ram:200024ba    06              ??          06h                                     
ram:200024bb    78              ??          78h    x                                
ram:200024bc    c6              ??          C6h                                     
ram:200024bd    f3              ??          F3h                                     
ram:200024be    03              ??          03h                                     
ram:200024bf    16              ??          16h                                     
ram:200024c0    03              ??          03h                                     
ram:200024c1    2e              ??          2Eh    .                                
ram:200024c2    02              ??          02h                                     
ram:200024c3    d0              ??          D0h                                     
ram:200024c4    06              ??          06h                                     
ram:200024c5    29              ??          29h    )                                
ram:200024c6    0d              ??          0Dh                                     
ram:200024c7    d0              ??          D0h                                     
ram:200024c8    14              ??          14h                                     
ram:200024c9    e0              ??          E0h                                     
ram:200024ca    6c              ??          6Ch    l                                
ram:200024cb    4f              ??          4Fh    O                                
ram:200024cc    05              ??          05h                                     
ram:200024cd    26              ??          26h    &                                
ram:200024ce    3e              ??          3Eh    >                                
ram:200024cf    60              ??          60h    `                                
ram:200024d0    6a              ??          6Ah    j                                
ram:200024d1    4e              ??          4Eh    N                                
ram:200024d2    78              ??          78h    x                                
ram:200024d3    36              ??          36h    6                                
ram:200024d4    34              ??          34h    4                                
ram:200024d5    60              ??          60h    `                                
ram:200024d6    69              ??          69h    i                                
ram:200024d7    4e              ??          4Eh    N                                
ram:200024d8    08              ??          08h                                     
ram:200024d9    36              ??          36h    6                                
ram:200024da    33              ??          33h    3                                
ram:200024db    60              ??          60h    `                                
ram:200024dc    3f              ??          3Fh    ?                                
ram:200024dd    26              ??          26h    &                                
ram:200024de    3f              ??          3Fh    ?                                
ram:200024df    1d              ??          1Dh                                     
ram:200024e0    3e              ??          3Eh    >                                
ram:200024e1    60              ??          60h    `                                
ram:200024e2    02              ??          02h                                     
ram:200024e3    e0              ??          E0h                                     
ram:200024e4    16              ??          16h                                     
ram:200024e5    78              ??          78h    x                                
ram:200024e6    36              ??          36h    6                                
ram:200024e7    07              ??          07h                                     
ram:200024e8    04              ??          04h                                     
ram:200024e9    d1              ??          D1h                                     
ram:200024ea    06              ??          06h                                     
ram:200024eb    78              ??          78h    x                                
ram:200024ec    c6              ??          C6h                                     
ram:200024ed    f3              ??          F3h                                     
ram:200024ee    03              ??          03h                                     
ram:200024ef    16              ??          16h                                     
ram:200024f0    05              ??          05h                                     
ram:200024f1    2e              ??          2Eh    .                                
ram:200024f2    02              ??          02h                                     
ram:200024f3    d0              ??          D0h                                     
ram:200024f4    06              ??          06h                                     
ram:200024f5    29              ??          29h    )                                
ram:200024f6    57              ??          57h    W                                
ram:200024f7    d0              ??          D0h                                     
ram:200024f8    62              ??          62h    b                                
ram:200024f9    e0              ??          E0h                                     
ram:200024fa    61              ??          61h    a                                
ram:200024fb    4e              ??          4Eh    N                                
ram:200024fc    36              ??          36h    6                                
ram:200024fd    68              ??          68h    h                                
ram:200024fe    61              ??          61h    a                                
ram:200024ff    4f              ??          4Fh    O                                
ram:20002500    3e              ??          3Eh    >                                
ram:20002501    60              ??          60h    `                                
ram:20002502    5f              ??          5Fh    _                                
ram:20002503    4e              ??          4Eh    N                                
ram:20002504    36              ??          36h    6                                
ram:20002505    1d              ??          1Dh                                     
ram:20002506    36              ??          36h    6                                
ram:20002507    68              ??          68h    h                                
ram:20002508    3f              ??          3Fh    ?                                
ram:20002509    1d              ??          1Dh                                     
ram:2000250a    3e              ??          3Eh    >                                
ram:2000250b    60              ??          60h    `                                
ram:2000250c    5c              ??          5Ch    \                                
ram:2000250d    4e              ??          4Eh    N                                
ram:2000250e    08              ??          08h                                     
ram:2000250f    36              ??          36h    6                                
ram:20002510    36              ??          36h    6                                
ram:20002511    68              ??          68h    h                                
ram:20002512    3f              ??          3Fh    ?                                
ram:20002513    1d              ??          1Dh                                     
ram:20002514    3e              ??          3Eh    >                                
ram:20002515    60              ??          60h    `                                
ram:20002516    5a              ??          5Ah    Z                                
ram:20002517    4e              ??          4Eh    N                                
ram:20002518    0c              ??          0Ch                                     
ram:20002519    36              ??          36h    6                                
ram:2000251a    36              ??          36h    6                                
ram:2000251b    68              ??          68h    h                                
ram:2000251c    3f              ??          3Fh    ?                                
ram:2000251d    1d              ??          1Dh                                     
ram:2000251e    3e              ??          3Eh    >                                
ram:2000251f    60              ??          60h    `                                
ram:20002520    57              ??          57h    W                                
ram:20002521    4e              ??          4Eh    N                                
ram:20002522    10              ??          10h                                     
ram:20002523    36              ??          36h    6                                
ram:20002524    36              ??          36h    6                                
ram:20002525    68              ??          68h    h                                
ram:20002526    3f              ??          3Fh    ?                                
ram:20002527    1d              ??          1Dh                                     
ram:20002528    3e              ??          3Eh    >                                
ram:20002529    60              ??          60h    `                                
ram:2000252a    55              ??          55h    U                                
ram:2000252b    4e              ??          4Eh    N                                
ram:2000252c    14              ??          14h                                     
ram:2000252d    36              ??          36h    6                                
ram:2000252e    36              ??          36h    6                                
ram:2000252f    68              ??          68h    h                                
ram:20002530    3f              ??          3Fh    ?                                
ram:20002531    1d              ??          1Dh                                     
ram:20002532    3e              ??          3Eh    >                                
ram:20002533    60              ??          60h    `                                
ram:20002534    52              ??          52h    R                                
ram:20002535    4e              ??          4Eh    N                                
ram:20002536    18              ??          18h                                     
ram:20002537    36              ??          36h    6                                
ram:20002538    36              ??          36h    6                                
ram:20002539    68              ??          68h    h                                
ram:2000253a    52              ??          52h    R                                
ram:2000253b    4f              ??          4Fh    O                                
ram:2000253c    20              ??          20h                                     
ram:2000253d    37              ??          37h    7                                
ram:2000253e    3e              ??          3Eh    >                                
ram:2000253f    60              ??          60h    `                                
ram:20002540    4f              ??          4Fh    O                                
ram:20002541    4e              ??          4Eh    N                                
ram:20002542    1c              ??          1Ch                                     
ram:20002543    36              ??          36h    6                                
ram:20002544    36              ??          36h    6                                
ram:20002545    68              ??          68h    h                                
ram:20002546    3f              ??          3Fh    ?                                
ram:20002547    1d              ??          1Dh                                     
ram:20002548    3e              ??          3Eh    >                                
ram:20002549    60              ??          60h    `                                
ram:2000254a    4d              ??          4Dh    M                                
ram:2000254b    4e              ??          4Eh    N                                
ram:2000254c    20              ??          20h                                     
ram:2000254d    36              ??          36h    6                                
ram:2000254e    36              ??          36h    6                                
ram:2000254f    68              ??          68h    h                                
ram:20002550    3f              ??          3Fh    ?                                
ram:20002551    1d              ??          1Dh                                     
ram:20002552    3e              ??          3Eh    >                                
ram:20002553    60              ??          60h    `                                
ram:20002554    4a              ??          4Ah    J                                
ram:20002555    4e              ??          4Eh    N                                
ram:20002556    24              ??          24h    $                                
ram:20002557    36              ??          36h    6                                
ram:20002558    36              ??          36h    6                                
ram:20002559    68              ??          68h    h                                
ram:2000255a    3f              ??          3Fh    ?                                
ram:2000255b    1d              ??          1Dh                                     
ram:2000255c    3e              ??          3Eh    >                                
ram:2000255d    60              ??          60h    `                                
ram:2000255e    48              ??          48h    H                                
ram:2000255f    4e              ??          4Eh    N                                
ram:20002560    28              ??          28h    (                                
ram:20002561    36              ??          36h    6                                
ram:20002562    36              ??          36h    6                                
ram:20002563    68              ??          68h    h                                
ram:20002564    3f              ??          3Fh    ?                                
ram:20002565    1d              ??          1Dh                                     
ram:20002566    3e              ??          3Eh    >                                
ram:20002567    60              ??          60h    `                                
ram:20002568    45              ??          45h    E                                
ram:20002569    4e              ??          4Eh    N                                
ram:2000256a    2c              ??          2Ch    ,                                
ram:2000256b    36              ??          36h    6                                
ram:2000256c    36              ??          36h    6                                
ram:2000256d    68              ??          68h    h                                
ram:2000256e    3f              ??          3Fh    ?                                
ram:2000256f    1d              ??          1Dh                                     
ram:20002570    3e              ??          3Eh    >                                
ram:20002571    60              ??          60h    `                                
ram:20002572    43              ??          43h    C                                
ram:20002573    4e              ??          4Eh    N                                
ram:20002574    30              ??          30h    0                                
ram:20002575    36              ??          36h    6                                
ram:20002576    36              ??          36h    6                                
ram:20002577    68              ??          68h    h                                
ram:20002578    42              ??          42h    B                                
ram:20002579    4f              ??          4Fh    O                                
ram:2000257a    40              ??          40h    @                                
ram:2000257b    37              ??          37h    7                                
ram:2000257c    3e              ??          3Eh    >                                
ram:2000257d    60              ??          60h    `                                
ram:2000257e    40              ??          40h    @                                
ram:2000257f    4e              ??          4Eh    N                                
ram:20002580    34              ??          34h    4                                
ram:20002581    36              ??          36h    6                                
ram:20002582    36              ??          36h    6                                
ram:20002583    68              ??          68h    h                                
ram:20002584    3f              ??          3Fh    ?                                
ram:20002585    1d              ??          1Dh                                     
ram:20002586    3e              ??          3Eh    >                                
ram:20002587    60              ??          60h    `                                
ram:20002588    3d              ??          3Dh    =                                
ram:20002589    4e              ??          4Eh    N                                
ram:2000258a    38              ??          38h    8                                
ram:2000258b    36              ??          36h    6                                
ram:2000258c    36              ??          36h    6                                
ram:2000258d    68              ??          68h    h                                
ram:2000258e    3f              ??          3Fh    ?                                
ram:2000258f    1d              ??          1Dh                                     
ram:20002590    3e              ??          3Eh    >                                
ram:20002591    60              ??          60h    `                                
ram:20002592    3b              ??          3Bh    ;                                
ram:20002593    4e              ??          4Eh    N                                
ram:20002594    3c              ??          3Ch    <                                
ram:20002595    36              ??          36h    6                                
ram:20002596    36              ??          36h    6                                
ram:20002597    68              ??          68h    h                                
ram:20002598    3f              ??          3Fh    ?                                
ram:20002599    1d              ??          1Dh                                     
ram:2000259a    3e              ??          3Eh    >                                
ram:2000259b    60              ??          60h    `                                
ram:2000259c    38              ??          38h    8                                
ram:2000259d    4e              ??          4Eh    N                                
ram:2000259e    40              ??          40h    @                                
ram:2000259f    36              ??          36h    6                                
ram:200025a0    36              ??          36h    6                                
ram:200025a1    68              ??          68h    h                                
ram:200025a2    3f              ??          3Fh    ?                                
ram:200025a3    1d              ??          1Dh                                     
ram:200025a4    3e              ??          3Eh    >                                
ram:200025a5    60              ??          60h    `                                
ram:200025a6    02              ??          02h                                     
ram:200025a7    e0              ??          E0h                                     
ram:200025a8    16              ??          16h                                     
ram:200025a9    78              ??          78h    x                                
ram:200025aa    36              ??          36h    6                                
ram:200025ab    07              ??          07h                                     
ram:200025ac    08              ??          08h                                     
ram:200025ad    d1              ??          D1h                                     
ram:200025ae    06              ??          06h                                     
ram:200025af    78              ??          78h    x                                
ram:200025b0    c6              ??          C6h                                     
ram:200025b1    f3              ??          F3h                                     
ram:200025b2    03              ??          03h                                     
ram:200025b3    16              ??          16h                                     
ram:200025b4    03              ??          03h                                     
ram:200025b5    2e              ??          2Eh    .                                
ram:200025b6    06              ??          06h                                     
ram:200025b7    d0              ??          D0h                                     
ram:200025b8    04              ??          04h                                     
ram:200025b9    2e              ??          2Eh    .                                
ram:200025ba    04              ??          04h                                     
ram:200025bb    d0              ??          D0h                                     
ram:200025bc    05              ??          05h                                     
ram:200025bd    2e              ??          2Eh    .                                
ram:200025be    02              ??          02h                                     
ram:200025bf    d0              ??          D0h                                     
ram:200025c0    06              ??          06h                                     
ram:200025c1    29              ??          29h    )                                
ram:200025c2    07              ??          07h                                     
ram:200025c3    d0              ??          D0h                                     
ram:200025c4    19              ??          19h                                     
ram:200025c5    e0              ??          E0h                                     
ram:200025c6    d5              ??          D5h                                     
ram:200025c7    f8              ??          F8h                                     
ram:200025c8    58              ??          58h    X                                
ram:200025c9    12              ??          12h                                     
ram:200025ca    2f              ??          2Fh    /                                
ram:200025cb    4a              ??          4Ah    J                                
ram:200025cc    01              ??          01h                                     
ram:200025cd    f0              ??          F0h                                     
ram:200025ce    4f              ??          4Fh    O                                
ram:200025cf    01              ??          01h                                     
ram:200025d0    11              ??          11h                                     
ram:200025d1    60              ??          60h    `                                
ram:200025d2    02              ??          02h                                     
ram:200025d3    e0              ??          E0h                                     
ram:200025d4    11              ??          11h                                     
ram:200025d5    78              ??          78h    x                                
ram:200025d6    09              ??          09h                                     
ram:200025d7    07              ??          07h                                     
ram:200025d8    0f              ??          0Fh                                     
ram:200025d9    d1              ??          D1h                                     
ram:200025da    00              ??          00h                                     
ram:200025db    78              ??          78h    x                                
ram:200025dc    c0              ??          C0h                                     
ram:200025dd    f3              ??          F3h                                     
ram:200025de    03              ??          03h                                     
ram:200025df    10              ??          10h                                     
ram:200025e0    03              ??          03h                                     
ram:200025e1    28              ??          28h    (                                
ram:200025e2    03              ??          03h                                     
ram:200025e3    d0              ??          D0h                                     
ram:200025e4    04              ??          04h                                     
ram:200025e5    28              ??          28h    (                                
ram:200025e6    01              ??          01h                                     
ram:200025e7    d0              ??          D0h                                     
ram:200025e8    05              ??          05h                                     
ram:200025e9    28              ??          28h    (                                
ram:200025ea    06              ??          06h                                     
ram:200025eb    d1              ??          D1h                                     
ram:200025ec    27              ??          27h    '                                
ram:200025ed    48              ??          48h    H                                
ram:200025ee    01              ??          01h                                     
ram:200025ef    68              ??          68h    h                                
ram:200025f0    c9              ??          C9h                                     
ram:200025f1    07              ??          07h                                     
ram:200025f2    02              ??          02h                                     
ram:200025f3    d0              ??          D0h                                     
ram:200025f4    6f              ??          6Fh    o                                
ram:200025f5    f0              ??          F0h                                     
ram:200025f6    01              ??          01h                                     
ram:200025f7    01              ??          01h                                     
ram:200025f8    01              ??          01h                                     
ram:200025f9    60              ??          60h    `                                
ram:200025fa    1f              ??          1Fh                                     
ram:200025fb    48              ??          48h    H                                
ram:200025fc    74              ??          74h    t                                
ram:200025fd    38              ??          38h    8                                
ram:200025fe    01              ??          01h                                     
ram:200025ff    68              ??          68h    h                                
ram:20002600    41              ??          41h    A                                
ram:20002601    f4              ??          F4h                                     
ram:20002602    70              ??          70h    p                                
ram:20002603    01              ??          01h                                     
ram:20002604    01              ??          01h                                     
ram:20002605    60              ??          60h    `                                
ram:20002606    bf              ??          BFh                                     
ram:20002607    f3              ??          F3h                                     
ram:20002608    4f              ??          4Fh    O                                
ram:20002609    8f              ??          8Fh                                     
ram:2000260a    bf              ??          BFh                                     
ram:2000260b    f3              ??          F3h                                     
ram:2000260c    6f              ??          6Fh    o                                
ram:2000260d    8f              ??          8Fh                                     
ram:2000260e    4f              ??          4Fh    O                                
ram:2000260f    f0              ??          F0h                                     
ram:20002610    10              ??          10h                                     
ram:20002611    21              ??          21h    !                                
ram:20002612    d1              ??          D1h                                     
ram:20002613    f8              ??          F8h                                     
ram:20002614    0c              ??          0Ch                                     
ram:20002615    02              ??          02h                                     
ram:20002616    c0              ??          C0h                                     
ram:20002617    07              ??          07h                                     
ram:20002618    20              ??          20h                                     
ram:20002619    d0              ??          D0h                                     
ram:2000261a    1d              ??          1Dh                                     
ram:2000261b    4a              ??          4Ah    J                                
ram:2000261c    14              ??          14h                                     
ram:2000261d    60              ??          60h    `                                
ram:2000261e    1d              ??          1Dh                                     
ram:2000261f    48              ??          48h    H                                
ram:20002620    04              ??          04h                                     
ram:20002621    68              ??          68h    h                                
ram:20002622    00              ??          00h                                     
ram:20002623    2c              ??          2Ch    ,                                
ram:20002624    fc              ??          FCh                                     
ram:20002625    d0              ??          D0h                                     
ram:20002626    d1              ??          D1h                                     
ram:20002627    f8              ??          F8h                                     
ram:20002628    0c              ??          0Ch                                     
ram:20002629    42              ??          42h    B                                
ram:2000262a    24              ??          24h    $                                
ram:2000262b    f0              ??          F0h                                     
ram:2000262c    01              ??          01h                                     
ram:2000262d    04              ??          04h                                     
ram:2000262e    c1              ??          C1h                                     
ram:2000262f    f8              ??          F8h                                     
ram:20002630    0c              ??          0Ch                                     
ram:20002631    42              ??          42h    B                                
ram:20002632    01              ??          01h                                     
ram:20002633    68              ??          68h    h                                
ram:20002634    00              ??          00h                                     
ram:20002635    29              ??          29h    )                                
ram:20002636    fc              ??          FCh                                     
ram:20002637    d0              ??          D0h                                     
ram:20002638    13              ??          13h                                     
ram:20002639    60              ??          60h    `                                
ram:2000263a    01              ??          01h                                     
ram:2000263b    68              ??          68h    h                                
ram:2000263c    00              ??          00h                                     
ram:2000263d    29              ??          29h    )                                
ram:2000263e    fc              ??          FCh                                     
ram:2000263f    d0              ??          D0h                                     
ram:20002640    bf              ??          BFh                                     
ram:20002641    f3              ??          F3h                                     
ram:20002642    4f              ??          4Fh    O                                
ram:20002643    8f              ??          8Fh                                     
ram:20002644    0c              ??          0Ch                                     
ram:20002645    48              ??          48h    H                                
ram:20002646    f0              ??          F0h                                     
ram:20002647    38              ??          38h    8                                
ram:20002648    01              ??          01h                                     
ram:20002649    68              ??          68h    h                                
ram:2000264a    13              ??          13h                                     
ram:2000264b    4a              ??          4Ah    J                                
ram:2000264c    01              ??          01h                                     
ram:2000264d    f4              ??          F4h                                     
ram:2000264e    e0              ??          E0h                                     
ram:2000264f    61              ??          61h    a                                
ram:20002650    11              ??          11h                                     
ram:20002651    43              ??          43h    C                                
ram:20002652    01              ??          01h                                     
ram:20002653    60              ??          60h    `                                
ram:20002654    bf              ??          BFh                                     
ram:20002655    f3              ??          F3h                                     
ram:20002656    4f              ??          4Fh    O                                
ram:20002657    8f              ??          8Fh                                     
ram:20002658    00              ??          00h                                     
ram:20002659    bf              ??          BFh                                     
ram:2000265a    fd              ??          FDh                                     
ram:2000265b    e7              ??          E7h                                     
ram:2000265c    10              ??          10h                                     
ram:2000265d    49              ??          49h    I                                
ram:2000265e    0f              ??          0Fh                                     
ram:2000265f    48              ??          48h    H                                
ram:20002660    08              ??          08h                                     
ram:20002661    60              ??          60h    `                                
ram:20002662    f0              ??          F0h                                     
ram:20002663    bd              ??          BDh                                     
ram:20002664    e0              ??          E0h                                     
ram:20002665    0f              ??          0Fh                                     
ram:20002666    00              ??          00h                                     
ram:20002667    f0              ??          F0h                                     
ram:20002668    40              ??          40h    @                                
ram:20002669    35              ??          35h    5                                
ram:2000266a    01              ??          01h                                     
ram:2000266b    40              ??          40h    @                                
ram:2000266c    0d              ??          0Dh                                     
ram:2000266d    f0              ??          F0h                                     
ram:2000266e    ad              ??          ADh                                     
ram:2000266f    ba              ??          BAh                                     
ram:20002670    00              ??          00h                                     
ram:20002671    c0              ??          C0h                                     
ram:20002672    07              ??          07h                                     
ram:20002673    40              ??          40h    @                                
ram:20002674    3c              ??          3Ch    <                                
ram:20002675    05              ??          05h                                     
ram:20002676    00              ??          00h                                     
ram:20002677    40              ??          40h    @                                
ram:20002678    fc              ??          FCh                                     
ram:20002679    ed              ??          EDh                                     
ram:2000267a    00              ??          00h                                     
ram:2000267b    e0              ??          E0h                                     
ram:2000267c    10              ??          10h                                     
ram:2000267d    56              ??          56h    V                                
ram:2000267e    00              ??          00h                                     
ram:2000267f    40              ??          40h    @                                
ram:20002680    04              ??          04h                                     
ram:20002681    04              ??          04h                                     
ram:20002682    00              ??          00h                                     
ram:20002683    10              ??          10h                                     
ram:20002684    20              ??          20h                                     
ram:20002685    c5              ??          C5h                                     
ram:20002686    00              ??          00h                                     
ram:20002687    40              ??          40h    @                                
ram:20002688    e4              ??          E4h                                     
ram:20002689    0e              ??          0Eh                                     
ram:2000268a    00              ??          00h                                     
ram:2000268b    40              ??          40h    @                                
ram:2000268c    00              ??          00h                                     
ram:2000268d    04              ??          04h                                     
ram:2000268e    00              ??          00h                                     
ram:2000268f    40              ??          40h    @                                
ram:20002690    04              ??          04h                                     
ram:20002691    e5              ??          E5h                                     
ram:20002692    01              ??          01h                                     
ram:20002693    40              ??          40h    @                                
ram:20002694    00              ??          00h                                     
ram:20002695    e4              ??          E4h                                     
ram:20002696    01              ??          01h                                     
ram:20002697    40              ??          40h    @                                
ram:20002698    04              ??          04h                                     
ram:20002699    00              ??          00h                                     
ram:2000269a    fa              ??          FAh                                     
ram:2000269b    05              ??          05h                                     
ram:2000269c    00              ??          00h                                     
ram:2000269d    90              ??          90h                                     
ram:2000269e    d0              ??          D0h                                     
ram:2000269f    03              ??          03h                                     
ram:200026a0    d4              ??          D4h                                     ;?  ->  20002cd4
ram:200026a1    2c              ??          2Ch    ,                                
ram:200026a2    00              ??          00h                                     
ram:200026a3    20              ??          20h                                     
ram:200026a4    06              ??          06h                                     
ram:200026a5    48              ??          48h    H                                
ram:200026a6    d0              ??          D0h                                     
ram:200026a7    f8              ??          F8h                                     
ram:200026a8    04              ??          04h                                     
ram:200026a9    03              ??          03h                                     
ram:200026aa    10              ??          10h                                     
ram:200026ab    f0              ??          F0h                                     
ram:200026ac    01              ??          01h                                     
ram:200026ad    0f              ??          0Fh                                     
ram:200026ae    4f              ??          4Fh    O                                
ram:200026af    f0              ??          F0h                                     
ram:200026b0    00              ??          00h                                     
ram:200026b1    00              ??          00h                                     
ram:200026b2    04              ??          04h                                     
ram:200026b3    d0              ??          D0h                                     
ram:200026b4    03              ??          03h                                     
ram:200026b5    49              ??          49h    I                                
ram:200026b6    08              ??          08h                                     
ram:200026b7    60              ??          60h    `                                
ram:200026b8    03              ??          03h                                     
ram:200026b9    48              ??          48h    H                                
ram:200026ba    40              ??          40h    @                                
ram:200026bb    68              ??          68h    h                                
ram:200026bc    00              ??          00h                                     
ram:200026bd    47              ??          47h    G                                
ram:200026be    70              ??          70h    p                                
ram:200026bf    47              ??          47h    G                                
ram:200026c0    00              ??          00h                                     
ram:200026c1    00              ??          00h                                     
ram:200026c2    01              ??          01h                                     
ram:200026c3    40              ??          40h    @                                
ram:200026c4    00              ??          00h                                     
ram:200026c5    01              ??          01h                                     
ram:200026c6    01              ??          01h                                     
ram:200026c7    40              ??          40h    @                                
ram:200026c8    24              ??          24h    $                                ;?  ->  20002c24
ram:200026c9    2c              ??          2Ch    ,                                
ram:200026ca    00              ??          00h                                     
ram:200026cb    20              ??          20h                                     
ram:200026cc    02              ??          02h                                     
ram:200026cd    e0              ??          E0h                                     
ram:200026ce    08              ??          08h                                     
ram:200026cf    c8              ??          C8h                                     
ram:200026d0    12              ??          12h                                     
ram:200026d1    1f              ??          1Fh                                     
ram:200026d2    08              ??          08h                                     
ram:200026d3    c1              ??          C1h                                     
ram:200026d4    00              ??          00h                                     
ram:200026d5    2a              ??          2Ah    *                                
ram:200026d6    fa              ??          FAh                                     
ram:200026d7    d1              ??          D1h                                     
ram:200026d8    70              ??          70h    p                                
ram:200026d9    47              ??          47h    G                                
ram:200026da    70              ??          70h    p                                ;?  ->  20004770
ram:200026db    47              ??          47h    G                                
ram:200026dc    00              ??          00h                                     
ram:200026dd    20              ??          20h                                     
ram:200026de    01              ??          01h                                     
ram:200026df    e0              ??          E0h                                     
ram:200026e0    01              ??          01h                                     
ram:200026e1    c1              ??          C1h                                     
ram:200026e2    12              ??          12h                                     
ram:200026e3    1f              ??          1Fh                                     
ram:200026e4    00              ??          00h                                     
ram:200026e5    2a              ??          2Ah    *                                
ram:200026e6    fb              ??          FBh                                     
ram:200026e7    d1              ??          D1h                                     
ram:200026e8    70              ??          70h    p                                
ram:200026e9    47              ??          47h    G                                
                            ;************************************************************************************************
                            ;*                                           FUNCTION                                           *
                            ;************************************************************************************************
                            ;char * FUN_200026ea(byte * param_1, undefined * param_2, ushort * param_3)
          ;param_1       byte *              r0                      
          ;param_2       undefined *         r1                      
          ;param_3       ushort *            r2                      
          ;local_30      undefined4         -30                      ;XREF[4,0]:   200027d4,20002850,2000286a,20002884
                                                          ;XREF[2,0]:   20002e90,20002eb4
ram:200026ea    2de9fc5f        push        {param_3,r3,r4,r5,r6,r7,r8,r9,r10,r11...
ram:200026ee    0025            movs        r5,#0x0                                 
ram:200026f0    1688            ldrh        r6,[param_3,#0x0]                       
ram:200026f2    0746            mov         r7,param_1                              
ram:200026f4    1580            strh        r5,[param_3,#0x0]                       
ram:200026f6    406b            ldr         param_1,[param_1,#0x34]                 
ram:200026f8    1446            mov         r4,param_3                              
ram:200026fa    8946            mov         r9,param_2                              
ram:200026fc    a846            mov         r8,r5                                   
ram:200026fe    4ff00c0a        mov.w       r10,#0xc                                
ram:20002702    1123            movs        r3,#0x11                                
ram:20002704    4ff0020b        mov.w       r11,#0x2                                
ram:20002708    98b1            cbz         param_1,LAB_20002732                    
ram:2000270a    0178            ldrb        param_2,[param_1,#0x0]                  
ram:2000270c    4846            mov         param_1,r9                              
ram:2000270e    032e            cmp         r6,#0x3                                 
ram:20002710    48d3            bcc         LAB_200027a4                            
ram:20002712    80f800b0        strb.w      r11,[param_1,#0x0]                      
ram:20002716    2288            ldrh        param_3,[r4,#0x0]                       
ram:20002718    521c            adds        param_3,param_3,#0x1                    
ram:2000271a    92b2            uxth        param_3,param_3                         
ram:2000271c    2280            strh        param_3,[r4,#0x0]                       
ram:2000271e    8354            strb        r3,[param_1,param_3]                    
ram:20002720    2288            ldrh        param_3,[r4,#0x0]                       
ram:20002722    521c            adds        param_3,param_3,#0x1                    
ram:20002724    92b2            uxth        param_3,param_3                         
ram:20002726    2280            strh        param_3,[r4,#0x0]                       
ram:20002728    09f80210        strb.w      param_2,r9,param_3,0x0                  
ram:2000272c    2088            ldrh        param_1,[r4,#0x0]                       
ram:2000272e    401c            adds        param_1,param_1,#0x1                    
ram:20002730    2080            strh        param_1,[r4,#0x0]                       
                            LAB_20002732:                 ;XREF[1,0]:   20002708
ram:20002732    3a6b            ldr         param_3,[r7,#0x30]                      
ram:20002734    dab1            cbz         param_3,LAB_2000276e                    
ram:20002736    2088            ldrh        param_1,[r4,#0x0]                       
ram:20002738    4946            mov         param_2,r9                              
ram:2000273a    00f11205        add.w       r5,param_1,#0x12                        
ram:2000273e    b542            cmp         r5,r6                                   
ram:20002740    30d8            bhi         LAB_200027a4                            
ram:20002742    0b54            strb        r3,[param_2,param_1]                    
ram:20002744    2088            ldrh        param_1,[r4,#0x0]                       
ram:20002746    1023            movs        r3,#0x10                                
ram:20002748    401c            adds        param_1,param_1,#0x1                    
ram:2000274a    80b2            uxth        param_1,param_1                         
ram:2000274c    2080            strh        param_1,[r4,#0x0]                       
ram:2000274e    0b54            strb        r3,[param_2,param_1]                    
ram:20002750    2088            ldrh        param_1,[r4,#0x0]                       
ram:20002752    401c            adds        param_1,param_1,#0x1                    
ram:20002754    2080            strh        param_1,[r4,#0x0]                       
ram:20002756    0f20            movs        param_1,#0xf                            
                            LAB_20002758:                 ;XREF[1,0]:   2000276a
ram:20002758    2388            ldrh        r3,[r4,#0x0]                            
ram:2000275a    155c            ldrb        r5,[param_3,param_1]                    
ram:2000275c    401e            subs        param_1,param_1,#0x1                    
ram:2000275e    cd54            strb        r5,[param_2,r3]                         
ram:20002760    2388            ldrh        r3,[r4,#0x0]                            
ram:20002762    40b2            sxtb        param_1,param_1                         
ram:20002764    5b1c            adds        r3,r3,#0x1                              
ram:20002766    2380            strh        r3,[r4,#0x0]                            
ram:20002768    0028            cmp         param_1,#0x0                            
ram:2000276a    f5da            bge         LAB_20002758                            
ram:2000276c    4546            mov         r5,r8                                   
                            LAB_2000276e:                 ;XREF[1,0]:   20002734
ram:2000276e    97f82e00        ldrb.w      param_1,[r7,#0x2e]                      
ram:20002772    30b1            cbz         param_1,LAB_20002782                    
ram:20002774    3346            mov         r3,r6                                   
ram:20002776    2246            mov         param_3,r4                              
ram:20002778    4946            mov         param_2,r9                              
ram:2000277a    01f06fff        bl          FUN_2000465c                            ;undefined4 FUN_2000465c(int param_1,...
ram:2000277e    0500            movs        r5,param_1                              
ram:20002780    11d1            bne         LAB_200027a6                            
                            LAB_20002782:                 ;XREF[1,0]:   20002772
ram:20002782    97f82d00        ldrb.w      param_1,[r7,#0x2d]                      
ram:20002786    30b1            cbz         param_1,LAB_20002796                    
ram:20002788    3246            mov         param_3,r6                              
ram:2000278a    2146            mov         param_2,r4                              
ram:2000278c    4846            mov         param_1,r9                              
ram:2000278e    00f017fc        bl          FUN_20002fc0                            ;char * FUN_20002fc0(int param_1, ush...
ram:20002792    0500            movs        r5,param_1                              
ram:20002794    07d1            bne         LAB_200027a6                            
                            LAB_20002796:                 ;XREF[1,0]:   20002786
ram:20002796    b878            ldrb        param_1,[r7,#0x2]                       
ram:20002798    20b3            cbz         param_1,LAB_200027e4                    
ram:2000279a    2088            ldrh        param_1,[r4,#0x0]                       
ram:2000279c    c846            mov         r8,r9                                   
ram:2000279e    001d            adds        param_1,param_1,#0x4                    
ram:200027a0    b042            cmp         param_1,r6                              
ram:200027a2    02d9            bls         LAB_200027aa                            
                            LAB_200027a4:                 ;XREF[4,0]:   20002710,20002740,200027f4,20002828
ram:200027a4    5046            mov         param_1,r10                             
                            LAB_200027a6:                 ;XREF[7,0]:   20002780,20002794,200027b0,20002864
                                                          ;             2000287e,20002898,200028ea
ram:200027a6    bde8fc9f        pop.w       {param_3,r3,r4,r5,r6,r7,r8,r9,r10,r11...
                            LAB_200027aa:                 ;XREF[1,0]:   200027a2
ram:200027aa    6846            mov         param_1,sp                              
ram:200027ac    79df            svc         0x79                                    
ram:200027ae    0028            cmp         param_1,#0x0                            
ram:200027b0    f9d1            bne         LAB_200027a6                            
ram:200027b2    2188            ldrh        param_2,[r4,#0x0]                       
ram:200027b4    0320            movs        param_1,#0x3                            
ram:200027b6    08f80100        strb.w      param_1,r8,param_2,0x0                  
ram:200027ba    2088            ldrh        param_1,[r4,#0x0]                       
ram:200027bc    1921            movs        param_2,#0x19                           
ram:200027be    401c            adds        param_1,param_1,#0x1                    
ram:200027c0    80b2            uxth        param_1,param_1                         
ram:200027c2    2080            strh        param_1,[r4,#0x0]                       
ram:200027c4    08f80010        strb.w      param_2,r8,param_1,0x0                  
ram:200027c8    2088            ldrh        param_1,[r4,#0x0]                       
ram:200027ca    401c            adds        param_1,param_1,#0x1                    
ram:200027cc    80b2            uxth        param_1,param_1                         
ram:200027ce    2080            strh        param_1,[r4,#0x0]                       
ram:200027d0    00eb0801        add.w       param_2,param_1,r8                      
ram:200027d4    bdf80000        ldrh.w      param_1,[sp,#0x0]=>local_30             
ram:200027d8    02f01efe        bl          FUN_20005418                            ;undefined4 FUN_20005418(undefined4 p...
ram:200027dc    0146            mov         param_2,param_1                         
ram:200027de    2088            ldrh        param_1,[r4,#0x0]                       
ram:200027e0    0844            add         param_1,param_2                         
ram:200027e2    2080            strh        param_1,[r4,#0x0]                       
                            LAB_200027e4:                 ;XREF[1,0]:   20002798
ram:200027e4    f878            ldrb        param_1,[r7,#0x3]                       
ram:200027e6    b8b1            cbz         param_1,LAB_20002818                    
ram:200027e8    2288            ldrh        param_3,[r4,#0x0]                       
ram:200027ea    97f90310        ldrsb.w     param_2,[r7,#0x3]                       
ram:200027ee    d31c            adds        r3,param_3,#0x3                         
ram:200027f0    4846            mov         param_1,r9                              
ram:200027f2    b342            cmp         r3,r6                                   
ram:200027f4    d6d8            bhi         LAB_200027a4                            
ram:200027f6    00f802b0        strb.w      r11,param_1,param_3,0x0                 
ram:200027fa    2288            ldrh        param_3,[r4,#0x0]                       
ram:200027fc    0123            movs        r3,#0x1                                 
ram:200027fe    521c            adds        param_3,param_3,#0x1                    
ram:20002800    92b2            uxth        param_3,param_3                         
ram:20002802    2280            strh        param_3,[r4,#0x0]                       
ram:20002804    8354            strb        r3,[param_1,param_3]                    
ram:20002806    2288            ldrh        param_3,[r4,#0x0]                       
ram:20002808    521c            adds        param_3,param_3,#0x1                    
ram:2000280a    92b2            uxth        param_3,param_3                         
ram:2000280c    2280            strh        param_3,[r4,#0x0]                       
ram:2000280e    09f80210        strb.w      param_2,r9,param_3,0x0                  
ram:20002812    2088            ldrh        param_1,[r4,#0x0]                       
ram:20002814    401c            adds        param_1,param_1,#0x1                    
ram:20002816    2080            strh        param_1,[r4,#0x0]                       
                            LAB_20002818:                 ;XREF[1,0]:   200027e6
ram:20002818    7868            ldr         param_1,[r7,#0x4]                       
ram:2000281a    b8b1            cbz         param_1,LAB_2000284c                    
ram:2000281c    2188            ldrh        param_2,[r4,#0x0]                       
ram:2000281e    90f90020        ldrsb.w     param_3,[param_1,#0x0]                  
ram:20002822    cb1c            adds        r3,param_2,#0x3                         
ram:20002824    4846            mov         param_1,r9                              
ram:20002826    b342            cmp         r3,r6                                   
ram:20002828    bcd8            bhi         LAB_200027a4                            
ram:2000282a    00f801b0        strb.w      r11,param_1,param_2,0x0                 
ram:2000282e    2188            ldrh        param_2,[r4,#0x0]                       
ram:20002830    0a23            movs        r3,#0xa                                 
ram:20002832    491c            adds        param_2,param_2,#0x1                    
ram:20002834    89b2            uxth        param_2,param_2                         
ram:20002836    2180            strh        param_2,[r4,#0x0]                       
ram:20002838    4354            strb        r3,[param_1,param_2]                    
ram:2000283a    2188            ldrh        param_2,[r4,#0x0]                       
ram:2000283c    491c            adds        param_2,param_2,#0x1                    
ram:2000283e    89b2            uxth        param_2,param_2                         
ram:20002840    2180            strh        param_2,[r4,#0x0]                       
ram:20002842    09f80120        strb.w      param_3,r9,param_2,0x0                  
ram:20002846    2088            ldrh        param_1,[r4,#0x0]                       
ram:20002848    401c            adds        param_1,param_1,#0x1                    
ram:2000284a    2080            strh        param_1,[r4,#0x0]                       
                            LAB_2000284c:                 ;XREF[1,0]:   2000281a
ram:2000284c    3889            ldrh        param_1,[r7,#0x8]                       
ram:2000284e    50b1            cbz         param_1,LAB_20002866                    
ram:20002850    cde90046        strd        r4,r6,[sp,#0x0]=>local_30               
ram:20002854    4b46            mov         r3,r9                                   
ram:20002856    0622            movs        param_3,#0x6                            
ram:20002858    0221            movs        param_2,#0x2                            
ram:2000285a    07f10800        add.w       param_1,r7,#0x8                         
ram:2000285e    02f04cfe        bl          FUN_200054fa                            ;undefined8 FUN_200054fa(ushort * par...
ram:20002862    0500            movs        r5,param_1                              
                            LAB_20002864:                 ;XREF[4,0]:   200028aa,200028bc,200028d2,200028e6
ram:20002864    9fd1            bne         LAB_200027a6                            
                            LAB_20002866:                 ;XREF[1,0]:   2000284e
ram:20002866    388a            ldrh        param_1,[r7,#0x10]                      
ram:20002868    50b1            cbz         param_1,LAB_20002880                    
ram:2000286a    cde90046        strd        r4,r6,[sp,#0x0]=>local_30               
ram:2000286e    4b46            mov         r3,r9                                   
ram:20002870    0722            movs        param_3,#0x7                            
ram:20002872    0321            movs        param_2,#0x3                            
ram:20002874    07f11000        add.w       param_1,r7,#0x10                        
ram:20002878    02f03ffe        bl          FUN_200054fa                            ;undefined8 FUN_200054fa(ushort * par...
ram:2000287c    0500            movs        r5,param_1                              
ram:2000287e    92d1            bne         LAB_200027a6                            
                            LAB_20002880:                 ;XREF[1,0]:   20002868
ram:20002880    388b            ldrh        param_1,[r7,#0x18]                      
ram:20002882    50b1            cbz         param_1,LAB_2000289a                    
ram:20002884    cde90046        strd        r4,r6,[sp,#0x0]=>local_30               
ram:20002888    4b46            mov         r3,r9                                   
ram:2000288a    1522            movs        param_3,#0x15                           
ram:2000288c    1421            movs        param_2,#0x14                           
ram:2000288e    07f11800        add.w       param_1,r7,#0x18                        
ram:20002892    02f032fe        bl          FUN_200054fa                            ;undefined8 FUN_200054fa(ushort * par...
ram:20002896    0500            movs        r5,param_1                              
ram:20002898    85d1            bne         LAB_200027a6                            
                            LAB_2000289a:                 ;XREF[1,0]:   20002882
ram:2000289a    386a            ldr         param_1,[r7,#0x20]                      
ram:2000289c    30b1            cbz         param_1,LAB_200028ac                    
ram:2000289e    3346            mov         r3,r6                                   
ram:200028a0    2246            mov         param_3,r4                              
ram:200028a2    4946            mov         param_2,r9                              
ram:200028a4    00f078ff        bl          FUN_20003798                            ;undefined4 FUN_20003798(ushort * par...
ram:200028a8    0500            movs        r5,param_1                              
ram:200028aa    dbd1            bne         LAB_20002864                            
                            LAB_200028ac:                 ;XREF[1,0]:   2000289c
ram:200028ac    786a            ldr         param_1,[r7,#0x24]                      
ram:200028ae    30b1            cbz         param_1,LAB_200028be                    
ram:200028b0    3346            mov         r3,r6                                   
ram:200028b2    2246            mov         param_3,r4                              
ram:200028b4    4946            mov         param_2,r9                              
ram:200028b6    02f033f8        bl          FUN_20004920                            ;undefined4 FUN_20004920(ushort * par...
ram:200028ba    0500            movs        r5,param_1                              
ram:200028bc    d2d1            bne         LAB_20002864                            
                            LAB_200028be:                 ;XREF[1,0]:   200028ae
ram:200028be    97f82c00        ldrb.w      param_1,[r7,#0x2c]                      
ram:200028c2    38b1            cbz         param_1,LAB_200028d4                    
ram:200028c4    3346            mov         r3,r6                                   
ram:200028c6    2246            mov         param_3,r4                              
ram:200028c8    4946            mov         param_2,r9                              
ram:200028ca    3846            mov         param_1,r7                              
ram:200028cc    02f018fc        bl          FUN_20005100                            ;undefined4 FUN_20005100(int param_1,...
ram:200028d0    0500            movs        r5,param_1                              
ram:200028d2    c7d1            bne         LAB_20002864                            
                            LAB_200028d4:                 ;XREF[1,0]:   200028c2
ram:200028d4    3878            ldrb        param_1,[r7,#0x0]                       
ram:200028d6    38b1            cbz         param_1,LAB_200028e8                    
ram:200028d8    3346            mov         r3,r6                                   
ram:200028da    2246            mov         param_3,r4                              
ram:200028dc    4946            mov         param_2,r9                              
ram:200028de    3846            mov         param_1,r7                              
ram:200028e0    02f050f8        bl          FUN_20004984                            ;longlong FUN_20004984(byte * param_1...
ram:200028e4    0500            movs        r5,param_1                              
ram:200028e6    bdd1            bne         LAB_20002864                            
                            LAB_200028e8:                 ;XREF[1,0]:   200028d6
ram:200028e8    2846            mov         param_1,r5                              
ram:200028ea    5ce7            b           LAB_200027a6                            
                            ;************************************************************************************************
                            ;*                                           FUNCTION                                           *
                            ;************************************************************************************************
                            ;undefined FUN_200028ec(undefined param_1)
          ;param_1       undefined           r0                      
          ;local_e       undefined1          -e                      ;XREF[1,0]:   200028f8
          ;local_10      undefined2         -10                      ;XREF[1,0]:   20002900
          ;local_3c      undefined4         -3c                      ;XREF[1,0]:   2000291e
          ;local_40      undefined2         -40                      ;XREF[1,0]:   20002918
          ;local_45      undefined1         -45                      ;XREF[1,0]:   20002920
          ;local_46      undefined1         -46                      ;XREF[1,0]:   20002912
          ;local_48      undefined1         -48                      ;XREF[1,0]:   2000290c
                                                          ;XREF[3,0]:   20002992,200029bc,200029ce
ram:200028ec    10b5            push        {r4,lr}                                 
ram:200028ee    0446            mov         r4,param_1                              
ram:200028f0    1148            ldr         param_1,[PTR_DAT_20002938]              ;= 200032b8
ram:200028f2    90b0            sub         sp,#0x40                                
ram:200028f4    3821            movs        r1,#0x38                                
ram:200028f6    8079            ldrb        param_1,[param_1,#0x6]=>DAT_200032be    ;= FFh
ram:200028f8    8df83a00        strb.w      param_1,[sp,#local_e+0x48]              
ram:200028fc    41f23050        movw        param_1,#0x1530                         
ram:20002900    adf83800        strh.w      param_1,[sp,#local_10+0x48]             
ram:20002904    6846            mov         param_1,sp                              
ram:20002906    fff7a4fc        bl          FUN_20002252                            ;undefined FUN_20002252(undefined * p...
ram:2000290a    0220            movs        param_1,#0x2                            
ram:2000290c    8df80000        strb.w      param_1,[sp,#0x0]=>local_48             
ram:20002910    0020            movs        param_1,#0x0                            
ram:20002912    8df80200        strb.w      param_1,[sp,#local_46+0x48]             
ram:20002916    0120            movs        param_1,#0x1                            
ram:20002918    adf80800        strh.w      param_1,[sp,#local_40+0x48]             
ram:2000291c    0ea8            add         param_1,sp,#0x38                        
ram:2000291e    0390            str         param_1,[sp,#local_3c+0x48]             
ram:20002920    8df80340        strb.w      r4,[sp,#local_45+0x48]                  
ram:20002924    0021            movs        r1,#0x0                                 
ram:20002926    6846            mov         param_1,sp                              
ram:20002928    00f0a2fa        bl          FUN_20002e70                            ;char * FUN_20002e70(byte * param_1, ...
ram:2000292c    0028            cmp         param_1,#0x0                            
ram:2000292e    01d0            beq         LAB_20002934                            
ram:20002930    00f0d0f8        bl          FUN_20002ad4                            ;undefined FUN_20002ad4(void)
                            LAB_20002934:                 ;XREF[1,0]:   2000292e
ram:20002934    10b0            add         sp,#0x40                                
ram:20002936    10bd            pop         {r4,pc}                                 
                            PTR_DAT_20002938:             ;XREF[1,0]:   200028f0
ram:20002938    b8320020        addr        DAT_200032b8                            ;= 05h
                            ;************************************************************************************************
                            ;*                                           FUNCTION                                           *
                            ;************************************************************************************************
                            ;undefined FUN_2000293c(void)
          ;local_28      undefined4         -28                      ;XREF[1,0]:   2000297c
          ;local_2c      undefined1         -2c                      ;XREF[1,0]:   2000298c
          ;local_30      undefined4         -30                      ;XREF[1,0]:   20002986
          ;local_34      undefined1         -34                      ;XREF[1,0]:   20002988
          ;local_38      undefined4         -38                      ;XREF[1,0]:   20002982
          ;local_3c      undefined4         -3c                      ;XREF[1,0]:   20002972
          ;local_40      undefined4         -40                      ;XREF[1,0]:   2000296a
          ;local_44      undefined4         -44                      ;XREF[1,0]:   20002968
          ;local_48      undefined4         -48                      ;XREF[1,0]:   20002966
                                                          ;XREF[3,0]:   2000433a,20004b16,20004b58
ram:2000293c    2de9f043        push        {r4,r5,r6,r7,r8,r9,lr}                  
ram:20002940    264c            ldr         r4,[PTR_DAT_200029dc]                   ;= 20002c98
ram:20002942    8bb0            sub         sp,#0x2c                                
ram:20002944    a078            ldrb        r0,[r4,#0x2]=>DAT_20002c9a              ;= 99h
ram:20002946    0028            cmp         r0,#0x0                                 
ram:20002948    34d1            bne         LAB_200029b4                            
ram:2000294a    1821            movs        r1,#0x18                                
ram:2000294c    2448            ldr         r0=>DAT_200032a0,[PTR_DAT_200029e0]     ;= 30h
                                                                                    ;= 200032a0
ram:2000294e    fff780fc        bl          FUN_20002252                            ;undefined FUN_20002252(undefined * p...
ram:20002952    a046            mov         r8,r4                                   
ram:20002954    e078            ldrb        r0,[r4,#0x3]=>DAT_20002c9b              ;= 46h
ram:20002956    224c            ldr         r4,[PTR_DAT_200029e0]                   ;= 200032a0
ram:20002958    0025            movs        r5,#0x0                                 
ram:2000295a    4ff4a079        mov.w       r9,#0x140                               
ram:2000295e    0126            movs        r6,#0x1                                 
ram:20002960    98b3            cbz         r0,LAB_200029ca                         
ram:20002962    04f14807        add.w       r7,r4,#0x48                             
ram:20002966    0095            str         r5,[sp,#0x0]=>local_48                  
ram:20002968    0195            str         r5,[sp,#local_44+0x48]                  
ram:2000296a    0295            str         r5,[sp,#local_40+0x48]                  
ram:2000296c    1022            movs        r2,#0x10                                
ram:2000296e    6946            mov         r1,sp                                   
ram:20002970    f81d            adds        r0=>DAT_200032ef,r7,#0x7                ;= FBh
ram:20002972    0395            str         r5,[sp,#local_3c+0x48]                  
ram:20002974    fff778fc        bl          FUN_20002268                            ;undefined FUN_20002268(int param_1, ...
ram:20002978    f8b1            cbz         r0,LAB_200029ba                         
ram:2000297a    f81d            adds        r0,r7,#0x7                              
ram:2000297c    cde90807        strd        r0=>DAT_2...,r7=>DAT_20...,[sp,#local...;= FBh
                                                                                    ;= B108FF65h
ram:20002980    09a8            add         r0,sp,#0x24                             
ram:20002982    0490            str         r0,[sp,#local_38+0x48]                  
ram:20002984    08a8            add         r0,sp,#0x20                             
ram:20002986    0690            str         r0,[sp,#local_30+0x48]                  
ram:20002988    8df81460        strb.w      r6,[sp,#local_34+0x48]                  
ram:2000298c    8df81c60        strb.w      r6,[sp,#local_2c+0x48]                  
ram:20002990    0420            movs        r0,#0x4                                 
ram:20002992    fff7abff        bl          FUN_200028ec                            ;undefined FUN_200028ec(undefined par...
ram:20002996    2570            strb        r5,[r4,#0x0]=>DAT_200032a0              ;= 30h
ram:20002998    0220            movs        r0,#0x2                                 
ram:2000299a    2072            strb        r0,[r4,#0x8]=>DAT_200032a8              ;= 0Dh
ram:2000299c    04a8            add         r0,sp,#0x10                             
ram:2000299e    e060            str         r0,[r4,#0xc]=>DAT_200032ac              ;= E88CCA3Ch
                            LAB_200029a0:                 ;XREF[1,0]:   200029d8
ram:200029a0    a4f81090        strh.w      r9,[r4,#0x10]=>DAT_200032b0             ;= 003Ch
                            LAB_200029a4:                 ;XREF[1,0]:   200029c8
ram:200029a4    6582            strh        r5,[r4,#0x12]=>DAT_200032b2             ;= 6809h
ram:200029a6    0e48            ldr         r0=>DAT_200032a0,[PTR_DAT_200029e0]     ;= 30h
                                                                                    ;= 200032a0
ram:200029a8    73df            svc         0x73                                    
ram:200029aa    08b1            cbz         r0,LAB_200029b0                         
ram:200029ac    00f092f8        bl          FUN_20002ad4                            ;undefined FUN_20002ad4(void)
                            LAB_200029b0:                 ;XREF[1,0]:   200029aa
ram:200029b0    88f80260        strb.w      r6,[r8,#0x2]=>DAT_20002c9a              ;= 99h
                            LAB_200029b4:                 ;XREF[1,0]:   20002948
ram:200029b4    0bb0            add         sp,#0x2c                                
ram:200029b6    bde8f083        pop.w       {r4,r5,r6,r7,r8,r9,pc}                  
                            LAB_200029ba:                 ;XREF[1,0]:   20002978
ram:200029ba    0520            movs        r0,#0x5                                 
ram:200029bc    fff796ff        bl          FUN_200028ec                            ;undefined FUN_200028ec(undefined par...
ram:200029c0    2670            strb        r6,[r4,#0x0]=>DAT_200032a0              ;= 30h
ram:200029c2    6760            str         r7=>DAT_200032e8,[r4,#0x4]=>DAT_200032a4;= B108FF65h
                                                                                    ;= 1D0AB08Bh
ram:200029c4    2572            strb        r5,[r4,#0x8]=>DAT_200032a8              ;= 0Dh
ram:200029c6    2582            strh        r5,[r4,#0x10]=>DAT_200032b0             ;= 003Ch
ram:200029c8    ece7            b           LAB_200029a4                            
                            LAB_200029ca:                 ;XREF[1,0]:   20002960
ram:200029ca    ffe7            b           LAB_200029cc                            
                            LAB_200029cc:                 ;XREF[1,0]:   200029ca
ram:200029cc    0620            movs        r0,#0x6                                 
ram:200029ce    fff78dff        bl          FUN_200028ec                            ;undefined FUN_200028ec(undefined par...
ram:200029d2    2570            strb        r5,[r4,#0x0]=>DAT_200032a0              ;= 30h
ram:200029d4    6560            str         r5,[r4,#0x4]=>DAT_200032a4              ;= 1D0AB08Bh
ram:200029d6    2572            strb        r5,[r4,#0x8]=>DAT_200032a8              ;= 0Dh
ram:200029d8    e2e7            b           LAB_200029a0                            
ram:200029da    0000            movs        r0,r0                                   
                            PTR_DAT_200029dc:             ;XREF[1,0]:   20002940
ram:200029dc    982c0020        addr        DAT_20002c98                            ;= 80h
                            PTR_DAT_200029e0:             ;XREF[3,0]:   2000294c,20002956,200029a6
ram:200029e0    a0320020        addr        DAT_200032a0                            ;= 30h
                            ;************************************************************************************************
                            ;*                                           FUNCTION                                           *
                            ;************************************************************************************************
                            ;undefined8 FUN_200029e4(ushort * param_1, int param_2, uint param_3, undefined4 param_4)
          ;param_1       ushort *            r0                      
          ;param_2       int                 r1                      
          ;param_3       uint                r2                      
          ;param_4       undefined4          r3                      
          ;local_1c      undefined4         -1c                      ;XREF[1,0]:   20002a4c
          ;local_20      undefined4         -20                      ;XREF[1,0]:   20002a48
          ;local_24      undefined4         -24                      ;XREF[1,0]:   20002a42
          ;local_28      undefined4         -28                      ;XREF[4,0]:   20002a0a,20002a1a,20002a22,20002a44
                                                          ;XREF[1,0]:   20004da8
ram:200029e4    2de9ff41        push        {param_1,param_2,param_3,param_4,r4,r...
ram:200029e8    0546            mov         r5,param_1                              
ram:200029ea    087a            ldrb        param_1,[param_2,#0x8]                  
ram:200029ec    0e46            mov         r6,param_2                              
ram:200029ee    8107            lsls        param_2,param_1,#0x1e                   
ram:200029f0    0ad0            beq         LAB_20002a08                            
ram:200029f2    0322            movs        param_3,#0x3                            
ram:200029f4    1146            mov         param_2,param_3                         
ram:200029f6    2846            mov         param_1,r5                              
ram:200029f8    00f012fc        bl          FUN_20003220                            ;undefined8 FUN_20003220(ushort * par...
ram:200029fc    0028            cmp         param_1,#0x0                            
ram:200029fe    01d0            beq         LAB_20002a04                            
ram:20002a00    00f068f8        bl          FUN_20002ad4                            ;undefined FUN_20002ad4(void)
                            LAB_20002a04:                 ;XREF[6,0]:   200029fe,20002a3e,20002a7c,20002a8a
                                                          ;             20002a96,20002aa8
ram:20002a04    bde8ff81        pop.w       {param_1,param_2,param_3,param_4,r4,r...
                            LAB_20002a08:                 ;XREF[1,0]:   200029f0
ram:20002a08    2849            ldr         param_2=>DAT_20002cac,[PTR_DAT_20002aac];= F974F002h
                                                                                    ;= 20002cac
ram:20002a0a    0090            str         param_1,[sp,#0x0]=>local_28             
ram:20002a0c    01f07cfd        bl          FUN_20004508                            ;undefined4 FUN_20004508(uint param_1...
ram:20002a10    0100            movs        param_2,param_1                         
ram:20002a12    11d1            bne         LAB_20002a38                            
ram:20002a14    254c            ldr         r4,[PTR_DAT_20002aac]                   ;= 20002cac
ram:20002a16    7168            ldr         param_2,[r6,#0x4]                       
ram:20002a18    143c            subs        r4,#0x14                                
ram:20002a1a    009a            ldr         param_3,[sp,#0x0]=>local_28             
ram:20002a1c    6069            ldr         param_1,[r4,#0x14]=>DAT_20002cac        ;= F974F002h
ram:20002a1e    fff7fffb        bl          FUN_20002220                            ;undefined FUN_20002220(undefined4 * ...
ram:20002a22    0098            ldr         param_1,[sp,#0x0]=>local_28             
ram:20002a24    01f03cfd        bl          FUN_200044a0                            ;undefined4 FUN_200044a0(undefined4 p...
ram:20002a28    0100            movs        param_2,param_1                         
ram:20002a2a    05d1            bne         LAB_20002a38                            
ram:20002a2c    6946            mov         param_2,sp                              
ram:20002a2e    1f48            ldr         param_1=>DAT_20002cac,[PTR_DAT_20002aac];= F974F002h
                                                                                    ;= 20002cac
ram:20002a30    01f046fd        bl          FUN_200044c0                            ;undefined4 FUN_200044c0(int * param_...
ram:20002a34    0100            movs        param_2,param_1                         
ram:20002a36    03d0            beq         LAB_20002a40                            
                            LAB_20002a38:                 ;XREF[3,0]:   20002a12,20002a2a,20002a6e
ram:20002a38    2846            mov         param_1,r5                              
ram:20002a3a    01f0e1f8        bl          FUN_20003c00                            ;undefined FUN_20003c00(ushort * para...
ram:20002a3e    e1e7            b           LAB_20002a04                            
                            LAB_20002a40:                 ;XREF[1,0]:   20002a36
ram:20002a40    0420            movs        param_1,#0x4                            
ram:20002a42    0190            str         param_1,[sp,#local_24+0x28]             
ram:20002a44    0098            ldr         param_1,[sp,#0x0]=>local_28             
ram:20002a46    8008            lsrs        param_1,param_1,#0x2                    
ram:20002a48    0290            str         param_1,[sp,#local_20+0x28]             
ram:20002a4a    6069            ldr         param_1,[r4,#0x14]=>DAT_20002cac        ;= F974F002h
ram:20002a4c    0390            str         param_1,[sp,#local_1c+0x28]             
ram:20002a4e    01a8            add         param_1,sp,#0x4                         
ram:20002a50    01f0a0f8        bl          FUN_20003b94                            ;int FUN_20003b94(int param_1)
ram:20002a54    0700            movs        r7,param_1                              
ram:20002a56    0bd0            beq         LAB_20002a70                            
ram:20002a58    092f            cmp         r7,#0x9                                 
ram:20002a5a    10d0            beq         LAB_20002a7e                            
ram:20002a5c    6069            ldr         param_1,[r4,#0x14]=>DAT_20002cac        ;= F974F002h
ram:20002a5e    01f0e9fc        bl          FUN_20004434                            ;undefined4 FUN_20004434(int param_1)
ram:20002a62    0100            movs        param_2,param_1                         
ram:20002a64    02d0            beq         LAB_20002a6c                            
ram:20002a66    2846            mov         param_1,r5                              
ram:20002a68    01f0caf8        bl          FUN_20003c00                            ;undefined FUN_20003c00(ushort * para...
                            LAB_20002a6c:                 ;XREF[1,0]:   20002a64
ram:20002a6c    3946            mov         param_2,r7                              
ram:20002a6e    e3e7            b           LAB_20002a38                            
                            LAB_20002a70:                 ;XREF[1,0]:   20002a56
ram:20002a70    307a            ldrb        param_1,[r6,#0x8]                       
ram:20002a72    2169            ldr         param_2,[r4,#0x10]=>DAT_20002ca8        ;= B38C4D1Ch
ram:20002a74    0844            add         param_1,param_2                         
ram:20002a76    2061            str         param_1,[r4,#0x10]=>DAT_20002ca8        ;= B38C4D1Ch
ram:20002a78    6069            ldr         param_1,[r4,#0x14]=>DAT_20002cac        ;= F974F002h
ram:20002a7a    a061            str         param_1,[r4,#0x18]=>DAT_20002cb0        ;= F8C52003h
ram:20002a7c    c2e7            b           LAB_20002a04                            
                            LAB_20002a7e:                 ;XREF[1,0]:   20002a5a
ram:20002a7e    307a            ldrb        param_1,[r6,#0x8]                       
ram:20002a80    2169            ldr         param_2,[r4,#0x10]=>DAT_20002ca8        ;= B38C4D1Ch
ram:20002a82    0144            add         param_2,param_1                         
ram:20002a84    2161            str         param_2,[r4,#0x10]=>DAT_20002ca8        ;= B38C4D1Ch
ram:20002a86    6078            ldrb        param_1,[r4,#0x1]=>DAT_20002c99         ;= 46h
ram:20002a88    0028            cmp         param_1,#0x0                            
ram:20002a8a    bbd0            beq         LAB_20002a04                            
ram:20002a8c    6089            ldrh        param_1,[r4,#0xa]=>DAT_20002ca2         ;= F04Fh
ram:20002a8e    401e            subs        param_1,param_1,#0x1                    
ram:20002a90    0004            lsls        param_1,param_1,#0x10                   
ram:20002a92    000c            lsrs        param_1,param_1,#0x10                   
ram:20002a94    6081            strh        param_1,[r4,#0xa]=>DAT_20002ca2         ;= F04Fh
ram:20002a96    b5d1            bne         LAB_20002a04                            
ram:20002a98    2846            mov         param_1,r5                              
ram:20002a9a    00f089fb        bl          FUN_200031b0                            ;undefined8 FUN_200031b0(ushort * par...
ram:20002a9e    08b1            cbz         param_1,LAB_20002aa4                    
ram:20002aa0    00f018f8        bl          FUN_20002ad4                            ;undefined FUN_20002ad4(void)
                            LAB_20002aa4:                 ;XREF[1,0]:   20002a9e
ram:20002aa4    2089            ldrh        param_1,[r4,#0x8]=>DAT_20002ca0         ;= 0790h
ram:20002aa6    6081            strh        param_1,[r4,#0xa]=>DAT_20002ca2         ;= F04Fh
ram:20002aa8    ace7            b           LAB_20002a04                            
ram:20002aaa    0000            movs        r0,r0                                   
                            PTR_DAT_20002aac:             ;XREF[3,0]:   20002a08,20002a14,20002a2e
ram:20002aac    ac2c0020        addr        DAT_20002cac                            ;= F974F002h
                            ;************************************************************************************************
                            ;*                                           FUNCTION                                           *
                            ;************************************************************************************************
                            ;undefined FUN_20002ab0(void)
                                                          ;XREF[1,0]:   20002ae4
ram:20002ab0    bff34f8f        dsb         0xf                                     
ram:20002ab4    0548            ldr         r0,[DAT_20002acc]                       ;= E000ED0Ch
ram:20002ab6    0168            ldr         r1,[r0,#0x0]=>DAT_e000ed0c              
ram:20002ab8    054a            ldr         r2,[DAT_20002ad0]                       ;= 05FA0004h
ram:20002aba    01f4e061        and         r1,r1,#0x700                            
ram:20002abe    1143            orrs        r1,r2                                   
ram:20002ac0    0160            str         r1,[r0,#0x0]=>DAT_e000ed0c              
ram:20002ac2    bff34f8f        dsb         0xf                                     
                            LAB_20002ac6:                 ;XREF[1,0]:   20002ac8
ram:20002ac6    00bf            nop                                                  
ram:20002ac8    fde7            b           LAB_20002ac6                            
ram:20002aca    0000            movs        r0,r0                                   
                            DAT_20002acc:                 ;XREF[1,0]:   20002ab4
ram:20002acc    0ced00e0        undefined4  E000ED0Ch                               
                            DAT_20002ad0:                 ;XREF[1,0]:   20002ab8
ram:20002ad0    0400fa05        undefined4  05FA0004h                               
                            ;************************************************************************************************
                            ;*                                           FUNCTION                                           *
                            ;************************************************************************************************
                            ;undefined FUN_20002ad4(void)
          ;local_c       undefined4          -c                      ;XREF[1,0]:   20002ada
          ;local_10      undefined4         -10                      ;XREF[1,0]:   20002ad8
                                                          ;XREF[42,0]:  20002930,200029ac,20002a00,20002aa0
                                                          ;             2000330c,20003366,200033a6,20003514
                                                          ;             200035a2,200035ba,20003820,200038c8
                                                          ;             20003a66,20003a82,20003c20,20003c40
                                                          ;             20003f06,20004226,2000423a,20004264
                                                          ;             20004272,20004280,200042be,200042d4
                                                          ;             200042f8,2000432e,200043c8,200043f0
                                                          ;             200043fc,200045ac,200045e0,20004604
                                                          ;             20004b34,20004b50,20004d3a,20004d4c
                                                          ;             20004d8a,20004fe8,20005188,20005278
                                                          ;             200053d2,200055d0
ram:20002ad4    0eb5            push        {r1,r2,r3,lr}                           
ram:20002ad6    0021            movs        r1,#0x0                                 
ram:20002ad8    0091            str         r1,[sp,#0x0]=>local_10                  
ram:20002ada    cde90110        strd        r1,r0,[sp,#local_c+0x10]                
ram:20002ade    6a46            mov         r2,sp                                   
ram:20002ae0    44f20100        movw        r0,#0x4001                              
ram:20002ae4    fff7e4ff        bl          FUN_20002ab0                            ;undefined FUN_20002ab0(void)
ram:20002ae8    0ebd            pop         {r1,r2,r3,pc}                           
ram:20002aea    0000            movs        r0,r0                                   
                            ;************************************************************************************************
                            ;*                                           FUNCTION                                           *
                            ;************************************************************************************************
                            ;undefined FUN_20002aec(undefined4 param_1, undefined * param_2)
          ;param_1       undefined4          r0                      
          ;param_2       undefined *         r1                      
          ;local_10      undefined4         -10                      ;XREF[1,0]:   20002afc
                                                          ;XREF[2,0]:   20004f58,20004f8a
ram:20002aec    38b5            push        {r3,r4,r5,lr}                           
ram:20002aee    0c46            mov         r4,param_2                              
ram:20002af0    064b            ldr         r3,[->FUN_200031b0]                     ;= 200031b0
ram:20002af2    e268            ldr         r2,[r4,#0xc]=>DAT_2000354c              ;= 46686048h
ram:20002af4    0978            ldrb        param_2,[param_2,#0x0]=>DAT_20003540    ;= 91h
ram:20002af6    53f82250        ldr.w       r5,r3=>FUN_...,r2,offset DAT_39a1b2d0...
ram:20002afa    6268            ldr         r2,[r4,#0x4]=>DAT_20003544              ;= 4905D106h
ram:20002afc    0092            str         r2,[sp,#0x0]=>local_10                  
ram:20002afe    0246            mov         r2,param_1                              
ram:20002b00    04f10c00        add.w       param_1=>DAT_2000354c,r4,#0xc           ;= 46686048h
ram:20002b04    6369            ldr         r3,[r4,#0x14]=>DAT_20003554             ;= 0000BD0Eh
ram:20002b06    a847            blx         r5                                      
ram:20002b08    38bd            pop         {r3,r4,r5,pc}                           
ram:20002b0a    0000            movs        r0,r0                                   
                            PTR_FUN_20002b0c:             ;XREF[1,0]:   20002af0
ram:20002b0c    b0310020        addr        FUN_200031b0                            
                            ;************************************************************************************************
                            ;*                                           FUNCTION                                           *
                            ;************************************************************************************************
                            ;undefined4 FUN_20002b10(int * param_1, undefined2 * param_2, undefined4 * param_3)
          ;param_1       int *               r0                      
          ;param_2       undefined2 *        r1                      
          ;param_3       undefined4 *        r2                      
                                                          ;XREF[1,0]:   20002c08
ram:20002b10    70b5            push        {r4,r5,r6,lr}                           
ram:20002b12    0f4b            ldr         r3,[PTR_DAT_20002b50]                   ;= 20002c30
ram:20002b14    0546            mov         r5,param_1                              
ram:20002b16    0520            movs        param_1,#0x5                            
ram:20002b18    1c78            ldrb        r4,[r3,#0x0]=>DAT_20002c30              ;= 5Ch
ram:20002b1a    5e78            ldrb        r6,[r3,#0x1]=>DAT_20002c31              ;= 70h
ram:20002b1c    a642            cmp         r6,r4                                   
ram:20002b1e    16d0            beq         LAB_20002b4e                            
ram:20002b20    1c78            ldrb        r4,[r3,#0x0]=>DAT_20002c30              ;= 5Ch
ram:20002b22    1878            ldrb        param_1,[r3,#0x0]=>DAT_20002c30         ;= 5Ch
ram:20002b24    9e88            ldrh        r6,[r3,#0x4]=>DAT_20002c34              ;= 8058h
ram:20002b26    b042            cmp         param_1,r6                              
ram:20002b28    01da            bge         LAB_20002b2e                            
ram:20002b2a    401c            adds        param_1,param_1,#0x1                    
ram:20002b2c    00e0            b           LAB_20002b30                            
                            LAB_20002b2e:                 ;XREF[1,0]:   20002b28
ram:20002b2e    0020            movs        param_1,#0x0                            
                            LAB_20002b30:                 ;XREF[1,0]:   20002b2c
ram:20002b30    1870            strb        param_1,[r3,#0x0]=>DAT_20002c30         ;= 5Ch
ram:20002b32    5e88            ldrh        r6,[r3,#0x2]=>DAT_20002c32              ;= 701Ch
ram:20002b34    d868            ldr         param_1,[r3,#0xc]=>PTR_DAT_20002c3c     ;= 20002c30
ram:20002b36    04fb0600        mla         param_1,r4,r6,param_1                   
ram:20002b3a    2860            str         param_1,[r5,#0x0]                       
ram:20002b3c    9868            ldr         param_1,[r3,#0x8]=>DAT_20002c38         ;= BD302000h
ram:20002b3e    00ebc403        add.w       r3,param_1,r4, lsl #0x3                 
ram:20002b42    9b88            ldrh        r3,[r3,#0x4]=>DAT_bd3022e4              
ram:20002b44    0b80            strh        r3,[param_2,#0x0]                       
ram:20002b46    50f83400        ldr.w       param_1,param_1,r4,offset DAT_bd3022e...
ram:20002b4a    1060            str         param_1,[param_3,#0x0]                  
ram:20002b4c    0020            movs        param_1,#0x0                            
                            LAB_20002b4e:                 ;XREF[1,0]:   20002b1e
ram:20002b4e    70bd            pop         {r4,r5,r6,pc}                           
                            PTR_DAT_20002b50:             ;XREF[1,0]:   20002b12
ram:20002b50    302c0020        addr        DAT_20002c30                            ;= 5Ch
                            ;************************************************************************************************
                            ;*                                           FUNCTION                                           *
                            ;************************************************************************************************
                            ;undefined4 FUN_20002b54(undefined4 * param_1, uint param_2, undefined4 param_3, uint param_4)
          ;param_1       undefined4 *        r0                      
          ;param_2       uint                r1                      
          ;param_3       undefined4          r2                      
          ;param_4       uint                r3                      
          ;local_28      undefined1         -28                      ;XREF[3,0]:   20002b6c,20002b8c,20002ba6
ram:20002b54    2de9f84f        push        {param_4,r4,r5,r6,r7,r8,r9,r10,r11,lr}  
ram:20002b58    254c            ldr         r4,[PTR_DAT_20002bf0]                   ;= 20002c30
ram:20002b5a    8146            mov         r9,param_1                              
ram:20002b5c    9246            mov         r10,param_3                             
ram:20002b5e    6088            ldrh        param_1,[r4,#0x2]=>DAT_20002c32         ;= 701Ch
ram:20002b60    0e46            mov         r6,param_2                              
ram:20002b62    8142            cmp         param_2,param_1                         
ram:20002b64    41d8            bhi         LAB_20002bea                            
ram:20002b66    0027            movs        r7,#0x0                                 
ram:20002b68    4ff6ff78        movw        r8,#0xffff                              
ram:20002b6c    8df80070        strb.w      r7,[sp,#0x0]=>local_28                  
ram:20002b70    6846            mov         param_1,sp                              
ram:20002b72    00f03ff9        bl          FUN_20002df4                            ;undefined FUN_20002df4(undefined * p...
ram:20002b76    2278            ldrb        param_3,[r4,#0x0]=>DAT_20002c30         ;= 5Ch
ram:20002b78    6078            ldrb        param_1,[r4,#0x1]=>DAT_20002c31         ;= 70h
ram:20002b7a    a188            ldrh        param_2,[r4,#0x4]=>DAT_20002c34         ;= 8058h
ram:20002b7c    8842            cmp         param_1,param_2                         
ram:20002b7e    01da            bge         LAB_20002b84                            
ram:20002b80    401c            adds        param_1,param_1,#0x1                    
ram:20002b82    00e0            b           LAB_20002b86                            
                            LAB_20002b84:                 ;XREF[1,0]:   20002b7e
ram:20002b84    0020            movs        param_1,#0x0                            
                            LAB_20002b86:                 ;XREF[1,0]:   20002b82
ram:20002b86    c0b2            uxtb        param_1,param_1                         
ram:20002b88    9042            cmp         param_1,param_3                         
ram:20002b8a    04d1            bne         LAB_20002b96                            
ram:20002b8c    9df80000        ldrb.w      param_1,[sp,#0x0]=>local_28             
ram:20002b90    00f054f9        bl          FUN_20002e3c                            ;undefined FUN_20002e3c(int param_1)
ram:20002b94    27e0            b           LAB_20002be6                            
                            LAB_20002b96:                 ;XREF[1,0]:   20002b8a
ram:20002b96    6578            ldrb        r5,[r4,#0x1]=>DAT_20002c31              ;= 70h
ram:20002b98    6078            ldrb        param_1,[r4,#0x1]=>DAT_20002c31         ;= 70h
ram:20002b9a    8842            cmp         param_1,param_2                         
ram:20002b9c    01da            bge         LAB_20002ba2                            
ram:20002b9e    401c            adds        param_1,param_1,#0x1                    
ram:20002ba0    00e0            b           LAB_20002ba4                            
                            LAB_20002ba2:                 ;XREF[1,0]:   20002b9c
ram:20002ba2    0020            movs        param_1,#0x0                            
                            LAB_20002ba4:                 ;XREF[1,0]:   20002ba0
ram:20002ba4    6070            strb        param_1,[r4,#0x1]=>DAT_20002c31         ;= 70h
ram:20002ba6    9df80000        ldrb.w      param_1,[sp,#0x0]=>local_28             
ram:20002baa    00f047f9        bl          FUN_20002e3c                            ;undefined FUN_20002e3c(int param_1)
ram:20002bae    4545            cmp         r5,r8                                   
ram:20002bb0    19d0            beq         LAB_20002be6                            
ram:20002bb2    a068            ldr         param_1,[r4,#0x8]=>DAT_20002c38         ;= BD302000h
ram:20002bb4    b9f1000f        cmp.w       r9,#0x0                                 
ram:20002bb8    40f835a0        str.w       r10,param_1,r5,offset DAT_bd302380--0...
ram:20002bbc    0dd0            beq         LAB_20002bda                            
ram:20002bbe    66b1            cbz         r6,LAB_20002bda                         
ram:20002bc0    6188            ldrh        param_2,[r4,#0x2]=>DAT_20002c32         ;= 701Ch
ram:20002bc2    e068            ldr         param_1,[r4,#0xc]=>PTR_DAT_20002c3c     ;= 20002c30
ram:20002bc4    3246            mov         param_3,r6                              
ram:20002bc6    05fb0100        mla         param_1,r5,param_2,param_1              
ram:20002bca    4946            mov         param_2,r9                              
ram:20002bcc    fff728fb        bl          FUN_20002220                            ;undefined FUN_20002220(undefined4 * ...
ram:20002bd0    a068            ldr         param_1,[r4,#0x8]=>DAT_20002c38         ;= BD302000h
ram:20002bd2    00ebc500        add.w       param_1,param_1,r5, lsl #0x3            
ram:20002bd6    8680            strh        r6,[param_1,#0x4]=>DAT_bd302384         
ram:20002bd8    02e0            b           LAB_20002be0                            
                            LAB_20002bda:                 ;XREF[2,0]:   20002bbc,20002bbe
ram:20002bda    00ebc500        add.w       param_1,param_1,r5, lsl #0x3            
ram:20002bde    8780            strh        r7,[param_1,#0x4]=>DAT_bd302384         
                            LAB_20002be0:                 ;XREF[1,0]:   20002bd8
ram:20002be0    0020            movs        param_1,#0x0                            
                            LAB_20002be2:                 ;XREF[2,0]:   20002be8,20002bec
ram:20002be2    bde8f88f        pop.w       {param_4,r4,r5,r6,r7,r8,r9,r10,r11,pc}  
                            LAB_20002be6:                 ;XREF[2,0]:   20002b94,20002bb0
ram:20002be6    0420            movs        param_1,#0x4                            
ram:20002be8    fbe7            b           LAB_20002be2                            
                            LAB_20002bea:                 ;XREF[1,0]:   20002b64
ram:20002bea    0920            movs        param_1,#0x9                            
ram:20002bec    f9e7            b           LAB_20002be2                            
ram:20002bee    0000            movs        r0,r0                                   
                            PTR_DAT_20002bf0:             ;XREF[1,0]:   20002b58
ram:20002bf0    302c0020        addr        DAT_20002c30                            ;= 5Ch
                            ;************************************************************************************************
                            ;*                                           FUNCTION                                           *
                            ;************************************************************************************************
                            ;undefined FUN_20002bf4(undefined4 param_1, int param_2, uint param_3, undefined * param_4)
          ;param_1       undefined4          r0                      
          ;param_2       int                 r1                      
          ;param_3       uint                r2                      
          ;param_4       undefined *         r3                      
          ;local_8       undefined4          -8                      ;XREF[1,0]:   20002bf8
          ;local_c       undefined2          -c                      ;XREF[1,0]:   20002bfa
          ;local_10      undefined4         -10                      ;XREF[1,0]:   20002bfe
                                                          ;XREF[1,0]:   200055d4
ram:20002bf4    0eb5            push        {param_2,param_3,param_4,lr}            
ram:20002bf6    04e0            b           LAB_20002c02                            
                            LAB_20002bf8:                 ;XREF[1,0]:   20002c0e
ram:20002bf8    029a            ldr         param_3=>local_8,[sp,#0x8]              
ram:20002bfa    bdf80410        ldrh.w      param_2=>local_c,[sp,#0x4]              
ram:20002bfe    0098            ldr         param_1,[sp,#0x0]=>local_10             
                            LAB_20002c00:                 ;XREF[3,7]:   20002eea,20003844,2000386a,20002f0e
                                                          ;             20002f78,20002f86,20003852,20005442
                                                          ;             2000544a,2000546a
ram:20002c00    9047            blx         param_3                                 
                            LAB_20002c02:                 ;XREF[5,0]:   20002bf6,20002f0c,20002f6e,20002f84
                                                          ;             20005438
ram:20002c02    02aa            add         param_3,sp,#0x8                         
                            LAB_20002c04:                 ;XREF[2,0]:   20002ef2,20004628
ram:20002c04    01a9            add         param_2,sp,#0x4                         
                            LAB_20002c06:                 ;XREF[1,0]:   2000462e
ram:20002c06    6846            mov         param_1,sp                              
                            LAB_20002c08:                 ;XREF[2,1]:   20002ef6,20004636,2000463e
ram:20002c08    fff782ff        bl          FUN_20002b10                            ;undefined4 FUN_20002b10(int * param_...
                            LAB_20002c0c:                 ;XREF[2,0]:   20002f72,20002fa0
ram:20002c0c    0028            cmp         param_1,#0x0                            
ram:20002c0e    f3d0            beq         LAB_20002bf8                            
                            LAB_20002c10:                 ;XREF[2,0]:   20002f76,20002fa4
ram:20002c10    0ebd            pop         {param_2,param_3,param_4,pc}            
ram:20002c12    0000            movs        r0,r0                                   
                            SUB_20002c14:                 ;XREF[7,0]:   20003036,20003094,200031c6,2000321c
                                                          ;             20003232,2000327c,20004fdc
ram:20002c14    30              undefined1  30h                                     
                            DAT_20002c15:                 ;XREF[6,0]:   20003042,20003074,200031d2,200031fc
                                                          ;             2000323e,2000325c
ram:20002c15    b5              undefined1  B5h                                     
                            DAT_20002c16:                 ;XREF[3,0]:   20003046,200031da,20003240
ram:20002c16    cb              undefined1  CBh                                     
                            DAT_20002c17:                 ;XREF[2,0]:   20003048,20003242
ram:20002c17    00              undefined1  00h                                     
                            DAT_20002c18:                 ;XREF[1,0]:   20003052
ram:20002c18    08              ??          08h                                     
ram:20002c19    33              ??          33h    3                                
ram:20002c1a    9d              ??          9Dh                                     
ram:20002c1b    b2              ??          B2h                                     
                            DAT_20002c1c:                 ;XREF[5,0]:   20003670,20004e84,20004e9c,20004ec4
                                                          ;             20004f94
ram:20002c1c    93074ff0        undefined4  F04F0793h                               
                            DAT_20002c20:                 ;XREF[6,0]:   20003624,20004e6c,20004e8a,20004f28
                                                          ;             20004f2c,20004f36
ram:20002c20    000401d0        undefined4  D0010400h                               
ram:20002c24    07              ??          07h                                     
ram:20002c25    20              ??          20h                                     
ram:20002c26    30              ??          30h    0                                
ram:20002c27    bd              ??          BDh                                     
ram:20002c28    04              ??          04h                                     
ram:20002c29    4b              ??          4Bh    K                                
ram:20002c2a    9a              ??          9Ah                                     
ram:20002c2b    60              ??          60h    `                                
ram:20002c2c    2a              ??          2Ah    *                                
ram:20002c2d    44              ??          44h    D                                
ram:20002c2e    da              ??          DAh                                     
ram:20002c2f    60              ??          60h    `                                
                            DAT_20002c30:                 ;XREF[8,0]:   20002b18,20002b20,20002b22,20002b30
                                                          ;             20002b50,20002b76,20002bf0,20002c3c
ram:20002c30    5c              undefined1  5Ch                                     
                            DAT_20002c31:                 ;XREF[5,0]:   20002b1a,20002b78,20002b96,20002b98
                                                          ;             20002ba4
ram:20002c31    70              undefined1  70h                                     
                            DAT_20002c32:                 ;XREF[3,0]:   20002b32,20002b5e,20002bc0
ram:20002c32    1c70            undefined2  701Ch                                   
                            DAT_20002c34:                 ;XREF[2,0]:   20002b24,20002b7a
ram:20002c34    5880            undefined2  8058h                                   
ram:20002c36    99              ??          99h                                     
ram:20002c37    80              ??          80h                                     
                            DAT_20002c38:                 ;XREF[3,0]:   20002b3c,20002bb2,20002bd0
ram:20002c38    002030bd        undefined4  BD302000h                               
                            PTR_DAT_20002c3c:             ;XREF[2,0]:   20002b34,20002bc2
ram:20002c3c    302c0020        addr        DAT_20002c30                            ;= 5Ch
                            LAB_20002c40:                 ;XREF[5,1]:   20002c60,20002df0,20002f1a,200046bc
                                                          ;             20004778,200053e2
ram:20002c40    074b            ldr         r3,[PTR_LAB_20002c60]                   ;= 20002c40
                            LAB_20002c42:                 ;XREF[4,3]:   200053e4,200053ee,200053f4,200053fa
                                                          ;             20003704,2000373a,20004fc8
ram:20002c42    9b68            ldr         r3,[r3,#0x8]=>DAT_20002c48              ;= 6800B120h
                            LAB_20002c44:                 ;XREF[3,0]:   200046c2,20004750,200047c8
ram:20002c44    23b1            cbz         r3,LAB_20002c50                         
ram:20002c46    2ab1            cbz         r2,FUN_20002c54                         
                            DAT_20002c48:                 ;XREF[9,0]:   20002c42,20002d30,20002d54,20002d76
                                                          ;             20002daa,20002dbe,20002dd2,200046c6
                                                          ;             20004780
ram:20002c48    20b10068        undefined4  6800B120h                               
                            DAT_20002c4c:                 ;XREF[8,0]:   200036f2,200046b8,2000474c,2000477a
                                                          ;             2000481e,2000535c,2000536e,2000539a
ram:20002c4c    037c1bb1        undefined4  B11B7C03h                               
                            LAB_20002c50:                 ;XREF[7,0]:   20002c44,20003702,200046ca,2000474c
                                                          ;             200047d2,20004fc2,200053a6
ram:20002c50    08207047        undefined4  47702008h                               
                            ;************************************************************************************************
                            ;*                                           FUNCTION                                           *
                            ;************************************************************************************************
                            ;undefined4 FUN_20002c54(void)
                                                          ;XREF[2,0]:   20002c46,200053c6
ram:20002c54    0720            movs        r0,#0x7                                 
ram:20002c56    7047            bx          lr                                      
                            DAT_20002c58:                 ;XREF[1,0]:   200053fe
ram:20002c58    41744261        undefined4  61427441h                               
ram:20002c5c    00              ??          00h                                     
ram:20002c5d    20              ??          20h                                     
ram:20002c5e    70              ??          70h    p                                
ram:20002c5f    47              ??          47h    G                                
                            PTR_LAB_20002c60:             ;XREF[6,0]:   20002c40,20003498,200034c2,2000352c
                                                          ;             200055d8,200055e8
ram:20002c60    402c0020        addr        LAB_20002c40                            
                            ;************************************************************************************************
                            ;*                                           FUNCTION                                           *
                            ;************************************************************************************************
                            ;undefined FUN_20002c64(undefined * * param_1, int param_2)
          ;param_1       undefined * *       r0                      
          ;param_2       int                 r1                      
                                                          ;XREF[3,0]:   2000359a,200035ac,200035c0
ram:20002c64    10b5            push        {r4,lr}                                 
ram:20002c66    0446            mov         r4,param_1                              
ram:20002c68    0829            cmp         param_2,#0x8                            
ram:20002c6a    02d0            beq         LAB_20002c72                            
                            DAT_20002c6c:                 ;XREF[9,0]:   20003bfc,20003c50,20003c94,20003d44
                                                          ;             20003da0,20003f50,200041d4,20004214
                                                          ;             20004244
ram:20002c6c    00              undefined1  00h                                     
                            DAT_20002c6d:                 ;XREF[11,0]:  20003baa,20003c2c,20003c60,20003c70
                                                          ;             20003c8a,20003d28,20003d40,20003d54
                                                          ;             20003d68,20003ef4,200041b4
ram:20002c6d    20              undefined1  20h                                     
                            DAT_20002c6e:                 ;XREF[5,0]:   20003d2e,20003d3a,20003d7e,20003d96
                                                          ;             20003d9a
ram:20002c6e    ff              undefined1  FFh                                     
ram:20002c6f    f7              ??          F7h                                     
                            DAT_20002c70:                 ;XREF[1,0]:   200038f6
ram:20002c70    31ff            undefined2  FF31h                                   
                            LAB_20002c72:                 ;XREF[1,0]:   20002c6a
ram:20002c72    d4              ??          D4h                                     
ram:20002c73    e9              ??          E9h                                     
                            DAT_20002c74:                 ;XREF[5,0]:   20003bc2,20003bce,20003c66,20003d22
                                                          ;             20003d6a
ram:20002c74    0010bde8        undefined4  E8BD1000h                               
                            DAT_20002c78:                 ;XREF[6,0]:   20003bbe,20003c66,20003c7c,20003ef6
                                                          ;             2000415e,200041ca
ram:20002c78    10400847        undefined4  47084010h                               
                            DAT_20002c7c:                 ;XREF[2,0]:   20003c7a,20003ef0
ram:20002c7c    1cb5044a        undefined4  4A04B51Ch                               
                            DAT_20002c80:                 ;XREF[1,0]:   20003f4a
ram:20002c80    cde90001        undefined4  0100E9CDh                               
ram:20002c84    08              ??          08h                                     
ram:20002c85    21              ??          21h    !                                
ram:20002c86    68              ??          68h    h                                
ram:20002c87    46              ??          46h    F                                
                            DAT_20002c88:                 ;XREF[1,0]:   200038d4
ram:20002c88    fff764ff        undefined4  FF64F7FFh                               
                            ;************************************************************************************************
                            ;*                                           FUNCTION                                           *
                            ;************************************************************************************************
                            ;undefined FUN_20002c8c(void)
                                                          ;XREF[6,0]:   200038be,200038d6,20003918,20003ef0
                                                          ;             20003ef8,20003f0c
ram:20002c8c    1cbd            pop         {r2,r3,r4,pc}                           
ram:20002c8e    0000            movs        r0,r0                                   
ram:20002c90    c1ad            add         r5,sp,#0x304                            
ram:20002c92    0700            movs        r7,r0                                   
                            DAT_20002c94:                 ;XREF[2,0]:   20003de0,20003e44
ram:20002c94    2d              undefined1  2Dh                                     
ram:20002c95    e9              ??          E9h                                     
ram:20002c96    f0              ??          F0h                                     
ram:20002c97    47              ??          47h    G                                
                            DAT_20002c98:                 ;XREF[12,0]:  200029dc,20003a98,20004252,20004288
                                                          ;             20004294,2000434c,20004b54,20004c04
                                                          ;             20004d10,20004dd8,200050f8,200052c0
ram:20002c98    80              undefined1  80h                                     
                            DAT_20002c99:                 ;XREF[3,0]:   20002a86,20004dbc,20004dc8
ram:20002c99    46              undefined1  46h                                     
                            DAT_20002c9a:                 ;XREF[6,0]:   20002944,200029b0,2000426a,20004278
                                                          ;             20004acc,20004b0c
ram:20002c9a    99              undefined1  99h                                     
                            DAT_20002c9b:                 ;XREF[3,0]:   20002954,20004346,200050ae
ram:20002c9b    46              undefined1  46h                                     
                            DAT_20002c9c:                 ;XREF[5,0]:   20004296,20004d58,20004d64,20004d90
                                                          ;             20004d94
ram:20002c9c    14              undefined1  14h                                     
                            DAT_20002c9d:                 ;XREF[2,0]:   20004d5e,2000525c
ram:20002c9d    46              undefined1  46h                                     
                            DAT_20002c9e:                 ;XREF[8,0]:   20003a4e,20004254,20004ab0,20004aca
                                                          ;             20004b60,200050a4,200050c4,200050d0
ram:20002c9e    0f46            undefined2  460Fh                                   
                            DAT_20002ca0:                 ;XREF[3,0]:   20002aa4,20004dc0,20004dca
ram:20002ca0    9007            undefined2  0790h                                   
                            DAT_20002ca2:                 ;XREF[4,0]:   20002a8c,20002a94,20002aa6,20004dc2
ram:20002ca2    4ff0            undefined2  F04Fh                                   
                            DAT_20002ca4:                 ;XREF[3,0]:   20004b0e,20004b12,20004b42
ram:20002ca4    000634d1        undefined4  D1340600h                               
                            DAT_20002ca8:                 ;XREF[5,0]:   20002a72,20002a76,20002a80,20002a84
                                                          ;             20004dd0
ram:20002ca8    1c4d8cb3        undefined4  B38C4D1Ch                               
                            DAT_20002cac:                 ;XREF[7,0]:   20002a08,20002a1c,20002a2e,20002a4a
                                                          ;             20002a5c,20002a78,20002aac
ram:20002cac    02f074f9        undefined4  F974F002h                               
                            DAT_20002cb0:                 ;XREF[2,0]:   20002a7a,20003a6a
ram:20002cb0    0320c5f8        undefined4  F8C52003h                               
                            DAT_20002cb4:                 ;XREF[4,0]:   2000507c,2000507e,2000508a,20005098
ram:20002cb4    14              undefined1  14h                                     
                            DAT_20002cb5:                 ;XREF[1,0]:   2000508e
ram:20002cb5    90              undefined1  90h                                     
                            DAT_20002cb6:                 ;XREF[1,0]:   20005092
ram:20002cb6    28              undefined1  28h                                     
ram:20002cb7    70              ??          70h    p                                
ram:20002cb8    04              ??          04h                                     
                            DAT_20002cb9:                 ;XREF[2,0]:   20004412,2000442c
ram:20002cb9    f1              undefined1  F1h                                     
ram:20002cba    18              ??          18h                                     
ram:20002cbb    00              ??          00h                                     
ram:20002cbc    00              ??          00h                                     
ram:20002cbd    21              ??          21h    !                                
ram:20002cbe    07              ??          07h                                     
ram:20002cbf    eb              ??          EBh                                     
                            DAT_20002cc0:                 ;XREF[3,0]:   200045b8,20004620,2000519c
ram:20002cc0    47              undefined1  47h                                     
ram:20002cc1    03              ??          03h                                     
                            DAT_20002cc2:                 ;XREF[1,0]:   200045f2
ram:20002cc2    ac60            undefined2  60ACh                                   
ram:20002cc4    04              ??          04h                                     
ram:20002cc5    eb              ??          EBh                                     
ram:20002cc6    c1              ??          C1h                                     
ram:20002cc7    02              ??          02h                                     
                            DAT_20002cc8:                 ;XREF[2,0]:   200045fa,2000460e
ram:20002cc8    491c1670        undefined4  70161C49h                               
                            DAT_20002ccc:                 ;XREF[3,0]:   200045c4,2000460e,20005190
ram:20002ccc    56709770        undefined4  70977056h                               
                            DAT_20002cd0:                 ;XREF[2,0]:   200045be,200045ea
ram:20002cd0    506000eb        undefined4  EB006050h                               
ram:20002cd4    c3              ??          C3h                                     
ram:20002cd5    00              ??          00h                                     
ram:20002cd6    03              ??          03h                                     
ram:20002cd7    29              ??          29h    )                                
ram:20002cd8    f4              ??          F4h                                     
ram:20002cd9    db              ??          DBh                                     
ram:20002cda    ee              ??          EEh                                     
ram:20002cdb    60              ??          60h    `                                
ram:20002cdc    6e              ??          6Eh    n                                
ram:20002cdd    70              ??          70h    p                                
ram:20002cde    ae              ??          AEh                                     
ram:20002cdf    70              ??          70h    p                                
ram:20002ce0    14              ??          14h                                     
ram:20002ce1    20              ??          20h                                     
ram:20002ce2    ff              ??          FFh                                     
ram:20002ce3    f7              ??          F7h                                     
ram:20002ce4    0f              ??          0Fh                                     
ram:20002ce5    fb              ??          FBh                                     
ram:20002ce6    06              ??          06h                                     
ram:20002ce7    21              ??          21h    !                                
ram:20002ce8    14              ??          14h                                     
ram:20002ce9    20              ??          20h                                     
ram:20002cea    ff              ??          FFh                                     
ram:20002ceb    f7              ??          F7h                                     
ram:20002cec    2c              ??          2Ch    ,                                
ram:20002ced    fb              ??          FBh                                     
ram:20002cee    14              ??          14h                                     
ram:20002cef    20              ??          20h                                     
ram:20002cf0    ff              ??          FFh                                     
ram:20002cf1    f7              ??          F7h                                     
ram:20002cf2    13              ??          13h                                     
ram:20002cf3    fb              ??          FBh                                     
ram:20002cf4    0a              ??          0Ah                                     
ram:20002cf5    49              ??          49h    I                                
ram:20002cf6    c1              ??          C1h                                     
ram:20002cf7    f8              ??          F8h                                     
ram:20002cf8    00              ??          00h                                     
ram:20002cf9    80              ??          80h                                     
ram:20002cfa    06              ??          06h                                     
ram:20002cfb    21              ??          21h    !                                
ram:20002cfc    11              ??          11h                                     
ram:20002cfd    20              ??          20h                                     
ram:20002cfe    ff              ??          FFh                                     
ram:20002cff    f7              ??          F7h                                     
ram:20002d00    22              ??          22h    "                                
ram:20002d01    fb              ??          FBh                                     
ram:20002d02    07              ??          07h                                     
ram:20002d03    48              ??          48h    H                                
ram:20002d04    00              ??          00h                                     
ram:20002d05    1f              ??          1Fh                                     
ram:20002d06    00              ??          00h                                     
ram:20002d07    68              ??          68h    h                                
ram:20002d08    28              ??          28h    (                                
ram:20002d09    61              ??          61h    a                                
ram:20002d0a    00              ??          00h                                     
ram:20002d0b    20              ??          20h                                     
ram:20002d0c    bd              ??          BDh                                     
ram:20002d0d    e8              ??          E8h                                     
ram:20002d0e    f0              ??          F0h                                     
ram:20002d0f    87              ??          87h                                     
ram:20002d10    01              ??          01h                                     
ram:20002d11    e0              ??          E0h                                     
ram:20002d12    07              ??          07h                                     
ram:20002d13    20              ??          20h                                     
ram:20002d14    fa              ??          FAh                                     
ram:20002d15    e7              ??          E7h                                     
ram:20002d16    ae              ??          AEh                                     
ram:20002d17    60              ??          60h    `                                
ram:20002d18    fb              ??          FBh                                     
ram:20002d19    e7              ??          E7h                                     
ram:20002d1a    00              ??          00h                                     
ram:20002d1b    00              ??          00h                                     
ram:20002d1c    40              ??          40h    @                                ;?  ->  20002c40
ram:20002d1d    2c              ??          2Ch    ,                                
ram:20002d1e    00              ??          00h                                     
ram:20002d1f    20              ??          20h                                     
ram:20002d20    08              ??          08h                                     
ram:20002d21    15              ??          15h                                     
ram:20002d22    01              ??          01h                                     
ram:20002d23    40              ??          40h    @                                
                            ;************************************************************************************************
                            ;*                                           FUNCTION                                           *
                            ;************************************************************************************************
                            ;undefined4 FUN_20002d24(int param_1, uint param_2, undefined4 param_3, undefined4 param_4)
          ;param_1       int                 r0                      
          ;param_2       uint                r1                      
          ;param_3       undefined4          r2                      
          ;param_4       undefined4          r3                      
          ;local_20      undefined1         -20                      ;XREF[1,0]:   20002d7e
                                                          ;XREF[2,0]:   2000385e,20004232
ram:20002d24    2de9f843        push        {param_4,r4,r5,r6,r7,r8,r9,lr}          
ram:20002d28    dff87090        ldr.w       r9,[DAT_20002d9c]                       ;= 20002C40h
ram:20002d2c    0d46            mov         r5,param_2                              
ram:20002d2e    1746            mov         r7,param_3                              
ram:20002d30    d9f80810        ldr.w       param_2,[r9,#0x8]=>DAT_20002c48         ;= 6800B120h
ram:20002d34    0446            mov         r4,param_1                              
ram:20002d36    51b3            cbz         param_2,LAB_20002d8e                    
ram:20002d38    4cb3            cbz         r4,LAB_20002d8e                         
ram:20002d3a    052d            cmp         r5,#0x5                                 
ram:20002d3c    02d2            bcs         LAB_20002d44                            
ram:20002d3e    0720            movs        param_1,#0x7                            
                            LAB_20002d40:                 ;XREF[3,0]:   20002d8c,20002d90,20002d98
ram:20002d40    bde8f883        pop.w       {param_4,r4,r5,r6,r7,r8,r9,pc}          
                            LAB_20002d44:                 ;XREF[1,0]:   20002d3c
ram:20002d44    6069            ldr         param_1,[r4,#0x14]                      
ram:20002d46    10b3            cbz         param_1,LAB_20002d8e                    
ram:20002d48    607c            ldrb        param_1,[r4,#0x11]                      
ram:20002d4a    0128            cmp         param_1,#0x1                            
ram:20002d4c    21d0            beq         LAB_20002d92                            
ram:20002d4e    0026            movs        r6,#0x0                                 
                            LAB_20002d50:                 ;XREF[1,0]:   20002d94
ram:20002d50    02f0a0fb        bl          FUN_20005494                            ;undefined4 FUN_20005494(void)
ram:20002d54    d9f80810        ldr.w       param_2,[r9,#0x8]=>DAT_20002c48         ;= 6800B120h
ram:20002d58    8046            mov         r8,param_1                              
ram:20002d5a    01ebc800        add.w       param_1,param_2,r8, lsl #0x3            
ram:20002d5e    6946            mov         param_2,sp                              
ram:20002d60    02f0b7fb        bl          FUN_200054d2                            ;int FUN_200054d2(char * param_1, cha...
ram:20002d64    b8b1            cbz         param_1,LAB_20002d96                    
ram:20002d66    0121            movs        param_2,#0x1                            
ram:20002d68    00f8041b        strb.w      param_2,[param_1],#0x4                  
ram:20002d6c    0c49            ldr         param_2,[DAT_20002da0]                  ;= 40011504h
ram:20002d6e    10c0            stmia       param_1!,{r4}                           
ram:20002d70    0968            ldr         param_2,[param_2,#0x0]=>DAT_40011504    
ram:20002d72    80e8e200        stm         param_1,{param_2,r5,r6,r7}              
ram:20002d76    d9f80810        ldr.w       param_2,[r9,#0x8]=>DAT_20002c48         ;= 6800B120h
ram:20002d7a    01ebc800        add.w       param_1,param_2,r8, lsl #0x3            
ram:20002d7e    9df80010        ldrb.w      param_2,[sp,#0x0]=>local_20             
ram:20002d82    4170            strb        param_2,[param_1,#0x1]                  
ram:20002d84    1420            movs        param_1,#0x14                           
ram:20002d86    fff7d3fa        bl          FUN_20002330                            ;undefined FUN_20002330(uint param_1)
ram:20002d8a    0020            movs        param_1,#0x0                            
ram:20002d8c    d8e7            b           LAB_20002d40                            
                            LAB_20002d8e:                 ;XREF[3,0]:   20002d36,20002d38,20002d46
ram:20002d8e    0820            movs        param_1,#0x8                            
ram:20002d90    d6e7            b           LAB_20002d40                            
                            LAB_20002d92:                 ;XREF[1,0]:   20002d4c
ram:20002d92    2e46            mov         r6,r5                                   
ram:20002d94    dce7            b           LAB_20002d50                            
                            LAB_20002d96:                 ;XREF[1,0]:   20002d64
ram:20002d96    0420            movs        param_1,#0x4                            
ram:20002d98    d2e7            b           LAB_20002d40                            
ram:20002d9a    0000            movs        r0,r0                                   
                            DAT_20002d9c:                 ;XREF[1,0]:   20002d28
ram:20002d9c    402c0020        undefined4  20002C40h                               ;?  ->  20002c40
                            DAT_20002da0:                 ;XREF[1,0]:   20002d6c
ram:20002da0    04150140        undefined4  40011504h                               
                            ;************************************************************************************************
                            ;*                                           FUNCTION                                           *
                            ;************************************************************************************************
                            ;undefined4 FUN_20002da4(int param_1, undefined4 param_2, undefined4 param_3, undefined4 param_4)
          ;param_1       int                 r0                      
          ;param_2       undefined4          r1                      
          ;param_3       undefined4          r2                      
          ;param_4       undefined4          r3                      
          ;local_18      undefined1         -18                      ;XREF[1,0]:   20002dd4
                                                          ;XREF[4,0]:   20002f8a,20002fb8,20003c3a,20004220
ram:20002da4    f8b5            push        {param_4,r4,r5,r6,r7,lr}                
ram:20002da6    124e            ldr         r6,[PTR_LAB_20002df0]                   ;= 20002c40
ram:20002da8    0446            mov         r4,param_1                              
ram:20002daa    b168            ldr         param_2,[r6,#0x8]=>DAT_20002c48         ;= 6800B120h
ram:20002dac    e1b1            cbz         param_2,LAB_20002de8                    
ram:20002dae    dcb1            cbz         r4,LAB_20002de8                         
ram:20002db0    6069            ldr         param_1,[r4,#0x14]                      
ram:20002db2    c8b1            cbz         param_1,LAB_20002de8                    
ram:20002db4    0027            movs        r7,#0x0                                 
ram:20002db6    2774            strb        r7,[r4,#0x10]                           
ram:20002db8    02f06cfb        bl          FUN_20005494                            ;undefined4 FUN_20005494(void)
ram:20002dbc    0546            mov         r5,param_1                              
ram:20002dbe    b068            ldr         param_1,[r6,#0x8]=>DAT_20002c48         ;= 6800B120h
ram:20002dc0    6946            mov         param_2,sp                              
ram:20002dc2    00ebc500        add.w       param_1,param_1,r5, lsl #0x3            
ram:20002dc6    02f084fb        bl          FUN_200054d2                            ;int FUN_200054d2(char * param_1, cha...
ram:20002dca    78b1            cbz         param_1,LAB_20002dec                    
ram:20002dcc    0221            movs        param_2,#0x2                            
ram:20002dce    0170            strb        param_2,[param_1,#0x0]                  
ram:20002dd0    4460            str         r4,[param_1,#0x4]                       
ram:20002dd2    b068            ldr         param_1,[r6,#0x8]=>DAT_20002c48         ;= 6800B120h
ram:20002dd4    9df80010        ldrb.w      param_2,[sp,#0x0]=>local_18             
ram:20002dd8    00ebc500        add.w       param_1,param_1,r5, lsl #0x3            
ram:20002ddc    4170            strb        param_2,[param_1,#0x1]                  
ram:20002dde    1420            movs        param_1,#0x14                           
ram:20002de0    fff7a6fa        bl          FUN_20002330                            ;undefined FUN_20002330(uint param_1)
ram:20002de4    3846            mov         param_1,r7                              
ram:20002de6    f8bd            pop         {param_4,r4,r5,r6,r7,pc}                
                            LAB_20002de8:                 ;XREF[3,0]:   20002dac,20002dae,20002db2
ram:20002de8    0820            movs        param_1,#0x8                            
ram:20002dea    f8bd            pop         {param_4,r4,r5,r6,r7,pc}                
                            LAB_20002dec:                 ;XREF[1,0]:   20002dca
ram:20002dec    0420            movs        param_1,#0x4                            
ram:20002dee    f8bd            pop         {param_4,r4,r5,r6,r7,pc}                
                            PTR_LAB_20002df0:             ;XREF[1,0]:   20002da6
ram:20002df0    402c0020        addr        LAB_20002c40                            
                            ;************************************************************************************************
                            ;*                                           FUNCTION                                           *
                            ;************************************************************************************************
                            ;undefined FUN_20002df4(undefined * param_1)
          ;param_1       undefined *         r0                      
                                                          ;XREF[1,0]:   20002b72
ram:20002df4    30b5            push        {r4,r5,lr}                              
ram:20002df6    eff31081        mrs         r1,primask                              
ram:20002dfa    72b6            cpsid       i                                       
ram:20002dfc    0d4a            ldr         r2,[DAT_20002e34]                       ;= 20003460h
ram:20002dfe    9468            ldr         r4,[r2,#0x8]=>LAB_20003466+2            
ram:20002e00    0123            movs        r3,#0x1                                 
ram:20002e02    24b1            cbz         r4,LAB_20002e0e                         
ram:20002e04    0370            strb        r3,[param_1,#0x0]                       
                            LAB_20002e06:                 ;XREF[1,0]:   20002e32
ram:20002e06    0029            cmp         r1,#0x0                                 
ram:20002e08    00d1            bne         LAB_20002e0c                            
ram:20002e0a    62b6            cpsie       i                                       
                            LAB_20002e0c:                 ;XREF[1,0]:   20002e08
ram:20002e0c    30bd            pop         {r4,r5,pc}                              
                            LAB_20002e0e:                 ;XREF[1,0]:   20002e02
ram:20002e0e    9360            str         r3,[r2,#0x8]=>LAB_20003466+2            
ram:20002e10    4ff0e023        mov.w       r3,#0xe000e000                          
ram:20002e14    d3f88051        ldr.w       r5,[r3,#0x180]=>DAT_e000e180            
ram:20002e18    074c            ldr         r4,[DAT_20002e38]                       ;= BCFF06FCh
ram:20002e1a    2540            ands        r5,r4                                   
ram:20002e1c    1560            str         r5,[r2,#0x0]=>LAB_2000345e+2            
ram:20002e1e    c3f88041        str.w       r4,[r3,#0x180]=>DAT_e000e180            
ram:20002e22    d3f88441        ldr.w       r4,[r3,#0x184]=>DAT_e000e184            
ram:20002e26    5460            str         r4,[r2,#0x4]=>LAB_20003462+2            
ram:20002e28    5a17            asrs        r2,r3,#0x1d                             
ram:20002e2a    c3f88421        str.w       r2,[r3,#0x184]=>DAT_e000e184            
ram:20002e2e    0022            movs        r2,#0x0                                 
ram:20002e30    0270            strb        r2,[param_1,#0x0]                       
ram:20002e32    e8e7            b           LAB_20002e06                            
                            DAT_20002e34:                 ;XREF[1,0]:   20002dfc
ram:20002e34    60340020        undefined4  20003460h                               ;?  ->  20003460
                            DAT_20002e38:                 ;XREF[1,0]:   20002e18
ram:20002e38    fc06ffbc        undefined4  BCFF06FCh                               
                            ;************************************************************************************************
                            ;*                                           FUNCTION                                           *
                            ;************************************************************************************************
                            ;undefined FUN_20002e3c(int param_1)
          ;param_1       int                 r0                      
                                                          ;XREF[2,0]:   20002b90,20002baa
ram:20002e3c    0b49            ldr         r1,[DAT_20002e6c]                       ;= 20003460h
ram:20002e3e    8a68            ldr         r2,[r1,#0x8]=>LAB_20003466+2            
ram:20002e40    002a            cmp         r2,#0x0                                 
ram:20002e42    11d0            beq         LAB_20002e68                            
ram:20002e44    0028            cmp         param_1,#0x0                            
ram:20002e46    0fd1            bne         LAB_20002e68                            
ram:20002e48    eff31080        mrs         param_1,primask                         
ram:20002e4c    72b6            cpsid       i                                       
ram:20002e4e    0b68            ldr         r3,[r1,#0x0]=>LAB_2000345e+2            
ram:20002e50    4ff0e022        mov.w       r2,#0xe000e000                          
ram:20002e54    c2f80031        str.w       r3,[r2,#0x100]=>DAT_e000e100            
ram:20002e58    4b68            ldr         r3,[r1,#0x4]=>LAB_20003462+2            
ram:20002e5a    c2f80431        str.w       r3,[r2,#0x104]=>DAT_e000e104            
ram:20002e5e    0022            movs        r2,#0x0                                 
ram:20002e60    8a60            str         r2,[r1,#0x8]=>LAB_20003466+2            
ram:20002e62    0028            cmp         param_1,#0x0                            
ram:20002e64    00d1            bne         LAB_20002e68                            
ram:20002e66    62b6            cpsie       i                                       
                            LAB_20002e68:                 ;XREF[3,0]:   20002e42,20002e46,20002e64
ram:20002e68    7047            bx          lr                                      
ram:20002e6a    0000            movs        r0,r0                                   
                            DAT_20002e6c:                 ;XREF[1,0]:   20002e3c
ram:20002e6c    60340020        undefined4  20003460h                               ;?  ->  20003460
                            ;************************************************************************************************
                            ;*                                           FUNCTION                                           *
                            ;************************************************************************************************
                            ;char * FUN_20002e70(byte * param_1, byte * param_2)
          ;param_1       byte *              r0                      
          ;param_2       byte *              r1                      
          ;local_5c      undefined2         -5c                      ;XREF[3,0]:   20002e7e,20002ec2,20002ec6
          ;local_60      undefined2         -60                      ;XREF[3,0]:   20002e7a,20002e9e,20002ecc
                                                          ;XREF[1,0]:   20002928
ram:20002e70    f0b5            push        {r4,r5,r6,r7,lr}                        
ram:20002e72    0c46            mov         r4,param_2                              
ram:20002e74    93b0            sub         sp,#0x4c                                
ram:20002e76    1f21            movs        param_2,#0x1f                           
ram:20002e78    0726            movs        r6,#0x7                                 
ram:20002e7a    adf80010        strh.w      param_2,[sp,#0x0]=>local_60             
ram:20002e7e    adf80410        strh.w      param_2,[sp,#local_5c+0x60]             
ram:20002e82    0027            movs        r7,#0x0                                 
ram:20002e84    50b1            cbz         param_1,LAB_20002e9c                    
ram:20002e86    c178            ldrb        param_2,[param_1,#0x3]                  
ram:20002e88    4907            lsls        param_2,param_2,#0x1d                   
ram:20002e8a    0dd5            bpl         LAB_20002ea8                            
ram:20002e8c    6a46            mov         r2,sp                                   
ram:20002e8e    02a9            add         param_2,sp,#0x8                         
ram:20002e90    fff72bfc        bl          FUN_200026ea                            ;char * FUN_200026ea(byte * param_1, ...
ram:20002e94    0028            cmp         param_1,#0x0                            
ram:20002e96    08d1            bne         LAB_20002eaa                            
ram:20002e98    02ad            add         r5,sp,#0x8                              
ram:20002e9a    02e0            b           LAB_20002ea2                            
                            LAB_20002e9c:                 ;XREF[1,0]:   20002e84
ram:20002e9c    0025            movs        r5,#0x0                                 
ram:20002e9e    adf80070        strh.w      r7,[sp,#0x0]=>local_60                  
                            LAB_20002ea2:                 ;XREF[1,0]:   20002e9a
ram:20002ea2    6cb1            cbz         r4,LAB_20002ec0                         
ram:20002ea4    e078            ldrb        param_1,[r4,#0x3]                       
ram:20002ea6    10b1            cbz         param_1,LAB_20002eae                    
                            LAB_20002ea8:                 ;XREF[1,0]:   20002e8a
ram:20002ea8    3046            mov         param_1,r6                              
                            LAB_20002eaa:                 ;XREF[3,0]:   20002e96,20002eba,20002ed6
ram:20002eaa    13b0            add         sp,#0x4c                                
ram:20002eac    f0bd            pop         {r4,r5,r6,r7,pc}                        
                            LAB_20002eae:                 ;XREF[1,0]:   20002ea6
ram:20002eae    01aa            add         r2,sp,#0x4                              
ram:20002eb0    0aa9            add         param_2,sp,#0x28                        
ram:20002eb2    2046            mov         param_1,r4                              
ram:20002eb4    fff719fc        bl          FUN_200026ea                            ;char * FUN_200026ea(byte * param_1, ...
ram:20002eb8    0028            cmp         param_1,#0x0                            
ram:20002eba    f6d1            bne         LAB_20002eaa                            
ram:20002ebc    0aaa            add         r2,sp,#0x28                             
ram:20002ebe    02e0            b           LAB_20002ec6                            
                            LAB_20002ec0:                 ;XREF[1,0]:   20002ea2
ram:20002ec0    0022            movs        r2,#0x0                                 
                                                          ;XREF[0,1]:   200053fe
ram:20002ec2    adf80470        strh.w      r7,[sp,#local_5c+0x60]                  
                            LAB_20002ec6:                 ;XREF[1,1]:   20002ebe,200053fe
ram:20002ec6    bdf80400        ldrh.w      param_1,[sp,#local_5c+0x60]             
ram:20002eca    c3b2            uxtb        r3,param_1                              
ram:20002ecc    bdf80000        ldrh.w      param_1,[sp,#0x0]=>local_60             
ram:20002ed0    c1b2            uxtb        param_2,param_1                         
ram:20002ed2    2846            mov         param_1,r5                              
ram:20002ed4    72df            svc         0x72                                    
ram:20002ed6    e8e7            b           LAB_20002eaa                            
                            ;************************************************************************************************
                            ;*                                           FUNCTION                                           *
                            ;************************************************************************************************
                            ;undefined * FUN_20002ed8(int * param_1)
          ;param_1       int *               r0                      
                                                          ;XREF[1,0]:   20004328
ram:20002ed8    70b5            push        {r4,r5,r6,lr}                           
ram:20002eda    0546            mov         r5,param_1                              
ram:20002edc    0146            mov         r1,param_1                              
ram:20002ede    1c22            movs        r2,#0x1c                                
ram:20002ee0    0f48            ldr         param_1,[DAT_20002f20]                  ;= 200030A0h
ram:20002ee2    fff79df9        bl          FUN_20002220                            ;undefined FUN_20002220(undefined4 * ...
ram:20002ee6    0f4c            ldr         r4,[DAT_20002f24]                       ;= 20002C00h
ram:20002ee8    0026            movs        r6,#0x0                                 
ram:20002eea    2670            strb        r6,[r4,#0x0]=>LAB_20002c00              
ram:20002eec    2868            ldr         param_1,[r5,#0x0]                       
ram:20002eee    30b1            cbz         param_1,LAB_20002efe                    
ram:20002ef0    0168            ldr         r1,[param_1,#0x0]                       
ram:20002ef2    6160            str         r1,[r4,#offset LAB_20002c04 &0xff]      
ram:20002ef4    4068            ldr         param_1,[param_1,#0x4]                  
ram:20002ef6    a060            str         param_1,[r4,#offset LAB_20002c08 &0xff] 
ram:20002ef8    201d            adds        param_1,r4,#0x4                         
ram:20002efa    7adf            svc         0x7a                                    
ram:20002efc    02e0            b           LAB_20002f04                            
                            LAB_20002efe:                 ;XREF[1,0]:   20002eee
ram:20002efe    0948            ldr         param_1,[DAT_20002f24]                  ;= 20002C00h
ram:20002f00    001d            adds        param_1,param_1,#0x4                    
ram:20002f02    7bdf            svc         0x7b                                    
                            LAB_20002f04:                 ;XREF[1,0]:   20002efc
ram:20002f04    0028            cmp         param_1,#0x0                            
ram:20002f06    0ad1            bne         LAB_20002f1e                            
ram:20002f08    4ff6ff70        movw        param_1,#0xffff                         
ram:20002f0c    6080            strh        param_1,[r4,#offset LAB_20002c02 &0xff] 
ram:20002f0e    6670            strb        r6,[r4,#offset LAB_20002c00+1 &0xff]    
ram:20002f10    bde87040        pop.w       {r4,r5,r6,lr}                           
ram:20002f14    044a            ldr         r2,[DAT_20002f28]                       ;= 0007D591h
ram:20002f16    0021            movs        r1,#0x0                                 
ram:20002f18    0448            ldr         param_1,[DAT_20002f2c]                  ;= 0007D7A4h
ram:20002f1a    fff791be        b.w         LAB_20002c40                            
                            LAB_20002f1e:                 ;XREF[1,0]:   20002f06
ram:20002f1e    70bd            pop         {r4,r5,r6,pc}                           
                            DAT_20002f20:                 ;XREF[1,0]:   20002ee0
ram:20002f20    a0300020        undefined4  200030A0h                               ;?  ->  200030a0
                            DAT_20002f24:                 ;XREF[2,0]:   20002ee6,20002efe
ram:20002f24    002c0020        undefined4  20002C00h                               ;?  ->  20002c00
                            DAT_20002f28:                 ;XREF[1,0]:   20002f14
ram:20002f28    91d50700        undefined4  0007D591h                               
                            DAT_20002f2c:                 ;XREF[1,0]:   20002f18
ram:20002f2c    a4d70700        undefined4  0007D7A4h                               
                            ;************************************************************************************************
                            ;*                                           FUNCTION                                           *
                            ;************************************************************************************************
                            ;undefined FUN_20002f30(short * param_1)
          ;param_1       short *             r0                      
          ;local_18      undefined1         -18                      ;XREF[2,0]:   2000383c,2000384c
                                                          ;XREF[3,0]:   20003284,20004fd6,20004ff0
ram:20002f30    70b5            push        {r4,r5,r6,lr}                           
ram:20002f32    1e4c            ldr         r4,[DAT_20002fac]                       ;= 200030A0h
ram:20002f34    0688            ldrh        r6,[param_1,#0x0]                       
ram:20002f36    0025            movs        r5,#0x0                                 
ram:20002f38    1b49            ldr         r1,[DAT_20002fa8]                       ;= 20002C00h
ram:20002f3a    e289            ldrh        r2,[r4,#0xe]=>LAB_200030ae              
ram:20002f3c    102e            cmp         r6,#0x10                                
ram:20002f3e    15d0            beq         LAB_20002f6c                            
ram:20002f40    1b4b            ldr         r3=>DAT_0007d7a4,[DAT_20002fb0]         ;= 0007D7A4h
ram:20002f42    112e            cmp         r6,#0x11                                
ram:20002f44    1cd0            beq         LAB_20002f80                            
ram:20002f46    122e            cmp         r6,#0x12                                
ram:20002f48    29d0            beq         LAB_20002f9e                            
ram:20002f4a    502e            cmp         r6,#0x50                                
ram:20002f4c    17d1            bne         LAB_20002f7e                            
ram:20002f4e    30f8061f        ldrh.w      r1,[param_1,#0x6]!                      
ram:20002f52    9142            cmp         r1,r2                                   
ram:20002f54    13d1            bne         LAB_20002f7e                            
ram:20002f56    4189            ldrh        r1,[param_1,#0xa]                       
ram:20002f58    0229            cmp         r1,#0x2                                 
ram:20002f5a    10d1            bne         LAB_20002f7e                            
ram:20002f5c    007b            ldrb        param_1,[param_1,#0xc]                  
ram:20002f5e    10f0010f        tst         param_1,#0x1                            
ram:20002f62    11d0            beq         LAB_20002f88                            
                            LAB_20002f64:                 ;XREF[2,0]:   20002f7c,20002fa6
ram:20002f64    bde87040        pop.w       {r4,r5,r6,lr}                           
ram:20002f68    00f05cbc        b.w         LAB_20003824                            
                            LAB_20002f6c:                 ;XREF[1,0]:   20002f3e
ram:20002f6c    8388            ldrh        r3,[param_1,#0x4]                       
ram:20002f6e    4b80            strh        r3,[r1,#offset LAB_20002c02 &0xff]      
ram:20002f70    8369            ldr         r3,[param_1,#0x18]                      
ram:20002f72    cb60            str         r3,[r1,#offset LAB_20002c0c &0xff]      
ram:20002f74    c069            ldr         param_1,[param_1,#0x1c]                 
ram:20002f76    0861            str         param_1,[r1,#offset LAB_20002c10 &0xff] 
ram:20002f78    4d70            strb        r5,[r1,#offset LAB_20002c00+1 &0xff]    
ram:20002f7a    002a            cmp         r2,#0x0                                 
ram:20002f7c    f2d0            beq         LAB_20002f64                            
                            LAB_20002f7e:                 ;XREF[5,0]:   20002f4c,20002f54,20002f5a,20002f90
                                                          ;             20002f96
ram:20002f7e    70bd            pop         {r4,r5,r6,pc}                           
                            LAB_20002f80:                 ;XREF[1,0]:   20002f44
ram:20002f80    4ff6ff70        movw        param_1,#0xffff                         
ram:20002f84    4880            strh        param_1,[r1,#offset LAB_20002c02 &0xff] 
ram:20002f86    4d70            strb        r5,[r1,#offset LAB_20002c00+1 &0xff]    
                            LAB_20002f88:                 ;XREF[1,0]:   20002f62
ram:20002f88    1868            ldr         param_1,[r3,#0x0]=>DAT_0007d7a4         
ram:20002f8a    fff70bff        bl          FUN_20002da4                            ;undefined4 FUN_20002da4(int param_1,...
ram:20002f8e    0028            cmp         param_1,#0x0                            
ram:20002f90    f5d0            beq         LAB_20002f7e                            
ram:20002f92    a169            ldr         r1,[r4,#0x18]=>LAB_200030b6+2           
ram:20002f94    0029            cmp         r1,#0x0                                 
ram:20002f96    f2d0            beq         LAB_20002f7e                            
ram:20002f98    bde87040        pop.w       {r4,r5,r6,lr}                           
ram:20002f9c    0847            bx          r1=>SUB_f241000e                        
                            LAB_20002f9e:                 ;XREF[1,0]:   20002f48
ram:20002f9e    8268            ldr         r2,[param_1,#0x8]                       
ram:20002fa0    ca60            str         r2,[r1,#offset LAB_20002c0c &0xff]      
ram:20002fa2    c068            ldr         param_1,[param_1,#0xc]                  
ram:20002fa4    0861            str         param_1,[r1,#offset LAB_20002c10 &0xff] 
ram:20002fa6    dde7            b           LAB_20002f64                            
                            DAT_20002fa8:                 ;XREF[1,0]:   20002f38
ram:20002fa8    002c0020        undefined4  20002C00h                               ;?  ->  20002c00
                            DAT_20002fac:                 ;XREF[1,0]:   20002f32
ram:20002fac    a0300020        undefined4  200030A0h                               ;?  ->  200030a0
                            DAT_20002fb0:                 ;XREF[1,0]:   20002f40
ram:20002fb0    a4d70700        undefined4  0007D7A4h                               
                            ;************************************************************************************************
                            ;*                                           FUNCTION                                           *
                            ;************************************************************************************************
                            ;undefined FUN_20002fb4(undefined4 param_1, undefined4 param_2, undefined4 param_3, undefined4 param_4)
          ;param_1       undefined4          r0                      
          ;param_2       undefined4          r1                      
          ;param_3       undefined4          r2                      
          ;param_4       undefined4          r3                      
                                                          ;XREF[1,0]:   2000427a
ram:20002fb4    0148            ldr         param_1,[DAT_20002fbc]                  ;= 0007D7A4h
ram:20002fb6    0068            ldr         param_1,[param_1,#0x0]=>DAT_0007d7a4    
ram:20002fb8    fff7f4be        b.w         FUN_20002da4                            ;undefined4 FUN_20002da4(int param_1,...
                            DAT_20002fbc:                 ;XREF[1,0]:   20002fb4
ram:20002fbc    a4d70700        undefined4  0007D7A4h                               
                            ;************************************************************************************************
                            ;*                                           FUNCTION                                           *
                            ;************************************************************************************************
                            ;char * FUN_20002fc0(int param_1, ushort * param_2, uint param_3, undefined4 param_4)
          ;param_1       int                 r0                      
          ;param_2       ushort *            r1                      
          ;param_3       uint                r2                      
          ;param_4       undefined4          r3                      
          ;local_13      undefined2         -13                      ;XREF[1,0]:   20002ffc
          ;local_17      undefined4         -17                      ;XREF[1,0]:   20002ff6
          ;local_18      undefined1         -18                      ;XREF[1,0]:   2000300a
                                                          ;XREF[1,0]:   2000278e
ram:20002fc0    7cb5            push        {param_3,param_4,r4,r5,r6,lr}           
ram:20002fc2    0546            mov         r5,param_1                              
ram:20002fc4    0888            ldrh        param_1,[param_2,#0x0]                  
ram:20002fc6    0c46            mov         r4,param_2                              
ram:20002fc8    0930            adds        param_1,#0x9                            
ram:20002fca    9042            cmp         param_1,param_3                         
ram:20002fcc    01d9            bls         LAB_20002fd2                            
ram:20002fce    0c20            movs        param_1,#0xc                            
                            LAB_20002fd0:                 ;XREF[1,0]:   20002fd8
ram:20002fd0    7cbd            pop         {param_3,param_4,r4,r5,r6,pc}           
                            LAB_20002fd2:                 ;XREF[1,0]:   20002fcc
ram:20002fd2    6846            mov         param_1,sp                              
ram:20002fd4    71df            svc         0x71                                    
ram:20002fd6    0028            cmp         param_1,#0x0                            
ram:20002fd8    fad1            bne         LAB_20002fd0                            
ram:20002fda    2188            ldrh        param_2,[r4,#0x0]                       
ram:20002fdc    0820            movs        param_1,#0x8                            
ram:20002fde    6854            strb        param_1,[r5,param_2]                    
ram:20002fe0    2088            ldrh        param_1,[r4,#0x0]                       
ram:20002fe2    1b21            movs        param_2,#0x1b                           
ram:20002fe4    401c            adds        param_1,param_1,#0x1                    
ram:20002fe6    80b2            uxth        param_1,param_1                         
ram:20002fe8    2080            strh        param_1,[r4,#0x0]                       
ram:20002fea    2954            strb        param_2,[r5,param_1]                    
ram:20002fec    2088            ldrh        param_1,[r4,#0x0]                       
ram:20002fee    401c            adds        param_1,param_1,#0x1                    
ram:20002ff0    80b2            uxth        param_1,param_1                         
ram:20002ff2    2080            strh        param_1,[r4,#0x0]                       
ram:20002ff4    2844            add         param_1,r5                              
ram:20002ff6    ddf80110        ldr.w       param_2,[sp,#local_17+0x18]             
ram:20002ffa    0160            str         param_2,[param_1,#0x0]                  
ram:20002ffc    bdf80510        ldrh.w      param_2,[sp,#local_13+0x18]             
ram:20003000    8180            strh        param_2,[param_1,#0x4]                  
ram:20003002    2088            ldrh        param_1,[r4,#0x0]                       
ram:20003004    801d            adds        param_1,param_1,#0x6                    
ram:20003006    80b2            uxth        param_1,param_1                         
ram:20003008    2080            strh        param_1,[r4,#0x0]                       
ram:2000300a    9df80010        ldrb.w      param_2,[sp,#0x0]=>local_18             
ram:2000300e    01b1            cbz         param_2,LAB_20003012                    
ram:20003010    0121            movs        param_2,#0x1                            
                            LAB_20003012:                 ;XREF[1,0]:   2000300e
ram:20003012    2954            strb        param_2,[r5,param_1]                    
ram:20003014    2088            ldrh        param_1,[r4,#0x0]                       
ram:20003016    401c            adds        param_1,param_1,#0x1                    
ram:20003018    2080            strh        param_1,[r4,#0x0]                       
ram:2000301a    0020            movs        param_1,#0x0                            
ram:2000301c    7cbd            pop         {param_3,param_4,r4,r5,r6,pc}           
ram:2000301e    0000            movs        r0,r0                                   
                            ;************************************************************************************************
                            ;*                                           FUNCTION                                           *
                            ;************************************************************************************************
                            ;undefined8 FUN_20003020(ushort * param_1, undefined * param_2)
          ;param_1       ushort *            r0                      
          ;param_2       undefined *         r1                      
          ;local_18      undefined2         -18                      ;XREF[3,0]:   2000304c,2000305a,20003062
          ;local_1c      undefined4         -1c                      ;XREF[1,0]:   2000306a
          ;local_20      undefined4         -20                      ;XREF[2,0]:   20003068,20003074
          ;local_24      undefined4         -24                      ;XREF[2,0]:   20003066,2000307c
          ;local_28      undefined4         -28                      ;XREF[2,1]:   2000305e,2000306e,20003078
                                                          ;XREF[1,0]:   20004dd2
ram:20003020    f0b5            push        {r4,r5,r6,r7,lr}                        
ram:20003022    85b0            sub         sp,#0x14                                
ram:20003024    0a46            mov         r2,param_2                              
ram:20003026    0500            movs        r5,param_1                              
ram:20003028    2fd0            beq         LAB_2000308a                            
ram:2000302a    2888            ldrh        param_1,[r5,#0x0]                       
ram:2000302c    a0f57f41        sub.w       param_2,param_1,#0xff00                 
ram:20003030    ff39            subs        param_2,#0xff                           
ram:20003032    2cd0            beq         LAB_2000308e                            
ram:20003034    1748            ldr         param_1,[PTR_SUB_20003094]              ;= 20002c14
ram:20003036    0078            ldrb        param_1,[param_1,#0x0]=>SUB_20002c14    ;= 30h
ram:20003038    48b3            cbz         param_1,LAB_2000308e                    
ram:2000303a    164c            ldr         r4,[PTR_SUB_20003094]                   ;= 20002c14
ram:2000303c    1020            movs        param_1,#0x10                           
ram:2000303e    641c            adds        r4,r4,#0x1                              
ram:20003040    0127            movs        r7,#0x1                                 
ram:20003042    2070            strb        param_1,[r4,#0x0]=>DAT_20002c15         ;= B5h
ram:20003044    0720            movs        param_1,#0x7                            
ram:20003046    6070            strb        param_1,[r4,#0x1]=>DAT_20002c16         ;= CBh
ram:20003048    a770            strb        r7,[r4,#0x2]=>DAT_20002c17              
ram:2000304a    0320            movs        param_1,#0x3                            
ram:2000304c    adf81000        strh.w      param_1,[sp,#local_18+0x28]             
ram:20003050    0026            movs        r6,#0x0                                 
ram:20003052    e11c            adds        param_2=>DAT_20002c18,r4,#0x3           ;= 08h
ram:20003054    1046            mov         param_1,r2                              
ram:20003056    02f0e4f9        bl          FUN_20005422                            ;undefined4 FUN_20005422(undefined4 p...
ram:2000305a    bdf81010        ldrh.w      param_2,[sp,#local_18+0x28]             
ram:2000305e    0096            str         r6,[sp,#0x0]=>local_28                  
ram:20003060    0844            add         param_1,param_2                         
ram:20003062    adf81000        strh.w      param_1,[sp,#local_18+0x28]             
ram:20003066    0196            str         r6,[sp,#local_24+0x28]                  
ram:20003068    0296            str         r6,[sp,#local_20+0x28]                  
ram:2000306a    0396            str         r6,[sp,#local_1c+0x28]                  
ram:2000306c    288a            ldrh        param_1,[r5,#0x10]                      
ram:2000306e    adf80000        strh.w      param_1,[sp,#0x0]=>local_28             
ram:20003072    04a8            add         param_1,sp,#0x10                        
ram:20003074    cde90204        strd        param_1,r4=>DAT_2000...,[sp,#local_20...;= B5h
ram:20003078    8df80270        strb.w      r7,[sp,#local_28+0x2a]                  
ram:2000307c    adf80460        strh.w      r6,[sp,#local_24+0x28]                  
ram:20003080    2888            ldrh        param_1,[r5,#0x0]                       
ram:20003082    6946            mov         param_2,sp                              
ram:20003084    a6df            svc         0xa6                                    
                            LAB_20003086:                 ;XREF[2,0]:   2000308c,20003090
ram:20003086    05b0            add         sp,#0x14                                
ram:20003088    f0bd            pop         {r4,r5,r6,r7,pc}                        
                            LAB_2000308a:                 ;XREF[1,0]:   20003028
ram:2000308a    0e20            movs        param_1,#0xe                            
ram:2000308c    fbe7            b           LAB_20003086                            
                            LAB_2000308e:                 ;XREF[2,0]:   20003032,20003038
ram:2000308e    0820            movs        param_1,#0x8                            
ram:20003090    f9e7            b           LAB_20003086                            
ram:20003092    0000            movs        r0,r0                                   
                            PTR_SUB_20003094:             ;XREF[2,0]:   20003034,2000303a
ram:20003094    142c0020        addr        SUB_20002c14                            ;= 30h
                            ;************************************************************************************************
                            ;*                                           FUNCTION                                           *
                            ;************************************************************************************************
                            ;undefined4 * FUN_20003098(undefined2 * param_1, int param_2)
          ;param_1       undefined2 *        r0                      
          ;param_2       int                 r1                      
          ;local_1c      undefined4         -1c                      ;XREF[1,0]:   200030b6
                                                          ;XREF[1,0]:   200042f2
ram:20003098    30b5            push        {r4,r5,lr}                              
ram:2000309a    85b0            sub         sp,#0x14                                
ram:2000309c    0d46            mov         r5,param_2                              
ram:2000309e    0400            movs        r4,param_1                              
ram:200030a0    39d0            beq         LAB_20003116                            
ram:200030a2    bdb3            cbz         r5,LAB_20003114                         
                            LAB_200030a4:                 ;XREF[1,0]:   2000386e
ram:200030a4    6868            ldr         param_1,[r5,#0x4]                       
ram:200030a6    a8b3            cbz         param_1,LAB_20003114                    
                            LAB_200030a8:                 ;XREF[1,0]:   20003856
ram:200030a8    1c4b            ldr         r3,[DAT_2000311c]                       ;= 0007D7A8h
                                                          ;XREF[0,1]:   2000544c
ram:200030aa    4ff6ff70        movw        param_1,#0xffff                         
                            LAB_200030ae:                 ;XREF[1,0]:   20002f3a
ram:200030ae    2080            strh        param_1,[r4,#0x0]                       
                            LAB_200030b0:                 ;XREF[1,0]:   2000546c
                                                          ; FWD[4,0]:   0007d7a8,0007d7ac,0007d7b0,0007d7b4
ram:200030b0    0fcb            ldmia       r3=>DAT_0007d7a8,{param_1,param_2,r2,...
                                                          ;XREF[0,3]:   20003836,20003848,2000547c
ram:200030b2    0df1040c        add.w       r12,sp,#0x4                             
                                                          ;XREF[0,4]:   20002f92,20003864,2000545a,20005476
ram:200030b6    8ce80f00        stm         r12=>local_1c,{param_1,param_2,r2,r3}   
ram:200030ba    41              ??          41h    A                                
ram:200030bb    f2              ??          F2h                                     
                            DAT_200030bc:                 ;XREF[12,0]:  20003612,2000366c,20003690,200036a2
                                                          ;             200036e8,20004e70,20004ea0,20004f10
                                                          ;             20004f42,20004f4a,20004f7a,20004f90
ram:200030bc    30              undefined1  30h                                     
                            DAT_200030bd:                 ;XREF[7,0]:   2000369c,200036d8,200036dc,20004e72
                                                          ;             20004f38,20004f3c,20004f62
ram:200030bd    50              undefined1  50h                                     
                            DAT_200030be:                 ;XREF[6,0]:   20003644,200036c8,20004e74,20004f04
                                                          ;             20004f0e,20004f68
ram:200030be    ad              undefined1  ADh                                     
ram:200030bf    f8              ??          F8h                                     
                            DAT_200030c0:                 ;XREF[1,0]:   20003682
ram:200030c0    00              ??          00h                                     
ram:200030c1    00              ??          00h                                     
ram:200030c2    01              ??          01h                                     
ram:200030c3    a8              ??          A8h                                     
                            DAT_200030c4:                 ;XREF[1,0]:   20003684
ram:200030c4    81              ??          81h                                     
ram:200030c5    1e              ??          1Eh                                     
ram:200030c6    63              ??          63h    c                                
ram:200030c7    df              ??          DFh                                     
                            DAT_200030c8:                 ;XREF[1,0]:   2000368c
ram:200030c8    00              ??          00h                                     
ram:200030c9    28              ??          28h    (                                
ram:200030ca    21              ??          21h    !                                
ram:200030cb    d1              ??          D1h                                     
                            DAT_200030cc:                 ;XREF[1,0]:   20003686
ram:200030cc    22              ??          22h    "                                
ram:200030cd    1d              ??          1Dh                                     
ram:200030ce    69              ??          69h    i                                
ram:200030cf    46              ??          46h    F                                
                            DAT_200030d0:                 ;XREF[1,0]:   20003686
ram:200030d0    01              ??          01h                                     
ram:200030d1    20              ??          20h                                     
ram:200030d2    a0              ??          A0h                                     
ram:200030d3    df              ??          DFh                                     
                            DAT_200030d4:                 ;XREF[1,0]:   2000368a
ram:200030d4    00              ??          00h                                     
ram:200030d5    28              ??          28h    (                                
ram:200030d6    1b              ??          1Bh                                     
ram:200030d7    d1              ??          D1h                                     
ram:200030d8    9d              ??          9Dh                                     
ram:200030d9    f8              ??          F8h                                     
ram:200030da    02              ??          02h                                     
ram:200030db    00              ??          00h                                     
ram:200030dc    a0              ??          A0h                                     
ram:200030dd    71              ??          71h    q                                
ram:200030de    20              ??          20h                                     
ram:200030df    46              ??          46h    F                                
ram:200030e0    00              ??          00h                                     
ram:200030e1    f0              ??          F0h                                     
ram:200030e2    b4              ??          B4h                                     
ram:200030e3    fe              ??          FEh                                     
ram:200030e4    00              ??          00h                                     
ram:200030e5    28              ??          28h    (                                
ram:200030e6    13              ??          13h                                     
ram:200030e7    d1              ??          D1h                                     
ram:200030e8    20              ??          20h                                     
ram:200030e9    46              ??          46h    F                                
ram:200030ea    00              ??          00h                                     
ram:200030eb    f0              ??          F0h                                     
ram:200030ec    04              ??          04h                                     
ram:200030ed    fd              ??          FDh                                     
ram:200030ee    00              ??          00h                                     
ram:200030ef    28              ??          28h    (                                
ram:200030f0    0e              ??          0Eh                                     
ram:200030f1    d1              ??          D1h                                     
ram:200030f2    29              ??          29h    )                                
ram:200030f3    46              ??          46h    F                                
ram:200030f4    20              ??          20h                                     
ram:200030f5    46              ??          46h    F                                
ram:200030f6    00              ??          00h                                     
ram:200030f7    f0              ??          F0h                                     
ram:200030f8    35              ??          35h    5                                
ram:200030f9    ff              ??          FFh                                     
ram:200030fa    00              ??          00h                                     
ram:200030fb    28              ??          28h    (                                
ram:200030fc    08              ??          08h                                     
ram:200030fd    d1              ??          D1h                                     
ram:200030fe    68              ??          68h    h                                
ram:200030ff    68              ??          68h    h                                
ram:20003100    a0              ??          A0h                                     
ram:20003101    62              ??          62h    b                                
ram:20003102    a8              ??          A8h                                     
ram:20003103    68              ??          68h    h                                
ram:20003104    00              ??          00h                                     
ram:20003105    b1              ??          B1h                                     
ram:20003106    e0              ??          E0h                                     
ram:20003107    62              ??          62h    b                                
ram:20003108    05              ??          05h                                     
ram:20003109    49              ??          49h    I                                
ram:2000310a    01              ??          01h                                     
ram:2000310b    20              ??          20h                                     
ram:2000310c    08              ??          08h                                     
ram:2000310d    70              ??          70h    p                                
ram:2000310e    00              ??          00h                                     
ram:2000310f    20              ??          20h                                     
                            LAB_20003110:                 ;XREF[1,0]:   20003118
ram:20003110    05b0            add         sp,#0x14                                
ram:20003112    30bd            pop         {r4,r5,pc}                              
                            LAB_20003114:                 ;XREF[2,0]:   200030a2,200030a6
ram:20003114    ffe7            b           LAB_20003116                            
                            LAB_20003116:                 ;XREF[2,0]:   200030a0,20003114
ram:20003116    0e20            movs        param_1,#0xe                            
ram:20003118    fae7            b           LAB_20003110                            
ram:2000311a    0000            movs        r0,r0                                   
                            DAT_2000311c:                 ;XREF[1,0]:   200030a8
ram:2000311c    a8d70700        undefined4  0007D7A8h                               
ram:20003120    14              ??          14h                                     ;?  ->  20002c14
ram:20003121    2c              ??          2Ch    ,                                
ram:20003122    00              ??          00h                                     
ram:20003123    20              ??          20h                                     
                            ;************************************************************************************************
                            ;*                                           FUNCTION                                           *
                            ;************************************************************************************************
                            ;undefined FUN_20003124(ushort * param_1, short * param_2, undefined4 param_3, uint param_4)
          ;param_1       ushort *            r0                      
          ;param_2       short *             r1                      
          ;param_3       undefined4          r2                      
          ;param_4       uint                r3                      
          ;local_10      undefined1         -10                      ;XREF[1,0]:   20003198
          ;local_14      undefined4         -14                      ;XREF[1,0]:   2000319c
          ;local_18      undefined1         -18                      ;XREF[1,0]:   20003190
                                                          ;XREF[1,0]:   2000328c
ram:20003124    3eb5            push        {param_2,param_3,param_4,r4,r5,lr}      
ram:20003126    0028            cmp         param_1,#0x0                            
ram:20003128    3cd0            beq         LAB_200031a4                            
ram:2000312a    0029            cmp         param_2,#0x0                            
ram:2000312c    3ad0            beq         LAB_200031a4                            
ram:2000312e    826a            ldr         param_3,[param_1,#0x28]                 
ram:20003130    002a            cmp         param_3,#0x0                            
ram:20003132    37d0            beq         LAB_200031a4                            
ram:20003134    0a88            ldrh        param_3,[param_2,#0x0]                  
ram:20003136    102a            cmp         param_3,#0x10                           
ram:20003138    23d0            beq         LAB_20003182                            
ram:2000313a    112a            cmp         param_3,#0x11                           
ram:2000313c    33d0            beq         LAB_200031a6                            
ram:2000313e    502a            cmp         param_3,#0x50                           
ram:20003140    21d0            beq         LAB_20003186                            
ram:20003142    512a            cmp         param_3,#0x51                           
ram:20003144    2ed1            bne         LAB_200031a4                            
ram:20003146    0446            mov         r4,param_1                              
ram:20003148    0a46            mov         param_3,param_2                         
ram:2000314a    11f8060f        ldrb.w      param_1,[param_2,#0x6]!                 
ram:2000314e    0228            cmp         param_1,#0x2                            
ram:20003150    28d1            bne         LAB_200031a4                            
ram:20003152    4888            ldrh        param_1,[param_2,#0x2]                  
ram:20003154    238a            ldrh        param_4,[r4,#0x10]                      
ram:20003156    9842            cmp         param_1,param_4                         
ram:20003158    24d1            bne         LAB_200031a4                            
ram:2000315a    907b            ldrb        param_1,[param_3,#0xe]                  
ram:2000315c    0428            cmp         param_1,#0x4                            
ram:2000315e    21d0            beq         LAB_200031a4                            
ram:20003160    0628            cmp         param_1,#0x6                            
ram:20003162    1fd0            beq         LAB_200031a4                            
ram:20003164    0528            cmp         param_1,#0x5                            
ram:20003166    1dd0            beq         LAB_200031a4                            
ram:20003168    2046            mov         param_1,r4                              
ram:2000316a    891c            adds        param_2,param_2,#0x2                    
ram:2000316c    01f050fd        bl          FUN_20004c10                            ;uint FUN_20004c10(ushort * param_1, ...
ram:20003170    0028            cmp         param_1,#0x0                            
ram:20003172    17d0            beq         LAB_200031a4                            
ram:20003174    e16a            ldr         param_2,[r4,#0x2c]                      
ram:20003176    0029            cmp         param_2,#0x0                            
ram:20003178    14d0            beq         LAB_200031a4                            
ram:2000317a    03b0            add         sp,#0xc                                 
ram:2000317c    bde83040        pop.w       {r4,r5,lr}                              
ram:20003180    0847            bx          param_2                                 
                            LAB_20003182:                 ;XREF[1,0]:   20003138
ram:20003182    8988            ldrh        param_2,[param_2,#0x4]                  
ram:20003184    11e0            b           LAB_200031aa                            
                            LAB_20003186:                 ;XREF[1,0]:   20003140
ram:20003186    ca88            ldrh        param_3,[param_2,#0x6]                  
ram:20003188    0389            ldrh        param_4,[param_1,#0x8]                  
ram:2000318a    9a42            cmp         param_3,param_4                         
ram:2000318c    0ad1            bne         LAB_200031a4                            
ram:2000318e    0822            movs        param_3,#0x8                            
ram:20003190    8df80020        strb.w      param_3,[sp,#0x0]=>local_18             
ram:20003194    0a7c            ldrb        param_3,[param_2,#0x10]                 
ram:20003196    1231            adds        param_2,#0x12                           
ram:20003198    8df80820        strb.w      param_3,[sp,#local_10+0x18]             
ram:2000319c    0191            str         param_2,[sp,#local_14+0x18]             
ram:2000319e    826a            ldr         param_3,[param_1,#0x28]                 
ram:200031a0    6946            mov         param_2,sp                              
ram:200031a2    9047            blx         param_3                                 
                            LAB_200031a4:                 ;XREF[12,0]:  20003128,2000312c,20003132,20003144
                                                          ;             20003150,20003158,2000315e,20003162
                                                          ;             20003166,20003172,20003178,2000318c
ram:200031a4    3ebd            pop         {param_2,param_3,param_4,r4,r5,pc}      
                            LAB_200031a6:                 ;XREF[1,0]:   2000313c
ram:200031a6    4ff6ff71        movw        param_2,#0xffff                         
                            LAB_200031aa:                 ;XREF[1,0]:   20003184
ram:200031aa    0180            strh        param_2,[param_1,#0x0]                  
ram:200031ac    3ebd            pop         {param_2,param_3,param_4,r4,r5,pc}      
ram:200031ae    0000            movs        r0,r0                                   
                            ;************************************************************************************************
                            ;*                                           FUNCTION                                           *
                            ;************************************************************************************************
                            ;undefined8 FUN_200031b0(ushort * param_1, undefined * param_2)
          ;param_1       ushort *            r0                      
          ;param_2       undefined *         r1                      
          ;local_18      undefined2         -18                      ;XREF[3,0]:   200031d6,200031e2,200031ea
          ;local_1c      undefined4         -1c                      ;XREF[1,0]:   200031f2
          ;local_20      undefined4         -20                      ;XREF[2,0]:   200031f0,200031fc
          ;local_24      undefined4         -24                      ;XREF[2,0]:   200031ee,20003204
          ;local_28      undefined4         -28                      ;XREF[2,1]:   200031e6,200031f6,20003200
                                                          ;XREF[5,0]:   20002a9a,20002af6,20002b0c,20004e8c
                                                          ;             20004ec8
ram:200031b0    f0b5            push        {r4,r5,r6,r7,lr}                        
ram:200031b2    85b0            sub         sp,#0x14                                
                            LAB_200031b4:                 ;XREF[1,0]:   20004e8c
ram:200031b4    0a46            mov         r2,param_2                              
ram:200031b6    0500            movs        r5,param_1                              
ram:200031b8    2bd0            beq         LAB_20003212                            
ram:200031ba    2888            ldrh        param_1,[r5,#0x0]                       
                            LAB_200031bc:                 ;XREF[6,6]:   200034a2,200034b4,200034d0,200034ee
                                                          ;             20003508,20003520,2000349e,200034aa
                                                          ;             200034d4,200034f2,20003504,2000351c
ram:200031bc    a0f57f41        sub.w       param_2,param_1,#0xff00                 
                            LAB_200031c0:                 ;XREF[5,0]:   200034a4,200034b6,200034dc,200034f8
                                                          ;             20003528
ram:200031c0    ff39            subs        param_2,#0xff                           
ram:200031c2    28d0            beq         LAB_20003216                            
                            LAB_200031c4:                 ;XREF[6,0]:   200034a0,200034b0,200034d8,200034f6
                                                          ;             20003506,2000351e
ram:200031c4    1548            ldr         param_1,[PTR_SUB_2000321c]              ;= 20002c14
ram:200031c6    0078            ldrb        param_1,[param_1,#0x0]=>SUB_20002c14    ;= 30h
                            LAB_200031c8:                 ;XREF[3,0]:   200034be,200034de,200034fc
ram:200031c8    28b3            cbz         param_1,LAB_20003216                    
ram:200031ca    144c            ldr         r4,[PTR_SUB_2000321c]                   ;= 20002c14
                            LAB_200031cc:                 ;XREF[2,0]:   200034e0,200034fe
ram:200031cc    1120            movs        param_1,#0x11                           
ram:200031ce    641c            adds        r4,r4,#0x1                              
                            LAB_200031d0:                 ;XREF[2,0]:   200034e0,20003500
ram:200031d0    0127            movs        r7,#0x1                                 
ram:200031d2    2070            strb        param_1,[r4,#0x0]=>DAT_20002c15         ;= B5h
                            LAB_200031d4:                 ;XREF[1,0]:   200034ba
ram:200031d4    0026            movs        r6,#0x0                                 
ram:200031d6    adf81070        strh.w      r7,[sp,#local_18+0x28]                  
ram:200031da    611c            adds        param_2=>DAT_20002c16,r4,#0x1           ;= CBh
ram:200031dc    1046            mov         param_1,r2                              
ram:200031de    02f020f9        bl          FUN_20005422                            ;undefined4 FUN_20005422(undefined4 p...
ram:200031e2    bdf81010        ldrh.w      param_2,[sp,#local_18+0x28]             
ram:200031e6    0096            str         r6,[sp,#0x0]=>local_28                  
ram:200031e8    0844            add         param_1,param_2                         
ram:200031ea    adf81000        strh.w      param_1,[sp,#local_18+0x28]             
ram:200031ee    0196            str         r6,[sp,#local_24+0x28]                  
ram:200031f0    0296            str         r6,[sp,#local_20+0x28]                  
ram:200031f2    0396            str         r6,[sp,#local_1c+0x28]                  
ram:200031f4    288a            ldrh        param_1,[r5,#0x10]                      
                                                          ;XREF[0,2]:   2000413a,2000413e
ram:200031f6    adf80000        strh.w      param_1,[sp,#0x0]=>local_28             
ram:200031fa    04a8            add         param_1,sp,#0x10                        
                            LAB_200031fc:                 ;XREF[1,0]:   2000413a
ram:200031fc    cde90204        strd        param_1,r4=>DAT_2000...,[sp,#local_20...;= B5h
                            LAB_20003200:                 ;XREF[1,0]:   20004136
ram:20003200    8df80270        strb.w      r7,[sp,#local_28+0x2a]                  
                            LAB_20003204:                 ;XREF[4,0]:   200038c0,200038ce,200038fc,20004136
ram:20003204    adf80460        strh.w      r6,[sp,#local_24+0x28]                  
ram:20003208    2888            ldrh        param_1,[r5,#0x0]                       
ram:2000320a    6946            mov         param_2,sp                              
ram:2000320c    a6df            svc         0xa6                                    
                            LAB_2000320e:                 ;XREF[2,0]:   20003214,20003218
ram:2000320e    05b0            add         sp,#0x14                                
ram:20003210    f0bd            pop         {r4,r5,r6,r7,pc}                        
                            LAB_20003212:                 ;XREF[1,0]:   200031b8
ram:20003212    0e20            movs        param_1,#0xe                            
ram:20003214    fbe7            b           LAB_2000320e                            
                            LAB_20003216:                 ;XREF[2,0]:   200031c2,200031c8
ram:20003216    0820            movs        param_1,#0x8                            
ram:20003218    f9e7            b           LAB_2000320e                            
ram:2000321a    0000            movs        r0,r0                                   
                            PTR_SUB_2000321c:             ;XREF[2,0]:   200031c4,200031ca
ram:2000321c    142c0020        addr        SUB_20002c14                            ;= 30h
                            ;************************************************************************************************
                            ;*                                           FUNCTION                                           *
                            ;************************************************************************************************
                            ;undefined8 FUN_20003220(ushort * param_1, undefined * param_2, undefined param_3)
          ;param_1       ushort *            r0                      
          ;param_2       undefined *         r1                      
          ;param_3       undefined           r2                      
          ;local_10      undefined2         -10                      ;XREF[1,0]:   20003248
          ;local_14      undefined4         -14                      ;XREF[1,0]:   20003252
          ;local_18      undefined4         -18                      ;XREF[2,0]:   20003250,2000325c
          ;local_1c      undefined4         -1c                      ;XREF[2,0]:   2000324e,20003264
          ;local_20      undefined4         -20                      ;XREF[2,1]:   2000324c,20003256,20003260
                                                          ;XREF[7,0]:   200029f8,20003a76,20003c14,200045a4
                                                          ;             20004ce4,20004d7e,200052b6
ram:20003220    30b5            push        {r4,r5,lr}                              
ram:20003222    85b0            sub         sp,#0x14                                
ram:20003224    28b3            cbz         param_1,LAB_20003272                    
ram:20003226    0388            ldrh        r3,[param_1,#0x0]                       
ram:20003228    a3f57f44        sub.w       r4,r3,#0xff00                           
ram:2000322c    ff3c            subs        r4,#0xff                                
ram:2000322e    22d0            beq         LAB_20003276                            
ram:20003230    124b            ldr         r3,[PTR_SUB_2000327c]                   ;= 20002c14
ram:20003232    1b78            ldrb        r3,[r3,#0x0]=>SUB_20002c14              ;= 30h
ram:20003234    fbb1            cbz         r3,LAB_20003276                         
ram:20003236    114b            ldr         r3,[PTR_SUB_2000327c]                   ;= 20002c14
                            LAB_20003238:                 ;XREF[1,0]:   20003314
ram:20003238    1025            movs        r5,#0x10                                
ram:2000323a    5b1c            adds        r3,r3,#0x1                              
ram:2000323c    0024            movs        r4,#0x0                                 
ram:2000323e    1d70            strb        r5,[r3,#0x0]=>DAT_20002c15              ;= B5h
ram:20003240    5970            strb        param_2,[r3,#0x1]=>DAT_20002c16         ;= CBh
ram:20003242    9a70            strb        param_3,[r3,#0x2]=>DAT_20002c17         
ram:20003244    0125            movs        r5,#0x1                                 
ram:20003246    0321            movs        param_2,#0x3                            
ram:20003248    adf81010        strh.w      param_2,[sp,#local_10+0x20]             
ram:2000324c    0094            str         r4,[sp,#0x0]=>local_20                  
ram:2000324e    0194            str         r4,[sp,#local_1c+0x20]                  
ram:20003250    0294            str         r4,[sp,#local_18+0x20]                  
ram:20003252    0394            str         r4,[sp,#local_14+0x20]                  
ram:20003254    018a            ldrh        param_2,[param_1,#0x10]                 
ram:20003256    adf80010        strh.w      param_2,[sp,#0x0]=>local_20             
ram:2000325a    04a9            add         param_2,sp,#0x10                        
ram:2000325c    cde90213        strd        param_2,r3=>DAT_2000...,[sp,#local_18...;= B5h
ram:20003260    8df80250        strb.w      r5,[sp,#local_20+0x22]                  
ram:20003264    adf80440        strh.w      r4,[sp,#local_1c+0x20]                  
ram:20003268    0088            ldrh        param_1,[param_1,#0x0]                  
ram:2000326a    6946            mov         param_2,sp                              
ram:2000326c    a6df            svc         0xa6                                    
                            LAB_2000326e:                 ;XREF[2,0]:   20003274,20003278
ram:2000326e    05b0            add         sp,#0x14                                
ram:20003270    30bd            pop         {r4,r5,pc}                              
                            LAB_20003272:                 ;XREF[1,0]:   20003224
ram:20003272    0e20            movs        param_1,#0xe                            
ram:20003274    fbe7            b           LAB_2000326e                            
                            LAB_20003276:                 ;XREF[2,0]:   2000322e,20003234
ram:20003276    0820            movs        param_1,#0x8                            
ram:20003278    f9e7            b           LAB_2000326e                            
ram:2000327a    0000            movs        r0,r0                                   
                            PTR_SUB_2000327c:             ;XREF[2,0]:   20003230,20003236
ram:2000327c    142c0020        addr        SUB_20002c14                            ;= 30h
                            ;************************************************************************************************
                            ;*                                           FUNCTION                                           *
                            ;************************************************************************************************
                            ;undefined FUN_20003280(ushort * param_1, undefined4 param_2, undefined4 param_3, uint param_4)
          ;param_1       ushort *            r0                      
          ;param_2       undefined4          r1                      
          ;param_3       undefined4          r2                      
          ;param_4       uint                r3                      
ram:20003280    10b5            push        {r4,lr}                                 
ram:20003282    0446            mov         r4,param_1                              
ram:20003284    fff754fe        bl          FUN_20002f30                            ;undefined FUN_20002f30(short * param_1)
                            LAB_20003288:                 ;XREF[4,0]:   20003c58,20004180,200041a2,200041c8
ram:20003288    2146            mov         param_2,r4                              
ram:2000328a    0448            ldr         param_1=>DAT_200032b8,[PTR_DAT_2000329c];= 05h
                                                                                    ;= 200032b8
                            LAB_2000328c:                 ;XREF[2,0]:   20004184,200041a6
ram:2000328c    fff74aff        bl          FUN_20003124                            ;undefined FUN_20003124(ushort * para...
                            DAT_20003290:                 ;XREF[2,0]:   20003c46,200041b2
ram:20003290    2046bde8        undefined4  E8BD4620h                               
                            DAT_20003294:                 ;XREF[4,0]:   20003db2,20003dc0,20003dee,20003e48
ram:20003294    1040            undefined2  4010h                                   
ram:20003296    01              ??          01h                                     
ram:20003297    f0              ??          F0h                                     
ram:20003298    07              ??          07h                                     
ram:20003299    bc              ??          BCh                                     
ram:2000329a    00              ??          00h                                     
ram:2000329b    00              ??          00h                                     
                            PTR_DAT_2000329c:             ;XREF[1,0]:   2000328a
ram:2000329c    b8320020        addr        DAT_200032b8                            ;= 05h
                            DAT_200032a0:                 ;XREF[6,0]:   2000294c,20002996,200029a6,200029c0
                                                          ;             200029d2,200029e0
ram:200032a0    30              undefined1  30h                                     
ram:200032a1    b5              ??          B5h                                     
ram:200032a2    1c              ??          1Ch                                     
ram:200032a3    49              ??          49h    I                                
                            DAT_200032a4:                 ;XREF[2,0]:   200029c2,200029d4
ram:200032a4    8bb00a1d        undefined4  1D0AB08Bh                               
                            DAT_200032a8:                 ;XREF[3,0]:   2000299a,200029c4,200029d6
ram:200032a8    0d              undefined1  0Dh                                     
ram:200032a9    f1              ??          F1h                                     
ram:200032aa    14              ??          14h                                     
ram:200032ab    0c              ??          0Ch                                     
                            DAT_200032ac:                 ;XREF[1,0]:   2000299e
ram:200032ac    3cca8ce8        undefined4  E88CCA3Ch                               
                            DAT_200032b0:                 ;XREF[2,0]:   200029a0,200029c6
ram:200032b0    3c00            undefined2  003Ch                                   
                            DAT_200032b2:                 ;XREF[1,0]:   200029a4
ram:200032b2    0968            undefined2  6809h                                   
ram:200032b4    09              ??          09h                                     
ram:200032b5    91              ??          91h                                     
ram:200032b6    20              ??          20h                                     
ram:200032b7    b1              ??          B1h                                     
                            DAT_200032b8:                 ;XREF[6,0]:   20002938,2000328a,2000329c,20003a74
                                                          ;             20003a9c,200042f0
ram:200032b8    05              ??          05h                                     
ram:200032b9    a8              ??          A8h                                     
ram:200032ba    18              ??          18h                                     
ram:200032bb    df              ??          DFh                                     
ram:200032bc    08              ??          08h                                     
ram:200032bd    b1              ??          B1h                                     
                            DAT_200032be:                 ;XREF[1,0]:   200028f6
ram:200032be    ff              undefined1  FFh                                     
ram:200032bf    f7              ??          F7h                                     
ram:200032c0    09              ??          09h                                     
ram:200032c1    fc              ??          FCh                                     
ram:200032c2    4f              ??          4Fh    O                                
ram:200032c3    f4              ??          F4h                                     
ram:200032c4    f4              ??          F4h                                     
ram:200032c5    20              ??          20h                                     
ram:200032c6    13              ??          13h                                     
ram:200032c7    df              ??          DFh                                     
ram:200032c8    08              ??          08h                                     
ram:200032c9    b1              ??          B1h                                     
ram:200032ca    ff              ??          FFh                                     
ram:200032cb    f7              ??          F7h                                     
ram:200032cc    03              ??          03h                                     
ram:200032cd    fc              ??          FCh                                     
ram:200032ce    12              ??          12h                                     
ram:200032cf    4b              ??          4Bh    K                                
ram:200032d0    48              ??          48h    H                                
ram:200032d1    22              ??          22h    "                                
ram:200032d2    12              ??          12h                                     
ram:200032d3    49              ??          49h    I                                
ram:200032d4    09              ??          09h                                     
ram:200032d5    a8              ??          A8h                                     
ram:200032d6    01              ??          01h                                     
ram:200032d7    f0              ??          F0h                                     
ram:200032d8    93              ??          93h                                     
ram:200032d9    ff              ??          FFh                                     
ram:200032da    08              ??          08h                                     
ram:200032db    b1              ??          B1h                                     
ram:200032dc    ff              ??          FFh                                     
ram:200032dd    f7              ??          F7h                                     
ram:200032de    fa              ??          FAh                                     
ram:200032df    fb              ??          FBh                                     
ram:200032e0    01              ??          01h                                     
ram:200032e1    21              ??          21h    !                                
ram:200032e2    6a              ??          6Ah    j                                
ram:200032e3    46              ??          46h    F                                
ram:200032e4    08              ??          08h                                     
ram:200032e5    46              ??          46h    F                                
ram:200032e6    01              ??          01h                                     
ram:200032e7    f0              ??          F0h                                     
                            DAT_200032e8:                 ;XREF[6,0]:   2000297c,200029c2,200042b0,20004358
                                                          ;             20004b6a,20004c08
ram:200032e8    65ff08b1        undefined4  B108FF65h                               
                            DAT_200032ec:                 ;XREF[1,0]:   20004b70
ram:200032ec    fff7            undefined2  F7FFh                                   
                            DAT_200032ee:                 ;XREF[1,0]:   20004b76
ram:200032ee    f2              undefined1  F2h                                     
                            DAT_200032ef:                 ;XREF[3,0]:   20002970,2000297c,20004b66
ram:200032ef    fb              ??          FBh                                     
ram:200032f0    01              ??          01h                                     
ram:200032f1    20              ??          20h                                     
ram:200032f2    8d              ??          8Dh                                     
ram:200032f3    f8              ??          F8h                                     
ram:200032f4    0c              ??          0Ch                                     
ram:200032f5    00              ??          00h                                     
ram:200032f6    68              ??          68h    h                                
ram:200032f7    46              ??          46h    F                                
ram:200032f8    01              ??          01h                                     
ram:200032f9    f0              ??          F0h                                     
ram:200032fa    52              ??          52h    R                                
ram:200032fb    ff              ??          FFh                                     
ram:200032fc    08              ??          08h                                     
ram:200032fd    b1              ??          B1h                                     
ram:200032fe    ff              ??          FFh                                     
ram:200032ff    f7              ??          F7h                                     
                            DAT_20003300:                 ;XREF[1,0]:   20004b86
ram:20003300    e9              ??          E9h                                     
ram:20003301    fb              ??          FBh                                     
ram:20003302    07              ??          07h                                     
ram:20003303    48              ??          48h    H                                
ram:20003304    01              ??          01h                                     
ram:20003305    f0              ??          F0h                                     
                            ;************************************************************************************************
                            ;*                                           FUNCTION                                           *
                            ;************************************************************************************************
                            ;undefined LAB_20003306+1(void)
                                                          ;XREF[0,1]:   20003d8e
ram:20003306    96ff0028        vmlal.u16   q1,d6,d0                                
ram:2000330a    01d0            beq         LAB_20003310                            
ram:2000330c    fff7e2fb        bl          FUN_20002ad4                            ;undefined FUN_20002ad4(void)
                            LAB_20003310:                 ;XREF[1,0]:   2000330a
ram:20003310    0bb0            add         sp,#0x2c                                
                            LAB_20003312:                 ;XREF[1,0]:   20004ae2
ram:20003312    30bd            pop         {r4,r5,pc}                              
ram:20003314    90d7            bvc         LAB_20003238                            
ram:20003316    0700            movs        r7,r0                                   
ram:20003318    49d3            bcc         LAB_200033ac+2                          
ram:2000331a    0700            movs        r7,r0                                   
                            ;************************************************************************************************
                            ;*                                           FUNCTION                                           *
                            ;************************************************************************************************
                            ;int FUN_2000331c(undefined4 param_1, int param_2, undefined4 param_3, char * param_4)
          ;param_1       undefined4          r0                      
          ;param_2       int                 r1                      
          ;param_3       undefined4          r2                      
          ;param_4       char *              r3                      
          ;local_10      undefined4         -10                      ;XREF[2,0]:   20003334,2000334e
                                                          ;XREF[1,0]:   200050fc
ram:2000331c    e82e            cmp         r6,#0xe8                                
ram:2000331e    0020            movs        param_1,#0x0                            
ram:20003320    25d4            bmi         LAB_2000336e                            
ram:20003322    0700            movs        r7,param_1                              
                            LAB_20003324:                 ;XREF[2,0]:   20004418,20004430
ram:20003324    38b5            push        {param_4,r4,r5,lr}                      
ram:20003326    0068            ldr         param_1,[param_1,#0x0]                  
ram:20003328    401c            adds        param_1,param_1,#0x1                    
ram:2000332a    18d0            beq         LAB_2000335e                            
ram:2000332c    0024            movs        r4,#0x0                                 
ram:2000332e    6846            mov         param_1,sp                              
ram:20003330    00f04af9        bl          FUN_200035c8                            ;undefined FUN_200035c8(undefined4 * ...
ram:20003334    0098            ldr         param_1,[sp,#0x0]=>local_10             
ram:20003336    0178            ldrb        param_2,[param_1,#0x0]                  
ram:20003338    0129            cmp         param_2,#0x1                            
ram:2000333a    0fd1            bne         LAB_2000335c                            
ram:2000333c    4188            ldrh        param_2,[param_1,#0x2]                  
ram:2000333e    51b1            cbz         param_2,LAB_20003356                    
ram:20003340    8168            ldr         param_2,[param_1,#0x8]                  
ram:20003342    4ff44050        mov.w       param_1,#0x3000                         
ram:20003346    0022            movs        param_3,#0x0                            
ram:20003348    8068            ldr         param_1,[param_1,#offset DAT_00003008...
ram:2000334a    00f099fa        bl          FUN_20003880                            ;uint FUN_20003880(int param_1, uint ...
ram:2000334e    0099            ldr         param_2,[sp,#0x0]=>local_10             
ram:20003350    4988            ldrh        param_2,[param_2,#0x2]                  
ram:20003352    8142            cmp         param_2,param_1                         
ram:20003354    01d1            bne         LAB_2000335a                            
                            LAB_20003356:                 ;XREF[1,0]:   2000333e
ram:20003356    0124            movs        r4,#0x1                                 
ram:20003358    00e0            b           LAB_2000335c                            
                            LAB_2000335a:                 ;XREF[1,0]:   20003354
ram:2000335a    0024            movs        r4,#0x0                                 
                            LAB_2000335c:                 ;XREF[2,0]:   2000333a,20003358
ram:2000335c    2046            mov         param_1,r4                              
                            LAB_2000335e:                 ;XREF[1,0]:   2000332a
ram:2000335e    38bd            pop         {param_4,r4,r5,pc}                      
                            ;************************************************************************************************
                            ;*                                           FUNCTION                                           *
                            ;************************************************************************************************
                            ;undefined FUN_20003360(int param_1)
          ;param_1       int                 r0                      
ram:20003360    70b5            push        {r4,r5,r6,lr}                           
ram:20003362    11df            svc         0x11                                    
ram:20003364    08b1            cbz         param_1,FUN_2000336a                    
ram:20003366    fff7b5fb        bl          FUN_20002ad4                            ;undefined FUN_20002ad4(void)
                            ;************************************************************************************************
                            ;*                                           FUNCTION                                           *
                            ;************************************************************************************************
                            ;undefined FUN_2000336a(void)
                                                          ;XREF[1,0]:   20003364
ram:2000336a    4ff0e021        mov.w       r1,#0xe000e000                          
                            LAB_2000336e:                 ;XREF[1,0]:   20003320
ram:2000336e    0020            movs        param_1,#0x0                            
ram:20003370    d1f80031        ldr.w       param_4,[param_2,#0x100]=>DAT_e000e100  
ram:20003374    5ff00104        movs.w      r4,#0x1                                 
                            LAB_20003378:                 ;XREF[1,0]:   2000339a
ram:20003378    04fa00f2        lsl.w       param_3,r4,param_1                      
ram:2000337c    1a42            tst         param_3,param_4                         
ram:2000337e    0ad0            beq         LAB_20003396                            
ram:20003380    42b2            sxtb        param_3,param_1                         
ram:20003382    02f01f05        and         r5,param_3,#0x1f                        
ram:20003386    04fa05f1        lsl.w       param_2,r4,r5                           
ram:2000338a    5209            lsrs        param_3,param_3,#0x5                    
ram:2000338c    9200            lsls        param_3,param_3,#0x2                    
ram:2000338e    02f1e022        add.w       param_3,param_3,#0xe000e000             
ram:20003392    c2f88011        str.w       param_2,[param_3,#0x180]=>DAT_e000e180  
                            LAB_20003396:                 ;XREF[1,0]:   2000337e
ram:20003396    401c            adds        param_1,param_1,#0x1                    
ram:20003398    2028            cmp         param_1,#0x20                           
ram:2000339a    edd3            bcc         LAB_20003378                            
ram:2000339c    4ff44054        mov.w       r4,#0x3000                              
ram:200033a0    a068            ldr         param_1,[r4,#offset DAT_00003008 &0xff] 
ram:200033a2    13df            svc         0x13                                    
ram:200033a4    08b1            cbz         param_1,LAB_200033aa                    
ram:200033a6    fff795fb        bl          FUN_20002ad4                            ;undefined FUN_20002ad4(void)
                            LAB_200033aa:                 ;XREF[1,0]:   200033a4
ram:200033aa    a068            ldr         param_1,[r4,#offset DAT_00003008 &0xff] 
                                                          ;XREF[0,1]:   20003318
ram:200033ac    bde87040        pop.w       {r4,r5,r6,lr}                           
ram:200033b0    00f008b9        b.w         LAB_200035c4                            
ram:200033b4    08              ??          08h                                     
ram:200033b5    b5              ??          B5h                                     
ram:200033b6    68              ??          68h    h                                
ram:200033b7    46              ??          46h    F                                
ram:200033b8    00              ??          00h                                     
ram:200033b9    f0              ??          F0h                                     
ram:200033ba    06              ??          06h                                     
ram:200033bb    f9              ??          F9h                                     
ram:200033bc    00              ??          00h                                     
ram:200033bd    98              ??          98h                                     
ram:200033be    01              ??          01h                                     
ram:200033bf    78              ??          78h    x                                
ram:200033c0    a5              ??          A5h                                     
ram:200033c1    29              ??          29h    )                                
ram:200033c2    04              ??          04h                                     
ram:200033c3    d0              ??          D0h                                     
ram:200033c4    00              ??          00h                                     
ram:200033c5    79              ??          79h    y                                
ram:200033c6    aa              ??          AAh                                     
ram:200033c7    28              ??          28h    (                                
ram:200033c8    01              ??          01h                                     
ram:200033c9    d0              ??          D0h                                     
ram:200033ca    00              ??          00h                                     
ram:200033cb    20              ??          20h                                     
ram:200033cc    08              ??          08h                                     
ram:200033cd    bd              ??          BDh                                     
ram:200033ce    01              ??          01h                                     
ram:200033cf    20              ??          20h                                     
ram:200033d0    08              ??          08h                                     
ram:200033d1    bd              ??          BDh                                     
ram:200033d2    10              ??          10h                                     
ram:200033d3    b5              ??          B5h                                     
ram:200033d4    00              ??          00h                                     
ram:200033d5    f0              ??          F0h                                     
ram:200033d6    52              ??          52h    R                                
ram:200033d7    fe              ??          FEh                                     
ram:200033d8    18              ??          18h                                     
ram:200033d9    b9              ??          B9h                                     
ram:200033da    00              ??          00h                                     
ram:200033db    f0              ??          F0h                                     
ram:200033dc    eb              ??          EBh                                     
ram:200033dd    fa              ??          FAh                                     
ram:200033de    00              ??          00h                                     
ram:200033df    28              ??          28h    (                                
ram:200033e0    13              ??          13h                                     
ram:200033e1    d0              ??          D0h                                     
ram:200033e2    64              ??          64h    d                                
ram:200033e3    20              ??          20h                                     
ram:200033e4    01              ??          01h                                     
ram:200033e5    f0              ??          F0h                                     
ram:200033e6    1c              ??          1Ch                                     
ram:200033e7    fb              ??          FBh                                     
ram:200033e8    00              ??          00h                                     
ram:200033e9    f0              ??          F0h                                     
ram:200033ea    0b              ??          0Bh                                     
ram:200033eb    fe              ??          FEh                                     
ram:200033ec    08              ??          08h                                     
ram:200033ed    b1              ??          B1h                                     
ram:200033ee    ff              ??          FFh                                     
ram:200033ef    f7              ??          F7h                                     
ram:200033f0    71              ??          71h    q                                
ram:200033f1    fb              ??          FBh                                     
ram:200033f2    00              ??          00h                                     
ram:200033f3    f0              ??          F0h                                     
ram:200033f4    43              ??          43h    C                                
ram:200033f5    fe              ??          FEh                                     
ram:200033f6    08              ??          08h                                     
ram:200033f7    b1              ??          B1h                                     
ram:200033f8    ff              ??          FFh                                     
ram:200033f9    f7              ??          F7h                                     
ram:200033fa    6c              ??          6Ch    l                                
ram:200033fb    fb              ??          FBh                                     
ram:200033fc    00              ??          00h                                     
ram:200033fd    f0              ??          F0h                                     
ram:200033fe    b8              ??          B8h                                     
ram:200033ff    fa              ??          FAh                                     
ram:20003400    04              ??          04h                                     
ram:20003401    1e              ??          1Eh                                     
ram:20003402    01              ??          01h                                     
ram:20003403    d0              ??          D0h                                     
ram:20003404    ff              ??          FFh                                     
ram:20003405    f7              ??          F7h                                     
ram:20003406    66              ??          66h    f                                
ram:20003407    fb              ??          FBh                                     
ram:20003408    20              ??          20h                                     
ram:20003409    46              ??          46h    F                                
ram:2000340a    10              ??          10h                                     
ram:2000340b    bd              ??          BDh                                     
ram:2000340c    00              ??          00h                                     
ram:2000340d    b5              ??          B5h                                     
ram:2000340e    87              ??          87h                                     
ram:2000340f    b0              ??          B0h                                     
ram:20003410    14              ??          14h                                     
ram:20003411    22              ??          22h    "                                
ram:20003412    08              ??          08h                                     
ram:20003413    49              ??          49h    I                                
ram:20003414    01              ??          01h                                     
ram:20003415    a8              ??          A8h                                     
ram:20003416    fe              ??          FEh                                     
ram:20003417    f7              ??          F7h                                     
ram:20003418    03              ??          03h                                     
ram:20003419    ff              ??          FFh                                     
ram:2000341a    05              ??          05h                                     
ram:2000341b    98              ??          98h                                     
ram:2000341c    0d              ??          0Dh                                     
ram:2000341d    f1              ??          F1h                                     
ram:2000341e    04              ??          04h                                     
ram:2000341f    0c              ??          0Ch                                     
ram:20003420    00              ??          00h                                     
ram:20003421    90              ??          90h                                     
ram:20003422    9c              ??          9Ch                                     
ram:20003423    e8              ??          E8h                                     
ram:20003424    0f              ??          0Fh                                     
ram:20003425    00              ??          00h                                     
ram:20003426    00              ??          00h                                     
ram:20003427    f0              ??          F0h                                     
ram:20003428    13              ??          13h                                     
ram:20003429    f8              ??          F8h                                     
ram:2000342a    02              ??          02h                                     
ram:2000342b    f0              ??          F0h                                     
ram:2000342c    cd              ??          CDh                                     
ram:2000342d    f8              ??          F8h                                     
ram:2000342e    07              ??          07h                                     
ram:2000342f    b0              ??          B0h                                     
ram:20003430    00              ??          00h                                     
ram:20003431    20              ??          20h                                     
ram:20003432    00              ??          00h                                     
ram:20003433    bd              ??          BDh                                     
ram:20003434    c4              ??          C4h                                     
ram:20003435    d7              ??          D7h                                     
ram:20003436    07              ??          07h                                     
ram:20003437    00              ??          00h                                     
ram:20003438    10              ??          10h                                     
ram:20003439    b5              ??          B5h                                     
ram:2000343a    00              ??          00h                                     
ram:2000343b    f0              ??          F0h                                     
ram:2000343c    2d              ??          2Dh    -                                
ram:2000343d    fc              ??          FCh                                     
ram:2000343e    00              ??          00h                                     
ram:2000343f    28              ??          28h    (                                
ram:20003440    05              ??          05h                                     
ram:20003441    d1              ??          D1h                                     
ram:20003442    00              ??          00h                                     
ram:20003443    f0              ??          F0h                                     
                            DAT_20003444:                 ;XREF[9,0]:   20004418,20004448,2000449c,200044a6
                                                          ;             200044bc,200044d8,20004504,20004526
                                                          ;             20004554
ram:20003444    23ff0446        undefined4  4604FF23h                               
                            DAT_20003448:                 ;XREF[5,0]:   2000441c,2000448e,20004492,20004512
                                                          ;             2000451c
ram:20003448    02f0bef8        undefined4  F8BEF002h                               
                            DAT_2000344c:                 ;XREF[6,0]:   2000441c,2000443a,20004484,2000448c
                                                          ;             200044d0,200044d4
ram:2000344c    204610bd        undefined4  BD104620h                               
                            ;************************************************************************************************
                            ;*                                           FUNCTION                                           *
                            ;************************************************************************************************
                            ;undefined FUN_20003450(uint param_1, int param_2, int param_3, char * param_4, undefined4 param_5)
          ;param_1       uint                r0                      
          ;param_2       int                 r1                      
          ;param_3       int                 r2                      
          ;param_4       char *              r3                      
          ;param_5       undefined4           0                      ;XREF[1,0]:   2000345e
          ;local_20      undefined4         -20                      ;XREF[3,0]:   200034cc,200034e6,20003524
                                                          ;XREF[9,0]:   20003908,20003aba,20003f5e,20004420
                                                          ;             200044c8,200044ce,2000451e,20004522
                                                          ;             20004bba
ram:20003450    2de9f843        push        {param_4,r4,r5,r6,r7,r8,r9,lr}          
                            LAB_20003454:                 ;XREF[4,0]:   20004422,200044a4,20004524,20004542
ram:20003454    0446            mov         r4,param_1                              
ram:20003456    0e46            mov         r6,param_2                              
                            LAB_20003458:                 ;XREF[4,0]:   20004424,2000443e,200044d6,200044f4
ram:20003458    1746            mov         r7,param_3                              
ram:2000345a    1d46            mov         r5,param_4                              
                            LAB_2000345c:                 ;XREF[6,0]:   20004426,2000445c,20004466,20004476
                                                          ;             20004536,20004540
ram:2000345c    6846            mov         param_1,sp                              
                                                          ;XREF[0,2]:   20002e1c,20002e4e
ram:2000345e    ddf82080        ldr.w       r8,[sp,#param_5+0x20]                   
                                                          ;XREF[0,2]:   20002e26,20002e58
ram:20003462    00f0b1f8        bl          FUN_200035c8                            ;undefined FUN_200035c8(undefined4 * ...
                                                          ;XREF[0,4]:   20002dfe,20002e0e,20002e3e,20002e60
ram:20003466    14f0ff02        ands        param_3,r4,#0xff                        
ram:2000346a    4fea1441        lsr.w       param_2,r4,#0x10                        
ram:2000346e    2f4c            ldr         r4,[PTR_PTR_LAB_2000352c]               ;= 20002c60
ram:20003470    2f48            ldr         param_1,[DAT_20003530]                  ;= 200031BCh
ram:20003472    4ff00103        mov.w       param_4,#0x1                            
ram:20003476    4ff0ff0c        mov.w       r12,#0xff                               
ram:2000347a    10d0            beq         LAB_2000349e                            
ram:2000347c    012a            cmp         param_3,#0x1                            
ram:2000347e    14d0            beq         LAB_200034aa                            
ram:20003480    032a            cmp         param_3,#0x3                            
ram:20003482    23d0            beq         LAB_200034cc                            
ram:20003484    0021            movs        param_2,#0x0                            
ram:20003486    022a            cmp         param_3,#0x2                            
ram:20003488    2dd0            beq         LAB_200034e6                            
ram:2000348a    052a            cmp         param_3,#0x5                            
ram:2000348c    3fd0            beq         LAB_2000350e                            
ram:2000348e    042a            cmp         param_3,#0x4                            
ram:20003490    44d0            beq         LAB_2000351c                            
ram:20003492    062a            cmp         param_3,#0x6                            
ram:20003494    01d1            bne         LAB_2000349a                            
ram:20003496    0420            movs        param_1,#0x4                            
                            LAB_20003498:                 ;XREF[1,0]:   2000351a
ram:20003498    2070            strb        param_1,[r4,#0x0]=>PTR_LAB_20002c60     ;= 20002c40
                            LAB_2000349a:                 ;XREF[2,0]:   20003494,200034ca
ram:2000349a    bde8f883        pop.w       {param_4,r4,r5,r6,r7,r8,r9,pc}          
                            LAB_2000349e:                 ;XREF[1,0]:   2000347a
ram:2000349e    4180            strh        param_2,[param_1,#0x2]=>LAB_200031bc+2  
ram:200034a0    8560            str         r5,[param_1,#0x8]=>LAB_200031c4         
ram:200034a2    0370            strb        param_4,[param_1,#0x0]=>LAB_200031bc    
ram:200034a4    80f804c0        strb.w      r12,[param_1,#0x4]=>LAB_200031c0        
ram:200034a8    0be0            b           LAB_200034c2                            
                            LAB_200034aa:                 ;XREF[1,0]:   2000347e
ram:200034aa    4180            strh        param_2,[param_1,#0x2]=>LAB_200031bc+2  
ram:200034ac    f119            adds        param_2,r6,r7                           
ram:200034ae    2944            add         param_2,r5                              
ram:200034b0    8160            str         param_2,[param_1,#0x8]=>LAB_200031c4    
ram:200034b2    a521            movs        param_2,#0xa5                           
ram:200034b4    0170            strb        param_2,[param_1,#0x0]=>LAB_200031bc    
ram:200034b6    80f804c0        strb.w      r12,[param_1,#0x4]=>LAB_200031c0        
ram:200034ba    c0f81880        str.w       r8,[param_1,#0x18]=>LAB_200031d4        
ram:200034be    c660            str         r6,[param_1,#0xc]=>LAB_200031c8         
ram:200034c0    0ee0            b           LAB_200034e0                            
                            LAB_200034c2:                 ;XREF[3,0]:   200034a8,200034e4,20003502
ram:200034c2    2370            strb        param_4,[r4,#0x0]=>PTR_LAB_20002c60     ;= 20002c40
                            LAB_200034c4:                 ;XREF[1,0]:   2000352a
ram:200034c4    1a48            ldr         param_1,[DAT_20003530]                  ;= 200031BCh
ram:200034c6    00f065f8        bl          FUN_20003594                            ;undefined FUN_20003594(uint param_1)
ram:200034ca    e6e7            b           LAB_2000349a                            
                            LAB_200034cc:                 ;XREF[1,0]:   20003482
ram:200034cc    0099            ldr         param_2,[sp,#0x0]=>local_20             
ram:200034ce    0a78            ldrb        param_3,[param_2,#0x0]                  
ram:200034d0    0270            strb        param_3,[param_1,#0x0]=>LAB_200031bc    
ram:200034d2    4a88            ldrh        param_3,[param_2,#0x2]                  
ram:200034d4    4280            strh        param_3,[param_1,#0x2]=>LAB_200031bc+2  
ram:200034d6    8968            ldr         param_2,[param_2,#0x8]                  
ram:200034d8    8160            str         param_2,[param_1,#0x8]=>LAB_200031c4    
ram:200034da    aa21            movs        param_2,#0xaa                           
ram:200034dc    0171            strb        param_2,[param_1,#0x4]=>LAB_200031c0    
ram:200034de    c660            str         r6,[param_1,#0xc]=>LAB_200031c8         
                            LAB_200034e0:                 ;XREF[1,0]:   200034c0
                                                          ; FWD[2,0]:   200031cc,200031d0
ram:200034e0    c0e90475        strd        r7,r5,[param_1,#0x10]=>LAB_200031cc     
ram:200034e4    ede7            b           LAB_200034c2                            
                            LAB_200034e6:                 ;XREF[1,0]:   20003488
ram:200034e6    009a            ldr         param_3,[sp,#0x0]=>local_20             
ram:200034e8    1578            ldrb        r5,[param_3,#0x0]                       
ram:200034ea    a52d            cmp         r5,#0xa5                                
ram:200034ec    0ad0            beq         LAB_20003504                            
ram:200034ee    0570            strb        r5,[param_1,#0x0]=>LAB_200031bc         
ram:200034f0    5588            ldrh        r5,[param_3,#0x2]                       
ram:200034f2    4580            strh        r5,[param_1,#0x2]=>LAB_200031bc+2       
ram:200034f4    9268            ldr         param_3,[param_3,#0x8]                  
ram:200034f6    8260            str         param_3,[param_1,#0x8]=>LAB_200031c4    
                            LAB_200034f8:                 ;XREF[1,0]:   2000350c
ram:200034f8    80f804c0        strb.w      r12,[param_1,#0x4]=>LAB_200031c0        
ram:200034fc    c160            str         param_2,[param_1,#0xc]=>LAB_200031c8    
ram:200034fe    0161            str         param_2,[param_1,#0x10]=>LAB_200031cc   
ram:20003500    4161            str         param_2,[param_1,#0x14]=>LAB_200031d0   
ram:20003502    dee7            b           LAB_200034c2                            
                            LAB_20003504:                 ;XREF[1,0]:   200034ec
ram:20003504    4180            strh        param_2,[param_1,#0x2]=>LAB_200031bc+2  
ram:20003506    8160            str         param_2,[param_1,#0x8]=>LAB_200031c4    
ram:20003508    80f800c0        strb.w      r12,[param_1,#0x0]=>LAB_200031bc        
ram:2000350c    f4e7            b           LAB_200034f8                            
                            LAB_2000350e:                 ;XREF[1,0]:   2000348c
ram:2000350e    00f09dfe        bl          FUN_2000424c                            ;undefined4 FUN_2000424c(undefined4 p...
ram:20003512    08b1            cbz         param_1,LAB_20003518                    
ram:20003514    fff7defa        bl          FUN_20002ad4                            ;undefined FUN_20002ad4(void)
                            LAB_20003518:                 ;XREF[1,0]:   20003512
ram:20003518    0320            movs        param_1,#0x3                            
ram:2000351a    bde7            b           LAB_20003498                            
                            LAB_2000351c:                 ;XREF[1,0]:   20003490
ram:2000351c    4180            strh        param_2,[param_1,#0x2]=>LAB_200031bc+2  
ram:2000351e    8160            str         param_2,[param_1,#0x8]=>LAB_200031c4    
ram:20003520    80f800c0        strb.w      r12,[param_1,#0x0]=>LAB_200031bc        
ram:20003524    0099            ldr         param_2,[sp,#0x0]=>local_20             
ram:20003526    0979            ldrb        param_2,[param_2,#0x4]                  
ram:20003528    0171            strb        param_2,[param_1,#0x4]=>LAB_200031c0    
ram:2000352a    cbe7            b           LAB_200034c4                            
                            PTR_PTR_LAB_2000352c:         ;XREF[1,0]:   2000346e
ram:2000352c    602c0020        addr        PTR_LAB_20002c60                        ;= 20002c40
                            DAT_20003530:                 ;XREF[2,0]:   20003470,200034c4
ram:20003530    bc310020        undefined4  200031BCh                               ;?  ->  200031bc
ram:20003534    0e              ??          0Eh                                     
ram:20003535    b5              ??          B5h                                     
ram:20003536    08              ??          08h                                     
ram:20003537    4a              ??          4Ah    J                                
ram:20003538    07              ??          07h                                     
ram:20003539    ca              ??          CAh                                     
ram:2000353a    8d              ??          8Dh                                     
ram:2000353b    e8              ??          E8h                                     
ram:2000353c    07              ??          07h                                     
ram:2000353d    00              ??          00h                                     
ram:2000353e    01              ??          01h                                     
ram:2000353f    f0              ??          F0h                                     
                            DAT_20003540:                 ;XREF[3,0]:   20002af4,20003620,20004f56
ram:20003540    91              undefined1  91h                                     
ram:20003541    fc              ??          FCh                                     
ram:20003542    00              ??          00h                                     
ram:20003543    28              ??          28h    (                                
                            DAT_20003544:                 ;XREF[3,0]:   20002afa,2000364a,20004f2e
ram:20003544    06d10549        undefined4  4905D106h                               
                            DAT_20003548:                 ;XREF[1,0]:   20003652
ram:20003548    4ff4fe20        undefined4  20FEF44Fh                               
                            DAT_2000354c:                 ;XREF[2,0]:   20002af2,20002b00
ram:2000354c    48606846        undefined4  46686048h                               
                            DAT_20003550:                 ;XREF[1,0]:   2000361e
ram:20003550    01f0a8fc        undefined4  FCA8F001h                               
                            DAT_20003554:                 ;XREF[2,0]:   20002b04,2000364c
ram:20003554    0ebd0000        undefined4  0000BD0Eh                               
ram:20003558    b8              ??          B8h                                     
ram:20003559    d7              ??          D7h                                     
ram:2000355a    07              ??          07h                                     
ram:2000355b    00              ??          00h                                     
ram:2000355c    64              ??          64h    d                                ;?  ->  20002c64
ram:2000355d    2c              ??          2Ch    ,                                
ram:2000355e    00              ??          00h                                     
ram:2000355f    20              ??          20h                                     
                            ;************************************************************************************************
                            ;*                                           FUNCTION                                           *
                            ;************************************************************************************************
                            ;undefined FUN_20003560(undefined * param_1, undefined4 param_2, undefined4 param_3, undefined * param_4)
          ;param_1       undefined *         r0                      
          ;param_2       undefined4          r1                      
          ;param_3       undefined4          r2                      
          ;param_4       undefined *         r3                      
          ;local_10      undefined4         -10                      ;XREF[3,0]:   2000356a,20003570,20003576
                                                          ;XREF[2,0]:   2000400a,20004082
ram:20003560    38b5            push        {param_4,r4,r5,lr}                      
ram:20003562    0446            mov         r4,param_1                              
ram:20003564    6846            mov         param_1,sp                              
ram:20003566    00f02ff8        bl          FUN_200035c8                            ;undefined FUN_200035c8(undefined4 * ...
ram:2000356a    0098            ldr         param_1,[sp,#0x0]=>local_10             
ram:2000356c    0078            ldrb        param_1,[param_1,#0x0]                  
ram:2000356e    2070            strb        param_1,[r4,#0x0]                       
ram:20003570    0098            ldr         param_1,[sp,#0x0]=>local_10             
ram:20003572    4088            ldrh        param_1,[param_1,#0x2]                  
ram:20003574    6080            strh        param_1,[r4,#0x2]                       
ram:20003576    0098            ldr         param_1,[sp,#0x0]=>local_10             
ram:20003578    8168            ldr         param_2,[param_1,#0x8]                  
ram:2000357a    a160            str         param_2,[r4,#0x8]                       
ram:2000357c    0179            ldrb        param_2,[param_1,#0x4]                  
ram:2000357e    2171            strb        param_2,[r4,#0x4]                       
ram:20003580    c168            ldr         param_2,[param_1,#0xc]                  
ram:20003582    e160            str         param_2,[r4,#0xc]                       
ram:20003584    0169            ldr         param_2,[param_1,#0x10]                 
ram:20003586    2161            str         param_2,[r4,#0x10]                      
ram:20003588    4169            ldr         param_2,[param_1,#0x14]                 
ram:2000358a    6161            str         param_2,[r4,#0x14]                      
ram:2000358c    8069            ldr         param_1,[param_1,#0x18]                 
ram:2000358e    a061            str         param_1,[r4,#0x18]                      
ram:20003590    38bd            pop         {param_4,r4,r5,pc}                      
ram:20003592    0000            movs        r0,r0                                   
                            ;************************************************************************************************
                            ;*                                           FUNCTION                                           *
                            ;************************************************************************************************
                            ;undefined FUN_20003594(uint param_1)
          ;param_1       uint                r0                      
                                                          ;XREF[1,0]:   200034c6
ram:20003594    10b5            push        {r4,lr}                                 
ram:20003596    0446            mov         r4,param_1                              
ram:20003598    1c21            movs        r1,#0x1c                                
ram:2000359a    0948            ldr         param_1=>FUN_20002c64,[->FUN_20002c64]  ;= 20002c64
ram:2000359c    01f058fc        bl          FUN_20004e50                            ;undefined FUN_20004e50(undefined4 * ...
ram:200035a0    08b1            cbz         param_1,LAB_200035a6                    
ram:200035a2    fff797fa        bl          FUN_20002ad4                            ;undefined FUN_20002ad4(void)
                            LAB_200035a6:                 ;XREF[1,0]:   200035a0
ram:200035a6    0023            movs        r3,#0x0                                 
ram:200035a8    1c22            movs        r2,#0x1c                                
ram:200035aa    2146            mov         r1,r4                                   
ram:200035ac    0448            ldr         param_1=>FUN_20002c64,[->FUN_20002c64]  ;= 20002c64
ram:200035ae    01f08dfc        bl          FUN_20004ecc                            ;int FUN_20004ecc(undefined4 * param_...
ram:200035b2    0028            cmp         param_1,#0x0                            
ram:200035b4    03d0            beq         LAB_200035be                            
ram:200035b6    bde81040        pop.w       {r4,lr}                                 
ram:200035ba    fff78bba        b.w         FUN_20002ad4                            ;undefined FUN_20002ad4(void)
                            LAB_200035be:                 ;XREF[1,0]:   200035b4
ram:200035be    10bd            pop         {r4,pc}                                 
                            PTR_FUN_200035c0:             ;XREF[2,0]:   2000359a,200035ac
ram:200035c0    642c0020        addr        FUN_20002c64                            
                            LAB_200035c4:                 ;XREF[1,0]:   200033b0
ram:200035c4    fef700be        b.w         FUN_200021c8                            
                            ;************************************************************************************************
                            ;*                                           FUNCTION                                           *
                            ;************************************************************************************************
                            ;undefined FUN_200035c8(undefined4 * param_1)
          ;param_1       undefined4 *        r0                      
                                                          ;XREF[3,0]:   20003330,20003462,20003566
ram:200035c8    0149            ldr         r1,[DAT_200035d0]                       ;= 0007F000h
ram:200035ca    0160            str         r1,[param_1,#0x0]                       
ram:200035cc    7047            bx          lr                                      
ram:200035ce    0000            movs        r0,r0                                   
                            DAT_200035d0:                 ;XREF[1,0]:   200035c8
ram:200035d0    00f00700        undefined4  0007F000h                               
ram:200035d4    10              ??          10h                                     
ram:200035d5    b5              ??          B5h                                     
ram:200035d6    09              ??          09h                                     
ram:200035d7    20              ??          20h                                     
ram:200035d8    01              ??          01h                                     
ram:200035d9    f0              ??          F0h                                     
ram:200035da    56              ??          56h    V                                
ram:200035db    fa              ??          FAh                                     
ram:200035dc    0a              ??          0Ah                                     
ram:200035dd    20              ??          20h                                     
ram:200035de    01              ??          01h                                     
ram:200035df    f0              ??          F0h                                     
ram:200035e0    53              ??          53h    S                                
ram:200035e1    fa              ??          FAh                                     
ram:200035e2    10              ??          10h                                     
ram:200035e3    20              ??          20h                                     
ram:200035e4    01              ??          01h                                     
ram:200035e5    f0              ??          F0h                                     
ram:200035e6    50              ??          50h    P                                
ram:200035e7    fa              ??          FAh                                     
ram:200035e8    15              ??          15h                                     
ram:200035e9    20              ??          20h                                     
ram:200035ea    01              ??          01h                                     
ram:200035eb    f0              ??          F0h                                     
ram:200035ec    4d              ??          4Dh    M                                
ram:200035ed    fa              ??          FAh                                     
ram:200035ee    09              ??          09h                                     
ram:200035ef    20              ??          20h                                     
ram:200035f0    01              ??          01h                                     
ram:200035f1    f0              ??          F0h                                     
ram:200035f2    52              ??          52h    R                                
ram:200035f3    fa              ??          FAh                                     
ram:200035f4    0a              ??          0Ah                                     
ram:200035f5    20              ??          20h                                     
ram:200035f6    01              ??          01h                                     
ram:200035f7    f0              ??          F0h                                     
ram:200035f8    4f              ??          4Fh    O                                
ram:200035f9    fa              ??          FAh                                     
ram:200035fa    10              ??          10h                                     
ram:200035fb    20              ??          20h                                     
ram:200035fc    01              ??          01h                                     
ram:200035fd    f0              ??          F0h                                     
ram:200035fe    4c              ??          4Ch    L                                
ram:200035ff    fa              ??          FAh                                     
ram:20003600    bd              ??          BDh                                     
ram:20003601    e8              ??          E8h                                     
ram:20003602    10              ??          10h                                     
ram:20003603    40              ??          40h    @                                
ram:20003604    15              ??          15h                                     
ram:20003605    20              ??          20h                                     
ram:20003606    01              ??          01h                                     
ram:20003607    f0              ??          F0h                                     
ram:20003608    47              ??          47h    G                                
ram:20003609    ba              ??          BAh                                     
ram:2000360a    00              ??          00h                                     
ram:2000360b    00              ??          00h                                     
                            ;************************************************************************************************
                            ;*                                           FUNCTION                                           *
                            ;************************************************************************************************
                            ;undefined8 FUN_2000360c(void)
                                                          ;XREF[2,0]:   200036ce,20004f6e
ram:2000360c    70b5            push        {r4,r5,r6,lr}                           
ram:2000360e    174c            ldr         r4,[PTR_DAT_2000366c]                   ;= 200030bc
ram:20003610    0f20            movs        r0,#0xf                                 
ram:20003612    2178            ldrb        r1,[r4,#0x0]=>DAT_200030bc              ;= 30h
ram:20003614    01eb4101        add.w       r1,r1,r1, lsl #0x1                      
ram:20003618    04ebc102        add.w       r2,r4,r1, lsl #0x3                      
ram:2000361c    1449            ldr         r1,[PTR_DAT_20003670]                   ;= 20002c1c
ram:2000361e    5369            ldr         r3,[r2,#0x14]=>DAT_20003550             ;= FCA8F001h
ram:20003620    12f8045f        ldrb.w      r5,[r2,#0x4]!=>DAT_20003540             ;= 91h
ram:20003624    4968            ldr         r1,[r1,#0x4]=>DAT_20002c20              ;= D0010400h
ram:20003626    012d            cmp         r5,#0x1                                 
ram:20003628    0ed0            beq         LAB_20003648                            
ram:2000362a    032d            cmp         r5,#0x3                                 
ram:2000362c    0bd1            bne         LAB_20003646                            
ram:2000362e    4ff08050        mov.w       r0,#0x10000000                          
ram:20003632    0069            ldr         r0,[r0,#offset DAT_10000010 &0xff]      
ram:20003634    80b2            uxth        r0,r0                                   
ram:20003636    b3fbf0f0        udiv        r0,r3,r0                                
ram:2000363a    0844            add         r0,r1                                   
ram:2000363c    28df            svc         0x28                                    
                            LAB_2000363e:                 ;XREF[2,0]:   20003662,2000366a
ram:2000363e    0028            cmp         r0,#0x0                                 
ram:20003640    01d1            bne         LAB_20003646                            
ram:20003642    0121            movs        r1,#0x1                                 
ram:20003644    a170            strb        r1,[r4,#0x2]=>DAT_200030be              ;= ADh
                            LAB_20003646:                 ;XREF[2,0]:   2000362c,20003640
ram:20003646    70bd            pop         {r4,r5,r6,pc}                           
                            LAB_20003648:                 ;XREF[1,0]:   20003628
ram:20003648    0803            lsls        r0,r1,#0xc                              
ram:2000364a    5168            ldr         r1,[r2,#0x4]=>DAT_20003544              ;= 4905D106h
ram:2000364c    5669            ldr         r6,[r2,#0x14]=>DAT_20003554             ;= 0000BD0Eh
ram:2000364e    0d1a            subs        r5,r1,r0                                
ram:20003650    3118            adds        r1,r6,r0                                
ram:20003652    9268            ldr         r2,[r2,#0x8]=>DAT_20003548              ;= 20FEF44Fh
ram:20003654    1844            add         r0,r3                                   
ram:20003656    1044            add         r0,r2                                   
ram:20003658    b5f5805f        cmp.w       r5,#0x1000                              
ram:2000365c    02d2            bcs         LAB_20003664                            
ram:2000365e    aa08            lsrs        r2,r5,#0x2                              
ram:20003660    29df            svc         0x29                                    
ram:20003662    ece7            b           LAB_2000363e                            
                            LAB_20003664:                 ;XREF[1,0]:   2000365c
ram:20003664    4ff48062        mov.w       r2,#0x400                               
ram:20003668    29df            svc         0x29                                    
ram:2000366a    e8e7            b           LAB_2000363e                            
                            PTR_DAT_2000366c:             ;XREF[1,0]:   2000360e
ram:2000366c    bc300020        addr        DAT_200030bc                            ;= 30h
                            PTR_DAT_20003670:             ;XREF[1,0]:   2000361c
ram:20003670    1c2c0020        addr        DAT_20002c1c                            ;= F04F0793h
                            ;************************************************************************************************
                            ;*                                           FUNCTION                                           *
                            ;************************************************************************************************
                            ;undefined FUN_20003674(int param_1)
          ;param_1       int                 r0                      
                                                          ;XREF[2,0]:   20004e78,20004f5e
ram:20003674    00eb4002        add.w       r2,param_1,param_1, lsl #0x1            
ram:20003678    0548            ldr         param_1,[PTR_DAT_20003690]              ;= 200030bc
ram:2000367a    0021            movs        r1,#0x0                                 
ram:2000367c    00ebc200        add.w       param_1,param_1,r2, lsl #0x3            
ram:20003680    0322            movs        r2,#0x3                                 
ram:20003682    0171            strb        r1,[param_1,#0x4]=>DAT_200030c0         
ram:20003684    8160            str         r1,[param_1,#0x8]=>DAT_200030c4         ;= 81h
                                                          ; FWD[2,0]:   200030cc,200030d0
ram:20003686    c0e90421        strd        r2,r1,[param_1,#0x10]=>DAT_200030cc     ;= 22h    "
                                                                                    ;= 01h
ram:2000368a    8161            str         r1,[param_1,#0x18]=>DAT_200030d4        
ram:2000368c    c160            str         r1,[param_1,#0xc]=>DAT_200030c8         
ram:2000368e    7047            bx          lr                                      
                            PTR_DAT_20003690:             ;XREF[1,0]:   20003678
ram:20003690    bc300020        addr        DAT_200030bc                            ;= 30h
                            ;************************************************************************************************
                            ;*                                           FUNCTION                                           *
                            ;************************************************************************************************
                            ;int FUN_20003694(undefined param_1, undefined4 * param_2, undefined4 param_3, undefined4 param_4, undefined4 param_5)
          ;param_1       undefined           r0                      
          ;param_2       undefined4 *        r1                      
          ;param_3       undefined4          r2                      
          ;param_4       undefined4          r3                      
          ;param_5       undefined4           0                      ;XREF[1,0]:   2000369a
                                                          ;XREF[2,0]:   20004e5c,20004ef0
ram:20003694    2de9f041        push        {r4,r5,r6,r7,r8,lr}                     
ram:20003698    134c            ldr         r4,[PTR_DAT_200036e8]                   ;= 200030bc
ram:2000369a    069e            ldr         r6,[sp,#param_5+0x18]                   
ram:2000369c    6578            ldrb        r5,[r4,#0x1]=>DAT_200030bd              ;= 50h
ram:2000369e    0a2d            cmp         r5,#0xa                                 
ram:200036a0    1fd0            beq         LAB_200036e2                            
ram:200036a2    2778            ldrb        r7,[r4,#0x0]=>DAT_200030bc              ;= 30h
ram:200036a4    3d44            add         r5,r7                                   
ram:200036a6    edb2            uxtb        r5,r5                                   
ram:200036a8    0a2d            cmp         r5,#0xa                                 
ram:200036aa    01d3            bcc         LAB_200036b0                            
ram:200036ac    0a3d            subs        r5,#0xa                                 
ram:200036ae    edb2            uxtb        r5,r5                                   
                            LAB_200036b0:                 ;XREF[1,0]:   200036aa
ram:200036b0    05eb4505        add.w       r5,r5,r5, lsl #0x1                      
ram:200036b4    04ebc505        add.w       r5,r4,r5, lsl #0x3                      
                                                          ; FWD[2,0]:   20003bd0,20003cc0
ram:200036b8    2871            strb        param_1,[r5,#0x4]=>DAT_20003bd0         ;= 0Ch
                                                                                    ;= 4Fh
                                                          ; FWD[2,0]:   20003be4,20003cd4
ram:200036ba    aa61            str         param_3,[r5,#0x18]=>DAT_20003be4        ;= F972F001h
                                                                                    ;= 1A89020Ch
ram:200036bc    d1e90001        ldrd        param_1,param_2,[param_2,#0x0]          
                                                          ; FWD[4,0]:   20003bdc,20003be0,20003ccc,20003cd0
ram:200036c0    c5e90401        strd        param_1,param_2,[r5,#0x10]=>DAT_20003bdc;= 463268A9h
                                                                                    ;= 692068A3h
                                                                                    ;= F5C061A1h
                                                                                    ;= F3C121F4h
                                                          ; FWD[4,0]:   20003bd4,20003bd8,20003cc4,20003cc8
ram:200036c4    c5e90236        strd        param_4,r6,[r5,#0x8]=>LAB_20003bd4      ;= FB1CF000h
                                                                                    ;= D1FA2800h
                                                                                    ;= 68803120h
                                                                                    ;= 6A216048h
ram:200036c8    a178            ldrb        param_2,[r4,#0x2]=>DAT_200030be         ;= ADh
ram:200036ca    0020            movs        param_1,#0x0                            
ram:200036cc    21b9            cbnz        param_2,LAB_200036d8                    
ram:200036ce    fff79dff        bl          FUN_2000360c                            ;undefined8 FUN_2000360c(void)
ram:200036d2    1128            cmp         param_1,#0x11                           
ram:200036d4    00d1            bne         LAB_200036d8                            
ram:200036d6    0020            movs        param_1,#0x0                            
                            LAB_200036d8:                 ;XREF[2,0]:   200036cc,200036d4
ram:200036d8    6178            ldrb        param_2,[r4,#0x1]=>DAT_200030bd         ;= 50h
ram:200036da    491c            adds        param_2,param_2,#0x1                    
ram:200036dc    6170            strb        param_2,[r4,#0x1]=>DAT_200030bd         ;= 50h
                            LAB_200036de:                 ;XREF[1,0]:   200036e4
ram:200036de    bde8f081        pop.w       {r4,r5,r6,r7,r8,pc}                     
                            LAB_200036e2:                 ;XREF[1,0]:   200036a0
ram:200036e2    0420            movs        param_1,#0x4                            
ram:200036e4    fbe7            b           LAB_200036de                            
ram:200036e6    0000            movs        r0,r0                                   
                            PTR_DAT_200036e8:             ;XREF[1,0]:   20003698
ram:200036e8    bc300020        addr        DAT_200030bc                            ;= 30h
                            ;************************************************************************************************
                            ;*                                           FUNCTION                                           *
                            ;************************************************************************************************
                            ;undefined FUN_200036ec(void)
ram:200036ec    2de9f05f        push        {r4,r5,r6,r7,r8,r9,r10,r11,r12,lr}      
ram:200036f0    2648            ldr         r0,[DAT_2000378c]                       ;= 20002C40h
ram:200036f2    c168            ldr         r1,[r0,#0xc]=>DAT_20002c4c              ;= B11B7C03h
ram:200036f4    f1b3            cbz         r1,LAB_20003774                         
ram:200036f6    dff898b0        ldr.w       r11,[DAT_20003790]                      ;= 40011504h
ram:200036fa    0e68            ldr         r6,[r1,#0x0]=>DAT_b11b7c03              
ram:200036fc    8146            mov         r9,r0                                   
ram:200036fe    dbf80040        ldr.w       r4,[r11,#0x0]=>DAT_40011504             
ram:20003702    0769            ldr         r7,[r0,#0x10]=>LAB_20002c50             ;= 47702008h
ram:20003704    c078            ldrb        r0,[r0,#0x3]=>LAB_20002c42+1            
ram:20003706    e11b            subs        r1,r4,r7                                
ram:20003708    21f07f45        bic         r5,r1,#0xff000000                       
ram:2000370c    ed1c            adds        r5,r5,#0x3                              
ram:2000370e    b0b9            cbnz        r0,LAB_2000373e                         
ram:20003710    dff88080        ldr.w       r8,[DAT_20003794]                       ;= 40011000h
ram:20003714    4ff48030        mov.w       r0,#0x10000                             
ram:20003718    c8f84403        str.w       r0,[r8,#0x344]=>DAT_40011344            
ram:2000371c    c8f80403        str.w       r0,[r8,#0x304]=>DAT_40011304            
ram:20003720    1120            movs        r0,#0x11                                
ram:20003722    fef7effd        bl          FUN_20002304                            ;undefined FUN_20002304(uint param_1)
ram:20003726    1120            movs        r0,#0x11                                
ram:20003728    fef7f7fd        bl          FUN_2000231a                            ;undefined FUN_2000231a(uint param_1)
ram:2000372c    4ff0010a        mov.w       r10,#0x1                                
ram:20003730    c8f800a0        str.w       r10,[r8,#0x0]=>DAT_40011000             
ram:20003734    2f20            movs        r0,#0x2f                                
ram:20003736    fef70bfd        bl          FUN_20002150                            ;undefined FUN_20002150(int param_1)
ram:2000373a    89f803a0        strb.w      r10,[r9,#0x3]=>LAB_20002c42+1           
                            LAB_2000373e:                 ;XREF[1,0]:   2000370e
ram:2000373e    b542            cmp         r5,r6                                   
ram:20003740    00d2            bcs         LAB_20003744                            
ram:20003742    3546            mov         r5,r6                                   
                            LAB_20003744:                 ;XREF[1,0]:   20003740
ram:20003744    124b            ldr         r3,[DAT_20003790]                       ;= 40011504h
ram:20003746    e819            adds        r0,r5,r7                                
ram:20003748    3c33            adds        r3=>DAT_40011540,#0x3c                  
ram:2000374a    20f07f40        bic         r0,r0,#0xff000000                       
ram:2000374e    1860            str         r0,[r3,#0x0]=>DAT_40011540              
ram:20003750    dbf80010        ldr.w       r1,[r11,#0x0]=>DAT_40011504             
ram:20003754    5a46            mov         r2=>DAT_40011504,r11                    
ram:20003756    091b            subs        r1,r1,r4                                
ram:20003758    21f07f41        bic         r1,r1,#0xff000000                       
ram:2000375c    001b            subs        r0,r0,r4                                
ram:2000375e    20f07f40        bic         r0,r0,#0xff000000                       
ram:20003762    c91c            adds        r1,r1,#0x3                              
ram:20003764    8142            cmp         r1,r0                                   
ram:20003766    0fd9            bls         LAB_20003788                            
ram:20003768    1068            ldr         r0,[r2,#0x0]=>DAT_40011504              
ram:2000376a    1860            str         r0,[r3,#0x0]=>DAT_40011540              
ram:2000376c    2f20            movs        r0,#0x2f                                
ram:2000376e    fef7effc        bl          FUN_20002150                            ;undefined FUN_20002150(int param_1)
ram:20003772    00e0            b           LAB_20003776                            
                            LAB_20003774:                 ;XREF[1,0]:   200036f4
ram:20003774    04e0            b           LAB_20003780                            
                            LAB_20003776:                 ;XREF[1,0]:   20003772
ram:20003776    bde8f05f        pop.w       {r4,r5,r6,r7,r8,r9,r10,r11,r12,lr}      
ram:2000377a    1120            movs        r0,#0x11                                
ram:2000377c    fef7d8bd        b.w         FUN_20002330                            ;undefined FUN_20002330(uint param_1)
                            LAB_20003780:                 ;XREF[1,0]:   20003774
ram:20003780    bde8f05f        pop.w       {r4,r5,r6,r7,r8,r9,r10,r11,r12,lr}      
ram:20003784    01f008bc        b.w         LAB_20004f98                            
                            LAB_20003788:                 ;XREF[1,0]:   20003766
ram:20003788    bde8f09f        pop.w       {r4,r5,r6,r7,r8,r9,r10,r11,r12,pc}      
                            DAT_2000378c:                 ;XREF[1,0]:   200036f0
ram:2000378c    402c0020        undefined4  20002C40h                               ;?  ->  20002c40
                            DAT_20003790:                 ;XREF[2,0]:   200036f6,20003744
ram:20003790    04150140        undefined4  40011504h                               
                            DAT_20003794:                 ;XREF[1,0]:   20003710
ram:20003794    00100140        undefined4  40011000h                               
                            ;************************************************************************************************
                            ;*                                           FUNCTION                                           *
                            ;************************************************************************************************
                            ;undefined4 FUN_20003798(ushort * param_1, int param_2, ushort * param_3, uint param_4)
          ;param_1       ushort *            r0                      
          ;param_2       int                 r1                      
          ;param_3       ushort *            r2                      
          ;param_4       uint                r3                      
                                                          ;XREF[1,0]:   200028a4
ram:20003798    2de9f041        push        {r4,r5,r6,r7,r8,lr}                     
ram:2000379c    1788            ldrh        r7,[param_3,#0x0]                       
ram:2000379e    0646            mov         r6,param_1                              
ram:200037a0    b81d            adds        param_1,r7,#0x6                         
ram:200037a2    1446            mov         r4,param_3                              
ram:200037a4    0d46            mov         r5,param_2                              
ram:200037a6    9842            cmp         param_1,param_4                         
ram:200037a8    02d9            bls         LAB_200037b0                            
ram:200037aa    0c20            movs        param_1,#0xc                            
                            LAB_200037ac:                 ;XREF[2,0]:   200037d0,2000381e
ram:200037ac    bde8f081        pop.w       {r4,r5,r6,r7,r8,pc}                     
                            LAB_200037b0:                 ;XREF[1,0]:   200037a8
ram:200037b0    3188            ldrh        param_2,[r6,#0x0]                       
ram:200037b2    0722            movs        param_3,#0x7                            
ram:200037b4    0629            cmp         param_2,#0x6                            
ram:200037b6    0ad3            bcc         LAB_200037ce                            
ram:200037b8    4ff4486c        mov.w       r12,#0xc80                              
ram:200037bc    4ff6ff73        movw        param_4,#0xffff                         
ram:200037c0    6145            cmp         param_2,r12                             
ram:200037c2    01d9            bls         LAB_200037c8                            
ram:200037c4    9942            cmp         param_2,param_4                         
ram:200037c6    02d1            bne         LAB_200037ce                            
                            LAB_200037c8:                 ;XREF[1,0]:   200037c2
ram:200037c8    7088            ldrh        param_1,[r6,#0x2]                       
ram:200037ca    0628            cmp         param_1,#0x6                            
ram:200037cc    01d2            bcs         LAB_200037d2                            
                            LAB_200037ce:                 ;XREF[4,0]:   200037b6,200037c6,200037d8,200037e4
ram:200037ce    1046            mov         param_1,param_3                         
ram:200037d0    ece7            b           LAB_200037ac                            
                            LAB_200037d2:                 ;XREF[1,0]:   200037cc
ram:200037d2    6045            cmp         param_1,r12                             
ram:200037d4    01d9            bls         LAB_200037da                            
ram:200037d6    9842            cmp         param_1,param_4                         
ram:200037d8    f9d1            bne         LAB_200037ce                            
                            LAB_200037da:                 ;XREF[1,0]:   200037d4
ram:200037da    9942            cmp         param_2,param_4                         
ram:200037dc    03d0            beq         LAB_200037e6                            
ram:200037de    9842            cmp         param_1,param_4                         
ram:200037e0    01d0            beq         LAB_200037e6                            
ram:200037e2    8142            cmp         param_2,param_1                         
ram:200037e4    f3d8            bhi         LAB_200037ce                            
                            LAB_200037e6:                 ;XREF[2,0]:   200037dc,200037e0
ram:200037e6    0520            movs        param_1,#0x5                            
ram:200037e8    e855            strb        param_1,[r5,r7]                         
ram:200037ea    2088            ldrh        param_1,[r4,#0x0]                       
ram:200037ec    1221            movs        param_2,#0x12                           
ram:200037ee    401c            adds        param_1,param_1,#0x1                    
ram:200037f0    80b2            uxth        param_1,param_1                         
ram:200037f2    2080            strh        param_1,[r4,#0x0]                       
ram:200037f4    2954            strb        param_2,[r5,param_1]                    
ram:200037f6    2088            ldrh        param_1,[r4,#0x0]                       
ram:200037f8    401c            adds        param_1,param_1,#0x1                    
ram:200037fa    80b2            uxth        param_1,param_1                         
ram:200037fc    2080            strh        param_1,[r4,#0x0]                       
ram:200037fe    4119            adds        param_2,param_1,r5                      
ram:20003800    3088            ldrh        param_1,[r6,#0x0]                       
ram:20003802    01f009fe        bl          FUN_20005418                            ;undefined4 FUN_20005418(undefined4 p...
ram:20003806    2188            ldrh        param_2,[r4,#0x0]                       
ram:20003808    0844            add         param_1,param_2                         
ram:2000380a    80b2            uxth        param_1,param_1                         
ram:2000380c    2080            strh        param_1,[r4,#0x0]                       
ram:2000380e    4119            adds        param_2,param_1,r5                      
ram:20003810    7088            ldrh        param_1,[r6,#0x2]                       
ram:20003812    01f001fe        bl          FUN_20005418                            ;undefined4 FUN_20005418(undefined4 p...
ram:20003816    2188            ldrh        param_2,[r4,#0x0]                       
ram:20003818    0844            add         param_1,param_2                         
ram:2000381a    2080            strh        param_1,[r4,#0x0]                       
ram:2000381c    0020            movs        param_1,#0x0                            
ram:2000381e    c5e7            b           LAB_200037ac                            
ram:20003820    fff758b9        b.w         FUN_20002ad4                            ;undefined FUN_20002ad4(void)
                            LAB_20003824:                 ;XREF[1,0]:   20002f68
ram:20003824    f8b5            push        {r3,r4,r5,r6,r7,lr}=>DAT_0007d7a4       
ram:20003826    1348            ldr         param_1,[DAT_20003874]                  ;= 20002C0Ch
ram:20003828    00f0fcfe        bl          FUN_20004624                            ;undefined4 FUN_20004624(int param_1)
ram:2000382c    114d            ldr         r5,[DAT_20003874]                       ;= 20002C0Ch
ram:2000382e    0026            movs        r6,#0x0                                 
ram:20003830    114c            ldr         r4,[DAT_20003878]                       ;= 200030A0h
ram:20003832    0c3d            subs        r5,#0xc                                 
ram:20003834    30b1            cbz         param_1,LAB_20003844                    
ram:20003836    6169            ldr         r1,[r4,#0x14]=>LAB_200030b2+2           
ram:20003838    b9b1            cbz         r1,LAB_2000386a                         
ram:2000383a    0120            movs        param_1,#0x1                            
ram:2000383c    8df80000        strb.w      param_1,[sp,#0x0]=>local_18             
                            LAB_20003840:                 ;XREF[1,0]:   20003850
ram:20003840    6846            mov         param_1,sp                              
ram:20003842    11e0            b           LAB_20003868                            
                            LAB_20003844:                 ;XREF[1,0]:   20003834
ram:20003844    2878            ldrb        param_1,[r5,#0x0]=>LAB_20002c00         
ram:20003846    20b1            cbz         param_1,LAB_20003852                    
ram:20003848    6169            ldr         r1,[r4,#0x14]=>LAB_200030b2+2           
ram:2000384a    71b1            cbz         r1,LAB_2000386a                         
ram:2000384c    8df80060        strb.w      r6,[sp,#0x0]=>local_18                  
ram:20003850    f6e7            b           LAB_20003840                            
                            LAB_20003852:                 ;XREF[1,0]:   20003846
ram:20003852    6878            ldrb        param_1,[r5,#offset LAB_20002c00+1 &0...
ram:20003854    58b1            cbz         param_1,LAB_2000386e                    
ram:20003856    a168            ldr         r1,[r4,#0x8]=>LAB_200030a8              
                            LAB_20003858:                 ;XREF[1,0]:   20003870
ram:20003858    0848            ldr         param_1,[DAT_2000387c]                  ;= 0007D7A4h
ram:2000385a    0022            movs        r2,#0x0                                 
ram:2000385c    0068            ldr         param_1,[param_1,#0x0]=>DAT_0007d7a4    
ram:2000385e    fff761fa        bl          FUN_20002d24                            ;undefined4 FUN_20002d24(int param_1,...
ram:20003862    10b1            cbz         param_1,LAB_2000386a                    
ram:20003864    a169            ldr         r1,[r4,#0x18]=>LAB_200030b6+2           
ram:20003866    01b1            cbz         r1,LAB_2000386a                         
                            LAB_20003868:                 ;XREF[1,0]:   20003842
                                                          ; FWD[2,0]:   e88c0c04,f241000e
ram:20003868    8847            blx         r1=>SUB_e88c0c04                        
                            LAB_2000386a:                 ;XREF[4,0]:   20003838,2000384a,20003862,20003866
ram:2000386a    2e70            strb        r6,[r5,#0x0]=>LAB_20002c00              
ram:2000386c    f8bd            pop         {r3,r4,r5,r6,r7,pc}                     
                            LAB_2000386e:                 ;XREF[1,0]:   20003854
ram:2000386e    6168            ldr         r1,[r4,#0x4]=>LAB_200030a4              
ram:20003870    f2e7            b           LAB_20003858                            
ram:20003872    0000            movs        r0,r0                                   
                            DAT_20003874:                 ;XREF[2,0]:   20003826,2000382c
ram:20003874    0c2c0020        undefined4  20002C0Ch                               ;?  ->  20002c0c
                            DAT_20003878:                 ;XREF[1,0]:   20003830
ram:20003878    a0300020        undefined4  200030A0h                               ;?  ->  200030a0
                            DAT_2000387c:                 ;XREF[1,0]:   20003858
ram:2000387c    a4d70700        undefined4  0007D7A4h                               
                            ;************************************************************************************************
                            ;*                                           FUNCTION                                           *
                            ;************************************************************************************************
                            ;uint FUN_20003880(int param_1, uint param_2, ushort * param_3)
          ;param_1       int                 r0                      
          ;param_2       uint                r1                      
          ;param_3       ushort *            r2                      
                                                          ;XREF[4,0]:   200022ee,2000334a,20003a0c,20003dac
ram:20003880    10b5            push        {r4,lr}                                 
ram:20003882    0446            mov         r4,param_1                              
ram:20003884    12b1            cbz         param_3,LAB_2000388c                    
ram:20003886    1088            ldrh        param_1,[param_3,#0x0]                  
                            LAB_20003888:                 ;XREF[1,0]:   20003890
ram:20003888    0022            movs        param_3,#0x0                            
ram:2000388a    11e0            b           LAB_200038b0                            
                            LAB_2000388c:                 ;XREF[1,0]:   20003884
ram:2000388c    4ff6ff70        movw        param_1,#0xffff                         
ram:20003890    fae7            b           LAB_20003888                            
                            LAB_20003892:                 ;XREF[1,0]:   200038b2
ram:20003892    030a            lsrs        r3,param_1,#0x8                         
ram:20003894    43ea0023        orr.w       r3,r3,param_1, lsl #0x8                 
ram:20003898    a05c            ldrb        param_1,[r4,param_3]                    
ram:2000389a    5840            eors        param_1,r3                              
ram:2000389c    c0f30313        ubfx        r3,param_1,#0x4,#0x4                    
ram:200038a0    5840            eors        param_1,r3                              
ram:200038a2    80ea0030        eor.w       param_1,param_1,param_1, lsl #0xc       
ram:200038a6    80b2            uxth        param_1,param_1                         
ram:200038a8    c3b2            uxtb        r3,param_1                              
ram:200038aa    80ea4310        eor.w       param_1,param_1,r3, lsl #0x5            
ram:200038ae    521c            adds        param_3,param_3,#0x1                    
                            LAB_200038b0:                 ;XREF[1,0]:   2000388a
ram:200038b0    8a42            cmp         param_3,param_2                         
ram:200038b2    eed3            bcc         LAB_20003892                            
ram:200038b4    10bd            pop         {r4,pc}                                 
ram:200038b6    0000            movs        r0,r0                                   
                            ;************************************************************************************************
                            ;*                                           FUNCTION                                           *
                            ;************************************************************************************************
                            ;int FUN_200038b8(void)
          ;local_14      undefined4         -14                      ;XREF[1,0]:   20003900
          ;local_18      undefined4         -18                      ;XREF[1,0]:   200038fe
          ;local_24      undefined4         -24                      ;XREF[2,1]:   200038ea,20003904,200038f8
          ;local_28      undefined4         -28                      ;XREF[1,0]:   20003902
ram:200038b8    30b5            push        {r4,r5,lr}                              
ram:200038ba    164c            ldr         r4,[DAT_20003914]                       ;= 200031F8h
ram:200038bc    87b0            sub         sp,#0x1c                                
ram:200038be    1648            ldr         r0=>FUN_20002c8c,[->FUN_20002c8c]       ;= 20002c8c
ram:200038c0    e168            ldr         r1,[r4,#0xc]=>LAB_20003204              
ram:200038c2    01f0c5fa        bl          FUN_20004e50                            ;undefined FUN_20004e50(undefined4 * ...
ram:200038c6    08b1            cbz         r0,LAB_200038cc                         
ram:200038c8    fff704f9        bl          FUN_20002ad4                            ;undefined FUN_20002ad4(void)
                            LAB_200038cc:                 ;XREF[1,0]:   200038c6
ram:200038cc    1248            ldr         r0,[->FUN_20002c8c]                     ;= 20002c8c
ram:200038ce    e268            ldr         r2,[r4,#0xc]=>LAB_20003204              
ram:200038d0    0838            subs        r0,#0x8                                 
ram:200038d2    0023            movs        r3,#0x0                                 
ram:200038d4    4168            ldr         r1,[r0,#0x4]=>DAT_20002c88              ;= FF64F7FFh
ram:200038d6    0830            adds        r0=>FUN_20002c8c,#0x8                   
ram:200038d8    01f0f8fa        bl          FUN_20004ecc                            ;int FUN_20004ecc(undefined4 * param_...
ram:200038dc    0500            movs        r5,r0                                   
ram:200038de    15d1            bne         LAB_2000390c                            
ram:200038e0    1421            movs        r1,#0x14                                
ram:200038e2    01a8            add         r0,sp,#0x4                              
ram:200038e4    fef7b5fc        bl          FUN_20002252                            ;undefined FUN_20002252(undefined * p...
ram:200038e8    0020            movs        r0,#0x0                                 
ram:200038ea    8df80400        strb.w      r0,[sp,#local_24+0x28]                  
ram:200038ee    0a48            ldr         r0,[->FUN_20002c8c]                     ;= 20002c8c
ram:200038f0    0df1040c        add.w       r12,sp,#0x4                             
ram:200038f4    2038            subs        r0,#0x20                                
ram:200038f6    8088            ldrh        r0,[r0,#0x4]=>DAT_20002c70              ;= FF31h
ram:200038f8    adf80600        strh.w      r0,[sp,#local_24+0x2a]                  
ram:200038fc    e068            ldr         r0,[r4,#0xc]=>LAB_20003204              
ram:200038fe    0490            str         r0,[sp,#local_18+0x28]                  
ram:20003900    0598            ldr         r0,[sp,#local_14+0x28]                  
ram:20003902    0090            str         r0,[sp,#0x0]=>local_28                  
ram:20003904    9ce80f00        ldm.w       r12=>local_24,{r0,r1,r2,r3}             
ram:20003908    fff7a2fd        bl          FUN_20003450                            ;undefined FUN_20003450(uint param_1,...
                            LAB_2000390c:                 ;XREF[1,0]:   200038de
ram:2000390c    07b0            add         sp,#0x1c                                
ram:2000390e    2846            mov         r0,r5                                   
ram:20003910    30bd            pop         {r4,r5,pc}                              
ram:20003912    0000            movs        r0,r0                                   
                            DAT_20003914:                 ;XREF[1,0]:   200038ba
ram:20003914    f8310020        undefined4  200031F8h                               ;?  ->  200031f8
                            PTR_FUN_20003918:             ;XREF[3,0]:   200038be,200038cc,200038ee
ram:20003918    8c2c0020        addr        FUN_20002c8c                            
ram:2000391c    03              ??          03h                                     
ram:2000391d    21              ??          21h    !                                
ram:2000391e    61              ??          61h    a                                
ram:2000391f    f3              ??          F3h                                     
ram:20003920    07              ??          07h                                     
ram:20003921    00              ??          00h                                     
ram:20003922    08              ??          08h                                     
ram:20003923    b5              ??          B5h                                     
ram:20003924    05              ??          05h                                     
ram:20003925    49              ??          49h    I                                
ram:20003926    06              ??          06h                                     
ram:20003927    4b              ??          4Bh    K                                
ram:20003928    89              ??          89h                                     
ram:20003929    88              ??          88h                                     
ram:2000392a    61              ??          61h    a                                
ram:2000392b    f3              ??          F3h                                     
ram:2000392c    1f              ??          1Fh                                     
ram:2000392d    40              ??          40h    @                                
ram:2000392e    0e              ??          0Eh                                     
ram:2000392f    cb              ??          CBh                                     
ram:20003930    00              ??          00h                                     
ram:20003931    94              ??          94h                                     
ram:20003932    ff              ??          FFh                                     
ram:20003933    f7              ??          F7h                                     
ram:20003934    8d              ??          8Dh                                     
ram:20003935    fd              ??          FDh                                     
ram:20003936    00              ??          00h                                     
ram:20003937    20              ??          20h                                     
ram:20003938    08              ??          08h                                     
ram:20003939    bd              ??          BDh                                     
ram:2000393a    00              ??          00h                                     
ram:2000393b    00              ??          00h                                     
ram:2000393c    6c              ??          6Ch    l                                ;?  ->  20002c6c
ram:2000393d    2c              ??          2Ch    ,                                
ram:2000393e    00              ??          00h                                     
ram:2000393f    20              ??          20h                                     
ram:20003940    fc              ??          FCh                                     ;?  ->  200031fc
ram:20003941    31              ??          31h    1                                
ram:20003942    00              ??          00h                                     
ram:20003943    20              ??          20h                                     
ram:20003944    01              ??          01h                                     
ram:20003945    21              ??          21h    !                                
ram:20003946    38              ??          38h    8                                
ram:20003947    b5              ??          B5h                                     
ram:20003948    61              ??          61h    a                                
ram:20003949    f3              ??          F3h                                     
ram:2000394a    07              ??          07h                                     
ram:2000394b    00              ??          00h                                     
ram:2000394c    06              ??          06h                                     
ram:2000394d    49              ??          49h    I                                
ram:2000394e    07              ??          07h                                     
ram:2000394f    4b              ??          4Bh    K                                
ram:20003950    89              ??          89h                                     
ram:20003951    88              ??          88h                                     
ram:20003952    61              ??          61h    a                                
ram:20003953    f3              ??          F3h                                     
ram:20003954    1f              ??          1Fh                                     
ram:20003955    40              ??          40h    @                                
ram:20003956    4f              ??          4Fh    O                                
ram:20003957    f4              ??          F4h                                     
ram:20003958    40              ??          40h    @                                
ram:20003959    51              ??          51h    Q                                
ram:2000395a    8c              ??          8Ch                                     
ram:2000395b    68              ??          68h    h                                
ram:2000395c    0e              ??          0Eh                                     
ram:2000395d    cb              ??          CBh                                     
ram:2000395e    00              ??          00h                                     
ram:2000395f    94              ??          94h                                     
ram:20003960    ff              ??          FFh                                     
ram:20003961    f7              ??          F7h                                     
ram:20003962    76              ??          76h    v                                
ram:20003963    fd              ??          FDh                                     
ram:20003964    00              ??          00h                                     
ram:20003965    20              ??          20h                                     
ram:20003966    38              ??          38h    8                                
ram:20003967    bd              ??          BDh                                     
ram:20003968    6c              ??          6Ch    l                                ;?  ->  20002c6c
ram:20003969    2c              ??          2Ch    ,                                
ram:2000396a    00              ??          00h                                     
ram:2000396b    20              ??          20h                                     
ram:2000396c    fc              ??          FCh                                     ;?  ->  200031fc
ram:2000396d    31              ??          31h    1                                
ram:2000396e    00              ??          00h                                     
ram:2000396f    20              ??          20h                                     
ram:20003970    00              ??          00h                                     
ram:20003971    b5              ??          B5h                                     
ram:20003972    8b              ??          8Bh                                     
ram:20003973    b0              ??          B0h                                     
ram:20003974    04              ??          04h                                     
ram:20003975    a8              ??          A8h                                     
ram:20003976    ff              ??          FFh                                     
ram:20003977    f7              ??          F7h                                     
ram:20003978    f3              ??          F3h                                     
ram:20003979    fd              ??          FDh                                     
ram:2000397a    08              ??          08h                                     
ram:2000397b    98              ??          98h                                     
ram:2000397c    00              ??          00h                                     
ram:2000397d    28              ??          28h    (                                
ram:2000397e    0c              ??          0Ch                                     
ram:2000397f    d0              ??          D0h                                     
ram:20003980    07              ??          07h                                     
ram:20003981    98              ??          98h                                     
ram:20003982    60              ??          60h    `                                
ram:20003983    b1              ??          B1h                                     
ram:20003984    07              ??          07h                                     
ram:20003985    99              ??          99h                                     
ram:20003986    0a              ??          0Ah                                     
ram:20003987    98              ??          98h                                     
ram:20003988    08              ??          08h                                     
ram:20003989    44              ??          44h    D                                
ram:2000398a    00              ??          00h                                     
ram:2000398b    21              ??          21h    !                                
ram:2000398c    cd              ??          CDh                                     
ram:2000398d    e9              ??          E9h                                     
ram:2000398e    00              ??          00h                                     
ram:2000398f    10              ??          10h                                     
ram:20003990    08              ??          08h                                     
ram:20003991    98              ??          98h                                     
ram:20003992    80              ??          80h                                     
ram:20003993    08              ??          08h                                     
ram:20003994    02              ??          02h                                     
ram:20003995    90              ??          90h                                     
ram:20003996    68              ??          68h    h                                
ram:20003997    46              ??          46h    F                                
ram:20003998    18              ??          18h                                     
ram:20003999    df              ??          DFh                                     
ram:2000399a    0b              ??          0Bh                                     
ram:2000399b    b0              ??          B0h                                     
ram:2000399c    00              ??          00h                                     
ram:2000399d    bd              ??          BDh                                     
ram:2000399e    4f              ??          4Fh    O                                
ram:2000399f    f4              ??          F4h                                     
ram:200039a0    40              ??          40h    @                                
ram:200039a1    50              ??          50h    P                                
ram:200039a2    80              ??          80h                                     
ram:200039a3    68              ??          68h    h                                
ram:200039a4    c0              ??          C0h                                     
ram:200039a5    f5              ??          F5h                                     
ram:200039a6    f4              ??          F4h                                     
ram:200039a7    21              ??          21h    !                                
ram:200039a8    c1              ??          C1h                                     
ram:200039a9    f3              ??          F3h                                     
ram:200039aa    0c              ??          0Ch                                     
ram:200039ab    02              ??          02h                                     
ram:200039ac    89              ??          89h                                     
ram:200039ad    1a              ??          1Ah                                     
ram:200039ae    00              ??          00h                                     
ram:200039af    eb              ??          EBh                                     
ram:200039b0    51              ??          51h    Q                                
ram:200039b1    00              ??          00h                                     
ram:200039b2    ea              ??          EAh                                     
ram:200039b3    e7              ??          E7h                                     
ram:200039b4    00              ??          00h                                     
ram:200039b5    b5              ??          B5h                                     
ram:200039b6    8b              ??          8Bh                                     
ram:200039b7    b0              ??          B0h                                     
ram:200039b8    04              ??          04h                                     
ram:200039b9    a8              ??          A8h                                     
ram:200039ba    ff              ??          FFh                                     
ram:200039bb    f7              ??          F7h                                     
ram:200039bc    d1              ??          D1h                                     
ram:200039bd    fd              ??          FDh                                     
ram:200039be    08              ??          08h                                     
ram:200039bf    98              ??          98h                                     
ram:200039c0    00              ??          00h                                     
ram:200039c1    28              ??          28h    (                                
ram:200039c2    0f              ??          0Fh                                     
ram:200039c3    d0              ??          D0h                                     
ram:200039c4    07              ??          07h                                     
ram:200039c5    98              ??          98h                                     
ram:200039c6    78              ??          78h    x                                
ram:200039c7    b1              ??          B1h                                     
ram:200039c8    07              ??          07h                                     
ram:200039c9    99              ??          99h                                     
ram:200039ca    0a              ??          0Ah                                     
ram:200039cb    98              ??          98h                                     
ram:200039cc    08              ??          08h                                     
ram:200039cd    44              ??          44h    D                                
ram:200039ce    03              ??          03h                                     
ram:200039cf    21              ??          21h    !                                
ram:200039d0    00              ??          00h                                     
ram:200039d1    91              ??          91h                                     
ram:200039d2    4f              ??          4Fh    O                                
ram:200039d3    f4              ??          F4h                                     
ram:200039d4    f4              ??          F4h                                     
ram:200039d5    21              ??          21h    !                                
ram:200039d6    cd              ??          CDh                                     
ram:200039d7    e9              ??          E9h                                     
ram:200039d8    01              ??          01h                                     
ram:200039d9    10              ??          10h                                     
ram:200039da    08              ??          08h                                     
ram:200039db    98              ??          98h                                     
ram:200039dc    80              ??          80h                                     
ram:200039dd    08              ??          08h                                     
ram:200039de    03              ??          03h                                     
ram:200039df    90              ??          90h                                     
ram:200039e0    68              ??          68h    h                                
ram:200039e1    46              ??          46h    F                                
ram:200039e2    18              ??          18h                                     
ram:200039e3    df              ??          DFh                                     
ram:200039e4    0b              ??          0Bh                                     
ram:200039e5    b0              ??          B0h                                     
ram:200039e6    00              ??          00h                                     
ram:200039e7    bd              ??          BDh                                     
ram:200039e8    4f              ??          4Fh    O                                
ram:200039e9    f4              ??          F4h                                     
ram:200039ea    40              ??          40h    @                                
ram:200039eb    50              ??          50h    P                                
ram:200039ec    80              ??          80h                                     
ram:200039ed    68              ??          68h    h                                
ram:200039ee    c0              ??          C0h                                     
ram:200039ef    f5              ??          F5h                                     
ram:200039f0    f4              ??          F4h                                     
ram:200039f1    21              ??          21h    !                                
ram:200039f2    c1              ??          C1h                                     
ram:200039f3    f3              ??          F3h                                     
ram:200039f4    0c              ??          0Ch                                     
ram:200039f5    02              ??          02h                                     
ram:200039f6    89              ??          89h                                     
ram:200039f7    1a              ??          1Ah                                     
ram:200039f8    00              ??          00h                                     
ram:200039f9    eb              ??          EBh                                     
ram:200039fa    51              ??          51h    Q                                
ram:200039fb    00              ??          00h                                     
ram:200039fc    e7              ??          E7h                                     
ram:200039fd    e7              ??          E7h                                     
ram:200039fe    00              ??          00h                                     
ram:200039ff    00              ??          00h                                     
                            ;************************************************************************************************
                            ;*                                           FUNCTION                                           *
                            ;************************************************************************************************
                            ;undefined4 FUN_20003a00(undefined4 * param_1)
          ;param_1       undefined4 *        r0                      
                                                          ;XREF[1,0]:   200042b2
ram:20003a00    70b5            push        {r4,r5,r6,lr}                           
ram:20003a02    0400            movs        r4,param_1                              
ram:20003a04    0bd0            beq         LAB_20003a1e                            
ram:20003a06    0022            movs        r2,#0x0                                 
ram:20003a08    3c21            movs        r1,#0x3c                                
ram:20003a0a    0b48            ldr         param_1,[DAT_20003a38]                  ;= 2000FF82h
ram:20003a0c    fff738ff        bl          FUN_20003880                            ;uint FUN_20003880(int param_1, uint ...
ram:20003a10    094d            ldr         r5,[DAT_20003a38]                       ;= 2000FF82h
ram:20003a12    ad1e            subs        r5,r5,#0x2                              
ram:20003a14    2988            ldrh        r1,[r5,#0x0]=>DAT_2000ff80              
ram:20003a16    8842            cmp         param_1,r1                              
ram:20003a18    03d0            beq         LAB_20003a22                            
ram:20003a1a    0b20            movs        param_1,#0xb                            
ram:20003a1c    70bd            pop         {r4,r5,r6,pc}                           
                            LAB_20003a1e:                 ;XREF[1,0]:   20003a04
ram:20003a1e    0e20            movs        param_1,#0xe                            
ram:20003a20    70bd            pop         {r4,r5,r6,pc}                           
                            LAB_20003a22:                 ;XREF[1,0]:   20003a18
ram:20003a22    3c22            movs        r2,#0x3c                                
ram:20003a24    0449            ldr         r1,[DAT_20003a38]                       ;= 2000FF82h
ram:20003a26    2046            mov         param_1,r4                              
ram:20003a28    fef7fafb        bl          FUN_20002220                            ;undefined FUN_20002220(undefined4 * ...
ram:20003a2c    2888            ldrh        param_1,[r5,#0x0]=>DAT_2000ff80         
ram:20003a2e    401c            adds        param_1,param_1,#0x1                    
ram:20003a30    2880            strh        param_1,[r5,#0x0]=>DAT_2000ff80         
ram:20003a32    0020            movs        param_1,#0x0                            
ram:20003a34    70bd            pop         {r4,r5,r6,pc}                           
ram:20003a36    0000            movs        r0,r0                                   
                            DAT_20003a38:                 ;XREF[3,0]:   20003a0a,20003a10,20003a24
ram:20003a38    82ff0020        undefined4  2000FF82h                               
                            ;************************************************************************************************
                            ;*                                           FUNCTION                                           *
                            ;************************************************************************************************
                            ;undefined FUN_20003a3c(int param_1, int param_2, int param_3)
          ;param_1       int                 r0                      
          ;param_2       int                 r1                      
          ;param_3       int                 r2                      
ram:20003a3c    70b5            push        {r4,r5,r6,lr}                           
ram:20003a3e    1546            mov         r5,param_3                              
ram:20003a40    0a46            mov         param_3,param_2                         
ram:20003a42    0328            cmp         param_1,#0x3                            
ram:20003a44    1fd0            beq         LAB_20003a86                            
ram:20003a46    0428            cmp         param_1,#0x4                            
ram:20003a48    24d1            bne         LAB_20003a94                            
ram:20003a4a    134c            ldr         r4,[PTR_DAT_20003a98]                   ;= 20002c98
ram:20003a4c    39b1            cbz         param_2,LAB_20003a5e                    
ram:20003a4e    e088            ldrh        param_1,[r4,#0x6]=>DAT_20002c9e         ;= 460Fh
ram:20003a50    a0f57f41        sub.w       param_2,param_1,#0xff00                 
ram:20003a54    ff39            subs        param_2,#0xff                           
ram:20003a56    1dd0            beq         LAB_20003a94                            
ram:20003a58    1321            movs        param_2,#0x13                           
ram:20003a5a    76df            svc         0x76                                    
ram:20003a5c    0de0            b           LAB_20003a7a                            
                            LAB_20003a5e:                 ;XREF[1,0]:   20003a4c
ram:20003a5e    2846            mov         param_1,r5                              
ram:20003a60    00f0e8fc        bl          FUN_20004434                            ;undefined4 FUN_20004434(int param_1)
ram:20003a64    08b1            cbz         param_1,LAB_20003a6a                    
ram:20003a66    fff735f8        bl          FUN_20002ad4                            ;undefined FUN_20002ad4(void)
                            LAB_20003a6a:                 ;XREF[1,0]:   20003a64
ram:20003a6a    a069            ldr         param_1,[r4,#0x18]=>DAT_20002cb0        ;= F8C52003h
ram:20003a6c    a842            cmp         param_1,r5                              
ram:20003a6e    11d1            bne         LAB_20003a94                            
ram:20003a70    0122            movs        param_3,#0x1                            
ram:20003a72    0321            movs        param_2,#0x3                            
                            LAB_20003a74:                 ;XREF[1,0]:   20003a92
ram:20003a74    0948            ldr         param_1=>DAT_200032b8,[PTR_DAT_20003a9c];= 05h
                                                                                    ;= 200032b8
ram:20003a76    fff7d3fb        bl          FUN_20003220                            ;undefined8 FUN_20003220(ushort * par...
                            LAB_20003a7a:                 ;XREF[1,0]:   20003a5c
ram:20003a7a    0028            cmp         param_1,#0x0                            
ram:20003a7c    0ad0            beq         LAB_20003a94                            
ram:20003a7e    bde87040        pop.w       {r4,r5,r6,lr}                           
ram:20003a82    fff727b8        b.w         FUN_20002ad4                            ;undefined FUN_20002ad4(void)
                            LAB_20003a86:                 ;XREF[1,0]:   20003a44
ram:20003a86    0121            movs        param_2,#0x1                            
ram:20003a88    1046            mov         param_1,param_3                         
ram:20003a8a    00f0e3ff        bl          FUN_20004a54                            ;undefined4 FUN_20004a54(int param_1,...
ram:20003a8e    0246            mov         param_3,param_1                         
ram:20003a90    0121            movs        param_2,#0x1                            
ram:20003a92    efe7            b           LAB_20003a74                            
                            LAB_20003a94:                 ;XREF[4,0]:   20003a48,20003a56,20003a6e,20003a7c
ram:20003a94    70bd            pop         {r4,r5,r6,pc}                           
ram:20003a96    0000            movs        r0,r0                                   
                            PTR_DAT_20003a98:             ;XREF[1,0]:   20003a4a
ram:20003a98    982c0020        addr        DAT_20002c98                            ;= 80h
                            PTR_DAT_20003a9c:             ;XREF[1,0]:   20003a74
ram:20003a9c    b8320020        addr        DAT_200032b8                            ;= 05h
                            ;************************************************************************************************
                            ;*                                           FUNCTION                                           *
                            ;************************************************************************************************
                            ;undefined FUN_20003aa0(void)
          ;local_c       undefined4          -c                      ;XREF[1,0]:   20003aae
          ;local_1c      undefined4         -1c                      ;XREF[1,0]:   20003ab6
          ;local_20      undefined4         -20                      ;XREF[1,0]:   20003ab4
ram:20003aa0    00b5            push        {lr}                                    
ram:20003aa2    87b0            sub         sp,#0x1c                                
ram:20003aa4    1422            movs        r2,#0x14                                
ram:20003aa6    0749            ldr         r1,[DAT_20003ac4]                       ;= 0007D7DCh
ram:20003aa8    01a8            add         r0,sp,#0x4                              
ram:20003aaa    fef7b9fb        bl          FUN_20002220                            ;undefined FUN_20002220(undefined4 * ...
ram:20003aae    0598            ldr         r0,[sp,#local_c+0x20]                   
ram:20003ab0    0df1040c        add.w       r12,sp,#0x4                             
ram:20003ab4    0090            str         r0,[sp,#0x0]=>local_20                  
ram:20003ab6    9ce80f00        ldm.w       r12=>local_1c,{r0,r1,r2,r3}             
ram:20003aba    fff7c9fc        bl          FUN_20003450                            ;undefined FUN_20003450(uint param_1,...
ram:20003abe    07b0            add         sp,#0x1c                                
ram:20003ac0    00bd            pop         {pc}                                    
ram:20003ac2    0000            movs        r0,r0                                   
                            DAT_20003ac4:                 ;XREF[1,0]:   20003aa6
ram:20003ac4    dcd70700        undefined4  0007D7DCh                               
ram:20003ac8    70              ??          70h    p                                
ram:20003ac9    47              ??          47h    G                                
                            ;************************************************************************************************
                            ;*                                           FUNCTION                                           *
                            ;************************************************************************************************
                            ;undefined * FUN_20003aca(void)
          ;local_c       undefined4          -c                      ;XREF[1,0]:   20003ad6
          ;local_14      undefined4         -14                      ;XREF[1,0]:   20003ad0
          ;local_18      undefined4         -18                      ;XREF[1,0]:   20003ace
                                                          ;XREF[2,0]:   200040e8,2000411e
ram:20003aca    1fb5            push        {r0,r1,r2,r3,r4,lr}                     
ram:20003acc    0323            movs        r3,#0x3                                 
ram:20003ace    0093            str         r3,[sp,#0x0]=>local_18                  
ram:20003ad0    cde90101        strd        r0,r1,[sp,#local_14+0x18]               
ram:20003ad4    9008            lsrs        r0,r2,#0x2                              
ram:20003ad6    0390            str         r0,[sp,#local_c+0x18]                   
ram:20003ad8    6846            mov         r0,sp                                   
ram:20003ada    18df            svc         0x18                                    
ram:20003adc    04b0            add         sp,#0x10                                
ram:20003ade    10bd            pop         {r4,pc}                                 
                            ;************************************************************************************************
                            ;*                                           FUNCTION                                           *
                            ;************************************************************************************************
                            ;undefined * FUN_20003ae0(void)
          ;local_c       undefined4          -c                      ;XREF[1,0]:   20003aec
          ;local_14      undefined4         -14                      ;XREF[1,0]:   20003ae6
          ;local_18      undefined4         -18                      ;XREF[1,0]:   20003ae4
                                                          ;XREF[4,0]:   2000404a,20004058,20004076,2000410c
ram:20003ae0    1fb5            push        {r0,r1,r2,r3,r4,lr}                     
ram:20003ae2    0123            movs        r3,#0x1                                 
ram:20003ae4    0093            str         r3,[sp,#0x0]=>local_18                  
ram:20003ae6    cde90101        strd        r0,r1,[sp,#local_14+0x18]               
ram:20003aea    9008            lsrs        r0,r2,#0x2                              
ram:20003aec    0390            str         r0,[sp,#local_c+0x18]                   
ram:20003aee    6846            mov         r0,sp                                   
ram:20003af0    18df            svc         0x18                                    
ram:20003af2    04b0            add         sp,#0x10                                
ram:20003af4    10bd            pop         {r4,pc}                                 
                            ;************************************************************************************************
                            ;*                                           FUNCTION                                           *
                            ;************************************************************************************************
                            ;undefined8 FUN_20003af6(int param_1)
          ;param_1       int                 r0                      
          ;local_12      undefined1         -12                      ;XREF[1,0]:   20003b1e
          ;local_14      undefined2         -14                      ;XREF[1,0]:   20003b26
          ;local_18      undefined4         -18                      ;XREF[3,4]:   20003b2a,20003b2c,20003b36,20003b3a,20003b4a
                                                                     ;             20003b4e,20003b60
          ;local_1c      undefined4         -1c                      ;XREF[1,0]:   20003b80
          ;local_20      undefined2         -20                      ;XREF[1,0]:   20003b7c
          ;local_22      undefined2         -22                      ;XREF[1,0]:   20003b78
          ;local_24      undefined2         -24                      ;XREF[1,0]:   20003b72
          ;local_28      undefined4         -28                      ;XREF[1,0]:   20003b70
          ;local_2c      undefined4         -2c                      ;XREF[1,0]:   20003b6c
          ;local_30      undefined4         -30                      ;XREF[1,0]:   20003b1a
          ;local_34      undefined4         -34                      ;XREF[1,0]:   20003b18
          ;local_38      undefined4         -38                      ;XREF[1,0]:   20003b16
          ;local_3c      undefined4         -3c                      ;XREF[1,0]:   20003b14
          ;local_44      undefined4         -44                      ;XREF[1,0]:   20003b0a
          ;local_48      undefined1         -48                      ;XREF[2,0]:   20003b06,20003b10
ram:20003af6    30b5            push        {r4,r5,lr}                              
ram:20003af8    8fb0            sub         sp,#0x3c                                
ram:20003afa    0546            mov         r5,param_1                              
ram:20003afc    1c21            movs        r1,#0x1c                                
ram:20003afe    6846            mov         param_1,sp                              
ram:20003b00    fef7a7fb        bl          FUN_20002252                            ;undefined FUN_20002252(undefined * p...
ram:20003b04    0024            movs        r4,#0x0                                 
ram:20003b06    9df80000        ldrb.w      param_1,[sp,#0x0]=>local_48             
ram:20003b0a    0194            str         r4,[sp,#local_44+0x48]                  
ram:20003b0c    40f01800        orr         param_1,param_1,#0x18                   
ram:20003b10    8df80000        strb.w      param_1,[sp,#0x0]=>local_48             
ram:20003b14    0394            str         r4,[sp,#local_3c+0x48]                  
ram:20003b16    0494            str         r4,[sp,#local_38+0x48]                  
ram:20003b18    0594            str         r4,[sp,#local_34+0x48]                  
ram:20003b1a    0694            str         r4,[sp,#local_30+0x48]                  
ram:20003b1c    a879            ldrb        param_1,[r5,#0x6]                       
ram:20003b1e    8df83600        strb.w      param_1,[sp,#local_12+0x48]             
ram:20003b22    41f23150        movw        param_1,#0x1531                         
ram:20003b26    adf83400        strh.w      param_1,[sp,#local_14+0x48]             
ram:20003b2a    0c94            str         r4,[sp,#local_18+0x48]                  
ram:20003b2c    9df83000        ldrb.w      param_1,[sp,#local_18+0x48]             
ram:20003b30    1421            movs        r1,#0x14                                
ram:20003b32    20f0ff00        bic         param_1,param_1,#0xff                   
ram:20003b36    8df83000        strb.w      param_1,[sp,#local_18+0x48]             
ram:20003b3a    9df83100        ldrb.w      param_1,[sp,#local_18+0x49]             
ram:20003b3e    20f00f00        bic         param_1,param_1,#0xf                    
ram:20003b42    401c            adds        param_1,param_1,#0x1                    
ram:20003b44    20f0f000        bic         param_1,param_1,#0xf0                   
ram:20003b48    1030            adds        param_1,#0x10                           
ram:20003b4a    8df83100        strb.w      param_1,[sp,#local_18+0x49]             
ram:20003b4e    9df83200        ldrb.w      param_1,[sp,#local_18+0x4a]             
ram:20003b52    20f00600        bic         param_1,param_1,#0x6                    
ram:20003b56    801c            adds        param_1,param_1,#0x2                    
ram:20003b58    20f00800        bic         param_1,param_1,#0x8                    
ram:20003b5c    40f01100        orr         param_1,param_1,#0x11                   
ram:20003b60    8df83200        strb.w      param_1,[sp,#local_18+0x4a]             
ram:20003b64    07a8            add         param_1,sp,#0x1c                        
ram:20003b66    fef774fb        bl          FUN_20002252                            ;undefined FUN_20002252(undefined * p...
ram:20003b6a    0da8            add         param_1,sp,#0x34                        
ram:20003b6c    0790            str         param_1,[sp,#local_2c+0x48]             
ram:20003b6e    0ca8            add         param_1,sp,#0x30                        
ram:20003b70    0890            str         param_1,[sp,#local_28+0x48]             
ram:20003b72    adf82440        strh.w      r4,[sp,#local_24+0x48]                  
ram:20003b76    1720            movs        param_1,#0x17                           
ram:20003b78    adf82640        strh.w      r4,[sp,#local_22+0x48]                  
ram:20003b7c    adf82800        strh.w      param_1,[sp,#local_20+0x48]             
ram:20003b80    0b94            str         r4,[sp,#local_1c+0x48]                  
ram:20003b82    a888            ldrh        param_1,[r5,#0x4]                       
ram:20003b84    05f11003        add.w       r3,r5,#0x10                             
ram:20003b88    07aa            add         r2,sp,#0x1c                             
ram:20003b8a    6946            mov         r1,sp                                   
ram:20003b8c    a2df            svc         0xa2                                    
ram:20003b8e    0fb0            add         sp,#0x3c                                
ram:20003b90    30bd            pop         {r4,r5,pc}                              
ram:20003b92    0000            movs        r0,r0                                   
                            ;************************************************************************************************
                            ;*                                           FUNCTION                                           *
                            ;************************************************************************************************
                            ;int FUN_20003b94(int param_1)
          ;param_1       int                 r0                      
                                                          ;XREF[1,0]:   20002a50
ram:20003b94    70b5            push        {r4,r5,r6,lr}                           
ram:20003b96    0500            movs        r5,param_1                              
ram:20003b98    04d0            beq         LAB_20003ba4                            
ram:20003b9a    287a            ldrb        param_1,[r5,#0x8]                       
ram:20003b9c    8007            lsls        param_1,param_1,#0x1e                   
ram:20003b9e    03d0            beq         LAB_20003ba8                            
ram:20003ba0    1020            movs        param_1,#0x10                           
ram:20003ba2    70bd            pop         {r4,r5,r6,pc}                           
                            LAB_20003ba4:                 ;XREF[1,0]:   20003b98
ram:20003ba4    0e20            movs        param_1,#0xe                            
ram:20003ba6    70bd            pop         {r4,r5,r6,pc}                           
                            LAB_20003ba8:                 ;XREF[1,0]:   20003b9e
ram:20003ba8    144c            ldr         r4,[PTR_DAT_20003bfc]                   ;= 20002c6c
ram:20003baa    6078            ldrb        param_1,[r4,#0x1]=>DAT_20002c6d         ;= 20h
ram:20003bac    0328            cmp         param_1,#0x3                            
ram:20003bae    03d0            beq         LAB_20003bb8                            
ram:20003bb0    0428            cmp         param_1,#0x4                            
ram:20003bb2    01d0            beq         LAB_20003bb8                            
ram:20003bb4    0528            cmp         param_1,#0x5                            
ram:20003bb6    01d0            beq         LAB_20003bbc                            
                            LAB_20003bb8:                 ;XREF[2,0]:   20003bae,20003bb2
ram:20003bb8    0820            movs        param_1,#0x8                            
ram:20003bba    70bd            pop         {r4,r5,r6,pc}                           
                            LAB_20003bbc:                 ;XREF[1,0]:   20003bb6
ram:20003bbc    6868            ldr         param_1,[r5,#0x4]                       
ram:20003bbe    e168            ldr         r1,[r4,#0xc]=>DAT_20002c78              ;= 47084010h
ram:20003bc0    8600            lsls        r6,param_1,#0x2                         
ram:20003bc2    a068            ldr         param_1,[r4,#0x8]=>DAT_20002c74         ;= E8BD1000h
ram:20003bc4    3044            add         param_1,r6                              
ram:20003bc6    8842            cmp         param_1,r1                              
ram:20003bc8    04d9            bls         LAB_20003bd4                            
ram:20003bca    4ff0ff30        mov.w       param_1,#0xffffffff                     
ram:20003bce    a060            str         param_1,[r4,#0x8]=>DAT_20002c74         ;= E8BD1000h
                            DAT_20003bd0:                 ;XREF[1,0]:   200036b8
ram:20003bd0    0c              undefined1  0Ch                                     
ram:20003bd1    20              ??          20h                                     
ram:20003bd2    70              ??          70h    p                                
ram:20003bd3    bd              ??          BDh                                     
                            LAB_20003bd4:                 ;XREF[2,0]:   200036c4,20003bc8
ram:20003bd4    00f01cfb        undefined4  FB1CF000h                               
                            DAT_20003bd8:                 ;XREF[1,0]:   200036c4
ram:20003bd8    0028fad1        undefined4  D1FA2800h                               
                            DAT_20003bdc:                 ;XREF[1,0]:   200036c0
ram:20003bdc    a9683246        undefined4  463268A9h                               
                            DAT_20003be0:                 ;XREF[1,0]:   200036c0
ram:20003be0    a3682069        undefined4  692068A3h                               
                            DAT_20003be4:                 ;XREF[1,0]:   200036ba
ram:20003be4    01f072f9        undefined4  F972F001h                               
ram:20003be8    00              ??          00h                                     
ram:20003be9    28              ??          28h    (                                
ram:20003bea    f2              ??          F2h                                     
ram:20003beb    d1              ??          D1h                                     
ram:20003bec    a1              ??          A1h                                     
ram:20003bed    68              ??          68h    h                                
ram:20003bee    31              ??          31h    1                                
ram:20003bef    44              ??          44h    D                                
ram:20003bf0    a1              ??          A1h                                     
ram:20003bf1    60              ??          60h    `                                
ram:20003bf2    e2              ??          E2h                                     
ram:20003bf3    68              ??          68h    h                                
ram:20003bf4    91              ??          91h                                     
ram:20003bf5    42              ??          42h    B                                
ram:20003bf6    ec              ??          ECh                                     
ram:20003bf7    d0              ??          D0h                                     
ram:20003bf8    09              ??          09h                                     
ram:20003bf9    20              ??          20h                                     
ram:20003bfa    70              ??          70h    p                                
ram:20003bfb    bd              ??          BDh                                     
                            PTR_DAT_20003bfc:             ;XREF[1,0]:   20003ba8
ram:20003bfc    6c2c0020        addr        DAT_20002c6c                            
                            ;************************************************************************************************
                            ;*                                           FUNCTION                                           *
                            ;************************************************************************************************
                            ;undefined FUN_20003c00(ushort * param_1, int param_2)
          ;param_1       ushort *            r0                      
          ;param_2       int                 r1                      
                                                          ;XREF[2,0]:   20002a3a,20002a68
ram:20003c00    10b5            push        {r4,lr}                                 
ram:20003c02    0a46            mov         r2,param_2                              
ram:20003c04    0446            mov         r4,param_1                              
ram:20003c06    0321            movs        param_2,#0x3                            
ram:20003c08    1046            mov         param_1,r2                              
ram:20003c0a    00f023ff        bl          FUN_20004a54                            ;undefined4 FUN_20004a54(int param_1,...
ram:20003c0e    0246            mov         r2,param_1                              
ram:20003c10    0321            movs        param_2,#0x3                            
ram:20003c12    2046            mov         param_1,r4                              
ram:20003c14    fff704fb        bl          FUN_20003220                            ;undefined8 FUN_20003220(ushort * par...
ram:20003c18    0028            cmp         param_1,#0x0                            
ram:20003c1a    03d0            beq         LAB_20003c24                            
ram:20003c1c    bde81040        pop.w       {r4,lr}                                 
ram:20003c20    fef758bf        b.w         FUN_20002ad4                            ;undefined FUN_20002ad4(void)
                            LAB_20003c24:                 ;XREF[1,0]:   20003c1a
ram:20003c24    10bd            pop         {r4,pc}                                 
ram:20003c26    0000            movs        r0,r0                                   
                            ;************************************************************************************************
                            ;*                                           FUNCTION                                           *
                            ;************************************************************************************************
                            ;undefined4 FUN_20003c28(undefined4 param_1, undefined4 param_2, undefined4 param_3, undefined4 param_4)
          ;param_1       undefined4          r0                      
          ;param_2       undefined4          r1                      
          ;param_3       undefined4          r2                      
          ;param_4       undefined4          r3                      
                                                          ;XREF[1,0]:   20004d3e
ram:20003c28    0948            ldr         param_1,[PTR_DAT_20003c50]              ;= 20002c6c
ram:20003c2a    10b5            push        {r4,lr}                                 
ram:20003c2c    4078            ldrb        param_1,[param_1,#0x1]=>DAT_20002c6d    ;= 20h
ram:20003c2e    0728            cmp         param_1,#0x7                            
ram:20003c30    01d0            beq         LAB_20003c36                            
ram:20003c32    0820            movs        param_1,#0x8                            
ram:20003c34    10bd            pop         {r4,pc}                                 
                            LAB_20003c36:                 ;XREF[1,0]:   20003c30
ram:20003c36    0748            ldr         param_1,[DAT_20003c54]                  ;= 0007D7D8h
ram:20003c38    0068            ldr         param_1,[param_1,#0x0]=>DAT_0007d7d8    
ram:20003c3a    fff7b3f8        bl          FUN_20002da4                            ;undefined4 FUN_20002da4(int param_1,...
ram:20003c3e    08b1            cbz         param_1,LAB_20003c44                    
ram:20003c40    fef748ff        bl          FUN_20002ad4                            ;undefined FUN_20002ad4(void)
                            LAB_20003c44:                 ;XREF[1,0]:   20003c3e
ram:20003c44    0448            ldr         param_1,[PTR_LAB_20003c58]              ;= 20003288
ram:20003c46    8068            ldr         param_1,[param_1,#0x8]=>DAT_20003290    ;= E8BD4620h
ram:20003c48    bde81040        pop.w       {r4,lr}                                 
ram:20003c4c    0047            bx          param_1=>LAB_e8bd4620                   
ram:20003c4e    0000            movs        r0,r0                                   
                            PTR_DAT_20003c50:             ;XREF[1,0]:   20003c28
ram:20003c50    6c2c0020        addr        DAT_20002c6c                            
                            DAT_20003c54:                 ;XREF[1,0]:   20003c36
ram:20003c54    d8d70700        undefined4  0007D7D8h                               
                            PTR_LAB_20003c58:             ;XREF[1,0]:   20003c44
ram:20003c58    88320020        addr        LAB_20003288                            
                            ;************************************************************************************************
                            ;*                                           FUNCTION                                           *
                            ;************************************************************************************************
                            ;int FUN_20003c5c(undefined4 param_1, undefined4 param_2, undefined4 param_3, undefined4 param_4)
          ;param_1       undefined4          r0                      
          ;param_2       undefined4          r1                      
          ;param_3       undefined4          r2                      
          ;param_4       undefined4          r3                      
                                                          ;XREF[1,0]:   20004d24
ram:20003c5c    10b5            push        {r4,lr}                                 
ram:20003c5e    0d4c            ldr         r4,[PTR_DAT_20003c94]                   ;= 20002c6c
ram:20003c60    6078            ldrb        param_1,[r4,#0x1]=>DAT_20002c6d         ;= 20h
ram:20003c62    0528            cmp         param_1,#0x5                            
ram:20003c64    13d1            bne         LAB_20003c8e                            
                                                          ; FWD[2,0]:   20002c74,20002c78
ram:20003c66    d4e90201        ldrd        param_1,param_2,[r4,#0x8]=>DAT_20002c74 ;= E8BD1000h
                                                                                    ;= 47084010h
ram:20003c6a    8842            cmp         param_1,param_2                         
ram:20003c6c    0fd1            bne         LAB_20003c8e                            
ram:20003c6e    0620            movs        param_1,#0x6                            
ram:20003c70    6070            strb        param_1,[r4,#0x1]=>DAT_20002c6d         ;= 20h
ram:20003c72    00f0cdfa        bl          FUN_20004210                            ;int FUN_20004210(undefined4 param_1,...
ram:20003c76    0028            cmp         param_1,#0x0                            
ram:20003c78    08d1            bne         LAB_20003c8c                            
ram:20003c7a    2069            ldr         param_1,[r4,#0x10]=>DAT_20002c7c        ;= 4A04B51Ch
ram:20003c7c    e168            ldr         param_2,[r4,#0xc]=>DAT_20002c78         ;= 47084010h
ram:20003c7e    4068            ldr         param_1,[param_1,#0x4]=>DAT_4a04b520    
ram:20003c80    00f092f8        bl          FUN_20003da8                            ;undefined4 FUN_20003da8(int param_1,...
ram:20003c84    0028            cmp         param_1,#0x0                            
ram:20003c86    01d1            bne         LAB_20003c8c                            
ram:20003c88    0721            movs        param_2,#0x7                            
ram:20003c8a    6170            strb        param_2,[r4,#0x1]=>DAT_20002c6d         ;= 20h
                            LAB_20003c8c:                 ;XREF[2,0]:   20003c78,20003c86
ram:20003c8c    10bd            pop         {r4,pc}                                 
                            LAB_20003c8e:                 ;XREF[2,0]:   20003c64,20003c6c
ram:20003c8e    0820            movs        param_1,#0x8                            
ram:20003c90    10bd            pop         {r4,pc}                                 
ram:20003c92    0000            movs        r0,r0                                   
                            PTR_DAT_20003c94:             ;XREF[1,0]:   20003c5e
ram:20003c94    6c2c0020        addr        DAT_20002c6c                            
ram:20003c98    fe              ??          FEh                                     
ram:20003c99    b5              ??          B5h                                     
ram:20003c9a    1d              ??          1Dh                                     
ram:20003c9b    4e              ??          4Eh    N                                
ram:20003c9c    1d              ??          1Dh                                     
ram:20003c9d    4c              ??          4Ch    L                                
ram:20003c9e    06              ??          06h                                     
ram:20003c9f    f1              ??          F1h                                     
ram:20003ca0    18              ??          18h                                     
ram:20003ca1    00              ??          00h                                     
ram:20003ca2    00              ??          00h                                     
ram:20003ca3    25              ??          25h    %                                
ram:20003ca4    07              ??          07h                                     
ram:20003ca5    c8              ??          C8h                                     
ram:20003ca6    8d              ??          8Dh                                     
ram:20003ca7    e8              ??          E8h                                     
ram:20003ca8    07              ??          07h                                     
ram:20003ca9    00              ??          00h                                     
ram:20003caa    a5              ??          A5h                                     
ram:20003cab    70              ??          70h    p                                
ram:20003cac    a5              ??          A5h                                     
ram:20003cad    80              ??          80h                                     
ram:20003cae    04              ??          04h                                     
ram:20003caf    f1              ??          F1h                                     
ram:20003cb0    20              ??          20h                                     
ram:20003cb1    01              ??          01h                                     
ram:20003cb2    68              ??          68h    h                                
ram:20003cb3    46              ??          46h    F                                
ram:20003cb4    01              ??          01h                                     
ram:20003cb5    f0              ??          F0h                                     
ram:20003cb6    f6              ??          F6h                                     
ram:20003cb7    f8              ??          F8h                                     
ram:20003cb8    08              ??          08h                                     
ram:20003cb9    b1              ??          B1h                                     
ram:20003cba    65              ??          65h    e                                
ram:20003cbb    70              ??          70h    p                                
ram:20003cbc    fe              ??          FEh                                     
ram:20003cbd    bd              ??          BDh                                     
ram:20003cbe    15              ??          15h                                     
ram:20003cbf    49              ??          49h    I                                
                            DAT_20003cc0:                 ;XREF[1,0]:   200036b8
ram:20003cc0    4f              undefined1  4Fh                                     
ram:20003cc1    f4              ??          F4h                                     
ram:20003cc2    40              ??          40h    @                                
ram:20003cc3    50              ??          50h    P                                
                            DAT_20003cc4:                 ;XREF[1,0]:   200036c4
ram:20003cc4    20318068        undefined4  68803120h                               
                            DAT_20003cc8:                 ;XREF[1,0]:   200036c4
ram:20003cc8    4860216a        undefined4  6A216048h                               
                            DAT_20003ccc:                 ;XREF[1,0]:   200036c0
ram:20003ccc    a161c0f5        undefined4  F5C061A1h                               
                            DAT_20003cd0:                 ;XREF[1,0]:   200036c0
ram:20003cd0    f421c1f3        undefined4  F3C121F4h                               
                            DAT_20003cd4:                 ;XREF[1,0]:   200036ba
ram:20003cd4    0c02891a        undefined4  1A89020Ch                               
ram:20003cd8    00              ??          00h                                     
ram:20003cd9    eb              ??          EBh                                     
ram:20003cda    51              ??          51h    Q                                
ram:20003cdb    00              ??          00h                                     
ram:20003cdc    0d              ??          0Dh                                     
ram:20003cdd    49              ??          49h    I                                
ram:20003cde    0e              ??          0Eh                                     
ram:20003cdf    4a              ??          4Ah    J                                
ram:20003ce0    18              ??          18h                                     
ram:20003ce1    31              ??          31h    1                                
ram:20003ce2    48              ??          48h    H                                
ram:20003ce3    60              ??          60h    `                                
ram:20003ce4    00              ??          00h                                     
ram:20003ce5    21              ??          21h    !                                
ram:20003ce6    0a              ??          0Ah                                     
ram:20003ce7    48              ??          48h    H                                
ram:20003ce8    fe              ??          FEh                                     
ram:20003ce9    f7              ??          F7h                                     
ram:20003cea    aa              ??          AAh                                     
ram:20003ceb    ff              ??          FFh                                     
ram:20003cec    08              ??          08h                                     
ram:20003ced    b1              ??          B1h                                     
ram:20003cee    fe              ??          FEh                                     
ram:20003cef    f7              ??          F7h                                     
ram:20003cf0    f1              ??          F1h                                     
ram:20003cf1    fe              ??          FEh                                     
ram:20003cf2    00              ??          00h                                     
ram:20003cf3    22              ??          22h    "                                
ram:20003cf4    4f              ??          4Fh    O                                
ram:20003cf5    f4              ??          F4h                                     
ram:20003cf6    70              ??          70h    p                                
ram:20003cf7    11              ??          11h                                     
ram:20003cf8    30              ??          30h    0                                
ram:20003cf9    68              ??          68h    h                                
ram:20003cfa    ff              ??          FFh                                     
ram:20003cfb    f7              ??          F7h                                     
ram:20003cfc    13              ??          13h                                     
ram:20003cfd    f8              ??          F8h                                     
ram:20003cfe    08              ??          08h                                     
ram:20003cff    b1              ??          B1h                                     
ram:20003d00    fe              ??          FEh                                     
ram:20003d01    f7              ??          F7h                                     
ram:20003d02    e8              ??          E8h                                     
ram:20003d03    fe              ??          FEh                                     
ram:20003d04    01              ??          01h                                     
ram:20003d05    20              ??          20h                                     
ram:20003d06    a5              ??          A5h                                     
ram:20003d07    60              ??          60h    `                                
ram:20003d08    60              ??          60h    `                                
ram:20003d09    70              ??          70h    p                                
ram:20003d0a    00              ??          00h                                     
ram:20003d0b    20              ??          20h                                     
ram:20003d0c    fe              ??          FEh                                     
ram:20003d0d    bd              ??          BDh                                     
ram:20003d0e    00              ??          00h                                     
ram:20003d0f    00              ??          00h                                     
ram:20003d10    d8              ??          D8h                                     
ram:20003d11    d7              ??          D7h                                     
ram:20003d12    07              ??          07h                                     
ram:20003d13    00              ??          00h                                     
ram:20003d14    6c              ??          6Ch    l                                ;?  ->  20002c6c
ram:20003d15    2c              ??          2Ch    ,                                
ram:20003d16    00              ??          00h                                     
ram:20003d17    20              ??          20h                                     
ram:20003d18    51              ??          51h    Q                                
ram:20003d19    c3              ??          C3h                                     
ram:20003d1a    07              ??          07h                                     
ram:20003d1b    00              ??          00h                                     
                            ;************************************************************************************************
                            ;*                                           FUNCTION                                           *
                            ;************************************************************************************************
                            ;int FUN_20003d1c(void)
                                                          ;XREF[1,0]:   20004d6e
ram:20003d1c    10b5            push        {r4,lr}                                 
ram:20003d1e    094c            ldr         r4,[PTR_DAT_20003d44]                   ;= 20002c6c
ram:20003d20    0820            movs        r0,#0x8                                 
ram:20003d22    a168            ldr         r1,[r4,#0x8]=>DAT_20002c74              ;= E8BD1000h
ram:20003d24    01b1            cbz         r1,LAB_20003d28                         
                            LAB_20003d26:                 ;XREF[1,0]:   20003d2c
ram:20003d26    10bd            pop         {r4,pc}                                 
                            LAB_20003d28:                 ;XREF[1,0]:   20003d24
ram:20003d28    6178            ldrb        r1,[r4,#0x1]=>DAT_20002c6d              ;= 20h
ram:20003d2a    0429            cmp         r1,#0x4                                 
ram:20003d2c    fbd1            bne         LAB_20003d26                            
ram:20003d2e    a178            ldrb        r1,[r4,#0x2]=>DAT_20002c6e              ;= FFh
ram:20003d30    0548            ldr         r0,[DAT_20003d48]                       ;= 20003208h
ram:20003d32    00f047f8        bl          FUN_20003dc4                            ;undefined4 FUN_20003dc4(short * para...
ram:20003d36    10b1            cbz         r0,LAB_20003d3e                         
ram:20003d38    0021            movs        r1,#0x0                                 
ram:20003d3a    a170            strb        r1,[r4,#0x2]=>DAT_20002c6e              ;= FFh
ram:20003d3c    10bd            pop         {r4,pc}                                 
                            LAB_20003d3e:                 ;XREF[1,0]:   20003d36
ram:20003d3e    0521            movs        r1,#0x5                                 
ram:20003d40    6170            strb        r1,[r4,#0x1]=>DAT_20002c6d              ;= 20h
ram:20003d42    10bd            pop         {r4,pc}                                 
                            PTR_DAT_20003d44:             ;XREF[1,0]:   20003d1e
ram:20003d44    6c2c0020        addr        DAT_20002c6c                            
                            DAT_20003d48:                 ;XREF[1,0]:   20003d30
ram:20003d48    08320020        undefined4  20003208h                               ;?  ->  20003208
                            ;************************************************************************************************
                            ;*                                           FUNCTION                                           *
                            ;************************************************************************************************
                            ;int FUN_20003d4c(int param_1, undefined4 param_2, undefined4 param_3, undefined4 param_4)
          ;param_1       int                 r0                      
          ;param_2       undefined4          r1                      
          ;param_3       undefined4          r2                      
          ;param_4       undefined4          r3                      
                                                          ;XREF[1,0]:   20004590
ram:20003d4c    2de9f041        push        {r4,r5,r6,r7,r8,lr}                     
ram:20003d50    134c            ldr         r4,[PTR_DAT_20003da0]                   ;= 20002c6c
ram:20003d52    0746            mov         r7,param_1                              
ram:20003d54    6078            ldrb        param_1,[r4,#0x1]=>DAT_20002c6d         ;= 20h
ram:20003d56    0328            cmp         param_1,#0x3                            
ram:20003d58    05d0            beq         LAB_20003d66                            
ram:20003d5a    0428            cmp         param_1,#0x4                            
ram:20003d5c    05d0            beq         LAB_20003d6a                            
ram:20003d5e    0825            movs        r5,#0x8                                 
                            LAB_20003d60:                 ;XREF[1,0]:   20003d9c
ram:20003d60    2846            mov         param_1,r5                              
                            LAB_20003d62:                 ;XREF[3,0]:   20003d70,20003d78,20003d88
ram:20003d62    bde8f081        pop.w       {r4,r5,r6,r7,r8,pc}                     
                            LAB_20003d66:                 ;XREF[1,0]:   20003d58
ram:20003d66    0420            movs        param_1,#0x4                            
ram:20003d68    6070            strb        param_1,[r4,#0x1]=>DAT_20002c6d         ;= 20h
                            LAB_20003d6a:                 ;XREF[1,0]:   20003d5c
ram:20003d6a    a068            ldr         param_1,[r4,#0x8]=>DAT_20002c74         ;= E8BD1000h
ram:20003d6c    08b1            cbz         param_1,LAB_20003d72                    
ram:20003d6e    0820            movs        param_1,#0x8                            
ram:20003d70    f7e7            b           LAB_20003d62                            
                            LAB_20003d72:                 ;XREF[1,0]:   20003d6c
ram:20003d72    00f04dfa        bl          FUN_20004210                            ;int FUN_20004210(undefined4 param_1,...
ram:20003d76    0500            movs        r5,param_1                              
ram:20003d78    f3d1            bne         LAB_20003d62                            
ram:20003d7a    7868            ldr         param_1,[r7,#0x4]                       
ram:20003d7c    8600            lsls        r6,param_1,#0x2                         
ram:20003d7e    a078            ldrb        param_1,[r4,#0x2]=>DAT_20002c6e         ;= FFh
ram:20003d80    8119            adds        param_2,param_1,r6                      
ram:20003d82    8029            cmp         param_2,#0x80                           
ram:20003d84    01d9            bls         LAB_20003d8a                            
ram:20003d86    0920            movs        param_1,#0x9                            
ram:20003d88    ebe7            b           LAB_20003d62                            
                            LAB_20003d8a:                 ;XREF[1,0]:   20003d84
ram:20003d8a    064a            ldr         param_3,[DAT_20003da4]                  ;= 20003208h
ram:20003d8c    b968            ldr         param_2,[r7,#0x8]                       
ram:20003d8e    1044            add         param_1=>LAB_20003306+1+1,param_3       
ram:20003d90    3246            mov         param_3,r6                              
ram:20003d92    fef745fa        bl          FUN_20002220                            ;undefined FUN_20002220(undefined4 * ...
ram:20003d96    a078            ldrb        param_1,[r4,#0x2]=>DAT_20002c6e         ;= FFh
ram:20003d98    3044            add         param_1,r6                              
ram:20003d9a    a070            strb        param_1,[r4,#0x2]=>DAT_20002c6e         ;= FFh
ram:20003d9c    e0e7            b           LAB_20003d60                            
ram:20003d9e    0000            movs        r0,r0                                   
                            PTR_DAT_20003da0:             ;XREF[1,0]:   20003d50
ram:20003da0    6c2c0020        addr        DAT_20002c6c                            
                            DAT_20003da4:                 ;XREF[1,0]:   20003d8a
ram:20003da4    08320020        undefined4  20003208h                               ;?  ->  20003208
                            ;************************************************************************************************
                            ;*                                           FUNCTION                                           *
                            ;************************************************************************************************
                            ;undefined4 FUN_20003da8(int param_1, uint param_2)
          ;param_1       int                 r0                      
          ;param_2       uint                r1                      
                                                          ;XREF[1,0]:   20003c80
ram:20003da8    10b5            push        {r4,lr}                                 
ram:20003daa    0022            movs        r2,#0x0                                 
ram:20003dac    fff768fd        bl          FUN_20003880                            ;uint FUN_20003880(int param_1, uint ...
ram:20003db0    0349            ldr         param_2,[PTR_DAT_20003dc0]              ;= 20003294
ram:20003db2    0988            ldrh        param_2,[param_2,#0x0]=>DAT_20003294    ;= 4010h
ram:20003db4    8842            cmp         param_1,param_2                         
ram:20003db6    01d0            beq         LAB_20003dbc                            
ram:20003db8    0b20            movs        param_1,#0xb                            
ram:20003dba    10bd            pop         {r4,pc}                                 
                            LAB_20003dbc:                 ;XREF[1,0]:   20003db6
ram:20003dbc    0020            movs        param_1,#0x0                            
ram:20003dbe    10bd            pop         {r4,pc}                                 
                            PTR_DAT_20003dc0:             ;XREF[1,0]:   20003db0
ram:20003dc0    94320020        addr        DAT_20003294                            ;= 4010h
                            ;************************************************************************************************
                            ;*                                           FUNCTION                                           *
                            ;************************************************************************************************
                            ;undefined4 FUN_20003dc4(short * param_1, uint param_2)
          ;param_1       short *             r0                      
          ;param_2       uint                r1                      
                                                          ;XREF[1,0]:   20003d32
ram:20003dc4    70b5            push        {r4,r5,r6,lr}                           
ram:20003dc6    0025            movs        r5,#0x0                                 
ram:20003dc8    0c29            cmp         param_2,#0xc                            
ram:20003dca    0ed3            bcc         LAB_20003dea                            
ram:20003dcc    4318            adds        r3,param_1,param_2                      
ram:20003dce    0189            ldrh        param_2,[param_1,#0x8]                  
ram:20003dd0    0446            mov         r4,param_1                              
ram:20003dd2    00eb4101        add.w       param_2,param_1,param_2, lsl #0x1       
ram:20003dd6    581a            subs        param_1,r3,param_2                      
ram:20003dd8    0a38            subs        param_1,#0xa                            
ram:20003dda    c2b2            uxtb        r2,param_1                              
ram:20003ddc    1948            ldr         param_1,[PTR_DAT_20003e44]              ;= 20002c94
ram:20003dde    022a            cmp         r2,#0x2                                 
ram:20003de0    0270            strb        r2,[param_1,#0x0]=>DAT_20002c94         ;= 2Dh
ram:20003de2    02d3            bcc         LAB_20003dea                            
ram:20003de4    0a31            adds        param_2,#0xa                            
ram:20003de6    8b42            cmp         r3,param_2                              
ram:20003de8    01d2            bcs         LAB_20003dee                            
                            LAB_20003dea:                 ;XREF[2,0]:   20003dca,20003de2
ram:20003dea    0920            movs        param_1,#0x9                            
ram:20003dec    70bd            pop         {r4,r5,r6,pc}                           
                            LAB_20003dee:                 ;XREF[1,0]:   20003de8
ram:20003dee    1648            ldr         param_1=>DAT_20003294,[PTR_DAT_20003e48];= 4010h
                                                                                    ;= 20003294
ram:20003df0    fef716fa        bl          FUN_20002220                            ;undefined FUN_20002220(undefined4 * ...
ram:20003df4    4ff01021        mov.w       param_2,#0x10001000                     
ram:20003df8    4ff6ff70        movw        param_1,#0xffff                         
ram:20003dfc    b1f88020        ldrh.w      r2,[param_2,#offset DAT_10001080 &0xff] 
ram:20003e00    8242            cmp         r2,param_1                              
ram:20003e02    02d0            beq         LAB_20003e0a                            
ram:20003e04    2388            ldrh        r3,[r4,#0x0]                            
ram:20003e06    9342            cmp         r3,r2                                   
ram:20003e08    19d1            bne         LAB_20003e3e                            
                            LAB_20003e0a:                 ;XREF[1,0]:   20003e02
ram:20003e0a    b1f88210        ldrh.w      param_2,[param_2,#offset DAT_10001082...
ram:20003e0e    8142            cmp         param_2,param_1                         
ram:20003e10    02d0            beq         LAB_20003e18                            
ram:20003e12    6088            ldrh        param_1,[r4,#0x2]                       
ram:20003e14    8842            cmp         param_1,param_2                         
ram:20003e16    12d1            bne         LAB_20003e3e                            
                            LAB_20003e18:                 ;XREF[1,0]:   20003e10
ram:20003e18    2089            ldrh        param_1,[r4,#0x8]                       
ram:20003e1a    4ff6fe72        movw        r2,#0xfffe                              
ram:20003e1e    4ff44053        mov.w       r3,#0x3000                              
                            LAB_20003e22:                 ;XREF[1,0]:   20003e38
ram:20003e22    a842            cmp         param_1,r5                              
ram:20003e24    0bd9            bls         LAB_20003e3e                            
ram:20003e26    04eb4501        add.w       param_2,r4,r5, lsl #0x1                 
ram:20003e2a    4989            ldrh        param_2,[param_2,#0xa]                  
ram:20003e2c    9142            cmp         param_2,r2                              
ram:20003e2e    04d0            beq         LAB_20003e3a                            
ram:20003e30    9e89            ldrh        r6,[r3,#offset DAT_0000300c &0xff]      
ram:20003e32    6d1c            adds        r5,r5,#0x1                              
ram:20003e34    b6b2            uxth        r6,r6                                   
ram:20003e36    b142            cmp         param_2,r6                              
ram:20003e38    f3d1            bne         LAB_20003e22                            
                            LAB_20003e3a:                 ;XREF[1,0]:   20003e2e
ram:20003e3a    0020            movs        param_1,#0x0                            
ram:20003e3c    70bd            pop         {r4,r5,r6,pc}                           
                            LAB_20003e3e:                 ;XREF[3,0]:   20003e08,20003e16,20003e24
ram:20003e3e    0b20            movs        param_1,#0xb                            
ram:20003e40    70bd            pop         {r4,r5,r6,pc}                           
ram:20003e42    0000            movs        r0,r0                                   
                            PTR_DAT_20003e44:             ;XREF[1,0]:   20003ddc
ram:20003e44    942c0020        addr        DAT_20002c94                            ;= 2Dh
                            PTR_DAT_20003e48:             ;XREF[1,0]:   20003dee
ram:20003e48    94320020        addr        DAT_20003294                            ;= 4010h
                            ;************************************************************************************************
                            ;*                                           FUNCTION                                           *
                            ;************************************************************************************************
                            ;undefined8 FUN_20003e4c(int param_1)
          ;param_1       int                 r0                      
          ;local_12      undefined1         -12                      ;XREF[1,0]:   20003e74
          ;local_14      undefined2         -14                      ;XREF[1,0]:   20003e7c
          ;local_18      undefined4         -18                      ;XREF[3,4]:   20003e80,20003e82,20003e8c,20003e90,20003ea0
                                                                     ;             20003ea4,20003eb6
          ;local_1c      undefined4         -1c                      ;XREF[1,0]:   20003ed6
          ;local_20      undefined2         -20                      ;XREF[1,0]:   20003ed2
          ;local_22      undefined2         -22                      ;XREF[1,0]:   20003ece
          ;local_24      undefined2         -24                      ;XREF[1,0]:   20003ec8
          ;local_28      undefined4         -28                      ;XREF[1,0]:   20003ec6
          ;local_2c      undefined4         -2c                      ;XREF[1,0]:   20003ec2
          ;local_30      undefined4         -30                      ;XREF[1,0]:   20003e70
          ;local_34      undefined4         -34                      ;XREF[1,0]:   20003e6e
          ;local_38      undefined4         -38                      ;XREF[1,0]:   20003e6c
          ;local_3c      undefined4         -3c                      ;XREF[1,0]:   20003e6a
          ;local_44      undefined4         -44                      ;XREF[1,0]:   20003e60
          ;local_48      undefined1         -48                      ;XREF[2,0]:   20003e5c,20003e66
ram:20003e4c    30b5            push        {r4,r5,lr}                              
ram:20003e4e    8fb0            sub         sp,#0x3c                                
ram:20003e50    0546            mov         r5,param_1                              
ram:20003e52    1c21            movs        r1,#0x1c                                
ram:20003e54    6846            mov         param_1,sp                              
ram:20003e56    fef7fcf9        bl          FUN_20002252                            ;undefined FUN_20002252(undefined * p...
ram:20003e5a    0024            movs        r4,#0x0                                 
ram:20003e5c    9df80000        ldrb.w      param_1,[sp,#0x0]=>local_48             
ram:20003e60    0194            str         r4,[sp,#local_44+0x48]                  
ram:20003e62    40f00400        orr         param_1,param_1,#0x4                    
ram:20003e66    8df80000        strb.w      param_1,[sp,#0x0]=>local_48             
ram:20003e6a    0394            str         r4,[sp,#local_3c+0x48]                  
ram:20003e6c    0494            str         r4,[sp,#local_38+0x48]                  
ram:20003e6e    0594            str         r4,[sp,#local_34+0x48]                  
ram:20003e70    0694            str         r4,[sp,#local_30+0x48]                  
ram:20003e72    a879            ldrb        param_1,[r5,#0x6]                       
ram:20003e74    8df83600        strb.w      param_1,[sp,#local_12+0x48]             
ram:20003e78    41f23250        movw        param_1,#0x1532                         
ram:20003e7c    adf83400        strh.w      param_1,[sp,#local_14+0x48]             
ram:20003e80    0c94            str         r4,[sp,#local_18+0x48]                  
ram:20003e82    9df83000        ldrb.w      param_1,[sp,#local_18+0x48]             
ram:20003e86    1421            movs        r1,#0x14                                
ram:20003e88    20f0ff00        bic         param_1,param_1,#0xff                   
ram:20003e8c    8df83000        strb.w      param_1,[sp,#local_18+0x48]             
ram:20003e90    9df83100        ldrb.w      param_1,[sp,#local_18+0x49]             
ram:20003e94    20f00f00        bic         param_1,param_1,#0xf                    
ram:20003e98    401c            adds        param_1,param_1,#0x1                    
ram:20003e9a    20f0f000        bic         param_1,param_1,#0xf0                   
ram:20003e9e    1030            adds        param_1,#0x10                           
ram:20003ea0    8df83100        strb.w      param_1,[sp,#local_18+0x49]             
ram:20003ea4    9df83200        ldrb.w      param_1,[sp,#local_18+0x4a]             
ram:20003ea8    20f00600        bic         param_1,param_1,#0x6                    
ram:20003eac    801c            adds        param_1,param_1,#0x2                    
ram:20003eae    20f01800        bic         param_1,param_1,#0x18                   
ram:20003eb2    40f00100        orr         param_1,param_1,#0x1                    
ram:20003eb6    8df83200        strb.w      param_1,[sp,#local_18+0x4a]             
ram:20003eba    07a8            add         param_1,sp,#0x1c                        
ram:20003ebc    fef7c9f9        bl          FUN_20002252                            ;undefined FUN_20002252(undefined * p...
ram:20003ec0    0da8            add         param_1,sp,#0x34                        
ram:20003ec2    0790            str         param_1,[sp,#local_2c+0x48]             
ram:20003ec4    0ca8            add         param_1,sp,#0x30                        
ram:20003ec6    0890            str         param_1,[sp,#local_28+0x48]             
ram:20003ec8    adf82440        strh.w      r4,[sp,#local_24+0x48]                  
ram:20003ecc    1420            movs        param_1,#0x14                           
ram:20003ece    adf82640        strh.w      r4,[sp,#local_22+0x48]                  
ram:20003ed2    adf82800        strh.w      param_1,[sp,#local_20+0x48]             
ram:20003ed6    0b94            str         r4,[sp,#local_1c+0x48]                  
ram:20003ed8    a888            ldrh        param_1,[r5,#0x4]                       
ram:20003eda    05f10803        add.w       r3,r5,#0x8                              
ram:20003ede    07aa            add         r2,sp,#0x1c                             
ram:20003ee0    6946            mov         r1,sp                                   
ram:20003ee2    a2df            svc         0xa2                                    
ram:20003ee4    0fb0            add         sp,#0x3c                                
ram:20003ee6    30bd            pop         {r4,r5,pc}                              
                            ;************************************************************************************************
                            ;*                                           FUNCTION                                           *
                            ;************************************************************************************************
                            ;undefined FUN_20003ee8(void)
ram:20003ee8    0849            ldr         r1,[->FUN_20002c8c]                     ;= 20002c8c
ram:20003eea    10b5            push        {r4,lr}                                 
ram:20003eec    a1f12000        sub.w       r0,r1,#0x20                             
ram:20003ef0    0161            str         r1=>FUN_20002c8c,[r0,#0x10]=>DAT_2000...;= 4A04B51Ch
ram:20003ef2    0221            movs        r1,#0x2                                 
ram:20003ef4    4170            strb        r1,[r0,#0x1]=>DAT_20002c6d              ;= 20h
ram:20003ef6    c168            ldr         r1,[r0,#0xc]=>DAT_20002c78              ;= 47084010h
ram:20003ef8    2030            adds        r0=>FUN_20002c8c,#0x20                  
ram:20003efa    00f0a9ff        bl          FUN_20004e50                            ;undefined FUN_20004e50(undefined4 * ...
ram:20003efe    0028            cmp         r0,#0x0                                 
ram:20003f00    03d0            beq         LAB_20003f0a                            
ram:20003f02    bde81040        pop.w       {r4,lr}                                 
ram:20003f06    fef7e5bd        b.w         FUN_20002ad4                            ;undefined FUN_20002ad4(void)
                            LAB_20003f0a:                 ;XREF[1,0]:   20003f00
ram:20003f0a    10bd            pop         {r4,pc}                                 
                            PTR_FUN_20003f0c:             ;XREF[1,0]:   20003ee8
ram:20003f0c    8c2c0020        addr        FUN_20002c8c                            
ram:20003f10    0c              ??          0Ch                                     
ram:20003f11    49              ??          49h    I                                
ram:20003f12    10              ??          10h                                     
ram:20003f13    b5              ??          B5h                                     
ram:20003f14    a1              ??          A1h                                     
ram:20003f15    f1              ??          F1h                                     
ram:20003f16    18              ??          18h                                     
ram:20003f17    00              ??          00h                                     
ram:20003f18    01              ??          01h                                     
ram:20003f19    61              ??          61h    a                                
ram:20003f1a    02              ??          02h                                     
ram:20003f1b    21              ??          21h    !                                
ram:20003f1c    41              ??          41h    A                                
ram:20003f1d    70              ??          70h    p                                
ram:20003f1e    4f              ??          4Fh    O                                
ram:20003f1f    f4              ??          F4h                                     
ram:20003f20    40              ??          40h    @                                
ram:20003f21    50              ??          50h    P                                
ram:20003f22    80              ??          80h                                     
ram:20003f23    68              ??          68h    h                                
ram:20003f24    c0              ??          C0h                                     
ram:20003f25    f5              ??          F5h                                     
ram:20003f26    f4              ??          F4h                                     
ram:20003f27    20              ??          20h                                     
ram:20003f28    c0              ??          C0h                                     
ram:20003f29    f3              ??          F3h                                     
ram:20003f2a    0c              ??          0Ch                                     
ram:20003f2b    01              ??          01h                                     
ram:20003f2c    40              ??          40h    @                                
ram:20003f2d    1a              ??          1Ah                                     
ram:20003f2e    41              ??          41h    A                                
ram:20003f2f    08              ??          08h                                     
ram:20003f30    04              ??          04h                                     
ram:20003f31    48              ??          48h    H                                
ram:20003f32    00              ??          00h                                     
ram:20003f33    f0              ??          F0h                                     
ram:20003f34    8d              ??          8Dh                                     
ram:20003f35    ff              ??          FFh                                     
ram:20003f36    00              ??          00h                                     
ram:20003f37    28              ??          28h    (                                
ram:20003f38    03              ??          03h                                     
ram:20003f39    d0              ??          D0h                                     
ram:20003f3a    bd              ??          BDh                                     
ram:20003f3b    e8              ??          E8h                                     
ram:20003f3c    10              ??          10h                                     
ram:20003f3d    40              ??          40h    @                                
ram:20003f3e    fe              ??          FEh                                     
ram:20003f3f    f7              ??          F7h                                     
ram:20003f40    c9              ??          C9h                                     
ram:20003f41    bd              ??          BDh                                     
ram:20003f42    10              ??          10h                                     
ram:20003f43    bd              ??          BDh                                     
ram:20003f44    84              ??          84h                                     ;?  ->  20002c84
ram:20003f45    2c              ??          2Ch    ,                                
ram:20003f46    00              ??          00h                                     
ram:20003f47    20              ??          20h                                     
                            ;************************************************************************************************
                            ;*                                           FUNCTION                                           *
                            ;************************************************************************************************
                            ;undefined FUN_20003f48(undefined4 param_1)
          ;param_1       undefined4          r0                      
                                                          ;XREF[1,0]:   200042a4
ram:20003f48    0149            ldr         r1,[PTR_DAT_20003f50]                   ;= 20002c6c
ram:20003f4a    4861            str         param_1,[r1,#0x14]=>DAT_20002c80        ;= 0100E9CDh
ram:20003f4c    7047            bx          lr                                      
ram:20003f4e    0000            movs        r0,r0                                   
                            PTR_DAT_20003f50:             ;XREF[1,0]:   20003f48
ram:20003f50    6c2c0020        addr        DAT_20002c6c                            
                            ;************************************************************************************************
                            ;*                                           FUNCTION                                           *
                            ;************************************************************************************************
                            ;undefined FUN_20003f54(uint param_1, int param_2, int param_3, char * param_4)
          ;param_1       uint                r0                      
          ;param_2       int                 r1                      
          ;param_3       int                 r2                      
          ;param_4       char *              r3                      
          ;local_10      undefined4         -10                      ;XREF[1,0]:   20003f5c
                                                          ;XREF[1,0]:   20004d54
ram:20003f54    38b5            push        {param_4,r4,r5,lr}                      
ram:20003f56    0625            movs        r5,#0x6                                 
ram:20003f58    65f30700        bfi         param_1,r5,#0x0,#0x8                    
ram:20003f5c    0094            str         r4,[sp,#0x0]=>local_10                  
ram:20003f5e    fff777fa        bl          FUN_20003450                            ;undefined FUN_20003450(uint param_1,...
ram:20003f62    38bd            pop         {param_4,r4,r5,pc}                      
                            ;************************************************************************************************
                            ;*                                           FUNCTION                                           *
                            ;************************************************************************************************
                            ;undefined8 FUN_20003f64(int param_1)
          ;param_1       int                 r0                      
          ;local_12      undefined1         -12                      ;XREF[1,0]:   20003f8e
          ;local_14      undefined2         -14                      ;XREF[1,0]:   20003f96
          ;local_18      undefined4         -18                      ;XREF[3,4]:   20003f9a,20003f9c,20003fae,20003fb2,20003fba
                                                                     ;             20003fbe,20003fd0
          ;local_1c      undefined4         -1c                      ;XREF[1,0]:   20003ff0
          ;local_20      undefined2         -20                      ;XREF[1,0]:   20003fec
          ;local_22      undefined2         -22                      ;XREF[1,0]:   20003fe8
          ;local_24      undefined2         -24                      ;XREF[1,0]:   20003fe4
          ;local_28      undefined4         -28                      ;XREF[1,0]:   20003fe0
          ;local_2c      undefined4         -2c                      ;XREF[1,0]:   20003fdc
          ;local_30      undefined4         -30                      ;XREF[1,0]:   20003f8a
          ;local_34      undefined4         -34                      ;XREF[1,0]:   20003f88
          ;local_38      undefined4         -38                      ;XREF[1,0]:   20003f86
          ;local_3c      undefined4         -3c                      ;XREF[1,0]:   20003f84
          ;local_44      undefined4         -44                      ;XREF[1,0]:   20003f7a
          ;local_48      undefined1         -48                      ;XREF[2,0]:   20003f76,20003f80
ram:20003f64    70b5            push        {r4,r5,r6,lr}                           
ram:20003f66    8eb0            sub         sp,#0x38                                
ram:20003f68    0e46            mov         r6,r1                                   
ram:20003f6a    0546            mov         r5,param_1                              
ram:20003f6c    1c21            movs        r1,#0x1c                                
ram:20003f6e    6846            mov         param_1,sp                              
ram:20003f70    fef76ff9        bl          FUN_20002252                            ;undefined FUN_20002252(undefined * p...
ram:20003f74    0024            movs        r4,#0x0                                 
ram:20003f76    9df80000        ldrb.w      param_1,[sp,#0x0]=>local_48             
ram:20003f7a    0194            str         r4,[sp,#local_44+0x48]                  
ram:20003f7c    40f00200        orr         param_1,param_1,#0x2                    
ram:20003f80    8df80000        strb.w      param_1,[sp,#0x0]=>local_48             
ram:20003f84    0394            str         r4,[sp,#local_3c+0x48]                  
ram:20003f86    0494            str         r4,[sp,#local_38+0x48]                  
ram:20003f88    0594            str         r4,[sp,#local_34+0x48]                  
ram:20003f8a    0694            str         r4,[sp,#local_30+0x48]                  
ram:20003f8c    a879            ldrb        param_1,[r5,#0x6]                       
ram:20003f8e    8df83600        strb.w      param_1,[sp,#local_12+0x48]             
ram:20003f92    41f23450        movw        param_1,#0x1534                         
ram:20003f96    adf83400        strh.w      param_1,[sp,#local_14+0x48]             
ram:20003f9a    0c94            str         r4,[sp,#local_18+0x48]                  
ram:20003f9c    9df83000        ldrb.w      param_1,[sp,#local_18+0x48]             
ram:20003fa0    1421            movs        r1,#0x14                                
ram:20003fa2    20f00f00        bic         param_1,param_1,#0xf                    
ram:20003fa6    401c            adds        param_1,param_1,#0x1                    
ram:20003fa8    20f0f000        bic         param_1,param_1,#0xf0                   
ram:20003fac    1030            adds        param_1,#0x10                           
ram:20003fae    8df83000        strb.w      param_1,[sp,#local_18+0x48]             
ram:20003fb2    9df83100        ldrb.w      param_1,[sp,#local_18+0x49]             
ram:20003fb6    20f0ff00        bic         param_1,param_1,#0xff                   
ram:20003fba    8df83100        strb.w      param_1,[sp,#local_18+0x49]             
ram:20003fbe    9df83200        ldrb.w      param_1,[sp,#local_18+0x4a]             
ram:20003fc2    20f00600        bic         param_1,param_1,#0x6                    
ram:20003fc6    801c            adds        param_1,param_1,#0x2                    
ram:20003fc8    20f01800        bic         param_1,param_1,#0x18                   
ram:20003fcc    40f00100        orr         param_1,param_1,#0x1                    
ram:20003fd0    8df83200        strb.w      param_1,[sp,#local_18+0x4a]             
ram:20003fd4    07a8            add         param_1,sp,#0x1c                        
ram:20003fd6    fef73cf9        bl          FUN_20002252                            ;undefined FUN_20002252(undefined * p...
ram:20003fda    0da8            add         param_1,sp,#0x34                        
ram:20003fdc    0790            str         param_1,[sp,#local_2c+0x48]             
ram:20003fde    0ca8            add         param_1,sp,#0x30                        
ram:20003fe0    0890            str         param_1,[sp,#local_28+0x48]             
ram:20003fe2    0220            movs        param_1,#0x2                            
ram:20003fe4    adf82400        strh.w      param_1,[sp,#local_24+0x48]             
ram:20003fe8    adf82640        strh.w      r4,[sp,#local_22+0x48]                  
ram:20003fec    adf82800        strh.w      param_1,[sp,#local_20+0x48]             
ram:20003ff0    0b96            str         r6,[sp,#local_1c+0x48]                  
ram:20003ff2    a888            ldrh        param_1,[r5,#0x4]                       
ram:20003ff4    05f12003        add.w       r3,r5,#0x20                             
ram:20003ff8    07aa            add         r2,sp,#0x1c                             
ram:20003ffa    6946            mov         r1,sp                                   
ram:20003ffc    a2df            svc         0xa2                                    
ram:20003ffe    0eb0            add         sp,#0x38                                
ram:20004000    70bd            pop         {r4,r5,r6,pc}                           
                            ;************************************************************************************************
                            ;*                                           FUNCTION                                           *
                            ;************************************************************************************************
                            ;undefined FUN_20004002(undefined4 param_1, undefined4 param_2, undefined4 param_3, undefined * param_4)
          ;param_1       undefined4          r0                      
          ;param_2       undefined4          r1                      
          ;param_3       undefined4          r2                      
          ;param_4       undefined *         r3                      
          ;local_20      undefined4         -20                      ;XREF[2,0]:   20004014,20004074
          ;local_2c      undefined4         -2c                      ;XREF[3,0]:   2000400e,2000402a,20004072
ram:20004002    2de9f041        push        {r4,r5,r6,r7,r8,lr}                     
ram:20004006    88b0            sub         sp,#0x20                                
ram:20004008    6846            mov         param_1,sp                              
ram:2000400a    fff7a9fa        bl          FUN_20003560                            ;undefined FUN_20003560(undefined * p...
ram:2000400e    0398            ldr         param_1,[sp,#local_2c+0x38]             
ram:20004010    0028            cmp         param_1,#0x0                            
ram:20004012    2bd0            beq         LAB_2000406c                            
ram:20004014    069a            ldr         param_3,[sp,#local_20+0x38]             
ram:20004016    00f58050        add.w       param_1,param_1,#0x1000                 
ram:2000401a    4ff48051        mov.w       param_2,#0x1000                         
ram:2000401e    9042            cmp         param_1,param_3                         
ram:20004020    27d9            bls         LAB_20004072                            
ram:20004022    a2f58050        sub.w       param_1,param_3,#0x1000                 
ram:20004026    4408            lsrs        r4,param_1,#0x1                         
ram:20004028    1046            mov         param_1,param_3                         
ram:2000402a    039a            ldr         param_3,[sp,#local_2c+0x38]             
ram:2000402c    00eb4406        add.w       r6,param_1,r4, lsl #0x1                 
ram:20004030    8718            adds        r7,param_1,param_3                      
ram:20004032    4ff44050        mov.w       param_1,#0x3000                         
ram:20004036    0d46            mov         r5,param_2                              
ram:20004038    8068            ldr         param_1,[param_1,#offset DAT_00003008...
ram:2000403a    01eb4408        add.w       r8,param_2,r4, lsl #0x1                 
ram:2000403e    9042            cmp         param_1,param_3                         
ram:20004040    0ed2            bcs         LAB_20004060                            
ram:20004042    04f58050        add.w       param_1,r4,#0x1000                      
ram:20004046    0422            movs        param_3,#0x4                            
ram:20004048    0146            mov         param_2,param_1                         
ram:2000404a    fff749fd        bl          FUN_20003ae0                            ;undefined * FUN_20003ae0(void)
ram:2000404e    0028            cmp         param_1,#0x0                            
ram:20004050    0cd1            bne         LAB_2000406c                            
ram:20004052    2946            mov         param_2,r5                              
ram:20004054    0422            movs        param_3,#0x4                            
ram:20004056    0846            mov         param_1,param_2                         
ram:20004058    fff742fd        bl          FUN_20003ae0                            ;undefined * FUN_20003ae0(void)
ram:2000405c    0028            cmp         param_1,#0x0                            
ram:2000405e    05d1            bne         LAB_2000406c                            
                            LAB_20004060:                 ;XREF[1,0]:   20004040
ram:20004060    ba1b            subs        param_3,r7,r6                           
ram:20004062    2346            mov         param_4,r4                              
ram:20004064    4146            mov         param_2,r8                              
ram:20004066    3046            mov         param_1,r6                              
ram:20004068    00f038f8        bl          FUN_200040dc                            ;undefined FUN_200040dc(int param_1, ...
                            LAB_2000406c:                 ;XREF[4,0]:   20004012,20004050,2000405e,2000407a
ram:2000406c    08b0            add         sp,#0x20                                
ram:2000406e    bde8f081        pop.w       {r4,r5,r6,r7,r8,pc}                     
                            LAB_20004072:                 ;XREF[1,0]:   20004020
ram:20004072    039a            ldr         param_3,[sp,#local_2c+0x38]             
ram:20004074    0698            ldr         param_1,[sp,#local_20+0x38]             
ram:20004076    fff733fd        bl          FUN_20003ae0                            ;undefined * FUN_20003ae0(void)
ram:2000407a    f7e7            b           LAB_2000406c                            
                            ;************************************************************************************************
                            ;*                                           FUNCTION                                           *
                            ;************************************************************************************************
                            ;undefined * FUN_2000407c(undefined4 param_1, undefined4 param_2, undefined4 param_3, undefined * param_4)
          ;param_1       undefined4          r0                      
          ;param_2       undefined4          r1                      
          ;param_3       undefined4          r2                      
          ;param_4       undefined *         r3                      
          ;local_10      undefined4         -10                      ;XREF[1,0]:   200040d4
          ;local_1c      undefined4         -1c                      ;XREF[1,0]:   200040cc
          ;local_28      undefined4         -28                      ;XREF[1,0]:   2000408c
          ;local_34      undefined4         -34                      ;XREF[4,0]:   20004086,200040a6,200040aa,200040d0
ram:2000407c    30b5            push        {r4,r5,lr}                              
ram:2000407e    8fb0            sub         sp,#0x3c                                
ram:20004080    02a8            add         param_1,sp,#0x8                         
ram:20004082    fff76dfa        bl          FUN_20003560                            ;undefined FUN_20003560(undefined * p...
ram:20004086    0598            ldr         param_1,[sp,#local_34+0x48]             
ram:20004088    0028            cmp         param_1,#0x0                            
ram:2000408a    17d0            beq         LAB_200040bc                            
ram:2000408c    089a            ldr         param_3,[sp,#local_28+0x48]             
ram:2000408e    00f58050        add.w       param_1,param_1,#0x1000                 
ram:20004092    4ff48051        mov.w       param_2,#0x1000                         
ram:20004096    9042            cmp         param_1,param_3                         
ram:20004098    16d9            bls         LAB_200040c8                            
ram:2000409a    a2f58050        sub.w       param_1,param_3,#0x1000                 
ram:2000409e    4308            lsrs        param_4,param_1,#0x1                    
ram:200040a0    1046            mov         param_1,param_3                         
ram:200040a2    4ff44054        mov.w       r4,#0x3000                              
ram:200040a6    059a            ldr         param_3,[sp,#local_34+0x48]             
ram:200040a8    a468            ldr         r4,[r4,#offset DAT_00003008 &0xff]      
ram:200040aa    059d            ldr         r5,[sp,#local_34+0x48]                  
ram:200040ac    0244            add         param_3,param_1                         
ram:200040ae    00eb4300        add.w       param_1,param_1,param_4, lsl #0x1       
ram:200040b2    01eb4301        add.w       param_2,param_2,param_4, lsl #0x1       
ram:200040b6    ac42            cmp         r4,r5                                   
ram:200040b8    02d2            bcs         LAB_200040c0                            
ram:200040ba    0e20            movs        param_1,#0xe                            
                            LAB_200040bc:                 ;XREF[3,0]:   2000408a,200040c6,200040da
ram:200040bc    0fb0            add         sp,#0x3c                                
ram:200040be    30bd            pop         {r4,r5,pc}                              
                            LAB_200040c0:                 ;XREF[1,0]:   200040b8
ram:200040c0    121a            subs        param_3,param_3,param_1                 
ram:200040c2    00f00bf8        bl          FUN_200040dc                            ;undefined FUN_200040dc(int param_1, ...
ram:200040c6    f9e7            b           LAB_200040bc                            
                            LAB_200040c8:                 ;XREF[1,0]:   20004098
ram:200040c8    0bab            add         param_4,sp,#0x2c                        
ram:200040ca    0320            movs        param_1,#0x3                            
ram:200040cc    83e80700        stm         param_4=>local_1c,{param_1,param_2,pa...
ram:200040d0    0598            ldr         param_1,[sp,#local_34+0x48]             
ram:200040d2    8008            lsrs        param_1,param_1,#0x2                    
ram:200040d4    0e90            str         param_1,[sp,#local_10+0x48]             
ram:200040d6    0ba8            add         param_1,sp,#0x2c                        
ram:200040d8    18df            svc         0x18                                    
ram:200040da    efe7            b           LAB_200040bc                            
                            ;************************************************************************************************
                            ;*                                           FUNCTION                                           *
                            ;************************************************************************************************
                            ;undefined FUN_200040dc(int param_1, uint param_2, undefined4 param_3, int param_4)
          ;param_1       int                 r0                      
          ;param_2       uint                r1                      
          ;param_3       undefined4          r2                      
          ;param_4       int                 r3                      
                                                          ;XREF[3,0]:   20004068,200040c2,200040fe
ram:200040dc    2de9f041        push        {r4,r5,r6,r7,r8,lr}                     
ram:200040e0    1c46            mov         r4,param_4                              
ram:200040e2    1746            mov         r7,param_3                              
ram:200040e4    0d46            mov         r5,param_2                              
ram:200040e6    0646            mov         r6,param_1                              
ram:200040e8    fff7effc        bl          FUN_20003aca                            ;undefined * FUN_20003aca(void)
ram:200040ec    0028            cmp         param_1,#0x0                            
ram:200040ee    18d0            beq         LAB_20004122                            
ram:200040f0    b5f5805f        cmp.w       r5,#0x1000                              
ram:200040f4    07d9            bls         LAB_20004106                            
ram:200040f6    2346            mov         param_4,r4                              
ram:200040f8    291b            subs        param_2,r5,r4                           
ram:200040fa    301b            subs        param_1,r6,r4                           
ram:200040fc    1a46            mov         param_3,param_4                         
ram:200040fe    fff7edff        bl          FUN_200040dc                            ;undefined FUN_200040dc(int param_1, ...
ram:20004102    0028            cmp         param_1,#0x0                            
ram:20004104    0dd1            bne         LAB_20004122                            
                            LAB_20004106:                 ;XREF[1,0]:   200040f4
ram:20004106    3a46            mov         param_3,r7                              
ram:20004108    2946            mov         param_2,r5                              
ram:2000410a    3046            mov         param_1,r6                              
ram:2000410c    fff7e8fc        bl          FUN_20003ae0                            ;undefined * FUN_20003ae0(void)
ram:20004110    0028            cmp         param_1,#0x0                            
ram:20004112    06d1            bne         LAB_20004122                            
ram:20004114    3a46            mov         param_3,r7                              
ram:20004116    2946            mov         param_2,r5                              
ram:20004118    3046            mov         param_1,r6                              
ram:2000411a    bde8f041        pop.w       {r4,r5,r6,r7,r8,lr}                     
ram:2000411e    fff7d4bc        b.w         FUN_20003aca                            ;undefined * FUN_20003aca(void)
                            LAB_20004122:                 ;XREF[3,0]:   200040ee,20004104,20004112
ram:20004122    bde8f081        pop.w       {r4,r5,r6,r7,r8,pc}                     
ram:20004126    00              ??          00h                                     
ram:20004127    00              ??          00h                                     
                            ;************************************************************************************************
                            ;*                                           FUNCTION                                           *
                            ;************************************************************************************************
                            ;int FUN_20004128(int param_1)
          ;param_1       int                 r0                      
                                                          ;XREF[1,0]:   200052a2
ram:20004128    70b5            push        {r4,r5,r6,lr}                           
ram:2000412a    4268            ldr         r2,[param_1,#0x4]                       
ram:2000412c    2848            ldr         param_1,[DAT_200041d0]                  ;= 200031F8h
ram:2000412e    d2e90043        ldrd        r4,r3,[r2,#0x0]                         
ram:20004132    d2e90212        ldrd        r1,r2,[r2,#0x8]                         
                                                          ; FWD[2,0]:   20003200,20003204
ram:20004136    c0e90212        strd        r1,r2,[param_1,#0x8]=>LAB_20003200      
                                                          ; FWD[2,0]:   200031f8,200031fc
ram:2000413a    c0e90043        strd        r4,r3,[param_1,#0x0]=>LAB_200031f6+2    
ram:2000413e    0078            ldrb        param_1,[param_1,#0x0]=>LAB_200031f6+2  
ram:20004140    4407            lsls        r4,param_1,#0x1d                        
ram:20004142    01d5            bpl         LAB_20004148                            
ram:20004144    8407            lsls        r4,param_1,#0x1e                        
ram:20004146    05d1            bne         LAB_20004154                            
                            LAB_20004148:                 ;XREF[1,0]:   20004142
ram:20004148    9c07            lsls        r4,r3,#0x1e                             
ram:2000414a    03d1            bne         LAB_20004154                            
ram:2000414c    8c07            lsls        r4,r1,#0x1e                             
ram:2000414e    01d1            bne         LAB_20004154                            
ram:20004150    9407            lsls        r4,r2,#0x1e                             
ram:20004152    01d0            beq         LAB_20004158                            
                            LAB_20004154:                 ;XREF[3,0]:   20004146,2000414a,2000414e
ram:20004154    0620            movs        param_1,#0x6                            
ram:20004156    70bd            pop         {r4,r5,r6,pc}                           
                            LAB_20004158:                 ;XREF[1,0]:   20004152
ram:20004158    1e4d            ldr         r5,[PTR_DAT_200041d4]                   ;= 20002c6c
ram:2000415a    0b44            add         r3,r1                                   
ram:2000415c    1a44            add         r2,r3                                   
ram:2000415e    ea60            str         r2,[r5,#0xc]=>DAT_20002c78              ;= 47084010h
ram:20004160    b1f5a04f        cmp.w       r1,#0x5000                              
ram:20004164    1ad8            bhi         LAB_2000419c                            
ram:20004166    1a4c            ldr         r4,[DAT_200041d0]                       ;= 200031F8h
ram:20004168    c307            lsls        r3,param_1,#0x1f                        
ram:2000416a    4ff44051        mov.w       r1,#0x3000                              
ram:2000416e    04f19004        add.w       r4,r4,#0x90                             
ram:20004172    0ad0            beq         LAB_2000418a                            
ram:20004174    8868            ldr         param_1,[r1,#offset DAT_00003008 &0xff] 
ram:20004176    c0f5f420        rsb.w       param_1,param_1,#0x7a000                
ram:2000417a    9042            cmp         param_1,r2                              
ram:2000417c    0ed3            bcc         LAB_2000419c                            
ram:2000417e    1648            ldr         param_1,[DAT_200041d8]                  ;= 0007C045h
ram:20004180    2060            str         param_1,[r4,#0x0]=>LAB_20003288         
ram:20004182    1648            ldr         param_1,[DAT_200041dc]                  ;= 0007BBFDh
ram:20004184    6060            str         param_1,[r4,#0x4]=>LAB_2000328c         
ram:20004186    1648            ldr         param_1,[DAT_200041e0]                  ;= 0007BAA1h
ram:20004188    13e0            b           LAB_200041b2                            
                            LAB_2000418a:                 ;XREF[1,0]:   20004172
ram:2000418a    8968            ldr         r1,[r1,#offset DAT_00003008 &0xff]      
ram:2000418c    c1f5f421        rsb.w       r1,r1,#0x7a000                          
ram:20004190    c1f30c03        ubfx        r3,r1,#0x0,#0xd                         
ram:20004194    c91a            subs        r1,r1,r3                                
ram:20004196    b2eb510f        cmp.w       r2,r1, lsr #0x1                         
ram:2000419a    01d9            bls         LAB_200041a0                            
                            LAB_2000419c:                 ;XREF[2,0]:   20004164,2000417c
ram:2000419c    0c20            movs        param_1,#0xc                            
ram:2000419e    70bd            pop         {r4,r5,r6,pc}                           
                            LAB_200041a0:                 ;XREF[1,0]:   2000419a
ram:200041a0    1049            ldr         r1,[DAT_200041e4]                       ;= 0007C06Dh
ram:200041a2    2160            str         r1,[r4,#0x0]=>LAB_20003288              
ram:200041a4    1049            ldr         r1,[DAT_200041e8]                       ;= 0007BC25h
ram:200041a6    6160            str         r1,[r4,#0x4]=>LAB_2000328c              
ram:200041a8    8007            lsls        param_1,param_1,#0x1e                   
ram:200041aa    01d5            bpl         LAB_200041b0                            
ram:200041ac    0f48            ldr         param_1,[DAT_200041ec]                  ;= 0007BA79h
ram:200041ae    00e0            b           LAB_200041b2                            
                            LAB_200041b0:                 ;XREF[1,0]:   200041aa
ram:200041b0    0f48            ldr         param_1,[DAT_200041f0]                  ;= 0007BA15h
                            LAB_200041b2:                 ;XREF[2,0]:   20004188,200041ae
ram:200041b2    a060            str         param_1,[r4,#0x8]=>DAT_20003290         ;= E8BD4620h
ram:200041b4    6878            ldrb        param_1,[r5,#0x1]=>DAT_20002c6d         ;= 20h
ram:200041b6    0128            cmp         param_1,#0x1                            
ram:200041b8    02d0            beq         LAB_200041c0                            
ram:200041ba    0826            movs        r6,#0x8                                 
                            LAB_200041bc:                 ;XREF[1,0]:   200041ce
ram:200041bc    3046            mov         param_1,r6                              
                            LAB_200041be:                 ;XREF[1,0]:   200041c6
ram:200041be    70bd            pop         {r4,r5,r6,pc}                           
                            LAB_200041c0:                 ;XREF[1,0]:   200041b8
ram:200041c0    00f026f8        bl          FUN_20004210                            ;int FUN_20004210(undefined4 param_1,...
ram:200041c4    0600            movs        r6,param_1                              
ram:200041c6    fad1            bne         LAB_200041be                            
ram:200041c8    2168            ldr         r1,[r4,#0x0]=>LAB_20003288              
ram:200041ca    e868            ldr         param_1,[r5,#0xc]=>DAT_20002c78         ;= 47084010h
ram:200041cc    8847            blx         r1=>SUB_0007c044                        
ram:200041ce    f5e7            b           LAB_200041bc                            
                            DAT_200041d0:                 ;XREF[2,0]:   2000412c,20004166
ram:200041d0    f8310020        undefined4  200031F8h                               ;?  ->  200031f8
                            PTR_DAT_200041d4:             ;XREF[1,0]:   20004158
ram:200041d4    6c2c0020        addr        DAT_20002c6c                            
                            DAT_200041d8:                 ;XREF[1,0]:   2000417e
ram:200041d8    45c00700        undefined4  0007C045h                               
                            DAT_200041dc:                 ;XREF[1,0]:   20004182
ram:200041dc    fdbb0700        undefined4  0007BBFDh                               
                            DAT_200041e0:                 ;XREF[1,0]:   20004186
ram:200041e0    a1ba0700        undefined4  0007BAA1h                               
                            DAT_200041e4:                 ;XREF[1,0]:   200041a0
ram:200041e4    6dc00700        undefined4  0007C06Dh                               
                            DAT_200041e8:                 ;XREF[1,0]:   200041a4
ram:200041e8    25bc0700        undefined4  0007BC25h                               
                            DAT_200041ec:                 ;XREF[1,0]:   200041ac
ram:200041ec    79ba0700        undefined4  0007BA79h                               
                            DAT_200041f0:                 ;XREF[1,0]:   200041b0
ram:200041f0    15ba0700        undefined4  0007BA15h                               
ram:200041f4    68              ??          68h    h                                
ram:200041f5    b5              ??          B5h                                     
ram:200041f6    05              ??          05h                                     
ram:200041f7    4e              ??          4Eh    N                                
ram:200041f8    01              ??          01h                                     
ram:200041f9    25              ??          25h    %                                
ram:200041fa    35              ??          35h    5                                
ram:200041fb    70              ??          70h    p                                
ram:200041fc    05              ??          05h                                     
ram:200041fd    25              ??          25h    %                                
ram:200041fe    65              ??          65h    e                                
ram:200041ff    f3              ??          F3h                                     
ram:20004200    07              ??          07h                                     
ram:20004201    00              ??          00h                                     
ram:20004202    00              ??          00h                                     
ram:20004203    94              ??          94h                                     
ram:20004204    ff              ??          FFh                                     
ram:20004205    f7              ??          F7h                                     
ram:20004206    24              ??          24h    $                                
ram:20004207    f9              ??          F9h                                     
ram:20004208    68              ??          68h    h                                
ram:20004209    bd              ??          BDh                                     
ram:2000420a    00              ??          00h                                     
ram:2000420b    00              ??          00h                                     
ram:2000420c    6c              ??          6Ch    l                                ;?  ->  20002c6c
ram:2000420d    2c              ??          2Ch    ,                                
ram:2000420e    00              ??          00h                                     
ram:2000420f    20              ??          20h                                     
                            ;************************************************************************************************
                            ;*                                           FUNCTION                                           *
                            ;************************************************************************************************
                            ;int FUN_20004210(undefined4 param_1, undefined4 param_2, undefined4 param_3, undefined4 param_4)
          ;param_1       undefined4          r0                      
          ;param_2       undefined4          r1                      
          ;param_3       undefined4          r2                      
          ;param_4       undefined4          r3                      
                                                          ;XREF[3,0]:   20003c72,20003d72,200041c0
ram:20004210    0c48            ldr         param_1,[PTR_DAT_20004244]              ;= 20002c6c
ram:20004212    10b5            push        {r4,lr}                                 
ram:20004214    0078            ldrb        param_1,[param_1,#0x0]=>DAT_20002c6c    
ram:20004216    08b1            cbz         param_1,LAB_2000421c                    
ram:20004218    0820            movs        param_1,#0x8                            
ram:2000421a    10bd            pop         {r4,pc}                                 
                            LAB_2000421c:                 ;XREF[1,0]:   20004216
ram:2000421c    0a4c            ldr         r4,[DAT_20004248]                       ;= 0007D7D8h
ram:2000421e    2068            ldr         param_1,[r4,#0x0]=>DAT_0007d7d8         
ram:20004220    fef7c0fd        bl          FUN_20002da4                            ;undefined4 FUN_20002da4(int param_1,...
ram:20004224    08b1            cbz         param_1,LAB_2000422a                    
ram:20004226    fef755fc        bl          FUN_20002ad4                            ;undefined FUN_20002ad4(void)
                            LAB_2000422a:                 ;XREF[1,0]:   20004224
ram:2000422a    0022            movs        param_3,#0x0                            
ram:2000422c    4ff47011        mov.w       param_2,#0x3c0000                       
ram:20004230    2068            ldr         param_1,[r4,#0x0]=>DAT_0007d7d8         
ram:20004232    fef777fd        bl          FUN_20002d24                            ;undefined4 FUN_20002d24(int param_1,...
ram:20004236    041e            subs        r4,param_1,#0x0                         
ram:20004238    01d0            beq         LAB_2000423e                            
ram:2000423a    fef74bfc        bl          FUN_20002ad4                            ;undefined FUN_20002ad4(void)
                            LAB_2000423e:                 ;XREF[1,0]:   20004238
ram:2000423e    2046            mov         param_1,r4                              
ram:20004240    10bd            pop         {r4,pc}                                 
ram:20004242    0000            movs        r0,r0                                   
                            PTR_DAT_20004244:             ;XREF[1,0]:   20004210
ram:20004244    6c2c0020        addr        DAT_20002c6c                            
                            DAT_20004248:                 ;XREF[1,0]:   2000421c
ram:20004248    d8d70700        undefined4  0007D7D8h                               
                            ;************************************************************************************************
                            ;*                                           FUNCTION                                           *
                            ;************************************************************************************************
                            ;undefined4 FUN_2000424c(undefined4 param_1, undefined4 param_2, undefined4 param_3, undefined4 param_4)
          ;param_1       undefined4          r0                      
          ;param_2       undefined4          r1                      
          ;param_3       undefined4          r2                      
          ;param_4       undefined4          r3                      
                                                          ;XREF[3,0]:   2000350e,20004d34,20004d46
ram:2000424c    10b5            push        {r4,lr}                                 
ram:2000424e    0e4c            ldr         r4,[PTR_DAT_20004288]                   ;= 20002c98
ram:20004250    0120            movs        param_1,#0x1                            
ram:20004252    2070            strb        param_1,[r4,#0x0]=>DAT_20002c98         ;= 80h
ram:20004254    e088            ldrh        param_1,[r4,#0x6]=>DAT_20002c9e         ;= 460Fh
ram:20004256    a0f57f41        sub.w       param_2,param_1,#0xff00                 
ram:2000425a    ff39            subs        param_2,#0xff                           
ram:2000425c    05d0            beq         LAB_2000426a                            
ram:2000425e    1321            movs        param_2,#0x13                           
ram:20004260    76df            svc         0x76                                    
ram:20004262    50b1            cbz         param_1,LAB_2000427a                    
ram:20004264    fef736fc        bl          FUN_20002ad4                            ;undefined FUN_20002ad4(void)
ram:20004268    07e0            b           LAB_2000427a                            
                            LAB_2000426a:                 ;XREF[1,0]:   2000425c
ram:2000426a    a078            ldrb        param_1,[r4,#0x2]=>DAT_20002c9a         ;= 99h
ram:2000426c    28b1            cbz         param_1,LAB_2000427a                    
ram:2000426e    74df            svc         0x74                                    
ram:20004270    08b1            cbz         param_1,LAB_20004276                    
ram:20004272    fef72ffc        bl          FUN_20002ad4                            ;undefined FUN_20002ad4(void)
                            LAB_20004276:                 ;XREF[1,0]:   20004270
ram:20004276    0020            movs        param_1,#0x0                            
ram:20004278    a070            strb        param_1,[r4,#0x2]=>DAT_20002c9a         ;= 99h
                            LAB_2000427a:                 ;XREF[3,0]:   20004262,20004268,2000426c
ram:2000427a    fef79bfe        bl          FUN_20002fb4                            ;undefined FUN_20002fb4(undefined4 pa...
ram:2000427e    08b1            cbz         param_1,LAB_20004284                    
ram:20004280    fef728fc        bl          FUN_20002ad4                            ;undefined FUN_20002ad4(void)
                            LAB_20004284:                 ;XREF[1,0]:   2000427e
ram:20004284    0020            movs        param_1,#0x0                            
ram:20004286    10bd            pop         {r4,pc}                                 
                            PTR_DAT_20004288:             ;XREF[1,0]:   2000424e
ram:20004288    982c0020        addr        DAT_20002c98                            ;= 80h
                            ;************************************************************************************************
                            ;*                                           FUNCTION                                           *
                            ;************************************************************************************************
                            ;int FUN_2000428c(void)
          ;local_14      undefined4         -14                      ;XREF[1,0]:   20004322
          ;local_18      undefined1         -18                      ;XREF[1,0]:   2000431e
          ;local_1a      undefined2         -1a                      ;XREF[1,0]:   2000431a
          ;local_1c      undefined1         -1c                      ;XREF[1,0]:   20004314
          ;local_20      undefined4         -20                      ;XREF[2,0]:   200042ea,20004310
          ;local_24      undefined4         -24                      ;XREF[1,0]:   200042e6
          ;local_28      undefined4         -28                      ;XREF[3,2]:   200042de,200042e0,20004308,200042c2,200042ca
ram:2000428c    30b5            push        {r4,r5,lr}                              
ram:2000428e    2f4d            ldr         r5,[PTR_DAT_2000434c]                   ;= 20002c98
ram:20004290    87b0            sub         sp,#0x1c                                
ram:20004292    0024            movs        r4,#0x0                                 
ram:20004294    2c70            strb        r4,[r5,#0x0]=>DAT_20002c98              ;= 80h
ram:20004296    2c71            strb        r4,[r5,#0x4]=>DAT_20002c9c              ;= 14h
ram:20004298    2d48            ldr         r0,[DAT_20004350]                       ;= 0007B3DDh
ram:2000429a    00f077ff        bl          FUN_2000518c                            ;undefined4 FUN_2000518c(int param_1)
ram:2000429e    0028            cmp         r0,#0x0                                 
ram:200042a0    4ed1            bne         LAB_20004340                            
ram:200042a2    2c48            ldr         r0,[DAT_20004354]                       ;= 0007BB99h
ram:200042a4    fff750fe        bl          FUN_20003f48                            ;undefined FUN_20003f48(undefined4 pa...
ram:200042a8    00f0b0f8        bl          FUN_2000440c                            ;undefined4 FUN_2000440c(void)
ram:200042ac    0028            cmp         r0,#0x0                                 
ram:200042ae    47d1            bne         LAB_20004340                            
ram:200042b0    2948            ldr         r0=>DAT_200032e8,[PTR_DAT_20004358]     ;= B108FF65h
                                                                                    ;= 200032e8
ram:200042b2    fff7a5fb        bl          FUN_20003a00                            ;undefined4 FUN_20003a00(undefined4 *...
ram:200042b6    e8b3            cbz         r0,LAB_20004334                         
ram:200042b8    6846            mov         r0,sp                                   
ram:200042ba    71df            svc         0x71                                    
ram:200042bc    08b1            cbz         r0,LAB_200042c2                         
ram:200042be    fef709fc        bl          FUN_20002ad4                            ;undefined FUN_20002ad4(void)
                            LAB_200042c2:                 ;XREF[1,0]:   200042bc
ram:200042c2    9df80100        ldrb.w      r0,[sp,#local_28+0x29]                  
ram:200042c6    6946            mov         r1,sp                                   
ram:200042c8    401c            adds        r0,r0,#0x1                              
ram:200042ca    8df80100        strb.w      r0,[sp,#local_28+0x29]                  
ram:200042ce    0020            movs        r0,#0x0                                 
ram:200042d0    70df            svc         0x70                                    
ram:200042d2    08b1            cbz         r0,LAB_200042d8                         
ram:200042d4    fef7fefb        bl          FUN_20002ad4                            ;undefined FUN_20002ad4(void)
                            LAB_200042d8:                 ;XREF[2,0]:   200042d2,20004348
ram:200042d8    00f066f8        bl          FUN_200043a8                            ;undefined FUN_200043a8(void)
ram:200042dc    0920            movs        r0,#0x9                                 
ram:200042de    0094            str         r4,[sp,#0x0]=>local_28                  
ram:200042e0    adf80000        strh.w      r0,[sp,#0x0]=>local_28                  
ram:200042e4    1d48            ldr         r0,[DAT_2000435c]                       ;= 0007CE65h
ram:200042e6    0190            str         r0,[sp,#local_24+0x28]                  
ram:200042e8    1d48            ldr         r0,[DAT_20004360]                       ;= 0007D2E5h
ram:200042ea    0290            str         r0,[sp,#local_20+0x28]                  
ram:200042ec    1a48            ldr         r0,[PTR_DAT_20004358]                   ;= 200032e8
ram:200042ee    6946            mov         r1,sp                                   
ram:200042f0    3038            subs        r0=>DAT_200032b8,#0x30                  ;= 05h
ram:200042f2    fef7d1fe        bl          FUN_20003098                            ;undefined4 * FUN_20003098(undefined2...
ram:200042f6    08b1            cbz         r0,LAB_200042fc                         
ram:200042f8    fef7ecfb        bl          FUN_20002ad4                            ;undefined FUN_20002ad4(void)
                            LAB_200042fc:                 ;XREF[1,0]:   200042f6
ram:200042fc    1c21            movs        r1,#0x1c                                
ram:200042fe    6846            mov         r0,sp                                   
ram:20004300    fdf7a7ff        bl          FUN_20002252                            ;undefined FUN_20002252(undefined * p...
ram:20004304    40f6cd40        movw        r0,#0xccd                               
ram:20004308    cde90040        strd        r4,r0,[sp,#0x0]=>local_28               
ram:2000430c    4ff48040        mov.w       r0,#0x4000                              
ram:20004310    0290            str         r0,[sp,#local_20+0x28]                  
ram:20004312    0320            movs        r0,#0x3                                 
ram:20004314    8df80c00        strb.w      r0,[sp,#local_1c+0x28]                  
ram:20004318    1248            ldr         r0,[DAT_20004364]                       ;= 0007B97Dh
ram:2000431a    adf80e40        strh.w      r4,[sp,#local_1a+0x28]                  
ram:2000431e    8df81040        strb.w      r4,[sp,#local_18+0x28]                  
ram:20004322    cde90540        strd        r4,r0,[sp,#local_14+0x28]               
ram:20004326    6846            mov         r0,sp                                   
ram:20004328    fef7d6fd        bl          FUN_20002ed8                            ;undefined * FUN_20002ed8(int * param_1)
ram:2000432c    08b1            cbz         r0,LAB_20004332                         
ram:2000432e    fef7d1fb        bl          FUN_20002ad4                            ;undefined FUN_20002ad4(void)
                            LAB_20004332:                 ;XREF[1,0]:   2000432c
ram:20004332    00e0            b           LAB_20004336                            
                            LAB_20004334:                 ;XREF[1,0]:   200042b6
ram:20004334    06e0            b           LAB_20004344                            
                            LAB_20004336:                 ;XREF[1,0]:   20004332
ram:20004336    00f0a1fe        bl          FUN_2000507c                            ;undefined FUN_2000507c(void)
ram:2000433a    fef7fffa        bl          FUN_2000293c                            ;undefined FUN_2000293c(void)
ram:2000433e    0020            movs        r0,#0x0                                 
                            LAB_20004340:                 ;XREF[2,0]:   200042a0,200042ae
ram:20004340    07b0            add         sp,#0x1c                                
ram:20004342    30bd            pop         {r4,r5,pc}                              
                            LAB_20004344:                 ;XREF[1,0]:   20004334
ram:20004344    0120            movs        r0,#0x1                                 
ram:20004346    e870            strb        r0,[r5,#0x3]=>DAT_20002c9b              ;= 46h
ram:20004348    c6e7            b           LAB_200042d8                            
ram:2000434a    0000            movs        r0,r0                                   
                            PTR_DAT_2000434c:             ;XREF[1,0]:   2000428e
ram:2000434c    982c0020        addr        DAT_20002c98                            ;= 80h
                            DAT_20004350:                 ;XREF[1,0]:   20004298
ram:20004350    ddb30700        undefined4  0007B3DDh                               
                            DAT_20004354:                 ;XREF[1,0]:   200042a2
ram:20004354    99bb0700        undefined4  0007BB99h                               
                            PTR_DAT_20004358:             ;XREF[2,0]:   200042b0,200042ec
ram:20004358    e8320020        addr        DAT_200032e8                            ;= B108FF65h
                            DAT_2000435c:                 ;XREF[1,0]:   200042e4
ram:2000435c    65ce0700        undefined4  0007CE65h                               
                            DAT_20004360:                 ;XREF[1,0]:   200042e8
ram:20004360    e5d20700        undefined4  0007D2E5h                               
                            DAT_20004364:                 ;XREF[1,0]:   20004318
ram:20004364    7db90700        undefined4  0007B97Dh                               
ram:20004368    0e              ??          0Eh                                     
ram:20004369    49              ??          49h    I                                
ram:2000436a    10              ??          10h                                     
ram:2000436b    b5              ??          B5h                                     
ram:2000436c    4a              ??          4Ah    J                                
ram:2000436d    78              ??          78h    x                                
ram:2000436e    8c              ??          8Ch                                     
ram:2000436f    78              ??          78h    x                                
ram:20004370    00              ??          00h                                     
ram:20004371    23              ??          23h    #                                
ram:20004372    a2              ??          A2h                                     
ram:20004373    42              ??          42h    B                                
ram:20004374    12              ??          12h                                     
ram:20004375    d0              ??          D0h                                     
ram:20004376    52              ??          52h    R                                
ram:20004377    1c              ??          1Ch                                     
ram:20004378    d2              ??          D2h                                     
ram:20004379    b2              ??          B2h                                     
ram:2000437a    4a              ??          4Ah    J                                
ram:2000437b    70              ??          70h    p                                
ram:2000437c    02              ??          02h                                     
ram:2000437d    2a              ??          2Ah    *                                
ram:2000437e    00              ??          00h                                     
ram:2000437f    d1              ??          D1h                                     
ram:20004380    4b              ??          4Bh    K                                
ram:20004381    70              ??          70h    p                                
ram:20004382    08              ??          08h                                     
ram:20004383    4a              ??          4Ah    J                                
ram:20004384    4b              ??          4Bh    K                                
ram:20004385    78              ??          78h    x                                
ram:20004386    18              ??          18h                                     
ram:20004387    32              ??          32h    2                                
ram:20004388    52              ??          52h    R                                
ram:20004389    f8              ??          F8h                                     
ram:2000438a    23              ??          23h    #                                
ram:2000438b    20              ??          20h                                     
ram:2000438c    02              ??          02h                                     
ram:2000438d    60              ??          60h    `                                
ram:2000438e    08              ??          08h                                     
ram:2000438f    69              ??          69h    i                                
ram:20004390    10              ??          10h                                     
ram:20004391    44              ??          44h    D                                
ram:20004392    20              ??          20h                                     
ram:20004393    f0              ??          F0h                                     
ram:20004394    7f              ??          7Fh                                    
ram:20004395    40              ??          40h    @                                
ram:20004396    08              ??          08h                                     
ram:20004397    61              ??          61h    a                                
ram:20004398    01              ??          01h                                     
ram:20004399    20              ??          20h                                     
ram:2000439a    10              ??          10h                                     
ram:2000439b    bd              ??          BDh                                     
ram:2000439c    03              ??          03h                                     
ram:2000439d    60              ??          60h    `                                
ram:2000439e    00              ??          00h                                     
ram:2000439f    20              ??          20h                                     
ram:200043a0    10              ??          10h                                     
ram:200043a1    bd              ??          BDh                                     
ram:200043a2    00              ??          00h                                     
ram:200043a3    00              ??          00h                                     
ram:200043a4    40              ??          40h    @                                ;?  ->  20002c40
ram:200043a5    2c              ??          2Ch    ,                                
ram:200043a6    00              ??          00h                                     
ram:200043a7    20              ??          20h                                     
                            ;************************************************************************************************
                            ;*                                           FUNCTION                                           *
                            ;************************************************************************************************
                            ;undefined FUN_200043a8(void)
          ;local_8       undefined1          -8                      ;XREF[2,0]:   200043ac,200043bc
          ;local_c       undefined4          -c                      ;XREF[2,1]:   200043d0,200043d4,200043e2
          ;local_10      undefined4         -10                      ;XREF[2,1]:   200043ce,200043d8,200043e6
                                                          ;XREF[1,0]:   200042d8
ram:200043a8    0eb5            push        {r1,r2,r3,lr}                           
ram:200043aa    16a1            adr         r1=>s_VVL_OTA_20...,[s_VVL_OTA_20004404];= "VVL_OTA"
ram:200043ac    9df80800        ldrb.w      r0,[sp,#local_8+0x10]                   
ram:200043b0    20f00f00        bic         r0,r0,#0xf                              
ram:200043b4    401c            adds        r0,r0,#0x1                              
ram:200043b6    20f0f000        bic         r0,r0,#0xf0                             
ram:200043ba    1030            adds        r0,#0x10                                
ram:200043bc    8df80800        strb.w      r0,[sp,#local_8+0x10]                   
ram:200043c0    0722            movs        r2,#0x7                                 
ram:200043c2    02a8            add         r0,sp,#0x8                              
ram:200043c4    7cdf            svc         0x7c                                    
ram:200043c6    08b1            cbz         r0,LAB_200043cc                         
ram:200043c8    fef784fb        bl          FUN_20002ad4                            ;undefined FUN_20002ad4(void)
                            LAB_200043cc:                 ;XREF[1,0]:   200043c6
ram:200043cc    0020            movs        r0,#0x0                                 
ram:200043ce    0090            str         r0,[sp,#0x0]=>local_10                  
ram:200043d0    0190            str         r0,[sp,#local_c+0x10]                   
ram:200043d2    0c21            movs        r1,#0xc                                 
ram:200043d4    adf80400        strh.w      r0,[sp,#local_c+0x10]                   
ram:200043d8    adf80010        strh.w      r1,[sp,#0x0]=>local_10                  
ram:200043dc    4ff4c870        mov.w       r0,#0x190                               
ram:200043e0    1821            movs        r1,#0x18                                
ram:200043e2    adf80600        strh.w      r0,[sp,#local_c+0x12]                   
ram:200043e6    adf80210        strh.w      r1,[sp,#local_10+0x12]                  
ram:200043ea    6846            mov         r0,sp                                   
ram:200043ec    7adf            svc         0x7a                                    
ram:200043ee    08b1            cbz         r0,LAB_200043f4                         
ram:200043f0    fef770fb        bl          FUN_20002ad4                            ;undefined FUN_20002ad4(void)
                            LAB_200043f4:                 ;XREF[1,0]:   200043ee
ram:200043f4    0420            movs        r0,#0x4                                 
ram:200043f6    77df            svc         0x77                                    
ram:200043f8    0028            cmp         r0,#0x0                                 
ram:200043fa    01d0            beq         LAB_20004400                            
ram:200043fc    fef76afb        bl          FUN_20002ad4                            ;undefined FUN_20002ad4(void)
                            LAB_20004400:                 ;XREF[1,0]:   200043fa
ram:20004400    0ebd            pop         {r1,r2,r3,pc}                           
ram:20004402    0000            movs        r0,r0                                   
                            s_VVL_OTA_20004404:           ;XREF[2,0]:   200043aa,200043aa
ram:20004404    56564c5f4...    ds          "VVL_OTA"                               
                            ;************************************************************************************************
                            ;*                                           FUNCTION                                           *
                            ;************************************************************************************************
                            ;undefined4 FUN_2000440c(void)
                                                          ;XREF[1,0]:   200042a8
ram:2000440c    0748            ldr         r0,[PTR_DAT_2000442c]                   ;= 20002cb9
ram:2000440e    0021            movs        r1,#0x0                                 
ram:20004410    074a            ldr         r2,[PTR_LAB_20004430]                   ;= 20003324
ram:20004412    0170            strb        r1,[r0,#0x0]=>DAT_20002cb9              ;= F1h
ram:20004414    02f59070        add.w       r0,r2,#0x120                            
ram:20004418    0260            str         r2=>LAB_20003324,[r0,#0x0]=>DAT_20003444;= 4604FF23h
ram:2000441a    0822            movs        r2,#0x8                                 
                                                          ; FWD[2,0]:   20003448,2000344c
ram:2000441c    c0e90121        strd        r2,r1,[r0,#0x4]=>DAT_20003448           ;= F8BEF002h
                                                                                    ;= BD104620h
ram:20004420    c160            str         r1,[r0,#0xc]=>FUN_20003450              
ram:20004422    0161            str         r1,[r0,#0x10]=>LAB_20003454             
ram:20004424    4161            str         r1,[r0,#0x14]=>LAB_20003458             
ram:20004426    8161            str         r1,[r0,#0x18]=>LAB_2000345c             
ram:20004428    0846            mov         r0,r1                                   
ram:2000442a    7047            bx          lr                                      
                            PTR_DAT_2000442c:             ;XREF[1,0]:   2000440c
ram:2000442c    b92c0020        addr        DAT_20002cb9                            ;= F1h
                            PTR_LAB_20004430:             ;XREF[1,0]:   20004410
ram:20004430    24330020        addr        LAB_20003324                            
                            ;************************************************************************************************
                            ;*                                           FUNCTION                                           *
                            ;************************************************************************************************
                            ;undefined4 FUN_20004434(int param_1)
          ;param_1       int                 r0                      
                                                          ;XREF[2,0]:   20002a5e,20003a60
ram:20004434    f0b5            push        {r4,r5,r6,r7,lr}                        
ram:20004436    194a            ldr         r2,[PTR_DAT_2000449c]                   ;= 20003444
ram:20004438    0646            mov         r6,param_1                              
ram:2000443a    9168            ldr         r1,[r2,#0x8]=>DAT_2000344c              ;= BD104620h
ram:2000443c    61b3            cbz         r1,LAB_20004498                         
ram:2000443e    5569            ldr         r5,[r2,#0x14]=>LAB_20003458             
ram:20004440    1020            movs        param_1,#0x10                           
ram:20004442    691a            subs        r1,r5,r1                                
ram:20004444    01f00701        and         r1,r1,#0x7                              
ram:20004448    d2f80070        ldr.w       r7,[r2,#0x0]=>DAT_20003444              ;= 4604FF23h
ram:2000444c    0b46            mov         r3,r1                                   
ram:2000444e    0124            movs        r4,#0x1                                 
                            LAB_20004450:                 ;XREF[1,0]:   20004472
ram:20004450    01ebc10c        add.w       r12,r1,r1, lsl #0x3                     
ram:20004454    07eb8c0c        add.w       r12,r7,r12, lsl #0x2                    
ram:20004458    b445            cmp         r12,r6                                  
ram:2000445a    06d1            bne         LAB_2000446a                            
ram:2000445c    9569            ldr         r5,[r2,#0x18]=>LAB_2000345c             
ram:2000445e    04fa01f6        lsl.w       r6,r4,r1                                
ram:20004462    7540            eors        r5,r6                                   
ram:20004464    0020            movs        param_1,#0x0                            
ram:20004466    9561            str         r5,[r2,#0x18]=>LAB_2000345c             
ram:20004468    04e0            b           LAB_20004474                            
                            LAB_2000446a:                 ;XREF[1,0]:   2000445a
ram:2000446a    491c            adds        r1,r1,#0x1                              
ram:2000446c    01f00701        and         r1,r1,#0x7                              
ram:20004470    8d42            cmp         r5,r1                                   
ram:20004472    edd1            bne         LAB_20004450                            
                            LAB_20004474:                 ;XREF[1,0]:   20004468
ram:20004474    491c            adds        r1,r1,#0x1                              
ram:20004476    9569            ldr         r5,[r2,#0x18]=>LAB_2000345c             
ram:20004478    01f00701        and         r1,r1,#0x7                              
                            LAB_2000447c:                 ;XREF[1,0]:   20004496
ram:2000447c    04fa03f3        lsl.w       r3,r4,r3                                
ram:20004480    1d42            tst         r5,r3                                   
ram:20004482    0ad1            bne         LAB_2000449a                            
ram:20004484    9368            ldr         r3,[r2,#0x8]=>DAT_2000344c              ;= BD104620h
ram:20004486    002b            cmp         r3,#0x0                                 
ram:20004488    07d0            beq         LAB_2000449a                            
ram:2000448a    5b1e            subs        r3,r3,#0x1                              
ram:2000448c    9360            str         r3,[r2,#0x8]=>DAT_2000344c              ;= BD104620h
ram:2000448e    5368            ldr         r3,[r2,#0x4]=>DAT_20003448              ;= F8BEF002h
ram:20004490    5b1c            adds        r3,r3,#0x1                              
ram:20004492    5360            str         r3,[r2,#0x4]=>DAT_20003448              ;= F8BEF002h
ram:20004494    0b46            mov         r3,r1                                   
ram:20004496    f1e7            b           LAB_2000447c                            
                            LAB_20004498:                 ;XREF[1,0]:   2000443c
ram:20004498    0420            movs        param_1,#0x4                            
                            LAB_2000449a:                 ;XREF[2,0]:   20004482,20004488
ram:2000449a    f0bd            pop         {r4,r5,r6,r7,pc}                        
                            PTR_DAT_2000449c:             ;XREF[1,0]:   20004436
ram:2000449c    44340020        addr        DAT_20003444                            ;= 4604FF23h
                            ;************************************************************************************************
                            ;*                                           FUNCTION                                           *
                            ;************************************************************************************************
                            ;undefined4 FUN_200044a0(undefined4 param_1)
          ;param_1       undefined4          r0                      
                                                          ;XREF[1,0]:   20002a24
ram:200044a0    0649            ldr         r1,[PTR_DAT_200044bc]                   ;= 20003444
ram:200044a2    2023            movs        r3,#0x20                                
ram:200044a4    0a7c            ldrb        r2,[r1,#0x10]=>LAB_20003454             
ram:200044a6    0968            ldr         r1,[r1,#0x0]=>DAT_20003444              ;= 4604FF23h
ram:200044a8    521e            subs        r2,r2,#0x1                              
ram:200044aa    02f00702        and         r2,r2,#0x7                              
ram:200044ae    02ebc202        add.w       r2,r2,r2, lsl #0x3                      
ram:200044b2    03eb8202        add.w       r2,r3,r2, lsl #0x2                      
ram:200044b6    8850            str         param_1,[r1,r2]=>DAT_4604ffaf           
ram:200044b8    0020            movs        param_1,#0x0                            
ram:200044ba    7047            bx          lr                                      
                            PTR_DAT_200044bc:             ;XREF[1,0]:   200044a0
ram:200044bc    44340020        addr        DAT_20003444                            ;= 4604FF23h
                            ;************************************************************************************************
                            ;*                                           FUNCTION                                           *
                            ;************************************************************************************************
                            ;undefined4 FUN_200044c0(int * param_1, undefined4 * param_2)
          ;param_1       int *               r0                      
          ;param_2       undefined4 *        r1                      
                                                          ;XREF[1,0]:   20002a30
ram:200044c0    70b5            push        {r4,r5,r6,lr}                           
ram:200044c2    d0b1            cbz         param_1,LAB_200044fa                    
ram:200044c4    c9b1            cbz         param_2,LAB_200044fa                    
ram:200044c6    0f4a            ldr         r2,[PTR_DAT_20004504]                   ;= 20003444
ram:200044c8    d368            ldr         r3,[r2,#0xc]=>FUN_20003450              
ram:200044ca    c3b1            cbz         r3,LAB_200044fe                         
ram:200044cc    5b1e            subs        r3,r3,#0x1                              
ram:200044ce    d360            str         r3,[r2,#0xc]=>FUN_20003450              
ram:200044d0    9368            ldr         r3,[r2,#0x8]=>DAT_2000344c              ;= BD104620h
ram:200044d2    5b1c            adds        r3,r3,#0x1                              
ram:200044d4    9360            str         r3,[r2,#0x8]=>DAT_2000344c              ;= BD104620h
ram:200044d6    5369            ldr         r3,[r2,#0x14]=>LAB_20003458             
ram:200044d8    1568            ldr         r5,[r2,#0x0]=>DAT_20003444              ;= 4604FF23h
ram:200044da    03ebc304        add.w       r4,r3,r3, lsl #0x3                      
ram:200044de    05eb8406        add.w       r6,r5,r4, lsl #0x2                      
ram:200044e2    0660            str         r6,[param_1,#0x0]                       
ram:200044e4    2020            movs        param_1,#0x20                           
ram:200044e6    00eb8400        add.w       param_1,param_1,r4, lsl #0x2            
ram:200044ea    5b1c            adds        r3,r3,#0x1                              
ram:200044ec    2858            ldr         param_1,[r5,param_1]=>DAT_2222da7f      
ram:200044ee    0860            str         param_1,[param_2,#0x0]                  
ram:200044f0    03f00700        and         param_1,r3,#0x7                         
ram:200044f4    5061            str         param_1,[r2,#0x14]=>LAB_20003458        
ram:200044f6    0020            movs        param_1,#0x0                            
ram:200044f8    70bd            pop         {r4,r5,r6,pc}                           
                            LAB_200044fa:                 ;XREF[2,0]:   200044c2,200044c4
ram:200044fa    0e20            movs        param_1,#0xe                            
ram:200044fc    70bd            pop         {r4,r5,r6,pc}                           
                            LAB_200044fe:                 ;XREF[1,0]:   200044ca
ram:200044fe    0420            movs        param_1,#0x4                            
ram:20004500    70bd            pop         {r4,r5,r6,pc}                           
ram:20004502    0000            movs        r0,r0                                   
                            PTR_DAT_20004504:             ;XREF[1,0]:   200044c6
ram:20004504    44340020        addr        DAT_20003444                            ;= 4604FF23h
                            ;************************************************************************************************
                            ;*                                           FUNCTION                                           *
                            ;************************************************************************************************
                            ;undefined4 FUN_20004508(uint param_1, int * param_2)
          ;param_1       uint                r0                      
          ;param_2       int *               r1                      
                                                          ;XREF[1,0]:   20002a0c
ram:20004508    10b5            push        {r4,lr}                                 
ram:2000450a    e9b1            cbz         param_2,LAB_20004548                    
ram:2000450c    0022            movs        r2,#0x0                                 
ram:2000450e    0a60            str         r2,[param_2,#0x0]                       
ram:20004510    104a            ldr         r2,[PTR_DAT_20004554]                   ;= 20003444
ram:20004512    5368            ldr         r3,[r2,#0x4]=>DAT_20003448              ;= F8BEF002h
ram:20004514    e3b1            cbz         r3,LAB_20004550                         
ram:20004516    2028            cmp         param_1,#0x20                           
ram:20004518    18d8            bhi         LAB_2000454c                            
ram:2000451a    5b1e            subs        r3,r3,#0x1                              
ram:2000451c    5360            str         r3,[r2,#0x4]=>DAT_20003448              ;= F8BEF002h
ram:2000451e    d068            ldr         param_1,[r2,#0xc]=>FUN_20003450         
ram:20004520    401c            adds        param_1,param_1,#0x1                    
ram:20004522    d060            str         param_1,[r2,#0xc]=>FUN_20003450         
ram:20004524    1069            ldr         param_1,[r2,#0x10]=>LAB_20003454        
ram:20004526    1368            ldr         r3,[r2,#0x0]=>DAT_20003444              ;= 4604FF23h
ram:20004528    00ebc004        add.w       r4,param_1,param_1, lsl #0x3            
ram:2000452c    03eb8403        add.w       r3,r3,r4, lsl #0x2                      
ram:20004530    0b60            str         r3,[param_2,#0x0]                       
ram:20004532    0123            movs        r3,#0x1                                 
ram:20004534    8340            lsls        r3,param_1                              
ram:20004536    9169            ldr         param_2,[r2,#0x18]=>LAB_2000345c        
ram:20004538    401c            adds        param_1,param_1,#0x1                    
ram:2000453a    1943            orrs        param_2,r3                              
ram:2000453c    00f00700        and         param_1,param_1,#0x7                    
ram:20004540    9161            str         param_2,[r2,#0x18]=>LAB_2000345c        
ram:20004542    1061            str         param_1,[r2,#0x10]=>LAB_20003454        
ram:20004544    0020            movs        param_1,#0x0                            
ram:20004546    10bd            pop         {r4,pc}                                 
                            LAB_20004548:                 ;XREF[1,0]:   2000450a
ram:20004548    0e20            movs        param_1,#0xe                            
ram:2000454a    10bd            pop         {r4,pc}                                 
                            LAB_2000454c:                 ;XREF[1,0]:   20004518
ram:2000454c    0c20            movs        param_1,#0xc                            
ram:2000454e    10bd            pop         {r4,pc}                                 
                            LAB_20004550:                 ;XREF[1,0]:   20004514
ram:20004550    0420            movs        param_1,#0x4                            
ram:20004552    10bd            pop         {r4,pc}                                 
                            PTR_DAT_20004554:             ;XREF[1,0]:   20004510
ram:20004554    44340020        addr        DAT_20003444                            ;= 4604FF23h
                            ;************************************************************************************************
                            ;*                                           FUNCTION                                           *
                            ;************************************************************************************************
                            ;undefined FUN_20004558(ushort * param_1, int param_2, undefined4 param_3, uint param_4)
          ;param_1       ushort *            r0                      
          ;param_2       int                 r1                      
          ;param_3       undefined4          r2                      
          ;param_4       uint                r3                      
          ;local_18      undefined4         -18                      ;XREF[1,0]:   20004586
          ;local_1c      undefined4         -1c                      ;XREF[1,0]:   2000458c
          ;local_20      undefined4         -20                      ;XREF[1,0]:   20004582
                                                          ;XREF[1,0]:   20004db8
ram:20004558    feb5            push        {param_2,param_3,param_4,r4,r5,r6,r7,lr}
ram:2000455a    0446            mov         r4,param_1                              
ram:2000455c    087a            ldrb        param_1,[param_2,#0x8]                  
ram:2000455e    8207            lsls        param_3,param_1,#0x1e                   
ram:20004560    0ed0            beq         LAB_20004580                            
ram:20004562    00f00302        and         param_3,param_1,#0x3                    
ram:20004566    c2f10403        rsb.w       param_4,param_3,#0x4                    
ram:2000456a    0022            movs        param_3,#0x0                            
ram:2000456c    1546            mov         r5,param_3                              
ram:2000456e    04e0            b           LAB_2000457a                            
                            LAB_20004570:                 ;XREF[1,0]:   2000457c
ram:20004570    4e68            ldr         r6,[param_2,#0x4]                       
ram:20004572    3554            strb        r5,[r6,param_1]                         
ram:20004574    401c            adds        param_1,param_1,#0x1                    
ram:20004576    c0b2            uxtb        param_1,param_1                         
ram:20004578    521c            adds        param_3,param_3,#0x1                    
                            LAB_2000457a:                 ;XREF[1,0]:   2000456e
ram:2000457a    9a42            cmp         param_3,param_4                         
ram:2000457c    f8d3            bcc         LAB_20004570                            
ram:2000457e    0872            strb        param_1,[param_2,#0x8]                  
                            LAB_20004580:                 ;XREF[1,0]:   20004560
ram:20004580    0120            movs        param_1,#0x1                            
ram:20004582    0090            str         param_1,[sp,#0x0]=>local_20             
ram:20004584    4868            ldr         param_1,[param_2,#0x4]                  
ram:20004586    0290            str         param_1,[sp,#local_18+0x20]             
ram:20004588    087a            ldrb        param_1,[param_2,#0x8]                  
ram:2000458a    8008            lsrs        param_1,param_1,#0x2                    
ram:2000458c    0190            str         param_1,[sp,#local_1c+0x20]             
ram:2000458e    6846            mov         param_1,sp                              
ram:20004590    fff7dcfb        bl          FUN_20003d4c                            ;int FUN_20003d4c(int param_1, undefi...
ram:20004594    0028            cmp         param_1,#0x0                            
ram:20004596    0bd0            beq         LAB_200045b0                            
ram:20004598    0221            movs        param_2,#0x2                            
ram:2000459a    00f05bfa        bl          FUN_20004a54                            ;undefined4 FUN_20004a54(int param_1,...
ram:2000459e    0246            mov         param_3,param_1                         
ram:200045a0    0221            movs        param_2,#0x2                            
ram:200045a2    2046            mov         param_1,r4                              
ram:200045a4    fef73cfe        bl          FUN_20003220                            ;undefined8 FUN_20003220(ushort * par...
ram:200045a8    0028            cmp         param_1,#0x0                            
ram:200045aa    01d0            beq         LAB_200045b0                            
ram:200045ac    fef792fa        bl          FUN_20002ad4                            ;undefined FUN_20002ad4(void)
                            LAB_200045b0:                 ;XREF[2,0]:   20004596,200045aa
ram:200045b0    febd            pop         {param_2,param_3,param_4,r4,r5,r6,r7,pc}
ram:200045b2    0000            movs        r0,r0                                   
ram:200045b4    f8b5            push        {r3,r4,r5,r6,r7,lr}                     
ram:200045b6    1a4c            ldr         r4,[PTR_DAT_20004620]                   ;= 20002cc0
ram:200045b8    2078            ldrb        r0,[r4,#0x0]=>DAT_20002cc0              ;= 47h
ram:200045ba    0028            cmp         r0,#0x0                                 
ram:200045bc    2ed0            beq         LAB_2000461c                            
ram:200045be    2069            ldr         r0,[r4,#0x10]=>DAT_20002cd0             ;= EB006050h
ram:200045c0    28b1            cbz         r0,FUN_200045ce                         
ram:200045c2    0026            movs        r6,#0x0                                 
                            ;************************************************************************************************
                            ;*                                           FUNCTION                                           *
                            ;************************************************************************************************
                            ;undefined FUN_200045c4(undefined param_1, undefined param_2, undefined param_3, undefined param_4, undefined4 param_5)
          ;param_1       undefined           r0                      
          ;param_2       undefined           r1                      
          ;param_3       undefined           r2                      
          ;param_4       undefined           r3                      
          ;param_5       undefined4           0                      ;XREF[2,0]:   200045ec,200045f4
                                                          ;XREF[1,0]:   200045d0
ram:200045c4    e068            ldr         param_1,[r4,#0xc]=>DAT_20002ccc         ;= 70977056h
ram:200045c6    20b1            cbz         param_1,LAB_200045d2                    
ram:200045c8    0025            movs        r5,#0x0                                 
                            LAB_200045ca:                 ;XREF[2,0]:   200045d4,2000461a
ram:200045ca    26b1            cbz         r6,LAB_200045d6                         
ram:200045cc    10e0            b           LAB_200045f0                            
                            ;************************************************************************************************
                            ;*                                           FUNCTION                                           *
                            ;************************************************************************************************
                            ;undefined FUN_200045ce(void)
                                                          ;XREF[1,0]:   200045c0
ram:200045ce    0126            movs        r6,#0x1                                 
ram:200045d0    f8e7            b           FUN_200045c4                            
                            LAB_200045d2:                 ;XREF[1,0]:   200045c6
ram:200045d2    0125            movs        r5,#0x1                                 
ram:200045d4    f9e7            b           LAB_200045ca                            
                            LAB_200045d6:                 ;XREF[2,0]:   200045ca,20004616
ram:200045d6    6846            mov         param_1,sp                              
ram:200045d8    52df            svc         0x52                                    
ram:200045da    0528            cmp         param_1,#0x5                            
ram:200045dc    03d0            beq         LAB_200045e6                            
ram:200045de    20b1            cbz         param_1,LAB_200045ea                    
ram:200045e0    fef778fa        bl          FUN_20002ad4                            ;undefined FUN_20002ad4(void)
ram:200045e4    04e0            b           LAB_200045f0                            
                            LAB_200045e6:                 ;XREF[1,0]:   200045dc
ram:200045e6    0126            movs        r6,#0x1                                 
ram:200045e8    02e0            b           LAB_200045f0                            
                            LAB_200045ea:                 ;XREF[1,0]:   200045de
ram:200045ea    2169            ldr         param_2,[r4,#0x10]=>DAT_20002cd0        ;= EB006050h
ram:200045ec    0098            ldr         param_1=>param_5,[sp,#0x0]              
ram:200045ee    8847            blx         param_2=>SUB_eb006050                   
                            LAB_200045f0:                 ;XREF[3,0]:   200045cc,200045e4,200045e8
ram:200045f0    85b9            cbnz        r5,LAB_20004614                         
ram:200045f2    6088            ldrh        param_1,[r4,#0x2]=>DAT_20002cc2         ;= 60ACh
ram:200045f4    adf80000        strh.w      param_1,[sp,#0x0]=>param_5              
ram:200045f8    6946            mov         param_2,sp                              
ram:200045fa    a068            ldr         param_1,[r4,#0x8]=>DAT_20002cc8         ;= 70161C49h
ram:200045fc    61df            svc         0x61                                    
ram:200045fe    0528            cmp         param_1,#0x5                            
ram:20004600    03d0            beq         LAB_2000460a                            
ram:20004602    20b1            cbz         param_1,LAB_2000460e                    
ram:20004604    fef766fa        bl          FUN_20002ad4                            ;undefined FUN_20002ad4(void)
ram:20004608    04e0            b           LAB_20004614                            
                            LAB_2000460a:                 ;XREF[1,0]:   20004600
ram:2000460a    0125            movs        r5,#0x1                                 
ram:2000460c    02e0            b           LAB_20004614                            
                            LAB_2000460e:                 ;XREF[1,0]:   20004602
                                                          ; FWD[2,0]:   20002cc8,20002ccc
ram:2000460e    d4e90201        ldrd        param_1,param_2,[r4,#0x8]=>DAT_20002cc8 ;= 70161C49h
                                                                                    ;= 70977056h
ram:20004612    8847            blx         param_2=>SUB_70977056                   
                            LAB_20004614:                 ;XREF[3,0]:   200045f0,20004608,2000460c
ram:20004614    002e            cmp         r6,#0x0                                 
ram:20004616    ded0            beq         LAB_200045d6                            
ram:20004618    002d            cmp         r5,#0x0                                 
ram:2000461a    d6d0            beq         LAB_200045ca                            
                            LAB_2000461c:                 ;XREF[1,0]:   200045bc
ram:2000461c    f8bd            pop         {param_4,r4,r5,r6,r7,pc}                
ram:2000461e    0000            movs        r0,r0                                   
                            PTR_DAT_20004620:             ;XREF[1,0]:   200045b6
ram:20004620    c02c0020        addr        DAT_20002cc0                            ;= 47h
                            ;************************************************************************************************
                            ;*                                           FUNCTION                                           *
                            ;************************************************************************************************
                            ;undefined4 FUN_20004624(int param_1)
          ;param_1       int                 r0                      
                                                          ;XREF[1,0]:   20003828
ram:20004624    0949            ldr         r1,[DAT_2000464c]                       ;= 20002C04h
ram:20004626    4288            ldrh        r2,[param_1,#0x2]                       
ram:20004628    0b88            ldrh        r3,[r1,#0x0]=>LAB_20002c04              
ram:2000462a    9a42            cmp         r2,r3                                   
ram:2000462c    0cd3            bcc         LAB_20004648                            
ram:2000462e    4b88            ldrh        r3,[r1,#0x2]=>LAB_20002c06              
ram:20004630    9a42            cmp         r2,r3                                   
ram:20004632    09d8            bhi         LAB_20004648                            
ram:20004634    8288            ldrh        r2,[param_1,#0x4]                       
ram:20004636    8b88            ldrh        r3,[r1,#0x4]=>LAB_20002c08              
ram:20004638    9a42            cmp         r2,r3                                   
ram:2000463a    05d1            bne         LAB_20004648                            
ram:2000463c    c088            ldrh        param_1,[param_1,#0x6]                  
ram:2000463e    c988            ldrh        r1,[r1,#0x6]=>LAB_20002c08+2            
ram:20004640    8842            cmp         param_1,r1                              
ram:20004642    01d1            bne         LAB_20004648                            
ram:20004644    0120            movs        param_1,#0x1                            
ram:20004646    7047            bx          lr                                      
                            LAB_20004648:                 ;XREF[4,0]:   2000462c,20004632,2000463a,20004642
ram:20004648    0020            movs        param_1,#0x0                            
ram:2000464a    7047            bx          lr                                      
                            DAT_2000464c:                 ;XREF[1,0]:   20004624
ram:2000464c    042c0020        undefined4  20002C04h                               ;?  ->  20002c04
                            ;************************************************************************************************
                            ;*                                           FUNCTION                                           *
                            ;************************************************************************************************
                            ;undefined4 FUN_20004650(uint param_1)
          ;param_1       uint                r0                      
                                                          ;XREF[2,0]:   20004ed8,20004ee0
ram:20004650    8007            lsls        param_1,param_1,#0x1e                   
ram:20004652    01d0            beq         LAB_20004658                            
ram:20004654    0020            movs        param_1,#0x0                            
ram:20004656    7047            bx          lr                                      
                            LAB_20004658:                 ;XREF[1,0]:   20004652
ram:20004658    0120            movs        param_1,#0x1                            
ram:2000465a    7047            bx          lr                                      
                            ;************************************************************************************************
                            ;*                                           FUNCTION                                           *
                            ;************************************************************************************************
                            ;undefined4 FUN_2000465c(int param_1, int param_2, ushort * param_3, uint param_4)
          ;param_1       int                 r0                      
          ;param_2       int                 r1                      
          ;param_3       ushort *            r2                      
          ;param_4       uint                r3                      
                                                          ;XREF[1,0]:   2000277a
ram:2000465c    30b5            push        {r4,r5,lr}                              
ram:2000465e    1488            ldrh        r4,[param_3,#0x0]                       
ram:20004660    e51c            adds        r5,r4,#0x3                              
ram:20004662    9d42            cmp         r5,param_4                              
ram:20004664    01d9            bls         LAB_2000466a                            
ram:20004666    0c20            movs        param_1,#0xc                            
ram:20004668    30bd            pop         {r4,r5,pc}                              
                            LAB_2000466a:                 ;XREF[1,0]:   20004664
ram:2000466a    0225            movs        r5,#0x2                                 
ram:2000466c    0d55            strb        r5,[param_2,r4]                         
ram:2000466e    1388            ldrh        param_4,[param_3,#0x0]                  
ram:20004670    1c24            movs        r4,#0x1c                                
ram:20004672    5b1c            adds        param_4,param_4,#0x1                    
ram:20004674    9bb2            uxth        param_4,param_4                         
ram:20004676    1380            strh        param_4,[param_3,#0x0]                  
ram:20004678    cc54            strb        r4,[param_2,param_4]                    
ram:2000467a    1388            ldrh        param_4,[param_3,#0x0]                  
ram:2000467c    5b1c            adds        param_4,param_4,#0x1                    
ram:2000467e    9bb2            uxth        param_4,param_4                         
ram:20004680    1380            strh        param_4,[param_3,#0x0]                  
ram:20004682    0128            cmp         param_1,#0x1                            
ram:20004684    07d0            beq         LAB_20004696                            
ram:20004686    0228            cmp         param_1,#0x2                            
ram:20004688    07d0            beq         LAB_2000469a                            
ram:2000468a    0328            cmp         param_1,#0x3                            
ram:2000468c    07d0            beq         LAB_2000469e                            
ram:2000468e    0428            cmp         param_1,#0x4                            
ram:20004690    07d0            beq         LAB_200046a2                            
ram:20004692    0720            movs        param_1,#0x7                            
ram:20004694    30bd            pop         {r4,r5,pc}                              
                            LAB_20004696:                 ;XREF[1,0]:   20004684
ram:20004696    0020            movs        param_1,#0x0                            
ram:20004698    04e0            b           LAB_200046a4                            
                            LAB_2000469a:                 ;XREF[1,0]:   20004688
ram:2000469a    0120            movs        param_1,#0x1                            
ram:2000469c    02e0            b           LAB_200046a4                            
                            LAB_2000469e:                 ;XREF[1,0]:   2000468c
ram:2000469e    cd54            strb        r5,[param_2,param_4]                    
ram:200046a0    01e0            b           LAB_200046a6                            
                            LAB_200046a2:                 ;XREF[1,0]:   20004690
ram:200046a2    0320            movs        param_1,#0x3                            
                            LAB_200046a4:                 ;XREF[2,0]:   20004698,2000469c
ram:200046a4    c854            strb        param_1,[param_2,param_4]               
                            LAB_200046a6:                 ;XREF[1,0]:   200046a0
ram:200046a6    1088            ldrh        param_1,[param_3,#0x0]                  
ram:200046a8    401c            adds        param_1,param_1,#0x1                    
ram:200046aa    1080            strh        param_1,[param_3,#0x0]                  
ram:200046ac    0020            movs        param_1,#0x0                            
ram:200046ae    30bd            pop         {r4,r5,pc}                              
                            ;************************************************************************************************
                            ;*                                           FUNCTION                                           *
                            ;************************************************************************************************
                            ;bool FUN_200046b0(void)
ram:200046b0    2de9f047        push        {r4,r5,r6,r7,r8,r9,r10,lr}              
ram:200046b4    dff8aca0        ldr.w       r10,[DAT_20004764]                      ;= 20002C40h
ram:200046b8    daf80c00        ldr.w       r0,[r10,#0xc]=>DAT_20002c4c             ;= B11B7C03h
ram:200046bc    9af80040        ldrb.w      r4,[r10,#0x0]=>LAB_20002c40             
ram:200046c0    8046            mov         r8,r0                                   
ram:200046c2    9af80460        ldrb.w      r6,[r10,#0x4]=>LAB_20002c44             
ram:200046c6    daf80890        ldr.w       r9,[r10,#0x8]=>DAT_20002c48             ;= 6800B120h
ram:200046ca    daf81070        ldr.w       r7,[r10,#0x10]=>LAB_20002c50            ;= 47702008h
ram:200046ce    3ae0            b           LAB_20004746                            
                            LAB_200046d0:                 ;XREF[1,0]:   2000474a
ram:200046d0    09ebc405        add.w       r5,r9,r4, lsl #0x3                      
ram:200046d4    2a78            ldrb        r2,[r5,#0x0]=>DAT_6800b150              
ram:200046d6    33e0            b           LAB_20004740                            
                            LAB_200046d8:                 ;XREF[1,0]:   20004744
ram:200046d8    02eb4201        add.w       r1,r2,r2, lsl #0x1                      
ram:200046dc    6b68            ldr         r3,[r5,#0x4]=>DAT_6800b154              
ram:200046de    521c            adds        r2,r2,#0x1                              
ram:200046e0    03ebc101        add.w       r1,r3,r1, lsl #0x3                      
ram:200046e4    ab78            ldrb        r3,[r5,#0x2]=>DAT_6800b152              
ram:200046e6    d2b2            uxtb        r2,r2                                   
ram:200046e8    9342            cmp         r3,r2                                   
ram:200046ea    00d1            bne         LAB_200046ee                            
ram:200046ec    0022            movs        r2,#0x0                                 
                            LAB_200046ee:                 ;XREF[1,0]:   200046ea
ram:200046ee    0b78            ldrb        r3,[r1,#0x0]                            
ram:200046f0    022b            cmp         r3,#0x2                                 
ram:200046f2    02d0            beq         LAB_200046fa                            
ram:200046f4    032b            cmp         r3,#0x3                                 
ram:200046f6    23d1            bne         LAB_20004740                            
ram:200046f8    1fe0            b           LAB_2000473a                            
                            LAB_200046fa:                 ;XREF[1,0]:   200046f2
ram:200046fa    d1f804c0        ldr.w       r12,[r1,#0x4]                           
ram:200046fe    0346            mov         r3,r0                                   
ram:20004700    0146            mov         r1,r0                                   
ram:20004702    03e0            b           LAB_2000470c                            
                            LAB_20004704:                 ;XREF[1,0]:   2000470e
ram:20004704    6145            cmp         r1,r12                                  
ram:20004706    03d0            beq         LAB_20004710                            
ram:20004708    0b46            mov         r3,r1                                   
ram:2000470a    c969            ldr         r1,[r1,#0x1c]=>DAT_b11b7c1f             
                            LAB_2000470c:                 ;XREF[1,0]:   20004702
ram:2000470c    c1b1            cbz         r1,LAB_20004740                         
ram:2000470e    f9e7            b           LAB_20004704                            
                            LAB_20004710:                 ;XREF[1,0]:   20004706
ram:20004710    b1b1            cbz         r1,LAB_20004740                         
ram:20004712    8b42            cmp         r3,r1                                   
ram:20004714    05d1            bne         LAB_20004722                            
ram:20004716    c069            ldr         r0,[r0,#0x1c]=>DAT_b11b7c1f             
ram:20004718    18b9            cbnz        r0,LAB_20004722                         
ram:2000471a    134f            ldr         r7,[DAT_20004768]                       ;= 40011000h
ram:2000471c    0126            movs        r6,#0x1                                 
ram:2000471e    be60            str         r6,[r7,#offset DAT_40011008 &0xff]      
ram:20004720    0027            movs        r7,#0x0                                 
                            LAB_20004722:                 ;XREF[2,0]:   20004714,20004718
ram:20004722    d1f800c0        ldr.w       r12,[r1,#0x0]=>DAT_b11b7c03             
ram:20004726    c969            ldr         r1,[r1,#0x1c]=>DAT_b11b7c1f             
ram:20004728    d961            str         r1,[r3,#0x1c]=>DAT_b11b7c1f             
ram:2000472a    49b1            cbz         r1,LAB_20004740                         
ram:2000472c    0b68            ldr         r3,[r1,#0x0]                            
ram:2000472e    6344            add         r3,r12                                  
ram:20004730    0b60            str         r3,[r1,#0x0]                            
ram:20004732    05e0            b           LAB_20004740                            
                            LAB_20004734:                 ;XREF[1,0]:   2000473e
ram:20004734    0174            strb        r1,[r0,#0x10]=>DAT_b11b7c13             
ram:20004736    c069            ldr         r0,[r0,#0x1c]=>DAT_b11b7c1f             
ram:20004738    00e0            b           LAB_2000473c                            
                            LAB_2000473a:                 ;XREF[1,0]:   200046f8
ram:2000473a    0021            movs        r1,#0x0                                 
                            LAB_2000473c:                 ;XREF[1,0]:   20004738
ram:2000473c    0028            cmp         r0,#0x0                                 
ram:2000473e    f9d1            bne         LAB_20004734                            
                            LAB_20004740:                 ;XREF[6,0]:   200046d6,200046f6,2000470c,20004710
                                                          ;             2000472a,20004732
ram:20004740    6978            ldrb        r1,[r5,#0x1]=>DAT_6800b151              
ram:20004742    9142            cmp         r1,r2                                   
ram:20004744    c8d1            bne         LAB_200046d8                            
                            LAB_20004746:                 ;XREF[1,0]:   200046ce
ram:20004746    641e            subs        r4,r4,#0x1                              
ram:20004748    e4b2            uxtb        r4,r4                                   
ram:2000474a    c1d2            bcs         LAB_200046d0                            
                                                          ; FWD[3,0]:   20002c4c,20002c50,b11b7c03
ram:2000474c    cae90307        strd        r0=>DAT_b...,r7,[r10,#0xc]=>DAT_20002c4c;= B11B7C03h
                                                                                    ;= 47702008h
ram:20004750    8af80460        strb.w      r6,[r10,#0x4]=>LAB_20002c44             
ram:20004754    4045            cmp         r0,r8                                   
ram:20004756    02d0            beq         LAB_2000475e                            
ram:20004758    0120            movs        r0,#0x1                                 
                            LAB_2000475a:                 ;XREF[1,0]:   20004760
ram:2000475a    bde8f087        pop.w       {r4,r5,r6,r7,r8,r9,r10,pc}              
                            LAB_2000475e:                 ;XREF[1,0]:   20004756
ram:2000475e    0020            movs        r0,#0x0                                 
ram:20004760    fbe7            b           LAB_2000475a                            
ram:20004762    0000            movs        r0,r0                                   
                            DAT_20004764:                 ;XREF[1,0]:   200046b4
ram:20004764    402c0020        undefined4  20002C40h                               ;?  ->  20002c40
                            DAT_20004768:                 ;XREF[1,0]:   2000471a
ram:20004768    00100140        undefined4  40011000h                               
                            ;************************************************************************************************
                            ;*                                           FUNCTION                                           *
                            ;************************************************************************************************
                            ;bool FUN_2000476c(uint * param_1)
          ;param_1       uint *              r0                      
ram:2000476c    2de9f047        push        {r4,r5,r6,r7,r8,r9,r10,lr}              
ram:20004770    0546            mov         r5,param_1                              
ram:20004772    2f48            ldr         param_1,[DAT_20004830]                  ;= 20002C40h
ram:20004774    0026            movs        r6,#0x0                                 
ram:20004776    8046            mov         r8,param_1                              
ram:20004778    0778            ldrb        r7,[param_1,#0x0]=>LAB_20002c40         
ram:2000477a    d0f80c90        ldr.w       r9,[param_1,#0xc]=>DAT_20002c4c         ;= B11B7C03h
ram:2000477e    4be0            b           LAB_20004818                            
                            LAB_20004780:                 ;XREF[1,0]:   2000481c
ram:20004780    d8f80800        ldr.w       param_1,[r8,#0x8]=>DAT_20002c48         ;= 6800B120h
ram:20004784    00ebc704        add.w       r4,param_1,r7, lsl #0x3                 
ram:20004788    40e0            b           LAB_2000480c                            
                            LAB_2000478a:                 ;XREF[1,0]:   2000480e
ram:2000478a    02d0            beq         LAB_20004792                            
ram:2000478c    2846            mov         param_1,r5                              
ram:2000478e    ed69            ldr         r5,[r5,#0x1c]                           
ram:20004790    1ee0            b           LAB_200047d0                            
                            LAB_20004792:                 ;XREF[2,0]:   2000478a,20004816
ram:20004792    2078            ldrb        param_1,[r4,#0x0]=>DAT_6800b150         
ram:20004794    6168            ldr         r1,[r4,#0x4]=>DAT_6800b154              
ram:20004796    00eb4002        add.w       r2,param_1,param_1, lsl #0x1            
ram:2000479a    401c            adds        param_1,param_1,#0x1                    
ram:2000479c    c0b2            uxtb        param_1,param_1                         
ram:2000479e    01ebc201        add.w       r1,r1,r2, lsl #0x3                      
ram:200047a2    2070            strb        param_1,[r4,#0x0]=>DAT_6800b150         
ram:200047a4    a278            ldrb        r2,[r4,#0x2]=>DAT_6800b152              
ram:200047a6    9042            cmp         param_1,r2                              
ram:200047a8    00d1            bne         LAB_200047ac                            
ram:200047aa    2670            strb        r6,[r4,#0x0]=>DAT_6800b150              
                            LAB_200047ac:                 ;XREF[1,0]:   200047a8
ram:200047ac    0a78            ldrb        r2,[r1,#0x0]                            
ram:200047ae    4868            ldr         param_1,[r1,#0x4]                       
ram:200047b0    012a            cmp         r2,#0x1                                 
ram:200047b2    2dd1            bne         LAB_20004810                            
ram:200047b4    027c            ldrb        r2,[param_1,#0x10]                      
ram:200047b6    5abb            cbnz        r2,LAB_20004810                         
ram:200047b8    8a68            ldr         r2,[r1,#0x8]                            
ram:200047ba    4260            str         r2,[param_1,#0x4]                       
ram:200047bc    ca68            ldr         r2,[r1,#0xc]                            
ram:200047be    8260            str         r2,[param_1,#0x8]                       
ram:200047c0    0a69            ldr         r2,[r1,#0x10]                           
ram:200047c2    c260            str         r2,[param_1,#0xc]                       
ram:200047c4    4969            ldr         r1,[r1,#0x14]                           
ram:200047c6    8161            str         r1,[param_1,#0x18]                      
ram:200047c8    98f80410        ldrb.w      r1,[r8,#0x4]=>LAB_20002c44              
ram:200047cc    01b1            cbz         r1,LAB_200047d0                         
ram:200047ce    4660            str         r6,[param_1,#0x4]                       
                            LAB_200047d0:                 ;XREF[2,0]:   20004790,200047cc
ram:200047d0    4268            ldr         r2,[param_1,#0x4]                       
ram:200047d2    d8f81030        ldr.w       r3,[r8,#0x10]=>LAB_20002c50             ;= 47702008h
ram:200047d6    dff85cc0        ldr.w       r12,[DAT_20004834]                      ;= 007FFFFFh
ram:200047da    d11a            subs        r1,r2,r3                                
ram:200047dc    21f07f41        bic         r1,r1,#0xff000000                       
ram:200047e0    6145            cmp         r1,r12                                  
ram:200047e2    02d2            bcs         LAB_200047ea                            
ram:200047e4    8268            ldr         r2,[param_1,#0x8]                       
ram:200047e6    1144            add         r1,r2                                   
ram:200047e8    06e0            b           LAB_200047f8                            
                            LAB_200047ea:                 ;XREF[1,0]:   200047e2
ram:200047ea    991a            subs        r1,r3,r2                                
ram:200047ec    8268            ldr         r2,[param_1,#0x8]                       
ram:200047ee    21f07f41        bic         r1,r1,#0xff000000                       
ram:200047f2    8a42            cmp         r2,r1                                   
ram:200047f4    02d9            bls         LAB_200047fc                            
ram:200047f6    511a            subs        r1,r2,r1                                
                            LAB_200047f8:                 ;XREF[1,0]:   200047e8
ram:200047f8    0160            str         r1,[param_1,#0x0]                       
ram:200047fa    00e0            b           LAB_200047fe                            
                            LAB_200047fc:                 ;XREF[1,0]:   200047f4
ram:200047fc    0660            str         r6,[param_1,#0x0]                       
                            LAB_200047fe:                 ;XREF[1,0]:   200047fa
ram:200047fe    4660            str         r6,[param_1,#0x4]                       
ram:20004800    0121            movs        r1,#0x1                                 
ram:20004802    8660            str         r6,[param_1,#0x8]                       
ram:20004804    0174            strb        r1,[param_1,#0x10]                      
ram:20004806    c661            str         r6,[param_1,#0x1c]                      
ram:20004808    00f0a6fd        bl          FUN_20005358                            ;undefined FUN_20005358(uint * param_1)
                            LAB_2000480c:                 ;XREF[1,0]:   20004788
ram:2000480c    002d            cmp         r5,#0x0                                 
ram:2000480e    bcd1            bne         LAB_2000478a                            
                            LAB_20004810:                 ;XREF[2,0]:   200047b2,200047b6
ram:20004810    2078            ldrb        param_1,[r4,#0x0]=>DAT_6800b150         
ram:20004812    6178            ldrb        r1,[r4,#0x1]=>DAT_6800b151              
ram:20004814    8842            cmp         param_1,r1                              
ram:20004816    bcd1            bne         LAB_20004792                            
                            LAB_20004818:                 ;XREF[1,0]:   2000477e
ram:20004818    7f1e            subs        r7,r7,#0x1                              
ram:2000481a    ffb2            uxtb        r7,r7                                   
ram:2000481c    b0d2            bcs         LAB_20004780                            
ram:2000481e    d8f80c10        ldr.w       r1,[r8,#0xc]=>DAT_20002c4c              ;= B11B7C03h
ram:20004822    4945            cmp         r1,r9                                   
ram:20004824    02d0            beq         LAB_2000482c                            
ram:20004826    0120            movs        param_1,#0x1                            
                            LAB_20004828:                 ;XREF[1,0]:   2000482e
ram:20004828    bde8f087        pop.w       {r4,r5,r6,r7,r8,r9,r10,pc}              
                            LAB_2000482c:                 ;XREF[1,0]:   20004824
ram:2000482c    0020            movs        param_1,#0x0                            
ram:2000482e    fbe7            b           LAB_20004828                            
                            DAT_20004830:                 ;XREF[1,0]:   20004772
ram:20004830    402c0020        undefined4  20002C40h                               ;?  ->  20002c40
                            DAT_20004834:                 ;XREF[1,0]:   200047d6
ram:20004834    ffff7f00        undefined4  007FFFFFh                               
ram:20004838    34              ??          34h    4                                
ram:20004839    4d              ??          4Dh    M                                
ram:2000483a    28              ??          28h    (                                
ram:2000483b    68              ??          68h    h                                
ram:2000483c    b1              ??          B1h                                     
ram:2000483d    28              ??          28h    (                                
ram:2000483e    37              ??          37h    7                                
ram:2000483f    d0              ??          D0h                                     
ram:20004840    00              ??          00h                                     
ram:20004841    24              ??          24h    $                                
ram:20004842    fe              ??          FEh                                     
ram:20004843    f7              ??          F7h                                     
ram:20004844    c7              ??          C7h                                     
ram:20004845    fe              ??          FEh                                     
ram:20004846    00              ??          00h                                     
ram:20004847    bf              ??          BFh                                     
ram:20004848    4f              ??          4Fh    O                                
ram:20004849    f0              ??          F0h                                     
ram:2000484a    10              ??          10h                                     
ram:2000484b    20              ??          20h                                     
ram:2000484c    40              ??          40h    @                                
ram:2000484d    69              ??          69h    i                                
ram:2000484e    b0              ??          B0h                                     
ram:2000484f    f5              ??          F5h                                     
ram:20004850    f4              ??          F4h                                     
ram:20004851    2f              ??          2Fh    /                                
ram:20004852    02              ??          02h                                     
ram:20004853    d0              ??          D0h                                     
ram:20004854    00              ??          00h                                     
ram:20004855    20              ??          20h                                     
ram:20004856    fe              ??          FEh                                     
ram:20004857    f7              ??          F7h                                     
ram:20004858    3d              ??          3Dh    =                                
ram:20004859    f9              ??          F9h                                     
ram:2000485a    4f              ??          4Fh    O                                
ram:2000485b    f0              ??          F0h                                     
ram:2000485c    80              ??          80h                                     
ram:2000485d    50              ??          50h    P                                
ram:2000485e    00              ??          00h                                     
ram:2000485f    69              ??          69h    i                                
ram:20004860    b0              ??          B0h                                     
ram:20004861    f5              ??          F5h                                     
ram:20004862    80              ??          80h                                     
ram:20004863    5f              ??          5Fh    _                                
ram:20004864    02              ??          02h                                     
ram:20004865    d0              ??          D0h                                     
ram:20004866    00              ??          00h                                     
ram:20004867    20              ??          20h                                     
ram:20004868    fe              ??          FEh                                     
ram:20004869    f7              ??          F7h                                     
ram:2000486a    34              ??          34h    4                                
ram:2000486b    f9              ??          F9h                                     
ram:2000486c    28              ??          28h    (                                
ram:2000486d    4b              ??          4Bh    K                                
ram:2000486e    29              ??          29h    )                                
ram:2000486f    4a              ??          4Ah    J                                
ram:20004870    06              ??          06h                                     ;?  ->  20002106
ram:20004871    21              ??          21h    !                                
ram:20004872    00              ??          00h                                     
ram:20004873    20              ??          20h                                     
ram:20004874    fe              ??          FEh                                     
ram:20004875    f7              ??          F7h                                     
ram:20004876    0e              ??          0Eh                                     
ram:20004877    fa              ??          FAh                                     
ram:20004878    08              ??          08h                                     
ram:20004879    b1              ??          B1h                                     
ram:2000487a    fe              ??          FEh                                     
ram:2000487b    f7              ??          F7h                                     
ram:2000487c    2b              ??          2Bh    +                                
ram:2000487d    f9              ??          F9h                                     
ram:2000487e    0c              ??          0Ch                                     
ram:2000487f    b1              ??          B1h                                     
ram:20004880    00              ??          00h                                     
ram:20004881    f0              ??          F0h                                     
ram:20004882    b8              ??          B8h                                     
ram:20004883    fe              ??          FEh                                     
ram:20004884    fe              ??          FEh                                     
ram:20004885    f7              ??          F7h                                     
ram:20004886    56              ??          56h    V                                
ram:20004887    fe              ??          FEh                                     
ram:20004888    fe              ??          FEh                                     
ram:20004889    f7              ??          F7h                                     
ram:2000488a    94              ??          94h                                     
ram:2000488b    fd              ??          FDh                                     
ram:2000488c    b0              ??          B0h                                     
ram:2000488d    b1              ??          B1h                                     
ram:2000488e    fe              ??          FEh                                     
ram:2000488f    f7              ??          F7h                                     
ram:20004890    a0              ??          A0h                                     
ram:20004891    fd              ??          FDh                                     
ram:20004892    08              ??          08h                                     
ram:20004893    b1              ??          B1h                                     
ram:20004894    fe              ??          FEh                                     
ram:20004895    f7              ??          F7h                                     
ram:20004896    1e              ??          1Eh                                     
ram:20004897    f9              ??          F9h                                     
ram:20004898    84              ??          84h                                     
ram:20004899    f0              ??          F0h                                     
ram:2000489a    01              ??          01h                                     
ram:2000489b    00              ??          00h                                     
ram:2000489c    fe              ??          FEh                                     
ram:2000489d    f7              ??          F7h                                     
ram:2000489e    00              ??          00h                                     
ram:2000489f    fd              ??          FDh                                     
ram:200048a0    00              ??          00h                                     
ram:200048a1    f0              ??          F0h                                     
ram:200048a2    98              ??          98h                                     
ram:200048a3    fb              ??          FBh                                     
ram:200048a4    fe              ??          FEh                                     
ram:200048a5    f7              ??          F7h                                     
ram:200048a6    b2              ??          B2h                                     
ram:200048a7    fd              ??          FDh                                     
ram:200048a8    68              ??          68h    h                                
ram:200048a9    b1              ??          B1h                                     
ram:200048aa    fe              ??          FEh                                     
ram:200048ab    f7              ??          F7h                                     
ram:200048ac    13              ??          13h                                     
ram:200048ad    f9              ??          F9h                                     
ram:200048ae    0a              ??          0Ah                                     
ram:200048af    e0              ??          E0h                                     
ram:200048b0    01              ??          01h                                     
ram:200048b1    24              ??          24h    $                                
ram:200048b2    fe              ??          FEh                                     
ram:200048b3    f7              ??          F7h                                     
ram:200048b4    8f              ??          8Fh                                     
ram:200048b5    fe              ??          FEh                                     
ram:200048b6    00              ??          00h                                     
ram:200048b7    20              ??          20h                                     
ram:200048b8    28              ??          28h    (                                
ram:200048b9    60              ??          60h    `                                
ram:200048ba    c5              ??          C5h                                     
ram:200048bb    e7              ??          E7h                                     
ram:200048bc    01              ??          01h                                     
ram:200048bd    20              ??          20h                                     
ram:200048be    fe              ??          FEh                                     
ram:200048bf    f7              ??          F7h                                     
ram:200048c0    ef              ??          EFh                                     
ram:200048c1    fc              ??          FCh                                     
ram:200048c2    00              ??          00h                                     
ram:200048c3    f0              ??          F0h                                     
ram:200048c4    87              ??          87h                                     
ram:200048c5    fb              ??          FBh                                     
ram:200048c6    4f              ??          4Fh    O                                
ram:200048c7    f4              ??          F4h                                     
ram:200048c8    40              ??          40h    @                                
ram:200048c9    55              ??          55h    U                                
ram:200048ca    1c              ??          1Ch                                     
ram:200048cb    b9              ??          B9h                                     
ram:200048cc    a8              ??          A8h                                     
ram:200048cd    68              ??          68h    h                                
ram:200048ce    fe              ??          FEh                                     
ram:200048cf    f7              ??          F7h                                     
ram:200048d0    29              ??          29h    )                                
ram:200048d1    fd              ??          FDh                                     
ram:200048d2    20              ??          20h                                     
ram:200048d3    b9              ??          B9h                                     
ram:200048d4    fe              ??          FEh                                     
ram:200048d5    f7              ??          F7h                                     
ram:200048d6    b0              ??          B0h                                     
ram:200048d7    fd              ??          FDh                                     
ram:200048d8    08              ??          08h                                     
ram:200048d9    b1              ??          B1h                                     
ram:200048da    fe              ??          FEh                                     
ram:200048db    f7              ??          F7h                                     
ram:200048dc    fb              ??          FBh                                     
ram:200048dd    f8              ??          F8h                                     
ram:200048de    a8              ??          A8h                                     
ram:200048df    68              ??          68h    h                                
ram:200048e0    fe              ??          FEh                                     
ram:200048e1    f7              ??          F7h                                     
ram:200048e2    20              ??          20h                                     
ram:200048e3    fd              ??          FDh                                     
ram:200048e4    28              ??          28h    (                                
ram:200048e5    b1              ??          B1h                                     
ram:200048e6    fe              ??          FEh                                     
ram:200048e7    f7              ??          F7h                                     
ram:200048e8    65              ??          65h    e                                
ram:200048e9    fd              ??          FDh                                     
ram:200048ea    10              ??          10h                                     
ram:200048eb    b9              ??          B9h                                     
ram:200048ec    a8              ??          A8h                                     
ram:200048ed    68              ??          68h    h                                
ram:200048ee    fe              ??          FEh                                     
ram:200048ef    f7              ??          F7h                                     
ram:200048f0    37              ??          37h    7                                
ram:200048f1    fd              ??          FDh                                     
ram:200048f2    bf              ??          BFh                                     
ram:200048f3    f3              ??          F3h                                     
ram:200048f4    4f              ??          4Fh    O                                
ram:200048f5    8f              ??          8Fh                                     
ram:200048f6    08              ??          08h                                     
ram:200048f7    48              ??          48h    H                                
ram:200048f8    01              ??          01h                                     
ram:200048f9    68              ??          68h    h                                
ram:200048fa    08              ??          08h                                     
ram:200048fb    4a              ??          4Ah    J                                
ram:200048fc    01              ??          01h                                     
ram:200048fd    f4              ??          F4h                                     
ram:200048fe    e0              ??          E0h                                     
ram:200048ff    61              ??          61h    a                                
ram:20004900    11              ??          11h                                     
ram:20004901    43              ??          43h    C                                
ram:20004902    01              ??          01h                                     
ram:20004903    60              ??          60h    `                                
ram:20004904    bf              ??          BFh                                     
ram:20004905    f3              ??          F3h                                     
ram:20004906    4f              ??          4Fh    O                                
ram:20004907    8f              ??          8Fh                                     
ram:20004908    00              ??          00h                                     
ram:20004909    bf              ??          BFh                                     
ram:2000490a    fd              ??          FDh                                     
ram:2000490b    e7              ??          E7h                                     
ram:2000490c    1c              ??          1Ch                                     
ram:2000490d    05              ??          05h                                     
ram:2000490e    00              ??          00h                                     
ram:2000490f    40              ??          40h    @                                
ram:20004910    d9              ??          D9h                                     
ram:20004911    ad              ??          ADh                                     
ram:20004912    07              ??          07h                                     
ram:20004913    00              ??          00h                                     
ram:20004914    d8              ??          D8h                                     ;?  ->  20002cd8
ram:20004915    2c              ??          2Ch    ,                                
ram:20004916    00              ??          00h                                     
ram:20004917    20              ??          20h                                     
ram:20004918    0c              ??          0Ch                                     
ram:20004919    ed              ??          EDh                                     
ram:2000491a    00              ??          00h                                     
ram:2000491b    e0              ??          E0h                                     
ram:2000491c    04              ??          04h                                     
ram:2000491d    00              ??          00h                                     
ram:2000491e    fa              ??          FAh                                     
ram:2000491f    05              ??          05h                                     
                            ;************************************************************************************************
                            ;*                                           FUNCTION                                           *
                            ;************************************************************************************************
                            ;undefined4 FUN_20004920(ushort * param_1, int param_2, ushort * param_3, uint param_4)
          ;param_1       ushort *            r0                      
          ;param_2       int                 r1                      
          ;param_3       ushort *            r2                      
          ;param_4       uint                r3                      
                                                          ;XREF[1,0]:   200028b6
ram:20004920    70b5            push        {r4,r5,r6,lr}                           
ram:20004922    1446            mov         r4,param_3                              
ram:20004924    8288            ldrh        param_3,[param_1,#0x4]                  
ram:20004926    0e46            mov         r6,param_2                              
ram:20004928    0546            mov         r5,param_1                              
ram:2000492a    2088            ldrh        param_1,[r4,#0x0]                       
ram:2000492c    111d            adds        param_2,param_3,#0x4                    
ram:2000492e    0144            add         param_2,param_1                         
ram:20004930    921c            adds        param_3,param_3,#0x2                    
ram:20004932    9942            cmp         param_2,param_4                         
ram:20004934    01d8            bhi         LAB_2000493a                            
ram:20004936    fe2a            cmp         param_3,#0xfe                           
ram:20004938    01d9            bls         LAB_2000493e                            
                            LAB_2000493a:                 ;XREF[1,0]:   20004934
ram:2000493a    0c20            movs        param_1,#0xc                            
ram:2000493c    70bd            pop         {r4,r5,r6,pc}                           
                            LAB_2000493e:                 ;XREF[1,0]:   20004938
ram:2000493e    521c            adds        param_3,param_3,#0x1                    
ram:20004940    3254            strb        param_3,[r6,param_1]                    
ram:20004942    2088            ldrh        param_1,[r4,#0x0]                       
ram:20004944    ff21            movs        param_2,#0xff                           
ram:20004946    401c            adds        param_1,param_1,#0x1                    
ram:20004948    80b2            uxth        param_1,param_1                         
ram:2000494a    2080            strh        param_1,[r4,#0x0]                       
ram:2000494c    3154            strb        param_2,[r6,param_1]                    
ram:2000494e    2088            ldrh        param_1,[r4,#0x0]                       
ram:20004950    401c            adds        param_1,param_1,#0x1                    
ram:20004952    80b2            uxth        param_1,param_1                         
ram:20004954    2080            strh        param_1,[r4,#0x0]                       
ram:20004956    8119            adds        param_2,param_1,r6                      
ram:20004958    2888            ldrh        param_1,[r5,#0x0]                       
ram:2000495a    00f05dfd        bl          FUN_20005418                            ;undefined4 FUN_20005418(undefined4 p...
ram:2000495e    2188            ldrh        param_2,[r4,#0x0]                       
ram:20004960    0844            add         param_1,param_2                         
ram:20004962    80b2            uxth        param_1,param_1                         
ram:20004964    2080            strh        param_1,[r4,#0x0]                       
ram:20004966    aa88            ldrh        param_3,[r5,#0x4]                       
ram:20004968    42b1            cbz         param_3,LAB_2000497c                    
ram:2000496a    a968            ldr         param_2,[r5,#0x8]                       
ram:2000496c    41b1            cbz         param_2,LAB_20004980                    
ram:2000496e    3044            add         param_1,r6                              
ram:20004970    fdf756fc        bl          FUN_20002220                            ;undefined FUN_20002220(undefined4 * ...
ram:20004974    2088            ldrh        param_1,[r4,#0x0]                       
ram:20004976    a988            ldrh        param_2,[r5,#0x4]                       
ram:20004978    0844            add         param_1,param_2                         
ram:2000497a    2080            strh        param_1,[r4,#0x0]                       
                            LAB_2000497c:                 ;XREF[1,0]:   20004968
ram:2000497c    0020            movs        param_1,#0x0                            
ram:2000497e    70bd            pop         {r4,r5,r6,pc}                           
                            LAB_20004980:                 ;XREF[1,0]:   2000496c
ram:20004980    0720            movs        param_1,#0x7                            
ram:20004982    70bd            pop         {r4,r5,r6,pc}                           
                            ;************************************************************************************************
                            ;*                                           FUNCTION                                           *
                            ;************************************************************************************************
                            ;longlong FUN_20004984(byte * param_1, int param_2, ushort * param_3, ushort * param_4)
          ;param_1       byte *              r0                      
          ;param_2       int                 r1                      
          ;param_3       ushort *            r2                      
          ;param_4       ushort *            r3                      
          ;local_18      undefined2         -18                      ;XREF[6,0]:   200049b8,200049d0,200049e8,200049ee,200049f2
                                                                     ;             20004a14
                                                          ;XREF[1,0]:   200028e0
ram:20004984    f8b5            push        {param_4,r4,r5,r6,r7,lr}                
ram:20004986    0e46            mov         r6,param_2                              
ram:20004988    0178            ldrb        param_2,[param_1,#0x0]                  
ram:2000498a    1446            mov         r4,param_3                              
ram:2000498c    0546            mov         r5,param_1                              
ram:2000498e    0129            cmp         param_2,#0x1                            
ram:20004990    01d1            bne         LAB_20004996                            
ram:20004992    6878            ldrb        param_1,[r5,#0x1]                       
ram:20004994    30b1            cbz         param_1,LAB_200049a4                    
                            LAB_20004996:                 ;XREF[1,0]:   20004990
ram:20004996    2088            ldrh        param_1,[r4,#0x0]                       
ram:20004998    821c            adds        param_3,param_1,#0x2                    
ram:2000499a    9a42            cmp         param_3,param_4                         
ram:2000499c    2dd8            bhi         LAB_200049fa                            
ram:2000499e    0129            cmp         param_2,#0x1                            
ram:200049a0    02d0            beq         LAB_200049a8                            
ram:200049a2    06e0            b           LAB_200049b2                            
                            LAB_200049a4:                 ;XREF[1,0]:   20004994
ram:200049a4    0720            movs        param_1,#0x7                            
                            LAB_200049a6:                 ;XREF[1,0]:   200049c8
ram:200049a6    f8bd            pop         {param_4,r4,r5,r6,r7,pc}                
                            LAB_200049a8:                 ;XREF[1,0]:   200049a0
ram:200049a8    6978            ldrb        param_2,[r5,#0x1]                       
ram:200049aa    0144            add         param_2,param_1                         
ram:200049ac    891c            adds        param_2,param_2,#0x2                    
ram:200049ae    9942            cmp         param_2,param_4                         
ram:200049b0    23d8            bhi         LAB_200049fa                            
                            LAB_200049b2:                 ;XREF[1,0]:   200049a2
ram:200049b2    181a            subs        param_1,param_4,param_1                 
ram:200049b4    801e            subs        param_1,param_1,#0x2                    
ram:200049b6    87b2            uxth        r7,param_1                              
ram:200049b8    adf80070        strh.w      r7,[sp,#0x0]=>local_18                  
ram:200049bc    2188            ldrh        param_2,[r4,#0x0]                       
ram:200049be    b01c            adds        param_1,r6,#0x2                         
ram:200049c0    0844            add         param_1,param_2                         
ram:200049c2    6946            mov         param_2,sp                              
ram:200049c4    7ddf            svc         0x7d                                    
ram:200049c6    0028            cmp         param_1,#0x0                            
ram:200049c8    edd1            bne         LAB_200049a6                            
ram:200049ca    2878            ldrb        param_1,[r5,#0x0]                       
ram:200049cc    0228            cmp         param_1,#0x2                            
ram:200049ce    05d1            bne         LAB_200049dc                            
ram:200049d0    bdf80010        ldrh.w      param_2=>local_18,[sp,#0x0]             
ram:200049d4    b942            cmp         param_2,r7                              
ram:200049d6    01d8            bhi         LAB_200049dc                            
ram:200049d8    0921            movs        param_2,#0x9                            
ram:200049da    0ae0            b           LAB_200049f2                            
                            LAB_200049dc:                 ;XREF[2,0]:   200049ce,200049d6
ram:200049dc    0821            movs        param_2,#0x8                            
ram:200049de    0128            cmp         param_1,#0x1                            
ram:200049e0    05d1            bne         LAB_200049ee                            
ram:200049e2    6878            ldrb        param_1,[r5,#0x1]                       
ram:200049e4    b842            cmp         param_1,r7                              
ram:200049e6    02d8            bhi         LAB_200049ee                            
ram:200049e8    adf80000        strh.w      param_1,[sp,#0x0]=>local_18             
ram:200049ec    01e0            b           LAB_200049f2                            
                            LAB_200049ee:                 ;XREF[2,0]:   200049e0,200049e6
ram:200049ee    adf80070        strh.w      r7,[sp,#0x0]=>local_18                  
                            LAB_200049f2:                 ;XREF[2,0]:   200049da,200049ec
ram:200049f2    bdf80000        ldrh.w      param_1,[sp,#0x0]=>local_18             
ram:200049f6    fe28            cmp         param_1,#0xfe                           
ram:200049f8    01d9            bls         LAB_200049fe                            
                            LAB_200049fa:                 ;XREF[2,0]:   2000499c,200049b0
ram:200049fa    0c20            movs        param_1,#0xc                            
ram:200049fc    f8bd            pop         {param_4,r4,r5,r6,r7,pc}                
                            LAB_200049fe:                 ;XREF[1,0]:   200049f8
ram:200049fe    2288            ldrh        param_3,[r4,#0x0]                       
ram:20004a00    401c            adds        param_1,param_1,#0x1                    
ram:20004a02    b054            strb        param_1,[r6,param_3]                    
ram:20004a04    2088            ldrh        param_1,[r4,#0x0]                       
ram:20004a06    401c            adds        param_1,param_1,#0x1                    
ram:20004a08    80b2            uxth        param_1,param_1                         
ram:20004a0a    2080            strh        param_1,[r4,#0x0]                       
ram:20004a0c    3154            strb        param_2,[r6,param_1]                    
ram:20004a0e    2088            ldrh        param_1,[r4,#0x0]                       
ram:20004a10    401c            adds        param_1,param_1,#0x1                    
ram:20004a12    2080            strh        param_1,[r4,#0x0]                       
ram:20004a14    bdf80010        ldrh.w      param_2,[sp,#0x0]=>local_18             
ram:20004a18    0844            add         param_1,param_2                         
ram:20004a1a    2080            strh        param_1,[r4,#0x0]                       
ram:20004a1c    0020            movs        param_1,#0x0                            
ram:20004a1e    f8bd            pop         {param_4,r4,r5,r6,r7,pc}                
ram:20004a20    31b5            push        {r0,r4,r5,lr}                           
ram:20004a22    40f2e734        movw        r4,#0x3e7                               
ram:20004a26    04e0            b           LAB_20004a32                            
                            ;************************************************************************************************
                            ;*                                           FUNCTION                                           *
                            ;************************************************************************************************
                            ;undefined FUN_20004a28(int param_1, undefined param_2, undefined param_3, undefined param_4, undefined4 param_5)
          ;param_1       int                 r0                      
          ;param_2       undefined           r1                      
          ;param_3       undefined           r2                      
          ;param_4       undefined           r3                      
          ;param_5       undefined4           0                      ;XREF[2,0]:   20004a2a,20004a32
                                                          ;XREF[1,0]:   20004a36
ram:20004a28    401e            subs        param_1,param_1,#0x1                    
ram:20004a2a    0090            str         param_1,[sp,#0x0]=>param_5              
ram:20004a2c    2046            mov         param_1,r4                              
ram:20004a2e    fdf753fb        bl          PTR_DAT_200020d8                        
                            LAB_20004a32:                 ;XREF[1,0]:   20004a26
ram:20004a32    0098            ldr         param_1,[sp,#0x0]=>param_5              
ram:20004a34    0028            cmp         param_1,#0x0                            
ram:20004a36    f7d1            bne         FUN_20004a28                            
ram:20004a38    38bd            pop         {param_4,r4,r5,pc}                      
ram:20004a3a    0000            movs        r0,r0                                   
ram:20004a3c    044a            ldr         r2,[DAT_20004a50]                       ;= 40010000h
ram:20004a3e    0349            ldr         r1,[DAT_20004a4c]                       ;= 6E524635h
ram:20004a40    02eb8000        add.w       r0,r2,r0, lsl #0x2                      
ram:20004a44    c0f80016        str.w       r1,[r0,#0x600]                          
ram:20004a48    7047            bx          lr                                      
ram:20004a4a    0000            movs        r0,r0                                   
                            DAT_20004a4c:                 ;XREF[1,0]:   20004a3e
ram:20004a4c    3546526e        undefined4  6E524635h                               
                            DAT_20004a50:                 ;XREF[1,0]:   20004a3c
ram:20004a50    00000140        undefined4  40010000h                               
                            ;************************************************************************************************
                            ;*                                           FUNCTION                                           *
                            ;************************************************************************************************
                            ;undefined4 FUN_20004a54(int param_1, int param_2)
          ;param_1       int                 r0                      
          ;param_2       int                 r1                      
                                                          ;XREF[6,0]:   20003a8a,20003c0a,2000459a,20004d2a
                                                          ;             20004d74,200052ac
ram:20004a54    0828            cmp         param_1,#0x8                            
ram:20004a56    0bd0            beq         LAB_20004a70                            
ram:20004a58    03dc            bgt         LAB_20004a62                            
ram:20004a5a    38b1            cbz         param_1,LAB_20004a6c                    
ram:20004a5c    0628            cmp         param_1,#0x6                            
ram:20004a5e    0fd1            bne         LAB_20004a80                            
ram:20004a60    08e0            b           LAB_20004a74                            
                            LAB_20004a62:                 ;XREF[1,0]:   20004a58
ram:20004a62    0b28            cmp         param_1,#0xb                            
ram:20004a64    0ad0            beq         LAB_20004a7c                            
ram:20004a66    0c28            cmp         param_1,#0xc                            
ram:20004a68    0ad1            bne         LAB_20004a80                            
ram:20004a6a    05e0            b           LAB_20004a78                            
                            LAB_20004a6c:                 ;XREF[1,0]:   20004a5a
ram:20004a6c    0120            movs        param_1,#0x1                            
ram:20004a6e    7047            bx          lr                                      
                            LAB_20004a70:                 ;XREF[1,0]:   20004a56
ram:20004a70    0220            movs        param_1,#0x2                            
ram:20004a72    7047            bx          lr                                      
                            LAB_20004a74:                 ;XREF[1,0]:   20004a60
ram:20004a74    0320            movs        param_1,#0x3                            
ram:20004a76    7047            bx          lr                                      
                            LAB_20004a78:                 ;XREF[1,0]:   20004a6a
ram:20004a78    0420            movs        param_1,#0x4                            
ram:20004a7a    7047            bx          lr                                      
                            LAB_20004a7c:                 ;XREF[1,0]:   20004a64
ram:20004a7c    0429            cmp         param_2,#0x4                            
ram:20004a7e    01d0            beq         LAB_20004a84                            
                            LAB_20004a80:                 ;XREF[2,0]:   20004a5e,20004a68
ram:20004a80    0620            movs        param_1,#0x6                            
ram:20004a82    7047            bx          lr                                      
                            LAB_20004a84:                 ;XREF[1,0]:   20004a7e
ram:20004a84    0520            movs        param_1,#0x5                            
ram:20004a86    7047            bx          lr                                      
ram:20004a88    0321            movs        r1,#0x3                                 
ram:20004a8a    8000            lsls        r0,r0,#0x2                              
ram:20004a8c    00f1a040        add.w       r0,r0,#0x50000000                       
ram:20004a90    c0f80017        str.w       r1,[r0,#0x700]                          
ram:20004a94    7047            bx          lr                                      
ram:20004a96    0000            movs        r0,r0                                   
ram:20004a98    0121            movs        r1,#0x1                                 
ram:20004a9a    8140            lsls        r1,r0                                   
ram:20004a9c    0148            ldr         r0=>DAT_50000508,[DAT_20004aa4]         ;= 50000508h
ram:20004a9e    0160            str         r1,[r0,#0x0]=>DAT_50000508              
ram:20004aa0    7047            bx          lr                                      
ram:20004aa2    0000            movs        r0,r0                                   
                            DAT_20004aa4:                 ;XREF[1,0]:   20004a9c
ram:20004aa4    08050050        undefined4  50000508h                               
                            ;************************************************************************************************
                            ;*                                           FUNCTION                                           *
                            ;************************************************************************************************
                            ;undefined FUN_20004aa8(ushort * param_1)
          ;param_1       ushort *            r0                      
          ;local_14      undefined2         -14                      ;XREF[1,0]:   20004b3c
          ;local_68      undefined4         -68                      ;XREF[1,0]:   20004b90
          ;local_6c      undefined4         -6c                      ;XREF[1,0]:   20004b98
          ;local_7e      undefined1         -7e                      ;XREF[1,0]:   20004b78
          ;local_80      undefined2         -80                      ;XREF[1,0]:   20004b72
          ;local_84      undefined4         -84                      ;XREF[2,0]:   20004b6e,20004bb0
          ;local_94      undefined4         -94                      ;XREF[1,0]:   20004bb6
          ;local_a0      undefined2         -a0                      ;XREF[1,0]:   20004bec
          ;local_a4      undefined1         -a4                      ;XREF[1,0]:   20004be4
          ;local_a8      undefined4         -a8                      ;XREF[1,0]:   20004bb4
ram:20004aa8    30b5            push        {r4,r5,lr}                              
ram:20004aaa    564c            ldr         r4,[PTR_DAT_20004c04]                   ;= 20002c98
ram:20004aac    0288            ldrh        r2,[param_1,#0x0]                       
ram:20004aae    0021            movs        r1,#0x0                                 
ram:20004ab0    e588            ldrh        r5,[r4,#0x6]=>DAT_20002c9e              ;= 460Fh
ram:20004ab2    a7b0            sub         sp,#0x9c                                
ram:20004ab4    192a            cmp         r2,#0x19                                
ram:20004ab6    0ad0            beq         LAB_20004ace                            
ram:20004ab8    1edc            bgt         LAB_20004af8                            
ram:20004aba    112a            cmp         r2,#0x11                                
ram:20004abc    3dd0            beq         LAB_20004b3a                            
ram:20004abe    08dc            bgt         LAB_20004ad2                            
ram:20004ac0    022a            cmp         r2,#0x2                                 
ram:20004ac2    7dd0            beq         LAB_20004bc0                            
ram:20004ac4    102a            cmp         r2,#0x10                                
ram:20004ac6    02d1            bne         LAB_20004ace                            
ram:20004ac8    8088            ldrh        param_1,[param_1,#0x4]                  
ram:20004aca    e080            strh        param_1,[r4,#0x6]=>DAT_20002c9e         ;= 460Fh
ram:20004acc    a170            strb        r1,[r4,#0x2]=>DAT_20002c9a              ;= 99h
                            LAB_20004ace:                 ;XREF[12,0]:  20004ab6,20004ac6,20004ade,20004b04
                                                          ;             20004b0a,20004b1a,20004b22,20004b28
                                                          ;             20004b32,20004b38,20004b62,20004bbe
ram:20004ace    27b0            add         sp,#0x9c                                
ram:20004ad0    30bd            pop         {r4,r5,pc}                              
                            LAB_20004ad2:                 ;XREF[1,0]:   20004abe
ram:20004ad2    4d49            ldr         r1,[PTR_DAT_20004c08]                   ;= 200032e8
ram:20004ad4    132a            cmp         r2,#0x13                                
ram:20004ad6    01f11804        add.w       r4,r1,#0x18                             
ram:20004ada    43d0            beq         LAB_20004b64                            
ram:20004adc    142a            cmp         r2,#0x14                                
ram:20004ade    f6d1            bne         LAB_20004ace                            
ram:20004ae0    028a            ldrh        r2,[param_1,#0x10]                      
ram:20004ae2    4b8d            ldrh        r3,[r1,#0x2a]=>LAB_20003312             
ram:20004ae4    0025            movs        r5,#0x0                                 
ram:20004ae6    9a42            cmp         r2,r3                                   
ram:20004ae8    00d1            bne         LAB_20004aec                            
ram:20004aea    2546            mov         r5,r4                                   
                            LAB_20004aec:                 ;XREF[1,0]:   20004ae8
ram:20004aec    0023            movs        r3,#0x0                                 
ram:20004aee    ca1d            adds        r2,r1,#0x7                              
ram:20004af0    8088            ldrh        param_1,[param_1,#0x4]                  
ram:20004af2    2946            mov         r1,r5                                   
ram:20004af4    86df            svc         0x86                                    
ram:20004af6    1be0            b           LAB_20004b30                            
                            LAB_20004af8:                 ;XREF[1,0]:   20004ab8
ram:20004af8    512a            cmp         r2,#0x51                                
ram:20004afa    65d0            beq         LAB_20004bc8                            
ram:20004afc    0edc            bgt         LAB_20004b1c                            
ram:20004afe    1a2a            cmp         r2,#0x1a                                
ram:20004b00    7dd0            beq         LAB_20004bfe                            
ram:20004b02    1b2a            cmp         r2,#0x1b                                
ram:20004b04    e3d1            bne         LAB_20004ace                            
ram:20004b06    007a            ldrb        param_1,[param_1,#0x8]                  
ram:20004b08    0028            cmp         param_1,#0x0                            
ram:20004b0a    e0d1            bne         LAB_20004ace                            
ram:20004b0c    a170            strb        r1,[r4,#0x2]=>DAT_20002c9a              ;= 99h
ram:20004b0e    e068            ldr         param_1,[r4,#0xc]=>DAT_20002ca4         ;= D1340600h
ram:20004b10    401e            subs        param_1,param_1,#0x1                    
ram:20004b12    e060            str         param_1,[r4,#0xc]=>DAT_20002ca4         ;= D1340600h
ram:20004b14    47d0            beq         LAB_20004ba6                            
ram:20004b16    fdf711ff        bl          FUN_2000293c                            ;undefined FUN_2000293c(void)
                            LAB_20004b1a:                 ;XREF[2,0]:   20004bcc,20004bda
ram:20004b1a    d8e7            b           LAB_20004ace                            
                            LAB_20004b1c:                 ;XREF[1,0]:   20004afc
ram:20004b1c    522a            cmp         r2,#0x52                                
ram:20004b1e    6ed0            beq         LAB_20004bfe                            
ram:20004b20    552a            cmp         r2,#0x55                                
ram:20004b22    d4d1            bne         LAB_20004ace                            
ram:20004b24    8079            ldrb        param_1,[param_1,#0x6]                  
ram:20004b26    0028            cmp         param_1,#0x0                            
ram:20004b28    d1d1            bne         LAB_20004ace                            
ram:20004b2a    1321            movs        r1,#0x13                                
ram:20004b2c    2846            mov         param_1,r5                              
ram:20004b2e    76df            svc         0x76                                    
                            LAB_20004b30:                 ;XREF[5,0]:   20004af6,20004ba2,20004bc6,20004bf6
                                                          ;             20004c02
ram:20004b30    0028            cmp         param_1,#0x0                            
ram:20004b32    ccd0            beq         LAB_20004ace                            
ram:20004b34    fdf7ceff        bl          FUN_20002ad4                            ;undefined FUN_20002ad4(void)
ram:20004b38    c9e7            b           LAB_20004ace                            
                            LAB_20004b3a:                 ;XREF[1,0]:   20004abc
ram:20004b3a    8020            movs        param_1,#0x80                           
ram:20004b3c    adf89400        strh.w      param_1,[sp,#local_14+0xa8]             
ram:20004b40    3220            movs        param_1,#0x32                           
ram:20004b42    e060            str         param_1,[r4,#0xc]=>DAT_20002ca4         ;= D1340600h
ram:20004b44    0123            movs        r3,#0x1                                 
ram:20004b46    25aa            add         r2,sp,#0x94                             
ram:20004b48    05a9            add         r1,sp,#0x14                             
ram:20004b4a    2846            mov         param_1,r5                              
ram:20004b4c    aadf            svc         0xaa                                    
ram:20004b4e    08b1            cbz         param_1,LAB_20004b54                    
ram:20004b50    fdf7c0ff        bl          FUN_20002ad4                            ;undefined FUN_20002ad4(void)
                            LAB_20004b54:                 ;XREF[1,0]:   20004b4e
ram:20004b54    2078            ldrb        param_1,[r4,#0x0]=>DAT_20002c98         ;= 80h
ram:20004b56    08b9            cbnz        param_1,LAB_20004b5c                    
ram:20004b58    fdf7f0fe        bl          FUN_2000293c                            ;undefined FUN_2000293c(void)
                            LAB_20004b5c:                 ;XREF[1,0]:   20004b56
ram:20004b5c    4ff6ff70        movw        param_1,#0xffff                         
ram:20004b60    e080            strh        param_1,[r4,#0x6]=>DAT_20002c9e         ;= 460Fh
ram:20004b62    b4e7            b           LAB_20004ace                            
                            LAB_20004b64:                 ;XREF[1,0]:   20004ada
ram:20004b64    2848            ldr         param_1,[PTR_DAT_20004c08]              ;= 200032e8
ram:20004b66    c91d            adds        r1=>DAT_200032ef,r1,#0x7                ;= FBh
ram:20004b68    4838            subs        param_1,#0x48                           
ram:20004b6a    50f8482f        ldr.w       r2,[param_1,#0x48]!=>DAT_200032e8       ;= B108FF65h
ram:20004b6e    0992            str         r2,[sp,#local_84+0xa8]                  
ram:20004b70    8288            ldrh        r2,[param_1,#0x4]=>DAT_200032ec         ;= F7FFh
ram:20004b72    adf82820        strh.w      r2,[sp,#local_80+0xa8]                  
ram:20004b76    8079            ldrb        param_1,[param_1,#0x6]=>DAT_200032ee    ;= F2h
ram:20004b78    8df82a00        strb.w      param_1,[sp,#local_7e+0xa8]             
ram:20004b7c    1022            movs        r2,#0x10                                
ram:20004b7e    05a8            add         param_1,sp,#0x14                        
ram:20004b80    fdf74efb        bl          FUN_20002220                            ;undefined FUN_20002220(undefined4 * ...
ram:20004b84    1c22            movs        r2,#0x1c                                
ram:20004b86    2146            mov         r1=>DAT_20003300,r4                     ;= E9h
ram:20004b88    14a8            add         param_1,sp,#0x50                        
ram:20004b8a    fdf749fb        bl          FUN_20002220                            ;undefined FUN_20002220(undefined4 * ...
ram:20004b8e    05a8            add         param_1,sp,#0x14                        
ram:20004b90    1090            str         param_1,[sp,#local_68+0xa8]             
ram:20004b92    1c4a            ldr         r2,[PTR_DAT_20004c04]                   ;= 20002c98
ram:20004b94    14a8            add         param_1,sp,#0x50                        
ram:20004b96    1c32            adds        r2,#0x1c                                
ram:20004b98    0f90            str         param_1,[sp,#local_6c+0xa8]             
ram:20004b9a    0bab            add         r3,sp,#0x2c                             
ram:20004b9c    8521            movs        r1,#0x85                                
ram:20004b9e    2846            mov         param_1,r5                              
ram:20004ba0    7fdf            svc         0x7f                                    
ram:20004ba2    c5e7            b           LAB_20004b30                            
ram:20004ba4    0ce0            b           LAB_20004bc0                            
                            LAB_20004ba6:                 ;XREF[1,0]:   20004b14
ram:20004ba6    1422            movs        r2,#0x14                                
ram:20004ba8    1849            ldr         r1,[DAT_20004c0c]                       ;= 0007D808h
ram:20004baa    05a8            add         param_1,sp,#0x14                        
ram:20004bac    fdf738fb        bl          FUN_20002220                            ;undefined FUN_20002220(undefined4 * ...
ram:20004bb0    0998            ldr         param_1,[sp,#local_84+0xa8]             
ram:20004bb2    05ac            add         r4,sp,#0x14                             
ram:20004bb4    0090            str         param_1,[sp,#0x0]=>local_a8             
ram:20004bb6    94e80f00        ldm.w       r4=>local_94,{param_1,r1,r2,r3}         
ram:20004bba    fef749fc        bl          FUN_20003450                            ;undefined FUN_20003450(uint param_1,...
ram:20004bbe    86e7            b           LAB_20004ace                            
                            LAB_20004bc0:                 ;XREF[2,0]:   20004ac2,20004ba4
ram:20004bc0    0021            movs        r1,#0x0                                 
ram:20004bc2    2846            mov         param_1,r5                              
ram:20004bc4    67df            svc         0x67                                    
ram:20004bc6    b3e7            b           LAB_20004b30                            
                            LAB_20004bc8:                 ;XREF[1,0]:   20004afa
ram:20004bc8    8179            ldrb        r1,[param_1,#0x6]                       
ram:20004bca    0029            cmp         r1,#0x0                                 
ram:20004bcc    a5d0            beq         LAB_20004b1a                            
ram:20004bce    807b            ldrb        param_1,[param_1,#0xe]                  
ram:20004bd0    0428            cmp         param_1,#0x4                            
ram:20004bd2    03d0            beq         LAB_20004bdc                            
ram:20004bd4    0628            cmp         param_1,#0x6                            
ram:20004bd6    01d0            beq         LAB_20004bdc                            
ram:20004bd8    0528            cmp         param_1,#0x5                            
ram:20004bda    9ed1            bne         LAB_20004b1a                            
                            LAB_20004bdc:                 ;XREF[2,0]:   20004bd2,20004bd6
ram:20004bdc    0229            cmp         r1,#0x2                                 
ram:20004bde    0cd0            beq         LAB_20004bfa                            
ram:20004be0    5ff00100        movs.w      param_1,#0x1                            
                            LAB_20004be4:                 ;XREF[1,0]:   20004bfc
ram:20004be4    8df80400        strb.w      param_1,[sp,#local_a4+0xa8]             
ram:20004be8    4ff4c170        mov.w       param_1,#0x182                          
ram:20004bec    adf80800        strh.w      param_1,[sp,#local_a0+0xa8]             
ram:20004bf0    01a9            add         r1,sp,#0x4                              
ram:20004bf2    2846            mov         param_1,r5                              
ram:20004bf4    a8df            svc         0xa8                                    
ram:20004bf6    9be7            b           LAB_20004b30                            
ram:20004bf8    01e0            b           LAB_20004bfe                            
                            LAB_20004bfa:                 ;XREF[1,0]:   20004bde
ram:20004bfa    0220            movs        param_1,#0x2                            
ram:20004bfc    f2e7            b           LAB_20004be4                            
                            LAB_20004bfe:                 ;XREF[3,0]:   20004b00,20004b1e,20004bf8
ram:20004bfe    00f04dfa        bl          FUN_2000509c                            ;ulonglong FUN_2000509c(undefined4 pa...
ram:20004c02    95e7            b           LAB_20004b30                            
                            PTR_DAT_20004c04:             ;XREF[2,0]:   20004aaa,20004b92
ram:20004c04    982c0020        addr        DAT_20002c98                            ;= 80h
                            PTR_DAT_20004c08:             ;XREF[2,0]:   20004ad2,20004b64
ram:20004c08    e8320020        addr        DAT_200032e8                            ;= B108FF65h
                            DAT_20004c0c:                 ;XREF[1,0]:   20004ba8
ram:20004c0c    08d80700        undefined4  0007D808h                               
                            ;************************************************************************************************
                            ;*                                           FUNCTION                                           *
                            ;************************************************************************************************
                            ;uint FUN_20004c10(ushort * param_1, int param_2)
          ;param_1       ushort *            r0                      
          ;param_2       int                 r1                      
          ;local_1c      undefined4         -1c                      ;XREF[1,0]:   20004c44
          ;local_20      undefined4         -20                      ;XREF[2,1]:   20004c36,20004c3a,20004c40
          ;local_24      undefined1         -24                      ;XREF[1,0]:   20004c5a
          ;local_28      undefined4         -28                      ;XREF[1,0]:   20004c38
          ;local_2a      undefined2         -2a                      ;XREF[1,0]:   20004c2c
          ;local_2c      undefined2         -2c                      ;XREF[1,0]:   20004c26
          ;local_2e      undefined1         -2e                      ;XREF[1,0]:   20004c20
          ;local_30      undefined2         -30                      ;XREF[2,0]:   20004c64,20004c8e
          ;local_34      undefined1         -34                      ;XREF[1,0]:   20004c1c
          ;local_38      undefined1         -38                      ;XREF[1,0]:   20004ca8
          ;local_3c      undefined4         -3c                      ;XREF[2,0]:   20004cac,20004cee
          ;local_40      undefined1         -40                      ;XREF[4,0]:   20004c9c,20004cba,20004cc6,20004cf6
                                                          ;XREF[1,0]:   2000316c
ram:20004c10    f0b5            push        {r4,r5,r6,r7,lr}                        
ram:20004c12    8bb0            sub         sp,#0x2c                                
ram:20004c14    0127            movs        r7,#0x1                                 
ram:20004c16    4ff0020e        mov.w       lr,#0x2                                 
ram:20004c1a    0546            mov         r5,param_1                              
ram:20004c1c    8df80ce0        strb.w      lr,[sp,#local_34+0x40]                  
ram:20004c20    8df81270        strb.w      r7,[sp,#local_2e+0x40]                  
ram:20004c24    0889            ldrh        param_1,[param_2,#0x8]                  
ram:20004c26    adf81400        strh.w      param_1,[sp,#local_2c+0x40]             
ram:20004c2a    4889            ldrh        param_1,[param_2,#0xa]                  
ram:20004c2c    adf81600        strh.w      param_1,[sp,#local_2a+0x40]             
ram:20004c30    01f10c00        add.w       param_1,param_2,#0xc                    
ram:20004c34    0026            movs        r6,#0x0                                 
ram:20004c36    0896            str         r6,[sp,#local_20+0x40]                  
ram:20004c38    0690            str         param_1,[sp,#local_28+0x40]             
ram:20004c3a    adf820e0        strh.w      lr,[sp,#local_20+0x40]                  
ram:20004c3e    07a8            add         param_1,sp,#0x1c                        
ram:20004c40    adf82260        strh.w      r6,[sp,#local_20+0x42]                  
ram:20004c44    0990            str         param_1,[sp,#local_1c+0x40]             
ram:20004c46    0c46            mov         r4,param_2                              
ram:20004c48    a98a            ldrh        param_2,[r5,#0x14]                      
ram:20004c4a    2888            ldrh        param_1,[r5,#0x0]                       
ram:20004c4c    08aa            add         r2,sp,#0x20                             
ram:20004c4e    a5df            svc         0xa5                                    
ram:20004c50    18b1            cbz         param_1,LAB_20004c5a                    
ram:20004c52    e96a            ldr         param_2,[r5,#0x2c]                      
ram:20004c54    c9b1            cbz         param_2,LAB_20004c8a                    
ram:20004c56    8847            blx         param_2                                 
ram:20004c58    17e0            b           LAB_20004c8a                            
                            LAB_20004c5a:                 ;XREF[1,0]:   20004c50
ram:20004c5a    9df81c00        ldrb.w      param_1,[sp,#local_24+0x40]             
ram:20004c5e    10f0010f        tst         param_1,#0x1                            
ram:20004c62    12d0            beq         LAB_20004c8a                            
ram:20004c64    adf81060        strh.w      r6,[sp,#local_30+0x40]                  
ram:20004c68    2888            ldrh        param_1,[r5,#0x0]                       
ram:20004c6a    03a9            add         param_2,sp,#0xc                         
ram:20004c6c    a8df            svc         0xa8                                    
ram:20004c6e    0028            cmp         param_1,#0x0                            
ram:20004c70    12d1            bne         LAB_20004c98                            
ram:20004c72    217b            ldrb        param_2,[r4,#0xc]                       
ram:20004c74    04f10d00        add.w       param_1,r4,#0xd                         
ram:20004c78    0929            cmp         param_2,#0x9                            
ram:20004c7a    43d2            bcs         switchD_20004c7c::caseD_0               
                            switchD:                      ; FWD[10,0]:  20004c80,20004c9c,20004cba,20004cc6
                                                          ;             20004ccc,20004cd0,20004cd4,20004cd8
                                                          ;             20004d00,20004d04
ram:20004c7c    dfe801f0        tbb         [switchD_20004c7c::switchdataD_20004c...;= 42h
                            switchdataD_20004c80:         ;XREF[1,0]:   20004c7c
ram:20004c80    42              db          42h                                     
ram:20004c81    0e              db          Eh                                      
ram:20004c82    1d              db          1Dh                                     
ram:20004c83    23              db          23h                                     
ram:20004c84    26              db          26h                                     
ram:20004c85    28              db          28h                                     
ram:20004c86    2a              db          2Ah                                     
ram:20004c87    40              db          40h                                     
ram:20004c88    2c              db          2Ch                                     
ram:20004c89    00              ??          00h                                     
                            LAB_20004c8a:                 ;XREF[3,0]:   20004c54,20004c58,20004c62
ram:20004c8a    40f2fd10        movw        param_1,#0x1fd                          
ram:20004c8e    adf81000        strh.w      param_1,[sp,#local_30+0x40]             
ram:20004c92    2888            ldrh        param_1,[r5,#0x0]                       
ram:20004c94    03a9            add         param_2,sp,#0xc                         
ram:20004c96    a8df            svc         0xa8                                    
                            LAB_20004c98:                 ;XREF[3,0]:   20004c70,20004cb8,20004ce8
ram:20004c98    0bb0            add         sp,#0x2c                                
ram:20004c9a    f0bd            pop         {r4,r5,r6,r7,pc}                        
                            caseD_1:                      ;XREF[1,0]:   20004c7c
ram:20004c9c    8df80060        strb.w      r6,[sp,#0x0]=>local_40                  
ram:20004ca0    0de0            b           LAB_20004cbe                            
                            LAB_20004ca2:                 ;XREF[1,0]:   20004cc4
ram:20004ca2    0622            movs        r2,#0x6                                 
ram:20004ca4    1de0            b           LAB_20004ce2                            
ram:20004ca6    00bf            nop                                                  
                            LAB_20004ca8:                 ;XREF[1,0]:   20004cc2
ram:20004ca8    8df80870        strb.w      r7,[sp,#local_38+0x40]                  
ram:20004cac    0190            str         param_1,[sp,#local_3c+0x40]             
                            LAB_20004cae:                 ;XREF[2,0]:   20004cca,20004cfa
ram:20004cae    aa6a            ldr         r2,[r5,#0x28]                           
ram:20004cb0    6946            mov         param_2,sp                              
ram:20004cb2    2846            mov         param_1,r5                              
ram:20004cb4    9047            blx         r2                                      
ram:20004cb6    0020            movs        param_1,#0x0                            
ram:20004cb8    eee7            b           LAB_20004c98                            
                            caseD_2:                      ;XREF[1,0]:   20004c7c
ram:20004cba    8df80070        strb.w      r7,[sp,#0x0]=>local_40                  
                            LAB_20004cbe:                 ;XREF[1,0]:   20004ca0
ram:20004cbe    6289            ldrh        r2,[r4,#0xa]                            
ram:20004cc0    022a            cmp         r2,#0x2                                 
ram:20004cc2    f1d2            bcs         LAB_20004ca8                            
ram:20004cc4    ede7            b           LAB_20004ca2                            
                            caseD_3:                      ;XREF[1,0]:   20004c7c
ram:20004cc6    8df800e0        strb.w      lr,[sp,#0x0]=>local_40                  
ram:20004cca    f0e7            b           LAB_20004cae                            
                            caseD_4:                      ;XREF[1,0]:   20004c7c
ram:20004ccc    0320            movs        param_1,#0x3                            
ram:20004cce    12e0            b           LAB_20004cf6                            
                            caseD_5:                      ;XREF[1,0]:   20004c7c
ram:20004cd0    0420            movs        param_1,#0x4                            
ram:20004cd2    10e0            b           LAB_20004cf6                            
                            caseD_6:                      ;XREF[1,0]:   20004c7c
ram:20004cd4    0520            movs        param_1,#0x5                            
ram:20004cd6    0ee0            b           LAB_20004cf6                            
                            caseD_8:                      ;XREF[1,0]:   20004c7c
ram:20004cd8    6089            ldrh        param_1,[r4,#0xa]                       
ram:20004cda    0328            cmp         param_1,#0x3                            
ram:20004cdc    05d2            bcs         LAB_20004cea                            
ram:20004cde    0322            movs        r2,#0x3                                 
ram:20004ce0    0821            movs        param_2,#0x8                            
                            LAB_20004ce2:                 ;XREF[2,0]:   20004ca4,20004d06
ram:20004ce2    2846            mov         param_1,r5                              
ram:20004ce4    fef79cfa        bl          FUN_20003220                            ;undefined8 FUN_20003220(ushort * par...
ram:20004ce8    d6e7            b           LAB_20004c98                            
                            LAB_20004cea:                 ;XREF[1,0]:   20004cdc
ram:20004cea    b4f80d00        ldrh.w      param_1,[r4,#0xd]                       
ram:20004cee    adf80400        strh.w      param_1,[sp,#local_3c+0x40]             
ram:20004cf2    18b1            cbz         param_1,LAB_20004cfc                    
ram:20004cf4    0620            movs        param_1,#0x6                            
                            LAB_20004cf6:                 ;XREF[5,0]:   20004cce,20004cd2,20004cd6,20004cfe
                                                          ;             20004d02
ram:20004cf6    8df80000        strb.w      param_1,[sp,#0x0]=>local_40             
ram:20004cfa    d8e7            b           LAB_20004cae                            
                            LAB_20004cfc:                 ;XREF[1,0]:   20004cf2
ram:20004cfc    0720            movs        param_1,#0x7                            
ram:20004cfe    fae7            b           LAB_20004cf6                            
                            caseD_7:                      ;XREF[1,0]:   20004c7c
ram:20004d00    0920            movs        param_1,#0x9                            
ram:20004d02    f8e7            b           LAB_20004cf6                            
                            caseD_0:                      ;XREF[2,0]:   20004c7a,20004c7c
ram:20004d04    0322            movs        r2,#0x3                                 
ram:20004d06    ece7            b           LAB_20004ce2                            
                            ;************************************************************************************************
                            ;*                                           FUNCTION                                           *
                            ;************************************************************************************************
                            ;ushort * FUN_20004d08(ushort * param_1, byte * param_2)
          ;param_1       ushort *            r0                      
          ;param_2       byte *              r1                      
          ;local_10      undefined4         -10                      
          ;local_14      undefined4         -14                      ;XREF[1,0]:   2000526a
          ;local_18      undefined4         -18                      ;XREF[1,0]:   20005266
          ;local_1c      undefined4         -1c                      ;XREF[2,0]:   20005256,2000529e
          ;local_20      undefined4         -20                      ;XREF[2,0]:   20005254,20005294
          ;local_24      undefined4         -24                      ;XREF[2,0]:   20005252,2000528a
          ;local_28      undefined4         -28                      ;XREF[2,0]:   20005250,2000525e
ram:20004d08    70b5            push        {r4,r5,r6,lr}                           
ram:20004d0a    0446            mov         r4,param_1                              
ram:20004d0c    0b78            ldrb        r3,[param_2,#0x0]                       
ram:20004d0e    0120            movs        param_1,#0x1                            
ram:20004d10    314a            ldr         r2=>DAT_20002c98,[PTR_DAT_20004dd8]     ;= 80h
                                                                                    ;= 20002c98
ram:20004d12    0a2b            cmp         r3,#0xa                                 
ram:20004d14    16d2            bcs         switchD_20004d16::caseD_a               
                            switchD:                      ; FWD[12,0]:  20004d1a,20004d24,20004d34,20004d44
                                                          ;             20004d46,20004d58,20004d62,20004d8e
                                                          ;             20004d94,20004dbc,20004dc6,20004dce
ram:20004d16    dfe803f0        tbb         [switchD_20004d16::switchdataD_20004d...;= 1Fh
                            switchdataD_20004d1a:         ;XREF[1,0]:   20004d16
ram:20004d1a    1f              db          1Fh                                     
ram:20004d1b    24              db          24h                                     
ram:20004d1c    3a              db          3Ah                                     
ram:20004d1d    05              db          5h                                      
ram:20004d1e    0d              db          Dh                                      
ram:20004d1f    16              db          16h                                     
ram:20004d20    51              db          51h                                     
ram:20004d21    56              db          56h                                     
ram:20004d22    3d              db          3Dh                                     
ram:20004d23    5a              db          5Ah                                     
                            caseD_3:                      ;XREF[1,0]:   20004d16
ram:20004d24    fef79aff        bl          FUN_20003c5c                            ;int FUN_20003c5c(undefined4 param_1,...
ram:20004d28    0421            movs        param_2,#0x4                            
ram:20004d2a    fff793fe        bl          FUN_20004a54                            ;undefined4 FUN_20004a54(int param_1,...
ram:20004d2e    0246            mov         r2,param_1                              
ram:20004d30    0421            movs        param_2,#0x4                            
ram:20004d32    23e0            b           LAB_20004d7c                            
                            caseD_4:                      ;XREF[1,0]:   20004d16
ram:20004d34    fff78afa        bl          FUN_2000424c                            ;undefined4 FUN_2000424c(undefined4 p...
ram:20004d38    08b1            cbz         param_1,LAB_20004d3e                    
ram:20004d3a    fdf7cbfe        bl          FUN_20002ad4                            ;undefined FUN_20002ad4(void)
                            LAB_20004d3e:                 ;XREF[1,0]:   20004d38
ram:20004d3e    fef773ff        bl          FUN_20003c28                            ;undefined4 FUN_20003c28(undefined4 p...
ram:20004d42    28b9            cbnz        param_1,LAB_20004d50                    
                            caseD_a:                      ;XREF[2,0]:   20004d14,20004d16
ram:20004d44    70bd            pop         {r4,r5,r6,pc}                           
                            caseD_5:                      ;XREF[1,0]:   20004d16
ram:20004d46    fff781fa        bl          FUN_2000424c                            ;undefined4 FUN_2000424c(undefined4 p...
ram:20004d4a    08b1            cbz         param_1,LAB_20004d50                    
ram:20004d4c    fdf7c2fe        bl          FUN_20002ad4                            ;undefined FUN_20002ad4(void)
                            LAB_20004d50:                 ;XREF[2,0]:   20004d42,20004d4a
ram:20004d50    bde87040        pop.w       {r4,r5,r6,lr}                           
ram:20004d54    fff7feb8        b.w         FUN_20003f54                            ;undefined FUN_20003f54(uint param_1,...
                            caseD_0:                      ;XREF[1,0]:   20004d16
ram:20004d58    1071            strb        param_1,[r2,#0x4]=>DAT_20002c9c         ;= 14h
ram:20004d5a    4868            ldr         param_1,[param_2,#0x4]                  
ram:20004d5c    0078            ldrb        param_1,[param_1,#0x0]                  
ram:20004d5e    5071            strb        param_1,[r2,#0x5]=>DAT_20002c9d         ;= 46h
                            LAB_20004d60:                 ;XREF[2,0]:   20004d6c,20004d84
ram:20004d60    70bd            pop         {r4,r5,r6,pc}                           
                            caseD_1:                      ;XREF[1,0]:   20004d16
ram:20004d62    0220            movs        param_1,#0x2                            
ram:20004d64    1071            strb        param_1,[r2,#0x4]=>DAT_20002c9c         ;= 14h
ram:20004d66    4868            ldr         param_1,[param_2,#0x4]                  
ram:20004d68    0078            ldrb        param_1,[param_1,#0x0]                  
ram:20004d6a    0128            cmp         param_1,#0x1                            
ram:20004d6c    f8d1            bne         LAB_20004d60                            
ram:20004d6e    fef7d5ff        bl          FUN_20003d1c                            ;int FUN_20003d1c(void)
ram:20004d72    0221            movs        param_2,#0x2                            
ram:20004d74    fff76efe        bl          FUN_20004a54                            ;undefined4 FUN_20004a54(int param_1,...
ram:20004d78    0246            mov         r2,param_1                              
ram:20004d7a    0221            movs        param_2,#0x2                            
                            LAB_20004d7c:                 ;XREF[1,0]:   20004d32
ram:20004d7c    2046            mov         param_1,r4                              
ram:20004d7e    fef74ffa        bl          FUN_20003220                            ;undefined8 FUN_20003220(ushort * par...
                            LAB_20004d82:                 ;XREF[1,0]:   20004dd6
ram:20004d82    0028            cmp         param_1,#0x0                            
ram:20004d84    ecd0            beq         LAB_20004d60                            
ram:20004d86    bde87040        pop.w       {r4,r5,r6,lr}                           
ram:20004d8a    fdf7a3be        b.w         FUN_20002ad4                            ;undefined FUN_20002ad4(void)
                            caseD_2:                      ;XREF[1,0]:   20004d16
ram:20004d8e    0320            movs        param_1,#0x3                            
ram:20004d90    1071            strb        param_1,[r2,#0x4]=>DAT_20002c9c         ;= 14h
                            LAB_20004d92:                 ;XREF[1,0]:   20004da2
ram:20004d92    70bd            pop         {r4,r5,r6,pc}                           
                            caseD_8:                      ;XREF[1,0]:   20004d16
ram:20004d94    1279            ldrb        r2,[r2,#0x4]=>DAT_20002c9c              ;= 14h
ram:20004d96    2046            mov         param_1,r4                              
ram:20004d98    012a            cmp         r2,#0x1                                 
ram:20004d9a    07d0            beq         LAB_20004dac                            
ram:20004d9c    022a            cmp         r2,#0x2                                 
ram:20004d9e    09d0            beq         LAB_20004db4                            
ram:20004da0    032a            cmp         r2,#0x3                                 
ram:20004da2    f6d1            bne         LAB_20004d92                            
ram:20004da4    bde87040        pop.w       {r4,r5,r6,lr}                           
ram:20004da8    fdf71cbe        b.w         FUN_200029e4                            ;undefined8 FUN_200029e4(ushort * par...
                            LAB_20004dac:                 ;XREF[1,0]:   20004d9a
ram:20004dac    bde87040        pop.w       {r4,r5,r6,lr}                           
ram:20004db0    00f04aba        b.w         LAB_20005248                            
                            LAB_20004db4:                 ;XREF[1,0]:   20004d9e
ram:20004db4    bde87040        pop.w       {r4,r5,r6,lr}                           
ram:20004db8    fff7cebb        b.w         FUN_20004558                            ;undefined FUN_20004558(ushort * para...
                            caseD_6:                      ;XREF[1,0]:   20004d16
ram:20004dbc    5070            strb        param_1,[r2,#0x1]=>DAT_20002c99         ;= 46h
ram:20004dbe    8888            ldrh        param_1,[param_2,#0x4]                  
ram:20004dc0    1081            strh        param_1,[r2,#0x8]=>DAT_20002ca0         ;= 0790h
ram:20004dc2    5081            strh        param_1,[r2,#0xa]=>DAT_20002ca2         ;= F04Fh
ram:20004dc4    70bd            pop         {r4,r5,r6,pc}                           
                            caseD_7:                      ;XREF[1,0]:   20004d16
ram:20004dc6    0020            movs        param_1,#0x0                            
ram:20004dc8    5070            strb        param_1,[r2,#0x1]=>DAT_20002c99         ;= 46h
ram:20004dca    1081            strh        param_1,[r2,#0x8]=>DAT_20002ca0         ;= 0790h
ram:20004dcc    70bd            pop         {r4,r5,r6,pc}                           
                            caseD_9:                      ;XREF[1,0]:   20004d16
ram:20004dce    2046            mov         param_1,r4                              
ram:20004dd0    1169            ldr         param_2,[r2,#0x10]=>DAT_20002ca8        ;= B38C4D1Ch
ram:20004dd2    fef725f9        bl          FUN_20003020                            ;undefined8 FUN_20003020(ushort * par...
ram:20004dd6    d4e7            b           LAB_20004d82                            
                            PTR_DAT_20004dd8:             ;XREF[1,0]:   20004d10
ram:20004dd8    982c0020        addr        DAT_20002c98                            ;= 80h
ram:20004ddc    06              ??          06h                                     
ram:20004ddd    48              ??          48h    H                                
ram:20004dde    03              ??          03h                                     
ram:20004ddf    78              ??          78h    x                                
ram:20004de0    01              ??          01h                                     
ram:20004de1    2b              ??          2Bh    +                                
ram:20004de2    03              ??          03h                                     
ram:20004de3    d1              ??          D1h                                     
ram:20004de4    01              ??          01h                                     
ram:20004de5    29              ??          29h    )                                
ram:20004de6    01              ??          01h                                     
ram:20004de7    d1              ??          D1h                                     
ram:20004de8    02              ??          02h                                     
ram:20004de9    21              ??          21h    !                                
ram:20004dea    01              ??          01h                                     
ram:20004deb    70              ??          70h    p                                
ram:20004dec    10              ??          10h                                     
ram:20004ded    00              ??          00h                                     
ram:20004dee    01              ??          01h                                     
ram:20004def    d0              ??          D0h                                     
ram:20004df0    fd              ??          FDh                                     
ram:20004df1    f7              ??          F7h                                     
ram:20004df2    70              ??          70h    p                                
ram:20004df3    be              ??          BEh                                     
ram:20004df4    70              ??          70h    p                                
ram:20004df5    47              ??          47h    G                                
ram:20004df6    00              ??          00h                                     
ram:20004df7    00              ??          00h                                     
ram:20004df8    60              ??          60h    `                                ;?  ->  20002c60
ram:20004df9    2c              ??          2Ch    ,                                
ram:20004dfa    00              ??          00h                                     
ram:20004dfb    20              ??          20h                                     
ram:20004dfc    70              ??          70h    p                                
ram:20004dfd    b5              ??          B5h                                     
ram:20004dfe    12              ??          12h                                     
ram:20004dff    4c              ??          4Ch    L                                
ram:20004e00    1e              ??          1Eh                                     
ram:20004e01    46              ??          46h    F                                
ram:20004e02    15              ??          15h                                     
ram:20004e03    46              ??          46h    F                                
ram:20004e04    60              ??          60h    `                                
ram:20004e05    78              ??          78h    x                                
ram:20004e06    01              ??          01h                                     
ram:20004e07    29              ??          29h    )                                
ram:20004e08    02              ??          02h                                     
ram:20004e09    d0              ??          D0h                                     
ram:20004e0a    03              ??          03h                                     
ram:20004e0b    29              ??          29h    )                                
ram:20004e0c    14              ??          14h                                     
ram:20004e0d    d1              ??          D1h                                     
ram:20004e0e    07              ??          07h                                     
ram:20004e0f    e0              ??          E0h                                     
ram:20004e10    05              ??          05h                                     
ram:20004e11    28              ??          28h    (                                
ram:20004e12    11              ??          11h                                     
ram:20004e13    d1              ??          D1h                                     
ram:20004e14    63              ??          63h    c                                
ram:20004e15    69              ??          69h    i                                
ram:20004e16    7b              ??          7Bh    {                                
ram:20004e17    b1              ??          B1h                                     
ram:20004e18    32              ??          32h    2                                
ram:20004e19    46              ??          46h    F                                
ram:20004e1a    29              ??          29h    )                                
ram:20004e1b    46              ??          46h    F                                
ram:20004e1c    04              ??          04h                                     
ram:20004e1d    20              ??          20h                                     
ram:20004e1e    0a              ??          0Ah                                     
ram:20004e1f    e0              ??          E0h                                     
ram:20004e20    02              ??          02h                                     
ram:20004e21    28              ??          28h    (                                
ram:20004e22    09              ??          09h                                     
ram:20004e23    d1              ??          D1h                                     
ram:20004e24    09              ??          09h                                     
ram:20004e25    48              ??          48h    H                                
ram:20004e26    40              ??          40h    @                                
ram:20004e27    68              ??          68h    h                                
ram:20004e28    80              ??          80h                                     
ram:20004e29    47              ??          47h    G                                
ram:20004e2a    03              ??          03h                                     
ram:20004e2b    20              ??          20h                                     
ram:20004e2c    60              ??          60h    `                                
ram:20004e2d    70              ??          70h    p                                
ram:20004e2e    63              ??          63h    c                                
ram:20004e2f    69              ??          69h    i                                
ram:20004e30    13              ??          13h                                     
ram:20004e31    b1              ??          B1h                                     
ram:20004e32    32              ??          32h    2                                
ram:20004e33    46              ??          46h    F                                
ram:20004e34    29              ??          29h    )                                
ram:20004e35    46              ??          46h    F                                
ram:20004e36    98              ??          98h                                     
ram:20004e37    47              ??          47h    G                                
ram:20004e38    28              ??          28h    (                                
ram:20004e39    00              ??          00h                                     
ram:20004e3a    03              ??          03h                                     
ram:20004e3b    d0              ??          D0h                                     
ram:20004e3c    bd              ??          BDh                                     
ram:20004e3d    e8              ??          E8h                                     
ram:20004e3e    70              ??          70h    p                                
ram:20004e3f    40              ??          40h    @                                
ram:20004e40    fd              ??          FDh                                     
ram:20004e41    f7              ??          F7h                                     
ram:20004e42    48              ??          48h    H                                
ram:20004e43    be              ??          BEh                                     
ram:20004e44    70              ??          70h    p                                
ram:20004e45    bd              ??          BDh                                     
ram:20004e46    00              ??          00h                                     
ram:20004e47    00              ??          00h                                     
ram:20004e48    6c              ??          6Ch    l                                ;?  ->  20002c6c
ram:20004e49    2c              ??          2Ch    ,                                
ram:20004e4a    00              ??          00h                                     
ram:20004e4b    20              ??          20h                                     
ram:20004e4c    88              ??          88h                                     ;?  ->  20003288
ram:20004e4d    32              ??          32h    2                                
ram:20004e4e    00              ??          00h                                     
ram:20004e4f    20              ??          20h                                     
                            ;************************************************************************************************
                            ;*                                           FUNCTION                                           *
                            ;************************************************************************************************
                            ;undefined FUN_20004e50(undefined4 * param_1, undefined4 param_2)
          ;param_1       undefined4 *        r0                      
          ;param_2       undefined4          r1                      
          ;local_8       undefined4          -8                      ;XREF[1,0]:   20004e5a
                                                          ;XREF[3,0]:   2000359c,200038c2,20003efa
ram:20004e50    08b5            push        {r3,lr}                                 
ram:20004e52    0b46            mov         r3,param_2                              
ram:20004e54    0022            movs        r2,#0x0                                 
ram:20004e56    0146            mov         param_2,param_1                         
ram:20004e58    0320            movs        param_1,#0x3                            
ram:20004e5a    0092            str         r2,[sp,#0x0]=>local_8                   
ram:20004e5c    fef71afc        bl          FUN_20003694                            ;int FUN_20003694(undefined param_1, ...
ram:20004e60    08bd            pop         {r3,pc}                                 
ram:20004e62    0000            movs        r0,r0                                   
ram:20004e64    70b5            push        {r4,r5,r6,lr}                           
ram:20004e66    0d4e            ldr         r6,[PTR_DAT_20004e9c]                   ;= 20002c1c
ram:20004e68    0024            movs        r4,#0x0                                 
ram:20004e6a    0d48            ldr         r0,[PTR_DAT_20004ea0]                   ;= 200030bc
ram:20004e6c    7460            str         r4,[r6,#0x4]=>DAT_20002c20              ;= D0010400h
ram:20004e6e    2546            mov         r5,r4                                   
ram:20004e70    0470            strb        r4,[r0,#0x0]=>DAT_200030bc              ;= 30h
ram:20004e72    4470            strb        r4,[r0,#0x1]=>DAT_200030bd              ;= 50h
ram:20004e74    8470            strb        r4,[r0,#0x2]=>DAT_200030be              ;= ADh
                            LAB_20004e76:                 ;XREF[1,0]:   20004e80
ram:20004e76    2846            mov         r0,r5                                   
ram:20004e78    fef7fcfb        bl          FUN_20003674                            ;undefined FUN_20003674(int param_1)
ram:20004e7c    6d1c            adds        r5,r5,#0x1                              
ram:20004e7e    0a2d            cmp         r5,#0xa                                 
ram:20004e80    f9d3            bcc         LAB_20004e76                            
ram:20004e82    0749            ldr         r1,[PTR_DAT_20004ea0]                   ;= 200030bc
ram:20004e84    3460            str         r4,[r6,#0x0]=>DAT_20002c1c              ;= F04F0793h
ram:20004e86    0020            movs        r0,#0x0                                 
ram:20004e88    f431            adds        r1,#0xf4                                
ram:20004e8a    7460            str         r4,[r6,#0x4]=>DAT_20002c20              ;= D0010400h
                            LAB_20004e8c:                 ;XREF[1,0]:   20004e94
                                                          ; FWD[2,0]:   200031b0,200031b4
ram:20004e8c    41f82040        str.w       r4,r1,r0,offset FUN_200031b0-0x200031ae 
ram:20004e90    401c            adds        r0,r0,#0x1                              
ram:20004e92    0328            cmp         r0,#0x3                                 
ram:20004e94    fad3            bcc         LAB_20004e8c                            
ram:20004e96    0020            movs        r0,#0x0                                 
ram:20004e98    70bd            pop         {r4,r5,r6,pc}                           
ram:20004e9a    0000            movs        r0,r0                                   
                            PTR_DAT_20004e9c:             ;XREF[1,0]:   20004e66
ram:20004e9c    1c2c0020        addr        DAT_20002c1c                            ;= F04F0793h
                            PTR_DAT_20004ea0:             ;XREF[2,0]:   20004e6a,20004e82
ram:20004ea0    bc300020        addr        DAT_200030bc                            ;= 30h
ram:20004ea4    07              ??          07h                                     
ram:20004ea5    4b              ??          4Bh    K                                
ram:20004ea6    1a              ??          1Ah                                     
ram:20004ea7    68              ??          68h    h                                
ram:20004ea8    03              ??          03h                                     
ram:20004ea9    2a              ??          2Ah    *                                
ram:20004eaa    08              ??          08h                                     
ram:20004eab    d0              ??          D0h                                     
ram:20004eac    0a              ??          0Ah                                     
ram:20004ead    60              ??          60h    `                                
ram:20004eae    06              ??          06h                                     
ram:20004eaf    49              ??          49h    I                                
ram:20004eb0    00              ??          00h                                     
ram:20004eb1    68              ??          68h    h                                
ram:20004eb2    41              ??          41h    A                                
ram:20004eb3    f8              ??          F8h                                     
ram:20004eb4    22              ??          22h    "                                
ram:20004eb5    00              ??          00h                                     
ram:20004eb6    52              ??          52h    R                                
ram:20004eb7    1c              ??          1Ch                                     
ram:20004eb8    00              ??          00h                                     
ram:20004eb9    20              ??          20h                                     
ram:20004eba    1a              ??          1Ah                                     
ram:20004ebb    60              ??          60h    `                                
ram:20004ebc    70              ??          70h    p                                
ram:20004ebd    47              ??          47h    G                                
ram:20004ebe    04              ??          04h                                     
ram:20004ebf    20              ??          20h                                     
ram:20004ec0    70              ??          70h    p                                
ram:20004ec1    47              ??          47h    G                                
ram:20004ec2    00              ??          00h                                     
ram:20004ec3    00              ??          00h                                     
ram:20004ec4    1c2c0020        addr        DAT_20002c1c                            ;= F04F0793h
ram:20004ec8    b0310020        addr        FUN_200031b0                            
                            ;************************************************************************************************
                            ;*                                           FUNCTION                                           *
                            ;************************************************************************************************
                            ;int FUN_20004ecc(undefined4 * param_1, uint param_2, undefined4 param_3, int param_4)
          ;param_1       undefined4 *        r0                      
          ;param_2       uint                r1                      
          ;param_3       undefined4          r2                      
          ;param_4       int                 r3                      
          ;local_18      undefined4         -18                      ;XREF[1,0]:   20004eee
                                                          ;XREF[2,0]:   200035ae,200038d8
ram:20004ecc    f8b5            push        {param_4,r4,r5,r6,r7,lr}                
ram:20004ece    0746            mov         r7,param_1                              
ram:20004ed0    1d46            mov         r5,param_4                              
ram:20004ed2    1646            mov         r6,param_3                              
ram:20004ed4    0c46            mov         r4,param_2                              
ram:20004ed6    0846            mov         param_1,param_2                         
ram:20004ed8    fff7bafb        bl          FUN_20004650                            ;undefined4 FUN_20004650(uint param_1)
ram:20004edc    58b1            cbz         param_1,LAB_20004ef6                    
ram:20004ede    6019            adds        param_1,r4,r5                           
ram:20004ee0    fff7b6fb        bl          FUN_20004650                            ;undefined4 FUN_20004650(uint param_1)
ram:20004ee4    38b1            cbz         param_1,LAB_20004ef6                    
ram:20004ee6    3346            mov         param_4,r6                              
ram:20004ee8    2246            mov         param_3,r4                              
ram:20004eea    3946            mov         param_2,r7                              
ram:20004eec    0120            movs        param_1,#0x1                            
ram:20004eee    0095            str         r5,[sp,#0x0]=>local_18                  
ram:20004ef0    fef7d0fb        bl          FUN_20003694                            ;int FUN_20003694(undefined param_1, ...
ram:20004ef4    f8bd            pop         {param_4,r4,r5,r6,r7,pc}                
                            LAB_20004ef6:                 ;XREF[2,0]:   20004edc,20004ee4
ram:20004ef6    1020            movs        param_1,#0x10                           
ram:20004ef8    f8bd            pop         {param_4,r4,r5,r6,r7,pc}                
ram:20004efa    0000            movs        r0,r0                                   
ram:20004efc    70b5            push        {r4,r5,r6,lr}                           
ram:20004efe    244c            ldr         r4,[PTR_DAT_20004f90]                   ;= 200030bc
ram:20004f00    0646            mov         r6,r0                                   
ram:20004f02    0022            movs        r2,#0x0                                 
ram:20004f04    a078            ldrb        r0,[r4,#0x2]=>DAT_200030be              ;= ADh
ram:20004f06    0128            cmp         r0,#0x1                                 
ram:20004f08    41d1            bne         LAB_20004f8e                            
ram:20004f0a    0023            movs        r3,#0x0                                 
ram:20004f0c    2146            mov         r1,r4                                   
ram:20004f0e    a370            strb        r3,[r4,#0x2]=>DAT_200030be              ;= ADh
ram:20004f10    0d78            ldrb        r5,[r1,#0x0]=>DAT_200030bc              ;= 30h
ram:20004f12    022e            cmp         r6,#0x2                                 
ram:20004f14    05eb4500        add.w       r0,r5,r5, lsl #0x1                      
ram:20004f18    01ebc001        add.w       r1,r1,r0, lsl #0x3                      
ram:20004f1c    03d0            beq         FUN_20004f26                            
ram:20004f1e    032e            cmp         r6,#0x3                                 
ram:20004f20    35d1            bne         LAB_20004f8e                            
ram:20004f22    0d20            movs        r0,#0xd                                 
ram:20004f24    2ee0            b           LAB_20004f84                            
                            ;************************************************************************************************
                            ;*                                           FUNCTION                                           *
                            ;************************************************************************************************
                            ;undefined FUN_20004f26(undefined4 param_1, int param_2, undefined4 param_3, undefined4 param_4)
          ;param_1       undefined4          r0                      
          ;param_2       int                 r1                      
          ;param_3       undefined4          r2                      
          ;param_4       undefined4          r3                      
                                                          ;XREF[1,0]:   20004f1c
ram:20004f26    1b48            ldr         param_1,[PTR_DAT_20004f94]              ;= 20002c1c
ram:20004f28    4668            ldr         r6,[param_1,#0x4]=>DAT_20002c20         ;= D0010400h
ram:20004f2a    761c            adds        r6,r6,#0x1                              
ram:20004f2c    4660            str         r6,[param_1,#0x4]=>DAT_20002c20         ;= D0010400h
ram:20004f2e    8968            ldr         param_2,[param_2,#0x8]=>DAT_20003544    ;= 4905D106h
ram:20004f30    b1eb063f        cmp.w       param_2,r6, lsl #0xc                    
ram:20004f34    15d8            bhi         LAB_20004f62                            
ram:20004f36    4360            str         param_4,[param_1,#0x4]=>DAT_20002c20    ;= D0010400h
ram:20004f38    6078            ldrb        param_1,[r4,#0x1]=>DAT_200030bd         ;= 50h
ram:20004f3a    401e            subs        param_1,param_1,#0x1                    
ram:20004f3c    6070            strb        param_1,[r4,#0x1]=>DAT_200030bd         ;= 50h
ram:20004f3e    681c            adds        param_1,r5,#0x1                         
ram:20004f40    c0b2            uxtb        param_1,param_1                         
ram:20004f42    2070            strb        param_1,[r4,#0x0]=>DAT_200030bc         ;= 30h
ram:20004f44    0a28            cmp         param_1,#0xa                            
ram:20004f46    01d3            bcc         LAB_20004f4c                            
ram:20004f48    0a38            subs        param_1,#0xa                            
ram:20004f4a    2070            strb        param_1,[r4,#0x0]=>DAT_200030bc         ;= 30h
                            LAB_20004f4c:                 ;XREF[1,0]:   20004f46
ram:20004f4c    05eb4500        add.w       param_1,r5,r5, lsl #0x1                 
ram:20004f50    04ebc001        add.w       param_2,r4,param_1, lsl #0x3            
ram:20004f54    1046            mov         param_1,param_3                         
ram:20004f56    091d            adds        param_2=>DAT_20003540,param_2,#0x4      ;= 91h
ram:20004f58    fdf7c8fd        bl          FUN_20002aec                            ;undefined FUN_20002aec(undefined4 pa...
ram:20004f5c    2846            mov         param_1,r5                              
ram:20004f5e    fef789fb        bl          FUN_20003674                            ;undefined FUN_20003674(int param_1)
                            LAB_20004f62:                 ;XREF[1,0]:   20004f34
ram:20004f62    6078            ldrb        param_1,[r4,#0x1]=>DAT_200030bd         ;= 50h
ram:20004f64    0028            cmp         param_1,#0x0                            
ram:20004f66    12d0            beq         LAB_20004f8e                            
ram:20004f68    a078            ldrb        param_1,[r4,#0x2]=>DAT_200030be         ;= ADh
ram:20004f6a    0028            cmp         param_1,#0x0                            
ram:20004f6c    0fd1            bne         LAB_20004f8e                            
ram:20004f6e    fef74dfb        bl          FUN_2000360c                            ;undefined8 FUN_2000360c(void)
ram:20004f72    0028            cmp         param_1,#0x0                            
ram:20004f74    0bd0            beq         LAB_20004f8e                            
ram:20004f76    1128            cmp         param_1,#0x11                           
ram:20004f78    09d0            beq         LAB_20004f8e                            
ram:20004f7a    2178            ldrb        param_2,[r4,#0x0]=>DAT_200030bc         ;= 30h
ram:20004f7c    01eb4101        add.w       param_2,param_2,param_2, lsl #0x1       
ram:20004f80    04ebc101        add.w       param_2,r4,param_2, lsl #0x3            
                            LAB_20004f84:                 ;XREF[1,0]:   20004f24
ram:20004f84    bde87040        pop.w       {r4,r5,r6,lr}                           
ram:20004f88    091d            adds        param_2,param_2,#0x4                    
ram:20004f8a    fdf7afbd        b.w         FUN_20002aec                            
                            LAB_20004f8e:                 ;XREF[6,0]:   20004f08,20004f20,20004f66,20004f6c
                                                          ;             20004f74,20004f78
ram:20004f8e    70bd            pop         {r4,r5,r6,pc}                           
                            PTR_DAT_20004f90:             ;XREF[1,0]:   20004efe
ram:20004f90    bc300020        addr        DAT_200030bc                            ;= 30h
                            PTR_DAT_20004f94:             ;XREF[1,0]:   20004f26
ram:20004f94    1c2c0020        addr        DAT_20002c1c                            ;= F04F0793h
                            LAB_20004f98:                 ;XREF[1,0]:   20003784
ram:20004f98    70b5            push        {r4,r5,r6,lr}                           
ram:20004f9a    0126            movs        r6,#0x1                                 
ram:20004f9c    7004            lsls        r0,r6,#0x11                             
ram:20004f9e    4ff0e021        mov.w       r1,#0xe000e000                          
ram:20004fa2    0025            movs        r5,#0x0                                 
ram:20004fa4    c1f88001        str.w       r0,[r1,#0x180]=>DAT_e000e180            
ram:20004fa8    084c            ldr         r4,[DAT_20004fcc]                       ;= 40011000h
ram:20004faa    4010            asrs        r0,r0,#0x1                              
ram:20004fac    c4f84803        str.w       r0,[r4,#0x348]=>DAT_40011348            
ram:20004fb0    c4f80803        str.w       r0,[r4,#0x308]=>DAT_40011308            
ram:20004fb4    6660            str         r6,[r4,#offset DAT_40011004 &0xff]      
ram:20004fb6    2f20            movs        r0,#0x2f                                
ram:20004fb8    fdf7caf8        bl          FUN_20002150                            ;undefined FUN_20002150(int param_1)
ram:20004fbc    a660            str         r6,[r4,#offset DAT_40011008 &0xff]      
ram:20004fbe    044c            ldr         r4,[DAT_20004fd0]                       ;= 20002C40h
ram:20004fc0    2f20            movs        r0,#0x2f                                
ram:20004fc2    2561            str         r5,[r4,#0x10]=>LAB_20002c50             ;= 47702008h
ram:20004fc4    fdf7c4f8        bl          FUN_20002150                            ;undefined FUN_20002150(int param_1)
ram:20004fc8    e570            strb        r5,[r4,#0x3]=>LAB_20002c42+1            
ram:20004fca    70bd            pop         {r4,r5,r6,pc}                           
                            DAT_20004fcc:                 ;XREF[1,0]:   20004fa8
ram:20004fcc    00100140        undefined4  40011000h                               
                            DAT_20004fd0:                 ;XREF[1,0]:   20004fbe
ram:20004fd0    402c0020        undefined4  20002C40h                               ;?  ->  20002c40
                            ;************************************************************************************************
                            ;*                                           FUNCTION                                           *
                            ;************************************************************************************************
                            ;undefined FUN_20004fd4(void)
ram:20004fd4    10b5            push        {r4,lr}                                 
ram:20004fd6    064a            ldr         r2=>FUN_20002f30,[->FUN_20002f30]       ;= 20002f30
ram:20004fd8    1421            movs        r1,#0x14                                
ram:20004fda    0820            movs        r0,#0x8                                 
ram:20004fdc    fdf71afe        bl          SUB_20002c14                            
ram:20004fe0    0028            cmp         r0,#0x0                                 
ram:20004fe2    03d0            beq         LAB_20004fec                            
ram:20004fe4    bde81040        pop.w       {r4,lr}                                 
ram:20004fe8    fdf774bd        b.w         FUN_20002ad4                            ;undefined FUN_20002ad4(void)
                            LAB_20004fec:                 ;XREF[1,0]:   20004fe2
ram:20004fec    10bd            pop         {r4,pc}                                 
ram:20004fee    0000            movs        r0,r0                                   
                            PTR_FUN_20004ff0:             ;XREF[1,0]:   20004fd6
ram:20004ff0    302f0020        addr        FUN_20002f30                            
ram:20004ff4    10              ??          10h                                     
ram:20004ff5    b5              ??          B5h                                     
ram:20004ff6    01              ??          01h                                     
ram:20004ff7    21              ??          21h    !                                
ram:20004ff8    20              ??          20h                                     
ram:20004ff9    28              ??          28h    (                                
ram:20004ffa    03              ??          03h                                     
ram:20004ffb    da              ??          DAh                                     
ram:20004ffc    1d              ??          1Dh                                     
ram:20004ffd    4a              ??          4Ah    J                                
ram:20004ffe    81              ??          81h                                     
ram:20004fff    40              ??          40h    @                                
ram:20005000    11              ??          11h                                     
ram:20005001    40              ??          40h    @                                
ram:20005002    04              ??          04h                                     
ram:20005003    e0              ??          E0h                                     
ram:20005004    40              ??          40h    @                                
ram:20005005    28              ??          28h    (                                
ram:20005006    03              ??          03h                                     
ram:20005007    da              ??          DAh                                     
ram:20005008    a0              ??          A0h                                     
ram:20005009    f1              ??          F1h                                     
ram:2000500a    20              ??          20h                                     
ram:2000500b    02              ??          02h                                     
ram:2000500c    91              ??          91h                                     
ram:2000500d    40              ??          40h    @                                
ram:2000500e    41              ??          41h    A                                
ram:2000500f    b1              ??          B1h                                     
ram:20005010    00              ??          00h                                     
ram:20005011    28              ??          28h    (                                
ram:20005012    09              ??          09h                                     
ram:20005013    da              ??          DAh                                     
ram:20005014    00              ??          00h                                     
ram:20005015    f0              ??          F0h                                     
ram:20005016    0f              ??          0Fh                                     
ram:20005017    01              ??          01h                                     
ram:20005018    01              ??          01h                                     
ram:20005019    f1              ??          F1h                                     
ram:2000501a    e0              ??          E0h                                     
ram:2000501b    21              ??          21h    !                                
ram:2000501c    91              ??          91h                                     
ram:2000501d    f8              ??          F8h                                     
ram:2000501e    14              ??          14h                                     
ram:2000501f    1d              ??          1Dh                                     
ram:20005020    06              ??          06h                                     
ram:20005021    e0              ??          E0h                                     
ram:20005022    42              ??          42h    B                                
ram:20005023    f2              ??          F2h                                     
ram:20005024    01              ??          01h                                     
ram:20005025    00              ??          00h                                     
ram:20005026    10              ??          10h                                     
ram:20005027    bd              ??          BDh                                     
ram:20005028    00              ??          00h                                     
ram:20005029    f1              ??          F1h                                     
ram:2000502a    e0              ??          E0h                                     
ram:2000502b    21              ??          21h    !                                
ram:2000502c    91              ??          91h                                     
ram:2000502d    f8              ??          F8h                                     
ram:2000502e    00              ??          00h                                     
ram:2000502f    14              ??          14h                                     
ram:20005030    49              ??          49h    I                                
ram:20005031    09              ??          09h                                     
ram:20005032    08              ??          08h                                     
ram:20005033    29              ??          29h    )                                
ram:20005034    14              ??          14h                                     
ram:20005035    d2              ??          D2h                                     
ram:20005036    99              ??          99h                                     
ram:20005037    b1              ??          B1h                                     
ram:20005038    01              ??          01h                                     
ram:20005039    29              ??          29h    )                                
ram:2000503a    11              ??          11h                                     
ram:2000503b    d0              ??          D0h                                     
ram:2000503c    04              ??          04h                                     
ram:2000503d    29              ??          29h    )                                
ram:2000503e    0f              ??          0Fh                                     
ram:2000503f    d0              ??          D0h                                     
ram:20005040    05              ??          05h                                     
ram:20005041    29              ??          29h    )                                
ram:20005042    0d              ??          0Dh                                     
ram:20005043    d0              ??          D0h                                     
ram:20005044    0c              ??          0Ch                                     
ram:20005045    4a              ??          4Ah    J                                
ram:20005046    94              ??          94h                                     
ram:20005047    68              ??          68h    h                                
ram:20005048    00              ??          00h                                     
ram:20005049    f0              ??          F0h                                     
ram:2000504a    1f              ??          1Fh                                     
ram:2000504b    03              ??          03h                                     
ram:2000504c    01              ??          01h                                     
ram:2000504d    21              ??          21h    !                                
ram:2000504e    99              ??          99h                                     
ram:2000504f    40              ??          40h    @                                
ram:20005050    40              ??          40h    @                                
ram:20005051    09              ??          09h                                     
ram:20005052    44              ??          44h    D                                
ram:20005053    b1              ??          B1h                                     
ram:20005054    52              ??          52h    R                                
ram:20005055    f8              ??          F8h                                     
ram:20005056    20              ??          20h                                     
ram:20005057    30              ??          30h    0                                
ram:20005058    0b              ??          0Bh                                     
ram:20005059    43              ??          43h    C                                
ram:2000505a    42              ??          42h    B                                
ram:2000505b    f8              ??          F8h                                     
ram:2000505c    20              ??          20h                                     
ram:2000505d    30              ??          30h    0                                
ram:2000505e    07              ??          07h                                     
ram:2000505f    e0              ??          E0h                                     
ram:20005060    42              ??          42h    B                                
ram:20005061    f2              ??          F2h                                     
ram:20005062    02              ??          02h                                     
ram:20005063    00              ??          00h                                     
ram:20005064    10              ??          10h                                     
ram:20005065    bd              ??          BDh                                     
ram:20005066    80              ??          80h                                     
ram:20005067    00              ??          00h                                     
ram:20005068    00              ??          00h                                     
ram:20005069    f1              ??          F1h                                     
ram:2000506a    e0              ??          E0h                                     
ram:2000506b    20              ??          20h                                     
ram:2000506c    c0              ??          C0h                                     
ram:2000506d    f8              ??          F8h                                     
ram:2000506e    00              ??          00h                                     
ram:2000506f    11              ??          11h                                     
ram:20005070    00              ??          00h                                     
ram:20005071    20              ??          20h                                     
ram:20005072    10              ??          10h                                     
ram:20005073    bd              ??          BDh                                     
ram:20005074    fc              ??          FCh                                     
ram:20005075    06              ??          06h                                     
ram:20005076    ff              ??          FFh                                     
ram:20005077    bc              ??          BCh                                     
ram:20005078    60              ??          60h    `                                ;?  ->  20003460
ram:20005079    34              ??          34h    4                                
ram:2000507a    00              ??          00h                                     
ram:2000507b    20              ??          20h                                     
                            ;************************************************************************************************
                            ;*                                           FUNCTION                                           *
                            ;************************************************************************************************
                            ;undefined FUN_2000507c(void)
                                                          ;XREF[1,0]:   20004336
ram:2000507c    0648            ldr         r0=>DAT_20002cb4,[PTR_DAT_20005098]     ;= 14h
                                                                                    ;= 20002cb4
ram:2000507e    0178            ldrb        r1,[r0,#0x0]=>DAT_20002cb4              ;= 14h
ram:20005080    21f07f01        bic         r1,r1,#0x7f                             
ram:20005084    3031            adds        r1,#0x30                                
ram:20005086    21f08001        bic         r1,r1,#0x80                             
ram:2000508a    0170            strb        r1,[r0,#0x0]=>DAT_20002cb4              ;= 14h
ram:2000508c    0721            movs        r1,#0x7                                 
ram:2000508e    4170            strb        r1,[r0,#0x1]=>DAT_20002cb5              ;= 90h
ram:20005090    1021            movs        r1,#0x10                                
ram:20005092    8170            strb        r1,[r0,#0x2]=>DAT_20002cb6              ;= 28h
ram:20005094    7047            bx          lr                                      
ram:20005096    0000            movs        r0,r0                                   
                            PTR_DAT_20005098:             ;XREF[1,0]:   2000507c
ram:20005098    b42c0020        addr        DAT_20002cb4                            ;= 14h
                            ;************************************************************************************************
                            ;*                                           FUNCTION                                           *
                            ;************************************************************************************************
                            ;ulonglong FUN_2000509c(undefined4 param_1, undefined * param_2)
          ;param_1       undefined4          r0                      
          ;param_2       undefined *         r1                      
                                                          ;XREF[1,0]:   20004bfe
ram:2000509c    70b5            push        {r4,r5,r6,lr}                           
ram:2000509e    164c            ldr         r4,[PTR_DAT_200050f8]                   ;= 20002c98
ram:200050a0    4ff6ff75        movw        r5,#0xffff                              
ram:200050a4    e088            ldrh        param_1,[r4,#0x6]=>DAT_20002c9e         ;= 460Fh
ram:200050a6    a842            cmp         param_1,r5                              
ram:200050a8    01d1            bne         LAB_200050ae                            
ram:200050aa    0820            movs        param_1,#0x8                            
                            LAB_200050ac:                 ;XREF[3,0]:   200050bc,200050ca,200050e6
ram:200050ac    70bd            pop         {r4,r5,r6,pc}                           
                            LAB_200050ae:                 ;XREF[1,0]:   200050a8
ram:200050ae    e178            ldrb        param_2,[r4,#0x3]=>DAT_20002c9b         ;= 46h
ram:200050b0    e1b1            cbz         param_2,LAB_200050ec                    
ram:200050b2    0123            movs        r3,#0x1                                 
ram:200050b4    0822            movs        r2,#0x8                                 
ram:200050b6    1149            ldr         param_2,[->FUN_2000331c]                ;= 2000331c
ram:200050b8    a9df            svc         0xa9                                    
ram:200050ba    0028            cmp         param_1,#0x0                            
ram:200050bc    f6d1            bne         LAB_200050ac                            
ram:200050be    0223            movs        r3,#0x2                                 
ram:200050c0    0022            movs        r2,#0x0                                 
ram:200050c2    1146            mov         param_2,r2                              
ram:200050c4    e088            ldrh        param_1,[r4,#0x6]=>DAT_20002c9e         ;= 460Fh
ram:200050c6    a9df            svc         0xa9                                    
ram:200050c8    0028            cmp         param_1,#0x0                            
ram:200050ca    efd1            bne         LAB_200050ac                            
ram:200050cc    2a46            mov         r2,r5                                   
ram:200050ce    0c21            movs        param_2,#0xc                            
ram:200050d0    e088            ldrh        param_1,[r4,#0x6]=>DAT_20002c9e         ;= 460Fh
ram:200050d2    a7df            svc         0xa7                                    
ram:200050d4    a0f54051        sub.w       param_2,param_1,#0x3000                 
ram:200050d8    0239            subs        param_2,#0x2                            
ram:200050da    05d0            beq         LAB_200050e8                            
ram:200050dc    0828            cmp         param_1,#0x8                            
ram:200050de    03d0            beq         LAB_200050e8                            
ram:200050e0    a0f54051        sub.w       param_2,param_1,#0x3000                 
ram:200050e4    0439            subs        param_2,#0x4                            
ram:200050e6    e1d1            bne         LAB_200050ac                            
                            LAB_200050e8:                 ;XREF[2,0]:   200050da,200050de
ram:200050e8    0020            movs        param_1,#0x0                            
ram:200050ea    70bd            pop         {r4,r5,r6,pc}                           
                            LAB_200050ec:                 ;XREF[1,0]:   200050b0
ram:200050ec    0023            movs        r3,#0x0                                 
ram:200050ee    1a46            mov         r2,r3                                   
ram:200050f0    1946            mov         param_2,r3                              
ram:200050f2    a9df            svc         0xa9                                    
ram:200050f4    70bd            pop         {r4,r5,r6,pc}                           
ram:200050f6    0000            movs        r0,r0                                   
                            PTR_DAT_200050f8:             ;XREF[1,0]:   2000509e
ram:200050f8    982c0020        addr        DAT_20002c98                            ;= 80h
                            PTR_FUN_200050fc:             ;XREF[1,0]:   200050b6
ram:200050fc    1c330020        addr        FUN_2000331c                            
                            ;************************************************************************************************
                            ;*                                           FUNCTION                                           *
                            ;************************************************************************************************
                            ;undefined4 FUN_20005100(int param_1, int param_2, ushort * param_3)
          ;param_1       int                 r0                      
          ;param_2       int                 r1                      
          ;param_3       ushort *            r2                      
                                                          ;XREF[1,0]:   200028cc
ram:20005100    2de9f041        push        {r4,r5,r6,r7,r8,lr}                     
ram:20005104    0746            mov         r7,param_1                              
ram:20005106    806a            ldr         param_1,[param_1,#0x28]                 
ram:20005108    1446            mov         r4,param_3                              
ram:2000510a    8846            mov         r8,param_2                              
ram:2000510c    c8b3            cbz         param_1,LAB_20005182                    
ram:2000510e    0025            movs        r5,#0x0                                 
ram:20005110    31e0            b           LAB_20005176                            
ram:20005112    00bf            nop                                                  
                            LAB_20005114:                 ;XREF[1,0]:   2000517c
ram:20005114    b96a            ldr         param_2,[r7,#0x28]                      
ram:20005116    05eb4500        add.w       param_1,r5,r5, lsl #0x1                 
ram:2000511a    01eb8006        add.w       r6,param_2,param_1, lsl #0x2            
ram:2000511e    b088            ldrh        param_1,[r6,#0x4]                       
ram:20005120    801c            adds        param_1,param_1,#0x2                    
ram:20005122    fe28            cmp         param_1,#0xfe                           
ram:20005124    02d9            bls         LAB_2000512c                            
ram:20005126    0c20            movs        param_1,#0xc                            
                            LAB_20005128:                 ;XREF[2,0]:   20005180,20005186
ram:20005128    bde8f081        pop.w       {r4,r5,r6,r7,r8,pc}                     
                            LAB_2000512c:                 ;XREF[1,0]:   20005124
ram:2000512c    2288            ldrh        param_3,[r4,#0x0]                       
ram:2000512e    401c            adds        param_1,param_1,#0x1                    
ram:20005130    08f80200        strb.w      param_1,r8,param_3,0x0                  
ram:20005134    2088            ldrh        param_1,[r4,#0x0]                       
ram:20005136    1622            movs        param_3,#0x16                           
ram:20005138    401c            adds        param_1,param_1,#0x1                    
ram:2000513a    80b2            uxth        param_1,param_1                         
ram:2000513c    2080            strh        param_1,[r4,#0x0]                       
ram:2000513e    08f80020        strb.w      param_3,r8,param_1,0x0                  
ram:20005142    2088            ldrh        param_1,[r4,#0x0]                       
ram:20005144    401c            adds        param_1,param_1,#0x1                    
ram:20005146    80b2            uxth        param_1,param_1                         
ram:20005148    2080            strh        param_1,[r4,#0x0]                       
ram:2000514a    00eb0801        add.w       param_2,param_1,r8                      
ram:2000514e    3088            ldrh        param_1,[r6,#0x0]                       
ram:20005150    00f062f9        bl          FUN_20005418                            ;undefined4 FUN_20005418(undefined4 p...
ram:20005154    2188            ldrh        param_2,[r4,#0x0]                       
ram:20005156    0844            add         param_1,param_2                         
ram:20005158    80b2            uxth        param_1,param_1                         
ram:2000515a    2080            strh        param_1,[r4,#0x0]                       
ram:2000515c    b288            ldrh        param_3,[r6,#0x4]                       
ram:2000515e    42b1            cbz         param_3,LAB_20005172                    
ram:20005160    b168            ldr         param_2,[r6,#0x8]                       
ram:20005162    71b1            cbz         param_2,LAB_20005182                    
ram:20005164    4044            add         param_1,r8                              
ram:20005166    fdf75bf8        bl          FUN_20002220                            ;undefined FUN_20002220(undefined4 * ...
ram:2000516a    2088            ldrh        param_1,[r4,#0x0]                       
ram:2000516c    b188            ldrh        param_2,[r6,#0x4]                       
ram:2000516e    0844            add         param_1,param_2                         
ram:20005170    2080            strh        param_1,[r4,#0x0]                       
                            LAB_20005172:                 ;XREF[1,0]:   2000515e
ram:20005172    6d1c            adds        r5,r5,#0x1                              
ram:20005174    edb2            uxtb        r5,r5                                   
                            LAB_20005176:                 ;XREF[1,0]:   20005110
ram:20005176    97f82c00        ldrb.w      param_1,[r7,#0x2c]                      
ram:2000517a    a842            cmp         param_1,r5                              
ram:2000517c    cad8            bhi         LAB_20005114                            
ram:2000517e    0020            movs        param_1,#0x0                            
ram:20005180    d2e7            b           LAB_20005128                            
                            LAB_20005182:                 ;XREF[2,0]:   2000510c,20005162
ram:20005182    ffe7            b           LAB_20005184                            
                            LAB_20005184:                 ;XREF[1,0]:   20005182
ram:20005184    0720            movs        param_1,#0x7                            
ram:20005186    cfe7            b           LAB_20005128                            
ram:20005188    fdf7a4bc        b.w         FUN_20002ad4                            ;undefined FUN_20002ad4(void)
                            ;************************************************************************************************
                            ;*                                           FUNCTION                                           *
                            ;************************************************************************************************
                            ;undefined4 FUN_2000518c(int param_1)
          ;param_1       int                 r0                      
                                                          ;XREF[1,0]:   2000429a
ram:2000518c    18b1            cbz         param_1,LAB_20005196                    
ram:2000518e    0349            ldr         r1,[PTR_DAT_2000519c]                   ;= 20002cc0
ram:20005190    c860            str         param_1,[r1,#0xc]=>DAT_20002ccc         ;= 70977056h
ram:20005192    0020            movs        param_1,#0x0                            
ram:20005194    7047            bx          lr                                      
                            LAB_20005196:                 ;XREF[1,0]:   2000518c
ram:20005196    0e20            movs        param_1,#0xe                            
ram:20005198    7047            bx          lr                                      
ram:2000519a    0000            movs        r0,r0                                   
                            PTR_DAT_2000519c:             ;XREF[1,0]:   2000518e
ram:2000519c    c02c0020        addr        DAT_20002cc0                            ;= 47h
ram:200051a0    1c              ??          1Ch                                     
ram:200051a1    b5              ??          B5h                                     
ram:200051a2    03              ??          03h                                     
ram:200051a3    49              ??          49h    I                                
ram:200051a4    01              ??          01h                                     
ram:200051a5    91              ??          91h                                     
ram:200051a6    00              ??          00h                                     
ram:200051a7    91              ??          91h                                     
ram:200051a8    69              ??          69h    i                                
ram:200051a9    46              ??          46h    F                                
ram:200051aa    60              ??          60h    `                                
ram:200051ab    df              ??          DFh                                     
ram:200051ac    1c              ??          1Ch                                     
ram:200051ad    bd              ??          BDh                                     
ram:200051ae    00              ??          00h                                     
ram:200051af    00              ??          00h                                     
ram:200051b0    00              ??          00h                                     ;?  ->  20002c00
ram:200051b1    2c              ??          2Ch    ,                                
ram:200051b2    00              ??          00h                                     
ram:200051b3    20              ??          20h                                     
ram:200051b4    70              ??          70h    p                                
ram:200051b5    b5              ??          B5h                                     
ram:200051b6    0e              ??          0Eh                                     
ram:200051b7    46              ??          46h    F                                
ram:200051b8    05              ??          05h                                     
ram:200051b9    46              ??          46h    F                                
ram:200051ba    14              ??          14h                                     
ram:200051bb    46              ??          46h    F                                
ram:200051bc    14              ??          14h                                     
ram:200051bd    21              ??          21h    !                                
ram:200051be    10              ??          10h                                     
ram:200051bf    46              ??          46h    F                                
ram:200051c0    fd              ??          FDh                                     
ram:200051c1    f7              ??          F7h                                     
ram:200051c2    47              ??          47h    G                                
ram:200051c3    f8              ??          F8h                                     
ram:200051c4    01              ??          01h                                     
ram:200051c5    20              ??          20h                                     
ram:200051c6    20              ??          20h                                     
ram:200051c7    80              ??          80h                                     
ram:200051c8    00              ??          00h                                     
ram:200051c9    21              ??          21h    !                                
ram:200051ca    21              ??          21h    !                                
ram:200051cb    61              ??          61h    a                                
ram:200051cc    21              ??          21h    !                                
ram:200051cd    73              ??          73h    s                                
ram:200051ce    26              ??          26h    &                                
ram:200051cf    72              ??          72h    r                                
ram:200051d0    65              ??          65h    e                                
ram:200051d1    72              ??          72h    r                                
ram:200051d2    05              ??          05h                                     
ram:200051d3    b1              ??          B1h                                     
ram:200051d4    a0              ??          A0h                                     
ram:200051d5    72              ??          72h    r                                
ram:200051d6    00              ??          00h                                     
ram:200051d7    20              ??          20h                                     
ram:200051d8    70              ??          70h    p                                
ram:200051d9    bd              ??          BDh                                     
ram:200051da    10              ??          10h                                     
ram:200051db    b5              ??          B5h                                     
ram:200051dc    11              ??          11h                                     
ram:200051dd    b1              ??          B1h                                     
ram:200051de    00              ??          00h                                     
ram:200051df    20              ??          20h                                     
ram:200051e0    fd              ??          FDh                                     
ram:200051e1    f7              ??          F7h                                     
ram:200051e2    78              ??          78h    x                                
ram:200051e3    fc              ??          FCh                                     
ram:200051e4    bd              ??          BDh                                     
ram:200051e5    e8              ??          E8h                                     
ram:200051e6    10              ??          10h                                     
ram:200051e7    40              ??          40h    @                                
ram:200051e8    ff              ??          FFh                                     
ram:200051e9    f7              ??          F7h                                     
ram:200051ea    e4              ??          E4h                                     
ram:200051eb    b9              ??          B9h                                     
ram:200051ec    00              ??          00h                                     
ram:200051ed    21              ??          21h    !                                
ram:200051ee    02              ??          02h                                     
ram:200051ef    4a              ??          4Ah    J                                
ram:200051f0    08              ??          08h                                     
ram:200051f1    46              ??          46h    F                                
ram:200051f2    fd              ??          FDh                                     
ram:200051f3    f7              ??          F7h                                     
ram:200051f4    af              ??          AFh                                     
ram:200051f5    bc              ??          BCh                                     
ram:200051f6    00              ??          00h                                     
ram:200051f7    00              ??          00h                                     
ram:200051f8    37              ??          37h    7                                
ram:200051f9    d3              ??          D3h                                     
ram:200051fa    07              ??          07h                                     
ram:200051fb    00              ??          00h                                     
ram:200051fc    fd              ??          FDh                                     
ram:200051fd    f7              ??          F7h                                     
ram:200051fe    58              ??          58h    X                                
ram:200051ff    bc              ??          BCh                                     
ram:20005200    30              ??          30h    0                                
ram:20005201    b4              ??          B4h                                     
ram:20005202    09              ??          09h                                     
ram:20005203    b1              ??          B1h                                     
ram:20005204    8c              ??          8Ch                                     
ram:20005205    07              ??          07h                                     
ram:20005206    02              ??          02h                                     
ram:20005207    d0              ??          D0h                                     
ram:20005208    07              ??          07h                                     
ram:20005209    20              ??          20h                                     
ram:2000520a    30              ??          30h    0                                
ram:2000520b    bc              ??          BCh                                     
ram:2000520c    70              ??          70h    p                                
ram:2000520d    47              ??          47h    G                                
ram:2000520e    07              ??          07h                                     
ram:2000520f    4c              ??          4Ch    L                                
ram:20005210    01              ??          01h                                     
ram:20005211    25              ??          25h    %                                
ram:20005212    a1              ??          A1h                                     
ram:20005213    60              ??          60h    `                                
ram:20005214    62              ??          62h    b                                
ram:20005215    80              ??          80h                                     
ram:20005216    06              ??          06h                                     
ram:20005217    49              ??          49h    I                                
ram:20005218    63              ??          63h    c                                
ram:20005219    60              ??          60h    `                                
ram:2000521a    10              ??          10h                                     
ram:2000521b    df              ??          DFh                                     
ram:2000521c    00              ??          00h                                     
ram:2000521d    28              ??          28h    (                                
ram:2000521e    f4              ??          F4h                                     
ram:2000521f    d1              ??          D1h                                     
ram:20005220    25              ??          25h    %                                
ram:20005221    70              ??          70h    p                                
ram:20005222    30              ??          30h    0                                
ram:20005223    bc              ??          BCh                                     
ram:20005224    16              ??          16h                                     
ram:20005225    20              ??          20h                                     
ram:20005226    ff              ??          FFh                                     
ram:20005227    f7              ??          F7h                                     
ram:20005228    e5              ??          E5h                                     
ram:20005229    be              ??          BEh                                     
ram:2000522a    00              ??          00h                                     
ram:2000522b    00              ??          00h                                     
ram:2000522c    c0              ??          C0h                                     ;?  ->  20002cc0
ram:2000522d    2c              ??          2Ch    ,                                
ram:2000522e    00              ??          00h                                     
ram:2000522f    20              ??          20h                                     
ram:20005230    59              ??          59h    Y                                
ram:20005231    d3              ??          D3h                                     
ram:20005232    07              ??          07h                                     
ram:20005233    00              ??          00h                                     
ram:20005234    18              ??          18h                                     
ram:20005235    b1              ??          B1h                                     
ram:20005236    03              ??          03h                                     
ram:20005237    49              ??          49h    I                                
ram:20005238    08              ??          08h                                     
ram:20005239    61              ??          61h    a                                
ram:2000523a    00              ??          00h                                     
ram:2000523b    20              ??          20h                                     
ram:2000523c    70              ??          70h    p                                
ram:2000523d    47              ??          47h    G                                
ram:2000523e    0e              ??          0Eh                                     
ram:2000523f    20              ??          20h                                     
ram:20005240    70              ??          70h    p                                
ram:20005241    47              ??          47h    G                                
ram:20005242    00              ??          00h                                     
ram:20005243    00              ??          00h                                     
ram:20005244    c0              ??          C0h                                     ;?  ->  20002cc0
ram:20005245    2c              ??          2Ch    ,                                
ram:20005246    00              ??          00h                                     
ram:20005247    20              ??          20h                                     
                            LAB_20005248:                 ;XREF[1,0]:   20004db0
ram:20005248    10b5            push        {r4,lr}                                 
ram:2000524a    88b0            sub         sp,#0x20                                
ram:2000524c    0446            mov         r4,param_1                              
ram:2000524e    0020            movs        param_1,#0x0                            
ram:20005250    0090            str         param_1,[sp,#0x0]=>local_28             
ram:20005252    0190            str         param_1,[sp,#local_24+0x28]             
ram:20005254    0290            str         param_1,[sp,#local_20+0x28]             
ram:20005256    0390            str         param_1,[sp,#local_1c+0x28]             
ram:20005258    1948            ldr         param_1,[PTR_DAT_200052c0]              ;= 20002c98
ram:2000525a    1a4a            ldr         r2,[DAT_200052c4]                       ;= 0007D7FCh
ram:2000525c    4079            ldrb        param_1,[param_1,#0x5]=>DAT_20002c9d    ;= 46h
ram:2000525e    8df80000        strb.w      param_1,[sp,#0x0]=>local_28             
ram:20005262    1068            ldr         param_1,[r2,#0x0]=>DAT_0007d7fc         
ram:20005264    9268            ldr         r2,[r2,#0x8]=>DAT_0007d804              
ram:20005266    0490            str         param_1,[sp,#local_18+0x28]             
ram:20005268    6846            mov         param_1,sp                              
ram:2000526a    cde90502        strd        param_1,r2,[sp,#local_14+0x28]          
ram:2000526e    087a            ldrb        param_1,[param_2,#0x8]                  
ram:20005270    0c28            cmp         param_1,#0xc                            
ram:20005272    05d0            beq         LAB_20005280                            
ram:20005274    0322            movs        r2,#0x3                                 
ram:20005276    1ce0            b           LAB_200052b2                            
                            LAB_20005278:                 ;XREF[1,0]:   200052bc
ram:20005278    fdf72cfc        bl          FUN_20002ad4                            ;undefined FUN_20002ad4(void)
                            LAB_2000527c:                 ;XREF[2,0]:   200052a8,200052be
ram:2000527c    08b0            add         sp,#0x20                                
ram:2000527e    10bd            pop         {r4,pc}                                 
                            LAB_20005280:                 ;XREF[1,0]:   20005272
ram:20005280    4868            ldr         param_1,[param_2,#0x4]                  
ram:20005282    c278            ldrb        r2,[param_1,#0x3]                       
ram:20005284    0168            ldr         param_2,[param_1,#0x0]                  
ram:20005286    62f31f61        bfi         param_2,r2,#0x18,#0x8                   
ram:2000528a    0191            str         param_2,[sp,#local_24+0x28]             
ram:2000528c    c279            ldrb        r2,[param_1,#0x7]                       
ram:2000528e    4168            ldr         param_2,[param_1,#0x4]                  
ram:20005290    62f31f61        bfi         param_2,r2,#0x18,#0x8                   
ram:20005294    0291            str         param_2,[sp,#local_20+0x28]             
ram:20005296    c17a            ldrb        param_2,[param_1,#0xb]                  
ram:20005298    8068            ldr         param_1,[param_1,#0x8]                  
ram:2000529a    61f31f60        bfi         param_1,param_2,#0x18,#0x8              
ram:2000529e    0390            str         param_1,[sp,#local_1c+0x28]             
ram:200052a0    04a8            add         param_1,sp,#0x10                        
ram:200052a2    fef741ff        bl          FUN_20004128                            ;int FUN_20004128(int param_1)
ram:200052a6    0028            cmp         param_1,#0x0                            
ram:200052a8    e8d0            beq         LAB_2000527c                            
ram:200052aa    0121            movs        param_2,#0x1                            
ram:200052ac    fff7d2fb        bl          FUN_20004a54                            ;undefined4 FUN_20004a54(int param_1,...
ram:200052b0    0246            mov         r2,param_1                              
                            LAB_200052b2:                 ;XREF[1,0]:   20005276
ram:200052b2    0121            movs        param_2,#0x1                            
ram:200052b4    2046            mov         param_1,r4                              
ram:200052b6    fdf7b3ff        bl          FUN_20003220                            ;undefined8 FUN_20003220(ushort * par...
ram:200052ba    0028            cmp         param_1,#0x0                            
ram:200052bc    dcd1            bne         LAB_20005278                            
ram:200052be    dde7            b           LAB_2000527c                            
                            PTR_DAT_200052c0:             ;XREF[1,0]:   20005258
ram:200052c0    982c0020        addr        DAT_20002c98                            ;= 80h
                            DAT_200052c4:                 ;XREF[1,0]:   2000525a
ram:200052c4    fcd70700        undefined4  0007D7FCh                               
ram:200052c8    ff              ??          FFh                                     
ram:200052c9    f7              ??          F7h                                     
ram:200052ca    18              ??          18h                                     
ram:200052cb    be              ??          BEh                                     
ram:200052cc    2d              ??          2Dh    -                                
ram:200052cd    e9              ??          E9h                                     
ram:200052ce    f8              ??          F8h                                     
ram:200052cf    4f              ??          4Fh    O                                
ram:200052d0    20              ??          20h                                     
ram:200052d1    4c              ??          4Ch    L                                
ram:200052d2    00              ??          00h                                     
ram:200052d3    25              ??          25h    %                                
ram:200052d4    68              ??          68h    h                                
ram:200052d5    46              ??          46h    F                                
ram:200052d6    d4              ??          D4h                                     
ram:200052d7    e9              ??          E9h                                     
ram:200052d8    03              ??          03h                                     
ram:200052d9    b6              ??          B6h                                     
ram:200052da    ff              ??          FFh                                     
ram:200052db    f7              ??          F7h                                     
ram:200052dc    45              ??          45h    E                                
ram:200052dd    f8              ??          F8h                                     
ram:200052de    80              ??          80h                                     
ram:200052df    46              ??          46h    F                                
ram:200052e0    ff              ??          FFh                                     
ram:200052e1    f7              ??          F7h                                     
ram:200052e2    e6              ??          E6h                                     
ram:200052e3    f9              ??          F9h                                     
ram:200052e4    07              ??          07h                                     
ram:200052e5    46              ??          46h    F                                
ram:200052e6    a9              ??          A9h                                     
ram:200052e7    46              ??          46h    F                                
ram:200052e8    b8              ??          B8h                                     
ram:200052e9    f1              ??          F1h                                     
ram:200052ea    00              ??          00h                                     
ram:200052eb    0f              ??          0Fh                                     
ram:200052ec    25              ??          25h    %                                
ram:200052ed    d0              ??          D0h                                     
ram:200052ee    00              ??          00h                                     
ram:200052ef    23              ??          23h    #                                
ram:200052f0    00              ??          00h                                     
ram:200052f1    9a              ??          9Ah                                     
ram:200052f2    cc              ??          CCh                                     
ram:200052f3    46              ??          46h    F                                
ram:200052f4    e0              ??          E0h                                     
ram:200052f5    68              ??          68h    h                                
ram:200052f6    19              ??          19h                                     
ram:200052f7    e0              ??          E0h                                     
ram:200052f8    07              ??          07h                                     
ram:200052f9    68              ??          68h    h                                
ram:200052fa    01              ??          01h                                     
ram:200052fb    46              ??          46h    F                                
ram:200052fc    97              ??          97h                                     
ram:200052fd    42              ??          42h    B                                
ram:200052fe    02              ??          02h                                     
ram:200052ff    d9              ??          D9h                                     
ram:20005300    ba              ??          BAh                                     
ram:20005301    1a              ??          1Ah                                     
ram:20005302    02              ??          02h                                     
ram:20005303    60              ??          60h    `                                
ram:20005304    14              ??          14h                                     
ram:20005305    e0              ??          E0h                                     
ram:20005306    c1              ??          C1h                                     
ram:20005307    f8              ??          F8h                                     
ram:20005308    00              ??          00h                                     
ram:20005309    c0              ??          C0h                                     
ram:2000530a    d1              ??          D1h                                     
ram:2000530b    f8              ??          F8h                                     
ram:2000530c    0c              ??          0Ch                                     
ram:2000530d    80              ??          80h                                     
ram:2000530e    d2              ??          D2h                                     
ram:2000530f    1b              ??          1Bh                                     
ram:20005310    c8              ??          C8h                                     
ram:20005311    69              ??          69h    i                                
ram:20005312    3b              ??          3Bh    ;                                
ram:20005313    44              ??          44h    D                                
ram:20005314    8a              ??          8Ah                                     
ram:20005315    46              ??          46h    F                                
ram:20005316    b8              ??          B8h                                     
ram:20005317    f1              ??          F1h                                     
ram:20005318    00              ??          00h                                     
ram:20005319    0f              ??          0Fh                                     
ram:2000531a    07              ??          07h                                     
ram:2000531b    d0              ??          D0h                                     
ram:2000531c    f7              ??          F7h                                     
ram:2000531d    18              ??          18h                                     
ram:2000531e    27              ??          27h    '                                
ram:2000531f    f0              ??          F0h                                     
ram:20005320    7f              ??          7Fh                                    
ram:20005321    47              ??          47h    G                                
ram:20005322    c1              ??          C1h                                     
ram:20005323    e9              ??          E9h                                     
ram:20005324    01              ??          01h                                     
ram:20005325    78              ??          78h    x                                
ram:20005326    ca              ??          CAh                                     
ram:20005327    f8              ??          F8h                                     
ram:20005328    1c              ??          1Ch                                     
ram:20005329    50              ??          50h    P                                
ram:2000532a    0d              ??          0Dh                                     
ram:2000532b    46              ??          46h    F                                
ram:2000532c    00              ??          00h                                     
ram:2000532d    28              ??          28h    (                                
ram:2000532e    e3              ??          E3h                                     
ram:2000532f    d1              ??          D1h                                     
ram:20005330    e0              ??          E0h                                     
ram:20005331    60              ??          60h    `                                
ram:20005332    28              ??          28h    (                                
ram:20005333    46              ??          46h    F                                
ram:20005334    ff              ??          FFh                                     
ram:20005335    f7              ??          F7h                                     
ram:20005336    1a              ??          1Ah                                     
ram:20005337    fa              ??          FAh                                     
ram:20005338    04              ??          04h                                     
ram:20005339    e0              ??          E0h                                     
ram:2000533a    28              ??          28h    (                                
ram:2000533b    46              ??          46h    F                                
ram:2000533c    ff              ??          FFh                                     
ram:2000533d    f7              ??          F7h                                     
ram:2000533e    16              ??          16h                                     
ram:2000533f    fa              ??          FAh                                     
ram:20005340    00              ??          00h                                     
ram:20005341    b9              ??          B9h                                     
ram:20005342    17              ??          17h                                     
ram:20005343    b1              ??          B1h                                     
ram:20005344    58              ??          58h    X                                
ram:20005345    46              ??          46h    F                                
ram:20005346    fe              ??          FEh                                     
ram:20005347    f7              ??          F7h                                     
ram:20005348    d1              ??          D1h                                     
ram:20005349    f9              ??          F9h                                     
ram:2000534a    84              ??          84h                                     
ram:2000534b    f8              ??          F8h                                     
ram:2000534c    04              ??          04h                                     
ram:2000534d    90              ??          90h                                     
ram:2000534e    bd              ??          BDh                                     
ram:2000534f    e8              ??          E8h                                     
ram:20005350    f8              ??          F8h                                     
ram:20005351    8f              ??          8Fh                                     
ram:20005352    00              ??          00h                                     
ram:20005353    00              ??          00h                                     
ram:20005354    40              ??          40h    @                                ;?  ->  20002c40
ram:20005355    2c              ??          2Ch    ,                                
ram:20005356    00              ??          00h                                     
ram:20005357    20              ??          20h                                     
                            ;************************************************************************************************
                            ;*                                           FUNCTION                                           *
                            ;************************************************************************************************
                            ;undefined FUN_20005358(uint * param_1)
          ;param_1       uint *              r0                      
                                                          ;XREF[1,0]:   20004808
ram:20005358    0d4b            ldr         r3,[DAT_20005390]                       ;= 20002C40h
ram:2000535a    10b5            push        {r4,lr}                                 
ram:2000535c    d968            ldr         r1,[r3,#0xc]=>DAT_20002c4c              ;= B11B7C03h
ram:2000535e    31b1            cbz         r1,LAB_2000536e                         
ram:20005360    0268            ldr         r2,[param_1,#0x0]                       
ram:20005362    0c68            ldr         r4,[r1,#0x0]=>DAT_b11b7c03              
ram:20005364    a242            cmp         r2,r4                                   
ram:20005366    04d8            bhi         LAB_20005372                            
ram:20005368    a21a            subs        r2,r4,r2                                
ram:2000536a    0a60            str         r2,[r1,#0x0]=>DAT_b11b7c03              
ram:2000536c    c161            str         r1=>DAT_b11b7c03,[param_1,#0x1c]        
                            LAB_2000536e:                 ;XREF[1,0]:   2000535e
ram:2000536e    d860            str         param_1,[r3,#0xc]=>DAT_20002c4c         ;= B11B7C03h
ram:20005370    10bd            pop         {r4,pc}                                 
                            LAB_20005372:                 ;XREF[1,0]:   20005366
ram:20005372    0b46            mov         r3,r1                                   
ram:20005374    03e0            b           LAB_2000537e                            
                            LAB_20005376:                 ;XREF[1,0]:   20005382
ram:20005376    0b46            mov         r3,r1                                   
ram:20005378    c969            ldr         r1,[r1,#0x1c]=>DAT_b11b7c1f             
ram:2000537a    121b            subs        r2,r2,r4                                
ram:2000537c    21b1            cbz         r1,LAB_20005388                         
                            LAB_2000537e:                 ;XREF[1,0]:   20005374
ram:2000537e    0c68            ldr         r4,[r1,#0x0]=>DAT_b11b7c03              
ram:20005380    9442            cmp         r4,r2                                   
ram:20005382    f8d3            bcc         LAB_20005376                            
ram:20005384    a41a            subs        r4,r4,r2                                
ram:20005386    0c60            str         r4,[r1,#0x0]=>DAT_b11b7c03              
                            LAB_20005388:                 ;XREF[1,0]:   2000537c
ram:20005388    0260            str         r2,[param_1,#0x0]                       
ram:2000538a    c161            str         r1=>DAT_b11b7c03,[param_1,#0x1c]        
ram:2000538c    d861            str         param_1,[r3,#0x1c]=>DAT_b11b7c1f        
ram:2000538e    10bd            pop         {r4,pc}                                 
                            DAT_20005390:                 ;XREF[1,0]:   20005358
ram:20005390    402c0020        undefined4  20002C40h                               ;?  ->  20002c40
                            ;************************************************************************************************
                            ;*                                           FUNCTION                                           *
                            ;************************************************************************************************
                            ;undefined FUN_20005394(void)
                                                          ;XREF[1,0]:   20002384
ram:20005394    2de9f041        push        {r4,r5,r6,r7,r8,lr}                     
ram:20005398    1d4d            ldr         r5,[DAT_20005410]                       ;= 20002C40h
ram:2000539a    ec68            ldr         r4,[r5,#0xc]=>DAT_20002c4c              ;= B11B7C03h
ram:2000539c    002c            cmp         r4,#0x0                                 
ram:2000539e    35d0            beq         LAB_2000540c                            
ram:200053a0    1c48            ldr         r0,[DAT_20005414]                       ;= 40011504h
ram:200053a2    0027            movs        r7,#0x0                                 
ram:200053a4    0068            ldr         r0,[r0,#0x0]=>DAT_40011504              
ram:200053a6    2969            ldr         r1,[r5,#0x10]=>LAB_20002c50             ;= 47702008h
ram:200053a8    b846            mov         r8,r7                                   
ram:200053aa    401a            subs        r0,r0,r1                                
ram:200053ac    20f07f46        bic         r6,r0,#0xff000000                       
                            LAB_200053b0:                 ;XREF[1,0]:   200053e0
ram:200053b0    2068            ldr         r0,[r4,#0x0]=>DAT_b11b7c03              
ram:200053b2    b042            cmp         r0,r6                                   
ram:200053b4    15d8            bhi         LAB_200053e2                            
ram:200053b6    2246            mov         r2=>DAT_b11b7c03,r4                     
ram:200053b8    361a            subs        r6,r6,r0                                
ram:200053ba    0744            add         r7,r0                                   
ram:200053bc    e469            ldr         r4,[r4,#0x1c]=>DAT_b11b7c1f             
ram:200053be    107c            ldrb        r0,[r2,#0x10]=>DAT_b11b7c13             
ram:200053c0    68b1            cbz         r0,LAB_200053de                         
ram:200053c2    82f81080        strb.w      r8,[r2,#0x10]=>DAT_b11b7c13             
ram:200053c6    6b69            ldr         r3,[r5,#0x14]=>FUN_20002c54             
ram:200053c8    33b1            cbz         r3,LAB_200053d8                         
                                                          ; FWD[2,0]:   b11b7c17,b11b7c1b
ram:200053ca    d2e90501        ldrd        r0,r1,[r2,#0x14]=>DAT_b11b7c17          
ram:200053ce    9847            blx         r3=>SUB_47702006                        
ram:200053d0    28b1            cbz         r0,LAB_200053de                         
ram:200053d2    fdf77ffb        bl          FUN_20002ad4                            ;undefined FUN_20002ad4(void)
ram:200053d6    02e0            b           LAB_200053de                            
                            LAB_200053d8:                 ;XREF[1,0]:   200053c8
                                                          ; FWD[2,0]:   b11b7c17,b11b7c1b
ram:200053d8    d2e90510        ldrd        r1,r0,[r2,#0x14]=>DAT_b11b7c17          
ram:200053dc    8847            blx         r1                                      
                            LAB_200053de:                 ;XREF[3,0]:   200053c0,200053d0,200053d6
ram:200053de    002c            cmp         r4,#0x0                                 
ram:200053e0    e6d1            bne         LAB_200053b0                            
                            LAB_200053e2:                 ;XREF[1,0]:   200053b4
ram:200053e2    6978            ldrb        r1,[r5,#0x1]=>LAB_20002c40+1            
ram:200053e4    a878            ldrb        r0,[r5,#0x2]=>LAB_20002c42              
ram:200053e6    8142            cmp         r1,r0                                   
ram:200053e8    06d1            bne         LAB_200053f8                            
ram:200053ea    401c            adds        r0,r0,#0x1                              
ram:200053ec    c0b2            uxtb        r0,r0                                   
ram:200053ee    a870            strb        r0,[r5,#0x2]=>LAB_20002c42              
ram:200053f0    0228            cmp         r0,#0x2                                 
ram:200053f2    01d1            bne         LAB_200053f8                            
ram:200053f4    85f80280        strb.w      r8,[r5,#0x2]=>LAB_20002c42              
                            LAB_200053f8:                 ;XREF[2,0]:   200053e8,200053f2
ram:200053f8    0548            ldr         r0,[DAT_20005410]                       ;= 20002C40h
ram:200053fa    a978            ldrb        r1,[r5,#0x2]=>LAB_20002c42              
ram:200053fc    1830            adds        r0,#0x18                                
                                                          ; FWD[3,0]:   20002c58,20002ec4,20002ec8
ram:200053fe    40f82170        str.w       r7,r0,r1,offset DAT_20002c58-0x20002c56 ;= 61427441h
ram:20005402    bde8f041        pop.w       {r4,r5,r6,r7,r8,lr}                     
ram:20005406    1420            movs        r0,#0x14                                
ram:20005408    fcf792bf        b.w         FUN_20002330                            ;undefined FUN_20002330(uint param_1)
                            LAB_2000540c:                 ;XREF[1,0]:   2000539e
ram:2000540c    bde8f081        pop.w       {r4,r5,r6,r7,r8,pc}                     
                            DAT_20005410:                 ;XREF[2,0]:   20005398,200053f8
ram:20005410    402c0020        undefined4  20002C40h                               ;?  ->  20002c40
                            DAT_20005414:                 ;XREF[1,0]:   200053a0
ram:20005414    04150140        undefined4  40011504h                               
                            ;************************************************************************************************
                            ;*                                           FUNCTION                                           *
                            ;************************************************************************************************
                            ;undefined4 FUN_20005418(undefined4 param_1, undefined * param_2)
          ;param_1       undefined4          r0                      
          ;param_2       undefined *         r1                      
                                                          ;XREF[5,0]:   200027d8,20003802,20003812,2000495a
                                                          ;             20005150
ram:20005418    0870            strb        param_1,[param_2,#0x0]                  
ram:2000541a    000a            lsrs        param_1,param_1,#0x8                    
ram:2000541c    4870            strb        param_1,[param_2,#0x1]                  
ram:2000541e    0220            movs        param_1,#0x2                            
ram:20005420    7047            bx          lr                                      
                            ;************************************************************************************************
                            ;*                                           FUNCTION                                           *
                            ;************************************************************************************************
                            ;undefined4 FUN_20005422(undefined4 param_1, undefined * param_2)
          ;param_1       undefined4          r0                      
          ;param_2       undefined *         r1                      
                                                          ;XREF[2,0]:   20003056,200031de
ram:20005422    0870            strb        param_1,[param_2,#0x0]                  
ram:20005424    020a            lsrs        r2,param_1,#0x8                         
ram:20005426    4a70            strb        r2,[param_2,#0x1]                       
ram:20005428    020c            lsrs        r2,param_1,#0x10                        
ram:2000542a    8a70            strb        r2,[param_2,#0x2]                       
ram:2000542c    000e            lsrs        param_1,param_1,#0x18                   
ram:2000542e    c870            strb        param_1,[param_2,#0x3]                  
ram:20005430    0420            movs        param_1,#0x4                            
ram:20005432    7047            bx          lr                                      
                            ;************************************************************************************************
                            ;*                                           FUNCTION                                           *
                            ;************************************************************************************************
                            ;undefined FUN_20005434(void)
          ;local_10      undefined1         -10                      ;XREF[1,0]:   20005482
ram:20005434    38b5            push        {r3,r4,r5,lr}                           
ram:20005436    1549            ldr         r1,[DAT_2000548c]                       ;= 20002C00h
ram:20005438    4888            ldrh        r0,[r1,#offset LAB_20002c02 &0xff]      
ram:2000543a    a0f57f42        sub.w       r2,r0,#0xff00                           
ram:2000543e    ff3a            subs        r2,#0xff                                
ram:20005440    23d0            beq         LAB_2000548a                            
ram:20005442    4a78            ldrb        r2,[r1,#offset LAB_20002c00+1 &0xff]    
ram:20005444    124c            ldr         r4,[DAT_20005490]                       ;= 200030A0h
ram:20005446    521c            adds        r2,r2,#0x1                              
ram:20005448    d2b2            uxtb        r2,r2                                   
ram:2000544a    4a70            strb        r2,[r1,#offset LAB_20002c00+1 &0xff]    
ram:2000544c    237b            ldrb        r3,[r4,#0xc]=>LAB_200030aa+2            
ram:2000544e    9342            cmp         r3,r2                                   
ram:20005450    0ad3            bcc         LAB_20005468                            
ram:20005452    091d            adds        r1,r1,#0x4                              
ram:20005454    75df            svc         0x75                                    
ram:20005456    0028            cmp         r0,#0x0                                 
ram:20005458    17d0            beq         LAB_2000548a                            
ram:2000545a    a169            ldr         r1,[r4,#0x18]=>LAB_200030b6+2           
ram:2000545c    0029            cmp         r1,#0x0                                 
ram:2000545e    14d0            beq         LAB_2000548a                            
ram:20005460    01b0            add         sp,#0x4                                 
ram:20005462    bde83040        pop.w       {r4,r5,lr}                              
ram:20005466    0847            bx          r1=>SUB_f241000e                        
                            LAB_20005468:                 ;XREF[1,0]:   20005450
ram:20005468    0025            movs        r5,#0x0                                 
ram:2000546a    4d70            strb        r5,[r1,#offset LAB_20002c00+1 &0xff]    
ram:2000546c    217c            ldrb        r1,[r4,#0x10]=>LAB_200030b0             
ram:2000546e    29b1            cbz         r1,LAB_2000547c                         
ram:20005470    3b21            movs        r1,#0x3b                                
ram:20005472    76df            svc         0x76                                    
ram:20005474    10b1            cbz         r0,LAB_2000547c                         
ram:20005476    a169            ldr         r1,[r4,#0x18]=>LAB_200030b6+2           
ram:20005478    01b1            cbz         r1,LAB_2000547c                         
ram:2000547a    8847            blx         r1=>SUB_f241000e                        
                            LAB_2000547c:                 ;XREF[3,0]:   2000546e,20005474,20005478
ram:2000547c    6169            ldr         r1,[r4,#0x14]=>LAB_200030b2+2           
ram:2000547e    0029            cmp         r1,#0x0                                 
ram:20005480    03d0            beq         LAB_2000548a                            
ram:20005482    8df80050        strb.w      r5,[sp,#0x0]=>local_10                  
ram:20005486    6846            mov         r0,sp                                   
ram:20005488    8847            blx         r1=>SUB_e88c0c04                        
                            LAB_2000548a:                 ;XREF[4,0]:   20005440,20005458,2000545e,20005480
ram:2000548a    38bd            pop         {r3,r4,r5,pc}                           
                            DAT_2000548c:                 ;XREF[1,0]:   20005436
ram:2000548c    002c0020        undefined4  20002C00h                               ;?  ->  20002c00
                            DAT_20005490:                 ;XREF[1,0]:   20005444
ram:20005490    a0300020        undefined4  200030A0h                               ;?  ->  200030a0
                            ;************************************************************************************************
                            ;*                                           FUNCTION                                           *
                            ;************************************************************************************************
                            ;undefined4 FUN_20005494(void)
                                                          ;XREF[2,0]:   20002d50,20002db8
ram:20005494    eff30580        mrs         r0,ipsr                                 
ram:20005498    c005            lsls        r0,r0,#0x17                             
ram:2000549a    c00d            lsrs        r0,r0,#0x17                             
ram:2000549c    13d0            beq         LAB_200054c6                            
ram:2000549e    1038            subs        r0,#0x10                                
ram:200054a0    40b2            sxtb        r0,r0                                   
ram:200054a2    0028            cmp         r0,#0x0                                 
ram:200054a4    06da            bge         LAB_200054b4                            
ram:200054a6    00f00f00        and         r0,r0,#0xf                              
ram:200054aa    00f1e020        add.w       r0,r0,#0xe000e000                       
                                                          ;XREF[0,2]:   20001ea4,200020b4
ram:200054ae    90f8140d        ldrb.w      r0,[r0,#0xd14]                          
ram:200054b2    03e0            b           LAB_200054bc                            
                            LAB_200054b4:                 ;XREF[1,0]:   200054a4
ram:200054b4    00f1e020        add.w       r0,r0,#0xe000e000                       
ram:200054b8    90f80004        ldrb.w      r0,[r0,#0x400]                          
                            LAB_200054bc:                 ;XREF[1,0]:   200054b2
ram:200054bc    4009            lsrs        r0,r0,#0x5                              
ram:200054be    0228            cmp         r0,#0x2                                 
ram:200054c0    03d0            beq         LAB_200054ca                            
ram:200054c2    0628            cmp         r0,#0x6                                 
ram:200054c4    03d0            beq         LAB_200054ce                            
                            LAB_200054c6:                 ;XREF[1,0]:   2000549c
ram:200054c6    0220            movs        r0,#0x2                                 
ram:200054c8    7047            bx          lr                                      
                            LAB_200054ca:                 ;XREF[1,0]:   200054c0
ram:200054ca    0020            movs        r0,#0x0                                 
ram:200054cc    7047            bx          lr                                      
                            LAB_200054ce:                 ;XREF[1,0]:   200054c4
ram:200054ce    0120            movs        r0,#0x1                                 
ram:200054d0    7047            bx          lr                                      
                            ;************************************************************************************************
                            ;*                                           FUNCTION                                           *
                            ;************************************************************************************************
                            ;int FUN_200054d2(char * param_1, char * param_2)
          ;param_1       char *              r0                      
          ;param_2       char *              r1                      
                                                          ;XREF[2,0]:   20002d60,20002dc6
ram:200054d2    4278            ldrb        r2,[param_1,#0x1]                       
ram:200054d4    8378            ldrb        r3,[param_1,#0x2]                       
ram:200054d6    521c            adds        r2,r2,#0x1                              
ram:200054d8    d2b2            uxtb        r2,r2                                   
ram:200054da    9342            cmp         r3,r2                                   
ram:200054dc    00d1            bne         LAB_200054e0                            
ram:200054de    0022            movs        r2,#0x0                                 
                            LAB_200054e0:                 ;XREF[1,0]:   200054dc
ram:200054e0    0378            ldrb        r3,[param_1,#0x0]                       
ram:200054e2    9342            cmp         r3,r2                                   
ram:200054e4    01d1            bne         LAB_200054ea                            
ram:200054e6    0020            movs        param_1,#0x0                            
ram:200054e8    7047            bx          lr                                      
                            LAB_200054ea:                 ;XREF[1,0]:   200054e4
ram:200054ea    0a70            strb        r2,[param_2,#0x0]                       
ram:200054ec    4168            ldr         param_2,[param_1,#0x4]                  
ram:200054ee    4078            ldrb        param_1,[param_1,#0x1]                  
ram:200054f0    00eb4000        add.w       param_1,param_1,param_1, lsl #0x1       
ram:200054f4    01ebc000        add.w       param_1,param_2,param_1, lsl #0x3       
ram:200054f8    7047            bx          lr                                      
                            ;************************************************************************************************
                            ;*                                           FUNCTION                                           *
                            ;************************************************************************************************
                            ;undefined8 FUN_200054fa(ushort * param_1, byte * param_2, byte * param_3, int param_4, ushort * param_5, byte * param_6)
          ;param_1       ushort *            r0                      
          ;param_2       byte *              r1                      
          ;param_3       byte *              r2                      
          ;param_4       int                 r3                      
          ;param_5       ushort *             0                      ;XREF[1,0]:   20005500
          ;param_6       byte *               4                      
          ;local_20      undefined4         -20                      ;XREF[2,0]:   20005504,20005516
                                                          ;XREF[3,0]:   2000285e,20002878,20002892
ram:200054fa    2de9fc41        push        {param_3,param_4,r4,r5,r6,r7,r8,lr}     
ram:200054fe    1646            mov         r6,param_3                              
ram:20005500    dde90854        ldrd        r5,r4,[sp,#param_5+0x20]                
ram:20005504    cde90054        strd        r5,r4,[sp,#0x0]=>local_20               
ram:20005508    1f46            mov         r7,param_4                              
ram:2000550a    8046            mov         r8,param_1                              
ram:2000550c    0222            movs        param_3,#0x2                            
ram:2000550e    00f00cf8        bl          FUN_2000552a                            ;undefined8 FUN_2000552a(ushort * par...
ram:20005512    0028            cmp         param_1,#0x0                            
ram:20005514    07d1            bne         LAB_20005526                            
ram:20005516    cde90054        strd        r5,r4,[sp,#0x0]=>local_20               
ram:2000551a    3b46            mov         param_4,r7                              
ram:2000551c    1022            movs        param_3,#0x10                           
ram:2000551e    3146            mov         param_2,r6                              
ram:20005520    4046            mov         param_1,r8                              
ram:20005522    00f002f8        bl          FUN_2000552a                            ;undefined8 FUN_2000552a(ushort * par...
                            LAB_20005526:                 ;XREF[1,0]:   20005514
ram:20005526    bde8fc81        pop.w       {param_3,param_4,r4,r5,r6,r7,r8,pc}     
                            ;************************************************************************************************
                            ;*                                           FUNCTION                                           *
                            ;************************************************************************************************
                            ;undefined8 FUN_2000552a(ushort * param_1, byte * param_2, uint param_3, int param_4, ushort * param_5, byte * param_6)
          ;param_1       ushort *            r0                      
          ;param_2       byte *              r1                      
          ;param_3       uint                r2                      
          ;param_4       int                 r3                      
          ;param_5       ushort *             0                      ;XREF[1,0]:   20005530
          ;param_6       byte *               4                      
          ;local_2c      undefined4         -2c                      ;XREF[1,0]:   20005550
          ;local_30      undefined1         -30                      ;XREF[2,0]:   2000555a,2000559a
                                                          ;XREF[2,0]:   2000550e,20005522
ram:2000552a    2de9fc5f        push        {param_3,param_4,r4,r5,r6,r7,r8,r9,r1...
ram:2000552e    0026            movs        r6,#0x0                                 
ram:20005530    dde90c4b        ldrd        r4,r11,[sp,#param_5+0x30]               
ram:20005534    9946            mov         r9,param_4                              
ram:20005536    9246            mov         r10,param_3                             
ram:20005538    8e46            mov         lr,param_2                              
ram:2000553a    8046            mov         r8,param_1                              
ram:2000553c    2788            ldrh        r7,[r4,#0x0]                            
ram:2000553e    3546            mov         r5,r6                                   
ram:20005540    30e0            b           LAB_200055a4                            
                            LAB_20005542:                 ;XREF[1,0]:   200055aa
ram:20005542    d8f80400        ldr.w       param_1,[r8,#0x4]                       
ram:20005546    0022            movs        param_3,#0x0                            
ram:20005548    00eb8500        add.w       param_1,param_1,r5, lsl #0x2            
ram:2000554c    6946            mov         param_2,sp                              
ram:2000554e    0068            ldr         param_1,[param_1,#0x0]                  
ram:20005550    0190            str         param_1,[sp,#local_2c+0x30]             
ram:20005552    01a8            add         param_1,sp,#0x4                         
ram:20005554    65df            svc         0x65                                    
ram:20005556    0028            cmp         param_1,#0x0                            
ram:20005558    30d1            bne         LAB_200055bc                            
ram:2000555a    9df80000        ldrb.w      param_1,[sp,#0x0]=>local_30             
ram:2000555e    5045            cmp         param_1,r10                             
ram:20005560    1fd1            bne         LAB_200055a2                            
ram:20005562    0eb1            cbz         r6,LAB_20005568                         
ram:20005564    0021            movs        param_2,#0x0                            
ram:20005566    00e0            b           LAB_2000556a                            
                            LAB_20005568:                 ;XREF[1,0]:   20005562
ram:20005568    0221            movs        param_2,#0x2                            
                            LAB_2000556a:                 ;XREF[1,0]:   20005566
ram:2000556a    2288            ldrh        param_3,[r4,#0x0]                       
ram:2000556c    0844            add         param_1,param_2                         
ram:2000556e    1118            adds        param_2,param_3,param_1                 
ram:20005570    5945            cmp         param_2,r11                             
ram:20005572    22d8            bhi         LAB_200055ba                            
ram:20005574    46b9            cbnz        r6,LAB_20005588                         
ram:20005576    521c            adds        param_3,param_3,#0x1                    
ram:20005578    90b2            uxth        param_1,param_3                         
ram:2000557a    2080            strh        param_1,[r4,#0x0]                       
ram:2000557c    09f800e0        strb.w      lr,r9,param_1,0x0                       
ram:20005580    2088            ldrh        param_1,[r4,#0x0]                       
ram:20005582    401c            adds        param_1,param_1,#0x1                    
ram:20005584    2080            strh        param_1,[r4,#0x0]                       
ram:20005586    0126            movs        r6,#0x1                                 
                            LAB_20005588:                 ;XREF[1,0]:   20005574
ram:20005588    2188            ldrh        param_2,[r4,#0x0]                       
ram:2000558a    01a8            add         param_1,sp,#0x4                         
ram:2000558c    01eb0902        add.w       param_3,param_2,r9                      
ram:20005590    6946            mov         param_2,sp                              
ram:20005592    65df            svc         0x65                                    
ram:20005594    0028            cmp         param_1,#0x0                            
ram:20005596    11d1            bne         LAB_200055bc                            
ram:20005598    2088            ldrh        param_1,[r4,#0x0]                       
ram:2000559a    9df80010        ldrb.w      param_2=>local_30,[sp,#0x0]             
ram:2000559e    0844            add         param_1,param_2                         
ram:200055a0    2080            strh        param_1,[r4,#0x0]                       
                            LAB_200055a2:                 ;XREF[1,0]:   20005560
ram:200055a2    6d1c            adds        r5,r5,#0x1                              
                            LAB_200055a4:                 ;XREF[1,0]:   20005540
ram:200055a4    b8f80000        ldrh.w      param_1,[r8,#0x0]                       
ram:200055a8    a842            cmp         param_1,r5                              
ram:200055aa    cadc            bgt         LAB_20005542                            
ram:200055ac    56b1            cbz         r6,LAB_200055c4                         
ram:200055ae    2088            ldrh        param_1,[r4,#0x0]                       
ram:200055b0    c01b            subs        param_1,param_1,r7                      
ram:200055b2    401e            subs        param_1,param_1,#0x1                    
ram:200055b4    80b2            uxth        param_1,param_1                         
ram:200055b6    ff28            cmp         param_1,#0xff                           
ram:200055b8    02d9            bls         LAB_200055c0                            
                            LAB_200055ba:                 ;XREF[1,0]:   20005572
ram:200055ba    0c20            movs        param_1,#0xc                            
                            LAB_200055bc:                 ;XREF[3,0]:   20005558,20005596,200055c6
ram:200055bc    bde8fc9f        pop.w       {param_3,param_4,r4,r5,r6,r7,r8,r9,r1...
                            LAB_200055c0:                 ;XREF[1,0]:   200055b8
ram:200055c0    09f80700        strb.w      param_1,r9,r7,0x0                       
                            LAB_200055c4:                 ;XREF[1,0]:   200055ac
ram:200055c4    0020            movs        param_1,#0x0                            
ram:200055c6    f9e7            b           LAB_200055bc                            
                            ;************************************************************************************************
                            ;*                                           FUNCTION                                           *
                            ;************************************************************************************************
                            ;undefined FUN_200055c8(uint param_1, undefined4 param_2, uint param_3, undefined * param_4)
          ;param_1       uint                r0                      
          ;param_2       undefined4          r1                      
          ;param_3       uint                r2                      
          ;param_4       undefined *         r3                      
ram:200055c8    10b5            push        {r4,lr}                                 
ram:200055ca    074c            ldr         r4,[PTR_PTR_LAB_200055e8]               ;= 20002c60
                            LAB_200055cc:                 ;XREF[1,0]:   200055e4
ram:200055cc    48df            svc         0x48                                    
ram:200055ce    08b1            cbz         param_1,LAB_200055d4                    
ram:200055d0    fdf780fa        bl          FUN_20002ad4                            ;undefined FUN_20002ad4(void)
                            LAB_200055d4:                 ;XREF[1,0]:   200055ce
ram:200055d4    fdf70efb        bl          FUN_20002bf4                            ;undefined FUN_20002bf4(undefined4 pa...
ram:200055d8    2078            ldrb        param_1,[r4,#0x0]=>PTR_LAB_20002c60     ;= 20002c40
ram:200055da    0228            cmp         param_1,#0x2                            
ram:200055dc    03d0            beq         LAB_200055e6                            
ram:200055de    0328            cmp         param_1,#0x3                            
ram:200055e0    01d0            beq         LAB_200055e6                            
ram:200055e2    0428            cmp         param_1,#0x4                            
ram:200055e4    f2d1            bne         LAB_200055cc                            
                            LAB_200055e6:                 ;XREF[2,0]:   200055dc,200055e0
ram:200055e6    10bd            pop         {r4,pc}                                 
                            PTR_PTR_LAB_200055e8:         ;XREF[1,0]:   200055ca
ram:200055e8    602c0020        addr        PTR_LAB_20002c60                        ;= 20002c40
ram:200055ec    00              ??          00h                                     
ram:200055ed    20              ??          20h                                     
ram:200055ee    ff              ??          FFh                                     
ram:200055ef    f7              ??          F7h                                     
ram:200055f0    25              ??          25h    %                                
ram:200055f1    ba              ??          BAh                                     
ram:200055f2    00              ??          00h                                     
ram:200055f3    00              ??          00h                                     
ram:200055f4    10              ??          10h                                     
ram:200055f5    b5              ??          B5h                                     
ram:200055f6    00              ??          00h                                     
ram:200055f7    20              ??          20h                                     
ram:200055f8    ff              ??          FFh                                     
ram:200055f9    f7              ??          F7h                                     
ram:200055fa    20              ??          20h                                     
ram:200055fb    fa              ??          FAh                                     
ram:200055fc    0b              ??          0Bh                                     
ram:200055fd    4a              ??          4Ah    J                                
ram:200055fe    01              ??          01h                                     
ram:200055ff    21              ??          21h    !                                
ram:20005600    0b              ??          0Bh                                     
ram:20005601    48              ??          48h    H                                
ram:20005602    fd              ??          FDh                                     
ram:20005603    f7              ??          F7h                                     
ram:20005604    1d              ??          1Dh                                     
ram:20005605    fb              ??          FBh                                     
ram:20005606    08              ??          08h                                     
ram:20005607    b1              ??          B1h                                     
ram:20005608    fd              ??          FDh                                     
ram:20005609    f7              ??          F7h                                     
ram:2000560a    64              ??          64h    d                                
ram:2000560b    fa              ??          FAh                                     
ram:2000560c    08              ??          08h                                     
ram:2000560d    48              ??          48h    H                                
ram:2000560e    00              ??          00h                                     
ram:2000560f    22              ??          22h    "                                
ram:20005610    00              ??          00h                                     
ram:20005611    1f              ??          1Fh                                     
ram:20005612    4f              ??          4Fh    O                                
ram:20005613    f4              ??          F4h                                     
ram:20005614    c0              ??          C0h                                     
ram:20005615    31              ??          31h    1                                
ram:20005616    40              ??          40h    @                                
ram:20005617    68              ??          68h    h                                
ram:20005618    fd              ??          FDh                                     
ram:20005619    f7              ??          F7h                                     
ram:2000561a    84              ??          84h                                     
ram:2000561b    fb              ??          FBh                                     
ram:2000561c    00              ??          00h                                     
ram:2000561d    28              ??          28h    (                                
ram:2000561e    03              ??          03h                                     
ram:2000561f    d0              ??          D0h                                     
ram:20005620    bd              ??          BDh                                     
ram:20005621    e8              ??          E8h                                     
ram:20005622    10              ??          10h                                     
ram:20005623    40              ??          40h    @                                
ram:20005624    fd              ??          FDh                                     
ram:20005625    f7              ??          F7h                                     
ram:20005626    56              ??          56h    V                                
ram:20005627    ba              ??          BAh                                     
ram:20005628    10              ??          10h                                     
ram:20005629    bd              ??          BDh                                     
ram:2000562a    00              ??          00h                                     
ram:2000562b    00              ??          00h                                     
ram:2000562c    49              ??          49h    I                                
ram:2000562d    d7              ??          D7h                                     
ram:2000562e    07              ??          07h                                     
ram:2000562f    00              ??          00h                                     
ram:20005630    20              ??          20h                                     
ram:20005631    d8              ??          D8h                                     
ram:20005632    07              ??          07h                                     
ram:20005633    00              ??          00h                                     
ram:20005634    01              ??          01h                                     
ram:20005635    00              ??          00h                                     
ram:20005636    00              ??          00h                                     
ram:20005637    07              ??          07h                                     
ram:20005638    02              ??          02h                                     
ram:20005639    00              ??          00h                                     
ram:2000563a    00              ??          00h                                     
ram:2000563b    00              ??          00h                                     
ram:2000563c    00              ??          00h                                     
ram:2000563d    00              ??          00h                                     
ram:2000563e    00              ??          00h                                     
ram:2000563f    00              ??          00h                                     
ram:20005640    00              ??          00h                                     
ram:20005641    00              ??          00h                                     
ram:20005642    00              ??          00h                                     
ram:20005643    00              ??          00h                                     
ram:20005644    00              ??          00h                                     
ram:20005645    00              ??          00h                                     
ram:20005646    00              ??          00h                                     
ram:20005647    00              ??          00h                                     
ram:20005648    80              ??          80h                                     ;?  ->  20003080
ram:20005649    30              ??          30h    0                                
ram:2000564a    00              ??          00h                                     
ram:2000564b    20              ??          20h                                     
ram:2000564c    23              ??          23h    #                                
ram:2000564d    d1              ??          D1h                                     
ram:2000564e    bc              ??          BCh                                     
ram:2000564f    ea              ??          EAh                                     
ram:20005650    5f              ??          5Fh    _                                
ram:20005651    78              ??          78h    x                                
ram:20005652    23              ??          23h    #                                
ram:20005653    15              ??          15h                                     
ram:20005654    de              ??          DEh                                     
ram:20005655    ef              ??          EFh                                     
ram:20005656    12              ??          12h                                     
ram:20005657    12              ??          12h                                     
ram:20005658    00              ??          00h                                     
ram:20005659    00              ??          00h                                     
ram:2000565a    00              ??          00h                                     
ram:2000565b    00              ??          00h                                     
ram:2000565c    39              ??          39h    9                                
ram:2000565d    cf              ??          CFh                                     
ram:2000565e    07              ??          07h                                     
ram:2000565f    00              ??          00h                                     
ram:20005660    00              ??          00h                                     
ram:20005661    00              ??          00h                                     
ram:20005662    00              ??          00h                                     
ram:20005663    00              ??          00h                                     
ram:20005664    00              ??          00h                                     
ram:20005665    00              ??          00h                                     
ram:20005666    00              ??          00h                                     
ram:20005667    00              ??          00h                                     
ram:20005668    02              ??          02h                                     
ram:20005669    00              ??          00h                                     
ram:2000566a    00              ??          00h                                     
ram:2000566b    00              ??          00h                                     
ram:2000566c    00              ??          00h                                     
ram:2000566d    00              ??          00h                                     
ram:2000566e    00              ??          00h                                     
ram:2000566f    00              ??          00h                                     
ram:20005670    00              ??          00h                                     
ram:20005671    00              ??          00h                                     
ram:20005672    00              ??          00h                                     
ram:20005673    00              ??          00h                                     
ram:20005674    00              ??          00h                                     
ram:20005675    00              ??          00h                                     
ram:20005676    00              ??          00h                                     
ram:20005677    00              ??          00h                                     
ram:20005678    00              ??          00h                                     
ram:20005679    00              ??          00h                                     
ram:2000567a    00              ??          00h                                     
ram:2000567b    00              ??          00h                                     
ram:2000567c    d8              ??          D8h                                     ;?  ->  200031d8
ram:2000567d    31              ??          31h    1                                
ram:2000567e    00              ??          00h                                     
ram:2000567f    20              ??          20h                                     
ram:20005680    04              ??          04h                                     
ram:20005681    00              ??          00h                                     
ram:20005682    00              ??          00h                                     
ram:20005683    00              ??          00h                                     
ram:20005684    00              ??          00h                                     
ram:20005685    00              ??          00h                                     
ram:20005686    00              ??          00h                                     
ram:20005687    00              ??          00h                                     
ram:20005688    00              ??          00h                                     
ram:20005689    00              ??          00h                                     
ram:2000568a    00              ??          00h                                     
ram:2000568b    00              ??          00h                                     
ram:2000568c    00              ??          00h                                     
ram:2000568d    00              ??          00h                                     
ram:2000568e    00              ??          00h                                     
ram:2000568f    00              ??          00h                                     
ram:20005690    00              ??          00h                                     
ram:20005691    00              ??          00h                                     
ram:20005692    00              ??          00h                                     
ram:20005693    00              ??          00h                                     
ram:20005694    59              ??          59h    Y                                
ram:20005695    cf              ??          CFh                                     
ram:20005696    07              ??          07h                                     
ram:20005697    00              ??          00h                                     
ram:20005698    00              ??          00h                                     
ram:20005699    00              ??          00h                                     
ram:2000569a    00              ??          00h                                     
ram:2000569b    00              ??          00h                                     
ram:2000569c    00              ??          00h                                     
ram:2000569d    00              ??          00h                                     
ram:2000569e    00              ??          00h                                     
ram:2000569f    00              ??          00h                                     
ram:200056a0    03              ??          03h                                     
ram:200056a1    00              ??          00h                                     
ram:200056a2    00              ??          00h                                     
ram:200056a3    00              ??          00h                                     
ram:200056a4    00              ??          00h                                     
ram:200056a5    00              ??          00h                                     
ram:200056a6    00              ??          00h                                     
ram:200056a7    00              ??          00h                                     
ram:200056a8    00              ??          00h                                     
ram:200056a9    00              ??          00h                                     
ram:200056aa    00              ??          00h                                     
ram:200056ab    00              ??          00h                                     
ram:200056ac    05              ??          05h                                     
ram:200056ad    00              ??          00h                                     
ram:200056ae    00              ??          00h                                     
ram:200056af    00              ??          00h                                     
ram:200056b0    00              ??          00h                                     
ram:200056b1    00              ??          00h                                     
ram:200056b2    00              ??          00h                                     
ram:200056b3    00              ??          00h                                     
ram:200056b4    00              ??          00h                                     
ram:200056b5    00              ??          00h                                     
ram:200056b6    00              ??          00h                                     
ram:200056b7    00              ??          00h                                     
ram:200056b8    00              ??          00h                                     
ram:200056b9    00              ??          00h                                     
ram:200056ba    00              ??          00h                                     
ram:200056bb    00              ??          00h                                     
ram:200056bc    00              ??          00h                                     
ram:200056bd    00              ??          00h                                     
ram:200056be    00              ??          00h                                     
ram:200056bf    00              ??          00h                                     
ram:200056c0    6c              ??          6Ch    l                                ;?  ->  2000346c
ram:200056c1    34              ??          34h    4                                
ram:200056c2    00              ??          00h                                     
ram:200056c3    20              ??          20h                                     
ram:200056c4    8c              ??          8Ch                                     ;?  ->  2000348c
ram:200056c5    34              ??          34h    4                                
ram:200056c6    00              ??          00h                                     
ram:200056c7    20              ??          20h                                     
ram:200056c8    01              ??          01h                                     
ram:200056c9    00              ??          00h                                     
ram:200056ca    00              ??          00h                                     
ram:200056cb    00              ??          00h                                     
ram:200056cc    10              ??          10h                                     
ram:200056cd    27              ??          27h    '                                
ram:200056ce    00              ??          00h                                     
ram:200056cf    00              ??          00h                                     
ram:200056d0    02              ??          02h                                     
ram:200056d1    00              ??          00h                                     
ram:200056d2    00              ??          00h                                     
ram:200056d3    00              ??          00h                                     
ram:200056d4    50              ??          50h    P                                
ram:200056d5    d8              ??          D8h                                     
ram:200056d6    07              ??          07h                                     
ram:200056d7    00              ??          00h                                     
ram:200056d8    00              ??          00h                                     ;?  ->  20002c00
ram:200056d9    2c              ??          2Ch    ,                                
ram:200056da    00              ??          00h                                     
ram:200056db    20              ??          20h                                     
ram:200056dc    d8              ??          D8h                                     
ram:200056dd    00              ??          00h                                     
ram:200056de    00              ??          00h                                     
ram:200056df    00              ??          00h                                     
ram:200056e0    28              ??          28h    (                                
ram:200056e1    a8              ??          A8h                                     
ram:200056e2    07              ??          07h                                     
ram:200056e3    00              ??          00h                                     
ram:200056e4    28              ??          28h    (                                
ram:200056e5    d9              ??          D9h                                     
ram:200056e6    07              ??          07h                                     
ram:200056e7    00              ??          00h                                     
ram:200056e8    d8              ??          D8h                                     ;?  ->  20002cd8
ram:200056e9    2c              ??          2Ch    ,                                
ram:200056ea    00              ??          00h                                     
ram:200056eb    20              ??          20h                                     
ram:200056ec    d8              ??          D8h                                     
ram:200056ed    27              ??          27h    '                                
ram:200056ee    00              ??          00h                                     
ram:200056ef    00              ??          00h                                     
ram:200056f0    38              ??          38h    8                                
ram:200056f1    a8              ??          A8h                                     
ram:200056f2    07              ??          07h                                     
ram:200056f3    00              ??          00h                                     
ram:200056f4    00              ??          00h                                     
ram:200056f5    00              ??          00h                                     
ram:200056f6    00              ??          00h                                     
ram:200056f7    00              ??          00h                                     
ram:200056f8    00              ??          00h                                     
ram:200056f9    00              ??          00h                                     
ram:200056fa    00              ??          00h                                     
ram:200056fb    00              ??          00h                                     
ram:200056fc    00              ??          00h                                     
ram:200056fd    00              ??          00h                                     
ram:200056fe    00              ??          00h                                     
ram:200056ff    00              ??          00h                                     
ram:20005700    00              ??          00h                                     
ram:20005701    00              ??          00h                                     
ram:20005702    00              ??          00h                                     
ram:20005703    00              ??          00h                                     
ram:20005704    00              ??          00h                                     
ram:20005705    00              ??          00h                                     
ram:20005706    00              ??          00h                                     
ram:20005707    00              ??          00h                                     
ram:20005708    00              ??          00h                                     
ram:20005709    00              ??          00h                                     
ram:2000570a    00              ??          00h                                     
ram:2000570b    00              ??          00h                                     
ram:2000570c    00              ??          00h                                     
ram:2000570d    00              ??          00h                                     
ram:2000570e    00              ??          00h                                     
ram:2000570f    00              ??          00h                                     
ram:20005710    00              ??          00h                                     
ram:20005711    00              ??          00h                                     
ram:20005712    00              ??          00h                                     
ram:20005713    00              ??          00h                                     
ram:20005714    00              ??          00h                                     
ram:20005715    00              ??          00h                                     
ram:20005716    00              ??          00h                                     
ram:20005717    00              ??          00h                                     
ram:20005718    00              ??          00h                                     
ram:20005719    00              ??          00h                                     
ram:2000571a    00              ??          00h                                     
ram:2000571b    00              ??          00h                                     
ram:2000571c    00              ??          00h                                     
ram:2000571d    00              ??          00h                                     
ram:2000571e    00              ??          00h                                     
ram:2000571f    00              ??          00h                                     
ram:20005720    00              ??          00h                                     
ram:20005721    00              ??          00h                                     
ram:20005722    00              ??          00h                                     
ram:20005723    00              ??          00h                                     
ram:20005724    00              ??          00h                                     
ram:20005725    00              ??          00h                                     
ram:20005726    00              ??          00h                                     
ram:20005727    00              ??          00h                                     
ram:20005728    00              ??          00h                                     
ram:20005729    00              ??          00h                                     
ram:2000572a    00              ??          00h                                     
ram:2000572b    00              ??          00h                                     
ram:2000572c    00              ??          00h                                     
ram:2000572d    00              ??          00h                                     
ram:2000572e    00              ??          00h                                     
ram:2000572f    00              ??          00h                                     
ram:20005730    00              ??          00h                                     
ram:20005731    00              ??          00h                                     
ram:20005732    00              ??          00h                                     
ram:20005733    00              ??          00h                                     
ram:20005734    00              ??          00h                                     
ram:20005735    00              ??          00h                                     
ram:20005736    00              ??          00h                                     
ram:20005737    00              ??          00h                                     
ram:20005738    00              ??          00h                                     
ram:20005739    00              ??          00h                                     
ram:2000573a    00              ??          00h                                     
ram:2000573b    00              ??          00h                                     
ram:2000573c    00              ??          00h                                     
ram:2000573d    00              ??          00h                                     
ram:2000573e    00              ??          00h                                     
ram:2000573f    00              ??          00h                                     
ram:20005740    00              ??          00h                                     
ram:20005741    00              ??          00h                                     
ram:20005742    00              ??          00h                                     
ram:20005743    00              ??          00h                                     
ram:20005744    00              ??          00h                                     
ram:20005745    00              ??          00h                                     
ram:20005746    00              ??          00h                                     
ram:20005747    00              ??          00h                                     
ram:20005748    00              ??          00h                                     
ram:20005749    00              ??          00h                                     
ram:2000574a    00              ??          00h                                     
ram:2000574b    00              ??          00h                                     
ram:2000574c    00              ??          00h                                     
ram:2000574d    00              ??          00h                                     
ram:2000574e    00              ??          00h                                     
ram:2000574f    00              ??          00h                                     
ram:20005750    00              ??          00h                                     
ram:20005751    00              ??          00h                                     
ram:20005752    00              ??          00h                                     
ram:20005753    00              ??          00h                                     
ram:20005754    00              ??          00h                                     
ram:20005755    00              ??          00h                                     
ram:20005756    00              ??          00h                                     
ram:20005757    00              ??          00h                                     
ram:20005758    00              ??          00h                                     
ram:20005759    00              ??          00h                                     
ram:2000575a    00              ??          00h                                     
ram:2000575b    00              ??          00h                                     
ram:2000575c    00              ??          00h                                     
ram:2000575d    00              ??          00h                                     
ram:2000575e    00              ??          00h                                     
ram:2000575f    00              ??          00h                                     
ram:20005760    00              ??          00h                                     
ram:20005761    00              ??          00h                                     
ram:20005762    00              ??          00h                                     
ram:20005763    00              ??          00h                                     
ram:20005764    00              ??          00h                                     
ram:20005765    00              ??          00h                                     
ram:20005766    00              ??          00h                                     
ram:20005767    00              ??          00h                                     
ram:20005768    00              ??          00h                                     
ram:20005769    00              ??          00h                                     
ram:2000576a    00              ??          00h                                     
ram:2000576b    00              ??          00h                                     
ram:2000576c    00              ??          00h                                     
ram:2000576d    00              ??          00h                                     
ram:2000576e    00              ??          00h                                     
ram:2000576f    00              ??          00h                                     
ram:20005770    00              ??          00h                                     
ram:20005771    00              ??          00h                                     
ram:20005772    00              ??          00h                                     
ram:20005773    00              ??          00h                                     
ram:20005774    00              ??          00h                                     
ram:20005775    00              ??          00h                                     
ram:20005776    00              ??          00h                                     
ram:20005777    00              ??          00h                                     
ram:20005778    00              ??          00h                                     
ram:20005779    00              ??          00h                                     
ram:2000577a    00              ??          00h                                     
ram:2000577b    00              ??          00h                                     
ram:2000577c    00              ??          00h                                     
ram:2000577d    00              ??          00h                                     
ram:2000577e    00              ??          00h                                     
ram:2000577f    00              ??          00h                                     
ram:20005780    00              ??          00h                                     
ram:20005781    00              ??          00h                                     
ram:20005782    00              ??          00h                                     
ram:20005783    00              ??          00h                                     
ram:20005784    00              ??          00h                                     
ram:20005785    00              ??          00h                                     
ram:20005786    00              ??          00h                                     
ram:20005787    00              ??          00h                                     
ram:20005788    00              ??          00h                                     
ram:20005789    00              ??          00h                                     
ram:2000578a    00              ??          00h                                     
ram:2000578b    00              ??          00h                                     
ram:2000578c    00              ??          00h                                     
ram:2000578d    00              ??          00h                                     
ram:2000578e    00              ??          00h                                     
ram:2000578f    00              ??          00h                                     
ram:20005790    00              ??          00h                                     
ram:20005791    00              ??          00h                                     
ram:20005792    ff              ??          FFh                                     
ram:20005793    ff              ??          FFh                                     
ram:20005794    00              ??          00h                                     
ram:20005795    00              ??          00h                                     
ram:20005796    00              ??          00h                                     
ram:20005797    00              ??          00h                                     
ram:20005798    32              ??          32h    2                                
ram:20005799    00              ??          00h                                     
ram:2000579a    00              ??          00h                                     
ram:2000579b    00              ??          00h                                     
ram:2000579c    00              ??          00h                                     
ram:2000579d    00              ??          00h                                     
ram:2000579e    00              ??          00h                                     
ram:2000579f    00              ??          00h                                     
ram:200057a0    00              ??          00h                                     
ram:200057a1    00              ??          00h                                     
ram:200057a2    00              ??          00h                                     
ram:200057a3    00              ??          00h                                     
ram:200057a4    00              ??          00h                                     
ram:200057a5    00              ??          00h                                     
ram:200057a6    00              ??          00h                                     
ram:200057a7    00              ??          00h                                     
ram:200057a8    00              ??          00h                                     
ram:200057a9    00              ??          00h                                     
ram:200057aa    00              ??          00h                                     
ram:200057ab    00              ??          00h                                     
ram:200057ac    00              ??          00h                                     
ram:200057ad    00              ??          00h                                     
ram:200057ae    00              ??          00h                                     
ram:200057af    00              ??          00h                                     
ram:200057b0    00              ??          00h                                     
ram:200057b1    00              ??          00h                                     
ram:200057b2    00              ??          00h                                     
ram:200057b3    00              ??          00h                                     
ram:200057b4    00              ??          00h                                     
ram:200057b5    00              ??          00h                                     
ram:200057b6    00              ??          00h                                     
ram:200057b7    00              ??          00h                                     
ram:200057b8    00              ??          00h                                     
ram:200057b9    00              ??          00h                                     
ram:200057ba    00              ??          00h                                     
ram:200057bb    00              ??          00h                                     
ram:200057bc    00              ??          00h                                     
ram:200057bd    00              ??          00h                                     
ram:200057be    00              ??          00h                                     
ram:200057bf    00              ??          00h                                     
ram:200057c0    00              ??          00h                                     
ram:200057c1    00              ??          00h                                     
ram:200057c2    00              ??          00h                                     
ram:200057c3    00              ??          00h                                     
ram:200057c4    00              ??          00h                                     
ram:200057c5    00              ??          00h                                     
ram:200057c6    00              ??          00h                                     
ram:200057c7    00              ??          00h                                     
ram:200057c8    00              ??          00h                                     
ram:200057c9    90              ??          90h                                     
ram:200057ca    d0              ??          D0h                                     
ram:200057cb    03              ??          03h                                     
