                            MasterStackPointer:           
ram:00027002    00000420        addr        DAT_20040000                            
                            Reset:                        ;XREF[1,0]:   Entry Point
ram:00027006    75730200        addr        LAB_00027372+3                          
                            NMI:                          ;XREF[1,0]:   Entry Point
ram:0002700a    5d730200        addr        FUNC_NMI_0002735c+1                     
                            HardFault:                    ;XREF[1,0]:   Entry Point
ram:0002700e    5f730200        addr        FUNC_HardFault_0002735e+1               
                            MemManage:                    ;XREF[1,0]:   Entry Point
ram:00027012    61730200        addr        FUNC_MemManage_00027360+1               
                            BusFault:                     ;XREF[1,0]:   Entry Point
ram:00027016    63730200        addr        FUNC_BusFault_00027362+1                
                            UsageFault:                   ;XREF[1,0]:   Entry Point
ram:0002701a    65730200        addr        FUNC_UsageFault_00027364+1              
                            Reserved1:                    ;XREF[1,0]:   Entry Point
ram:0002701e    00000000        addr        00000000                                
                            Reserved2:                    ;XREF[1,0]:   Entry Point
ram:00027022    00000000        addr        00000000                                
                            Reserved3:                    ;XREF[1,0]:   Entry Point
ram:00027026    00000000        addr        00000000                                
                            Reserved5:                    ;XREF[1,0]:   Entry Point
                            Reserved6:                    
                            Reserved4:                    
ram:0002702a    00000000        addr        00000000                                
                            SVCall:                       ;XREF[1,0]:   Entry Point
ram:0002702e    67730200        addr        FUNC_SVCall_00027366+1                  
ram:00027032    69730200        addr        FUNC_VT_00027368+1                      
ram:00027036    00000000        addr        00000000                                
                            PendSV:                       ;XREF[1,0]:   Entry Point
ram:0002703a    6b730200        addr        FUNC_PendSV_0002736a+1                  
                            SysTick:                      ;XREF[1,0]:   Entry Point
ram:0002703e    6d730200        addr        FUNC_SysTick_0002736c+1                 
                            IRQ:                          ;XREF[1,0]:   Entry Point
ram:00027042    81890200        addr        FUNC_IRQ_00028980+1                     
ram:00027046    6f730200        addr        FUNC_VT_0002736e+1                      
ram:0002704a    7d8e0200        addr        FUNC_VT_00028e7c+1                      
ram:0002704e    6f730200        addr        FUNC_VT_0002736e+1                      
ram:00027052    6f730200        addr        FUNC_VT_0002736e+1                      
ram:00027056    6f730200        addr        FUNC_VT_0002736e+1                      
ram:0002705a    d18c0200        addr        DAT_00028cd1                            ;= FBh
ram:0002705e    a18e0200        addr        FUNC_VT_00028ea0+1                      
ram:00027062    6f730200        addr        FUNC_VT_0002736e+1                      
ram:00027066    6f730200        addr        FUNC_VT_0002736e+1                      
ram:0002706a    6f730200        addr        FUNC_VT_0002736e+1                      
ram:0002706e    6f730200        addr        FUNC_VT_0002736e+1                      
ram:00027072    6f730200        addr        FUNC_VT_0002736e+1                      
ram:00027076    6f730200        addr        FUNC_VT_0002736e+1                      
ram:0002707a    6f730200        addr        FUNC_VT_0002736e+1                      
ram:0002707e    6f730200        addr        FUNC_VT_0002736e+1                      
ram:00027082    6f730200        addr        FUNC_VT_0002736e+1                      
ram:00027086    557d0200        addr        thunk_FUN_00027d58+1                    
ram:0002708a    6f730200        addr        FUNC_VT_0002736e+1                      
ram:0002708e    6f730200        addr        FUNC_VT_0002736e+1                      
ram:00027092    6f730200        addr        FUNC_VT_0002736e+1                      
ram:00027096    6f730200        addr        FUNC_VT_0002736e+1                      
ram:0002709a    45c80200        addr        FUNC_VT_0002c844+1                      
ram:0002709e    6f730200        addr        FUNC_VT_0002736e+1                      
ram:000270a2    6f730200        addr        FUNC_VT_0002736e+1                      
ram:000270a6    6f730200        addr        FUNC_VT_0002736e+1                      
ram:000270aa    6f730200        addr        FUNC_VT_0002736e+1                      
ram:000270ae    6f730200        addr        FUNC_VT_0002736e+1                      
ram:000270b2    6f730200        addr        FUNC_VT_0002736e+1                      
ram:000270b6    6f730200        addr        FUNC_VT_0002736e+1                      
ram:000270ba    00000000        addr        00000000                                
ram:000270be    00000000        addr        00000000                                
ram:000270c2    6f730200        addr        FUNC_VT_0002736e+1                      
ram:000270c6    6f730200        addr        FUNC_VT_0002736e+1                      
ram:000270ca    6f730200        addr        FUNC_VT_0002736e+1                      
ram:000270ce    6f730200        addr        FUNC_VT_0002736e+1                      
ram:000270d2    6f730200        addr        FUNC_VT_0002736e+1                      
ram:000270d6    6f730200        addr        FUNC_VT_0002736e+1                      
ram:000270da    6f730200        addr        FUNC_VT_0002736e+1                      
ram:000270de    6f730200        addr        FUNC_VT_0002736e+1                      
ram:000270e2    6f730200        addr        FUNC_VT_0002736e+1                      
ram:000270e6    6f730200        addr        FUNC_VT_0002736e+1                      
ram:000270ea    6f730200        addr        FUNC_VT_0002736e+1                      
ram:000270ee    00000000        addr        00000000                                
ram:000270f2    00000000        addr        00000000                                
ram:000270f6    6f730200        addr        FUNC_VT_0002736e+1                      
ram:000270fa    00000000        addr        00000000                                
ram:000270fe    6f730200        addr        FUNC_VT_0002736e+1                      
ram:00027102    00000000        addr        00000000                                
ram:00027106    00000000        addr        00000000                                
ram:0002710a    00000000        addr        00000000                                
ram:0002710e    00000000        addr        00000000                                
ram:00027112    00000000        addr        00000000                                
                            LAB_00027202:                 ;XREF[1,0]:   0002739a
ram:00027202    3549            ldr         r1,[LAB_000272d8]                       
ram:00027204    3648            ldr         r0,[DAT_000272e0]                       ;= 00002003h
ram:00027206    0a1a            subs        r2,r1,r0                                
ram:00027208    02d0            beq         LAB_00027210                            
ram:0002720a    0722            movs        r2,#0x7                                 
ram:0002720c    9143            bics        r1,r2                                   
ram:0002720e    8d46            mov         sp,r1                                   
                            LAB_00027210:                 ;XREF[1,0]:   00027208
ram:00027210    3449            ldr         r1,[DAT_000272e4]                       ;= 00002004h
ram:00027212    3448            ldr         r0,[DAT_000272e4]                       ;= 00002004h
ram:00027214    0a1a            subs        r2,r1,r0                                
ram:00027216    06d0            beq         LAB_00027226                            
ram:00027218    0722            movs        r2,#0x7                                 
ram:0002721a    9143            bics        r1,r2                                   
ram:0002721c    81f30988        msr         psp,r1                                  
ram:00027220    0222            movs        r2,#0x2                                 
ram:00027222    82f31488        msr         control,r2                              
                            LAB_00027226:                 ;XREF[1,0]:   00027216
ram:00027226    3048            ldr         r0,[DAT_000272e8]                       ;= D01C2004h
ram:00027228    3149            ldr         r1,[DAT_000272f0]                       ;= 38A42000h
ram:0002722a    314a            ldr         r2,[DAT_000272f0]                       ;= 38A42000h
ram:0002722c    00f044f8        bl          FUN_000272b8                            ;undefined FUN_000272b8(undefined * p...
ram:00027230    3148            ldr         r0,[DAT_000272f8]                       ;= 73D00002h
ram:00027232    3149            ldr         r1,[DAT_000272f8]                       ;= 73D00002h
ram:00027234    324a            ldr         r2,[DAT_00027300]                       ;= D01C0002h
ram:00027236    00f03ff8        bl          FUN_000272b8                            ;undefined FUN_000272b8(undefined * p...
ram:0002723a    3148            ldr         r0,[DAT_00027300]                       ;= D01C0002h
ram:0002723c    3249            ldr         r1,[DAT_00027308]                       ;= 38742000h
ram:0002723e    324a            ldr         r2,[DAT_00027308]                       ;= 38742000h
ram:00027240    00f03af8        bl          FUN_000272b8                            ;undefined FUN_000272b8(undefined * p...
ram:00027244    3248            ldr         r0=>DAT_cf000002,[DAT_00027310]         ;= CF000002h
ram:00027246    3249            ldr         r1=>DAT_cf000002,[DAT_00027310]         ;= CF000002h
ram:00027248    334a            ldr         r2=>DAT_cf000002,[DAT_00027318]         ;= CF000002h
ram:0002724a    00f035f8        bl          FUN_000272b8                            ;undefined FUN_000272b8(undefined * p...
ram:0002724e    3248            ldr         r0=>DAT_cf000002,[DAT_00027318]         ;= CF000002h
ram:00027250    3349            ldr         r1=>DAT_cf000002,[DAT_00027320]         ;= CF000002h
ram:00027252    334a            ldr         r2=>DAT_cf000002,[DAT_00027320]         ;= CF000002h
ram:00027254    00f030f8        bl          FUN_000272b8                            ;undefined FUN_000272b8(undefined * p...
ram:00027258    3348            ldr         r0=>DAT_cf000002,[DAT_00027328]         ;= CF000002h
ram:0002725a    3349            ldr         r1=>DAT_cf000002,[DAT_00027328]         ;= CF000002h
ram:0002725c    344a            ldr         r2,[DAT_00027330]                       ;= D04C0002h
ram:0002725e    00f02bf8        bl          FUN_000272b8                            ;undefined FUN_000272b8(undefined * p...
ram:00027262    3348            ldr         r0,[DAT_00027330]                       ;= D04C0002h
ram:00027264    3449            ldr         r1,[DAT_00027338]                       ;= 38A42000h
ram:00027266    344a            ldr         r2,[DAT_00027338]                       ;= 38A42000h
ram:00027268    00f026f8        bl          FUN_000272b8                            ;undefined FUN_000272b8(undefined * p...
ram:0002726c    3448            ldr         r0,[DAT_00027340]                       ;= 44982000h
ram:0002726e    3449            ldr         r1,[DAT_00027340]                       ;= 44982000h
ram:00027270    0022            movs        r2,#0x0                                 
ram:00027272    00f02cf8        bl          FUN_000272ce                            ;undefined FUN_000272ce(undefined * p...
ram:00027276    3348            ldr         r0,[DAT_00027344]                       ;= 44982000h
ram:00027278    3449            ldr         r1,[DAT_0002734c]                       ;= 44982000h
ram:0002727a    0022            movs        r2,#0x0                                 
ram:0002727c    00f027f8        bl          FUN_000272ce                            ;undefined FUN_000272ce(undefined * p...
ram:00027280    3348            ldr         r0=>DAT_64982000,[DAT_00027350]         ;= 64982000h
ram:00027282    3349            ldr         r1,[DAT_00027350]                       ;= 64982000h
ram:00027284    091a            subs        r1,r1,r0                                
ram:00027286    0829            cmp         r1,#0x8                                 
ram:00027288    02db            blt         LAB_00027290                            
ram:0002728a    0022            movs        r2,#0x0                                 
ram:0002728c    0260            str         r2,[r0,#0x0]=>DAT_64982000              
ram:0002728e    4160            str         r1,[r0,#offset DAT_64982004 &0xff]      
                            LAB_00027290:                 ;XREF[1,0]:   00027288
ram:00027290    314a            ldr         r2,[DAT_00027358]                       ;= A5290002h
ram:00027292    9047            blx         r2=>SUB_a5290002                        
ram:00027294    1f48            ldr         r0,[DAT_00027314]                       ;= CF000002h
ram:00027296    1f49            ldr         r1=>DAT_cf000002,[DAT_00027314]         ;= CF000002h
                            LAB_00027298:                 ;XREF[1,0]:   000272a6
ram:00027298    8842            cmp         r0,r1                                   
ram:0002729a    05d0            beq         LAB_000272a8                            
ram:0002729c    0268            ldr         r2,[r0,#0x0]=>DAT_cf000002              
ram:0002729e    0430            adds        r0,#0x4                                 
                                                          ; FWD[3,0]:   00004768,0000476c,cf000002
ram:000272a0    03b4            push        {r0,r1}=>DAT_0000476c                   
ram:000272a2    9047            blx         r2                                      
                                                          ; FWD[2,0]:   00004768,0000476c
ram:000272a4    03bc            pop         {r0,r1}=>DAT_00004768                   
ram:000272a6    f7e7            b           LAB_00027298                            
                            LAB_000272a8:                 ;XREF[1,0]:   0002729a
ram:000272a8    0020            movs        r0,#0x0                                 
ram:000272aa    8646            mov         lr,r0                                   
ram:000272ac    ec46            mov         r12,sp                                  
ram:000272ae    0020            movs        r0,#0x0                                 
ram:000272b0    0021            movs        r1,#0x0                                 
ram:000272b2    294a            ldr         r2,[DAT_00027358]                       ;= A5290002h
ram:000272b4    9047            blx         r2=>SUB_a5290002                        
                            LAB_000272b6:                 ;XREF[1,0]:   000272b6
ram:000272b6    fee7            b           LAB_000272b6                            
                            ;************************************************************************************************
                            ;*                                           FUNCTION                                           *
                            ;************************************************************************************************
                            ;undefined FUN_000272b8(undefined * param_1, undefined * param_2, int param_3)
          ;param_1       undefined *         r0                      
          ;param_2       undefined *         r1                      
          ;param_3       int                 r2                      
                                                          ;XREF[7,0]:   0002722c,00027236,00027240,0002724a
                                                          ;             00027254,0002725e,00027268
ram:000272b8    8842            cmp         param_1,param_2                         
ram:000272ba    07d0            beq         LAB_000272cc                            
ram:000272bc    521a            subs        param_3,param_3,param_2                 
ram:000272be    05d0            beq         LAB_000272cc                            
                            LAB_000272c0:                 ;XREF[1,0]:   000272ca
ram:000272c0    0378            ldrb        r3,[param_1,#0x0]                       
ram:000272c2    0130            adds        param_1,#0x1                            
ram:000272c4    0b70            strb        r3,[param_2,#0x0]                       
ram:000272c6    0131            adds        param_2,#0x1                            
ram:000272c8    013a            subs        param_3,#0x1                            
ram:000272ca    f9d1            bne         LAB_000272c0                            
                            LAB_000272cc:                 ;XREF[2,0]:   000272ba,000272be
ram:000272cc    7047            bx          lr                                      
                            ;************************************************************************************************
                            ;*                                           FUNCTION                                           *
                            ;************************************************************************************************
                            ;undefined FUN_000272ce(undefined * param_1, undefined * param_2, undefined param_3)
          ;param_1       undefined *         r0                      
          ;param_2       undefined *         r1                      
          ;param_3       undefined           r2                      
                                                          ;XREF[3,0]:   00027272,0002727c,000272d6
ram:000272ce    8842            cmp         param_1,param_2                         
ram:000272d0    02d0            beq         LAB_000272d8                            
ram:000272d2    0270            strb        param_3,[param_1,#0x0]                  
ram:000272d4    0130            adds        param_1,#0x1                            
ram:000272d6    fae7            b           FUN_000272ce                            
                            LAB_000272d8:                 ;XREF[2,0]:   00027202,000272d0
ram:000272d8    7047            bx          lr                                      
ram:000272da    0000            movs        r0,r0                                   
ram:000272dc    0420            movs        r0,#0x4                                 
ram:000272de    00e0            b           LAB_000272e0+2                          
                            DAT_000272e0:                 ;XREF[1,1]:   00027204,000272de
ram:000272e0    03200000        undefined4  00002003h                               
                            DAT_000272e4:                 ;XREF[2,0]:   00027210,00027212
ram:000272e4    04200000        undefined4  00002004h                               
                            DAT_000272e8:                 ;XREF[1,0]:   00027226
ram:000272e8    04201cd0        undefined4  D01C2004h                               
                            DAT_000272f0:                 ;XREF[2,0]:   00027228,0002722a
ram:000272f0    0020a438        undefined4  38A42000h                               
                            DAT_000272f8:                 ;XREF[2,0]:   00027230,00027232
ram:000272f8    0200d073        undefined4  73D00002h                               
                            DAT_00027300:                 ;XREF[2,0]:   00027234,0002723a
ram:00027300    02001cd0        undefined4  D01C0002h                               
                            DAT_00027308:                 ;XREF[2,0]:   0002723c,0002723e
ram:00027308    00207438        undefined4  38742000h                               
                            DAT_00027310:                 ;XREF[2,0]:   00027244,00027246
ram:00027310    020000cf        undefined4  CF000002h                               
                            DAT_00027314:                 ;XREF[2,0]:   00027294,00027296
ram:00027314    020000cf        undefined4  CF000002h                               
                            DAT_00027318:                 ;XREF[2,0]:   00027248,0002724e
ram:00027318    020000cf        undefined4  CF000002h                               
                            DAT_00027320:                 ;XREF[2,0]:   00027250,00027252
ram:00027320    020000cf        undefined4  CF000002h                               
                            DAT_00027328:                 ;XREF[2,0]:   00027258,0002725a
ram:00027328    020000cf        undefined4  CF000002h                               
                            DAT_00027330:                 ;XREF[2,0]:   0002725c,00027262
ram:00027330    02004cd0        undefined4  D04C0002h                               
                            DAT_00027338:                 ;XREF[2,0]:   00027264,00027266
ram:00027338    0020a438        undefined4  38A42000h                               
                            DAT_00027340:                 ;XREF[2,0]:   0002726c,0002726e
ram:00027340    00209844        undefined4  44982000h                               
                            DAT_00027344:                 ;XREF[1,0]:   00027276
ram:00027344    00209844        undefined4  44982000h                               
                            DAT_0002734c:                 ;XREF[1,0]:   00027278
ram:0002734c    00209844        undefined4  44982000h                               
                            DAT_00027350:                 ;XREF[2,0]:   00027280,00027282
ram:00027350    00209864        undefined4  64982000h                               
                            DAT_00027358:                 ;XREF[2,0]:   00027290,000272b2
ram:00027358    020029a5        undefined4  A5290002h                               
                            ;************************************************************************************************
                            ;*                                           FUNCTION                                           *
                            ;************************************************************************************************
                            ;undefined FUNC_NMI_0002735c(void)
                                                          ;XREF[0,1]:   0002700a
ram:0002735c    0200            movs        r2,r0                                   
                            ;************************************************************************************************
                            ;*                                           FUNCTION                                           *
                            ;************************************************************************************************
                            ;undefined FUNC_HardFault_0002735e(void)
                                                          ;XREF[1,1]:   0002735e,0002700e
ram:0002735e    fee7            b           FUNC_HardFault_0002735e                 
                            ;************************************************************************************************
                            ;*                                           FUNCTION                                           *
                            ;************************************************************************************************
                            ;undefined FUNC_MemManage_00027360(void)
                                                          ;XREF[1,1]:   00027360,00027012
ram:00027360    fee7            b           FUNC_MemManage_00027360                 
                            ;************************************************************************************************
                            ;*                                           FUNCTION                                           *
                            ;************************************************************************************************
                            ;undefined FUNC_BusFault_00027362(void)
                                                          ;XREF[1,1]:   00027362,00027016
ram:00027362    fee7            b           FUNC_BusFault_00027362                  
                            ;************************************************************************************************
                            ;*                                           FUNCTION                                           *
                            ;************************************************************************************************
                            ;undefined FUNC_UsageFault_00027364(void)
                                                          ;XREF[1,1]:   00027364,0002701a
ram:00027364    fee7            b           FUNC_UsageFault_00027364                
                            ;************************************************************************************************
                            ;*                                           FUNCTION                                           *
                            ;************************************************************************************************
                            ;undefined FUNC_SVCall_00027366(void)
                                                          ;XREF[1,1]:   00027366,0002702e
ram:00027366    fee7            b           FUNC_SVCall_00027366                    
                            ;************************************************************************************************
                            ;*                                           FUNCTION                                           *
                            ;************************************************************************************************
                            ;undefined FUNC_VT_00027368(void)
                                                          ;XREF[1,1]:   00027368,00027032
ram:00027368    fee7            b           FUNC_VT_00027368                        
                            ;************************************************************************************************
                            ;*                                           FUNCTION                                           *
                            ;************************************************************************************************
                            ;undefined FUNC_PendSV_0002736a(void)
                                                          ;XREF[1,1]:   0002736a,0002703a
ram:0002736a    fee7            b           FUNC_PendSV_0002736a                    
                            ;************************************************************************************************
                            ;*                                           FUNCTION                                           *
                            ;************************************************************************************************
                            ;undefined FUNC_SysTick_0002736c(void)
                                                          ;XREF[1,1]:   0002736c,0002703e
ram:0002736c    fee7            b           FUNC_SysTick_0002736c                   
                            ;************************************************************************************************
                            ;*                                           FUNCTION                                           *
                            ;************************************************************************************************
                            ;undefined FUNC_VT_0002736e(void)
                                                          ;XREF[1,37]:  0002736e,00027046,0002704e,00027052
                                                          ;             00027056,00027062,00027066,0002706a
                                                          ;             0002706e,00027072,00027076,0002707a
                                                          ;             0002707e,00027082,0002708a,0002708e
                                                          ;             00027092,00027096,0002709e,000270a2
                                                          ;             000270a6,000270aa,000270ae,000270b2
                                                          ;             000270b6,000270c2,000270c6,000270ca
                                                          ;             000270ce,000270d2,000270d6,000270da
                                                          ;             000270de,000270e2,000270e6,000270ea
                                                          ;             000270f6,000270fe
ram:0002736e    fee7            b           FUNC_VT_0002736e                        
                            LAB_00027370:                 ;XREF[1,0]:   00027370
ram:00027370    fee7            b           LAB_00027370                            
                            LAB_00027372:                 ;XREF[1,1]:   00027376,00027006
ram:00027372    00f002b8        b.w         LAB_0002737a                            
ram:00027376    fff7fcbf        b.w         LAB_00027372                            
                            LAB_0002737a:                 ;XREF[1,0]:   00027372
ram:0002737a    0f48            ldr         r0,[DAT_000273b8]                       ;= 00004770h
ram:0002737c    4ff00701        mov.w       r1,#0x7                                 
ram:00027380    8843            bics        r0,r1                                   
ram:00027382    8546            mov         sp,r0                                   
ram:00027384    0e48            ldr         r0,[DAT_000273c0]                       ;= ED880002h
ram:00027386    8047            blx         r0=>SUB_ed880002                        
ram:00027388    0e48            ldr         r0,[DAT_000273c4]                       ;= CEECE000h
ram:0002738a    0168            ldr         r1,[r0,#0x0]=>DAT_ceece000              
ram:0002738c    41f47001        orr         r1,r1,#0xf00000                         
ram:00027390    0160            str         r1,[r0,#0x0]=>DAT_ceece000              
ram:00027392    bff34f8f        dsb         0xf                                     
ram:00027396    bff36f8f        isb         0xf                                     
ram:0002739a    fff732bf        b.w         LAB_00027202                            
                            DAT_000273b8:                 ;XREF[1,0]:   0002737a
ram:000273b8    70470000        undefined4  00004770h                               
                            DAT_000273c0:                 ;XREF[1,0]:   00027384
ram:000273c0    020088ed        undefined4  ED880002h                               
                            DAT_000273c4:                 ;XREF[1,0]:   00027388
ram:000273c4    00e0ecce        undefined4  CEECE000h                               
                            ;************************************************************************************************
                            ;*                                           FUNCTION                                           *
                            ;************************************************************************************************
                            ;undefined FUN_00027702(void)
          ;local_c       undefined4          -c                      ;XREF[1,0]:   00027706
          ;local_14      undefined4         -14                      ;XREF[1,0]:   0002770e
                                                          ;XREF[1,0]:   0002bdf8
ram:00027702    1fb5            push        {r0,r1,r2,r3,r4,lr}                     
ram:00027704    0021            movs        r1,#0x0                                 
ram:00027706    0390            str         r0,[sp,#local_c+0x18]                   
ram:00027708    01aa            add         r2,sp,#0x4                              
ram:0002770a    44f20100        movw        r0,#0x4001                              
ram:0002770e    cde90111        strd        r1,r1,[sp,#local_14+0x18]               
ram:00027712    00f004f8        bl          FUN_0002771e                            ;undefined FUN_0002771e(void)
ram:00027716    05b0            add         sp,#0x14                                
ram:00027718    5df804fb        pop.w       pc                                      
                            ;************************************************************************************************
                            ;*                                           FUNCTION                                           *
                            ;************************************************************************************************
                            ;undefined FUN_0002771e(void)
                                                          ;XREF[1,0]:   00027712
ram:0002771e    72b6            cpsid       i                                       
ram:00027720    094b            ldr         r3,[DAT_00027748]                       ;= ED00E000h
ram:00027722    1b68            ldr         r3,[r3,#0x0]=>DAT_ed00e000              
ram:00027724    db07            lsls        r3,r3,#0x1f                             
ram:00027726    00d5            bpl         LAB_0002772a                            
ram:00027728    00be            bkpt        0x0                                     
                            LAB_0002772a:                 ;XREF[1,0]:   00027726
ram:0002772a    bff34f8f        dsb         0xf                                     
ram:0002772e    0649            ldr         r1,[DAT_00027748]                       ;= ED00E000h
ram:00027730    074b            ldr         r3,[DAT_00027750]                       ;= E9D005FAh
ram:00027732    ca68            ldr         r2,[r1,#offset DAT_ed00e00c &0xff]      
ram:00027734    02f4e062        and         r2,r2,#0x700                            
ram:00027738    1343            orrs        r3,r2                                   
ram:0002773a    cb60            str         r3,[r1,#offset DAT_ed00e00c &0xff]      
ram:0002773c    bff34f8f        dsb         0xf                                     
                            LAB_00027740:                 ;XREF[1,0]:   00027742
ram:00027740    00bf            nop                                                  
ram:00027742    fde7            b           LAB_00027740                            
ram:00027744    00bf            nop                                                  
                            DAT_00027748:                 ;XREF[2,0]:   00027720,0002772e
ram:00027748    00e000ed        undefined4  ED00E000h                               
                            DAT_00027750:                 ;XREF[1,0]:   00027730
ram:00027750    fa05d0e9        undefined4  E9D005FAh                               
                            ;************************************************************************************************
                            ;*                                           FUNCTION                                           *
                            ;************************************************************************************************
                            ;undefined4 FUN_00027c02(int * param_1, uint param_2, uint param_3, int param_4)
          ;param_1       int *               r0                      
          ;param_2       uint                r1                      
          ;param_3       uint                r2                      
          ;param_4       int                 r3                      
          ;local_2c      undefined4         -2c                      ;XREF[2,0]:   00027c6a,00027c6c
          ;local_30      undefined4         -30                      ;XREF[2,0]:   00027c44,00027c4c
ram:00027c02    2de9f74f        push        {param_1,param_2,param_3,r4,r5,r6,r7,...
ram:00027c06    0d46            mov         r5,param_2                              
ram:00027c08    22f07f44        bic         r4,param_3,#0xff000000                  
ram:00027c0c    0268            ldr         param_3,[param_1,#0x0]                  
ram:00027c0e    4ff48037        mov.w       r7,#0x10000                             
ram:00027c12    05f15006        add.w       r6,r5,#0x50                             
ram:00027c16    8f40            lsls        r7,param_2                              
ram:00027c18    8046            mov         r8,param_1                              
ram:00027c1a    b600            lsls        r6,r6,#0x2                              
ram:00027c1c    02eb8500        add.w       param_1,param_3,r5, lsl #0x2            
ram:00027c20    c2f84873        str.w       r7,[param_3,#0x348]                     
ram:00027c24    b6b2            uxth        r6,r6                                   
ram:00027c26    c2f80873        str.w       r7,[param_3,#0x308]                     
ram:00027c2a    d2f80415        ldr.w       param_2,[param_3,#0x504]                
ram:00027c2e    9946            mov         r9,param_4                              
ram:00027c30    4ff0000b        mov.w       r11,#0x0                                
ram:00027c34    d0f84035        ldr.w       param_4,[param_1,#0x540]                
ram:00027c38    c0f84015        str.w       param_2,[param_1,#0x540]                
ram:00027c3c    42f806b0        str.w       r11,param_3,r6                          
ram:00027c40    5b1a            subs        param_4,param_4,param_2                 
ram:00027c42    9259            ldr         param_3,[param_3,r6]                    
ram:00027c44    0092            str         param_3,[sp,#0x0]=>local_30             
ram:00027c46    23f07f43        bic         param_4,param_4,#0xff000000             
ram:00027c4a    012b            cmp         param_4,#0x1                            
ram:00027c4c    009a            ldr         param_3,[sp,#0x0]=>local_30             
ram:00027c4e    4fea850a        lsl.w       r10,r5,#0x2                             
ram:00027c52    0cd1            bne         LAB_00027c6e                            
ram:00027c54    264b            ldr         param_4,[DAT_00027cf0]                  ;= 68030002h
ram:00027c56    4ff48060        mov.w       param_1,#0x400                          
ram:00027c5a    43f00103        orr         param_4,param_4,#0x1                    
ram:00027c5e    9847            blx         param_4=>SUB_68030002                   
ram:00027c60    d8f80030        ldr.w       param_4,[r8,#0x0]                       
ram:00027c64    43f806b0        str.w       r11,param_4,r6                          
ram:00027c68    9b59            ldr         param_4,[param_4,r6]                    
ram:00027c6a    0193            str         param_4,[sp,#local_2c+0x30]             
ram:00027c6c    019b            ldr         param_4,[sp,#local_2c+0x30]             
                            LAB_00027c6e:                 ;XREF[1,0]:   00027c52
ram:00027c6e    d8f80010        ldr.w       param_2,[r8,#0x0]                       
ram:00027c72    d1f80465        ldr.w       r6,[param_2,#0x504]                     
ram:00027c76    c1f84473        str.w       r7,[param_2,#0x344]                     
ram:00027c7a    a31b            subs        param_4,r4,r6                           
ram:00027c7c    23f07f43        bic         param_4,param_4,#0xff000000             
ram:00027c80    012b            cmp         param_4,#0x1                            
ram:00027c82    1cd1            bne         LAB_00027cbe                            
ram:00027c84    1a4b            ldr         param_4,[DAT_00027cf0]                  ;= 68030002h
ram:00027c86    05f5a875        add.w       r5,r5,#0x150                            
ram:00027c8a    0134            adds        r4,#0x1                                 
ram:00027c8c    43f00103        orr         param_4,param_4,#0x1                    
ram:00027c90    41f82540        str.w       r4,param_2,r5,0x2                       
ram:00027c94    4ff48060        mov.w       param_1,#0x400                          
ram:00027c98    9847            blx         param_4=>SUB_68030002                   
ram:00027c9a    d8f80030        ldr.w       param_4,[r8,#0x0]                       
ram:00027c9e    d3f80435        ldr.w       param_4,[param_4,#0x504]                
ram:00027ca2    9e42            cmp         r6,param_4                              
                            LAB_00027ca4:                 ;XREF[1,0]:   00027cec
ram:00027ca4    09d1            bne         LAB_00027cba                            
                            LAB_00027ca6:                 ;XREF[1,0]:   00027cde
ram:00027ca6    d8f80030        ldr.w       param_4,[r8,#0x0]                       
ram:00027caa    0020            movs        param_1,#0x0                            
ram:00027cac    c3f84473        str.w       r7,[param_4,#0x344]                     
ram:00027cb0    c3f80473        str.w       r7,[param_4,#0x304]                     
                            LAB_00027cb4:                 ;XREF[1,0]:   00027cbc
ram:00027cb4    03b0            add         sp,#0xc                                 
ram:00027cb6    bde8f08f        pop.w       {r4,r5,r6,r7,r8,r9,r10,r11,pc}          
                            LAB_00027cba:                 ;XREF[2,0]:   00027ca4,00027cda
ram:00027cba    0d20            movs        param_1,#0xd                            
ram:00027cbc    fae7            b           LAB_00027cb4                            
                            LAB_00027cbe:                 ;XREF[1,0]:   00027c82
ram:00027cbe    8a44            add         r10,param_2                             
ram:00027cc0    c9f1ff13        rsb.w       param_4,r9,#0xff00ff                    
ram:00027cc4    caf84045        str.w       r4,[r10,#0x540]                         
ram:00027cc8    d1f80405        ldr.w       param_1,[param_2,#0x504]                
ram:00027ccc    221a            subs        param_3,r4,param_1                      
ram:00027cce    013a            subs        param_3,#0x1                            
ram:00027cd0    22f07f42        bic         param_3,param_3,#0xff000000             
ram:00027cd4    03f57f43        add.w       param_4,param_4,#0xff00                 
ram:00027cd8    9342            cmp         param_4,param_3                         
ram:00027cda    eed3            bcc         LAB_00027cba                            
ram:00027cdc    002a            cmp         param_3,#0x0                            
ram:00027cde    e2d1            bne         LAB_00027ca6                            
ram:00027ce0    0134            adds        r4,#0x1                                 
ram:00027ce2    caf84045        str.w       r4,[r10,#0x540]                         
ram:00027ce6    d1f80435        ldr.w       param_4,[param_2,#0x504]                
ram:00027cea    9842            cmp         param_1,param_4                         
ram:00027cec    dae7            b           LAB_00027ca4                            
ram:00027cee    20cf            ldmia       r7!,{r5}                                
                            DAT_00027cf0:                 ;XREF[2,0]:   00027c54,00027c84
ram:00027cf0    02000368        undefined4  68030002h                               
                            ;************************************************************************************************
                            ;*                                           FUNCTION                                           *
                            ;************************************************************************************************
                            ;undefined thunk_FUN_00027d58(void)
                                                          ;XREF[0,1]:   00027086
ram:00027d54    00e0            b           FUN_00027d58                            
ram:00027d56    024b            ldr         r3,[LAB_00027d60]                       
                            ;************************************************************************************************
                            ;*                                           FUNCTION                                           *
                            ;************************************************************************************************
                            ;undefined FUN_00027d58(void)
                                                          ;XREF[1,0]:   00027d54
ram:00027d58    034a            ldr         r2,[DAT_00027d68]                       ;= B5102000h
ram:00027d5a    1b68            ldr         r3,[r3,#0x0]=>DAT_3998bf00              
ram:00027d5c    1068            ldr         r0,[r2,#0x0]=>DAT_b5102000              
ram:00027d5e    1847            bx          r3                                      
                            LAB_00027d60:                 ;XREF[1,0]:   00027d56
ram:00027d60    00bf            nop                                                  
ram:00027d62    9839            subs        r1,#0x98                                
ram:00027d64    0020            movs        r0,#0x0                                 
ram:00027d66    9039            subs        r1,#0x90                                
                            DAT_00027d68:                 ;XREF[1,0]:   00027d58
ram:00027d68    002010b5        undefined4  B5102000h                               
                            ;************************************************************************************************
                            ;*                                           FUNCTION                                           *
                            ;************************************************************************************************
                            ;undefined4 FUN_00027d90(int param_1)
          ;param_1       int                 r0                      
          ;local_1       undefined1          -1                      ;XREF[2,0]:   00027dc0,00027dc4
                                                          ;XREF[1,0]:   00028198
ram:00027d90    82b0            sub         sp,#0x8                                 
                            LAB_00027d92:                 ;XREF[1,0]:   00027dbe
ram:00027d92    50e8022f        ldrex       r2,param_1,#0x8                         
ram:00027d96    c188            ldrh        r1,[param_1,#0x6]                       
ram:00027d98    b2eb324f        cmp.w       r2,r2, ror #0x10                        
ram:00027d9c    4ff00003        mov.w       r3,#0x0                                 
ram:00027da0    17bf            itett       ne                                      
ram:00027da2    92b2            uxth.ne     r2,r2                                   
ram:00027da4    41ea0141        orr.eq.w    r1,r1,r1, lsl #0x10                     
ram:00027da8    42ea0141        orr.ne.w    r1,r2,r1, lsl #0x10                     
ram:00027dac    04e0            b.ne        LAB_00027db8                            
ram:00027dae    4268            ldr         r2,[param_1,#0x4]                       
ram:00027db0    b2eb324f        cmp.w       r2,r2, ror #0x10                        
ram:00027db4    08bf            it          eq                                      
ram:00027db6    0123            mov.eq      r3,#0x1                                 
                            LAB_00027db8:                 ;XREF[1,0]:   00027dac
ram:00027db8    40e80212        strex       r2,r1,param_1,#0x8                      
ram:00027dbc    002a            cmp         r2,#0x0                                 
ram:00027dbe    e8d1            bne         LAB_00027d92                            
ram:00027dc0    8df80730        strb.w      r3,[sp,#local_1+0x8]                    
ram:00027dc4    9df80730        ldrb.w      r3,[sp,#local_1+0x8]                    
ram:00027dc8    002b            cmp         r3,#0x0                                 
ram:00027dca    0cbf            ite         eq                                      
ram:00027dcc    1120            mov.eq      param_1,#0x11                           
ram:00027dce    0020            mov.ne      param_1,#0x0                            
ram:00027dd0    02b0            add         sp,#0x8                                 
ram:00027dd2    7047            bx          lr                                      
                            ;************************************************************************************************
                            ;*                                           FUNCTION                                           *
                            ;************************************************************************************************
                            ;undefined FUN_00027ebe(int param_1, uint param_2)
          ;param_1       int                 r0                      
          ;param_2       uint                r1                      
                                                          ;XREF[4,0]:   0002bd60,0002be22,0002be2a,0002be38
ram:00027ebe    01f01f02        and         r2,param_2,#0x1f                        
ram:00027ec2    4b09            lsrs        r3,param_2,#0x5                         
ram:00027ec4    0121            movs        param_2,#0x1                            
ram:00027ec6    9140            lsls        param_2,r2                              
ram:00027ec8    00eb8300        add.w       param_1,param_1,r3, lsl #0x2            
ram:00027ecc    00f02ab8        b.w         LAB_00027f24                            
                            ;************************************************************************************************
                            ;*                                           FUNCTION                                           *
                            ;************************************************************************************************
                            ;undefined FUN_00027ed0(int param_1, uint param_2)
          ;param_1       int                 r0                      
          ;param_2       uint                r1                      
                                                          ;XREF[3,0]:   0002bd64,0002be10,0002be42
ram:00027ed0    01f01f03        and         r3,param_2,#0x1f                        
ram:00027ed4    0122            movs        r2,#0x1                                 
ram:00027ed6    9a40            lsls        r2,r3                                   
ram:00027ed8    4b09            lsrs        r3,param_2,#0x5                         
ram:00027eda    00eb8300        add.w       param_1,param_1,r3, lsl #0x2            
ram:00027ede    d143            mvns        param_2,r2                              
ram:00027ee0    00f02cb8        b.w         FUN_00027f3c                            ;undefined FUN_00027f3c(uint * param_...
                            ;************************************************************************************************
                            ;*                                           FUNCTION                                           *
                            ;************************************************************************************************
                            ;uint FUN_00027ee4(int param_1, uint param_2)
          ;param_1       int                 r0                      
          ;param_2       uint                r1                      
                                                          ;XREF[1,0]:   0002bd8c
ram:00027ee4    4b09            lsrs        r3,param_2,#0x5                         
ram:00027ee6    01f01f01        and         param_2,param_2,#0x1f                   
ram:00027eea    50f82300        ldr.w       param_1,param_1,r3,0x2                  
ram:00027eee    c840            lsrs        param_1,param_2                         
ram:00027ef0    00f00100        and         param_1,param_1,#0x1                    
ram:00027ef4    7047            bx          lr                                      
                            ;************************************************************************************************
                            ;*                                           FUNCTION                                           *
                            ;************************************************************************************************
                            ;undefined4 FUN_00027ef6(undefined4 * param_1, undefined4 param_2)
          ;param_1       undefined4 *        r0                      
          ;param_2       undefined4          r1                      
                                                          ;XREF[1,0]:   00027fe4
ram:00027ef6    10b5            push        {r4,lr}                                 
ram:00027ef8    0346            mov         r3,param_1                              
                            LAB_00027efa:                 ;XREF[1,0]:   00027f08
ram:00027efa    53e8000f        ldrex       param_1,r3,#0x0                         
ram:00027efe    0a46            mov         r2,param_2                              
ram:00027f00    43e80024        strex       r4,r2,r3,#0x0                           
ram:00027f04    94f0000f        teq         r4,#0x0                                 
ram:00027f08    f7d1            bne         LAB_00027efa                            
ram:00027f0a    10bd            pop         {r4,pc}                                 
                            ;************************************************************************************************
                            ;*                                           FUNCTION                                           *
                            ;************************************************************************************************
                            ;undefined FUN_00027f0c(uint * param_1, uint param_2)
          ;param_1       uint *              r0                      
          ;param_2       uint                r1                      
                                                          ;XREF[1,0]:   00027f56
ram:00027f0c    10b5            push        {r4,lr}                                 
ram:00027f0e    0346            mov         r3,param_1                              
                            LAB_00027f10:                 ;XREF[1,0]:   00027f20
ram:00027f10    53e8000f        ldrex       param_1,r3,#0x0                         
ram:00027f14    40ea0102        orr.w       r2,param_1,param_2                      
ram:00027f18    43e80024        strex       r4,r2,r3,#0x0                           
ram:00027f1c    94f0000f        teq         r4,#0x0                                 
ram:00027f20    f6d1            bne         LAB_00027f10                            
ram:00027f22    10bd            pop         {r4,pc}                                 
                            LAB_00027f24:                 ;XREF[1,0]:   00027ecc
ram:00027f24    10b5            push        {r4,lr}                                 
ram:00027f26    0346            mov         r3,param_1                              
                            LAB_00027f28:                 ;XREF[1,0]:   00027f38
ram:00027f28    53e8002f        ldrex       r2,r3,#0x0                              
ram:00027f2c    42ea0100        orr.w       param_1,r2,param_2                      
ram:00027f30    43e80004        strex       r4,param_1,r3,#0x0                      
ram:00027f34    94f0000f        teq         r4,#0x0                                 
ram:00027f38    f6d1            bne         LAB_00027f28                            
ram:00027f3a    10bd            pop         {r4,pc}                                 
                            ;************************************************************************************************
                            ;*                                           FUNCTION                                           *
                            ;************************************************************************************************
                            ;undefined FUN_00027f3c(uint * param_1, uint param_2)
          ;param_1       uint *              r0                      
          ;param_2       uint                r1                      
                                                          ;XREF[2,0]:   00027ee0,0002bdd8
ram:00027f3c    10b5            push        {r4,lr}                                 
ram:00027f3e    0346            mov         r3,param_1                              
                            LAB_00027f40:                 ;XREF[1,0]:   00027f50
ram:00027f40    53e8002f        ldrex       r2,r3,#0x0                              
ram:00027f44    02ea0100        and.w       param_1,r2,param_2                      
ram:00027f48    43e80004        strex       r4,param_1,r3,#0x0                      
ram:00027f4c    94f0000f        teq         r4,#0x0                                 
ram:00027f50    f6d1            bne         LAB_00027f40                            
ram:00027f52    10bd            pop         {r4,pc}                                 
ram:00027f54    0121            movs        r1,#0x1                                 
ram:00027f56    fff7d9bf        b.w         FUN_00027f0c                            ;undefined FUN_00027f0c(uint * param_...
                            ;************************************************************************************************
                            ;*                                           FUNCTION                                           *
                            ;************************************************************************************************
                            ;undefined FUN_00027f5a(void)
                                                          ;XREF[1,0]:   00028048
ram:00027f5a    33df            svc         0x33                                    
ram:00027f5c    7047            bx          lr                                      
ram:00027f5e    41df            svc         0x41                                    
ram:00027f60    7047            bx          lr                                      
                            ;************************************************************************************************
                            ;*                                           FUNCTION                                           *
                            ;************************************************************************************************
                            ;undefined4 FUN_00027f62(void)
ram:00027f62    064b            ldr         r3,[LAB_00027f7c]                       
ram:00027f64    10b5            push        {r4,lr}                                 
ram:00027f66    0024            movs        r4,#0x0                                 
ram:00027f68    1c70            strb        r4,[r3,#0x0]=>DAT_39a5bd10              
ram:00027f6a    054b            ldr         r3=>DAT_39a82000,[DAT_00027f80]         ;= 39A82000h
ram:00027f6c    1c60            str         r4,[r3,#0x0]=>DAT_39a82000              
ram:00027f6e    bff35f8f        dmb         0x1f                                    
ram:00027f72    0449            ldr         r1,[DAT_00027f84]                       ;= CF282000h
ram:00027f74    0548            ldr         r0,[DAT_00027f8c]                       ;= B5072000h
ram:00027f76    00f082f8        bl          FUN_0002807e                            ;undefined FUN_0002807e(int * * param...
ram:00027f7a    2046            mov         r0,r4                                   
                            LAB_00027f7c:                 ;XREF[1,0]:   00027f62
ram:00027f7c    10bd            pop         {r4,pc}                                 
ram:00027f7e    a539            subs        r1,#0xa5                                
                            DAT_00027f80:                 ;XREF[1,0]:   00027f6a
ram:00027f80    0020a839        undefined4  39A82000h                               
                            DAT_00027f84:                 ;XREF[1,0]:   00027f72
ram:00027f84    002028cf        undefined4  CF282000h                               
                            DAT_00027f8c:                 ;XREF[1,0]:   00027f74
ram:00027f8c    002007b5        undefined4  B5072000h                               
                            ;************************************************************************************************
                            ;*                                           FUNCTION                                           *
                            ;************************************************************************************************
                            ;undefined FUN_00027fda(int param_1)
          ;param_1       int                 r0                      
                                                          ;XREF[1,0]:   0002cb36
ram:00027fda    70b5            push        {r4,r5,r6,lr}                           
ram:00027fdc    224d            ldr         r5,[DAT_00028068]                       ;= 39A52000h
ram:00027fde    0446            mov         r4,param_1                              
ram:00027fe0    0121            movs        r1,#0x1                                 
ram:00027fe2    2846            mov         param_1=>DAT_39a52000,r5                
ram:00027fe4    fff787ff        bl          FUN_00027ef6                            ;undefined4 FUN_00027ef6(undefined4 *...
ram:00027fe8    bff35f8f        dmb         0x1f                                    
ram:00027fec    2e46            mov         r6,r5                                   
ram:00027fee    38b9            cbnz        param_1,LAB_00028000                    
ram:00027ff0    042c            cmp         r4,#0x4                                 
ram:00027ff2    0ad0            beq         LAB_0002800a                            
ram:00027ff4    1d4b            ldr         r3,[DAT_0002806c]                       ;= 39A42000h
ram:00027ff6    1a78            ldrb        r2,[r3,#0x0]=>DAT_39a42000              
ram:00027ff8    1ab1            cbz         r2,LAB_00028002                         
ram:00027ffa    bff35f8f        dmb         0x1f                                    
ram:00027ffe    2860            str         param_1,[r5,#0x0]=>DAT_39a52000         
                            LAB_00028000:                 ;XREF[2,0]:   00027fee,00028064
ram:00028000    70bd            pop         {r4,r5,r6,pc}                           
                            LAB_00028002:                 ;XREF[1,0]:   00027ff8
ram:00028002    1a4a            ldr         r2,[DAT_0002806c]                       ;= 39A42000h
ram:00028004    1470            strb        r4,[r2,#0x0]=>DAT_39a42000              
ram:00028006    0122            movs        r2,#0x1                                 
ram:00028008    1a70            strb        r2,[r3,#0x0]=>DAT_39a42000              
                            LAB_0002800a:                 ;XREF[1,0]:   00027ff2
ram:0002800a    194c            ldr         r4,[DAT_00028070]                       ;= 399C2000h
ram:0002800c    184d            ldr         r5,[DAT_00028070]                       ;= 399C2000h
                            LAB_0002800e:                 ;XREF[1,0]:   00028040
ram:0002800e    6368            ldr         r3,[r4,#offset DAT_399c2004 &0xff]      
ram:00028010    2878            ldrb        param_1,[r5,#0x0]=>DAT_399c2000         
ram:00028012    7bb9            cbnz        r3,LAB_00028034                         
ram:00028014    0238            subs        param_1,#0x2                            
ram:00028016    0128            cmp         param_1,#0x1                            
ram:00028018    13d8            bhi         LAB_00028042                            
ram:0002801a    bff34f8f        dsb         0xf                                     
ram:0002801e    1549            ldr         r1,[DAT_00028074]                       ;= ED002000h
ram:00028020    164b            ldr         r3,[DAT_0002807c]                       ;= FAh
ram:00028022    ca68            ldr         r2,[r1,#offset DAT_ed00200c &0xff]      
ram:00028024    02f4e062        and         r2,r2,#0x700                            
ram:00028028    1343            orrs        r3,r2                                   
ram:0002802a    cb60            str         r3,[r1,#offset DAT_ed00200c &0xff]      
ram:0002802c    bff34f8f        dsb         0xf                                     
                            LAB_00028030:                 ;XREF[1,0]:   00028032
ram:00028030    00bf            nop                                                  
ram:00028032    fde7            b           LAB_00028030                            
                            LAB_00028034:                 ;XREF[1,0]:   00028012
ram:00028034    1b68            ldr         r3,[r3,#0x0]                            
ram:00028036    9847            blx         r3                                      
ram:00028038    88b1            cbz         param_1,LAB_0002805e                    
ram:0002803a    2046            mov         param_1=>DAT_399c2000,r4                
ram:0002803c    00f029f8        bl          FUN_00028092                            ;undefined FUN_00028092(int * param_1)
ram:00028040    e5e7            b           LAB_0002800e                            
                            LAB_00028042:                 ;XREF[1,0]:   00028018
ram:00028042    04f0e6fb        bl          FUN_0002c812                            ;undefined FUN_0002c812(void)
ram:00028046    08b1            cbz         param_1,LAB_0002804c                    
ram:00028048    fff787ff        bl          FUN_00027f5a                            ;undefined FUN_00027f5a(void)
                            LAB_0002804c:                 ;XREF[1,0]:   00028046
ram:0002804c    4ff08043        mov.w       r3,#0x40000000                          
ram:00028050    0122            movs        r2,#0x1                                 
ram:00028052    c3f80025        str.w       r2,[r3,#offset DAT_40000500 &0xffff]    
ram:00028056    bff34f8f        dsb         0xf                                     
                            LAB_0002805a:                 ;XREF[1,0]:   0002805c
ram:0002805a    20bf            wfe                                                  
ram:0002805c    fde7            b           LAB_0002805a                            
                            LAB_0002805e:                 ;XREF[1,0]:   00028038
ram:0002805e    bff35f8f        dmb         0x1f                                    
ram:00028062    3060            str         param_1,[r6,#0x0]=>DAT_39a52000         
ram:00028064    cce7            b           LAB_00028000                            
ram:00028066    a839            subs        r1,#0xa8                                
                            DAT_00028068:                 ;XREF[1,0]:   00027fdc
ram:00028068    0020a539        undefined4  39A52000h                               
                            DAT_0002806c:                 ;XREF[2,0]:   00027ff4,00028002
ram:0002806c    0020a439        undefined4  39A42000h                               
                            DAT_00028070:                 ;XREF[2,0]:   0002800a,0002800c
ram:00028070    00209c39        undefined4  399C2000h                               
                            DAT_00028074:                 ;XREF[1,0]:   0002801e
ram:00028074    002000ed        undefined4  ED002000h                               
                            DAT_0002807c:                 ;XREF[1,0]:   00028020
                            ;************************************************************************************************
                            ;*                                           FUNCTION                                           *
                            ;************************************************************************************************
                            ;undefined FUN_0002807e(int * * param_1, int * param_2)
          ;param_1       int * *             r0                      
          ;param_2       int *               r1                      
                                                          ;XREF[3,0]:   00027f76,0002c66a,0002c824
ram:0002807e    0b68            ldr         r3,[param_2,#0x0]                       
ram:00028080    4a68            ldr         r2,[param_2,#0x4]                       
ram:00028082    4360            str         r3,[param_1,#0x4]                       
ram:00028084    9342            cmp         r3,r2                                   
ram:00028086    08bf            it          eq                                      
ram:00028088    0023            mov.eq      r3,#0x0                                 
ram:0002808a    0160            str         param_2,[param_1,#0x0]                  
ram:0002808c    08bf            it          eq                                      
ram:0002808e    4360            str.eq      r3,[param_1,#0x4]                       
ram:00028090    7047            bx          lr                                      
                            ;************************************************************************************************
                            ;*                                           FUNCTION                                           *
                            ;************************************************************************************************
                            ;undefined FUN_00028092(int * param_1)
          ;param_1       int *               r0                      
                                                          ;XREF[3,0]:   0002803c,0002c682,0002c83a
ram:00028092    4368            ldr         r3,[param_1,#0x4]                       
ram:00028094    43b1            cbz         r3,LAB_000280a8                         
ram:00028096    0268            ldr         r2,[param_1,#0x0]                       
ram:00028098    9168            ldr         r1,[r2,#0x8]                            
ram:0002809a    5268            ldr         r2,[r2,#0x4]                            
ram:0002809c    0b44            add         r3,r1                                   
ram:0002809e    9342            cmp         r3,r2                                   
ram:000280a0    4360            str         r3,[param_1,#0x4]                       
ram:000280a2    04bf            itt         eq                                      
ram:000280a4    0023            mov.eq      r3,#0x0                                 
ram:000280a6    4360            str.eq      r3,[param_1,#0x4]                       
                            LAB_000280a8:                 ;XREF[1,0]:   00028094
ram:000280a8    7047            bx          lr                                      
                            ;************************************************************************************************
                            ;*                                           FUNCTION                                           *
                            ;************************************************************************************************
                            ;undefined FUN_000280aa(int param_1, int * * param_2)
          ;param_1       int                 r0                      
          ;param_2       int * *             r1                      
ram:000280aa    70b5            push        {r4,r5,r6,lr}                           
ram:000280ac    4468            ldr         r4,[param_1,#0x4]                       
ram:000280ae    0646            mov         r6,param_1                              
ram:000280b0    0d46            mov         r5,param_2                              
                            LAB_000280b2:                 ;XREF[1,0]:   000280c8
ram:000280b2    2068            ldr         param_1,[r4,#0x0]                       
ram:000280b4    18b1            cbz         param_1,LAB_000280be                    
ram:000280b6    b368            ldr         r3,[r6,#0x8]                            
ram:000280b8    2946            mov         param_2,r5                              
ram:000280ba    9847            blx         r3                                      
ram:000280bc    18b9            cbnz        param_1,LAB_000280c6                    
                            LAB_000280be:                 ;XREF[1,0]:   000280b4
ram:000280be    2368            ldr         r3,[r4,#0x0]                            
ram:000280c0    2b60            str         r3,[r5,#0x0]                            
ram:000280c2    2560            str         r5,[r4,#0x0]                            
ram:000280c4    70bd            pop         {r4,r5,r6,pc}                           
                            LAB_000280c6:                 ;XREF[1,0]:   000280bc
ram:000280c6    2468            ldr         r4,[r4,#0x0]                            
ram:000280c8    f3e7            b           LAB_000280b2                            
ram:000280ca    4368            ldr         r3,[r0,#0x4]                            
ram:000280cc    1868            ldr         r0,[r3,#0x0]                            
ram:000280ce    08b1            cbz         r0,FUN_000280d4                         
ram:000280d0    0268            ldr         r2,[r0,#0x0]                            
ram:000280d2    1a60            str         r2,[r3,#0x0]                            
                            ;************************************************************************************************
                            ;*                                           FUNCTION                                           *
                            ;************************************************************************************************
                            ;undefined FUN_000280d4(void)
                                                          ;XREF[1,0]:   000280ce
ram:000280d4    7047            bx          lr                                      
ram:000280d6    4368            ldr         r3,[r0,#0x4]                            
ram:000280d8    1868            ldr         r0,[r3,#0x0]                            
ram:000280da    7047            bx          lr                                      
ram:000280dc    4368            ldr         r3,[r0,#0x4]                            
ram:000280de    1868            ldr         r0,[r3,#0x0]                            
                            LAB_000280e0:                 ;XREF[1,0]:   000280f4
ram:000280e0    00b9            cbnz        r0,LAB_000280e4                         
ram:000280e2    7047            bx          lr                                      
                            LAB_000280e4:                 ;XREF[1,0]:   000280e0
ram:000280e4    8842            cmp         r0,r1                                   
ram:000280e6    03d1            bne         LAB_000280f0                            
ram:000280e8    0268            ldr         r2,[r0,#0x0]                            
ram:000280ea    1a60            str         r2,[r3,#0x0]                            
ram:000280ec    0120            movs        r0,#0x1                                 
ram:000280ee    7047            bx          lr                                      
                            LAB_000280f0:                 ;XREF[1,0]:   000280e6
ram:000280f0    0346            mov         r3,r0                                   
ram:000280f2    0068            ldr         r0,[r0,#0x0]                            
ram:000280f4    f4e7            b           LAB_000280e0                            
ram:000280f6    29df            svc         0x29                                    
ram:000280f8    7047            bx          lr                                      
ram:000280fa    28df            svc         0x28                                    
ram:000280fc    7047            bx          lr                                      
                            ;************************************************************************************************
                            ;*                                           FUNCTION                                           *
                            ;************************************************************************************************
                            ;undefined FUN_000280fe(int * param_1, undefined4 param_2)
          ;param_1       int *               r0                      
          ;param_2       undefined4          r1                      
          ;local_14      undefined4         -14                      ;XREF[1,0]:   00028118
          ;local_18      undefined4         -18                      ;XREF[1,0]:   0002813c
          ;local_1c      undefined4         -1c                      ;XREF[1,0]:   00028138
          ;local_20      undefined4         -20                      ;XREF[2,0]:   00028134,0002814a
          ;local_24      undefined4         -24                      ;XREF[1,0]:   0002811c
          ;local_28      undefined1         -28                      ;XREF[2,0]:   0002812e,00028142
ram:000280fe    70b5            push        {r4,r5,r6,lr}                           
ram:00028100    0368            ldr         r3,[param_1,#0x0]                       
ram:00028102    9e68            ldr         r6,[r3,#0x8]                            
ram:00028104    86b0            sub         sp,#0x18                                
ram:00028106    0446            mov         r4,param_1                              
ram:00028108    0d46            mov         r5,param_2                              
ram:0002810a    6eb1            cbz         r6,LAB_00028128                         
ram:0002810c    1422            movs        r2,#0x14                                
ram:0002810e    0021            movs        param_2,#0x0                            
ram:00028110    6846            mov         param_1,sp                              
ram:00028112    04f03dfe        bl          FUN_0002cd90                            ;undefined4 * FUN_0002cd90(undefined4...
ram:00028116    a368            ldr         r3,[r4,#0x8]                            
ram:00028118    0593            str         r3,[sp,#local_14+0x28]                  
ram:0002811a    2379            ldrb        r3,[r4,#0x4]                            
ram:0002811c    0195            str         r5,[sp,#local_24+0x28]                  
ram:0002811e    2bb1            cbz         r3,LAB_0002812c                         
ram:00028120    012b            cmp         r3,#0x1                                 
ram:00028122    0dd0            beq         LAB_00028140                            
                            LAB_00028124:                 ;XREF[1,0]:   0002813e
ram:00028124    6846            mov         param_1,sp                              
ram:00028126    b047            blx         r6                                      
                            LAB_00028128:                 ;XREF[1,0]:   0002810a
ram:00028128    06b0            add         sp,#0x18                                
ram:0002812a    70bd            pop         {r4,r5,r6,pc}                           
                            LAB_0002812c:                 ;XREF[1,0]:   0002811e
ram:0002812c    0123            movs        r3,#0x1                                 
ram:0002812e    8df80030        strb.w      r3,[sp,#0x0]=>local_28                  
ram:00028132    2369            ldr         r3,[r4,#0x10]                           
ram:00028134    0293            str         r3,[sp,#local_20+0x28]                  
ram:00028136    e368            ldr         r3,[r4,#0xc]                            
ram:00028138    0393            str         r3,[sp,#local_1c+0x28]                  
                            LAB_0002813a:                 ;XREF[1,0]:   0002814c
ram:0002813a    6369            ldr         r3,[r4,#0x14]                           
ram:0002813c    0493            str         r3,[sp,#local_18+0x28]                  
ram:0002813e    f1e7            b           LAB_00028124                            
                            LAB_00028140:                 ;XREF[1,0]:   00028122
ram:00028140    0223            movs        r3,#0x2                                 
ram:00028142    8df80030        strb.w      r3,[sp,#0x0]=>local_28                  
ram:00028146    e368            ldr         r3,[r4,#0xc]                            
ram:00028148    1b03            lsls        r3,r3,#0xc                              
ram:0002814a    0293            str         r3,[sp,#local_20+0x28]                  
ram:0002814c    f5e7            b           LAB_0002813a                            
ram:0002814e    0846            mov         r0,r1                                   
ram:00028150    7047            bx          lr                                      
ram:00028152    0020            movs        r0,#0x0                                 
ram:00028154    7047            bx          lr                                      
ram:00028156    024b            ldr         r3,[LAB_00028160]                       
ram:00028158    187a            ldrb        r0,[r3,#0x8]=>DAT_3a484778              
ram:0002815a    0038            subs        r0,#0x0                                 
ram:0002815c    18bf            it          ne                                      
ram:0002815e    0120            mov.ne      r0,#0x1                                 
                            LAB_00028160:                 ;XREF[1,0]:   00028156
ram:00028160    7047            bx          lr                                      
ram:00028162    483a            subs        r2,#0x48                                
ram:00028164    0020            movs        r0,#0x0                                 
ram:00028166    034b            ldr         r3,[LAB_00028174]                       
ram:00028168    187a            ldrb        r0,[r3,#0x8]=>DAT_3a484778              
ram:0002816a    0122            movs        r2,#0x1                                 
ram:0002816c    b0fa80f0        clz         r0,r0                                   
ram:00028170    5a74            strb        r2,[r3,#0x11]=>DAT_3a484781             
ram:00028172    4009            lsrs        r0,r0,#0x5                              
                            LAB_00028174:                 ;XREF[1,0]:   00028166
ram:00028174    7047            bx          lr                                      
ram:00028176    483a            subs        r2,#0x48                                
ram:00028178    0020            movs        r0,#0x0                                 
ram:0002817a    08b5            push        {r3,lr}                                 
ram:0002817c    1046            mov         r0,r2                                   
ram:0002817e    1a46            mov         r2,r3                                   
ram:00028180    04f0ddfd        bl          FUN_0002cd3e                            ;undefined4 * FUN_0002cd3e(undefined4...
ram:00028184    0020            movs        r0,#0x0                                 
ram:00028186    08bd            pop         {r3,pc}                                 
ram:00028188    0000            movs        r0,r0                                   
ram:0002818a    08b5            push        {r3,lr}                                 
ram:0002818c    1422            movs        r2,#0x14                                
ram:0002818e    0021            movs        r1,#0x0                                 
ram:00028190    0448            ldr         r0,[DAT_000281a4]                       ;= 3A382000h
ram:00028192    04f0fdfd        bl          FUN_0002cd90                            ;undefined4 * FUN_0002cd90(undefined4...
ram:00028196    0348            ldr         r0,[DAT_000281a4]                       ;= 3A382000h
ram:00028198    fff7fafd        bl          FUN_00027d90                            ;undefined4 FUN_00027d90(int param_1)
ram:0002819c    0020            movs        r0,#0x0                                 
ram:0002819e    08bd            pop         {r3,pc}                                 
ram:000281a0    00bf            nop                                                  
ram:000281a2    483a            subs        r2,#0x48                                
                            DAT_000281a4:                 ;XREF[2,0]:   00028190,00028196
ram:000281a4    0020383a        undefined4  3A382000h                               
                            ;************************************************************************************************
                            ;*                                           FUNCTION                                           *
                            ;************************************************************************************************
                            ;undefined4 FUN_00028426(int * param_1, uint param_2, int param_3, int param_4)
          ;param_1       int *               r0                      
          ;param_2       uint                r1                      
          ;param_3       int                 r2                      
          ;param_4       int                 r3                      
                                                          ;XREF[1,0]:   0002ac06
ram:00028426    f0b4            push        {r4,r5,r6,r7}                           
ram:00028428    a8b1            cbz         param_1,LAB_00028456                    
ram:0002842a    a2b1            cbz         param_3,LAB_00028456                    
ram:0002842c    d0f800c0        ldr.w       r12,[param_1,#0x0]                      
ram:00028430    bcf1000f        cmp.w       r12,#0x0                                
ram:00028434    12d0            beq         LAB_0002845c                            
ram:00028436    9bb1            cbz         param_4,LAB_00028460                    
ram:00028438    8d07            lsls        r5,param_2,#0x1e                        
ram:0002843a    13d1            bne         LAB_00028464                            
ram:0002843c    c568            ldr         r5,[param_1,#0xc]                       
ram:0002843e    a942            cmp         param_2,r5                              
ram:00028440    10d3            bcc         LAB_00028464                            
ram:00028442    4d1e            subs        r5,param_2,#0x1                         
ram:00028444    ec18            adds        r4,r5,param_4                           
ram:00028446    0569            ldr         r5,[param_1,#0x10]                      
ram:00028448    ac42            cmp         r4,r5                                   
ram:0002844a    0bd8            bhi         LAB_00028464                            
ram:0002844c    dcf80840        ldr.w       r4,[r12,#0x8]                           
ram:00028450    a446            mov         r12,r4                                  
ram:00028452    f0bc            pop         {r4,r5,r6,r7}                           
ram:00028454    6047            bx          r12                                     
                            LAB_00028456:                 ;XREF[2,0]:   00028428,0002842a
ram:00028456    0e20            movs        param_1,#0xe                            
                            LAB_00028458:                 ;XREF[3,0]:   0002845e,00028462,00028466
ram:00028458    f0bc            pop         {r4,r5,r6,r7}                           
ram:0002845a    7047            bx          lr                                      
                            LAB_0002845c:                 ;XREF[1,0]:   00028434
ram:0002845c    0820            movs        param_1,#0x8                            
ram:0002845e    fbe7            b           LAB_00028458                            
                            LAB_00028460:                 ;XREF[1,0]:   00028436
ram:00028460    0920            movs        param_1,#0x9                            
ram:00028462    f9e7            b           LAB_00028458                            
                            LAB_00028464:                 ;XREF[3,0]:   0002843a,00028440,0002844a
ram:00028464    1020            movs        param_1,#0x10                           
ram:00028466    f7e7            b           LAB_00028458                            
                            ;************************************************************************************************
                            ;*                                           FUNCTION                                           *
                            ;************************************************************************************************
                            ;undefined4 FUN_00028468(int * param_1, uint param_2, uint param_3, uint param_4)
          ;param_1       int *               r0                      
          ;param_2       uint                r1                      
          ;param_3       uint                r2                      
          ;param_4       uint                r3                      
                                                          ;XREF[1,0]:   0002ac4c
ram:00028468    2de9f041        push        {r4,r5,r6,r7,r8,lr}                     
ram:0002846c    08b3            cbz         param_1,LAB_000284b2                    
ram:0002846e    02b3            cbz         param_3,LAB_000284b2                    
ram:00028470    d0f800e0        ldr.w       lr,[param_1,#0x0]                       
ram:00028474    bef1000f        cmp.w       lr,#0x0                                 
ram:00028478    1ed0            beq         LAB_000284b8                            
ram:0002847a    fbb1            cbz         param_4,LAB_000284bc                    
ram:0002847c    4568            ldr         r5,[param_1,#0x4]                       
ram:0002847e    d5f80480        ldr.w       r8,[r5,#0x4]                            
ram:00028482    b3fbf8f5        udiv        r5,param_4,r8                           
ram:00028486    08fb1535        mls         r5,r8,r5,param_4                        
ram:0002848a    bdb9            cbnz        r5,LAB_000284bc                         
ram:0002848c    42ea010c        orr.w       r12,param_3,param_2                     
ram:00028490    1cf0030f        tst         r12,#0x3                                
ram:00028494    14d1            bne         LAB_000284c0                            
ram:00028496    c568            ldr         r5,[param_1,#0xc]                       
ram:00028498    a942            cmp         param_2,r5                              
ram:0002849a    11d3            bcc         LAB_000284c0                            
ram:0002849c    4d1e            subs        r5,param_2,#0x1                         
ram:0002849e    ec18            adds        r4,r5,param_4                           
ram:000284a0    0569            ldr         r5,[param_1,#0x10]                      
ram:000284a2    ac42            cmp         r4,r5                                   
ram:000284a4    0cd8            bhi         LAB_000284c0                            
ram:000284a6    def80c40        ldr.w       r4,[lr,#0xc]                            
ram:000284aa    a446            mov         r12,r4                                  
ram:000284ac    bde8f041        pop.w       {r4,r5,r6,r7,r8,lr}                     
ram:000284b0    6047            bx          r12                                     
                            LAB_000284b2:                 ;XREF[2,0]:   0002846c,0002846e
ram:000284b2    0e20            movs        param_1,#0xe                            
                            LAB_000284b4:                 ;XREF[3,0]:   000284ba,000284be,000284c2
ram:000284b4    bde8f081        pop.w       {r4,r5,r6,r7,r8,pc}                     
                            LAB_000284b8:                 ;XREF[1,0]:   00028478
ram:000284b8    0820            movs        param_1,#0x8                            
ram:000284ba    fbe7            b           LAB_000284b4                            
                            LAB_000284bc:                 ;XREF[2,0]:   0002847a,0002848a
ram:000284bc    0920            movs        param_1,#0x9                            
ram:000284be    f9e7            b           LAB_000284b4                            
                            LAB_000284c0:                 ;XREF[3,0]:   00028494,0002849a,000284a4
ram:000284c0    1020            movs        param_1,#0x10                           
ram:000284c2    f7e7            b           LAB_000284b4                            
                            ;************************************************************************************************
                            ;*                                           FUNCTION                                           *
                            ;************************************************************************************************
                            ;undefined4 FUN_000284c4(int * param_1, uint param_2, int param_3)
          ;param_1       int *               r0                      
          ;param_2       uint                r1                      
          ;param_3       int                 r2                      
                                                          ;XREF[1,0]:   0002a904
ram:000284c4    f0b5            push        {r4,r5,r6,r7,lr}                        
ram:000284c6    d8b1            cbz         param_1,LAB_00028500                    
ram:000284c8    d0f800c0        ldr.w       r12,[param_1,#0x0]                      
ram:000284cc    bcf1000f        cmp.w       r12,#0x0                                
ram:000284d0    18d0            beq         LAB_00028504                            
ram:000284d2    cab1            cbz         param_3,LAB_00028508                    
ram:000284d4    4768            ldr         r7,[param_1,#0x4]                       
ram:000284d6    d7f800e0        ldr.w       lr,[r7,#0x0]                            
ram:000284da    0ef1ff37        add.w       r7,lr,#0xffffffff                       
ram:000284de    0f42            tst         r7,param_2                              
ram:000284e0    14d1            bne         LAB_0002850c                            
ram:000284e2    c768            ldr         r7,[param_1,#0xc]                       
ram:000284e4    b942            cmp         param_2,r7                              
ram:000284e6    11d3            bcc         LAB_0002850c                            
ram:000284e8    0469            ldr         r4,[param_1,#0x10]                      
ram:000284ea    4d1e            subs        r5,param_2,#0x1                         
ram:000284ec    0efb0255        mla         r5,lr,param_3,r5                        
ram:000284f0    a542            cmp         r5,r4                                   
ram:000284f2    0bd8            bhi         LAB_0002850c                            
ram:000284f4    dcf81040        ldr.w       r4,[r12,#0x10]                          
ram:000284f8    a446            mov         r12,r4                                  
ram:000284fa    bde8f040        pop.w       {r4,r5,r6,r7,lr}                        
ram:000284fe    6047            bx          r12                                     
                            LAB_00028500:                 ;XREF[1,0]:   000284c6
ram:00028500    0e20            movs        param_1,#0xe                            
                            LAB_00028502:                 ;XREF[3,0]:   00028506,0002850a,0002850e
ram:00028502    f0bd            pop         {r4,r5,r6,r7,pc}                        
                            LAB_00028504:                 ;XREF[1,0]:   000284d0
ram:00028504    0820            movs        param_1,#0x8                            
ram:00028506    fce7            b           LAB_00028502                            
                            LAB_00028508:                 ;XREF[1,0]:   000284d2
ram:00028508    0920            movs        param_1,#0x9                            
ram:0002850a    fae7            b           LAB_00028502                            
                            LAB_0002850c:                 ;XREF[3,0]:   000284e0,000284e6,000284f2
ram:0002850c    1020            movs        param_1,#0x10                           
ram:0002850e    f8e7            b           LAB_00028502                            
ram:00028510    0000            movs        r0,r0                                   
                            ;************************************************************************************************
                            ;*                                           FUNCTION                                           *
                            ;************************************************************************************************
                            ;int FUN_00028512(int * param_1)
          ;param_1       int *               r0                      
                                                          ;XREF[1,0]:   0002ac60
ram:00028512    70b5            push        {r4,r5,r6,lr}                           
ram:00028514    50b9            cbnz        param_1,LAB_0002852c                    
                            LAB_00028516:                 ;XREF[1,0]:   00028530
ram:00028516    0e4d            ldr         r5,[DAT_00028550]                       ;= 3860BF00h
ram:00028518    0f4c            ldr         r4,[DAT_00028558]                       
ram:0002851a    0026            movs        r6,#0x0                                 
ram:0002851c    641b            subs        r4,r4,r5                                
ram:0002851e    1423            movs        r3,#0x14                                
ram:00028520    b4fbf3f4        udiv        r4,r4,r3                                
                            LAB_00028524:                 ;XREF[1,0]:   00028542
ram:00028524    b442            cmp         r4,r6                                   
ram:00028526    08d1            bne         LAB_0002853a                            
ram:00028528    0020            movs        param_1,#0x0                            
ram:0002852a    10e0            b           LAB_0002854e                            
                            LAB_0002852c:                 ;XREF[1,0]:   00028514
ram:0002852c    0368            ldr         r3,[param_1,#0x0]                       
ram:0002852e    002b            cmp         r3,#0x0                                 
ram:00028530    f1d0            beq         LAB_00028516                            
ram:00028532    bde87040        pop.w       {r4,r5,r6,lr}                           
ram:00028536    db69            ldr         r3,[r3,#0x1c]                           
ram:00028538    1847            bx          r3                                      
                            LAB_0002853a:                 ;XREF[1,0]:   00028526
ram:0002853a    2b68            ldr         r3,[r5,#0x0]=>DAT_3860bf00              
ram:0002853c    13b9            cbnz        r3,LAB_00028544                         
                            LAB_0002853e:                 ;XREF[1,0]:   0002854c
ram:0002853e    0136            adds        r6,#0x1                                 
ram:00028540    1435            adds        r5,#0x14                                
ram:00028542    efe7            b           LAB_00028524                            
                            LAB_00028544:                 ;XREF[1,0]:   0002853c
ram:00028544    db69            ldr         r3,[r3,#0x1c]                           
ram:00028546    2846            mov         param_1=>DAT_3860bf00,r5                
ram:00028548    9847            blx         r3                                      
ram:0002854a    0028            cmp         param_1,#0x0                            
ram:0002854c    f7d0            beq         LAB_0002853e                            
                            LAB_0002854e:                 ;XREF[1,0]:   0002852a
ram:0002854e    70bd            pop         {r4,r5,r6,pc}                           
                            DAT_00028550:                 ;XREF[1,0]:   00028516
ram:00028550    00bf6038        undefined4  3860BF00h                               
                            DAT_00028558:                 ;XREF[1,0]:   00028518
                            ;************************************************************************************************
                            ;*                                           FUNCTION                                           *
                            ;************************************************************************************************
                            ;uint FUN_0002855a(byte * param_1, int param_2, ushort * param_3)
          ;param_1       byte *              r0                      
          ;param_2       int                 r1                      
          ;param_3       ushort *            r2                      
                                                          ;XREF[1,0]:   0002ad3c
ram:0002855a    10b5            push        {r4,lr}                                 
ram:0002855c    0446            mov         r4,param_1                              
ram:0002855e    22b1            cbz         param_3,LAB_0002856a                    
ram:00028560    1088            ldrh        param_1,[param_3,#0x0]                  
                            LAB_00028562:                 ;XREF[1,0]:   0002856e
ram:00028562    2144            add         param_2,r4                              
                            LAB_00028564:                 ;XREF[1,0]:   00028590
ram:00028564    8c42            cmp         r4,param_2                              
ram:00028566    03d1            bne         LAB_00028570                            
ram:00028568    10bd            pop         {r4,pc}                                 
                            LAB_0002856a:                 ;XREF[1,0]:   0002855e
ram:0002856a    4ff6ff70        movw        param_1,#0xffff                         
ram:0002856e    f8e7            b           LAB_00028562                            
                            LAB_00028570:                 ;XREF[1,0]:   00028566
ram:00028570    43ba            rev16       r3,param_1                              
ram:00028572    14f8010b        ldrb.w      param_1,[r4],#0x1                       
ram:00028576    9bb2            uxth        r3,r3                                   
ram:00028578    4340            eors        r3,param_1                              
ram:0002857a    c3f30312        ubfx        param_3,r3,#0x4,#0x4                    
ram:0002857e    5340            eors        r3,param_3                              
ram:00028580    83ea0333        eor.w       r3,r3,r3, lsl #0xc                      
ram:00028584    5a01            lsls        param_3,r3,#0x5                         
ram:00028586    02f4ff52        and         param_3,param_3,#0x1fe0                 
ram:0002858a    9bb2            uxth        r3,r3                                   
ram:0002858c    83ea0200        eor.w       param_1,r3,param_3                      
ram:00028590    e8e7            b           LAB_00028564                            
ram:00028592    054b            ldr         r3,[FUN_000285a8]                       
ram:00028594    1b68            ldr         r3,[r3,#0x0]=>DAT_01304770              
ram:00028596    082b            cmp         r3,#0x8                                 
ram:00028598    01bf            itttt       eq                                      
ram:0002859a    044b            ldr.eq      r3,[DAT_000285ac]                       ;= 01341000h
ram:0002859c    1868            ldr.eq      r0,[r3,#0x0]                            
ram:0002859e    b0fa80f0        clz.eq      r0,r0                                   
ram:000285a2    4009            lsr.eq      r0,r0,#0x5                              
ram:000285a4    18bf            it          ne                                      
ram:000285a6    0020            mov.ne      r0,#0x0                                 
                            ;************************************************************************************************
                            ;*                                           FUNCTION                                           *
                            ;************************************************************************************************
                            ;undefined FUN_000285a8(void)
                                                          ;XREF[1,0]:   00028592
ram:000285a8    7047            bx          lr                                      
ram:000285aa    3001            lsls        r0,r6,#0x4                              
                            DAT_000285ac:                 ;XREF[1,0]:   0002859a
ram:000285ac    00103401        undefined4  01341000h                               
                            ;************************************************************************************************
                            ;*                                           FUNCTION                                           *
                            ;************************************************************************************************
                            ;undefined FUNC_IRQ_00028980(void)
          ;local_c       undefined4          -c                      ;XREF[2,0]:   000289b6,000289b8
          ;local_10      undefined4         -10                      ;XREF[2,0]:   00028990,00028992
                                                          ;XREF[0,1]:   00027042
ram:00028980    0040            ands        r0,r0                                   
ram:00028982    154b            ldr         r3,[DAT_000289d8]                       ;= 0100BF00h
ram:00028984    07b5            push        {r0,r1,r2,lr}                           
ram:00028986    1a68            ldr         r2,[r3,#0x0]=>DAT_0100bf00              
ram:00028988    7ab1            cbz         r2,LAB_000289aa                         
ram:0002898a    0022            movs        r2,#0x0                                 
ram:0002898c    1a60            str         r2,[r3,#0x0]=>DAT_0100bf00              
ram:0002898e    1b68            ldr         r3,[r3,#0x0]=>DAT_0100bf00              
ram:00028990    0093            str         r3,[sp,#0x0]=>local_10                  
ram:00028992    009b            ldr         r3,[sp,#0x0]=>local_10                  
ram:00028994    4ff08043        mov.w       r3,#0x40000000                          
ram:00028998    0122            movs        r2,#0x1                                 
ram:0002899a    c3f80823        str.w       r2,[r3,#offset DAT_40000308 &0xffff]    
ram:0002899e    0f4b            ldr         r3,[DAT_000289dc]                       ;= 3A784000h
ram:000289a0    5879            ldrb        r0,[r3,#offset DAT_3a784005 &0xff]      
ram:000289a2    10b9            cbnz        r0,LAB_000289aa                         
ram:000289a4    5a71            strb        r2,[r3,#offset DAT_3a784005 &0xff]      
ram:000289a6    1b68            ldr         r3,[r3,#0x0]=>DAT_3a784000              
ram:000289a8    9847            blx         r3                                      
                            LAB_000289aa:                 ;XREF[2,0]:   00028988,000289a2
ram:000289aa    0d4b            ldr         r3,[DAT_000289e0]                       ;= 01042000h
ram:000289ac    1a68            ldr         r2,[r3,#0x0]=>DAT_01042000              
ram:000289ae    82b1            cbz         r2,LAB_000289d2                         
ram:000289b0    0022            movs        r2,#0x0                                 
ram:000289b2    1a60            str         r2,[r3,#0x0]=>DAT_01042000              
ram:000289b4    1b68            ldr         r3,[r3,#0x0]=>DAT_01042000              
ram:000289b6    0193            str         r3,[sp,#local_c+0x10]                   
ram:000289b8    019b            ldr         r3,[sp,#local_c+0x10]                   
ram:000289ba    4ff08043        mov.w       r3,#0x40000000                          
ram:000289be    0222            movs        r2,#0x2                                 
ram:000289c0    c3f80823        str.w       r2,[r3,#offset DAT_40000308 &0xffff]    
ram:000289c4    064b            ldr         r3,[DAT_000289e0]                       ;= 01042000h
ram:000289c6    1b68            ldr         r3,[r3,#0x0]=>DAT_01042000              
ram:000289c8    0120            movs        r0,#0x1                                 
ram:000289ca    03b0            add         sp,#0xc                                 
ram:000289cc    5df804eb        pop.w       lr                                      
ram:000289d0    1847            bx          r3                                      
                            LAB_000289d2:                 ;XREF[1,0]:   000289ae
ram:000289d2    03b0            add         sp,#0xc                                 
ram:000289d4    5df804fb        pop.w       pc                                      
                            DAT_000289d8:                 ;XREF[1,0]:   00028982
ram:000289d8    00bf0001        undefined4  0100BF00h                               
                            DAT_000289dc:                 ;XREF[1,0]:   0002899e
ram:000289dc    0040783a        undefined4  3A784000h                               
                            DAT_000289e0:                 ;XREF[2,0]:   000289aa,000289c4
ram:000289e0    00200401        undefined4  01042000h                               
                            ;************************************************************************************************
                            ;*                                           FUNCTION                                           *
                            ;************************************************************************************************
                            ;undefined FUN_000289e6(int param_1)
          ;param_1       int                 r0                      
          ;local_4       undefined4          -4                      ;XREF[2,0]:   000289f6,000289f8
                                                          ;XREF[2,0]:   00028cfe,00028d1c
ram:000289e6    00f18040        add.w       param_1,param_1,#0x40000000             
ram:000289ea    00f5c040        add.w       param_1,param_1,#0x6000                 
ram:000289ee    0023            movs        r3,#0x0                                 
ram:000289f0    82b0            sub         sp,#0x8                                 
ram:000289f2    0360            str         r3,[param_1,#0x0]                       
ram:000289f4    0368            ldr         r3,[param_1,#0x0]                       
ram:000289f6    0193            str         r3,[sp,#local_4+0x8]                    
ram:000289f8    019b            ldr         r3,[sp,#local_4+0x8]                    
ram:000289fa    02b0            add         sp,#0x8                                 
ram:000289fc    7047            bx          lr                                      
                            ;************************************************************************************************
                            ;*                                           FUNCTION                                           *
                            ;************************************************************************************************
                            ;undefined4 FUN_000289fe(uint * param_1)
          ;param_1       uint *              r0                      
                                                          ;XREF[2,0]:   00028a1c,00028dea
ram:000289fe    0368            ldr         r3,[param_1,#0x0]                       
ram:00028a00    1f2b            cmp         r3,#0x1f                                
ram:00028a02    83bf            ittte       hi                                      
ram:00028a04    03f01f03        and.hi      r3,r3,#0x1f                             
ram:00028a08    0360            str.hi      r3,[param_1,#0x0]                       
ram:00028a0a    0148            ldr.hi      param_1,[LAB_00028a10]                  
ram:00028a0c    4ff0a040        mov.ls.w    param_1,#0x50000000                     
                            LAB_00028a10:                 ;XREF[1,0]:   00028a0a
ram:00028a10    7047            bx          lr                                      
ram:00028a12    0003            lsls        r0,r0,#0xc                              
ram:00028a14    0050            str         r0,[r0,r0]                              
                            ;************************************************************************************************
                            ;*                                           FUNCTION                                           *
                            ;************************************************************************************************
                            ;undefined FUN_00028a16(uint param_1, undefined4 param_2, undefined4 param_3)
          ;param_1       uint                r0                      
          ;param_2       undefined4          r1                      
          ;param_3       undefined4          r2                      
          ;local_c       undefined4          -c                      ;XREF[2,0]:   00028a18,00028a20
                                                          ;XREF[1,0]:   00028e1c
ram:00028a16    07b5            push        {param_1,param_2,param_3,lr}            
ram:00028a18    0190            str         param_1,[sp,#local_c+0x10]              
ram:00028a1a    01a8            add         param_1,sp,#0x4                         
ram:00028a1c    fff7efff        bl          FUN_000289fe                            ;undefined4 FUN_000289fe(uint * param_1)
ram:00028a20    019b            ldr         r3,[sp,#local_c+0x10]                   
ram:00028a22    00eb8300        add.w       param_1,param_1,r3, lsl #0x2            
ram:00028a26    d0f80037        ldr.w       r3,[param_1,#0x700]                     
ram:00028a2a    23f44033        bic         r3,r3,#0x30000                          
ram:00028a2e    c0f80037        str.w       r3,[param_1,#0x700]                     
ram:00028a32    d0f80037        ldr.w       r3,[param_1,#0x700]                     
ram:00028a36    43ea0141        orr.w       param_2,r3,param_2, lsl #0x10           
ram:00028a3a    c0f80017        str.w       param_2,[param_1,#0x700]                
ram:00028a3e    03b0            add         sp,#0xc                                 
ram:00028a40    5df804fb        pop.w       pc                                      
                            ;************************************************************************************************
                            ;*                                           FUNCTION                                           *
                            ;************************************************************************************************
                            ;undefined FUNC_VT_00028cd0(void)
                            DAT_00028cd1:                 ;XREF[1,0]:   0002705a
                            ;************************************************************************************************
                            ;*                                           FUNCTION                                           *
                            ;************************************************************************************************
                            ;undefined FUN_00028cd2(void)
          ;local_2c      undefined4         -2c                      ;XREF[1,0]:   00028e5e
          ;local_30      undefined4         -30                      ;XREF[2,0]:   00028d82,00028e5c
          ;local_34      undefined4         -34                      ;XREF[2,0]:   00028d7c,00028e5a
          ;local_38      undefined4         -38                      ;XREF[2,0]:   00028d7a,00028e58
          ;local_3c      undefined4         -3c                      ;XREF[3,0]:   00028d34,00028e4e,00028e56
          ;local_40      undefined4         -40                      ;XREF[4,0]:   00028cda,00028d2c,00028e3c,00028e54
          ;local_44      undefined4         -44                      ;XREF[2,0]:   00028de6,00028dee
ram:00028cd2    2de9f04f        push        {r4,r5,r6,r7,r8,r9,r10,r11,lr}          
ram:00028cd6    0024            movs        r4,#0x0                                 
ram:00028cd8    89b0            sub         sp,#0x24                                
ram:00028cda    cde90244        strd        r4,r4,[sp,#local_40+0x48]               
ram:00028cde    624d            ldr         r5,[DAT_00028e68]                       ;= 6000BF00h
ram:00028ce0    4ff48072        mov.w       r2,#0x100                               
ram:00028ce4    0121            movs        r1,#0x1                                 
                            LAB_00028ce6:                 ;XREF[1,0]:   00028d0e
ram:00028ce6    02f18043        add.w       r3,r2,#0x40000000                       
ram:00028cea    03f5c043        add.w       r3,r3,#0x6000                           
ram:00028cee    90b2            uxth        r0,r2                                   
                                                          ; FWD[2,0]:   40006100,40006104
ram:00028cf0    1b68            ldr         r3,[r3,#0x0]=>DAT_40006100              
ram:00028cf2    012b            cmp         r3,#0x1                                 
ram:00028cf4    06d1            bne         LAB_00028d04                            
ram:00028cf6    d5f80433        ldr.w       r3,[r5,#0x304]=>DAT_6000c204            
ram:00028cfa    0b42            tst         r3,r1                                   
ram:00028cfc    02d0            beq         LAB_00028d04                            
ram:00028cfe    fff772fe        bl          FUN_000289e6                            ;undefined FUN_000289e6(int param_1)
ram:00028d02    0c43            orrs        r4,r1                                   
                            LAB_00028d04:                 ;XREF[2,0]:   00028cf4,00028cfc
ram:00028d04    0432            adds        r2,#0x4                                 
ram:00028d06    b2f5907f        cmp.w       r2,#0x120                               
ram:00028d0a    4fea4101        lsl.w       r1,r1,#0x1                              
ram:00028d0e    ead1            bne         LAB_00028ce6                            
ram:00028d10    574b            ldr         r3,[DAT_00028e70]                       ;= 03004000h
ram:00028d12    1b68            ldr         r3,[r3,#0x0]=>DAT_03004000              
ram:00028d14    012b            cmp         r3,#0x1                                 
ram:00028d16    0ed1            bne         LAB_00028d36                            
ram:00028d18    4ff4be70        mov.w       r0,#0x17c                               
ram:00028d1c    fff763fe        bl          FUN_000289e6                            ;undefined FUN_000289e6(int param_1)
ram:00028d20    4ff0a043        mov.w       r3,#0x50000000                          
ram:00028d24    44f00044        orr         r4,r4,#0x80000000                       
ram:00028d28    d3f81035        ldr.w       r3,[r3,#offset DAT_50000510 &0xffff]    
ram:00028d2c    0293            str         r3,[sp,#local_40+0x48]                  
ram:00028d2e    504b            ldr         r3,[DAT_00028e70]                       ;= 03004000h
ram:00028d30    d3f81035        ldr.w       r3,[r3,#0x510]=>DAT_03004510            
ram:00028d34    0393            str         r3,[sp,#local_3c+0x48]                  
                            LAB_00028d36:                 ;XREF[1,0]:   00028d16
ram:00028d36    14f0ff0f        tst         r4,#0xff                                
ram:00028d3a    1ad0            beq         LAB_00028d72                            
ram:00028d3c    4e4f            ldr         r7,[DAT_00028e78]                       ;= 3AE02000h
ram:00028d3e    0126            movs        r6,#0x1                                 
ram:00028d40    0025            movs        r5,#0x0                                 
                            LAB_00028d42:                 ;XREF[1,0]:   00028d70
ram:00028d42    2642            tst         r6,r4                                   
ram:00028d44    10d0            beq         LAB_00028d68                            
ram:00028d46    ab00            lsls        r3,r5,#0x2                              
ram:00028d48    03f18043        add.w       r3,r3,#0x40000000                       
ram:00028d4c    03f5c043        add.w       r3,r3,#0x6000                           
ram:00028d50    d3f81005        ldr.w       r0,[r3,#0x510]=>DAT_40006510            
ram:00028d54    d3f81015        ldr.w       r1,[r3,#0x510]=>DAT_40006510            
ram:00028d58    57f82530        ldr.w       r3,r7=>DAT_3ae02000,r5,0x2              
ram:00028d5c    23b1            cbz         r3,LAB_00028d68                         
ram:00028d5e    c1f30141        ubfx        r1,r1,#0x10,#0x2                        
ram:00028d62    c0f30520        ubfx        r0,r0,#0x8,#0x6                         
ram:00028d66    9847            blx         r3                                      
                            LAB_00028d68:                 ;XREF[2,0]:   00028d44,00028d5c
ram:00028d68    0135            adds        r5,#0x1                                 
ram:00028d6a    082d            cmp         r5,#0x8                                 
ram:00028d6c    4fea4606        lsl.w       r6,r6,#0x1                              
ram:00028d70    e7d1            bne         LAB_00028d42                            
                            LAB_00028d72:                 ;XREF[1,0]:   00028d3a
ram:00028d72    002c            cmp         r4,#0x0                                 
ram:00028d74    75da            bge         LAB_00028e62                            
ram:00028d76    04af            add         r7,sp,#0x10                             
ram:00028d78    0023            movs        r3,#0x0                                 
ram:00028d7a    0493            str         r3,[sp,#local_38+0x48]                  
ram:00028d7c    7b60            str         r3,[r7,#local_34+0x38]                  
ram:00028d7e    4ff0ff33        mov.w       r3,#0xffffffff                          
ram:00028d82    cde90633        strd        r3,r3,[sp,#local_30+0x48]               
ram:00028d86    dff8ec90        ldr.w       r9,[DAT_00028e74]                       ;= 3A805000h
                            LAB_00028d8a:                 ;XREF[1,0]:   00028e60
ram:00028d8a    dff8ec80        ldr.w       r8,[DAT_00028e78]                       ;= 3AE02000h
ram:00028d8e    0025            movs        r5,#0x0                                 
ram:00028d90    2e46            mov         r6,r5                                   
                            LAB_00028d92:                 ;XREF[1,0]:   00028e34
                                                          ; FWD[2,0]:   3ae02000,3ae02001
ram:00028d92    18f9012b        ldrsb.w     r2,[r8],#0x1=>DAT_3ae02000              
ram:00028d96    531c            adds        r3,r2,#0x1                              
ram:00028d98    4ad0            beq         LAB_00028e30                            
ram:00028d9a    c2f3c200        ubfx        r0,r2,#0x3,#0x3                         
ram:00028d9e    0123            movs        r3,#0x1                                 
ram:00028da0    d4b2            uxtb        r4,r2                                   
ram:00028da2    02f03f0b        and         r11,r2,#0x3f                            
ram:00028da6    02f00702        and         r2,r2,#0x7                              
ram:00028daa    03fa02f2        lsl.w       r2,r3,r2                                
ram:00028dae    08ab            add         r3,sp,#0x20                             
ram:00028db0    1918            adds        r1,r3,r0                                
ram:00028db2    11f8083c        ldrb.w      r3,[r1,#-0x8]                           
ram:00028db6    1342            tst         r3,r2                                   
ram:00028db8    3ad0            beq         LAB_00028e30                            
ram:00028dba    09eb0b03        add.w       r3,r9,r11                               
ram:00028dbe    a409            lsrs        r4,r4,#0x6                              
ram:00028dc0    93f93030        ldrsb.w     r3,[r3,#0x30]                           
ram:00028dc4    59f823a0        ldr.w       r10,r9,r3,0x2                           
ram:00028dc8    baf1000f        cmp.w       r10,#0x0                                
ram:00028dcc    08d1            bne         LAB_00028de0                            
ram:00028dce    032c            cmp         r4,#0x3                                 
ram:00028dd0    2ed1            bne         LAB_00028e30                            
                            LAB_00028dd2:                 ;XREF[1,0]:   00028de2
ram:00028dd2    17f800c0        ldrb.w      r12,r7,r0,0x0                           
ram:00028dd6    4cea020c        orr.w       r12,r12,r2                              
ram:00028dda    07f800c0        strb.w      r12,r7,r0,0x0                           
ram:00028dde    01e0            b           LAB_00028de4                            
                            LAB_00028de0:                 ;XREF[1,0]:   00028dcc
ram:00028de0    032c            cmp         r4,#0x3                                 
ram:00028de2    f6d0            beq         LAB_00028dd2                            
                            LAB_00028de4:                 ;XREF[1,0]:   00028dde
ram:00028de4    01a8            add         r0,sp,#0x4                              
ram:00028de6    cdf804b0        str.w       r11,[sp,#local_44+0x48]                 
ram:00028dea    fff708fe        bl          FUN_000289fe                            ;undefined4 FUN_000289fe(uint * param_1)
ram:00028dee    019b            ldr         r3,[sp,#local_44+0x48]                  
ram:00028df0    11f8181c        ldrb.w      r1,[r1,#-0x18]                          
ram:00028df4    03f5e07c        add.w       r12,r3,#0x1c0                           
ram:00028df8    1142            tst         r1,r2                                   
ram:00028dfa    50f82c00        ldr.w       r0,r0,r12,0x2                           
ram:00028dfe    c0f30140        ubfx        r0,r0,#0x10,#0x2                        
ram:00028e02    05d0            beq         LAB_00028e10                            
ram:00028e04    0228            cmp         r0,#0x2                                 
ram:00028e06    13d1            bne         LAB_00028e30                            
ram:00028e08    032c            cmp         r4,#0x3                                 
ram:00028e0a    0bd1            bne         LAB_00028e24                            
ram:00028e0c    2146            mov         r1,r4                                   
ram:00028e0e    04e0            b           LAB_00028e1a                            
                            LAB_00028e10:                 ;XREF[1,0]:   00028e02
ram:00028e10    0328            cmp         r0,#0x3                                 
ram:00028e12    0dd1            bne         LAB_00028e30                            
ram:00028e14    032c            cmp         r4,#0x3                                 
ram:00028e16    05d1            bne         LAB_00028e24                            
ram:00028e18    0221            movs        r1,#0x2                                 
                            LAB_00028e1a:                 ;XREF[1,0]:   00028e0e
ram:00028e1a    5846            mov         r0,r11                                  
ram:00028e1c    fff7fbfd        bl          FUN_00028a16                            ;undefined FUN_00028a16(uint param_1,...
ram:00028e20    0135            adds        r5,#0x1                                 
ram:00028e22    edb2            uxtb        r5,r5                                   
                            LAB_00028e24:                 ;XREF[2,0]:   00028e0a,00028e16
ram:00028e24    baf1000f        cmp.w       r10,#0x0                                
ram:00028e28    02d0            beq         LAB_00028e30                            
ram:00028e2a    2146            mov         r1,r4                                   
ram:00028e2c    5846            mov         r0,r11                                  
ram:00028e2e    d047            blx         r10                                     
                            LAB_00028e30:                 ;XREF[6,0]:   00028d98,00028db8,00028dd0,00028e06
                                                          ;             00028e12,00028e28
ram:00028e30    0136            adds        r6,#0x1                                 
ram:00028e32    042e            cmp         r6,#0x4                                 
ram:00028e34    add1            bne         LAB_00028d92                            
ram:00028e36    a5b1            cbz         r5,LAB_00028e62                         
ram:00028e38    4ff0a043        mov.w       r3,#0x50000000                          
ram:00028e3c    0299            ldr         r1,[sp,#local_40+0x48]                  
ram:00028e3e    d3f81025        ldr.w       r2,[r3,#offset DAT_50000510 &0xffff]    
ram:00028e42    03f54073        add.w       r3,r3,#0x300                            
ram:00028e46    9142            cmp         r1,r2                                   
ram:00028e48    d3f81035        ldr.w       r3,[r3,#0x510]=>DAT_50000810            
ram:00028e4c    02d1            bne         LAB_00028e54                            
ram:00028e4e    0399            ldr         r1,[sp,#local_3c+0x48]                  
ram:00028e50    9942            cmp         r1,r3                                   
ram:00028e52    06d0            beq         LAB_00028e62                            
                            LAB_00028e54:                 ;XREF[1,0]:   00028e4c
ram:00028e54    0292            str         r2,[sp,#local_40+0x48]                  
ram:00028e56    0393            str         r3,[sp,#local_3c+0x48]                  
ram:00028e58    049a            ldr         r2,[sp,#local_38+0x48]                  
ram:00028e5a    059b            ldr         r3,[sp,#local_34+0x48]                  
ram:00028e5c    0692            str         r2,[sp,#local_30+0x48]                  
ram:00028e5e    0793            str         r3,[sp,#local_2c+0x48]                  
ram:00028e60    93e7            b           LAB_00028d8a                            
                            LAB_00028e62:                 ;XREF[3,0]:   00028d74,00028e36,00028e52
ram:00028e62    09b0            add         sp,#0x24                                
ram:00028e64    bde8f08f        pop.w       {r4,r5,r6,r7,r8,r9,r10,r11,pc}          
                            DAT_00028e68:                 ;XREF[1,0]:   00028cde
ram:00028e68    00bf0060        undefined4  6000BF00h                               
                            DAT_00028e70:                 ;XREF[2,0]:   00028d10,00028d2e
ram:00028e70    00400003        undefined4  03004000h                               
                            DAT_00028e74:                 ;XREF[1,0]:   00028d86
ram:00028e74    0050803a        undefined4  3A805000h                               
                            DAT_00028e78:                 ;XREF[2,0]:   00028d3c,00028d8a
ram:00028e78    0020e03a        undefined4  3AE02000h                               
                            ;************************************************************************************************
                            ;*                                           FUNCTION                                           *
                            ;************************************************************************************************
                            ;undefined FUNC_VT_00028e7c(void)
                                                          ;XREF[0,1]:   0002704a
ram:00028e7c    0020            movs        r0,#0x0                                 
ram:00028e7e    014b            ldr         r3,[DAT_00028e84]                       ;= 3AECBF00h
ram:00028e80    1b68            ldr         r3,[r3,#0x0]=>DAT_3aecbf00              
ram:00028e82    1847            bx          r3                                      
                            DAT_00028e84:                 ;XREF[1,0]:   00028e7e
ram:00028e84    00bfec3a        undefined4  3AECBF00h                               
                            ;************************************************************************************************
                            ;*                                           FUNCTION                                           *
                            ;************************************************************************************************
                            ;undefined FUN_00028e8a(int param_1)
          ;param_1       int                 r0                      
          ;local_4       undefined4          -4                      ;XREF[2,0]:   00028e9a,00028e9c
                                                          ;XREF[6,0]:   00028eb8,00028ed0,00028efe,00028f3e
                                                          ;             00028f5c,00028fc0
ram:00028e8a    00f18040        add.w       param_1,param_1,#0x40000000             
ram:00028e8e    00f5e040        add.w       param_1,param_1,#0x7000                 
ram:00028e92    0023            movs        r3,#0x0                                 
ram:00028e94    82b0            sub         sp,#0x8                                 
ram:00028e96    0360            str         r3,[param_1,#0x0]                       
ram:00028e98    0368            ldr         r3,[param_1,#0x0]                       
ram:00028e9a    0193            str         r3,[sp,#local_4+0x8]                    
ram:00028e9c    019b            ldr         r3,[sp,#local_4+0x8]                    
ram:00028e9e    02b0            add         sp,#0x8                                 
                            ;************************************************************************************************
                            ;*                                           FUNCTION                                           *
                            ;************************************************************************************************
                            ;undefined FUNC_VT_00028ea0(void)
                                                          ;XREF[0,1]:   0002705e
ram:00028ea0    7047            bx          lr                                      
                            ;************************************************************************************************
                            ;*                                           FUNCTION                                           *
                            ;************************************************************************************************
                            ;undefined FUN_00028ea2(void)
          ;local_1c      undefined2         -1c                      ;XREF[1,0]:   00028f10
          ;local_20      undefined4         -20                      ;XREF[2,1]:   00028f0c,00028fd2,00028fdc
          ;local_24      undefined1         -24                      ;XREF[3,0]:   00028f18,00028f48,00028fd6
ram:00028ea2    f0b5            push        {r4,r5,r6,r7,lr}                        
ram:00028ea4    504b            ldr         r3,[DAT_00028fe8]                       ;= 3AF44000h
ram:00028ea6    504c            ldr         r4,[DAT_00028fe8]                       ;= 3AF44000h
ram:00028ea8    1b68            ldr         r3,[r3,#0x0]=>DAT_3af44000              
ram:00028eaa    85b0            sub         sp,#0x14                                
ram:00028eac    002b            cmp         r3,#0x0                                 
ram:00028eae    3dd0            beq         LAB_00028f2c                            
ram:00028eb0    4ff48270        mov.w       r0,#0x104                               
ram:00028eb4    94f82e20        ldrb.w      r2,[r4,#offset DAT_3af4402e &0xff]      
ram:00028eb8    fff7e7ff        bl          FUN_00028e8a                            ;undefined FUN_00028e8a(int param_1)
ram:00028ebc    2ab3            cbz         r2,LAB_00028f0a                         
ram:00028ebe    94f82f30        ldrb.w      r3,[r4,#offset DAT_3af4402f &0xff]      
ram:00028ec2    13bb            cbnz        r3,LAB_00028f0a                         
                            LAB_00028ec4:                 ;XREF[1,0]:   00028f32
ram:00028ec4    4a4b            ldr         r3,[DAT_00028ff0]                       ;= 70004000h
ram:00028ec6    1b68            ldr         r3,[r3,#0x0]=>DAT_70004000              
ram:00028ec8    002b            cmp         r3,#0x0                                 
ram:00028eca    33d0            beq         LAB_00028f34                            
ram:00028ecc    4ff48070        mov.w       r0,#0x100                               
ram:00028ed0    fff7dbff        bl          FUN_00028e8a                            ;undefined FUN_00028e8a(int param_1)
ram:00028ed4    638b            ldrh        r3,[r4,#offset DAT_3af4401a &0xff]      
ram:00028ed6    94f82d10        ldrb.w      r1,[r4,#offset DAT_3af4402d &0xff]      
ram:00028eda    8b42            cmp         r3,r1                                   
ram:00028edc    4fd9            bls         LAB_00028f7e                            
ram:00028ede    2289            ldrh        r2,[r4,#offset DAT_3af44008 &0xff]      
ram:00028ee0    5b1a            subs        r3,r3,r1                                
ram:00028ee2    9bb2            uxth        r3,r3                                   
ram:00028ee4    92b2            uxth        r2,r2                                   
ram:00028ee6    6383            strh        r3,[r4,#offset DAT_3af4401a &0xff]      
ram:00028ee8    d31a            subs        r3,r2,r3                                
ram:00028eea    6268            ldr         r2,[r4,#offset DAT_3af44004 &0xff]      
ram:00028eec    02eb4303        add.w       r3,r2,r3, lsl #0x1                      
                            LAB_00028ef0:                 ;XREF[1,0]:   00028f8e
ram:00028ef0    404a            ldr         r2=>DAT_70044000,[DAT_00028ff4]         ;= 70044000h
ram:00028ef2    c2f82c36        str.w       r3,[r2,#0x62c]=>DAT_7004462c            
ram:00028ef6    c2f83016        str.w       r1,[r2,#0x630]=>DAT_70044630            
                            LAB_00028efa:                 ;XREF[2,0]:   00028f7e,00028f92
ram:00028efa    4ff48270        mov.w       r0,#0x104                               
ram:00028efe    fff7c4ff        bl          FUN_00028e8a                            ;undefined FUN_00028e8a(int param_1)
ram:00028f02    3c4b            ldr         r3,[DAT_00028ff4]                       ;= 70044000h
ram:00028f04    0122            movs        r2,#0x1                                 
ram:00028f06    1a60            str         r2,[r3,#0x0]=>DAT_70044000              
ram:00028f08    14e0            b           LAB_00028f34                            
                            LAB_00028f0a:                 ;XREF[2,0]:   00028ebc,00028ec2
ram:00028f0a    6368            ldr         r3,[r4,#offset DAT_3af44004 &0xff]      
ram:00028f0c    0293            str         r3,[sp,#local_20+0x28]                  
ram:00028f0e    2389            ldrh        r3,[r4,#offset DAT_3af44008 &0xff]      
ram:00028f10    adf80c30        strh.w      r3,[sp,#local_1c+0x28]                  
ram:00028f14    e368            ldr         r3,[r4,#offset DAT_3af4400c &0xff]      
ram:00028f16    0021            movs        r1,#0x0                                 
ram:00028f18    8df80410        strb.w      r1,[sp,#local_24+0x28]                  
ram:00028f1c    23bb            cbnz        r3,LAB_00028f68                         
ram:00028f1e    2374            strb        r3,[r4,#offset DAT_3af44010 &0xff]      
                            LAB_00028f20:                 ;XREF[2,0]:   00028f74,00028f7c
ram:00028f20    2368            ldr         r3,[r4,#0x0]=>DAT_3af44000              
ram:00028f22    01a8            add         r0,sp,#0x4                              
ram:00028f24    9847            blx         r3                                      
ram:00028f26    0023            movs        r3,#0x0                                 
ram:00028f28    84f82f30        strb.w      r3,[r4,#offset DAT_3af4402f &0xff]      
                            LAB_00028f2c:                 ;XREF[1,0]:   00028eae
ram:00028f2c    94f82e30        ldrb.w      r3,[r4,#offset DAT_3af4402e &0xff]      
ram:00028f30    002b            cmp         r3,#0x0                                 
ram:00028f32    c7d1            bne         LAB_00028ec4                            
                            LAB_00028f34:                 ;XREF[2,0]:   00028eca,00028f08
ram:00028f34    314b            ldr         r3,[DAT_00028ffc]                       ;= 71144000h
ram:00028f36    1b68            ldr         r3,[r3,#0x0]=>DAT_71144000              
ram:00028f38    5bb1            cbz         r3,LAB_00028f52                         
ram:00028f3a    4ff48870        mov.w       r0,#0x110                               
ram:00028f3e    fff7a4ff        bl          FUN_00028e8a                            ;undefined FUN_00028e8a(int param_1)
ram:00028f42    0023            movs        r3,#0x0                                 
ram:00028f44    2374            strb        r3,[r4,#offset DAT_3af44010 &0xff]      
ram:00028f46    0223            movs        r3,#0x2                                 
ram:00028f48    8df80430        strb.w      r3,[sp,#local_24+0x28]                  
ram:00028f4c    01a8            add         r0,sp,#0x4                              
ram:00028f4e    2368            ldr         r3,[r4,#0x0]=>DAT_3af44000              
ram:00028f50    9847            blx         r3                                      
                            LAB_00028f52:                 ;XREF[1,0]:   00028f38
ram:00028f52    2a4b            ldr         r3,[DAT_00028ffc]                       ;= 71144000h
ram:00028f54    1b68            ldr         r3,[r3,#0x0]=>DAT_71144000              
ram:00028f56    ebb1            cbz         r3,LAB_00028f94                         
ram:00028f58    4ff48a70        mov.w       r0,#0x114                               
ram:00028f5c    fff795ff        bl          FUN_00028e8a                            ;undefined FUN_00028e8a(int param_1)
ram:00028f60    0023            movs        r3,#0x0                                 
ram:00028f62    2374            strb        r3,[r4,#offset DAT_3af44010 &0xff]      
                            LAB_00028f64:                 ;XREF[1,0]:   00028f9e
ram:00028f64    05b0            add         sp,#0x14                                
ram:00028f66    f0bd            pop         {r4,r5,r6,r7,pc}                        
                            LAB_00028f68:                 ;XREF[1,0]:   00028f1c
ram:00028f68    208b            ldrh        r0,[r4,#offset DAT_3af44018 &0xff]      
ram:00028f6a    6083            strh        r0,[r4,#offset DAT_3af4401a &0xff]      
ram:00028f6c    6360            str         r3,[r4,#offset DAT_3af44004 &0xff]      
ram:00028f6e    2081            strh        r0,[r4,#offset DAT_3af44008 &0xff]      
ram:00028f70    e160            str         r1,[r4,#offset DAT_3af4400c &0xff]      
ram:00028f72    002a            cmp         r2,#0x0                                 
ram:00028f74    d4d1            bne         LAB_00028f20                            
ram:00028f76    1e4b            ldr         r3,[DAT_00028ff0]                       ;= 70004000h
ram:00028f78    0122            movs        r2,#0x1                                 
ram:00028f7a    1a60            str         r2,[r3,#0x0]=>DAT_70004000              
ram:00028f7c    d0e7            b           LAB_00028f20                            
                            LAB_00028f7e:                 ;XREF[1,0]:   00028edc
ram:00028f7e    bcd1            bne         LAB_00028efa                            
ram:00028f80    e368            ldr         r3,[r4,#offset DAT_3af4400c &0xff]      
ram:00028f82    0122            movs        r2,#0x1                                 
ram:00028f84    84f82f20        strb.w      r2,[r4,#offset DAT_3af4402f &0xff]      
ram:00028f88    13b1            cbz         r3,LAB_00028f90                         
ram:00028f8a    0022            movs        r2,#0x0                                 
ram:00028f8c    6283            strh        r2,[r4,#offset DAT_3af4401a &0xff]      
ram:00028f8e    afe7            b           LAB_00028ef0                            
                            LAB_00028f90:                 ;XREF[1,0]:   00028f88
ram:00028f90    6383            strh        r3,[r4,#offset DAT_3af4401a &0xff]      
ram:00028f92    b2e7            b           LAB_00028efa                            
                            LAB_00028f94:                 ;XREF[1,0]:   00028f56
ram:00028f94    6669            ldr         r6,[r4,#offset DAT_3af44014 &0xff]      
ram:00028f96    4ff00047        mov.w       r7,#0x80000000                          
ram:00028f9a    0125            movs        r5,#0x1                                 
                            LAB_00028f9c:                 ;XREF[2,0]:   00028fbc,00028fe4
ram:00028f9c    002e            cmp         r6,#0x0                                 
ram:00028f9e    e1d0            beq         LAB_00028f64                            
ram:00028fa0    b6fa86f2        clz         r2,r6                                   
ram:00028fa4    27fa02f3        lsr.w       r3,r7,r2                                
ram:00028fa8    4632            adds        r2,#0x46                                
ram:00028faa    9200            lsls        r2,r2,#0x2                              
ram:00028fac    26ea0306        bic.w       r6,r6,r3                                
ram:00028fb0    02f18043        add.w       r3,r2,#0x40000000                       
ram:00028fb4    03f5e043        add.w       r3,r3,#0x7000                           
ram:00028fb8    1b68            ldr         r3,[r3,#0x0]                            
ram:00028fba    002b            cmp         r3,#0x0                                 
ram:00028fbc    eed0            beq         LAB_00028f9c                            
ram:00028fbe    1046            mov         r0,r2                                   
ram:00028fc0    fff763ff        bl          FUN_00028e8a                            ;undefined FUN_00028e8a(int param_1)
ram:00028fc4    a2f58c72        sub.w       r2,r2,#0x118                            
ram:00028fc8    d308            lsrs        r3,r2,#0x3                              
ram:00028fca    82f00402        eor         r2,r2,#0x4                              
ram:00028fce    c2f38002        ubfx        r2,r2,#0x2,#0x1                         
ram:00028fd2    8df80830        strb.w      r3,[sp,#local_20+0x28]                  
ram:00028fd6    8df80450        strb.w      r5,[sp,#local_24+0x28]                  
ram:00028fda    2368            ldr         r3,[r4,#0x0]=>DAT_3af44000              
ram:00028fdc    8df80920        strb.w      r2,[sp,#local_20+0x29]                  
ram:00028fe0    01a8            add         r0,sp,#0x4                              
ram:00028fe2    9847            blx         r3                                      
ram:00028fe4    dae7            b           LAB_00028f9c                            
ram:00028fe6    0471            strb        r4,[r0,#0x4]                            
                            DAT_00028fe8:                 ;XREF[2,0]:   00028ea4,00028ea6
ram:00028fe8    0040f43a        undefined4  3AF44000h                               
                            DAT_00028ff0:                 ;XREF[2,0]:   00028ec4,00028f76
ram:00028ff0    00400070        undefined4  70004000h                               
                            DAT_00028ff4:                 ;XREF[2,0]:   00028ef0,00028f02
ram:00028ff4    00400470        undefined4  70044000h                               
                            DAT_00028ffc:                 ;XREF[2,0]:   00028f34,00028f52
ram:00028ffc    00401471        undefined4  71144000h                               
                            ;************************************************************************************************
                            ;*                                           FUNCTION                                           *
                            ;************************************************************************************************
                            ;undefined FUN_00029202(void)
                                                          ;XREF[1,0]:   0002928a
ram:00029202    a8df            svc         0xa8                                    
ram:00029204    7047            bx          lr                                      
                            ;************************************************************************************************
                            ;*                                           FUNCTION                                           *
                            ;************************************************************************************************
                            ;undefined FUN_00029206(void)
                                                          ;XREF[2,0]:   00029330,000293ac
ram:00029206    aadf            svc         0xaa                                    
ram:00029208    7047            bx          lr                                      
ram:0002920a    aedf            svc         0xae                                    
ram:0002920c    7047            bx          lr                                      
                            ;************************************************************************************************
                            ;*                                           FUNCTION                                           *
                            ;************************************************************************************************
                            ;undefined FUN_0002920e(void)
                                                          ;XREF[1,0]:   0002926a
ram:0002920e    62df            svc         0x62                                    
ram:00029210    7047            bx          lr                                      
ram:00029212    0288            ldrh        r2,[r0,#0x0]                            
ram:00029214    502a            cmp         r2,#0x50                                
ram:00029216    10b4            push        {r4}                                    
ram:00029218    0dd1            bne         LAB_00029236                            
ram:0002921a    c488            ldrh        r4,[r0,#0x6]                            
ram:0002921c    4a88            ldrh        r2,[r1,#0x2]                            
ram:0002921e    9442            cmp         r4,r2                                   
ram:00029220    09d1            bne         LAB_00029236                            
ram:00029222    4c69            ldr         r4,[r1,#0x14]                           
ram:00029224    3cb1            cbz         r4,LAB_00029236                         
ram:00029226    027c            ldrb        r2,[r0,#0x10]                           
ram:00029228    00f11203        add.w       r3,r0,#0x12                             
ram:0002922c    a446            mov         r12,r4                                  
ram:0002922e    8088            ldrh        r0,[r0,#0x4]                            
ram:00029230    5df8044b        pop.w       r4                                      
ram:00029234    6047            bx          r12                                     
                            LAB_00029236:                 ;XREF[3,0]:   00029218,00029220,00029224
ram:00029236    5df8044b        pop.w       r4                                      
ram:0002923a    7047            bx          lr                                      
ram:0002923c    0000            movs        r0,r0                                   
                            ;************************************************************************************************
                            ;*                                           FUNCTION                                           *
                            ;************************************************************************************************
                            ;int FUN_0002923e(int param_1, undefined4 * param_2)
          ;param_1       int                 r0                      
          ;param_2       undefined4 *        r1                      
          ;local_1c      undefined4         -1c                      ;XREF[1,0]:   000292e6
          ;local_20      undefined4         -20                      ;XREF[2,0]:   000292ec,0002936a
          ;local_28      undefined4         -28                      ;XREF[2,0]:   000292e2,00029366
          ;local_30      undefined4         -30                      ;XREF[2,0]:   000292c4,00029348
          ;local_34      undefined1         -34                      ;XREF[4,0]:   000292c0,000292ce,00029344,00029352
          ;local_38      undefined4         -38                      ;XREF[2,0]:   00029320,000293a2
          ;local_3c      undefined2         -3c                      ;XREF[2,0]:   0002932c,000293a8
          ;local_40      undefined4         -40                      ;XREF[1,0]:   0002932a
          ;local_44      undefined4         -44                      ;XREF[2,0]:   00029316,00029396
          ;local_48      undefined4         -48                      ;XREF[2,0]:   00029328,000293a6
          ;local_58      undefined4         -58                      ;XREF[1,0]:   0002925a
          ;local_5a      undefined1         -5a                      ;XREF[2,0]:   000292d4,00029358
          ;local_5c      undefined2         -5c                      ;XREF[2,0]:   000292e8,0002936e
          ;local_5e      undefined1         -5e                      ;XREF[1,0]:   00029278
          ;local_60      undefined2         -60                      ;XREF[1,0]:   00029286
          ;local_62      undefined1         -62                      ;XREF[4,0]:   000292fa,0002930c,00029376,0002938c
          ;local_64      undefined2         -64                      ;XREF[2,0]:   000292f6,0002937a
          ;local_66      undefined1         -66                      ;XREF[2,0]:   000292a0,000292b4
          ;local_68      undefined2         -68                      ;XREF[1,0]:   000292b8
ram:0002923e    2de9f041        push        {r4,r5,r6,r7,r8,lr}                     
ram:00029242    0b68            ldr         r3,[param_2,#0x0]                       
ram:00029244    4361            str         r3,[param_1,#0x14]                      
ram:00029246    94b0            sub         sp,#0x50                                
ram:00029248    5c4b            ldr         r3,[DAT_000293bc]                       ;= B5700002h
ram:0002924a    04aa            add         r2,sp,#0x10                             
ram:0002924c    0546            mov         r5,param_1                              
ram:0002924e    03f11007        add.w       r7,r3,#0x10                             
ram:00029252    1646            mov         r6,r2                                   
                            LAB_00029254:                 ;XREF[1,0]:   00029262
                                                          ; FWD[2,0]:   b5700002,b570000a
ram:00029254    1868            ldr         param_1,[r3,#0x0]=>DAT_b5700002         
                                                          ; FWD[2,0]:   b5700006,b570000e
ram:00029256    5968            ldr         param_2,[r3,#0x4]=>DAT_b5700006         
ram:00029258    1446            mov         r4,r2                                   
ram:0002925a    03c4            stmia       r4!=>local_58,{param_1,param_2}         
ram:0002925c    0833            adds        r3,#0x8                                 
ram:0002925e    bb42            cmp         r3,r7                                   
ram:00029260    2246            mov         r2,r4                                   
ram:00029262    f7d1            bne         LAB_00029254                            
ram:00029264    05f11201        add.w       param_2,r5,#0x12                        
ram:00029268    3046            mov         param_1,r6                              
ram:0002926a    fff7d0ff        bl          FUN_0002920e                            ;undefined FUN_0002920e(void)
ram:0002926e    0446            mov         r4,param_1                              
ram:00029270    0028            cmp         param_1,#0x0                            
ram:00029272    40f09e80        bne.w       LAB_000293b2                            
ram:00029276    ab7c            ldrb        r3,[r5,#0x12]                           
ram:00029278    8df80a30        strb.w      r3,[sp,#local_5e+0x68]                  
ram:0002927c    2a46            mov         r2,r5                                   
ram:0002927e    4ff64353        movw        r3,#0xfd43                              
ram:00029282    02a9            add         param_2,sp,#0x8                         
ram:00029284    0120            movs        param_1,#0x1                            
ram:00029286    adf80830        strh.w      r3,[sp,#local_60+0x68]                  
ram:0002928a    fff7baff        bl          FUN_00029202                            ;undefined FUN_00029202(void)
ram:0002928e    0446            mov         r4,param_1                              
ram:00029290    0028            cmp         param_1,#0x0                            
ram:00029292    40f08e80        bne.w       LAB_000293b2                            
ram:00029296    0146            mov         param_2,param_1                         
ram:00029298    0322            movs        r2,#0x3                                 
ram:0002929a    6846            mov         param_1,sp                              
ram:0002929c    03f078fd        bl          FUN_0002cd90                            ;undefined4 * FUN_0002cd90(undefined4...
ram:000292a0    9df80230        ldrb.w      r3,[sp,#local_66+0x68]                  
ram:000292a4    0122            movs        r2,#0x1                                 
ram:000292a6    62f34203        bfi         r3,r2,#0x1,#0x2                         
ram:000292aa    2146            mov         param_2,r4                              
ram:000292ac    1c22            movs        r2,#0x1c                                
ram:000292ae    41f21118        movw        r8,#0x1111                              
ram:000292b2    0da8            add         param_1,sp,#0x34                        
ram:000292b4    8df80230        strb.w      r3,[sp,#local_66+0x68]                  
ram:000292b8    adf80080        strh.w      r8,[sp,#0x0]=>local_68                  
ram:000292bc    03f068fd        bl          FUN_0002cd90                            ;undefined4 * FUN_0002cd90(undefined4...
ram:000292c0    9df83430        ldrb.w      r3,[sp,#local_34+0x68]                  
ram:000292c4    0e94            str         r4,[sp,#local_30+0x68]                  
ram:000292c6    23f01203        bic         r3,r3,#0x12                             
ram:000292ca    43f01203        orr         r3,r3,#0x12                             
ram:000292ce    8df83430        strb.w      r3,[sp,#local_34+0x68]                  
ram:000292d2    ab7c            ldrb        r3,[r5,#0x12]                           
ram:000292d4    8df80e30        strb.w      r3,[sp,#local_5a+0x68]                  
ram:000292d8    2146            mov         param_2,r4                              
ram:000292da    4ff64453        movw        r3,#0xfd44                              
ram:000292de    0322            movs        r2,#0x3                                 
ram:000292e0    01a8            add         param_1,sp,#0x4                         
ram:000292e2    cde91044        strd        r4,r4,[sp,#local_28+0x68]               
ram:000292e6    1394            str         r4,[sp,#local_1c+0x68]                  
ram:000292e8    adf80c30        strh.w      r3,[sp,#local_5c+0x68]                  
ram:000292ec    cdf848d0        str.w       sp,[sp,#local_20+0x68]                  
ram:000292f0    03f04efd        bl          FUN_0002cd90                            ;undefined4 * FUN_0002cd90(undefined4...
ram:000292f4    1123            movs        r3,#0x11                                
ram:000292f6    adf80430        strh.w      r3,[sp,#local_64+0x68]                  
ram:000292fa    9df80630        ldrb.w      r3,[sp,#local_62+0x68]                  
ram:000292fe    23f01f03        bic         r3,r3,#0x1f                             
ram:00029302    43f00203        orr         r3,r3,#0x2                              
ram:00029306    2146            mov         param_2,r4                              
ram:00029308    1422            movs        r2,#0x14                                
ram:0002930a    08a8            add         param_1,sp,#0x20                        
ram:0002930c    8df80630        strb.w      r3,[sp,#local_62+0x68]                  
ram:00029310    03f03efd        bl          FUN_0002cd90                            ;undefined4 * FUN_0002cd90(undefined4...
ram:00029314    01ab            add         r3,sp,#0x4                              
ram:00029316    0993            str         r3,[sp,#local_44+0x68]                  
ram:00029318    2b46            mov         r3,r5                                   
ram:0002931a    0f27            movs        r7,#0xf                                 
ram:0002931c    33f80a0b        ldrh.w      param_1,[r3],#0xa                       
ram:00029320    0c94            str         r4,[sp,#local_38+0x68]                  
ram:00029322    03ae            add         r6,sp,#0xc                              
ram:00029324    08aa            add         r2,sp,#0x20                             
ram:00029326    0da9            add         param_2,sp,#0x34                        
ram:00029328    0896            str         r6,[sp,#local_48+0x68]                  
ram:0002932a    0a97            str         r7,[sp,#local_40+0x68]                  
ram:0002932c    adf82c70        strh.w      r7,[sp,#local_3c+0x68]                  
ram:00029330    fff769ff        bl          FUN_00029206                            ;undefined FUN_00029206(void)
ram:00029334    0446            mov         r4,param_1                              
ram:00029336    0028            cmp         param_1,#0x0                            
ram:00029338    3bd1            bne         LAB_000293b2                            
ram:0002933a    0146            mov         param_2,param_1                         
ram:0002933c    1c22            movs        r2,#0x1c                                
ram:0002933e    0da8            add         param_1,sp,#0x34                        
ram:00029340    03f026fd        bl          FUN_0002cd90                            ;undefined4 * FUN_0002cd90(undefined4...
ram:00029344    9df83430        ldrb.w      r3,[sp,#local_34+0x68]                  
ram:00029348    0e94            str         r4,[sp,#local_30+0x68]                  
ram:0002934a    23f00a03        bic         r3,r3,#0xa                              
ram:0002934e    43f00a03        orr         r3,r3,#0xa                              
ram:00029352    8df83430        strb.w      r3,[sp,#local_34+0x68]                  
ram:00029356    ab7c            ldrb        r3,[r5,#0x12]                           
ram:00029358    8df80e30        strb.w      r3,[sp,#local_5a+0x68]                  
ram:0002935c    2146            mov         param_2,r4                              
ram:0002935e    4ff64553        movw        r3,#0xfd45                              
ram:00029362    0322            movs        r2,#0x3                                 
ram:00029364    01a8            add         param_1,sp,#0x4                         
ram:00029366    cde91044        strd        r4,r4,[sp,#local_28+0x68]               
ram:0002936a    cde91244        strd        r4,r4,[sp,#local_20+0x68]               
ram:0002936e    adf80c30        strh.w      r3,[sp,#local_5c+0x68]                  
ram:00029372    03f00dfd        bl          FUN_0002cd90                            ;undefined4 * FUN_0002cd90(undefined4...
ram:00029376    9df80630        ldrb.w      r3,[sp,#local_62+0x68]                  
ram:0002937a    adf80480        strh.w      r8,[sp,#local_64+0x68]                  
ram:0002937e    23f01f03        bic         r3,r3,#0x1f                             
ram:00029382    43f00203        orr         r3,r3,#0x2                              
ram:00029386    2146            mov         param_2,r4                              
ram:00029388    1422            movs        r2,#0x14                                
ram:0002938a    08a8            add         param_1,sp,#0x20                        
ram:0002938c    8df80630        strb.w      r3,[sp,#local_62+0x68]                  
ram:00029390    03f0fefc        bl          FUN_0002cd90                            ;undefined4 * FUN_0002cd90(undefined4...
ram:00029394    01ab            add         r3,sp,#0x4                              
ram:00029396    cde90937        strd        r3,r7,[sp,#local_44+0x68]               
ram:0002939a    2b46            mov         r3,r5                                   
ram:0002939c    08aa            add         r2,sp,#0x20                             
ram:0002939e    33f8020b        ldrh.w      param_1,[r3],#0x2                       
ram:000293a2    0c94            str         r4,[sp,#local_38+0x68]                  
ram:000293a4    0da9            add         param_2,sp,#0x34                        
ram:000293a6    0896            str         r6,[sp,#local_48+0x68]                  
ram:000293a8    adf82c70        strh.w      r7,[sp,#local_3c+0x68]                  
ram:000293ac    fff72bff        bl          FUN_00029206                            ;undefined FUN_00029206(void)
ram:000293b0    0446            mov         r4,param_1                              
                            LAB_000293b2:                 ;XREF[3,0]:   00029272,00029292,00029338
ram:000293b2    2046            mov         param_1,r4                              
ram:000293b4    14b0            add         sp,#0x50                                
ram:000293b6    bde8f081        pop.w       {r4,r5,r6,r7,r8,pc}                     
                            DAT_000293bc:                 ;XREF[1,0]:   00029248
ram:000293bc    020070b5        undefined4  B5700002h                               
                            ;************************************************************************************************
                            ;*                                           FUNCTION                                           *
                            ;************************************************************************************************
                            ;uint FUN_00029508(char * param_1, char * param_2)
          ;param_1       char *              r0                      
          ;param_2       char *              r1                      
                                                          ;XREF[1,0]:   0002955c
ram:00029508    37b5            push        {param_1,param_2,r2,r4,r5,lr}           
ram:0002950a    8b78            ldrb        r3,[param_2,#0x2]                       
ram:0002950c    8278            ldrb        r2,[param_1,#0x2]                       
ram:0002950e    4478            ldrb        r4,[param_1,#0x1]                       
ram:00029510    4d78            ldrb        r5,[param_2,#0x1]                       
ram:00029512    0078            ldrb        param_1,[param_1,#0x0]                  
ram:00029514    0978            ldrb        param_2,[param_2,#0x0]                  
ram:00029516    1a44            add         r2,r3                                   
ram:00029518    d2b2            uxtb        r2,r2                                   
ram:0002951a    3b2a            cmp         r2,#0x3b                                
ram:0002951c    2c44            add         r4,r5                                   
ram:0002951e    8cbf            ite         hi                                      
ram:00029520    0123            mov.hi      r3,#0x1                                 
ram:00029522    0023            mov.ls      r3,#0x0                                 
ram:00029524    2344            add         r3,r4                                   
ram:00029526    dbb2            uxtb        r3,r3                                   
ram:00029528    84bf            itt         hi                                      
ram:0002952a    3c3a            sub.hi      r2,#0x3c                                
ram:0002952c    d2b2            uxtb.hi     r2,r2                                   
ram:0002952e    3b2b            cmp         r3,#0x3b                                
ram:00029530    0144            add         param_2,param_1                         
ram:00029532    8cbf            ite         hi                                      
ram:00029534    0124            mov.hi      r4,#0x1                                 
ram:00029536    0024            mov.ls      r4,#0x0                                 
ram:00029538    0c44            add         r4,param_2                              
ram:0002953a    88bf            it          hi                                      
ram:0002953c    3c3b            sub.hi      r3,#0x3c                                
ram:0002953e    e4b2            uxtb        r4,r4                                   
ram:00029540    4ff00000        mov.w       param_1,#0x0                            
ram:00029544    88bf            it          hi                                      
ram:00029546    dbb2            uxtb.hi     r3,r3                                   
ram:00029548    64f30700        bfi         param_1,r4,#0x0,#0x8                    
ram:0002954c    63f30f20        bfi         param_1,r3,#0x8,#0x8                    
ram:00029550    62f31740        bfi         param_1,r2,#0x10,#0x8                   
ram:00029554    03b0            add         sp,#0xc                                 
ram:00029556    30bd            pop         {r4,r5,pc}                              
                            ;************************************************************************************************
                            ;*                                           FUNCTION                                           *
                            ;************************************************************************************************
                            ;undefined FUN_00029558(char * param_1, char * param_2)
          ;param_1       char *              r0                      
          ;param_2       char *              r1                      
ram:00029558    13b5            push        {param_1,param_2,r4,lr}                 
ram:0002955a    0446            mov         r4,param_1                              
ram:0002955c    fff7d4ff        bl          FUN_00029508                            ;uint FUN_00029508(char * param_1, ch...
ram:00029560    c0f30743        ubfx        r3,param_1,#0x10,#0x8                   
ram:00029564    a370            strb        r3,[r4,#0x2]                            
ram:00029566    c0f30723        ubfx        r3,param_1,#0x8,#0x8                    
ram:0002956a    6370            strb        r3,[r4,#0x1]                            
ram:0002956c    2070            strb        param_1,[r4,#0x0]                       
ram:0002956e    02b0            add         sp,#0x8                                 
ram:00029570    10bd            pop         {r4,pc}                                 
ram:00029572    0278            ldrb        r2,[r0,#0x0]                            
ram:00029574    0b78            ldrb        r3,[r1,#0x0]                            
ram:00029576    9a42            cmp         r2,r3                                   
ram:00029578    0cd3            bcc         LAB_00029594                            
ram:0002957a    0dd8            bhi         LAB_00029598                            
ram:0002957c    4278            ldrb        r2,[r0,#0x1]                            
ram:0002957e    4b78            ldrb        r3,[r1,#0x1]                            
ram:00029580    9a42            cmp         r2,r3                                   
ram:00029582    07d3            bcc         LAB_00029594                            
ram:00029584    08d8            bhi         LAB_00029598                            
ram:00029586    8078            ldrb        r0,[r0,#0x2]                            
ram:00029588    8b78            ldrb        r3,[r1,#0x2]                            
ram:0002958a    9842            cmp         r0,r3                                   
ram:0002958c    34bf            ite         cc                                      
ram:0002958e    0020            mov.cc      r0,#0x0                                 
ram:00029590    0120            mov.cs      r0,#0x1                                 
ram:00029592    7047            bx          lr                                      
                            LAB_00029594:                 ;XREF[2,0]:   00029578,00029582
ram:00029594    0020            movs        r0,#0x0                                 
ram:00029596    7047            bx          lr                                      
                            LAB_00029598:                 ;XREF[2,0]:   0002957a,00029584
ram:00029598    0120            movs        r0,#0x1                                 
ram:0002959a    7047            bx          lr                                      
ram:0002959c    0278            ldrb        r2,[r0,#0x0]                            
ram:0002959e    0b78            ldrb        r3,[r1,#0x0]                            
ram:000295a0    9a42            cmp         r2,r3                                   
ram:000295a2    05d1            bne         LAB_000295b0                            
ram:000295a4    4078            ldrb        r0,[r0,#0x1]                            
ram:000295a6    4b78            ldrb        r3,[r1,#0x1]                            
ram:000295a8    c31a            subs        r3,r0,r3                                
ram:000295aa    5842            rsbs        r0,r3                                   
ram:000295ac    5841            adcs        r0,r3                                   
ram:000295ae    7047            bx          lr                                      
                            LAB_000295b0:                 ;XREF[1,0]:   000295a2
ram:000295b0    0020            movs        r0,#0x0                                 
ram:000295b2    7047            bx          lr                                      
ram:000295b4    30b5            push        {r4,r5,lr}                              
ram:000295b6    8378            ldrb        r3,[r0,#0x2]                            
ram:000295b8    8a78            ldrb        r2,[r1,#0x2]                            
ram:000295ba    9b1a            subs        r3,r3,r2                                
ram:000295bc    4278            ldrb        r2,[r0,#0x1]                            
ram:000295be    4cbf            ite         mi                                      
ram:000295c0    4ff0ff34        mov.mi.w    r4,#0xffffffff                          
ram:000295c4    0024            mov.pl      r4,#0x0                                 
ram:000295c6    2244            add         r2,r4                                   
ram:000295c8    4c78            ldrb        r4,[r1,#0x1]                            
ram:000295ca    0978            ldrb        r1,[r1,#0x0]                            
ram:000295cc    48bf            it          mi                                      
ram:000295ce    3c33            add.mi      r3,#0x3c                                
ram:000295d0    121b            subs        r2,r2,r4                                
ram:000295d2    0478            ldrb        r4,[r0,#0x0]                            
ram:000295d4    4cbf            ite         mi                                      
ram:000295d6    4ff0ff35        mov.mi.w    r5,#0xffffffff                          
ram:000295da    0025            mov.pl      r5,#0x0                                 
ram:000295dc    2c44            add         r4,r5                                   
ram:000295de    48bf            it          mi                                      
ram:000295e0    3c32            add.mi      r2,#0x3c                                
ram:000295e2    611a            subs        r1,r4,r1                                
ram:000295e4    42bf            ittt        mi                                      
ram:000295e6    0023            mov.mi      r3,#0x0                                 
ram:000295e8    1a46            mov.mi      r2,r3                                   
ram:000295ea    1946            mov.mi      r1,r3                                   
ram:000295ec    0170            strb        r1,[r0,#0x0]                            
ram:000295ee    4270            strb        r2,[r0,#0x1]                            
ram:000295f0    8370            strb        r3,[r0,#0x2]                            
ram:000295f2    30bd            pop         {r4,r5,pc}                              
ram:000295f4    0170            strb        r1,[r0,#0x0]                            
ram:000295f6    4270            strb        r2,[r0,#0x1]                            
ram:000295f8    8370            strb        r3,[r0,#0x2]                            
ram:000295fa    7047            bx          lr                                      
ram:000295fc    10b5            push        {r4,lr}                                 
ram:000295fe    0478            ldrb        r4,[r0,#0x0]                            
ram:00029600    0c70            strb        r4,[r1,#0x0]                            
ram:00029602    4178            ldrb        r1,[r0,#0x1]                            
ram:00029604    1170            strb        r1,[r2,#0x0]                            
ram:00029606    8278            ldrb        r2,[r0,#0x2]                            
ram:00029608    1a70            strb        r2,[r3,#0x0]                            
ram:0002960a    10bd            pop         {r4,pc}                                 
ram:0002960c    0b78            ldrb        r3,[r1,#0x0]                            
ram:0002960e    0370            strb        r3,[r0,#0x0]                            
ram:00029610    4b78            ldrb        r3,[r1,#0x1]                            
ram:00029612    4370            strb        r3,[r0,#0x1]                            
ram:00029614    8b78            ldrb        r3,[r1,#0x2]                            
ram:00029616    8370            strb        r3,[r0,#0x2]                            
ram:00029618    7047            bx          lr                                      
ram:0002961a    8378            ldrb        r3,[r0,#0x2]                            
ram:0002961c    0133            adds        r3,#0x1                                 
ram:0002961e    dbb2            uxtb        r3,r3                                   
ram:00029620    3b2b            cmp         r3,#0x3b                                
ram:00029622    02d8            bhi         LAB_0002962a                            
ram:00029624    8370            strb        r3,[r0,#0x2]                            
                            LAB_00029626:                 ;XREF[2,0]:   0002963a,0002964a
ram:00029626    0020            movs        r0,#0x0                                 
ram:00029628    7047            bx          lr                                      
                            LAB_0002962a:                 ;XREF[1,0]:   00029622
ram:0002962a    4378            ldrb        r3,[r0,#0x1]                            
ram:0002962c    0133            adds        r3,#0x1                                 
ram:0002962e    dbb2            uxtb        r3,r3                                   
ram:00029630    0022            movs        r2,#0x0                                 
ram:00029632    3b2b            cmp         r3,#0x3b                                
ram:00029634    8270            strb        r2,[r0,#0x2]                            
ram:00029636    01d8            bhi         LAB_0002963c                            
ram:00029638    4370            strb        r3,[r0,#0x1]                            
ram:0002963a    f4e7            b           LAB_00029626                            
                            LAB_0002963c:                 ;XREF[1,0]:   00029636
ram:0002963c    0378            ldrb        r3,[r0,#0x0]                            
ram:0002963e    4270            strb        r2,[r0,#0x1]                            
ram:00029640    0133            adds        r3,#0x1                                 
ram:00029642    dbb2            uxtb        r3,r3                                   
ram:00029644    172b            cmp         r3,#0x17                                
ram:00029646    01d8            bhi         LAB_0002964c                            
ram:00029648    0370            strb        r3,[r0,#0x0]                            
ram:0002964a    ece7            b           LAB_00029626                            
                            LAB_0002964c:                 ;XREF[1,0]:   00029646
ram:0002964c    0270            strb        r2,[r0,#0x0]                            
ram:0002964e    0120            movs        r0,#0x1                                 
ram:00029650    7047            bx          lr                                      
ram:00029652    8378            ldrb        r3,[r0,#0x2]                            
ram:00029654    0133            adds        r3,#0x1                                 
ram:00029656    dbb2            uxtb        r3,r3                                   
ram:00029658    3b2b            cmp         r3,#0x3b                                
ram:0002965a    01d8            bhi         LAB_00029660                            
ram:0002965c    8370            strb        r3,[r0,#0x2]                            
ram:0002965e    7047            bx          lr                                      
                            LAB_00029660:                 ;XREF[1,0]:   0002965a
ram:00029660    4378            ldrb        r3,[r0,#0x1]                            
ram:00029662    0133            adds        r3,#0x1                                 
ram:00029664    dbb2            uxtb        r3,r3                                   
ram:00029666    0022            movs        r2,#0x0                                 
ram:00029668    3b2b            cmp         r3,#0x3b                                
ram:0002966a    8270            strb        r2,[r0,#0x2]                            
ram:0002966c    01d8            bhi         LAB_00029672                            
ram:0002966e    4370            strb        r3,[r0,#0x1]                            
ram:00029670    7047            bx          lr                                      
                            LAB_00029672:                 ;XREF[1,0]:   0002966c
ram:00029672    0378            ldrb        r3,[r0,#0x0]                            
ram:00029674    4270            strb        r2,[r0,#0x1]                            
ram:00029676    0133            adds        r3,#0x1                                 
ram:00029678    dbb2            uxtb        r3,r3                                   
ram:0002967a    fa2b            cmp         r3,#0xfa                                
ram:0002967c    88bf            it          hi                                      
ram:0002967e    fa23            mov.hi      r3,#0xfa                                
ram:00029680    0370            strb        r3,[r0,#0x0]                            
ram:00029682    7047            bx          lr                                      
ram:00029684    0023            movs        r3,#0x0                                 
ram:00029686    0370            strb        r3,[r0,#0x0]                            
ram:00029688    4370            strb        r3,[r0,#0x1]                            
ram:0002968a    8370            strb        r3,[r0,#0x2]                            
ram:0002968c    7047            bx          lr                                      
ram:0002968e    10b5            push        {r4,lr}                                 
ram:00029690    313a            subs        r2,#0x31                                
                            LAB_00029692:                 ;XREF[1,0]:   000296c4
ram:00029692    d2b2            uxtb        r2,r2                                   
ram:00029694    4c1e            subs        r4,r1,#0x1                              
ram:00029696    82b9            cbnz        r2,LAB_000296ba                         
ram:00029698    1970            strb        r1,[r3,#0x0]                            
ram:0002969a    0a4b            ldr         r3,[LAB_000296c4]                       
ram:0002969c    04eb0414        add.w       r4,r4,r4, lsl #0x4                      
ram:000296a0    2344            add         r3,r4                                   
ram:000296a2    0246            mov         r2,r0                                   
ram:000296a4    03f11001        add.w       r1,r3,#0x10                             
                            LAB_000296a8:                 ;XREF[1,0]:   000296b2
ram:000296a8    53f8044b        ldr.w       r4,[r3],#0x4                            
ram:000296ac    42f8044b        str.w       r4,[r2],#0x4                            
ram:000296b0    8b42            cmp         r3,r1                                   
ram:000296b2    f9d1            bne         LAB_000296a8                            
ram:000296b4    1b78            ldrb        r3,[r3,#0x0]                            
ram:000296b6    1370            strb        r3,[r2,#0x0]                            
ram:000296b8    10bd            pop         {r4,pc}                                 
                            LAB_000296ba:                 ;XREF[1,0]:   00029696
ram:000296ba    14f0ff01        ands        r1,r4,#0xff                             
ram:000296be    08bf            it          eq                                      
ram:000296c0    0721            mov.eq      r1,#0x7                                 
ram:000296c2    013a            subs        r2,#0x1                                 
                            LAB_000296c4:                 ;XREF[1,0]:   0002969a
ram:000296c4    e5e7            b           LAB_00029692                            
ram:000296c6    533b            subs        r3,#0x53                                
ram:000296c8    0020            movs        r0,#0x0                                 
ram:000296ca    72df            svc         0x72                                    
ram:000296cc    7047            bx          lr                                      
ram:000296ce    73df            svc         0x73                                    
ram:000296d0    7047            bx          lr                                      
                            LAB_000296d2:                 ;XREF[1,0]:   000296f8
ram:000296d2    76df            svc         0x76                                    
ram:000296d4    7047            bx          lr                                      
ram:000296d6    7adf            svc         0x7a                                    
ram:000296d8    7047            bx          lr                                      
ram:000296da    7cdf            svc         0x7c                                    
ram:000296dc    7047            bx          lr                                      
ram:000296de    7fdf            svc         0x7f                                    
ram:000296e0    7047            bx          lr                                      
ram:000296e2    8fdf            svc         0x8f                                    
ram:000296e4    7047            bx          lr                                      
ram:000296e6    b1df            svc         0xb1                                    
ram:000296e8    7047            bx          lr                                      
ram:000296ea    014b            ldr         r3,[LAB_000296f0]                       
ram:000296ec    0122            movs        r2,#0x1                                 
ram:000296ee    1a70            strb        r2,[r3,#0x0]=>DAT_3bd34770              
                            LAB_000296f0:                 ;XREF[1,0]:   000296ea
ram:000296f0    7047            bx          lr                                      
ram:000296f2    d33b            subs        r3,#0xd3                                
ram:000296f4    0020            movs        r0,#0x0                                 
ram:000296f6    1321            movs        r1,#0x13                                
ram:000296f8    fff7ebbf        b.w         LAB_000296d2                            
                            ;************************************************************************************************
                            ;*                                           FUNCTION                                           *
                            ;************************************************************************************************
                            ;uint FUN_0002a8fa(uint param_1)
          ;param_1       uint                r0                      
                                                          ;XREF[1,0]:   0002acae
ram:0002a8fa    08b5            push        {r3,lr}                                 
ram:0002a8fc    0146            mov         r1,param_1                              
ram:0002a8fe    0023            movs        r3,#0x0                                 
ram:0002a900    0122            movs        r2,#0x1                                 
ram:0002a902    0348            ldr         param_1=>DAT_3860bf00,[DAT_0002a910]    ;= 3860BF00h
ram:0002a904    fdf7defd        bl          FUN_000284c4                            ;undefined4 FUN_000284c4(int * param_...
ram:0002a908    b0fa80f0        clz         param_1,param_1                         
ram:0002a90c    4009            lsrs        param_1,param_1,#0x5                    
ram:0002a90e    08bd            pop         {r3,pc}                                 
                            DAT_0002a910:                 ;XREF[1,0]:   0002a902
ram:0002a910    00bf6038        undefined4  3860BF00h                               
                            LAB_0002abda:                 ;XREF[1,0]:   0002acde
ram:0002abda    b0f5652f        cmp.w       param_1,#0xe5000                        
ram:0002abde    2de9f041        push        {r4,r5,r6,r7,r8,lr}                     
ram:0002abe2    0546            mov         r5,param_1                              
ram:0002abe4    0f46            mov         r7,param_2                              
ram:0002abe6    1646            mov         r6,r2                                   
ram:0002abe8    14d3            bcc         LAB_0002ac14                            
ram:0002abea    1318            adds        r3,r2,param_1                           
ram:0002abec    013b            subs        r3,#0x1                                 
ram:0002abee    b3f5752f        cmp.w       r3,#0xf5000                             
ram:0002abf2    0fd2            bcs         LAB_0002ac14                            
ram:0002abf4    9307            lsls        r3,r2,#0x1e                             
ram:0002abf6    0dd1            bne         LAB_0002ac14                            
ram:0002abf8    dff82480        ldr.w       r8,[LAB_0002ac20]                       
ram:0002abfc    0524            movs        r4,#0x5                                 
                            LAB_0002abfe:                 ;XREF[1,0]:   0002ac12
ram:0002abfe    3346            mov         r3,r6                                   
ram:0002ac00    3a46            mov         r2,r7                                   
ram:0002ac02    2946            mov         param_2,r5                              
ram:0002ac04    4046            mov         param_1,r8                              
ram:0002ac06    fdf70efc        bl          FUN_00028426                            ;undefined4 FUN_00028426(int * param_...
ram:0002ac0a    30b1            cbz         param_1,LAB_0002ac1a                    
ram:0002ac0c    013c            subs        r4,#0x1                                 
ram:0002ac0e    14f0ff04        ands        r4,r4,#0xff                             
ram:0002ac12    f4d1            bne         LAB_0002abfe                            
                            LAB_0002ac14:                 ;XREF[3,0]:   0002abe8,0002abf2,0002abf6
ram:0002ac14    0020            movs        param_1,#0x0                            
                            LAB_0002ac16:                 ;XREF[1,0]:   0002ac1c
ram:0002ac16    bde8f081        pop.w       {r4,r5,r6,r7,r8,pc}                     
                            LAB_0002ac1a:                 ;XREF[1,0]:   0002ac0a
ram:0002ac1a    0120            movs        param_1,#0x1                            
ram:0002ac1c    fbe7            b           LAB_0002ac16                            
ram:0002ac1e    6038            subs        r0,#0x60                                
                            LAB_0002ac20:                 ;XREF[1,0]:   0002abf8
ram:0002ac20    0020            movs        r0,#0x0                                 
                            ;************************************************************************************************
                            ;*                                           FUNCTION                                           *
                            ;************************************************************************************************
                            ;uint FUN_0002ac22(uint param_1, uint param_2, uint param_3, undefined4 param_4, char param_5)
          ;param_1       uint                r0                      
          ;param_2       uint                r1                      
          ;param_3       uint                r2                      
          ;param_4       undefined4          r3                      
          ;param_5       char                 0                      ;XREF[1,0]:   0002ac28
          ;local_18      undefined4         -18                      ;XREF[1,0]:   0002ac40
                                                          ;XREF[1,0]:   0002accc
ram:0002ac22    73b5            push        {param_1,param_2,r4,r5,r6,lr}           
ram:0002ac24    b0f5652f        cmp.w       param_1,#0xe5000                        
ram:0002ac28    9df81860        ldrb.w      r6,[sp,#param_5+0x18]                   
ram:0002ac2c    21d3            bcc         LAB_0002ac72                            
ram:0002ac2e    1318            adds        param_4,param_3,param_1                 
ram:0002ac30    013b            subs        param_4,#0x1                            
ram:0002ac32    b3f5752f        cmp.w       param_4,#0xf5000                        
ram:0002ac36    1cd2            bcs         LAB_0002ac72                            
ram:0002ac38    12f00304        ands        r4,param_3,#0x3                         
ram:0002ac3c    19d1            bne         LAB_0002ac72                            
ram:0002ac3e    0e4d            ldr         r5,[LAB_0002ac78]                       
ram:0002ac40    0094            str         r4,[sp,#0x0]=>local_18                  
ram:0002ac42    1346            mov         param_4,param_3                         
ram:0002ac44    0a46            mov         param_3,param_2                         
ram:0002ac46    0146            mov         param_2,param_1                         
ram:0002ac48    0d48            ldr         param_1,[DAT_0002ac80]                  ;= B5382000h
ram:0002ac4a    2c70            strb        r4,[r5,#0x0]=>DAT_41dde7f9              
ram:0002ac4c    fdf70cfc        bl          FUN_00028468                            ;undefined4 FUN_00028468(int * param_...
ram:0002ac50    88b9            cbnz        param_1,LAB_0002ac76                    
ram:0002ac52    2b78            ldrb        param_4,[r5,#0x0]=>DAT_41dde7f9         
ram:0002ac54    0bb1            cbz         param_4,LAB_0002ac5a                    
ram:0002ac56    0133            adds        param_4,#0x1                            
ram:0002ac58    2b70            strb        param_4,[r5,#0x0]=>DAT_41dde7f9         
                            LAB_0002ac5a:                 ;XREF[1,0]:   0002ac54
ram:0002ac5a    3eb1            cbz         r6,LAB_0002ac6c                         
ram:0002ac5c    084c            ldr         r4,[DAT_0002ac80]                       ;= B5382000h
                            LAB_0002ac5e:                 ;XREF[1,0]:   0002ac6a
ram:0002ac5e    2046            mov         param_1,r4                              
ram:0002ac60    fdf757fc        bl          FUN_00028512                            ;int FUN_00028512(int * param_1)
ram:0002ac64    10b1            cbz         param_1,LAB_0002ac6c                    
ram:0002ac66    2b78            ldrb        param_4,[r5,#0x0]=>DAT_41dde7f9         
ram:0002ac68    002b            cmp         param_4,#0x0                            
ram:0002ac6a    f8d0            beq         LAB_0002ac5e                            
                            LAB_0002ac6c:                 ;XREF[2,0]:   0002ac5a,0002ac64
ram:0002ac6c    0120            movs        param_1,#0x1                            
                            LAB_0002ac6e:                 ;XREF[2,0]:   0002ac74,0002ac78
ram:0002ac6e    02b0            add         sp,#0x8                                 
ram:0002ac70    70bd            pop         {r4,r5,r6,pc}                           
                            LAB_0002ac72:                 ;XREF[3,0]:   0002ac2c,0002ac36,0002ac3c
ram:0002ac72    0220            movs        param_1,#0x2                            
ram:0002ac74    fbe7            b           LAB_0002ac6e                            
                            LAB_0002ac76:                 ;XREF[1,0]:   0002ac50
ram:0002ac76    2046            mov         param_1,r4                              
                            LAB_0002ac78:                 ;XREF[1,0]:   0002ac3e
ram:0002ac78    f9e7            b           LAB_0002ac6e                            
ram:0002ac7a    dd41            rors        r5,r3                                   
ram:0002ac7c    0020            movs        r0,#0x0                                 
ram:0002ac7e    6038            subs        r0,#0x60                                
                            DAT_0002ac80:                 ;XREF[2,0]:   0002ac48,0002ac5c
ram:0002ac80    002038b5        undefined4  B5382000h                               
                            ;************************************************************************************************
                            ;*                                           FUNCTION                                           *
                            ;************************************************************************************************
                            ;uint FUN_0002ac9e(uint param_1, int param_2)
          ;param_1       uint                r0                      
          ;param_2       int                 r1                      
                                                          ;XREF[1,0]:   0002af88
ram:0002ac9e    10b5            push        {r4,lr}                                 
ram:0002aca0    0446            mov         r4,param_1                              
ram:0002aca2    31b9            cbnz        param_2,LAB_0002acb2                    
                            LAB_0002aca4:                 ;XREF[1,0]:   0002acb8
ram:0002aca4    e000            lsls        param_1,r4,#0x3                         
ram:0002aca6    00f56520        add.w       param_1,param_1,#0xe5000                
ram:0002acaa    bde81040        pop.w       {r4,lr}                                 
ram:0002acae    fff724be        b.w         FUN_0002a8fa                            ;uint FUN_0002a8fa(uint param_1)
                            LAB_0002acb2:                 ;XREF[1,0]:   0002aca2
ram:0002acb2    00f04cf9        bl          FUN_0002af4e                            ;uint FUN_0002af4e(uint param_1)
ram:0002acb6    0028            cmp         param_1,#0x0                            
ram:0002acb8    f4d1            bne         LAB_0002aca4                            
ram:0002acba    10bd            pop         {r4,pc}                                 
                            ;************************************************************************************************
                            ;*                                           FUNCTION                                           *
                            ;************************************************************************************************
                            ;undefined FUN_0002acbc(uint param_1, int param_2)
          ;param_1       uint                r0                      
          ;param_2       int                 r1                      
          ;local_10      undefined4         -10                      ;XREF[1,0]:   0002acc2
                                                          ;XREF[1,0]:   0002af7c
ram:0002acbc    13b5            push        {param_1,param_2,r4,lr}                 
ram:0002acbe    0023            movs        r3,#0x0                                 
ram:0002acc0    cc00            lsls        r4,param_2,#0x3                         
ram:0002acc2    0093            str         r3,[sp,#0x0]=>local_10                  
ram:0002acc4    0146            mov         param_2,param_1                         
ram:0002acc6    0822            movs        r2,#0x8                                 
ram:0002acc8    04f56520        add.w       param_1,r4,#0xe5000                     
ram:0002accc    fff7a9ff        bl          FUN_0002ac22                            ;uint FUN_0002ac22(uint param_1, uint...
ram:0002acd0    02b0            add         sp,#0x8                                 
ram:0002acd2    10bd            pop         {r4,pc}                                 
                            ;************************************************************************************************
                            ;*                                           FUNCTION                                           *
                            ;************************************************************************************************
                            ;undefined4 FUN_0002acd4(int param_1, int param_2)
          ;param_1       int                 r0                      
          ;param_2       int                 r1                      
                                                          ;XREF[1,0]:   0002ad5c
ram:0002acd4    cb00            lsls        r3,param_2,#0x3                         
ram:0002acd6    0422            movs        r2,#0x4                                 
ram:0002acd8    0146            mov         param_2,param_1                         
ram:0002acda    03f56520        add.w       param_1,r3,#0xe5000                     
ram:0002acde    fff77cbf        b.w         LAB_0002abda                            
                            ;************************************************************************************************
                            ;*                                           FUNCTION                                           *
                            ;************************************************************************************************
                            ;undefined FUN_0002ad2c(byte * param_1, uint param_2, undefined4 param_3)
          ;param_1       byte *              r0                      
          ;param_2       uint                r1                      
          ;param_3       undefined4          r2                      
          ;local_a       undefined2          -a                      ;XREF[1,0]:   0002ad38
                                                          ;XREF[1,0]:   0002ad4a
ram:0002ad2c    07b5            push        {param_1,param_2,param_3,lr}            
ram:0002ad2e    091a            subs        param_2,param_2,param_1                 
ram:0002ad30    0023            movs        r3,#0x0                                 
ram:0002ad32    0df10602        add.w       param_3,sp,#0x6                         
ram:0002ad36    0131            adds        param_2,#0x1                            
ram:0002ad38    adf80630        strh.w      r3,[sp,#local_a+0x10]                   
ram:0002ad3c    fdf70dfc        bl          FUN_0002855a                            ;uint FUN_0002855a(byte * param_1, in...
ram:0002ad40    03b0            add         sp,#0xc                                 
ram:0002ad42    5df804fb        pop.w       pc                                      
                            ;************************************************************************************************
                            ;*                                           FUNCTION                                           *
                            ;************************************************************************************************
                            ;bool FUN_0002ad46(byte * param_1, uint param_2, int param_3)
          ;param_1       byte *              r0                      
          ;param_2       uint                r1                      
          ;param_3       int                 r2                      
ram:0002ad46    10b5            push        {r4,lr}                                 
ram:0002ad48    1446            mov         r4,param_3                              
ram:0002ad4a    fff7efff        bl          FUN_0002ad2c                            ;undefined FUN_0002ad2c(byte * param_...
ram:0002ad4e    031b            subs        r3,param_1,r4                           
ram:0002ad50    5842            rsbs        param_1,r3                              
ram:0002ad52    5841            adcs        param_1,r3                              
ram:0002ad54    10bd            pop         {r4,pc}                                 
ram:0002ad56    07b5            push        {r0,r1,r2,lr}                           
ram:0002ad58    0146            mov         r1,r0                                   
ram:0002ad5a    01a8            add         r0,sp,#0x4                              
ram:0002ad5c    fff7baff        bl          FUN_0002acd4                            ;undefined4 FUN_0002acd4(int param_1,...
ram:0002ad60    0128            cmp         r0,#0x1                                 
ram:0002ad62    0cbf            ite         eq                                      
ram:0002ad64    0198            ldr.eq      r0,[sp,#0x4]                            
ram:0002ad66    4ff0ff30        mov.ne.w    r0,#0xffffffff                          
ram:0002ad6a    03b0            add         sp,#0xc                                 
ram:0002ad6c    5df804fb        pop.w       pc                                      
                            ;************************************************************************************************
                            ;*                                           FUNCTION                                           *
                            ;************************************************************************************************
                            ;uint FUN_0002af4e(uint param_1)
          ;param_1       uint                r0                      
                                                          ;XREF[1,0]:   0002acb2
ram:0002af4e    c0f30800        ubfx        param_1,param_1,#0x0,#0x9               
ram:0002af52    b0fa80f0        clz         param_1,param_1                         
ram:0002af56    4009            lsrs        param_1,param_1,#0x5                    
ram:0002af58    7047            bx          lr                                      
                            ;************************************************************************************************
                            ;*                                           FUNCTION                                           *
                            ;************************************************************************************************
                            ;undefined4 FUN_0002af5a(int * param_1)
          ;param_1       int *               r0                      
          ;local_10      undefined4         -10                      
ram:0002af5a    38b5            push        {r3,r4,r5,lr}                           
ram:0002af5c    0368            ldr         r3,[param_1,#0x0]                       
ram:0002af5e    0133            adds        r3,#0x1                                 
ram:0002af60    0446            mov         r4,param_1                              
ram:0002af62    15d0            beq         LAB_0002af90                            
ram:0002af64    0c4d            ldr         r5,[DAT_0002af98]                       ;= 4A032000h
ram:0002af66    2b88            ldrh        r3,[r5,#0x0]=>DAT_4a032000              
ram:0002af68    40f2ff11        movw        r1,#0x1ff                               
ram:0002af6c    c3f30800        ubfx        param_1,r3,#0x0,#0x9                    
ram:0002af70    8842            cmp         param_1,r1                              
ram:0002af72    05d0            beq         LAB_0002af80                            
                            LAB_0002af74:                 ;XREF[1,0]:   0002af8e
ram:0002af74    2988            ldrh        r1,[r5,#0x0]=>DAT_4a032000              
ram:0002af76    2046            mov         param_1,r4                              
ram:0002af78    bde83840        pop.w       {r3,r4,r5,lr}                           
ram:0002af7c    fff79ebe        b.w         FUN_0002acbc                            ;undefined FUN_0002acbc(uint param_1,...
                            LAB_0002af80:                 ;XREF[1,0]:   0002af72
ram:0002af80    0133            adds        r3,#0x1                                 
ram:0002af82    0021            movs        r1,#0x0                                 
ram:0002af84    c3f30c00        ubfx        param_1,r3,#0x0,#0xd                    
ram:0002af88    fff789fe        bl          FUN_0002ac9e                            ;uint FUN_0002ac9e(uint param_1, int ...
ram:0002af8c    0128            cmp         param_1,#0x1                            
ram:0002af8e    f1d0            beq         LAB_0002af74                            
                            LAB_0002af90:                 ;XREF[1,0]:   0002af62
ram:0002af90    0220            movs        param_1,#0x2                            
ram:0002af92    38bd            pop         {r3,r4,r5,pc}                           
ram:0002af94    00bf            nop                                                  
ram:0002af96    2242            tst         r2,r4                                   
                            DAT_0002af98:                 ;XREF[1,0]:   0002af64
ram:0002af98    0020034a        undefined4  4A032000h                               
                            ;************************************************************************************************
                            ;*                                           FUNCTION                                           *
                            ;************************************************************************************************
                            ;undefined FUN_0002b5a2(void)
                                                          ;XREF[1,0]:   0002b6b8
ram:0002b5a2    6ddf            svc         0x6d                                    
ram:0002b5a4    7047            bx          lr                                      
                            ;************************************************************************************************
                            ;*                                           FUNCTION                                           *
                            ;************************************************************************************************
                            ;undefined FUN_0002b5a6(void)
                                                          ;XREF[1,0]:   0002b712
ram:0002b5a6    79df            svc         0x79                                    
ram:0002b5a8    7047            bx          lr                                      
                            ;************************************************************************************************
                            ;*                                           FUNCTION                                           *
                            ;************************************************************************************************
                            ;undefined FUN_0002b5aa(void)
                                                          ;XREF[1,0]:   0002b89a
ram:0002b5aa    7ddf            svc         0x7d                                    
ram:0002b5ac    7047            bx          lr                                      
                            ;************************************************************************************************
                            ;*                                           FUNCTION                                           *
                            ;************************************************************************************************
                            ;undefined FUN_0002b5ae(void)
                                                          ;XREF[2,0]:   0002b600,0002b640
ram:0002b5ae    64df            svc         0x64                                    
ram:0002b5b0    7047            bx          lr                                      
                            ;************************************************************************************************
                            ;*                                           FUNCTION                                           *
                            ;************************************************************************************************
                            ;int FUN_0002b5b2(ushort * param_1, undefined param_2, uint param_3, int param_4, ushort * param_5, ushort param_6)
          ;param_1       ushort *            r0                      
          ;param_2       undefined           r1                      
          ;param_3       uint                r2                      
          ;param_4       int                 r3                      
          ;param_5       ushort *             0                      ;XREF[1,0]:   0002b5ba
          ;param_6       ushort               4                      ;XREF[1,0]:   0002b5bc
          ;local_2c      undefined4         -2c                      ;XREF[1,0]:   0002b5f6
          ;local_2d      undefined1         -2d                      ;XREF[2,0]:   0002b608,0002b64a
          ;local_34      undefined4         -34                      ;XREF[2,0]:   0002b5c4,0002b62a
                                                          ;XREF[2,0]:   0002b674,0002b68c
ram:0002b5b2    2de9f04f        push        {r4,r5,r6,r7,r8,r9,r10,r11,lr}          
ram:0002b5b6    85b0            sub         sp,#0x14                                
ram:0002b5b8    0025            movs        r5,#0x0                                 
ram:0002b5ba    0e9c            ldr         r4,[sp,#param_5+0x38]                   
ram:0002b5bc    bdf83cb0        ldrh.w      r11,[sp,#param_6+0x38]                  
ram:0002b5c0    b4f800a0        ldrh.w      r10,[r4,#0x0]                           
ram:0002b5c4    0191            str         param_2,[sp,#local_34+0x38]             
ram:0002b5c6    0746            mov         r7,param_1                              
ram:0002b5c8    9046            mov         r8,param_3                              
ram:0002b5ca    1e46            mov         r6,param_4                              
ram:0002b5cc    a946            mov         r9,r5                                   
                            LAB_0002b5ce:                 ;XREF[1,0]:   0002b658
ram:0002b5ce    3a88            ldrh        param_3,[r7,#0x0]                       
ram:0002b5d0    4a45            cmp         param_3,r9                              
ram:0002b5d2    0ddc            bgt         LAB_0002b5f0                            
ram:0002b5d4    45b1            cbz         r5,LAB_0002b5e8                         
ram:0002b5d6    2388            ldrh        param_4,[r4,#0x0]                       
ram:0002b5d8    013b            subs        param_4,#0x1                            
ram:0002b5da    a3eb0a03        sub.w       param_4,param_4,r10                     
ram:0002b5de    9bb2            uxth        param_4,param_4                         
ram:0002b5e0    ff2b            cmp         param_4,#0xff                           
ram:0002b5e2    3ad8            bhi         LAB_0002b65a                            
ram:0002b5e4    06f80a30        strb.w      param_4,r6,r10,0x0                      
                            LAB_0002b5e8:                 ;XREF[1,0]:   0002b5d4
ram:0002b5e8    0020            movs        param_1,#0x0                            
                            LAB_0002b5ea:                 ;XREF[3,0]:   0002b606,0002b646,0002b65c
ram:0002b5ea    05b0            add         sp,#0x14                                
ram:0002b5ec    bde8f08f        pop.w       {r4,r5,r6,r7,r8,r9,r10,r11,pc}          
                            LAB_0002b5f0:                 ;XREF[1,0]:   0002b5d2
ram:0002b5f0    7a68            ldr         param_3,[r7,#0x4]                       
ram:0002b5f2    52f82900        ldr.w       param_1,param_3,r9,0x2                  
ram:0002b5f6    0390            str         param_1,[sp,#local_2c+0x38]             
ram:0002b5f8    0022            movs        param_3,#0x0                            
ram:0002b5fa    0df10b01        add.w       param_2,sp,#0xb                         
ram:0002b5fe    03a8            add         param_1,sp,#0xc                         
ram:0002b600    fff7d5ff        bl          FUN_0002b5ae                            ;undefined FUN_0002b5ae(void)
ram:0002b604    0028            cmp         param_1,#0x0                            
ram:0002b606    f0d1            bne         LAB_0002b5ea                            
ram:0002b608    9df80b20        ldrb.w      param_3,[sp,#local_2d+0x38]             
ram:0002b60c    4245            cmp         param_3,r8                              
ram:0002b60e    21d1            bne         LAB_0002b654                            
ram:0002b610    2288            ldrh        param_3,[r4,#0x0]                       
ram:0002b612    002d            cmp         r5,#0x0                                 
ram:0002b614    14bf            ite         ne                                      
ram:0002b616    0020            mov.ne      param_1,#0x0                            
ram:0002b618    0220            mov.eq      param_1,#0x2                            
ram:0002b61a    02eb0801        add.w       param_2,param_3,r8                      
ram:0002b61e    0144            add         param_2,param_1                         
ram:0002b620    5945            cmp         param_2,r11                             
ram:0002b622    1adc            bgt         LAB_0002b65a                            
ram:0002b624    3db9            cbnz        r5,LAB_0002b636                         
ram:0002b626    0132            adds        param_3,#0x1                            
ram:0002b628    92b2            uxth        param_3,param_3                         
ram:0002b62a    019b            ldr         param_4,[sp,#local_34+0x38]             
ram:0002b62c    2280            strh        param_3,[r4,#0x0]                       
ram:0002b62e    b354            strb        param_4,[r6,param_3]                    
ram:0002b630    2288            ldrh        param_3,[r4,#0x0]                       
ram:0002b632    0132            adds        param_3,#0x1                            
ram:0002b634    2280            strh        param_3,[r4,#0x0]                       
                            LAB_0002b636:                 ;XREF[1,0]:   0002b624
ram:0002b636    2288            ldrh        param_3,[r4,#0x0]                       
ram:0002b638    0df10b01        add.w       param_2,sp,#0xb                         
ram:0002b63c    3244            add         param_3,r6                              
ram:0002b63e    03a8            add         param_1,sp,#0xc                         
ram:0002b640    fff7b5ff        bl          FUN_0002b5ae                            ;undefined FUN_0002b5ae(void)
ram:0002b644    0028            cmp         param_1,#0x0                            
ram:0002b646    d0d1            bne         LAB_0002b5ea                            
ram:0002b648    2188            ldrh        param_2,[r4,#0x0]                       
ram:0002b64a    9df80b20        ldrb.w      param_3,[sp,#local_2d+0x38]             
ram:0002b64e    0a44            add         param_3,param_2                         
ram:0002b650    2280            strh        param_3,[r4,#0x0]                       
ram:0002b652    0125            movs        r5,#0x1                                 
                            LAB_0002b654:                 ;XREF[1,0]:   0002b60e
ram:0002b654    09f10109        add.w       r9,r9,#0x1                              
ram:0002b658    b9e7            b           LAB_0002b5ce                            
                            LAB_0002b65a:                 ;XREF[2,0]:   0002b5e2,0002b622
ram:0002b65a    0c20            movs        param_1,#0xc                            
ram:0002b65c    c5e7            b           LAB_0002b5ea                            
                            ;************************************************************************************************
                            ;*                                           FUNCTION                                           *
                            ;************************************************************************************************
                            ;undefined FUN_0002b65e(ushort * param_1, undefined param_2, undefined param_3, int param_4, ushort * param_5, ushort param_6)
          ;param_1       ushort *            r0                      
          ;param_2       undefined           r1                      
          ;param_3       undefined           r2                      
          ;param_4       int                 r3                      
          ;param_5       ushort *             0                      ;XREF[2,0]:   0002b662,0002b682
          ;param_6       ushort               4                      ;XREF[1,0]:   0002b664
          ;local_20      undefined4         -20                      ;XREF[1,0]:   0002b66a
                                                          ;XREF[3,0]:   0002b7be,0002b7da,0002b8fc
ram:0002b65e    2de9f341        push        {param_1,param_2,r4,r5,r6,r7,r8,lr}     
ram:0002b662    089f            ldr         r7,[sp,#param_5+0x20]                   
ram:0002b664    bdf82480        ldrh.w      r8,[sp,#param_6+0x20]                   
ram:0002b668    1546            mov         r5,param_3                              
ram:0002b66a    cde90078        strd        r7,r8,[sp,#0x0]=>local_20               
ram:0002b66e    0222            movs        param_3,#0x2                            
ram:0002b670    0446            mov         r4,param_1                              
ram:0002b672    1e46            mov         r6,param_4                              
ram:0002b674    fff79dff        bl          FUN_0002b5b2                            ;int FUN_0002b5b2(ushort * param_1, u...
ram:0002b678    50b9            cbnz        param_1,LAB_0002b690                    
ram:0002b67a    3346            mov         param_4,r6                              
ram:0002b67c    1022            movs        param_3,#0x10                           
ram:0002b67e    2946            mov         param_2,r5                              
ram:0002b680    2046            mov         param_1,r4                              
ram:0002b682    cde90878        strd        r7,r8,[sp,#param_5+0x20]                
ram:0002b686    02b0            add         sp,#0x8                                 
ram:0002b688    bde8f041        pop.w       {r4,r5,r6,r7,r8,lr}                     
ram:0002b68c    fff791bf        b.w         FUN_0002b5b2                            ;int FUN_0002b5b2(ushort * param_1, u...
                            LAB_0002b690:                 ;XREF[1,0]:   0002b678
ram:0002b690    02b0            add         sp,#0x8                                 
ram:0002b692    bde8f081        pop.w       {r4,r5,r6,r7,r8,pc}                     
                            ;************************************************************************************************
                            ;*                                           FUNCTION                                           *
                            ;************************************************************************************************
                            ;int FUN_0002b696(short * param_1, int param_2, ushort * param_3)
          ;param_1       short *             r0                      
          ;param_2       int                 r1                      
          ;param_3       ushort *            r2                      
          ;local_30      undefined2         -30                      ;XREF[7,0]:   0002b6ea,0002b730,0002b896,0002b8a2,0002b8c6
                                                                     ;             0002b8cc,0002ba24
          ;local_38      undefined4         -38                      ;XREF[3,0]:   0002b7b0,0002b7cc,0002b8ee
ram:0002b696    2de9f04f        push        {r4,r5,r6,r7,r8,r9,r10,r11,lr}          
ram:0002b69a    0023            movs        r3,#0x0                                 
ram:0002b69c    1788            ldrh        r7,[param_3,#0x0]                       
ram:0002b69e    1380            strh        r3,[param_3,#0x0]                       
ram:0002b6a0    90f82d30        ldrb.w      r3,[param_1,#0x2d]                      
ram:0002b6a4    85b0            sub         sp,#0x14                                
ram:0002b6a6    0646            mov         r6,param_1                              
ram:0002b6a8    0d46            mov         r5,param_2                              
ram:0002b6aa    1446            mov         r4,param_3                              
ram:0002b6ac    53b3            cbz         r3,LAB_0002b704                         
ram:0002b6ae    082f            cmp         r7,#0x8                                 
ram:0002b6b0    01d8            bhi         LAB_0002b6b6                            
                            LAB_0002b6b2:                 ;XREF[10,0]:  0002b70e,0002b752,0002b77e,0002b804
                                                          ;             0002b80a,0002b876,0002b886,0002b8d2
                                                          ;             0002b916,0002b9c8
ram:0002b6b2    0c20            movs        param_1,#0xc                            
ram:0002b6b4    27e1            b           LAB_0002b906                            
                            LAB_0002b6b6:                 ;XREF[1,0]:   0002b6b0
ram:0002b6b6    02a8            add         param_1,sp,#0x8                         
ram:0002b6b8    fff773ff        bl          FUN_0002b5a2                            ;undefined FUN_0002b5a2(void)
ram:0002b6bc    0028            cmp         param_1,#0x0                            
ram:0002b6be    40f02281        bne.w       LAB_0002b906                            
ram:0002b6c2    2388            ldrh        r3,[r4,#0x0]                            
ram:0002b6c4    0822            movs        param_3,#0x8                            
ram:0002b6c6    ea54            strb        param_3,[r5,r3]                         
ram:0002b6c8    2388            ldrh        r3,[r4,#0x0]                            
ram:0002b6ca    0133            adds        r3,#0x1                                 
ram:0002b6cc    9bb2            uxth        r3,r3                                   
ram:0002b6ce    1b22            movs        param_3,#0x1b                           
ram:0002b6d0    2380            strh        r3,[r4,#0x0]                            
ram:0002b6d2    ea54            strb        param_3,[r5,r3]                         
ram:0002b6d4    2088            ldrh        param_1,[r4,#0x0]                       
ram:0002b6d6    0130            adds        param_1,#0x1                            
ram:0002b6d8    80b2            uxth        param_1,param_1                         
ram:0002b6da    2080            strh        param_1,[r4,#0x0]                       
ram:0002b6dc    0622            movs        param_3,#0x6                            
ram:0002b6de    0df10901        add.w       param_2,sp,#0x9                         
ram:0002b6e2    2844            add         param_1,r5                              
ram:0002b6e4    01f02bfb        bl          FUN_0002cd3e                            ;undefined4 * FUN_0002cd3e(undefined4...
ram:0002b6e8    2388            ldrh        r3,[r4,#0x0]                            
ram:0002b6ea    9df80820        ldrb.w      param_3,[sp,#local_30+0x38]             
ram:0002b6ee    0633            adds        r3,#0x6                                 
ram:0002b6f0    9bb2            uxth        r3,r3                                   
ram:0002b6f2    12f0fe02        ands        param_3,param_3,#0xfe                   
ram:0002b6f6    18bf            it          ne                                      
ram:0002b6f8    0122            mov.ne      param_3,#0x1                            
ram:0002b6fa    2380            strh        r3,[r4,#0x0]                            
ram:0002b6fc    ea54            strb        param_3,[r5,r3]                         
ram:0002b6fe    2388            ldrh        r3,[r4,#0x0]                            
ram:0002b700    0133            adds        r3,#0x1                                 
ram:0002b702    2380            strh        r3,[r4,#0x0]                            
                            LAB_0002b704:                 ;XREF[1,0]:   0002b6ac
ram:0002b704    b378            ldrb        r3,[r6,#0x2]                            
ram:0002b706    fbb1            cbz         r3,LAB_0002b748                         
ram:0002b708    2388            ldrh        r3,[r4,#0x0]                            
ram:0002b70a    0433            adds        r3,#0x4                                 
ram:0002b70c    bb42            cmp         r3,r7                                   
ram:0002b70e    d0d8            bhi         LAB_0002b6b2                            
ram:0002b710    02a8            add         param_1,sp,#0x8                         
ram:0002b712    fff748ff        bl          FUN_0002b5a6                            ;undefined FUN_0002b5a6(void)
ram:0002b716    0028            cmp         param_1,#0x0                            
ram:0002b718    40f0f580        bne.w       LAB_0002b906                            
ram:0002b71c    2388            ldrh        r3,[r4,#0x0]                            
ram:0002b71e    0322            movs        param_3,#0x3                            
ram:0002b720    ea54            strb        param_3,[r5,r3]                         
ram:0002b722    2388            ldrh        r3,[r4,#0x0]                            
ram:0002b724    0133            adds        r3,#0x1                                 
ram:0002b726    9bb2            uxth        r3,r3                                   
ram:0002b728    1922            movs        param_3,#0x19                           
ram:0002b72a    2380            strh        r3,[r4,#0x0]                            
ram:0002b72c    ea54            strb        param_3,[r5,r3]                         
ram:0002b72e    2388            ldrh        r3,[r4,#0x0]                            
ram:0002b730    bdf80820        ldrh.w      param_3,[sp,#local_30+0x38]             
ram:0002b734    0133            adds        r3,#0x1                                 
ram:0002b736    9bb2            uxth        r3,r3                                   
ram:0002b738    e918            adds        param_2,r5,r3                           
ram:0002b73a    2380            strh        r3,[r4,#0x0]                            
ram:0002b73c    ea54            strb        param_3,[r5,r3]                         
ram:0002b73e    120a            lsrs        param_3,param_3,#0x8                    
ram:0002b740    4a70            strb        param_3,[param_2,#0x1]                  
ram:0002b742    2388            ldrh        r3,[r4,#0x0]                            
ram:0002b744    0233            adds        r3,#0x2                                 
ram:0002b746    2380            strh        r3,[r4,#0x0]                            
                            LAB_0002b748:                 ;XREF[1,0]:   0002b706
ram:0002b748    f278            ldrb        param_3,[r6,#0x3]                       
ram:0002b74a    9ab1            cbz         param_3,LAB_0002b774                    
ram:0002b74c    2388            ldrh        r3,[r4,#0x0]                            
ram:0002b74e    d91c            adds        param_2,r3,#0x3                         
ram:0002b750    b942            cmp         param_2,r7                              
ram:0002b752    aed8            bhi         LAB_0002b6b2                            
ram:0002b754    0221            movs        param_2,#0x2                            
ram:0002b756    e954            strb        param_2,[r5,r3]                         
ram:0002b758    2388            ldrh        r3,[r4,#0x0]                            
ram:0002b75a    0133            adds        r3,#0x1                                 
ram:0002b75c    9bb2            uxth        r3,r3                                   
ram:0002b75e    0121            movs        param_2,#0x1                            
ram:0002b760    2380            strh        r3,[r4,#0x0]                            
ram:0002b762    e954            strb        param_2,[r5,r3]                         
ram:0002b764    2388            ldrh        r3,[r4,#0x0]                            
ram:0002b766    0b44            add         r3,param_2                              
ram:0002b768    9bb2            uxth        r3,r3                                   
ram:0002b76a    2380            strh        r3,[r4,#0x0]                            
ram:0002b76c    ea54            strb        param_3,[r5,r3]                         
ram:0002b76e    2388            ldrh        r3,[r4,#0x0]                            
ram:0002b770    0b44            add         r3,param_2                              
ram:0002b772    2380            strh        r3,[r4,#0x0]                            
                            LAB_0002b774:                 ;XREF[1,0]:   0002b74a
ram:0002b774    7268            ldr         param_3,[r6,#0x4]                       
ram:0002b776    aab1            cbz         param_3,LAB_0002b7a4                    
ram:0002b778    2388            ldrh        r3,[r4,#0x0]                            
ram:0002b77a    d91c            adds        param_2,r3,#0x3                         
ram:0002b77c    b942            cmp         param_2,r7                              
ram:0002b77e    98d8            bhi         LAB_0002b6b2                            
ram:0002b780    0221            movs        param_2,#0x2                            
ram:0002b782    92f90020        ldrsb.w     param_3,[param_3,#0x0]                  
ram:0002b786    e954            strb        param_2,[r5,r3]                         
ram:0002b788    2388            ldrh        r3,[r4,#0x0]                            
ram:0002b78a    0133            adds        r3,#0x1                                 
ram:0002b78c    9bb2            uxth        r3,r3                                   
ram:0002b78e    0a21            movs        param_2,#0xa                            
ram:0002b790    2380            strh        r3,[r4,#0x0]                            
ram:0002b792    e954            strb        param_2,[r5,r3]                         
ram:0002b794    2388            ldrh        r3,[r4,#0x0]                            
ram:0002b796    0133            adds        r3,#0x1                                 
ram:0002b798    9bb2            uxth        r3,r3                                   
ram:0002b79a    2380            strh        r3,[r4,#0x0]                            
ram:0002b79c    ea54            strb        param_3,[r5,r3]                         
ram:0002b79e    2388            ldrh        r3,[r4,#0x0]                            
ram:0002b7a0    0133            adds        r3,#0x1                                 
ram:0002b7a2    2380            strh        r3,[r4,#0x0]                            
                            LAB_0002b7a4:                 ;XREF[1,0]:   0002b776
ram:0002b7a4    3389            ldrh        r3,[r6,#0x8]                            
ram:0002b7a6    002b            cmp         r3,#0x0                                 
ram:0002b7a8    40f0a180        bne.w       LAB_0002b8ee                            
                            LAB_0002b7ac:                 ;XREF[1,0]:   0002b902
ram:0002b7ac    338a            ldrh        r3,[r6,#0x10]                           
ram:0002b7ae    5bb1            cbz         r3,LAB_0002b7c8                         
ram:0002b7b0    cde90047        strd        r4,r7,[sp,#0x0]=>local_38               
ram:0002b7b4    2b46            mov         r3,r5                                   
ram:0002b7b6    0722            movs        param_3,#0x7                            
ram:0002b7b8    0321            movs        param_2,#0x3                            
ram:0002b7ba    06f11000        add.w       param_1,r6,#0x10                        
ram:0002b7be    fff74eff        bl          FUN_0002b65e                            ;undefined FUN_0002b65e(ushort * para...
ram:0002b7c2    0028            cmp         param_1,#0x0                            
ram:0002b7c4    40f09f80        bne.w       LAB_0002b906                            
                            LAB_0002b7c8:                 ;XREF[1,0]:   0002b7ae
ram:0002b7c8    338b            ldrh        r3,[r6,#0x18]                           
ram:0002b7ca    5bb1            cbz         r3,LAB_0002b7e4                         
ram:0002b7cc    cde90047        strd        r4,r7,[sp,#0x0]=>local_38               
ram:0002b7d0    2b46            mov         r3,r5                                   
ram:0002b7d2    1522            movs        param_3,#0x15                           
ram:0002b7d4    1421            movs        param_2,#0x14                           
ram:0002b7d6    06f11800        add.w       param_1,r6,#0x18                        
ram:0002b7da    fff740ff        bl          FUN_0002b65e                            ;undefined FUN_0002b65e(ushort * para...
ram:0002b7de    0028            cmp         param_1,#0x0                            
ram:0002b7e0    40f09180        bne.w       LAB_0002b906                            
                            LAB_0002b7e4:                 ;XREF[1,0]:   0002b7ca
ram:0002b7e4    326a            ldr         param_3,[r6,#0x20]                      
ram:0002b7e6    002a            cmp         param_3,#0x0                            
ram:0002b7e8    40f09080        bne.w       LAB_0002b90c                            
                            LAB_0002b7ec:                 ;XREF[1,0]:   0002b994
ram:0002b7ec    d6f82480        ldr.w       r8,[r6,#0x24]                           
ram:0002b7f0    b8f1000f        cmp.w       r8,#0x0                                 
ram:0002b7f4    30d0            beq         LAB_0002b858                            
ram:0002b7f6    b8f80430        ldrh.w      r3,[r8,#0x4]                            
ram:0002b7fa    2188            ldrh        param_2,[r4,#0x0]                       
ram:0002b7fc    981c            adds        param_1,r3,#0x2                         
ram:0002b7fe    8a1c            adds        param_3,param_2,#0x2                    
ram:0002b800    0244            add         param_3,param_1                         
ram:0002b802    ba42            cmp         param_3,r7                              
ram:0002b804    3ff655af        bhi.w       LAB_0002b6b2                            
ram:0002b808    fe28            cmp         param_1,#0xfe                           
ram:0002b80a    3ff652af        bhi.w       LAB_0002b6b2                            
ram:0002b80e    0333            adds        r3,#0x3                                 
ram:0002b810    6b54            strb        r3,[r5,param_2]                         
ram:0002b812    2388            ldrh        r3,[r4,#0x0]                            
ram:0002b814    0133            adds        r3,#0x1                                 
ram:0002b816    9bb2            uxth        r3,r3                                   
ram:0002b818    ff22            movs        param_3,#0xff                           
ram:0002b81a    2380            strh        r3,[r4,#0x0]                            
ram:0002b81c    ea54            strb        param_3,[r5,r3]                         
ram:0002b81e    2388            ldrh        r3,[r4,#0x0]                            
ram:0002b820    0133            adds        r3,#0x1                                 
ram:0002b822    9bb2            uxth        r3,r3                                   
ram:0002b824    2380            strh        r3,[r4,#0x0]                            
ram:0002b826    b8f80020        ldrh.w      param_3,[r8,#0x0]                       
ram:0002b82a    ea54            strb        param_3,[r5,r3]                         
ram:0002b82c    e918            adds        param_2,r5,r3                           
ram:0002b82e    120a            lsrs        param_3,param_3,#0x8                    
ram:0002b830    4a70            strb        param_3,[param_2,#0x1]                  
ram:0002b832    2088            ldrh        param_1,[r4,#0x0]                       
ram:0002b834    0230            adds        param_1,#0x2                            
ram:0002b836    80b2            uxth        param_1,param_1                         
ram:0002b838    2080            strh        param_1,[r4,#0x0]                       
ram:0002b83a    b8f80420        ldrh.w      param_3,[r8,#0x4]                       
ram:0002b83e    5ab1            cbz         param_3,LAB_0002b858                    
ram:0002b840    d8f80810        ldr.w       param_2,[r8,#0x8]                       
ram:0002b844    0029            cmp         param_2,#0x0                            
ram:0002b846    6bd0            beq         LAB_0002b920                            
ram:0002b848    2844            add         param_1,r5                              
ram:0002b84a    01f078fa        bl          FUN_0002cd3e                            ;undefined4 * FUN_0002cd3e(undefined4...
ram:0002b84e    2388            ldrh        r3,[r4,#0x0]                            
ram:0002b850    b8f80420        ldrh.w      param_3,[r8,#0x4]                       
ram:0002b854    1344            add         r3,param_3                              
ram:0002b856    2380            strh        r3,[r4,#0x0]                            
                            LAB_0002b858:                 ;XREF[2,0]:   0002b7f4,0002b83e
ram:0002b858    96f82c30        ldrb.w      r3,[r6,#0x2c]                           
ram:0002b85c    002b            cmp         r3,#0x0                                 
ram:0002b85e    40f09a80        bne.w       LAB_0002b996                            
                            LAB_0002b862:                 ;XREF[1,0]:   0002b9b2
ram:0002b862    3078            ldrb        param_1,[r6,#0x0]                       
ram:0002b864    0028            cmp         param_1,#0x0                            
ram:0002b866    4ed0            beq         LAB_0002b906                            
ram:0002b868    3388            ldrh        r3,[r6,#0x0]                            
ram:0002b86a    012b            cmp         r3,#0x1                                 
ram:0002b86c    58d0            beq         LAB_0002b920                            
ram:0002b86e    2288            ldrh        param_3,[r4,#0x0]                       
ram:0002b870    02f1020c        add.w       r12,param_3,#0x2                        
ram:0002b874    bc45            cmp         r12,r7                                  
ram:0002b876    3ff61caf        bhi.w       LAB_0002b6b2                            
ram:0002b87a    0128            cmp         param_1,#0x1                            
ram:0002b87c    05d1            bne         LAB_0002b88a                            
ram:0002b87e    7378            ldrb        r3,[r6,#0x1]                            
ram:0002b880    0233            adds        r3,#0x2                                 
ram:0002b882    1344            add         r3,param_3                              
ram:0002b884    9f42            cmp         r7,r3                                   
ram:0002b886    fff414af        bcc.w       LAB_0002b6b2                            
                            LAB_0002b88a:                 ;XREF[1,0]:   0002b87c
ram:0002b88a    023f            subs        r7,#0x2                                 
ram:0002b88c    bf1a            subs        r7,r7,param_3                           
ram:0002b88e    bfb2            uxth        r7,r7                                   
ram:0002b890    02a9            add         param_2,sp,#0x8                         
ram:0002b892    05eb0c00        add.w       param_1,r5,r12                          
ram:0002b896    adf80870        strh.w      r7,[sp,#local_30+0x38]                  
ram:0002b89a    fff786fe        bl          FUN_0002b5aa                            ;undefined FUN_0002b5aa(void)
ram:0002b89e    90bb            cbnz        param_1,LAB_0002b906                    
ram:0002b8a0    3178            ldrb        param_2,[r6,#0x0]                       
ram:0002b8a2    bdf80830        ldrh.w      r3,[sp,#local_30+0x38]                  
ram:0002b8a6    0229            cmp         param_2,#0x2                            
ram:0002b8a8    00f0ba80        beq.w       LAB_0002ba20                            
ram:0002b8ac    7278            ldrb        param_3,[r6,#0x1]                       
ram:0002b8ae    9a42            cmp         param_3,r3                              
ram:0002b8b0    02d3            bcc         LAB_0002b8b8                            
ram:0002b8b2    bb42            cmp         r3,r7                                   
ram:0002b8b4    40f2b280        bls.w       LAB_0002ba1c                            
                            LAB_0002b8b8:                 ;XREF[1,0]:   0002b8b0
ram:0002b8b8    0129            cmp         param_2,#0x1                            
ram:0002b8ba    40f0b380        bne.w       LAB_0002ba24                            
ram:0002b8be    9742            cmp         r7,param_3                              
ram:0002b8c0    93b2            uxth        r3,param_3                              
ram:0002b8c2    c0f0af80        bcc.w       LAB_0002ba24                            
ram:0002b8c6    adf80830        strh.w      r3,[sp,#local_30+0x38]                  
                            LAB_0002b8ca:                 ;XREF[1,0]:   0002ba28
ram:0002b8ca    0821            movs        param_2,#0x8                            
                            LAB_0002b8cc:                 ;XREF[1,0]:   0002ba1e
ram:0002b8cc    bdf80830        ldrh.w      r3,[sp,#local_30+0x38]                  
ram:0002b8d0    fe2b            cmp         r3,#0xfe                                
ram:0002b8d2    3ff6eeae        bhi.w       LAB_0002b6b2                            
ram:0002b8d6    2288            ldrh        param_3,[r4,#0x0]                       
ram:0002b8d8    0133            adds        r3,#0x1                                 
ram:0002b8da    ab54            strb        r3,[r5,param_3]                         
ram:0002b8dc    2288            ldrh        param_3,[r4,#0x0]                       
ram:0002b8de    0132            adds        param_3,#0x1                            
ram:0002b8e0    92b2            uxth        param_3,param_3                         
ram:0002b8e2    2280            strh        param_3,[r4,#0x0]                       
ram:0002b8e4    a954            strb        param_2,[r5,param_3]                    
ram:0002b8e6    2288            ldrh        param_3,[r4,#0x0]                       
ram:0002b8e8    1344            add         r3,param_3                              
ram:0002b8ea    2380            strh        r3,[r4,#0x0]                            
ram:0002b8ec    0be0            b           LAB_0002b906                            
                            LAB_0002b8ee:                 ;XREF[1,0]:   0002b7a8
ram:0002b8ee    cde90047        strd        r4,r7,[sp,#0x0]=>local_38               
ram:0002b8f2    2b46            mov         r3,r5                                   
ram:0002b8f4    0622            movs        param_3,#0x6                            
ram:0002b8f6    0221            movs        param_2,#0x2                            
ram:0002b8f8    06f10800        add.w       param_1,r6,#0x8                         
ram:0002b8fc    fff7affe        bl          FUN_0002b65e                            ;undefined FUN_0002b65e(ushort * para...
ram:0002b900    0028            cmp         param_1,#0x0                            
ram:0002b902    3ff453af        beq.w       LAB_0002b7ac                            
                            LAB_0002b906:                 ;XREF[9,0]:   0002b6b4,0002b6be,0002b718,0002b7c4
                                                          ;             0002b7e0,0002b866,0002b89e,0002b8ec
                                                          ;             0002b922
ram:0002b906    05b0            add         sp,#0x14                                
ram:0002b908    bde8f08f        pop.w       {r4,r5,r6,r7,r8,r9,r10,r11,pc}          
                            LAB_0002b90c:                 ;XREF[1,0]:   0002b7e8
ram:0002b90c    b4f800c0        ldrh.w      r12,[r4,#0x0]                           
ram:0002b910    0cf10603        add.w       r3,r12,#0x6                             
ram:0002b914    bb42            cmp         r3,r7                                   
ram:0002b916    3ff6ccae        bhi.w       LAB_0002b6b2                            
ram:0002b91a    1188            ldrh        param_2,[param_3,#0x0]                  
ram:0002b91c    0529            cmp         param_2,#0x5                            
ram:0002b91e    01d8            bhi         LAB_0002b924                            
                            LAB_0002b920:                 ;XREF[8,0]:   0002b846,0002b86c,0002b934,0002b93a
                                                          ;             0002b946,0002b956,0002b99a,0002ba04
ram:0002b920    0720            movs        param_1,#0x7                            
ram:0002b922    f0e7            b           LAB_0002b906                            
                            LAB_0002b924:                 ;XREF[1,0]:   0002b91e
ram:0002b924    6ff4486e        mvn         lr,#0xc80                               
ram:0002b928    01eb0e03        add.w       r3,param_2,lr                           
ram:0002b92c    9bb2            uxth        r3,r3                                   
ram:0002b92e    4ff27d3e        movw        lr,#0xf37d                              
ram:0002b932    7345            cmp         r3,lr                                   
ram:0002b934    f4d9            bls         LAB_0002b920                            
ram:0002b936    5388            ldrh        r3,[param_3,#0x2]                       
ram:0002b938    052b            cmp         r3,#0x5                                 
ram:0002b93a    f1d9            bls         LAB_0002b920                            
ram:0002b93c    6ff44860        mvn         param_1,#0xc80                          
ram:0002b940    1818            adds        param_1,r3,param_1                      
ram:0002b942    80b2            uxth        param_1,param_1                         
ram:0002b944    7045            cmp         param_1,lr                              
ram:0002b946    ebd9            bls         LAB_0002b920                            
ram:0002b948    4ff6ff70        movw        param_1,#0xffff                         
ram:0002b94c    8142            cmp         param_2,param_1                         
ram:0002b94e    03d0            beq         LAB_0002b958                            
ram:0002b950    8342            cmp         r3,param_1                              
ram:0002b952    01d0            beq         LAB_0002b958                            
ram:0002b954    9942            cmp         param_2,r3                              
ram:0002b956    e3d8            bhi         LAB_0002b920                            
                            LAB_0002b958:                 ;XREF[2,0]:   0002b94e,0002b952
ram:0002b958    0523            movs        r3,#0x5                                 
ram:0002b95a    05f80c30        strb.w      r3,r5,r12,0x0                           
ram:0002b95e    2388            ldrh        r3,[r4,#0x0]                            
ram:0002b960    0133            adds        r3,#0x1                                 
ram:0002b962    9bb2            uxth        r3,r3                                   
ram:0002b964    1221            movs        param_2,#0x12                           
ram:0002b966    2380            strh        r3,[r4,#0x0]                            
ram:0002b968    e954            strb        param_2,[r5,r3]                         
ram:0002b96a    2388            ldrh        r3,[r4,#0x0]                            
ram:0002b96c    0133            adds        r3,#0x1                                 
ram:0002b96e    9bb2            uxth        r3,r3                                   
ram:0002b970    2380            strh        r3,[r4,#0x0]                            
ram:0002b972    1188            ldrh        param_2,[param_3,#0x0]                  
ram:0002b974    e954            strb        param_2,[r5,r3]                         
ram:0002b976    e818            adds        param_1,r5,r3                           
ram:0002b978    090a            lsrs        param_2,param_2,#0x8                    
ram:0002b97a    4170            strb        param_2,[param_1,#0x1]                  
ram:0002b97c    2388            ldrh        r3,[r4,#0x0]                            
ram:0002b97e    0233            adds        r3,#0x2                                 
ram:0002b980    9bb2            uxth        r3,r3                                   
ram:0002b982    2380            strh        r3,[r4,#0x0]                            
ram:0002b984    5288            ldrh        param_3,[param_3,#0x2]                  
ram:0002b986    ea54            strb        param_3,[r5,r3]                         
ram:0002b988    e918            adds        param_2,r5,r3                           
ram:0002b98a    120a            lsrs        param_3,param_3,#0x8                    
ram:0002b98c    4a70            strb        param_3,[param_2,#0x1]                  
ram:0002b98e    2388            ldrh        r3,[r4,#0x0]                            
ram:0002b990    0233            adds        r3,#0x2                                 
ram:0002b992    2380            strh        r3,[r4,#0x0]                            
ram:0002b994    2ae7            b           LAB_0002b7ec                            
                            LAB_0002b996:                 ;XREF[1,0]:   0002b85e
ram:0002b996    b36a            ldr         r3,[r6,#0x28]                           
ram:0002b998    002b            cmp         r3,#0x0                                 
ram:0002b99a    c1d0            beq         LAB_0002b920                            
ram:0002b99c    4ff00009        mov.w       r9,#0x0                                 
ram:0002b9a0    4ff00c0a        mov.w       r10,#0xc                                
ram:0002b9a4    4ff0160b        mov.w       r11,#0x16                               
                            LAB_0002b9a8:                 ;XREF[1,0]:   0002ba1a
ram:0002b9a8    96f82c30        ldrb.w      r3,[r6,#0x2c]                           
ram:0002b9ac    5ffa89f2        uxtb.w      param_3,r9                              
ram:0002b9b0    9342            cmp         r3,param_3                              
ram:0002b9b2    7ff656af        bls.w       LAB_0002b862                            
ram:0002b9b6    b16a            ldr         param_2,[r6,#0x28]                      
ram:0002b9b8    0afb02f2        mul         param_3,r10,param_3                     
ram:0002b9bc    01eb0208        add.w       r8,param_2,param_3                      
ram:0002b9c0    b8f80430        ldrh.w      r3,[r8,#0x4]                            
ram:0002b9c4    981c            adds        param_1,r3,#0x2                         
ram:0002b9c6    fe28            cmp         param_1,#0xfe                           
ram:0002b9c8    3ff673ae        bhi.w       LAB_0002b6b2                            
ram:0002b9cc    2088            ldrh        param_1,[r4,#0x0]                       
ram:0002b9ce    0333            adds        r3,#0x3                                 
ram:0002b9d0    2b54            strb        r3,[r5,param_1]                         
ram:0002b9d2    2388            ldrh        r3,[r4,#0x0]                            
ram:0002b9d4    0133            adds        r3,#0x1                                 
ram:0002b9d6    9bb2            uxth        r3,r3                                   
ram:0002b9d8    2380            strh        r3,[r4,#0x0]                            
ram:0002b9da    05f803b0        strb.w      r11,r5,r3,0x0                           
ram:0002b9de    2388            ldrh        r3,[r4,#0x0]                            
ram:0002b9e0    0133            adds        r3,#0x1                                 
ram:0002b9e2    9bb2            uxth        r3,r3                                   
ram:0002b9e4    2380            strh        r3,[r4,#0x0]                            
ram:0002b9e6    8a5a            ldrh        param_3,[param_2,param_3]               
ram:0002b9e8    ea54            strb        param_3,[r5,r3]                         
ram:0002b9ea    e918            adds        param_2,r5,r3                           
ram:0002b9ec    120a            lsrs        param_3,param_3,#0x8                    
ram:0002b9ee    4a70            strb        param_3,[param_2,#0x1]                  
ram:0002b9f0    2088            ldrh        param_1,[r4,#0x0]                       
ram:0002b9f2    0230            adds        param_1,#0x2                            
ram:0002b9f4    80b2            uxth        param_1,param_1                         
ram:0002b9f6    2080            strh        param_1,[r4,#0x0]                       
ram:0002b9f8    b8f80420        ldrh.w      param_3,[r8,#0x4]                       
ram:0002b9fc    5ab1            cbz         param_3,LAB_0002ba16                    
ram:0002b9fe    d8f80810        ldr.w       param_2,[r8,#0x8]                       
ram:0002ba02    0029            cmp         param_2,#0x0                            
ram:0002ba04    8cd0            beq         LAB_0002b920                            
ram:0002ba06    2844            add         param_1,r5                              
ram:0002ba08    01f099f9        bl          FUN_0002cd3e                            ;undefined4 * FUN_0002cd3e(undefined4...
ram:0002ba0c    2388            ldrh        r3,[r4,#0x0]                            
ram:0002ba0e    b8f80420        ldrh.w      param_3,[r8,#0x4]                       
ram:0002ba12    1344            add         r3,param_3                              
ram:0002ba14    2380            strh        r3,[r4,#0x0]                            
                            LAB_0002ba16:                 ;XREF[1,0]:   0002b9fc
ram:0002ba16    09f10109        add.w       r9,r9,#0x1                              
ram:0002ba1a    c5e7            b           LAB_0002b9a8                            
                            LAB_0002ba1c:                 ;XREF[2,0]:   0002b8b4,0002ba22
ram:0002ba1c    0921            movs        param_2,#0x9                            
ram:0002ba1e    55e7            b           LAB_0002b8cc                            
                            LAB_0002ba20:                 ;XREF[1,0]:   0002b8a8
ram:0002ba20    bb42            cmp         r3,r7                                   
ram:0002ba22    fbd9            bls         LAB_0002ba1c                            
                            LAB_0002ba24:                 ;XREF[2,0]:   0002b8ba,0002b8c2
ram:0002ba24    adf80870        strh.w      r7,[sp,#local_30+0x38]                  
ram:0002ba28    4fe7            b           LAB_0002b8ca                            
                            ;************************************************************************************************
                            ;*                                           FUNCTION                                           *
                            ;************************************************************************************************
                            ;uint FUN_0002ba2a(uint param_1, uint param_2, ushort * param_3, uint param_4)
          ;param_1       uint                r0                      
          ;param_2       uint                r1                      
          ;param_3       ushort *            r2                      
          ;param_4       uint                r3                      
                                                          ;XREF[1,0]:   0002ba7c
ram:0002ba2a    70b5            push        {r4,r5,r6,lr}                           
ram:0002ba2c    e8b1            cbz         param_1,LAB_0002ba6a                    
ram:0002ba2e    4ab1            cbz         param_3,LAB_0002ba44                    
ram:0002ba30    1688            ldrh        r6,[param_3,#0x0]                       
ram:0002ba32    0024            movs        r4,#0x0                                 
                            ;************************************************************************************************
                            ;*                                           FUNCTION                                           *
                            ;************************************************************************************************
                            ;uint FUN_0002ba34(int param_1, uint param_2, ushort * param_3, uint param_4)
          ;param_1       int                 r0                      
          ;param_2       uint                r1                      
          ;param_3       ushort *            r2                      
          ;param_4       uint                r3                      
                                                          ;XREF[1,0]:   0002ba50
ram:0002ba34    b442            cmp         r4,r6                                   
ram:0002ba36    03d3            bcc         LAB_0002ba40                            
ram:0002ba38    0519            adds        r5,param_1,r4                           
ram:0002ba3a    6d78            ldrb        r5,[r5,#0x1]                            
ram:0002ba3c    9d42            cmp         r5,param_4                              
ram:0002ba3e    08d0            beq         LAB_0002ba52                            
                            LAB_0002ba40:                 ;XREF[1,0]:   0002ba36
ram:0002ba40    a142            cmp         param_2,r4                              
ram:0002ba42    01d8            bhi         LAB_0002ba48                            
                            LAB_0002ba44:                 ;XREF[3,0]:   0002ba2e,0002ba54,0002ba66
ram:0002ba44    0020            movs        param_1,#0x0                            
ram:0002ba46    10e0            b           LAB_0002ba6a                            
                            LAB_0002ba48:                 ;XREF[1,0]:   0002ba42
ram:0002ba48    055d            ldrb        r5,[param_1,r4]                         
ram:0002ba4a    0135            adds        r5,#0x1                                 
ram:0002ba4c    2c44            add         r4,r5                                   
ram:0002ba4e    a4b2            uxth        r4,r4                                   
ram:0002ba50    f0e7            b           FUN_0002ba34                            
                            LAB_0002ba52:                 ;XREF[1,0]:   0002ba3e
ram:0002ba52    a142            cmp         param_2,r4                              
ram:0002ba54    f6d9            bls         LAB_0002ba44                            
ram:0002ba56    005d            ldrb        param_1,[param_1,r4]                    
ram:0002ba58    0138            subs        param_1,#0x1                            
ram:0002ba5a    a31c            adds        param_4,r4,#0x2                         
ram:0002ba5c    80b2            uxth        param_1,param_1                         
ram:0002ba5e    9db2            uxth        r5,param_4                              
ram:0002ba60    10fa83f3        uxtah       param_4,param_1,param_4                 
ram:0002ba64    8b42            cmp         param_4,param_2                         
ram:0002ba66    eddc            bgt         LAB_0002ba44                            
ram:0002ba68    1580            strh        r5,[param_3,#0x0]                       
                            LAB_0002ba6a:                 ;XREF[2,0]:   0002ba2c,0002ba46
ram:0002ba6a    70bd            pop         {r4,r5,r6,pc}                           
                            ;************************************************************************************************
                            ;*                                           FUNCTION                                           *
                            ;************************************************************************************************
                            ;uint FUN_0002ba6c(uint param_1, uint param_2, uint param_3)
          ;param_1       uint                r0                      
          ;param_2       uint                r1                      
          ;param_3       uint                r2                      
          ;local_a       undefined2          -a                      ;XREF[2,0]:   0002ba72,0002ba82
                                                          ;XREF[1,0]:   0002c398
ram:0002ba6c    13b5            push        {param_1,param_2,r4,lr}                 
ram:0002ba6e    1346            mov         r3,param_3                              
ram:0002ba70    0022            movs        param_3,#0x0                            
ram:0002ba72    adf80620        strh.w      param_3,[sp,#local_a+0x10]              
ram:0002ba76    0df10602        add.w       param_3,sp,#0x6                         
ram:0002ba7a    0446            mov         r4,param_1                              
ram:0002ba7c    fff7d5ff        bl          FUN_0002ba2a                            ;uint FUN_0002ba2a(uint param_1, uint...
ram:0002ba80    10b1            cbz         param_1,FUN_0002ba88                    
ram:0002ba82    bdf80630        ldrh.w      r3,[sp,#local_a+0x10]                   
ram:0002ba86    e018            adds        param_1,r4,r3                           
                            ;************************************************************************************************
                            ;*                                           FUNCTION                                           *
                            ;************************************************************************************************
                            ;undefined FUN_0002ba88(void)
                                                          ;XREF[1,0]:   0002ba80
ram:0002ba88    02b0            add         sp,#0x8                                 
ram:0002ba8a    10bd            pop         {r4,pc}                                 
ram:0002ba8c    75df            svc         0x75                                    
ram:0002ba8e    7047            bx          lr                                      
ram:0002ba90    76df            svc         0x76                                    
ram:0002ba92    7047            bx          lr                                      
ram:0002ba94    7adf            svc         0x7a                                    
ram:0002ba96    7047            bx          lr                                      
ram:0002ba98    7bdf            svc         0x7b                                    
ram:0002ba9a    7047            bx          lr                                      
ram:0002ba9c    0000            movs        r0,r0                                   
                            ;************************************************************************************************
                            ;*                                           FUNCTION                                           *
                            ;************************************************************************************************
                            ;undefined * FUN_0002ba9e(uint param_1)
          ;param_1       uint                r0                      
ram:0002ba9e    074b            ldr         r3,[LAB_0002babc]                       
ram:0002baa0    30b5            push        {r4,r5,lr}                              
ram:0002baa2    0022            movs        r2,#0x0                                 
ram:0002baa4    1424            movs        r4,#0x14                                
                            LAB_0002baa6:                 ;XREF[1,0]:   0002bab8
ram:0002baa6    04fb02f1        mul         r1,r4,r2                                
                                                          ; FWD[2,0]:   42f4e7f9,42f4e80d
ram:0002baaa    cd5a            ldrh        r5,[r1,r3]=>DAT_42f4e7f9                
ram:0002baac    8542            cmp         r5,param_1                              
ram:0002baae    01d1            bne         LAB_0002bab4                            
ram:0002bab0    5818            adds        param_1=>DAT_42f4e7f9,r3,r1             
                            LAB_0002bab2:                 ;XREF[1,0]:   0002babc
ram:0002bab2    30bd            pop         {r4,r5,pc}                              
                            LAB_0002bab4:                 ;XREF[1,0]:   0002baae
ram:0002bab4    0132            adds        r2,#0x1                                 
ram:0002bab6    042a            cmp         r2,#0x4                                 
ram:0002bab8    f5d1            bne         LAB_0002baa6                            
ram:0002baba    0020            movs        param_1,#0x0                            
                            LAB_0002babc:                 ;XREF[1,0]:   0002ba9e
ram:0002babc    f9e7            b           LAB_0002bab2                            
ram:0002babe    f442            cmn         r4,r6                                   
ram:0002bac0    0020            movs        r0,#0x0                                 
ram:0002bac2    024b            ldr         r3,[DAT_0002bacc]                       ;= 42D8BF00h
ram:0002bac4    9b69            ldr         r3,[r3,#offset DAT_42d8bf18 &0xff]      
ram:0002bac6    03b1            cbz         r3,FUN_0002baca                         
ram:0002bac8    1847            bx          r3                                      
                            ;************************************************************************************************
                            ;*                                           FUNCTION                                           *
                            ;************************************************************************************************
                            ;undefined FUN_0002baca(void)
                                                          ;XREF[1,0]:   0002bac6
ram:0002baca    7047            bx          lr                                      
                            DAT_0002bacc:                 ;XREF[1,0]:   0002bac2
ram:0002bacc    00bfd842        undefined4  42D8BF00h                               
                            ;************************************************************************************************
                            ;*                                           FUNCTION                                           *
                            ;************************************************************************************************
                            ;undefined FUN_0002bd5e(int param_1, uint param_2, int param_3)
          ;param_1       int                 r0                      
          ;param_2       uint                r1                      
          ;param_3       int                 r2                      
                                                          ;XREF[3,0]:   0002be5a,0002be6a,0002be7a
ram:0002bd5e    0ab1            cbz         param_3,LAB_0002bd64                    
ram:0002bd60    fcf7adb8        b.w         FUN_00027ebe                            ;undefined FUN_00027ebe(int param_1, ...
                            LAB_0002bd64:                 ;XREF[1,0]:   0002bd5e
ram:0002bd64    fcf7b4b8        b.w         FUN_00027ed0                            ;undefined FUN_00027ed0(int param_1, ...
                            ;************************************************************************************************
                            ;*                                           FUNCTION                                           *
                            ;************************************************************************************************
                            ;int * FUN_0002bd7a(int * param_1, int param_2)
          ;param_1       int *               r0                      
          ;param_2       int                 r1                      
          ;local_14      undefined4         -14                      ;XREF[2,0]:   0002bd7c,0002bd7e
                                                          ;XREF[1,0]:   0002bde0
ram:0002bd7a    73b5            push        {param_1,param_2,r4,r5,r6,lr}           
ram:0002bd7c    0191            str         param_2,[sp,#local_14+0x18]             
ram:0002bd7e    019c            ldr         r4,[sp,#local_14+0x18]                  
ram:0002bd80    0646            mov         r6,param_1                              
ram:0002bd82    6cb1            cbz         r4,LAB_0002bda0                         
ram:0002bd84    0025            movs        r5,#0x0                                 
ram:0002bd86    2c46            mov         r4,r5                                   
                            LAB_0002bd88:                 ;XREF[1,0]:   0002bd9e
ram:0002bd88    2946            mov         param_2,r5                              
ram:0002bd8a    01a8            add         param_1,sp,#0x4                         
ram:0002bd8c    fcf7aaf8        bl          FUN_00027ee4                            ;uint FUN_00027ee4(int param_1, uint ...
ram:0002bd90    18b1            cbz         param_1,LAB_0002bd9a                    
ram:0002bd92    06eb4403        add.w       r3,r6,r4, lsl #0x1                      
ram:0002bd96    0134            adds        r4,#0x1                                 
ram:0002bd98    9d80            strh        r5,[r3,#0x4]                            
                            LAB_0002bd9a:                 ;XREF[1,0]:   0002bd90
ram:0002bd9a    0135            adds        r5,#0x1                                 
ram:0002bd9c    142d            cmp         r5,#0x14                                
ram:0002bd9e    f3d1            bne         LAB_0002bd88                            
                            LAB_0002bda0:                 ;XREF[1,0]:   0002bd82
ram:0002bda0    3046            mov         param_1,r6                              
ram:0002bda2    3460            str         r4,[r6,#0x0]                            
ram:0002bda4    02b0            add         sp,#0x8                                 
ram:0002bda6    70bd            pop         {r4,r5,r6,pc}                           
ram:0002bda8    0000            movs        r0,r0                                   
                            ;************************************************************************************************
                            ;*                                           FUNCTION                                           *
                            ;************************************************************************************************
                            ;undefined FUN_0002bdaa(undefined2 * param_1)
          ;param_1       undefined2 *        r0                      
          ;local_4c      undefined4         -4c                      ;XREF[1,0]:   0002bdec
          ;local_50      undefined4         -50                      ;XREF[2,0]:   0002bdd2,0002bddc
ram:0002bdaa    2de9f047        push        {r4,r5,r6,r7,r8,r9,r10,lr}              
ram:0002bdae    0388            ldrh        r3,[param_1,#0x0]                       
ram:0002bdb0    8488            ldrh        r4,[param_1,#0x4]                       
ram:0002bdb2    103b            subs        r3,#0x10                                
ram:0002bdb4    8cb0            sub         sp,#0x30                                
ram:0002bdb6    0546            mov         r5,param_1                              
ram:0002bdb8    0a2b            cmp         r3,#0xa                                 
ram:0002bdba    1fd8            bhi         switchD_0002bdbc::caseD_12              
                            switchD:                      ; FWD[6,0]:   0002bdc0,0002bdcc,0002bdfc,0002be3e
                                                          ;             0002be48,0002be80
ram:0002bdbc    dfe803f0        tbb         [switchD_0002bdbc::switchdataD_0002bd...;= 6h
                            switchdataD_0002bdc0:         ;XREF[1,0]:   0002bdbc
ram:0002bdc0    06              db          6h                                      
ram:0002bdc1    3f              db          3Fh                                     
ram:0002bdc2    1e              db          1Eh                                     
ram:0002bdc3    1e              db          1Eh                                     
ram:0002bdc4    1e              db          1Eh                                     
ram:0002bdc5    1e              db          1Eh                                     
ram:0002bdc6    1e              db          1Eh                                     
ram:0002bdc7    1e              db          1Eh                                     
ram:0002bdc8    1e              db          1Eh                                     
ram:0002bdc9    60              db          60h                                     
ram:0002bdca    44              db          44h                                     
                            caseD_10:                     ;XREF[1,0]:   0002bdbc
ram:0002bdcc    314e            ldr         r6,[DAT_0002be94]                       ;= 43D82000h
ram:0002bdce    b368            ldr         r3,[r6,#offset DAT_43d82008 &0xff]      
ram:0002bdd0    db43            mvns        r3,r3                                   
ram:0002bdd2    0093            str         r3,[sp,#0x0]=>local_50                  
ram:0002bdd4    7168            ldr         r1,[r6,#offset DAT_43d82004 &0xff]      
ram:0002bdd6    6846            mov         param_1,sp                              
ram:0002bdd8    fcf7b0f8        bl          FUN_00027f3c                            ;undefined FUN_00027f3c(uint * param_...
ram:0002bddc    0099            ldr         r1,[sp,#0x0]=>local_50                  
ram:0002bdde    01a8            add         param_1,sp,#0x4                         
ram:0002bde0    fff7cbff        bl          FUN_0002bd7a                            ;int * FUN_0002bd7a(int * param_1, in...
ram:0002bde4    0df10809        add.w       r9,sp,#0x8                              
ram:0002bde8    4ff00008        mov.w       r8,#0x0                                 
                            LAB_0002bdec:                 ;XREF[1,0]:   0002be1c
ram:0002bdec    019b            ldr         r3,[sp,#local_4c+0x50]                  
ram:0002bdee    9845            cmp         r8,r3                                   
ram:0002bdf0    07d3            bcc         LAB_0002be02                            
ram:0002bdf2    132c            cmp         r4,#0x13                                
ram:0002bdf4    13d9            bls         LAB_0002be1e                            
ram:0002bdf6    0420            movs        param_1,#0x4                            
ram:0002bdf8    fbf783fc        bl          FUN_00027702                            ;undefined FUN_00027702(void)
                            caseD_13:                     ;XREF[7,0]:   0002bdba,0002bdbc,0002be32,0002be3c
                            caseD_14:                     ;             0002be46,0002be7e,0002be84
                            caseD_15:                     
                            caseD_16:                     
                            caseD_17:                     
                            caseD_18:                     
                            caseD_12:                     
ram:0002bdfc    0cb0            add         sp,#0x30                                
ram:0002bdfe    bde8f087        pop.w       {r4,r5,r6,r7,r8,r9,r10,pc}              
                            LAB_0002be02:                 ;XREF[1,0]:   0002bdf0
ram:0002be02    39f802ab        ldrh.w      r10,[r9],#0x2                           
ram:0002be06    0027            movs        r7,#0x0                                 
                            LAB_0002be08:                 ;XREF[1,0]:   0002be16
ram:0002be08    0137            adds        r7,#0x1                                 
ram:0002be0a    5146            mov         r1,r10                                  
                                                          ; FWD[2,0]:   43d82004,43d82008
ram:0002be0c    06eb8700        add.w       param_1=>DAT_43d82004,r6,r7, lsl #0x2   
ram:0002be10    fcf75ef8        bl          FUN_00027ed0                            ;undefined FUN_00027ed0(int param_1, ...
ram:0002be14    1e2f            cmp         r7,#0x1e                                
ram:0002be16    f7d1            bne         LAB_0002be08                            
ram:0002be18    08f10108        add.w       r8,r8,#0x1                              
ram:0002be1c    e6e7            b           LAB_0002bdec                            
                            LAB_0002be1e:                 ;XREF[1,0]:   0002bdf4
ram:0002be1e    1d48            ldr         param_1,[DAT_0002be94]                  ;= 43D82000h
ram:0002be20    2146            mov         r1,r4                                   
ram:0002be22    fcf74cf8        bl          FUN_00027ebe                            ;undefined FUN_00027ebe(int param_1, ...
ram:0002be26    1c48            ldr         param_1,[DAT_0002be98]                  ;= 43D42000h
ram:0002be28    2146            mov         r1,r4                                   
ram:0002be2a    fcf748f8        bl          FUN_00027ebe                            ;undefined FUN_00027ebe(int param_1, ...
ram:0002be2e    eb7b            ldrb        r3,[r5,#0xf]                            
ram:0002be30    012b            cmp         r3,#0x1                                 
ram:0002be32    e3d0            beq         switchD_0002bdbc::caseD_12              
ram:0002be34    1a48            ldr         param_1,[DAT_0002bea0]                  ;= 43E82000h
ram:0002be36    2146            mov         r1,r4                                   
ram:0002be38    fcf741f8        bl          FUN_00027ebe                            ;undefined FUN_00027ebe(int param_1, ...
ram:0002be3c    dee7            b           switchD_0002bdbc::caseD_12              
                            caseD_11:                     ;XREF[1,0]:   0002bdbc
ram:0002be3e    1548            ldr         param_1,[DAT_0002be94]                  ;= 43D82000h
ram:0002be40    2146            mov         r1,r4                                   
ram:0002be42    fcf745f8        bl          FUN_00027ed0                            ;undefined FUN_00027ed0(int param_1, ...
ram:0002be46    d9e7            b           switchD_0002bdbc::caseD_12              
                            caseD_1a:                     ;XREF[1,0]:   0002bdbc
ram:0002be48    027a            ldrb        r2,[param_1,#0x8]                       
ram:0002be4a    1548            ldr         param_1,[DAT_0002bea0]                  ;= 43E82000h
ram:0002be4c    3f2a            cmp         r2,#0x3f                                
ram:0002be4e    4fea1215        lsr.w       r5,r2,#0x4                              
ram:0002be52    2146            mov         r1,r4                                   
ram:0002be54    94bf            ite         ls                                      
ram:0002be56    0022            mov.ls      r2,#0x0                                 
ram:0002be58    0122            mov.hi      r2,#0x1                                 
ram:0002be5a    fff780ff        bl          FUN_0002bd5e                            ;undefined FUN_0002bd5e(int param_1, ...
ram:0002be5e    022d            cmp         r5,#0x2                                 
ram:0002be60    94bf            ite         ls                                      
ram:0002be62    0022            mov.ls      r2,#0x0                                 
ram:0002be64    0122            mov.hi      r2,#0x1                                 
ram:0002be66    0f48            ldr         param_1,[DAT_0002bea4]                  ;= 43E42000h
ram:0002be68    2146            mov         r1,r4                                   
ram:0002be6a    fff778ff        bl          FUN_0002bd5e                            ;undefined FUN_0002bd5e(int param_1, ...
ram:0002be6e    012d            cmp         r5,#0x1                                 
ram:0002be70    0e48            ldr         param_1,[DAT_0002beac]                  ;= B5372000h
ram:0002be72    94bf            ite         ls                                      
ram:0002be74    0022            mov.ls      r2,#0x0                                 
ram:0002be76    0122            mov.hi      r2,#0x1                                 
ram:0002be78    2146            mov         r1,r4                                   
                            LAB_0002be7a:                 ;XREF[1,0]:   0002be90
ram:0002be7a    fff770ff        bl          FUN_0002bd5e                            ;undefined FUN_0002bd5e(int param_1, ...
ram:0002be7e    bde7            b           switchD_0002bdbc::caseD_12              
                            caseD_19:                     ;XREF[1,0]:   0002bdbc
ram:0002be80    037a            ldrb        r3,[param_1,#0x8]                       
ram:0002be82    002b            cmp         r3,#0x0                                 
ram:0002be84    bad1            bne         switchD_0002bdbc::caseD_12              
ram:0002be86    427a            ldrb        r2,[param_1,#0x9]                       
ram:0002be88    0648            ldr         param_1,[DAT_0002bea4]                  ;= 43E42000h
ram:0002be8a    c2f3c002        ubfx        r2,r2,#0x3,#0x1                         
ram:0002be8e    2146            mov         r1,r4                                   
ram:0002be90    f3e7            b           LAB_0002be7a                            
ram:0002be92    d043            mvns        r0,r2                                   
                            DAT_0002be94:                 ;XREF[3,0]:   0002bdcc,0002be1e,0002be3e
ram:0002be94    0020d843        undefined4  43D82000h                               
                            DAT_0002be98:                 ;XREF[1,0]:   0002be26
ram:0002be98    0020d443        undefined4  43D42000h                               
                            DAT_0002bea0:                 ;XREF[2,0]:   0002be34,0002be4a
ram:0002bea0    0020e843        undefined4  43E82000h                               
                            DAT_0002bea4:                 ;XREF[2,0]:   0002be66,0002be88
ram:0002bea4    0020e443        undefined4  43E42000h                               
                            DAT_0002beac:                 ;XREF[1,0]:   0002be70
ram:0002beac    002037b5        undefined4  B5372000h                               
                            ;************************************************************************************************
                            ;*                                           FUNCTION                                           *
                            ;************************************************************************************************
                            ;undefined FUN_0002bf32(void)
                                                          ;XREF[1,0]:   0002c0bc
ram:0002bf32    aadf            svc         0xaa                                    
ram:0002bf34    7047            bx          lr                                      
                            ;************************************************************************************************
                            ;*                                           FUNCTION                                           *
                            ;************************************************************************************************
                            ;undefined FUN_0002bf36(undefined4 param_1, undefined * param_2)
          ;param_1       undefined4          r0                      
          ;param_2       undefined *         r1                      
                                                          ;XREF[5,0]:   0002bf9a,0002bfa4,0002bffa,0002c06e
                                                          ;             0002c07a
ram:0002bf36    0023            movs        r3,#0x0                                 
ram:0002bf38    0138            subs        param_1,#0x1                            
ram:0002bf3a    0b70            strb        r3,[param_2,#0x0]                       
ram:0002bf3c    0428            cmp         param_1,#0x4                            
ram:0002bf3e    06d8            bhi         switchD_0002bf40::caseD_5               
                            switchD:                      ;XREF[0,1]:   0002bf40
                                                          ; FWD[7,0]:   0002bf43,0002bf4a,0002bf4e,0002bf50
                                                          ;             0002bf54,0002bf58,0002bf5c
ram:0002bf40    dfe800f0        tbb         [0x2bf44,param_1]=>switchD+3            
                            switchdataD_0002bf44:         
ram:0002bf44    03              db          3h                                      
ram:0002bf45    06              db          6h                                      
ram:0002bf46    08              db          8h                                      
ram:0002bf47    0a              db          Ah                                      
ram:0002bf48    0c              db          Ch                                      
                            caseD_1:                      ;XREF[1,0]:   0002bf40
ram:0002bf4a    1123            movs        r3,#0x11                                
                            LAB_0002bf4c:                 ;XREF[4,0]:   0002bf52,0002bf56,0002bf5a,0002bf5e
ram:0002bf4c    0b70            strb        r3,[param_2,#0x0]                       
                            caseD_5:                      ;XREF[2,0]:   0002bf3e,0002bf40
ram:0002bf4e    7047            bx          lr                                      
                            caseD_2:                      ;XREF[1,0]:   0002bf40
ram:0002bf50    2123            movs        r3,#0x21                                
ram:0002bf52    fbe7            b           LAB_0002bf4c                            
                            caseD_3:                      ;XREF[1,0]:   0002bf40
ram:0002bf54    3123            movs        r3,#0x31                                
ram:0002bf56    f9e7            b           LAB_0002bf4c                            
                            caseD_4:                      ;XREF[1,0]:   0002bf40
ram:0002bf58    1223            movs        r3,#0x12                                
ram:0002bf5a    f7e7            b           LAB_0002bf4c                            
                            caseD_5:                      ;XREF[1,0]:   0002bf40
ram:0002bf5c    2223            movs        r3,#0x22                                
ram:0002bf5e    f5e7            b           LAB_0002bf4c                            
ram:0002bf60    0078            ldrb        r0,[r0,#0x0]                            
ram:0002bf62    00f00100        and         r0,r0,#0x1                              
ram:0002bf66    7047            bx          lr                                      
                            ;************************************************************************************************
                            ;*                                           FUNCTION                                           *
                            ;************************************************************************************************
                            ;uint FUN_0002bf68(byte * param_1)
          ;param_1       byte *              r0                      
                                                          ;XREF[1,0]:   0002ca70
ram:0002bf68    0078            ldrb        param_1,[param_1,#0x0]                  
ram:0002bf6a    c0f34000        ubfx        param_1,param_1,#0x1,#0x1               
ram:0002bf6e    7047            bx          lr                                      
                            ;************************************************************************************************
                            ;*                                           FUNCTION                                           *
                            ;************************************************************************************************
                            ;undefined FUN_0002bf70(undefined4 param_1, undefined2 * param_2)
          ;param_1       undefined4          r0                      
          ;param_2       undefined2 *        r1                      
          ;local_20      undefined4         -20                      ;XREF[1,0]:   0002c008
          ;local_24      undefined4         -24                      ;XREF[1,0]:   0002c066
          ;local_28      undefined4         -28                      ;XREF[1,0]:   0002c0b2
          ;local_2a      undefined2         -2a                      ;XREF[1,0]:   0002c060
          ;local_2c      undefined2         -2c                      ;XREF[1,0]:   0002c05a
          ;local_30      undefined4         -30                      ;XREF[1,0]:   0002c06a
          ;local_33      undefined1         -33                      ;XREF[1,0]:   0002c01e
          ;local_34      undefined1         -34                      ;XREF[1,0]:   0002c016
          ;local_38      undefined4         -38                      ;XREF[1,0]:   0002c042
          ;local_3c      undefined2         -3c                      ;XREF[1,0]:   0002c030
          ;local_40      undefined2         -40                      ;XREF[1,0]:   0002c03e
          ;local_44      undefined4         -44                      ;XREF[1,0]:   0002c036
          ;local_48      undefined4         -48                      ;XREF[1,0]:   0002c02c
          ;local_4a      undefined1         -4a                      ;XREF[1,0]:   0002bf7e
          ;local_4c      undefined2         -4c                      ;XREF[1,0]:   0002bf86
          ;local_4e      undefined1         -4e                      ;XREF[2,0]:   0002c004,0002c010
          ;local_50      undefined1         -50                      ;XREF[1,0]:   0002c000
          ;local_52      undefined1         -52                      ;XREF[2,0]:   0002c090,0002c0aa
          ;local_56      undefined1         -56                      ;XREF[2,0]:   0002bfb8,0002bfd8
ram:0002bf70    f0b5            push        {r4,r5,r6,r7,lr}                        
ram:0002bf72    8b78            ldrb        r3,[param_2,#0x2]                       
ram:0002bf74    91b0            sub         sp,#0x44                                
ram:0002bf76    012b            cmp         r3,#0x1                                 
ram:0002bf78    0c46            mov         r4,param_2                              
ram:0002bf7a    38bf            it          cc                                      
ram:0002bf7c    0123            mov.cc      r3,#0x1                                 
ram:0002bf7e    8df80e30        strb.w      r3,[sp,#local_4a+0x58]                  
ram:0002bf82    0546            mov         r5,param_1                              
ram:0002bf84    0b88            ldrh        r3,[param_2,#0x0]                       
ram:0002bf86    adf80c30        strh.w      r3,[sp,#local_4c+0x58]                  
ram:0002bf8a    0021            movs        param_2,#0x0                            
ram:0002bf8c    1646            mov         r6,r2                                   
ram:0002bf8e    6846            mov         param_1,sp                              
ram:0002bf90    0322            movs        r2,#0x3                                 
ram:0002bf92    00f0fdfe        bl          FUN_0002cd90                            ;undefined4 * FUN_0002cd90(undefined4...
ram:0002bf96    607c            ldrb        param_1,[r4,#0x11]                      
ram:0002bf98    6946            mov         param_2,sp                              
ram:0002bf9a    fff7ccff        bl          FUN_0002bf36                            ;undefined FUN_0002bf36(undefined4 pa...
ram:0002bf9e    a07c            ldrb        param_1,[r4,#0x12]                      
ram:0002bfa0    0df10101        add.w       param_2,sp,#0x1                         
ram:0002bfa4    fff7c7ff        bl          FUN_0002bf36                            ;undefined FUN_0002bf36(undefined4 pa...
ram:0002bfa8    e27b            ldrb        r2,[r4,#0xf]                            
ram:0002bfaa    237b            ldrb        r3,[r4,#0xc]                            
ram:0002bfac    217d            ldrb        param_2,[r4,#0x14]                      
ram:0002bfae    43eac203        orr.w       r3,r3,r2, lsl #0x3                      
ram:0002bfb2    227c            ldrb        r2,[r4,#0x10]                           
ram:0002bfb4    43ea0213        orr.w       r3,r3,r2, lsl #0x4                      
ram:0002bfb8    9df80220        ldrb.w      r2,[sp,#local_56+0x58]                  
ram:0002bfbc    0029            cmp         param_2,#0x0                            
ram:0002bfbe    22f01902        bic         r2,r2,#0x19                             
ram:0002bfc2    03f01903        and         r3,r3,#0x19                             
ram:0002bfc6    14bf            ite         ne                                      
ram:0002bfc8    0221            mov.ne      param_2,#0x2                            
ram:0002bfca    0121            mov.eq      param_2,#0x1                            
ram:0002bfcc    1343            orrs        r3,r2                                   
ram:0002bfce    61f34203        bfi         r3,param_2,#0x1,#0x2                    
ram:0002bfd2    1c22            movs        r2,#0x1c                                
ram:0002bfd4    0021            movs        param_2,#0x0                            
ram:0002bfd6    09a8            add         param_1,sp,#0x24                        
ram:0002bfd8    8df80230        strb.w      r3,[sp,#local_56+0x58]                  
ram:0002bfdc    00f0d8fe        bl          FUN_0002cd90                            ;undefined4 * FUN_0002cd90(undefined4...
ram:0002bfe0    637b            ldrb        r3,[r4,#0xd]                            
ram:0002bfe2    13f0300f        tst         r3,#0x30                                
ram:0002bfe6    15d0            beq         LAB_0002c014                            
ram:0002bfe8    02af            add         r7,sp,#0x8                              
ram:0002bfea    0322            movs        r2,#0x3                                 
ram:0002bfec    0021            movs        param_2,#0x0                            
ram:0002bfee    3846            mov         param_1,r7                              
ram:0002bff0    00f0cefe        bl          FUN_0002cd90                            ;undefined4 * FUN_0002cd90(undefined4...
ram:0002bff4    e07c            ldrb        param_1,[r4,#0x13]                      
ram:0002bff6    0df10901        add.w       param_2,sp,#0x9                         
ram:0002bffa    fff79cff        bl          FUN_0002bf36                            ;undefined FUN_0002bf36(undefined4 pa...
ram:0002bffe    1123            movs        r3,#0x11                                
ram:0002c000    8df80830        strb.w      r3,[sp,#local_50+0x58]                  
ram:0002c004    9df80a30        ldrb.w      r3,[sp,#local_4e+0x58]                  
ram:0002c008    0e97            str         r7,[sp,#local_20+0x58]                  
ram:0002c00a    0122            movs        r2,#0x1                                 
ram:0002c00c    62f34203        bfi         r3,r2,#0x1,#0x2                         
ram:0002c010    8df80a30        strb.w      r3,[sp,#local_4e+0x58]                  
                            LAB_0002c014:                 ;XREF[1,0]:   0002bfe6
ram:0002c014    637b            ldrb        r3,[r4,#0xd]                            
ram:0002c016    8df82430        strb.w      r3,[sp,#local_34+0x58]                  
ram:0002c01a    1422            movs        r2,#0x14                                
ram:0002c01c    a37b            ldrb        r3,[r4,#0xe]                            
ram:0002c01e    8df82530        strb.w      r3,[sp,#local_33+0x58]                  
ram:0002c022    0021            movs        param_2,#0x0                            
ram:0002c024    04a8            add         param_1,sp,#0x10                        
ram:0002c026    00f0b3fe        bl          FUN_0002cd90                            ;undefined4 * FUN_0002cd90(undefined4...
ram:0002c02a    03ab            add         r3,sp,#0xc                              
ram:0002c02c    0493            str         r3,[sp,#local_48+0x58]                  
ram:0002c02e    a388            ldrh        r3,[r4,#0x4]                            
ram:0002c030    adf81c30        strh.w      r3,[sp,#local_3c+0x58]                  
ram:0002c034    a368            ldr         r3,[r4,#0x8]                            
ram:0002c036    cdf814d0        str.w       sp,[sp,#local_44+0x58]                  
ram:0002c03a    1bb1            cbz         r3,LAB_0002c044                         
ram:0002c03c    e288            ldrh        r2,[r4,#0x6]                            
ram:0002c03e    adf81820        strh.w      r2,[sp,#local_40+0x58]                  
ram:0002c042    0893            str         r3,[sp,#local_38+0x58]                  
                            LAB_0002c044:                 ;XREF[1,0]:   0002c03a
ram:0002c044    a369            ldr         r3,[r4,#0x18]                           
ram:0002c046    002b            cmp         r3,#0x0                                 
ram:0002c048    31d0            beq         LAB_0002c0ae                            
ram:0002c04a    01af            add         r7,sp,#0x4                              
ram:0002c04c    0322            movs        r2,#0x3                                 
ram:0002c04e    0021            movs        param_2,#0x0                            
ram:0002c050    3846            mov         param_1,r7                              
ram:0002c052    00f09dfe        bl          FUN_0002cd90                            ;undefined4 * FUN_0002cd90(undefined4...
ram:0002c056    a369            ldr         r3,[r4,#0x18]                           
ram:0002c058    1a88            ldrh        r2,[r3,#0x0]                            
ram:0002c05a    adf82c20        strh.w      r2,[sp,#local_2c+0x58]                  
ram:0002c05e    5a88            ldrh        r2,[r3,#0x2]                            
ram:0002c060    adf82e20        strh.w      r2,[sp,#local_2a+0x58]                  
ram:0002c064    5a68            ldr         r2,[r3,#0x4]                            
ram:0002c066    0d97            str         r7,[sp,#local_24+0x58]                  
ram:0002c068    187b            ldrb        param_1,[r3,#0xc]                       
ram:0002c06a    0a92            str         r2,[sp,#local_30+0x58]                  
ram:0002c06c    3946            mov         param_2,r7                              
ram:0002c06e    fff762ff        bl          FUN_0002bf36                            ;undefined FUN_0002bf36(undefined4 pa...
ram:0002c072    a369            ldr         r3,[r4,#0x18]                           
ram:0002c074    0df10501        add.w       param_2,sp,#0x5                         
ram:0002c078    587b            ldrb        param_1,[r3,#0xd]                       
ram:0002c07a    fff75cff        bl          FUN_0002bf36                            ;undefined FUN_0002bf36(undefined4 pa...
ram:0002c07e    a269            ldr         r2,[r4,#0x18]                           
ram:0002c080    917a            ldrb        param_2,[r2,#0xa]                       
ram:0002c082    137a            ldrb        r3,[r2,#0x8]                            
ram:0002c084    43eac103        orr.w       r3,r3,param_2, lsl #0x3                 
ram:0002c088    d17a            ldrb        param_2,[r2,#0xb]                       
ram:0002c08a    927b            ldrb        r2,[r2,#0xe]                            
ram:0002c08c    43ea0113        orr.w       r3,r3,param_2, lsl #0x4                 
ram:0002c090    9df80610        ldrb.w      param_2,[sp,#local_52+0x58]             
ram:0002c094    002a            cmp         r2,#0x0                                 
ram:0002c096    03f01903        and         r3,r3,#0x19                             
ram:0002c09a    21f01901        bic         param_2,param_2,#0x19                   
ram:0002c09e    14bf            ite         ne                                      
ram:0002c0a0    0222            mov.ne      r2,#0x2                                 
ram:0002c0a2    0122            mov.eq      r2,#0x1                                 
ram:0002c0a4    0b43            orrs        r3,param_2                              
ram:0002c0a6    62f34203        bfi         r3,r2,#0x1,#0x2                         
ram:0002c0aa    8df80630        strb.w      r3,[sp,#local_52+0x58]                  
                            LAB_0002c0ae:                 ;XREF[1,0]:   0002c048
ram:0002c0ae    e369            ldr         r3,[r4,#0x1c]                           
ram:0002c0b0    03b1            cbz         r3,LAB_0002c0b4                         
ram:0002c0b2    0c93            str         r3,[sp,#local_28+0x58]                  
                            LAB_0002c0b4:                 ;XREF[1,0]:   0002c0b0
ram:0002c0b4    3346            mov         r3,r6                                   
ram:0002c0b6    04aa            add         r2,sp,#0x10                             
ram:0002c0b8    09a9            add         param_2,sp,#0x24                        
ram:0002c0ba    2846            mov         param_1,r5                              
ram:0002c0bc    fff739ff        bl          FUN_0002bf32                            ;undefined FUN_0002bf32(void)
ram:0002c0c0    11b0            add         sp,#0x44                                
ram:0002c0c2    f0bd            pop         {r4,r5,r6,r7,pc}                        
                            ;************************************************************************************************
                            ;*                                           FUNCTION                                           *
                            ;************************************************************************************************
                            ;undefined FUN_0002c0c4(void)
                                                          ;XREF[1,0]:   0002c0e8
ram:0002c0c4    90df            svc         0x90                                    
ram:0002c0c6    7047            bx          lr                                      
ram:0002c0c8    a5df            svc         0xa5                                    
ram:0002c0ca    7047            bx          lr                                      
ram:0002c0cc    b5df            svc         0xb5                                    
ram:0002c0ce    7047            bx          lr                                      
ram:0002c0d0    1fb5            push        {r0,r1,r2,r3,r4,lr}                     
ram:0002c0d2    0023            movs        r3,#0x0                                 
ram:0002c0d4    adf80810        strh.w      r1,[sp,#0x8]                            
ram:0002c0d8    adf80a10        strh.w      r1,[sp,#0xa]                            
ram:0002c0dc    6a46            mov         r2,sp                                   
ram:0002c0de    02a9            add         r1,sp,#0x8                              
ram:0002c0e0    0393            str         r3,[sp,#0xc]                            
ram:0002c0e2    0093            str         r3,[sp,#0x0]                            
ram:0002c0e4    adf80430        strh.w      r3,[sp,#0x4]                            
ram:0002c0e8    fff7ecff        bl          FUN_0002c0c4                            ;undefined FUN_0002c0c4(void)
ram:0002c0ec    05b0            add         sp,#0x14                                
ram:0002c0ee    5df804fb        pop.w       pc                                      
                            ;************************************************************************************************
                            ;*                                           FUNCTION                                           *
                            ;************************************************************************************************
                            ;undefined FUN_0002c27a(void)
                                                          ;XREF[1,0]:   0002c362
ram:0002c27a    b0df            svc         0xb0                                    
ram:0002c27c    7047            bx          lr                                      
                            ;************************************************************************************************
                            ;*                                           FUNCTION                                           *
                            ;************************************************************************************************
                            ;undefined FUN_0002c27e(void)
                                                          ;XREF[1,0]:   0002c28a
ram:0002c27e    66df            svc         0x66                                    
ram:0002c280    7047            bx          lr                                      
                            ;************************************************************************************************
                            ;*                                           FUNCTION                                           *
                            ;************************************************************************************************
                            ;undefined FUN_0002c282(int param_1)
          ;param_1       int                 r0                      
                                                          ;XREF[2,0]:   0002c300,0002c324
ram:0002c282    10b5            push        {r4,lr}                                 
ram:0002c284    0021            movs        r1,#0x0                                 
ram:0002c286    0446            mov         r4,param_1                              
ram:0002c288    4088            ldrh        param_1,[param_1,#0x2]                  
ram:0002c28a    fff7f8ff        bl          FUN_0002c27e                            ;undefined FUN_0002c27e(void)
ram:0002c28e    0346            mov         r3,param_1                              
ram:0002c290    08b9            cbnz        param_1,LAB_0002c296                    
                            LAB_0002c292:                 ;XREF[1,0]:   0002c29c
ram:0002c292    2372            strb        r3,[r4,#0x8]                            
ram:0002c294    10bd            pop         {r4,pc}                                 
                            LAB_0002c296:                 ;XREF[1,0]:   0002c290
ram:0002c296    1128            cmp         param_1,#0x11                           
ram:0002c298    01d1            bne         LAB_0002c29e                            
ram:0002c29a    0123            movs        r3,#0x1                                 
ram:0002c29c    f9e7            b           LAB_0002c292                            
                            LAB_0002c29e:                 ;XREF[1,0]:   0002c298
ram:0002c29e    6368            ldr         r3,[r4,#0x4]                            
ram:0002c2a0    bde81040        pop.w       {r4,lr}                                 
ram:0002c2a4    1847            bx          r3                                      
ram:0002c2a6    60b1            cbz         r0,FUN_0002c2c2                         
ram:0002c2a8    59b1            cbz         r1,FUN_0002c2c2                         
ram:0002c2aa    0378            ldrb        r3,[r0,#0x0]                            
ram:0002c2ac    de2b            cmp         r3,#0xde                                
ram:0002c2ae    0ad0            beq         FUN_0002c2c6                            
ram:0002c2b0    0b68            ldr         r3,[r1,#0x0]                            
ram:0002c2b2    4360            str         r3,[r0,#0x4]                            
ram:0002c2b4    de23            movs        r3,#0xde                                
ram:0002c2b6    0370            strb        r3,[r0,#0x0]                            
ram:0002c2b8    4ff6ff73        movw        r3,#0xffff                              
ram:0002c2bc    4380            strh        r3,[r0,#0x2]                            
ram:0002c2be    0020            movs        r0,#0x0                                 
ram:0002c2c0    7047            bx          lr                                      
                            ;************************************************************************************************
                            ;*                                           FUNCTION                                           *
                            ;************************************************************************************************
                            ;undefined4 FUN_0002c2c2(void)
                                                          ;XREF[2,0]:   0002c2a6,0002c2a8
ram:0002c2c2    0e20            movs        r0,#0xe                                 
ram:0002c2c4    7047            bx          lr                                      
                            ;************************************************************************************************
                            ;*                                           FUNCTION                                           *
                            ;************************************************************************************************
                            ;undefined4 FUN_0002c2c6(void)
                                                          ;XREF[1,0]:   0002c2ae
ram:0002c2c6    0820            movs        r0,#0x8                                 
ram:0002c2c8    7047            bx          lr                                      
ram:0002c2ca    28b1            cbz         r0,FUN_0002c2d8                         
ram:0002c2cc    0378            ldrb        r3,[r0,#0x0]                            
ram:0002c2ce    de2b            cmp         r3,#0xde                                
ram:0002c2d0    04d1            bne         FUN_0002c2dc                            
ram:0002c2d2    4180            strh        r1,[r0,#0x2]                            
ram:0002c2d4    0020            movs        r0,#0x0                                 
ram:0002c2d6    7047            bx          lr                                      
                            ;************************************************************************************************
                            ;*                                           FUNCTION                                           *
                            ;************************************************************************************************
                            ;undefined4 FUN_0002c2d8(void)
                                                          ;XREF[1,0]:   0002c2ca
ram:0002c2d8    0e20            movs        r0,#0xe                                 
ram:0002c2da    7047            bx          lr                                      
                            ;************************************************************************************************
                            ;*                                           FUNCTION                                           *
                            ;************************************************************************************************
                            ;undefined4 FUN_0002c2dc(void)
                                                          ;XREF[1,0]:   0002c2d0
ram:0002c2dc    0820            movs        r0,#0x8                                 
ram:0002c2de    7047            bx          lr                                      
                            ;************************************************************************************************
                            ;*                                           FUNCTION                                           *
                            ;************************************************************************************************
                            ;undefined FUN_0002c2e0(short * param_1, char * param_2)
          ;param_1       short *             r0                      
          ;param_2       char *              r1                      
          ;local_24      undefined2         -24                      ;XREF[1,0]:   0002c35e
          ;local_28      undefined1         -28                      ;XREF[1,0]:   0002c35a
ram:0002c2e0    f0b5            push        {r4,r5,r6,r7,lr}                        
ram:0002c2e2    0546            mov         r5,param_1                              
ram:0002c2e4    85b0            sub         sp,#0x14                                
ram:0002c2e6    0c46            mov         r4,param_2                              
ram:0002c2e8    f1b1            cbz         param_2,LAB_0002c328                    
ram:0002c2ea    e8b1            cbz         param_1,LAB_0002c328                    
ram:0002c2ec    0b78            ldrb        r3,[param_2,#0x0]                       
ram:0002c2ee    de2b            cmp         r3,#0xde                                
ram:0002c2f0    1ad1            bne         LAB_0002c328                            
ram:0002c2f2    8288            ldrh        r2,[param_1,#0x4]                       
ram:0002c2f4    4b88            ldrh        r3,[param_2,#0x2]                       
ram:0002c2f6    9a42            cmp         r2,r3                                   
ram:0002c2f8    04d1            bne         LAB_0002c304                            
ram:0002c2fa    0b7a            ldrb        r3,[param_2,#0x8]                       
ram:0002c2fc    13b1            cbz         r3,LAB_0002c304                         
ram:0002c2fe    0846            mov         param_1,param_2                         
ram:0002c300    fff7bfff        bl          FUN_0002c282                            ;undefined FUN_0002c282(int param_1)
                            LAB_0002c304:                 ;XREF[2,0]:   0002c2f8,0002c2fc
ram:0002c304    2b88            ldrh        r3,[r5,#0x0]                            
ram:0002c306    112b            cmp         r3,#0x11                                
ram:0002c308    32d0            beq         LAB_0002c370                            
ram:0002c30a    512b            cmp         r3,#0x51                                
ram:0002c30c    0ed0            beq         LAB_0002c32c                            
ram:0002c30e    012b            cmp         r3,#0x1                                 
ram:0002c310    0ad1            bne         LAB_0002c328                            
ram:0002c312    2b7a            ldrb        r3,[r5,#0x8]                            
ram:0002c314    012b            cmp         r3,#0x1                                 
ram:0002c316    07d1            bne         LAB_0002c328                            
ram:0002c318    a988            ldrh        param_2,[r5,#0x4]                       
ram:0002c31a    6288            ldrh        r2,[r4,#0x2]                            
ram:0002c31c    9142            cmp         param_2,r2                              
ram:0002c31e    03d1            bne         LAB_0002c328                            
ram:0002c320    2372            strb        r3,[r4,#0x8]                            
ram:0002c322    2046            mov         param_1,r4                              
ram:0002c324    fff7adff        bl          FUN_0002c282                            ;undefined FUN_0002c282(int param_1)
                            LAB_0002c328:                 ;XREF[12,0]:  0002c2e8,0002c2ea,0002c2f0,0002c310
                                                          ;             0002c316,0002c31e,0002c332,0002c338
                                                          ;             0002c340,0002c368,0002c36e,0002c37e
ram:0002c328    05b0            add         sp,#0x14                                
ram:0002c32a    f0bd            pop         {r4,r5,r6,r7,pc}                        
                            LAB_0002c32c:                 ;XREF[1,0]:   0002c30c
ram:0002c32c    ae88            ldrh        r6,[r5,#0x4]                            
ram:0002c32e    6388            ldrh        r3,[r4,#0x2]                            
ram:0002c330    b342            cmp         r3,r6                                   
ram:0002c332    f9d1            bne         LAB_0002c328                            
ram:0002c334    af79            ldrb        r7,[r5,#0x6]                            
ram:0002c336    022f            cmp         r7,#0x2                                 
ram:0002c338    f6d1            bne         LAB_0002c328                            
ram:0002c33a    ad7b            ldrb        r5,[r5,#0xe]                            
ram:0002c33c    2b1f            subs        r3,r5,#0x4                              
ram:0002c33e    022b            cmp         r3,#0x2                                 
ram:0002c340    f2d8            bhi         LAB_0002c328                            
ram:0002c342    0021            movs        param_2,#0x0                            
ram:0002c344    1022            movs        r2,#0x10                                
ram:0002c346    6846            mov         param_1,sp                              
ram:0002c348    00f022fd        bl          FUN_0002cd90                            ;undefined4 * FUN_0002cd90(undefined4...
ram:0002c34c    052d            cmp         r5,#0x5                                 
ram:0002c34e    14bf            ite         ne                                      
ram:0002c350    4ff4c073        mov.ne.w    r3,#0x180                               
ram:0002c354    0023            mov.eq      r3,#0x0                                 
ram:0002c356    6946            mov         param_2,sp                              
ram:0002c358    3046            mov         param_1,r6                              
ram:0002c35a    8df80070        strb.w      r7,[sp,#0x0]=>local_28                  
ram:0002c35e    adf80430        strh.w      r3,[sp,#local_24+0x28]                  
ram:0002c362    fff78aff        bl          FUN_0002c27a                            ;undefined FUN_0002c27a(void)
ram:0002c366    0028            cmp         param_1,#0x0                            
ram:0002c368    ded0            beq         LAB_0002c328                            
ram:0002c36a    6368            ldr         r3,[r4,#0x4]                            
ram:0002c36c    9847            blx         r3                                      
ram:0002c36e    dbe7            b           LAB_0002c328                            
                            LAB_0002c370:                 ;XREF[1,0]:   0002c308
ram:0002c370    6388            ldrh        r3,[r4,#0x2]                            
ram:0002c372    aa88            ldrh        r2,[r5,#0x4]                            
ram:0002c374    9a42            cmp         r2,r3                                   
ram:0002c376    04bf            itt         eq                                      
ram:0002c378    4ff6ff73        movw.eq     r3,#0xffff                              
ram:0002c37c    6380            strh.eq     r3,[r4,#0x2]                            
ram:0002c37e    d3e7            b           LAB_0002c328                            
                            LAB_0002c380:                 ;XREF[1,0]:   0002c3b0
ram:0002c380    72df            svc         0x72                                    
ram:0002c382    7047            bx          lr                                      
ram:0002c384    73df            svc         0x73                                    
ram:0002c386    7047            bx          lr                                      
ram:0002c388    38b5            push        {r3,r4,r5,lr}                           
ram:0002c38a    0122            movs        r2,#0x1                                 
ram:0002c38c    0446            mov         r4,r0                                   
ram:0002c38e    0d46            mov         r5,r1                                   
ram:0002c390    b0f81414        ldrh.w      r1,[r0,#0x414]                          
ram:0002c394    d0f81004        ldr.w       r0,[r0,#0x410]                          
ram:0002c398    fff768fb        bl          FUN_0002ba6c                            ;uint FUN_0002ba6c(uint param_1, uint...
ram:0002c39c    00b1            cbz         r0,LAB_0002c3a0                         
ram:0002c39e    0570            strb        r5,[r0,#0x0]                            
                            LAB_0002c3a0:                 ;XREF[1,0]:   0002c39c
ram:0002c3a0    04f13c02        add.w       r2,r4,#0x3c                             
ram:0002c3a4    04f58261        add.w       r1,r4,#0x410                            
ram:0002c3a8    04f15400        add.w       r0,r4,#0x54                             
ram:0002c3ac    bde83840        pop.w       {r3,r4,r5,lr}                           
ram:0002c3b0    fff7e6bf        b.w         LAB_0002c380                            
                            ;************************************************************************************************
                            ;*                                           FUNCTION                                           *
                            ;************************************************************************************************
                            ;undefined4 FUN_0002c662(int * param_1, undefined * * param_2)
          ;param_1       int *               r0                      
          ;param_2       undefined * *       r1                      
          ;local_c       undefined4          -c                      ;XREF[1,0]:   0002c66e
ram:0002c662    13b5            push        {param_1,param_2,r4,lr}                 
ram:0002c664    0446            mov         r4,param_1                              
ram:0002c666    0949            ldr         param_2,[DAT_0002c68c]                  ;= CFD0BF00h
ram:0002c668    6846            mov         param_1,sp                              
ram:0002c66a    fbf708fd        bl          FUN_0002807e                            ;undefined FUN_0002807e(int * * param...
                            LAB_0002c66e:                 ;XREF[1,0]:   0002c686
ram:0002c66e    0198            ldr         param_1,[sp,#local_c+0x10]              
ram:0002c670    08b9            cbnz        param_1,LAB_0002c676                    
                            LAB_0002c672:                 ;XREF[1,0]:   0002c68a
ram:0002c672    02b0            add         sp,#0x8                                 
ram:0002c674    10bd            pop         {r4,pc}                                 
                            LAB_0002c676:                 ;XREF[1,0]:   0002c670
ram:0002c676    d0e90021        ldrd        r2,param_2,[param_1,#0x0]               
ram:0002c67a    2046            mov         param_1,r4                              
ram:0002c67c    9047            blx         r2                                      
ram:0002c67e    18b1            cbz         param_1,LAB_0002c688                    
ram:0002c680    6846            mov         param_1,sp                              
ram:0002c682    fbf706fd        bl          FUN_00028092                            ;undefined FUN_00028092(int * param_1)
ram:0002c686    f2e7            b           LAB_0002c66e                            
                            LAB_0002c688:                 ;XREF[1,0]:   0002c67e
ram:0002c688    1120            movs        param_1,#0x11                           
ram:0002c68a    f2e7            b           LAB_0002c672                            
                            DAT_0002c68c:                 ;XREF[1,0]:   0002c666
ram:0002c68c    00bfd0cf        undefined4  CFD0BF00h                               
                            ;************************************************************************************************
                            ;*                                           FUNCTION                                           *
                            ;************************************************************************************************
                            ;undefined FUN_0002c812(void)
                                                          ;XREF[1,0]:   00028042
ram:0002c812    014b            ldr         r3,[DAT_0002c818]                       ;= 444DBF00h
ram:0002c814    1878            ldrb        r0,[r3,#0x0]=>DAT_444dbf00              
ram:0002c816    7047            bx          lr                                      
                            DAT_0002c818:                 ;XREF[1,0]:   0002c812
ram:0002c818    00bf4d44        undefined4  444DBF00h                               
                            ;************************************************************************************************
                            ;*                                           FUNCTION                                           *
                            ;************************************************************************************************
                            ;undefined FUN_0002c81e(int * param_1, undefined * * param_2, undefined4 param_3)
          ;param_1       int *               r0                      
          ;param_2       undefined * *       r1                      
          ;param_3       undefined4          r2                      
          ;local_c       undefined4          -c                      ;XREF[1,0]:   0002c828
                                                          ;XREF[1,0]:   0002c846
ram:0002c81e    07b5            push        {param_1,param_2,param_3,lr}            
ram:0002c820    0849            ldr         param_2,[FUNC_VT_0002c844]              
ram:0002c822    6846            mov         param_1,sp                              
ram:0002c824    fbf72bfc        bl          FUN_0002807e                            ;undefined FUN_0002807e(int * * param...
                            LAB_0002c828:                 ;XREF[1,0]:   0002c83e
ram:0002c828    019b            ldr         r3,[sp,#local_c+0x10]                   
ram:0002c82a    13b9            cbnz        r3,LAB_0002c832                         
ram:0002c82c    03b0            add         sp,#0xc                                 
ram:0002c82e    5df804fb        pop.w       pc                                      
                            LAB_0002c832:                 ;XREF[1,0]:   0002c82a
ram:0002c832    d3e90020        ldrd        param_3,param_1,[r3,#0x0]               
ram:0002c836    9047            blx         param_3                                 
ram:0002c838    6846            mov         param_1,sp                              
ram:0002c83a    fbf72afc        bl          FUN_00028092                            ;undefined FUN_00028092(int * param_1)
ram:0002c83e    f3e7            b           LAB_0002c828                            
ram:0002c840    00bf            nop                                                  
ram:0002c842    dccf            ldmia       r7,{r2,r3,r4,r6,r7}                     
                            ;************************************************************************************************
                            ;*                                           FUNCTION                                           *
                            ;************************************************************************************************
                            ;undefined FUNC_VT_0002c844(int * param_1, undefined * * param_2)
          ;param_1       int *               r0                      
          ;param_2       undefined * *       r1                      
          ;local_c       undefined4          -c                      
                                                          ;XREF[1,1]:   0002c820,0002709a
ram:0002c844    0200            movs        r2,param_1                              
ram:0002c846    fff7eabf        b.w         FUN_0002c81e                            ;undefined FUN_0002c81e(int * param_1...
                            ;************************************************************************************************
                            ;*                                           FUNCTION                                           *
                            ;************************************************************************************************
                            ;undefined FUN_0002c9b6(void)
                                                          ;XREF[1,0]:   0002ca66
ram:0002c9b6    addf            svc         0xad                                    
ram:0002c9b8    7047            bx          lr                                      
                            ;************************************************************************************************
                            ;*                                           FUNCTION                                           *
                            ;************************************************************************************************
                            ;undefined FUN_0002c9ba(void)
                                                          ;XREF[1,0]:   0002cafa
ram:0002c9ba    aedf            svc         0xae                                    
ram:0002c9bc    7047            bx          lr                                      
                            ;************************************************************************************************
                            ;*                                           FUNCTION                                           *
                            ;************************************************************************************************
                            ;undefined FUN_0002c9be(void)
                                                          ;XREF[1,0]:   0002ca8a
ram:0002c9be    b0df            svc         0xb0                                    
ram:0002c9c0    7047            bx          lr                                      
ram:0002c9c2    62df            svc         0x62                                    
ram:0002c9c4    7047            bx          lr                                      
                            ;************************************************************************************************
                            ;*                                           FUNCTION                                           *
                            ;************************************************************************************************
                            ;undefined FUN_0002c9c6(void)
                                                          ;XREF[1,0]:   0002cb24
ram:0002c9c6    3cdf            svc         0x3c                                    
ram:0002c9c8    7047            bx          lr                                      
                            ;************************************************************************************************
                            ;*                                           FUNCTION                                           *
                            ;************************************************************************************************
                            ;undefined FUN_0002c9ca(void)
                                                          ;XREF[1,0]:   0002cb1a
ram:0002c9ca    3ddf            svc         0x3d                                    
ram:0002c9cc    7047            bx          lr                                      
ram:0002c9ce    7047            bx          lr                                      
ram:0002c9d0    0000            movs        r0,r0                                   
                            ;************************************************************************************************
                            ;*                                           FUNCTION                                           *
                            ;************************************************************************************************
                            ;undefined FUN_0002c9d2(ushort * param_1)
          ;param_1       ushort *            r0                      
          ;local_22      undefined1         -22                      ;XREF[2,0]:   0002ca76,0002ca82
          ;local_24      undefined2         -24                      ;XREF[3,0]:   0002ca7a,0002ca92,0002caa8
          ;local_28      undefined1         -28                      ;XREF[1,0]:   0002ca5c
          ;local_2c      undefined4         -2c                      ;XREF[1,0]:   0002ca64
          ;local_30      undefined4         -30                      ;XREF[1,0]:   0002ca62
ram:0002c9d2    f0b5            push        {r4,r5,r6,r7,lr}                        
ram:0002c9d4    0446            mov         r4,param_1                              
ram:0002c9d6    89b0            sub         sp,#0x24                                
ram:0002c9d8    38b1            cbz         param_1,LAB_0002c9ea                    
ram:0002c9da    0388            ldrh        r3,[param_1,#0x0]                       
ram:0002c9dc    512b            cmp         r3,#0x51                                
ram:0002c9de    24d0            beq         LAB_0002ca2a                            
ram:0002c9e0    05d8            bhi         LAB_0002c9ee                            
ram:0002c9e2    102b            cmp         r3,#0x10                                
ram:0002c9e4    15d0            beq         LAB_0002ca12                            
ram:0002c9e6    112b            cmp         r3,#0x11                                
ram:0002c9e8    17d0            beq         LAB_0002ca1a                            
                            LAB_0002c9ea:                 ;XREF[14,0]:  0002c9d8,0002c9f0,0002c9fa,0002ca00
                                                          ;             0002ca08,0002ca10,0002ca18,0002ca22
                                                          ;             0002ca32,0002ca38,0002ca40,0002ca48
                                                          ;             0002ca98,0002caa2
ram:0002c9ea    09b0            add         sp,#0x24                                
ram:0002c9ec    f0bd            pop         {r4,r5,r6,r7,pc}                        
                            LAB_0002c9ee:                 ;XREF[1,0]:   0002c9e0
ram:0002c9ee    532b            cmp         r3,#0x53                                
ram:0002c9f0    fbd1            bne         LAB_0002c9ea                            
ram:0002c9f2    2e4d            ldr         r5,[LAB_0002caac]                       
ram:0002c9f4    c288            ldrh        r2,[param_1,#0x6]                       
ram:0002c9f6    eb88            ldrh        r3,[r5,#0x6]=>DAT_4450e7f1              
ram:0002c9f8    9a42            cmp         r2,r3                                   
ram:0002c9fa    f6d1            bne         LAB_0002c9ea                            
ram:0002c9fc    2b7e            ldrb        r3,[r5,#0x18]=>DAT_4450e803             
ram:0002c9fe    002b            cmp         r3,#0x0                                 
ram:0002ca00    f3d0            beq         LAB_0002c9ea                            
ram:0002ca02    00f090f9        bl          FUN_0002cd26                            ;int FUN_0002cd26(void)
ram:0002ca06    0028            cmp         param_1,#0x0                            
ram:0002ca08    efd0            beq         LAB_0002c9ea                            
ram:0002ca0a    6b69            ldr         r3,[r5,#0x14]=>DAT_4450e7ff             
ram:0002ca0c    0220            movs        param_1,#0x2                            
ram:0002ca0e    9847            blx         r3                                      
ram:0002ca10    ebe7            b           LAB_0002c9ea                            
                            LAB_0002ca12:                 ;XREF[1,0]:   0002c9e4
ram:0002ca12    8288            ldrh        r2,[param_1,#0x4]                       
ram:0002ca14    264b            ldr         r3,[FUN_0002cab0]                       
                            LAB_0002ca16:                 ;XREF[1,0]:   0002ca28
                                                          ; FWD[2,0]:   4450e7ef,b5302004
ram:0002ca16    9a80            strh        r2,[r3,#0x4]=>DAT_4450e7ef              
ram:0002ca18    e7e7            b           LAB_0002c9ea                            
                            LAB_0002ca1a:                 ;XREF[1,0]:   0002c9e8
ram:0002ca1a    244b            ldr         r3,[LAB_0002caac]                       
ram:0002ca1c    8188            ldrh        r1,[param_1,#0x4]                       
ram:0002ca1e    9a88            ldrh        r2,[r3,#0x4]=>DAT_4450e7ef              
ram:0002ca20    9142            cmp         r1,r2                                   
ram:0002ca22    e2d1            bne         LAB_0002c9ea                            
ram:0002ca24    4ff6ff72        movw        r2,#0xffff                              
ram:0002ca28    f5e7            b           LAB_0002ca16                            
                            LAB_0002ca2a:                 ;XREF[1,0]:   0002c9de
ram:0002ca2a    204d            ldr         r5,[LAB_0002caac]                       
ram:0002ca2c    8288            ldrh        r2,[param_1,#0x4]                       
ram:0002ca2e    ab88            ldrh        r3,[r5,#0x4]=>DAT_4450e7ef              
ram:0002ca30    9a42            cmp         r2,r3                                   
ram:0002ca32    dad1            bne         LAB_0002c9ea                            
ram:0002ca34    8679            ldrb        r6,[param_1,#0x6]                       
ram:0002ca36    022e            cmp         r6,#0x2                                 
ram:0002ca38    d7d1            bne         LAB_0002c9ea                            
ram:0002ca3a    0289            ldrh        r2,[param_1,#0x8]                       
ram:0002ca3c    eb88            ldrh        r3,[r5,#0x6]=>DAT_4450e7f1              
ram:0002ca3e    9a42            cmp         r2,r3                                   
ram:0002ca40    d3d1            bne         LAB_0002c9ea                            
ram:0002ca42    837b            ldrb        r3,[param_1,#0xe]                       
ram:0002ca44    043b            subs        r3,#0x4                                 
ram:0002ca46    022b            cmp         r3,#0x2                                 
ram:0002ca48    cfd9            bls         LAB_0002c9ea                            
ram:0002ca4a    1022            movs        r2,#0x10                                
ram:0002ca4c    0021            movs        r1,#0x0                                 
ram:0002ca4e    0deb0200        add.w       param_1,sp,r2                           
ram:0002ca52    00f09df9        bl          FUN_0002cd90                            ;undefined4 * FUN_0002cd90(undefined4...
ram:0002ca56    01af            add         r7,sp,#0x4                              
ram:0002ca58    6989            ldrh        r1,[r5,#0xa]=>DAT_4450e7f5              
ram:0002ca5a    a888            ldrh        param_1,[r5,#0x4]=>DAT_4450e7ef         
ram:0002ca5c    8df81060        strb.w      r6,[sp,#local_28+0x38]                  
ram:0002ca60    02aa            add         r2,sp,#0x8                              
ram:0002ca62    0296            str         r6,[sp,#local_30+0x38]                  
ram:0002ca64    0397            str         r7,[sp,#local_2c+0x38]                  
ram:0002ca66    fff7a6ff        bl          FUN_0002c9b6                            ;undefined FUN_0002c9b6(void)
ram:0002ca6a    0646            mov         r6,param_1                              
ram:0002ca6c    d0b9            cbnz        param_1,LAB_0002caa4                    
ram:0002ca6e    3846            mov         param_1,r7                              
ram:0002ca70    fff77afa        bl          FUN_0002bf68                            ;uint FUN_0002bf68(byte * param_1)
ram:0002ca74    b0b1            cbz         param_1,LAB_0002caa4                    
ram:0002ca76    9df81630        ldrb.w      r3,[sp,#local_22+0x38]                  
ram:0002ca7a    adf81460        strh.w      r6,[sp,#local_24+0x38]                  
ram:0002ca7e    43f00103        orr         r3,r3,#0x1                              
ram:0002ca82    8df81630        strb.w      r3,[sp,#local_22+0x38]                  
                            LAB_0002ca86:                 ;XREF[2,0]:   0002ca90,0002caac
ram:0002ca86    a888            ldrh        param_1,[r5,#0x4]=>DAT_4450e7ef         
ram:0002ca88    04a9            add         r1,sp,#0x10                             
ram:0002ca8a    fff798ff        bl          FUN_0002c9be                            ;undefined FUN_0002c9be(void)
ram:0002ca8e    1128            cmp         param_1,#0x11                           
ram:0002ca90    f9d0            beq         LAB_0002ca86                            
ram:0002ca92    bdf81430        ldrh.w      r3,[sp,#local_24+0x38]                  
ram:0002ca96    002b            cmp         r3,#0x0                                 
ram:0002ca98    a7d1            bne         LAB_0002c9ea                            
ram:0002ca9a    04f10800        add.w       param_1,r4,#0x8                         
ram:0002ca9e    00f0f0f8        bl          FUN_0002cc82                            ;undefined FUN_0002cc82(int param_1)
ram:0002caa2    a2e7            b           LAB_0002c9ea                            
                            LAB_0002caa4:                 ;XREF[2,0]:   0002ca6c,0002ca74
ram:0002caa4    40f2fd13        movw        r3,#0x1fd                               
ram:0002caa8    adf81430        strh.w      r3,[sp,#local_24+0x38]                  
                            LAB_0002caac:                 ;XREF[3,0]:   0002c9f2,0002ca1a,0002ca2a
ram:0002caac    ebe7            b           LAB_0002ca86                            
ram:0002caae    5044            add         r0,r10                                  
                            ;************************************************************************************************
                            ;*                                           FUNCTION                                           *
                            ;************************************************************************************************
                            ;int FUN_0002cab0(undefined4 param_1, undefined param_2)
          ;param_1       undefined4          r0                      
          ;param_2       undefined           r1                      
                                                          ;XREF[1,0]:   0002ca14
ram:0002cab0    0020            movs        param_1,#0x0                            
                            ;************************************************************************************************
                            ;*                                           FUNCTION                                           *
                            ;************************************************************************************************
                            ;int FUN_0002cab2(undefined param_1, undefined param_2)
          ;param_1       undefined           r0                      
          ;param_2       undefined           r1                      
          ;local_14      undefined4         -14                      ;XREF[1,0]:   0002caf8
          ;local_18      undefined4         -18                      ;XREF[1,0]:   0002caec
          ;local_1c      undefined2         -1c                      ;XREF[1,0]:   0002cae4
          ;local_1e      undefined1         -1e                      ;XREF[1,0]:   0002cade
          ;local_20      undefined2         -20                      ;XREF[1,0]:   0002cad8
          ;local_22      undefined1         -22                      ;XREF[1,0]:   0002caf0
          ;local_23      undefined1         -23                      ;XREF[1,0]:   0002cad2
          ;local_24      undefined1         -24                      ;XREF[1,0]:   0002cacc
          ;local_26      undefined2         -26                      ;XREF[2,0]:   0002cac6,0002cb00
                                                          ;XREF[3,0]:   0002cc96,0002ccb4,0002ccca
ram:0002cab2    30b5            push        {r4,r5,lr}                              
ram:0002cab4    87b0            sub         sp,#0x1c                                
ram:0002cab6    0546            mov         r5,param_1                              
ram:0002cab8    0c46            mov         r4,param_2                              
ram:0002caba    1022            movs        r2,#0x10                                
ram:0002cabc    0021            movs        param_2,#0x0                            
ram:0002cabe    02a8            add         param_1,sp,#0x8                         
ram:0002cac0    00f066f9        bl          FUN_0002cd90                            ;undefined4 * FUN_0002cd90(undefined4...
ram:0002cac4    0323            movs        r3,#0x3                                 
ram:0002cac6    adf80230        strh.w      r3,[sp,#local_26+0x28]                  
ram:0002caca    2023            movs        r3,#0x20                                
ram:0002cacc    8df80430        strb.w      r3,[sp,#local_24+0x28]                  
ram:0002cad0    0f4b            ldr         r3,[FUN_0002cb10]                       
ram:0002cad2    8df80550        strb.w      r5,[sp,#local_23+0x28]                  
ram:0002cad6    da88            ldrh        r2,[r3,#offset DAT_b5102006 &0xff]      
ram:0002cad8    adf80820        strh.w      r2,[sp,#local_20+0x28]                  
ram:0002cadc    0222            movs        r2,#0x2                                 
ram:0002cade    8df80a20        strb.w      r2,[sp,#local_1e+0x28]                  
ram:0002cae2    0022            movs        r2,#0x0                                 
ram:0002cae4    adf80c20        strh.w      r2,[sp,#local_1c+0x28]                  
ram:0002cae8    0df10202        add.w       r2,sp,#0x2                              
ram:0002caec    0492            str         r2,[sp,#local_18+0x28]                  
ram:0002caee    9888            ldrh        param_1,[r3,#offset DAT_b5102004 &0xff] 
ram:0002caf0    8df80640        strb.w      r4,[sp,#local_22+0x28]                  
ram:0002caf4    01aa            add         r2,sp,#0x4                              
ram:0002caf6    02a9            add         param_2,sp,#0x8                         
ram:0002caf8    0592            str         r2,[sp,#local_14+0x28]                  
ram:0002cafa    fff75eff        bl          FUN_0002c9ba                            ;undefined FUN_0002c9ba(void)
ram:0002cafe    20b9            cbnz        param_1,LAB_0002cb0a                    
ram:0002cb00    bdf80230        ldrh.w      r3,[sp,#local_26+0x28]                  
ram:0002cb04    032b            cmp         r3,#0x3                                 
ram:0002cb06    18bf            it          ne                                      
ram:0002cb08    0c20            mov.ne      param_1,#0xc                            
                            LAB_0002cb0a:                 ;XREF[1,0]:   0002cafe
ram:0002cb0a    07b0            add         sp,#0x1c                                
ram:0002cb0c    30bd            pop         {r4,r5,pc}                              
ram:0002cb0e    5044            add         r0,r10                                  
                            ;************************************************************************************************
                            ;*                                           FUNCTION                                           *
                            ;************************************************************************************************
                            ;int FUN_0002cb10(void)
                                                          ;XREF[1,0]:   0002cad0
ram:0002cb10    0020            movs        r0,#0x0                                 
                            ;************************************************************************************************
                            ;*                                           FUNCTION                                           *
                            ;************************************************************************************************
                            ;int FUN_0002cb12(void)
                                                          ;XREF[1,0]:   0002cd36
ram:0002cb12    10b5            push        {r4,lr}                                 
ram:0002cb14    4ff0ff31        mov.w       r1,#0xffffffff                          
ram:0002cb18    0020            movs        r0,#0x0                                 
ram:0002cb1a    fff756ff        bl          FUN_0002c9ca                            ;undefined FUN_0002c9ca(void)
ram:0002cb1e    0446            mov         r4,r0                                   
ram:0002cb20    58b9            cbnz        r0,LAB_0002cb3a                         
ram:0002cb22    b121            movs        r1,#0xb1                                
ram:0002cb24    fff74fff        bl          FUN_0002c9c6                            ;undefined FUN_0002c9c6(void)
ram:0002cb28    0446            mov         r4,r0                                   
ram:0002cb2a    30b9            cbnz        r0,LAB_0002cb3a                         
ram:0002cb2c    044b            ldr         r3,[DAT_0002cb40]                       ;= B5F02000h
ram:0002cb2e    0120            movs        r0,#0x1                                 
ram:0002cb30    5b69            ldr         r3,[r3,#offset DAT_b5f02014 &0xff]      
ram:0002cb32    9847            blx         r3                                      
ram:0002cb34    0220            movs        r0,#0x2                                 
ram:0002cb36    fbf750fa        bl          FUN_00027fda                            ;undefined FUN_00027fda(int param_1)
                            LAB_0002cb3a:                 ;XREF[2,0]:   0002cb20,0002cb2a
ram:0002cb3a    2046            mov         r0,r4                                   
ram:0002cb3c    10bd            pop         {r4,pc}                                 
ram:0002cb3e    5044            add         r0,r10                                  
                            DAT_0002cb40:                 ;XREF[1,0]:   0002cb2c
ram:0002cb40    0020f0b5        undefined4  B5F02000h                               
                            ;************************************************************************************************
                            ;*                                           FUNCTION                                           *
                            ;************************************************************************************************
                            ;undefined FUN_0002cc82(int param_1)
          ;param_1       int                 r0                      
                                                          ;XREF[1,0]:   0002ca9e
ram:0002cc82    70b5            push        {r4,r5,r6,lr}                           
ram:0002cc84    0546            mov         r5,param_1                              
ram:0002cc86    007b            ldrb        param_1,[param_1,#0xc]                  
ram:0002cc88    244c            ldr         r4,[DAT_0002cd1c]                       ;= 446C2000h
ram:0002cc8a    0128            cmp         param_1,#0x1                            
ram:0002cc8c    0ed0            beq         LAB_0002ccac                            
ram:0002cc8e    0228            cmp         param_1,#0x2                            
ram:0002cc90    24d0            beq         LAB_0002ccdc                            
ram:0002cc92    0221            movs        r1,#0x2                                 
                            LAB_0002cc94:                 ;XREF[3,0]:   0002ccda,0002cd14,0002cd18
ram:0002cc94    287b            ldrb        param_1,[r5,#0xc]                       
ram:0002cc96    fff70cff        bl          FUN_0002cab2                            ;int FUN_0002cab2(undefined param_1, ...
ram:0002cc9a    18b1            cbz         param_1,LAB_0002cca4                    
ram:0002cc9c    2368            ldr         r3,[r4,#0x0]=>DAT_446c2000              
ram:0002cc9e    0320            movs        param_1,#0x3                            
ram:0002cca0    5b69            ldr         r3,[r3,#0x14]                           
ram:0002cca2    9847            blx         r3                                      
                            LAB_0002cca4:                 ;XREF[1,0]:   0002cc9a
ram:0002cca4    2368            ldr         r3,[r4,#0x0]=>DAT_446c2000              
ram:0002cca6    0220            movs        param_1,#0x2                            
ram:0002cca8    5b69            ldr         r3,[r3,#0x14]                           
ram:0002ccaa    09e0            b           LAB_0002ccc0                            
                            LAB_0002ccac:                 ;XREF[1,0]:   0002cc8c
ram:0002ccac    2368            ldr         r3,[r4,#0x0]=>DAT_446c2000              
ram:0002ccae    5e7e            ldrb        r6,[r3,#0x19]                           
ram:0002ccb0    4eb1            cbz         r6,LAB_0002ccc6                         
ram:0002ccb2    0621            movs        r1,#0x6                                 
ram:0002ccb4    fff7fdfe        bl          FUN_0002cab2                            ;int FUN_0002cab2(undefined param_1, ...
ram:0002ccb8    50b3            cbz         param_1,LAB_0002cd10                    
ram:0002ccba    2368            ldr         r3,[r4,#0x0]=>DAT_446c2000              
ram:0002ccbc    5b69            ldr         r3,[r3,#0x14]                           
ram:0002ccbe    0320            movs        param_1,#0x3                            
                            LAB_0002ccc0:                 ;XREF[1,0]:   0002ccaa
ram:0002ccc0    bde87040        pop.w       {r4,r5,r6,lr}                           
ram:0002ccc4    1847            bx          r3                                      
                            LAB_0002ccc6:                 ;XREF[1,0]:   0002ccb0
ram:0002ccc6    1876            strb        param_1,[r3,#0x18]                      
ram:0002ccc8    0146            mov         r1,param_1                              
ram:0002ccca    fff7f2fe        bl          FUN_0002cab2                            ;int FUN_0002cab2(undefined param_1, ...
ram:0002ccce    f8b1            cbz         param_1,LAB_0002cd10                    
ram:0002ccd0    2368            ldr         r3,[r4,#0x0]=>DAT_446c2000              
ram:0002ccd2    1128            cmp         param_1,#0x11                           
ram:0002ccd4    1e76            strb        r6,[r3,#0x18]                           
ram:0002ccd6    1cd0            beq         LAB_0002cd12                            
                            LAB_0002ccd8:                 ;XREF[2,0]:   0002ccfa,0002cd08
ram:0002ccd8    0421            movs        r1,#0x4                                 
ram:0002ccda    dbe7            b           LAB_0002cc94                            
                            LAB_0002ccdc:                 ;XREF[1,0]:   0002cc90
ram:0002ccdc    6a7b            ldrb        r2,[r5,#0xd]                            
ram:0002ccde    531e            subs        r3,r2,#0x1                              
ram:0002cce0    132b            cmp         r3,#0x13                                
ram:0002cce2    18d8            bhi         LAB_0002cd16                            
ram:0002cce4    0e4e            ldr         r6,[DAT_0002cd20]                       ;= 448C2000h
ram:0002cce6    05f10e01        add.w       r1,r5,#0xe                              
ram:0002ccea    301d            adds        param_1,r6,#0x4                         
ram:0002ccec    00f027f8        bl          FUN_0002cd3e                            ;undefined4 * FUN_0002cd3e(undefined4...
ram:0002ccf0    6b7b            ldrb        r3,[r5,#0xd]                            
ram:0002ccf2    b361            str         r3,[r6,#offset DAT_448c2018 &0xff]      
ram:0002ccf4    2368            ldr         r3,[r4,#0x0]=>DAT_446c2000              
ram:0002ccf6    5b7e            ldrb        r3,[r3,#0x19]                           
ram:0002ccf8    002b            cmp         r3,#0x0                                 
ram:0002ccfa    edd1            bne         LAB_0002ccd8                            
ram:0002ccfc    0949            ldr         r1,[DAT_0002cd24]                       
ram:0002ccfe    3046            mov         param_1,r6                              
ram:0002cd00    51f8083b        ldr.w       r3,[r1],#0x8=>DAT_b5082000              
ram:0002cd04    9847            blx         r3                                      
ram:0002cd06    0028            cmp         param_1,#0x0                            
ram:0002cd08    e6d1            bne         LAB_0002ccd8                            
ram:0002cd0a    2368            ldr         r3,[r4,#0x0]=>DAT_446c2000              
ram:0002cd0c    0122            movs        r2,#0x1                                 
ram:0002cd0e    5a76            strb        r2,[r3,#0x19]                           
                            LAB_0002cd10:                 ;XREF[2,0]:   0002ccb8,0002ccce
ram:0002cd10    70bd            pop         {r4,r5,r6,pc}                           
                            LAB_0002cd12:                 ;XREF[1,0]:   0002ccd6
ram:0002cd12    0621            movs        r1,#0x6                                 
ram:0002cd14    bee7            b           LAB_0002cc94                            
                            LAB_0002cd16:                 ;XREF[1,0]:   0002cce2
ram:0002cd16    0521            movs        r1,#0x5                                 
ram:0002cd18    bce7            b           LAB_0002cc94                            
ram:0002cd1a    8844            add         r8,r1                                   
                            DAT_0002cd1c:                 ;XREF[1,0]:   0002cc88
ram:0002cd1c    00206c44        undefined4  446C2000h                               
                            DAT_0002cd20:                 ;XREF[1,0]:   0002cce4
ram:0002cd20    00208c44        undefined4  448C2000h                               
                            DAT_0002cd24:                 ;XREF[1,0]:   0002ccfc
                            ;************************************************************************************************
                            ;*                                           FUNCTION                                           *
                            ;************************************************************************************************
                            ;int FUN_0002cd26(void)
                                                          ;XREF[1,0]:   0002ca02
ram:0002cd26    08b5            push        {r3,lr}                                 
ram:0002cd28    044b            ldr         r3,[DAT_0002cd3c]                       
ram:0002cd2a    1b68            ldr         r3,[r3,#0x0]=>DAT_46842000              
ram:0002cd2c    0020            movs        r0,#0x0                                 
ram:0002cd2e    5b69            ldr         r3,[r3,#0x14]                           
ram:0002cd30    9847            blx         r3                                      
ram:0002cd32    bde80840        pop.w       {r3,lr}                                 
ram:0002cd36    fff7ecbe        b.w         FUN_0002cb12                            
                            DAT_0002cd3c:                 ;XREF[1,0]:   0002cd28
                            ;************************************************************************************************
                            ;*                                           FUNCTION                                           *
                            ;************************************************************************************************
                            ;undefined4 * FUN_0002cd3e(undefined4 * param_1, undefined4 * param_2, uint param_3)
          ;param_1       undefined4 *        r0                      
          ;param_2       undefined4 *        r1                      
          ;param_3       uint                r2                      
                                                          ;XREF[5,0]:   00028180,0002b6e4,0002b84a,0002ba08
                                                          ;             0002ccec
ram:0002cd3e    8446            mov         r12,param_1                             
ram:0002cd40    40ea0103        orr.w       r3,param_1,param_2                      
ram:0002cd44    13f0030f        tst         r3,#0x3                                 
ram:0002cd48    18d1            bne         LAB_0002cd7c                            
ram:0002cd4a    8446            mov         r12,param_1                             
ram:0002cd4c    202a            cmp         param_3,#0x20                           
ram:0002cd4e    0bd3            bcc         LAB_0002cd68                            
ram:0002cd50    2de9f007        push        {r4,r5,r6,r7,r8,r9,r10}                 
                            LAB_0002cd54:                 ;XREF[1,0]:   0002cd62
ram:0002cd54    b1e8f807        ldm.w       param_2,{r3,r4,r5,r6,r7,r8,r9,r10}      
ram:0002cd58    a0e8f807        stm.w       param_1,{r3,r4,r5,r6,r7,r8,r9,r10}      
ram:0002cd5c    a2f12002        sub.w       param_3,param_3,#0x20                   
ram:0002cd60    202a            cmp         param_3,#0x20                           
ram:0002cd62    f7d2            bcs         LAB_0002cd54                            
ram:0002cd64    bde8f007        pop.w       {r4,r5,r6,r7,r8,r9,r10}                 
                            LAB_0002cd68:                 ;XREF[1,0]:   0002cd4e
ram:0002cd68    042a            cmp         param_3,#0x4                            
ram:0002cd6a    07d3            bcc         LAB_0002cd7c                            
                            LAB_0002cd6c:                 ;XREF[1,0]:   0002cd7a
ram:0002cd6c    51f8043b        ldr.w       r3,[param_2],#0x4                       
ram:0002cd70    40f8043b        str.w       r3,[param_1],#0x4                       
ram:0002cd74    a2f10402        sub.w       param_3,param_3,#0x4                    
ram:0002cd78    042a            cmp         param_3,#0x4                            
ram:0002cd7a    f7d2            bcs         LAB_0002cd6c                            
                            LAB_0002cd7c:                 ;XREF[2,0]:   0002cd48,0002cd6a
ram:0002cd7c    002a            cmp         param_3,#0x0                            
ram:0002cd7e    05d0            beq         LAB_0002cd8c                            
                            LAB_0002cd80:                 ;XREF[1,0]:   0002cd8a
ram:0002cd80    11f8013b        ldrb.w      r3,[param_2],#0x1                       
ram:0002cd84    00f8013b        strb.w      r3,[param_1],#0x1                       
ram:0002cd88    013a            subs        param_3,#0x1                            
ram:0002cd8a    f9d1            bne         LAB_0002cd80                            
                            LAB_0002cd8c:                 ;XREF[1,0]:   0002cd7e
ram:0002cd8c    6046            mov         param_1,r12                             
ram:0002cd8e    7047            bx          lr                                      
                            ;************************************************************************************************
                            ;*                                           FUNCTION                                           *
                            ;************************************************************************************************
                            ;undefined4 * FUN_0002cd90(undefined4 * param_1, undefined param_2, uint param_3)
          ;param_1       undefined4 *        r0                      
          ;param_2       undefined           r1                      
          ;param_3       uint                r2                      
                                                          ;XREF[17,0]:  00028112,00028192,0002929c,000292bc
                                                          ;             000292f0,00029310,00029340,00029372
                                                          ;             00029390,0002bf92,0002bfdc,0002bff0
                                                          ;             0002c026,0002c052,0002c348,0002ca52
                                                          ;             0002cac0
ram:0002cd90    8446            mov         r12,param_1                             
ram:0002cd92    002a            cmp         param_3,#0x0                            
ram:0002cd94    2dd0            beq         LAB_0002cdf2                            
                            LAB_0002cd96:                 ;XREF[1,0]:   0002cda4
ram:0002cd96    10f0030f        tst         param_1,#0x3                            
ram:0002cd9a    04d0            beq         LAB_0002cda6                            
ram:0002cd9c    00f8011b        strb.w      param_2,[param_1],#0x1                  
ram:0002cda0    013a            subs        param_3,#0x1                            
ram:0002cda2    26d0            beq         LAB_0002cdf2                            
ram:0002cda4    f7e7            b           LAB_0002cd96                            
                            LAB_0002cda6:                 ;XREF[1,0]:   0002cd9a
ram:0002cda6    c9b2            uxtb        param_2,param_2                         
ram:0002cda8    41ea0121        orr.w       param_2,param_2,param_2, lsl #0x8       
ram:0002cdac    41ea0141        orr.w       param_2,param_2,param_2, lsl #0x10      
ram:0002cdb0    202a            cmp         param_3,#0x20                           
ram:0002cdb2    12d3            bcc         LAB_0002cdda                            
ram:0002cdb4    a2f12002        sub.w       param_3,param_3,#0x20                   
ram:0002cdb8    2de9f003        push        {r4,r5,r6,r7,r8,r9}                     
ram:0002cdbc    0b46            mov         r3,param_2                              
ram:0002cdbe    0c46            mov         r4,param_2                              
ram:0002cdc0    0d46            mov         r5,param_2                              
ram:0002cdc2    0e46            mov         r6,param_2                              
ram:0002cdc4    0f46            mov         r7,param_2                              
ram:0002cdc6    8846            mov         r8,param_2                              
ram:0002cdc8    8946            mov         r9,param_2                              
                            LAB_0002cdca:                 ;XREF[1,0]:   0002cdd0
ram:0002cdca    a0e8fa03        stm.w       param_1,{param_2,r3,r4,r5,r6,r7,r8,r9}  
ram:0002cdce    203a            subs        param_3,#0x20                           
ram:0002cdd0    fbd2            bcs         LAB_0002cdca                            
ram:0002cdd2    bde8f003        pop.w       {r4,r5,r6,r7,r8,r9}                     
ram:0002cdd6    2032            adds        param_3,#0x20                           
ram:0002cdd8    0bd0            beq         LAB_0002cdf2                            
                            LAB_0002cdda:                 ;XREF[1,0]:   0002cdb2
ram:0002cdda    042a            cmp         param_3,#0x4                            
ram:0002cddc    05d3            bcc         LAB_0002cdea                            
                            LAB_0002cdde:                 ;XREF[1,0]:   0002cde8
ram:0002cdde    40f8041b        str.w       param_2,[param_1],#0x4                  
ram:0002cde2    043a            subs        param_3,#0x4                            
ram:0002cde4    05d0            beq         LAB_0002cdf2                            
ram:0002cde6    042a            cmp         param_3,#0x4                            
ram:0002cde8    f9d2            bcs         LAB_0002cdde                            
                            LAB_0002cdea:                 ;XREF[2,0]:   0002cddc,0002cdf0
ram:0002cdea    00f8011b        strb.w      param_2,[param_1],#0x1                  
ram:0002cdee    013a            subs        param_3,#0x1                            
ram:0002cdf0    fbd1            bne         LAB_0002cdea                            
                            LAB_0002cdf2:                 ;XREF[4,0]:   0002cd94,0002cda2,0002cdd8,0002cde4
ram:0002cdf2    6046            mov         param_1,r12                             
ram:0002cdf4    7047            bx          lr                                      
ram:0002cdf6    00f10101        add.w       r1,r0,#0x1                              
ram:0002cdfa    10f0030f        tst         r0,#0x3                                 
ram:0002cdfe    11d0            beq         FUN_0002ce24                            
ram:0002ce00    10f8012b        ldrb.w      r2,[r0],#0x1                            
ram:0002ce04    002a            cmp         r2,#0x0                                 
ram:0002ce06    23d0            beq         LAB_0002ce50                            
ram:0002ce08    10f0030f        tst         r0,#0x3                                 
ram:0002ce0c    0ad0            beq         FUN_0002ce24                            
ram:0002ce0e    10f8012b        ldrb.w      r2,[r0],#0x1                            
ram:0002ce12    002a            cmp         r2,#0x0                                 
ram:0002ce14    1cd0            beq         LAB_0002ce50                            
ram:0002ce16    10f0030f        tst         r0,#0x3                                 
ram:0002ce1a    03d0            beq         FUN_0002ce24                            
ram:0002ce1c    10f8012b        ldrb.w      r2,[r0],#0x1                            
ram:0002ce20    002a            cmp         r2,#0x0                                 
ram:0002ce22    15d0            beq         LAB_0002ce50                            
                            ;************************************************************************************************
                            ;*                                           FUNCTION                                           *
                            ;************************************************************************************************
                            ;int FUN_0002ce24(uint * param_1, int param_2)
          ;param_1       uint *              r0                      
          ;param_2       int                 r1                      
                                                          ;XREF[3,0]:   0002cdfe,0002ce0c,0002ce1a
ram:0002ce24    2de97000        push        {r4,r5,r6}                              
ram:0002ce28    4ff00132        mov.w       r2,#0x1010101                           
ram:0002ce2c    4ff08033        mov.w       r3,#0x80808080                          
                            LAB_0002ce30:                 ;XREF[1,0]:   0002ce40
ram:0002ce30    50f8044b        ldr.w       r4,[param_1],#0x4                       
ram:0002ce34    a4eb0205        sub.w       r5,r4,r2                                
ram:0002ce38    25ea0405        bic.w       r5,r5,r4                                
ram:0002ce3c    1d40            ands        r5,r3                                   
ram:0002ce3e    00d1            bne         LAB_0002ce42                            
ram:0002ce40    f6e7            b           LAB_0002ce30                            
                            LAB_0002ce42:                 ;XREF[1,0]:   0002ce3e
ram:0002ce42    a0f10400        sub.w       param_1,param_1,#0x4                    
ram:0002ce46    70bc            pop         {r4,r5,r6}                              
                            LAB_0002ce48:                 ;XREF[1,0]:   0002ce4e
ram:0002ce48    10f8012b        ldrb.w      r2,[param_1],#0x1                       
ram:0002ce4c    002a            cmp         r2,#0x0                                 
ram:0002ce4e    fbd1            bne         LAB_0002ce48                            
                            LAB_0002ce50:                 ;XREF[3,0]:   0002ce06,0002ce14,0002ce22
ram:0002ce50    a0eb0100        sub.w       param_1,param_1,param_2                 
ram:0002ce54    7047            bx          lr                                      
ram:0002ce56    8582            strh        r5,[r0,#0x14]                           
ram:0002ce58    0200            movs        r2,r0                                   
ram:0002ce5a    0000            movs        r0,r0                                   
ram:0002ce5c    0000            movs        r0,r0                                   
ram:0002ce5e    5588            ldrh        r5,[r2,#0x2]                            
ram:0002ce60    0200            movs        r2,r0                                   
ram:0002ce62    0000            movs        r0,r0                                   
ram:0002ce64    0000            movs        r0,r0                                   
ram:0002ce66    c1cb            ldmia       r3!,{r0,r6,r7}                          
ram:0002ce68    0200            movs        r2,r0                                   
ram:0002ce6a    0000            movs        r0,r0                                   
ram:0002ce6c    0000            movs        r0,r0                                   
ram:0002ce6e    a9bd            pop         {r0,r3,r5,r7,pc}                        
ram:0002ce70    0200            movs        r2,r0                                   
ram:0002ce72    0000            movs        r0,r0                                   
ram:0002ce74    0000            movs        r0,r0                                   
ram:0002ce76    d7c5            stmia       r5!,{r0,r1,r2,r4,r6,r7}                 
ram:0002ce78    0200            movs        r2,r0                                   
ram:0002ce7a    f83b            subs        r3,#0xf8                                
ram:0002ce7c    0020            movs        r0,#0x0                                 
ram:0002ce7e    23c1            stmia       r1,{r0,r1,r5}                           
ram:0002ce80    0200            movs        r2,r0                                   
ram:0002ce82    6c40            eors        r4,r5                                   
ram:0002ce84    0020            movs        r0,#0x0                                 
ram:0002ce86    b9bb            cbnz        r1,LAB_0002cef8                         
ram:0002ce88    0200            movs        r2,r0                                   
ram:0002ce8a    0000            movs        r0,r0                                   
ram:0002ce8c    0000            movs        r0,r0                                   
                                                          ; FWD[6,0]:   00000004,00000008,0000000c,00000010
                                                          ;             00000014,00000018
ram:0002ce8e    dfc2            stmia       r2,{r0,r1,r2,r3,r4,r6,r7}=>DAT_00000004 
ram:0002ce90    0200            movs        r2,r0                                   
ram:0002ce92    d040            lsrs        r0,r2                                   
ram:0002ce94    0020            movs        r0,#0x0                                 
                                                          ; FWD[6,0]:   00000004,00000008,0000000c,00000010
                                                          ;             00000014,00000018
ram:0002ce96    dfc2            stmia       r2,{r0,r1,r2,r3,r4,r6,r7}=>DAT_00000004 
ram:0002ce98    0200            movs        r2,r0                                   
ram:0002ce9a    dc40            lsrs        r4,r3                                   
ram:0002ce9c    0020            movs        r0,#0x0                                 
                                                          ; FWD[6,0]:   00000004,00000008,0000000c,00000010
                                                          ;             00000014,00000018
ram:0002ce9e    dfc2            stmia       r2,{r0,r1,r2,r3,r4,r6,r7}=>DAT_00000004 
ram:0002cea0    0200            movs        r2,r0                                   
ram:0002cea2    e840            lsrs        r0,r5                                   
ram:0002cea4    0020            movs        r0,#0x0                                 
                                                          ; FWD[6,0]:   00000004,00000008,0000000c,00000010
                                                          ;             00000014,00000018
ram:0002cea6    dfc2            stmia       r2,{r0,r1,r2,r3,r4,r6,r7}=>DAT_00000004 
ram:0002cea8    0200            movs        r2,r0                                   
ram:0002ceaa    f440            lsrs        r4,r6                                   
ram:0002ceac    0020            movs        r0,#0x0                                 
ram:0002ceae    1192            str         r2,[sp,#0x44]                           
ram:0002ceb0    0200            movs        r2,r0                                   
ram:0002ceb2    9840            lsls        r0,r3                                   
ram:0002ceb4    0020            movs        r0,#0x0                                 
ram:0002ceb6    d1c9            ldmia       r1!,{r0,r4,r6,r7}                       
ram:0002ceb8    0200            movs        r2,r0                                   
ram:0002ceba    5044            add         r0,r10                                  
ram:0002cebc    0020            movs        r0,#0x0                                 
ram:0002cebe    5d97            str         r7,[sp,#0x174]                          
ram:0002cec0    0200            movs        r2,r0                                   
ram:0002cec2    0000            movs        r0,r0                                   
ram:0002cec4    0000            movs        r0,r0                                   
ram:0002cec6    2d83            strh        r5,[r5,#0x18]                           
ram:0002cec8    0200            movs        r2,r0                                   
ram:0002ceca    0000            movs        r0,r0                                   
ram:0002cecc    0000            movs        r0,r0                                   
ram:0002cece    d588            ldrh        r5,[r2,#DAT_00000006]                   
ram:0002ced0    0200            movs        r2,r0                                   
ram:0002ced2    0000            movs        r0,r0                                   
ram:0002ced4    0000            movs        r0,r0                                   
                                                          ; FWD[3,0]:   00000004,00000008,0000000c
ram:0002ced6    55c8            ldmia       r0,{r0,r2,r4,r6}=>DAT_00000004          
ram:0002ced8    0200            movs        r2,r0                                   
ram:0002ceda    0000            movs        r0,r0                                   
ram:0002cedc    0000            movs        r0,r0                                   
ram:0002cede    75c9            ldmia       r1!,{r0,r2,r4,r5,r6}                    
ram:0002cee0    0200            movs        r2,r0                                   
ram:0002cee2    0000            movs        r0,r0                                   
ram:0002cee4    0000            movs        r0,r0                                   
ram:0002cee6    6581            strh        r5,[r4,#0xa]                            
ram:0002cee8    0200            movs        r2,r0                                   
ram:0002ceea    0000            movs        r0,r0                                   
ram:0002ceec    0000            movs        r0,r0                                   
ram:0002ceee    0000            movs        r0,r0                                   
ram:0002cef0    0000            movs        r0,r0                                   
ram:0002cef2    0000            movs        r0,r0                                   
ram:0002cef4    0000            movs        r0,r0                                   
ram:0002cef6    35a8            add         r0,sp,#0xd4                             
                            LAB_0002cef8:                 ;XREF[1,0]:   0002ce86
ram:0002cef8    0200            movs        r2,r0                                   
ram:0002cefa    0050            str         r0,[r0,r0]                              
ram:0002cefc    0e00            movs        r6,r1                                   
ram:0002cefe    ff6f            ldr         r7,[r7,#0x7c]                           
ram:0002cf00    0f00            movs        r7,r1                                   
ram:0002cf02    b038            subs        r0,#0xb0                                
ram:0002cf04    0020            movs        r0,#0x0                                 
ram:0002cf06    0100            movs        r1,r0                                   
ram:0002cf08    0600            movs        r6,r0                                   
ram:0002cf0a    0000            movs        r0,r0                                   
ram:0002cf0c    0000            movs        r0,r0                                   
ram:0002cf0e    fc38            subs        r0,#0xfc                                
ram:0002cf10    0020            movs        r0,#0x0                                 
ram:0002cf12    5177            strb        r1,[r2,#DAT_0000001d]                   
ram:0002cf14    0200            movs        r2,r0                                   
ram:0002cf16    0000            movs        r0,r0                                   
ram:0002cf18    0000            movs        r0,r0                                   
ram:0002cf1a    0000            movs        r0,r0                                   
ram:0002cf1c    0000            movs        r0,r0                                   
ram:0002cf1e    0000            movs        r0,r0                                   
ram:0002cf20    0000            movs        r0,r0                                   
                            LAB_0002cf22:                 ;XREF[1,0]:   0002cf24
ram:0002cf22    0338            subs        r0,#0x3                                 
ram:0002cf24    fdd8            bhi         LAB_0002cf22                            
ram:0002cf26    7047            bx          lr                                      
ram:0002cf28    0000            movs        r0,r0                                   
ram:0002cf2a    6cce            ldmia       r6,{r2,r3,r5,r6}                        
ram:0002cf2c    0200            movs        r2,r0                                   
ram:0002cf2e    6cce            ldmia       r6,{r2,r3,r5,r6}                        
ram:0002cf30    0200            movs        r2,r0                                   
ram:0002cf32    0400            movs        r4,r0                                   
ram:0002cf34    0000            movs        r0,r0                                   
ram:0002cf36    0010            asrs        r0,r0                                   
ram:0002cf38    0000            movs        r0,r0                                   
ram:0002cf3a    0400            movs        r4,r0                                   
ram:0002cf3c    0000            movs        r0,r0                                   
ram:0002cf3e    0100            movs        r1,r0                                   
ram:0002cf40    0000            movs        r0,r0                                   
ram:0002cf42    a981            strh        r1,[r5,#0xc]                            
ram:0002cf44    0200            movs        r2,r0                                   
ram:0002cf46    8981            strh        r1,[r1,#0xc]                            
ram:0002cf48    0200            movs        r2,r0                                   
ram:0002cf4a    7981            strh        r1,[r7,#0xa]                            
ram:0002cf4c    0200            movs        r2,r0                                   
ram:0002cf4e    b983            strh        r1,[r7,#0x1c]                           
ram:0002cf50    0200            movs        r2,r0                                   
ram:0002cf52    6d83            strh        r5,[r5,#0x1a]                           
ram:0002cf54    0200            movs        r2,r0                                   
ram:0002cf56    4d81            strh        r5,[r1,#0xa]                            
ram:0002cf58    0200            movs        r2,r0                                   
ram:0002cf5a    5181            strh        r1,[r2,#0xa]                            
ram:0002cf5c    0200            movs        r2,r0                                   
ram:0002cf5e    5581            strh        r5,[r2,#0xa]                            
ram:0002cf60    0200            movs        r2,r0                                   
ram:0002cf62    0d0e            lsrs        r5,r1,#0x18                             
ram:0002cf64    1e10            asrs        r6,r3                                   
ram:0002cf66    3be92c17        ldmdb       r11,{r2,r3,r5,r8,r9,r10,r12}            
ram:0002cf6a    b016            asrs        r0,r6,#0x1a                             
ram:0002cf6c    be88            ldrh        r6,[r7,#0x4]                            
ram:0002cf6e    9249            ldr         r1,[DAT_0002d1b8]                       
ram:0002cf70    2fb9            cbnz        r7,LAB_0002cf7e                         
ram:0002cf72    43fd7faa        stc2l       p10,cr10,[r3,#-0x1fc]                   
ram:0002cf76    4d4f            ldr         r7,[DAT_0002d0ac]                       
ram:0002cf78    4430            adds        r0,#0x44                                
ram:0002cf7a    3441            asrs        r4,r6                                   
ram:0002cf7c    0000            movs        r0,r0                                   
                            LAB_0002cf7e:                 ;XREF[1,0]:   0002cf70
ram:0002cf7e    b040            lsls        r0,r6                                   
ram:0002cf80    0020            movs        r0,#0x0                                 
ram:0002cf82    0041            asrs        r0,r0                                   
ram:0002cf84    0020            movs        r0,#0x0                                 
ram:0002cf86    2041            asrs        r0,r4                                   
ram:0002cf88    0020            movs        r0,#0x0                                 
ram:0002cf8a    4041            adcs        r0,r0                                   
ram:0002cf8c    0020            movs        r0,#0x0                                 
ram:0002cf8e    4d41            adcs        r5,r1                                   
ram:0002cf90    4d46            mov         r5,r9                                   
ram:0002cf92    3132            adds        r2,#0x31                                
ram:0002cf94    3334            adds        r4,#0x33                                
ram:0002cf97    556e6e616...    ds          "Unnamed chair"                         
