                            MasterStackPointer:           
ram:0001b000    f85a0020        addr        DAT_20005af8                            
                            Reset:                        ;XREF[1,0]:   Entry Point
ram:0001b004    f5b00100        addr        FUNC_Reset_0001b0f4+1                   
                            NMI:                          ;XREF[1,0]:   Entry Point
ram:0001b008    0fb10100        addr        FUNC_NMI_0001b10e+1                     
                            HardFault:                    ;XREF[1,0]:   Entry Point
ram:0001b00c    11b10100        addr        FUNC_HardFault_0001b110+1               
                            MemManage:                    ;XREF[1,0]:   Entry Point
ram:0001b010    00000000        addr        00000000                                
                            BusFault:                     ;XREF[1,0]:   Entry Point
ram:0001b014    00000000        addr        00000000                                
                            UsageFault:                   ;XREF[1,0]:   Entry Point
ram:0001b018    00000000        addr        00000000                                
                            Reserved1:                    ;XREF[1,0]:   Entry Point
ram:0001b01c    00000000        addr        00000000                                
                            Reserved2:                    ;XREF[1,0]:   Entry Point
ram:0001b020    00000000        addr        00000000                                
                            Reserved3:                    ;XREF[1,0]:   Entry Point
ram:0001b024    00000000        addr        00000000                                
                            Reserved5:                    ;XREF[1,0]:   Entry Point
                            Reserved6:                    
                            Reserved4:                    
ram:0001b028    00000000        addr        00000000                                
                            SVCall:                       ;XREF[1,0]:   Entry Point
ram:0001b02c    13b10100        addr        FUNC_SVCall_0001b112+1                  
ram:0001b030    00000000        addr        00000000                                
ram:0001b034    00000000        addr        00000000                                
                            PendSV:                       ;XREF[1,0]:   Entry Point
ram:0001b038    15b10100        addr        FUNC_PendSV_0001b114+1                  
                            SysTick:                      ;XREF[1,0]:   Entry Point
ram:0001b03c    17b10100        addr        FUNC_SysTick_0001b116+1                 
                            IRQ:                          ;XREF[1,0]:   Entry Point
ram:0001b040    19b10100        addr        FUNC_IRQ_0001b118+1                     
ram:0001b044    19b10100        addr        FUNC_IRQ_0001b118+1                     
ram:0001b048    55b50100        addr        FUNC_VT_0001b554+1                      
ram:0001b04c    19b10100        addr        FUNC_IRQ_0001b118+1                     
ram:0001b050    19b10100        addr        FUNC_IRQ_0001b118+1                     
ram:0001b054    00000000        addr        00000000                                
ram:0001b058    d5b20100        addr        FUNC_VT_0001b2d4+1                      
ram:0001b05c    19b10100        addr        FUNC_IRQ_0001b118+1                     
ram:0001b060    19b10100        addr        FUNC_IRQ_0001b118+1                     
ram:0001b064    19b10100        addr        FUNC_IRQ_0001b118+1                     
ram:0001b068    19b10100        addr        FUNC_IRQ_0001b118+1                     
ram:0001b06c    19b10100        addr        FUNC_IRQ_0001b118+1                     
ram:0001b070    19b10100        addr        FUNC_IRQ_0001b118+1                     
ram:0001b074    19b10100        addr        FUNC_IRQ_0001b118+1                     
ram:0001b078    19b10100        addr        FUNC_IRQ_0001b118+1                     
ram:0001b07c    19b10100        addr        FUNC_IRQ_0001b118+1                     
ram:0001b080    19b10100        addr        FUNC_IRQ_0001b118+1                     
ram:0001b084    6db40100        addr        FUNC_VT_0001b46c+1                      
ram:0001b088    19b10100        addr        FUNC_IRQ_0001b118+1                     
ram:0001b08c    19b10100        addr        FUNC_IRQ_0001b118+1                     
ram:0001b090    8db40100        addr        FUNC_VT_0001b48c+1                      
ram:0001b094    19b10100        addr        FUNC_IRQ_0001b118+1                     
ram:0001b098    95b40100        addr        FUNC_VT_0001b494+1                      
ram:0001b09c    19b10100        addr        FUNC_IRQ_0001b118+1                     
ram:0001b0a0    19b10100        addr        FUNC_IRQ_0001b118+1                     
ram:0001b0a4    19b10100        addr        FUNC_IRQ_0001b118+1                     
ram:0001b0a8    00000000        addr        00000000                                
ram:0001b0ac    00000000        addr        00000000                                
ram:0001b0b0    00000000        addr        00000000                                
ram:0001b0b4    00000000        addr        00000000                                
ram:0001b0b8    00000000        addr        00000000                                
ram:0001b0bc    00              ??          00h                                     
ram:0001b0bd    00              ??          00h                                     
ram:0001b0be    00              ??          00h                                     
ram:0001b0bf    00              ??          00h                                     
                            ;************************************************************************************************
                            ;*                                           FUNCTION                                           *
                            ;************************************************************************************************
                            ;undefined LAB_0001b0c0+1(void)
                                                          ;XREF[1,1]:   0001b10c,0001b128
ram:0001b0c0    0348            ldr         r0,[DAT_0001b0d0]                       ;= 20005AF8h
ram:0001b0c2    8546            mov         sp,r0                                   
ram:0001b0c4    00f088f8        bl          FUN_0001b1d8                            ;undefined FUN_0001b1d8(void)
                            ;************************************************************************************************
                            ;*                                           FUNCTION                                           *
                            ;************************************************************************************************
                            ;undefined thunk_FUN_0001cad8(void)
                                                          ;XREF[1,0]:   0001b1f0
ram:0001b0c8    0048            ldr         r0,[DAT_0001b0cc]                       ;= 0001CAD9h
ram:0001b0ca    0047            bx          r0=>FUN_0001cad8                        ;undefined FUN_0001cad8(void)
                            DAT_0001b0cc:                 ;XREF[1,0]:   0001b0c8
ram:0001b0cc    d9ca0100        undefined4  0001CAD9h                               ;?  ->  0001cad9
                            DAT_0001b0d0:                 ;XREF[1,0]:   0001b0c0
ram:0001b0d0    f85a0020        undefined4  20005AF8h                               
                            ;************************************************************************************************
                            ;*                                           FUNCTION                                           *
                            ;************************************************************************************************
                            ;undefined FUN_0001b0d4(int param_1)
          ;param_1       int                 r0                      
                                                          ;XREF[5,0]:   0001b0ee,0001c25c,0001c294,0001d688
                                                          ;             0001d696
ram:0001b0d4    401e            subs        param_1,param_1,#0x1                    
ram:0001b0d6    00bf            nop                                                  
ram:0001b0d8    00bf            nop                                                  
ram:0001b0da    00bf            nop                                                  
ram:0001b0dc    00bf            nop                                                  
ram:0001b0de    00bf            nop                                                  
ram:0001b0e0    00bf            nop                                                  
ram:0001b0e2    00bf            nop                                                  
ram:0001b0e4    00bf            nop                                                  
ram:0001b0e6    00bf            nop                                                  
ram:0001b0e8    00bf            nop                                                  
ram:0001b0ea    00bf            nop                                                  
ram:0001b0ec    00bf            nop                                                  
ram:0001b0ee    f1d1            bne         FUN_0001b0d4                            
ram:0001b0f0    7047            bx          lr                                      
ram:0001b0f2    0000            movs        r0,r0                                   
                            ;************************************************************************************************
                            ;*                                           FUNCTION                                           *
                            ;************************************************************************************************
                            ;undefined FUNC_Reset_0001b0f4(void)
                                                          ;XREF[0,1]:   0001b004
ram:0001b0f4    0321            movs        r1,#0x3                                 
ram:0001b0f6    0948            ldr         r0,[DAT_0001b11c]                       ;= 40000524h
ram:0001b0f8    0268            ldr         r2,[r0,#0x0]=>DAT_40000524              
ram:0001b0fa    0a43            orrs        r2,r1                                   
ram:0001b0fc    0260            str         r2,[r0,#0x0]=>DAT_40000524              
ram:0001b0fe    0848            ldr         r0,[DAT_0001b120]                       ;= 40000554h
ram:0001b100    0268            ldr         r2,[r0,#0x0]=>DAT_40000554              
ram:0001b102    0a43            orrs        r2,r1                                   
ram:0001b104    0260            str         r2,[r0,#0x0]=>DAT_40000554              
ram:0001b106    0748            ldr         r0,[PTR_FUN_0001b4b4+1_0001b124]        ;= 0001b4b5
ram:0001b108    8047            blx         r0=>FUN_0001b4b4                        ;undefined FUN_0001b4b4(void)
ram:0001b10a    0748            ldr         r0,[PTR_LAB_0001b0c0+1+1_0001b128]      ;= 0001b0c1
ram:0001b10c    0047            bx          r0=>LAB_0001b0c0+1                      ;undefined LAB_0001b0c0+1(void)
                            ;************************************************************************************************
                            ;*                                           FUNCTION                                           *
                            ;************************************************************************************************
                            ;undefined FUNC_NMI_0001b10e(void)
                                                          ;XREF[1,1]:   0001b10e,0001b008
ram:0001b10e    fee7            b           FUNC_NMI_0001b10e                       
                            ;************************************************************************************************
                            ;*                                           FUNCTION                                           *
                            ;************************************************************************************************
                            ;undefined FUNC_HardFault_0001b110(void)
                                                          ;XREF[1,1]:   0001b110,0001b00c
ram:0001b110    fee7            b           FUNC_HardFault_0001b110                 
                            ;************************************************************************************************
                            ;*                                           FUNCTION                                           *
                            ;************************************************************************************************
                            ;undefined FUNC_SVCall_0001b112(void)
                                                          ;XREF[1,1]:   0001b112,0001b02c
ram:0001b112    fee7            b           FUNC_SVCall_0001b112                    
                            ;************************************************************************************************
                            ;*                                           FUNCTION                                           *
                            ;************************************************************************************************
                            ;undefined FUNC_PendSV_0001b114(void)
                                                          ;XREF[1,1]:   0001b114,0001b038
ram:0001b114    fee7            b           FUNC_PendSV_0001b114                    
                            ;************************************************************************************************
                            ;*                                           FUNCTION                                           *
                            ;************************************************************************************************
                            ;undefined FUNC_SysTick_0001b116(void)
                                                          ;XREF[1,1]:   0001b116,0001b03c
ram:0001b116    fee7            b           FUNC_SysTick_0001b116                   
                            ;************************************************************************************************
                            ;*                                           FUNCTION                                           *
                            ;************************************************************************************************
                            ;undefined FUNC_IRQ_0001b118(void)
                                                          ;XREF[1,20]:  0001b118,0001b040,0001b044,0001b04c
                                                          ;             0001b050,0001b05c,0001b060,0001b064
                                                          ;             0001b068,0001b06c,0001b070,0001b074
                                                          ;             0001b078,0001b07c,0001b080,0001b088
                                                          ;             0001b08c,0001b094,0001b09c,0001b0a0
                                                          ;             0001b0a4
ram:0001b118    fee7            b           FUNC_IRQ_0001b118                       
ram:0001b11a    0000            movs        r0,r0                                   
                            DAT_0001b11c:                 ;XREF[1,0]:   0001b0f6
ram:0001b11c    24050040        undefined4  40000524h                               
                            DAT_0001b120:                 ;XREF[1,0]:   0001b0fe
ram:0001b120    54050040        undefined4  40000554h                               
                            PTR_FUN_0001b4b4+1_0001b124:  ;XREF[1,0]:   0001b106
ram:0001b124    b5b40100        addr        FUN_0001b4b4+1                          
                            PTR_LAB_0001b0c0+1+1_0001b128:;XREF[1,0]:   0001b10a
ram:0001b128    c1b00100        addr        LAB_0001b0c0+1+1                        
                            ;************************************************************************************************
                            ;*                                           FUNCTION                                           *
                            ;************************************************************************************************
                            ;int FUN_0001b12c(uint param_1, uint param_2)
          ;param_1       uint                r0                      
          ;param_2       uint                r1                      
                                                          ;XREF[1,0]:   0001b686
ram:0001b12c    30b5            push        {r4,r5,lr}                              
ram:0001b12e    0b46            mov         r3,param_2                              
ram:0001b130    0146            mov         param_2,param_1                         
ram:0001b132    0020            movs        param_1,#0x0                            
ram:0001b134    2022            movs        r2,#0x20                                
ram:0001b136    0124            movs        r4,#0x1                                 
ram:0001b138    09e0            b           LAB_0001b14e                            
                            LAB_0001b13a:                 ;XREF[1,0]:   0001b154
ram:0001b13a    0d46            mov         r5,param_2                              
ram:0001b13c    d540            lsrs        r5,r2                                   
ram:0001b13e    9d42            cmp         r5,r3                                   
ram:0001b140    05d3            bcc         LAB_0001b14e                            
ram:0001b142    1d46            mov         r5,r3                                   
ram:0001b144    9540            lsls        r5,r2                                   
ram:0001b146    491b            subs        param_2,param_2,r5                      
ram:0001b148    2546            mov         r5,r4                                   
ram:0001b14a    9540            lsls        r5,r2                                   
ram:0001b14c    4019            adds        param_1,param_1,r5                      
                            LAB_0001b14e:                 ;XREF[2,0]:   0001b138,0001b140
ram:0001b14e    1546            mov         r5,r2                                   
ram:0001b150    521e            subs        r2,r2,#0x1                              
ram:0001b152    002d            cmp         r5,#0x0                                 
ram:0001b154    f1dc            bgt         LAB_0001b13a                            
ram:0001b156    30bd            pop         {r4,r5,pc}                              
                            ;************************************************************************************************
                            ;*                                           FUNCTION                                           *
                            ;************************************************************************************************
                            ;undefined FUN_0001b158(undefined4 * param_1, undefined4 * param_2, uint param_3)
          ;param_1       undefined4 *        r0                      
          ;param_2       undefined4 *        r1                      
          ;param_3       uint                r2                      
                                                          ;XREF[20,0]:  0001b75c,0001b76c,0001baac,0001bb9e
                                                          ;             0001be1c,0001bee8,0001bf42,0001bffe
                                                          ;             0001c472,0001d136,0001d358,0001d63a
                                                          ;             0001d646,0001d87a,0001db76,0001dbb6
                                                          ;             0001dcb6,0001dce6,0001dd6e,0001dfc6
ram:0001b158    10b5            push        {r4,lr}                                 
ram:0001b15a    431a            subs        r3,param_1,param_2                      
ram:0001b15c    9342            cmp         r3,param_3                              
ram:0001b15e    09d2            bcs         LAB_0001b174                            
ram:0001b160    8318            adds        r3,param_1,param_3                      
ram:0001b162    8818            adds        param_1,param_2,param_3                 
ram:0001b164    03e0            b           LAB_0001b16e                            
                            LAB_0001b166:                 ;XREF[1,0]:   0001b170
ram:0001b166    401e            subs        param_1,param_1,#0x1                    
ram:0001b168    0178            ldrb        param_2,[param_1,#0x0]                  
ram:0001b16a    5b1e            subs        r3,r3,#0x1                              
ram:0001b16c    1970            strb        param_2,[r3,#0x0]                       
                            LAB_0001b16e:                 ;XREF[1,0]:   0001b164
ram:0001b16e    521e            subs        param_3,param_3,#0x1                    
ram:0001b170    f9d2            bcs         LAB_0001b166                            
ram:0001b172    10bd            pop         {r4,pc}                                 
                            LAB_0001b174:                 ;XREF[1,0]:   0001b15e
ram:0001b174    0346            mov         r3,param_1                              
ram:0001b176    0b43            orrs        r3,param_2                              
ram:0001b178    9b07            lsls        r3,r3,#0x1e                             
ram:0001b17a    03d0            beq         LAB_0001b184                            
ram:0001b17c    09e0            b           LAB_0001b192                            
                            LAB_0001b17e:                 ;XREF[1,0]:   0001b186
ram:0001b17e    08c9            ldmia       param_2!,{r3}                           
ram:0001b180    121f            subs        param_3,param_3,#0x4                    
ram:0001b182    08c0            stmia       param_1!,{r3}                           
                            LAB_0001b184:                 ;XREF[1,0]:   0001b17a
ram:0001b184    042a            cmp         param_3,#0x4                            
ram:0001b186    fad2            bcs         LAB_0001b17e                            
ram:0001b188    03e0            b           LAB_0001b192                            
                            LAB_0001b18a:                 ;XREF[1,0]:   0001b194
ram:0001b18a    0b78            ldrb        r3,[param_2,#0x0]                       
ram:0001b18c    0370            strb        r3,[param_1,#0x0]                       
ram:0001b18e    401c            adds        param_1,param_1,#0x1                    
ram:0001b190    491c            adds        param_2,param_2,#0x1                    
                            LAB_0001b192:                 ;XREF[2,0]:   0001b17c,0001b188
ram:0001b192    521e            subs        param_3,param_3,#0x1                    
ram:0001b194    f9d2            bcs         LAB_0001b18a                            
ram:0001b196    10bd            pop         {r4,pc}                                 
                            ;************************************************************************************************
                            ;*                                           FUNCTION                                           *
                            ;************************************************************************************************
                            ;undefined FUN_0001b198(undefined * param_1, int param_2, undefined param_3)
          ;param_1       undefined *         r0                      
          ;param_2       int                 r1                      
          ;param_3       undefined           r2                      
                                                          ;XREF[2,0]:   0001b1a8,0001b1b4
ram:0001b198    d2b2            uxtb        param_3,param_3                         
ram:0001b19a    01e0            b           LAB_0001b1a0                            
                            LAB_0001b19c:                 ;XREF[1,0]:   0001b1a2
ram:0001b19c    0270            strb        param_3,[param_1,#0x0]                  
ram:0001b19e    401c            adds        param_1,param_1,#0x1                    
                            LAB_0001b1a0:                 ;XREF[1,0]:   0001b19a
ram:0001b1a0    491e            subs        param_2,param_2,#0x1                    
ram:0001b1a2    fbd2            bcs         LAB_0001b19c                            
ram:0001b1a4    7047            bx          lr                                      
                            ;************************************************************************************************
                            ;*                                           FUNCTION                                           *
                            ;************************************************************************************************
                            ;undefined FUN_0001b1a6(undefined * param_1, int param_2)
          ;param_1       undefined *         r0                      
          ;param_2       int                 r1                      
                                                          ;XREF[1,0]:   0001d8e4
ram:0001b1a6    0022            movs        r2,#0x0                                 
ram:0001b1a8    f6e7            b           FUN_0001b198                            ;undefined FUN_0001b198(undefined * p...
                            ;************************************************************************************************
                            ;*                                           FUNCTION                                           *
                            ;************************************************************************************************
                            ;undefined * FUN_0001b1aa(undefined * param_1, undefined param_2, int param_3)
          ;param_1       undefined *         r0                      
          ;param_2       undefined           r1                      
          ;param_3       int                 r2                      
ram:0001b1aa    10b5            push        {r4,lr}                                 
ram:0001b1ac    1346            mov         r3,param_3                              
ram:0001b1ae    0a46            mov         param_3,param_2                         
ram:0001b1b0    0446            mov         r4,param_1                              
ram:0001b1b2    1946            mov         param_2,r3                              
ram:0001b1b4    fff7f0ff        bl          FUN_0001b198                            ;undefined FUN_0001b198(undefined * p...
ram:0001b1b8    2046            mov         param_1,r4                              
ram:0001b1ba    10bd            pop         {r4,pc}                                 
                            ;************************************************************************************************
                            ;*                                           FUNCTION                                           *
                            ;************************************************************************************************
                            ;undefined FUN_0001b1bc(int param_1, int param_2, uint param_3)
          ;param_1       int                 r0                      
          ;param_2       int                 r1                      
          ;param_3       uint                r2                      
                                                          ;XREF[2,0]:   0001c692,0001d60e
ram:0001b1bc    30b5            push        {r4,r5,lr}                              
ram:0001b1be    0446            mov         r4,param_1                              
ram:0001b1c0    0020            movs        param_1,#0x0                            
ram:0001b1c2    0346            mov         r3,param_1                              
ram:0001b1c4    00e0            b           LAB_0001b1c8                            
                            LAB_0001b1c6:                 ;XREF[1,0]:   0001b1d2
ram:0001b1c6    5b1c            adds        r3,r3,#0x1                              
                            LAB_0001b1c8:                 ;XREF[1,0]:   0001b1c4
ram:0001b1c8    9342            cmp         r3,param_3                              
ram:0001b1ca    03d2            bcs         LAB_0001b1d4                            
ram:0001b1cc    e05c            ldrb        param_1,[r4,r3]                         
ram:0001b1ce    cd5c            ldrb        r5,[param_2,r3]                         
ram:0001b1d0    401b            subs        param_1,param_1,r5                      
ram:0001b1d2    f8d0            beq         LAB_0001b1c6                            
                            LAB_0001b1d4:                 ;XREF[1,0]:   0001b1ca
ram:0001b1d4    30bd            pop         {r4,r5,pc}                              
ram:0001b1d6    0000            movs        r0,r0                                   
                            ;************************************************************************************************
                            ;*                                           FUNCTION                                           *
                            ;************************************************************************************************
                            ;undefined FUN_0001b1d8(void)
                                                          ;XREF[1,0]:   0001b0c4
ram:0001b1d8    064c            ldr         r4,[LAB_0001b1f4]                       
ram:0001b1da    0125            movs        r5,#0x1                                 
ram:0001b1dc    064e            ldr         r6,[PTR_DAT_0001b1f8]                   ;= 0001e1a0
ram:0001b1de    05e0            b           LAB_0001b1ec                            
                            LAB_0001b1e0:                 ;XREF[1,0]:   0001b1ee
ram:0001b1e0    e368            ldr         r3,[r4,#0xc]=>->thunk_FUN_0001b59e      ;= 0001b596
                                                          ; FWD[5,0]:   0001e180,0001e184,0001e188,0001e1a0
                                                          ;             20003db0
ram:0001b1e2    07cc            ldmia       r4!,{r0,r1,r2}=>PTR_DAT_0001e180        ;= 0001e1a0
                                                                                    ;= 20003DB0h
                                                                                    ;= 000000ACh
ram:0001b1e4    2b43            orrs        r3,r5                                   
ram:0001b1e6    0c3c            subs        r4,#0xc                                 
ram:0001b1e8    9847            blx         r3=>thunk_FUN_0001b59e                  ;undefined thunk_FUN_0001b59e(undefin...
ram:0001b1ea    1034            adds        r4,#0x10                                
                            LAB_0001b1ec:                 ;XREF[1,0]:   0001b1de
ram:0001b1ec    b442            cmp         r4,r6                                   
ram:0001b1ee    f7d3            bcc         LAB_0001b1e0                            
ram:0001b1f0    fff76aff        bl          thunk_FUN_0001cad8                      ;undefined thunk_FUN_0001cad8(void)
                            LAB_0001b1f4:                 ;XREF[1,0]:   0001b1d8
ram:0001b1f4    80e1            b           LAB_0001b4f8                            
ram:0001b1f6    0100            movs        r1,r0                                   
                            PTR_DAT_0001b1f8:             ;XREF[1,0]:   0001b1dc
ram:0001b1f8    a0e10100        addr        DAT_0001e1a0                            
                            ;************************************************************************************************
                            ;*                                           FUNCTION                                           *
                            ;************************************************************************************************
                            ;undefined FUN_0001b1fc(int param_1)
          ;param_1       int                 r0                      
          ;local_18      undefined4         -18                      ;XREF[1,2]:   0001b208,0001b22c,0001b230
          ;local_1c      undefined4         -1c                      ;XREF[4,0]:   0001b202,0001b216,0001b21e,0001b234
                                                          ;XREF[2,0]:   0001b25a,0001c2f8
ram:0001b1fc    fcb5            push        {r2,r3,r4,r5,r6,r7,lr}                  
ram:0001b1fe    0021            movs        r1,#0x0                                 
ram:0001b200    8025            movs        r5,#0x80                                
ram:0001b202    0091            str         r1,[sp,#0x0]=>local_1c                  
ram:0001b204    0726            movs        r6,#0x7                                 
ram:0001b206    6b46            mov         r3,sp                                   
ram:0001b208    0191            str         r1,[sp,#local_18+0x1c]                  
                            LAB_0001b20a:                 ;XREF[1,0]:   0001b22a
ram:0001b20a    0022            movs        r2,#0x0                                 
                            LAB_0001b20c:                 ;XREF[1,0]:   0001b222
ram:0001b20c    845c            ldrb        r4,[param_1,r2]                         
ram:0001b20e    8c40            lsls        r4,r1                                   
ram:0001b210    2c40            ands        r4,r5                                   
ram:0001b212    b71a            subs        r7,r6,r2                                
ram:0001b214    fc40            lsrs        r4,r7                                   
ram:0001b216    5f5c            ldrb        r7,[r3,r1]=>local_1c                    
ram:0001b218    521c            adds        r2,r2,#0x1                              
ram:0001b21a    3c43            orrs        r4,r7                                   
ram:0001b21c    d2b2            uxtb        r2,r2                                   
ram:0001b21e    5c54            strb        r4,[r3,r1]=>local_1c                    
ram:0001b220    082a            cmp         r2,#0x8                                 
ram:0001b222    f3d3            bcc         LAB_0001b20c                            
ram:0001b224    491c            adds        r1,r1,#0x1                              
ram:0001b226    c9b2            uxtb        r1,r1                                   
ram:0001b228    0829            cmp         r1,#0x8                                 
ram:0001b22a    eed3            bcc         LAB_0001b20a                            
ram:0001b22c    d979            ldrb        r1,[r3,#local_18+0x1f]                  
ram:0001b22e    c943            mvns        r1,r1                                   
ram:0001b230    d971            strb        r1,[r3,#local_18+0x1f]                  
ram:0001b232    0021            movs        r1,#0x0                                 
                            LAB_0001b234:                 ;XREF[1,0]:   0001b23e
ram:0001b234    5a5c            ldrb        r2,[r3,r1]=>local_1c                    
ram:0001b236    4254            strb        r2,[param_1,r1]                         
ram:0001b238    491c            adds        r1,r1,#0x1                              
ram:0001b23a    c9b2            uxtb        r1,r1                                   
ram:0001b23c    0829            cmp         r1,#0x8                                 
ram:0001b23e    f9d3            bcc         LAB_0001b234                            
ram:0001b240    fcbd            pop         {r2,r3,r4,r5,r6,r7,pc}                  
ram:0001b242    0000            movs        r0,r0                                   
                            ;************************************************************************************************
                            ;*                                           FUNCTION                                           *
                            ;************************************************************************************************
                            ;undefined FUN_0001b244(int param_1, int param_2)
          ;param_1       int                 r0                      
          ;param_2       int                 r1                      
                                                          ;XREF[2,0]:   0001c2ec,0001c328
ram:0001b244    30b5            push        {r4,r5,lr}                              
ram:0001b246    104c            ldr         r4,[DAT_0001b288]                       ;= 20003DDCh
ram:0001b248    0d46            mov         r5,param_2                              
ram:0001b24a    0022            movs        r2,#0x0                                 
                            LAB_0001b24c:                 ;XREF[1,0]:   0001b256
ram:0001b24c    815c            ldrb        param_2,[param_1,r2]                    
                                                          ; FWD[2,0]:   20003ddc,20003ddd
ram:0001b24e    a154            strb        param_2,[r4,r2]=>DAT_20003ddc           
ram:0001b250    521c            adds        r2,r2,#0x1                              
ram:0001b252    d2b2            uxtb        r2,r2                                   
ram:0001b254    082a            cmp         r2,#0x8                                 
ram:0001b256    f9d3            bcc         LAB_0001b24c                            
ram:0001b258    0b48            ldr         param_1=>DAT_20003ddc,[DAT_0001b288]    ;= 20003DDCh
ram:0001b25a    fff7cfff        bl          FUN_0001b1fc                            ;undefined FUN_0001b1fc(int param_1)
ram:0001b25e    2178            ldrb        param_2,[r4,#0x0]=>DAT_20003ddc         
ram:0001b260    0120            movs        param_1,#0x1                            
                            LAB_0001b262:                 ;XREF[1,0]:   0001b26c
                                                          ; FWD[2,0]:   20003ddd,20003dde
ram:0001b262    225c            ldrb        r2,[r4,param_1]=>DAT_20003ddd           
ram:0001b264    401c            adds        param_1,param_1,#0x1                    
ram:0001b266    5140            eors        param_2,r2                              
ram:0001b268    c0b2            uxtb        param_1,param_1                         
ram:0001b26a    0728            cmp         param_1,#0x7                            
ram:0001b26c    f9d3            bcc         LAB_0001b262                            
ram:0001b26e    c843            mvns        param_1,param_2                         
ram:0001b270    e071            strb        param_1,[r4,#0x7]=>DAT_20003de3         
ram:0001b272    0020            movs        param_1,#0x0                            
                            LAB_0001b274:                 ;XREF[1,0]:   0001b282
                                                          ; FWD[2,0]:   20003ddc,20003ddd
ram:0001b274    215c            ldrb        param_2,[r4,param_1]=>DAT_20003ddc      
ram:0001b276    2a5c            ldrb        r2,[r5,param_1]                         
ram:0001b278    5140            eors        param_2,r2                              
                                                          ; FWD[2,0]:   20003ddc,20003ddd
ram:0001b27a    2154            strb        param_2,[r4,param_1]=>DAT_20003ddc      
ram:0001b27c    401c            adds        param_1,param_1,#0x1                    
ram:0001b27e    c0b2            uxtb        param_1,param_1                         
ram:0001b280    0828            cmp         param_1,#0x8                            
ram:0001b282    f7d3            bcc         LAB_0001b274                            
ram:0001b284    30bd            pop         {r4,r5,pc}                              
ram:0001b286    0000            movs        r0,r0                                   
                            DAT_0001b288:                 ;XREF[2,0]:   0001b246,0001b258
ram:0001b288    dc3d0020        undefined4  20003DDCh                               
                            ;************************************************************************************************
                            ;*                                           FUNCTION                                           *
                            ;************************************************************************************************
                            ;undefined FUN_0001b28c(int param_1)
          ;param_1       int                 r0                      
          ;local_18      undefined4         -18                      ;XREF[1,0]:   0001b292
          ;local_1c      undefined4         -1c                      ;XREF[2,0]:   0001b290,0001b2c6
                                                          ;XREF[1,0]:   0001c346
ram:0001b28c    fcb5            push        {r2,r3,r4,r5,r6,r7,lr}                  
ram:0001b28e    0021            movs        r1,#0x0                                 
ram:0001b290    0091            str         r1,[sp,#0x0]=>local_1c                  
ram:0001b292    0191            str         r1,[sp,#local_18+0x1c]                  
ram:0001b294    c179            ldrb        r1,[param_1,#0x7]                       
ram:0001b296    0022            movs        r2,#0x0                                 
ram:0001b298    c943            mvns        r1,r1                                   
ram:0001b29a    c171            strb        r1,[param_1,#0x7]                       
ram:0001b29c    8026            movs        r6,#0x80                                
ram:0001b29e    6b46            mov         r3,sp                                   
                            LAB_0001b2a0:                 ;XREF[1,0]:   0001b2c2
ram:0001b2a0    0021            movs        r1,#0x0                                 
ram:0001b2a2    0724            movs        r4,#0x7                                 
ram:0001b2a4    a51a            subs        r5,r4,r2                                
                            LAB_0001b2a6:                 ;XREF[1,0]:   0001b2ba
ram:0001b2a6    445c            ldrb        r4,[param_1,r1]                         
ram:0001b2a8    5f5d            ldrb        r7,[r3,r5]                              
ram:0001b2aa    9440            lsls        r4,r2                                   
ram:0001b2ac    3440            ands        r4,r6                                   
ram:0001b2ae    cc40            lsrs        r4,r1                                   
ram:0001b2b0    2743            orrs        r7,r4                                   
ram:0001b2b2    491c            adds        r1,r1,#0x1                              
ram:0001b2b4    c9b2            uxtb        r1,r1                                   
ram:0001b2b6    5f55            strb        r7,[r3,r5]                              
ram:0001b2b8    0829            cmp         r1,#0x8                                 
ram:0001b2ba    f4d3            bcc         LAB_0001b2a6                            
ram:0001b2bc    521c            adds        r2,r2,#0x1                              
ram:0001b2be    d2b2            uxtb        r2,r2                                   
ram:0001b2c0    082a            cmp         r2,#0x8                                 
ram:0001b2c2    edd3            bcc         LAB_0001b2a0                            
ram:0001b2c4    0021            movs        r1,#0x0                                 
                            LAB_0001b2c6:                 ;XREF[1,0]:   0001b2d0
ram:0001b2c6    5a5c            ldrb        r2,[r3,r1]=>local_1c                    
ram:0001b2c8    4254            strb        r2,[param_1,r1]                         
ram:0001b2ca    491c            adds        r1,r1,#0x1                              
ram:0001b2cc    c9b2            uxtb        r1,r1                                   
ram:0001b2ce    0829            cmp         r1,#0x8                                 
ram:0001b2d0    f9d3            bcc         LAB_0001b2c6                            
ram:0001b2d2    fcbd            pop         {r2,r3,r4,r5,r6,r7,pc}                  
                            ;************************************************************************************************
                            ;*                                           FUNCTION                                           *
                            ;************************************************************************************************
                            ;undefined FUNC_VT_0001b2d4(void)
          ;local_20      undefined4         -20                      ;XREF[2,0]:   0001b374,0001b400
          ;local_2c      undefined4         -2c                      ;XREF[4,0]:   0001b35a,0001b39e,0001b3a2,0001b3fa
          ;local_30      undefined4         -30                      ;XREF[3,0]:   0001b38a,0001b3d6,0001b3dc
          ;local_34      undefined4         -34                      ;XREF[5,0]:   0001b37e,0001b390,0001b396,0001b3c0,0001b3e0
          ;local_3c      undefined4         -3c                      ;XREF[5,0]:   0001b2e2,0001b326,0001b3ac,0001b3f2,0001b3f8
          ;local_40      undefined4         -40                      ;XREF[2,0]:   0001b376,0001b398
                                                          ;XREF[0,1]:   0001b058
ram:0001b2d4    f0b5            push        {r4,r5,r6,r7,lr}                        
ram:0001b2d6    0025            movs        r5,#0x0                                 
ram:0001b2d8    ff24            movs        r4,#0xff                                
ram:0001b2da    8bb0            sub         sp,#0x2c                                
ram:0001b2dc    0134            adds        r4,#0x1                                 
ram:0001b2de    0126            movs        r6,#0x1                                 
ram:0001b2e0    2f46            mov         r7,r5                                   
ram:0001b2e2    0195            str         r5,[sp,#local_3c+0x40]                  
                            LAB_0001b2e4:                 ;XREF[1,0]:   0001b30a
ram:0001b2e4    2046            mov         r0,r4                                   
ram:0001b2e6    01f001ff        bl          FUN_0001d0ec                            ;int FUN_0001d0ec(int param_1)
ram:0001b2ea    0028            cmp         r0,#0x0                                 
ram:0001b2ec    08d0            beq         LAB_0001b300                            
ram:0001b2ee    4748            ldr         r0,[DAT_0001b40c]                       ;= 40006300h
ram:0001b2f0    4068            ldr         r0,[r0,#offset DAT_40006304 &0xff]      
ram:0001b2f2    3042            tst         r0,r6                                   
ram:0001b2f4    04d0            beq         LAB_0001b300                            
ram:0001b2f6    4648            ldr         r0,[DAT_0001b410]                       ;= 40006000h
ram:0001b2f8    0021            movs        r1,#0x0                                 
ram:0001b2fa    2018            adds        r0,r4,r0                                
ram:0001b2fc    3543            orrs        r5,r6                                   
ram:0001b2fe    0160            str         r1,[r0,#0x0]=>DAT_40006100              
                            LAB_0001b300:                 ;XREF[2,0]:   0001b2ec,0001b2f4
ram:0001b300    241d            adds        r4,r4,#0x4                              
ram:0001b302    7600            lsls        r6,r6,#0x1                              
ram:0001b304    7f1c            adds        r7,r7,#0x1                              
ram:0001b306    a4b2            uxth        r4,r4                                   
ram:0001b308    042f            cmp         r7,#0x4                                 
ram:0001b30a    ebd3            bcc         LAB_0001b2e4                            
ram:0001b30c    ff20            movs        r0,#0xff                                
ram:0001b30e    7d30            adds        r0,#0x7d                                
ram:0001b310    01f0ecfe        bl          FUN_0001d0ec                            ;int FUN_0001d0ec(int param_1)
ram:0001b314    0028            cmp         r0,#0x0                                 
ram:0001b316    07d0            beq         LAB_0001b328                            
ram:0001b318    3e48            ldr         r0,[DAT_0001b414]                       ;= 4000617Ch
ram:0001b31a    0021            movs        r1,#0x0                                 
ram:0001b31c    0160            str         r1,[r0,#0x0]=>DAT_4000617c              
ram:0001b31e    4007            lsls        r0,r0,#0x1d                             
ram:0001b320    0543            orrs        r5,r0                                   
ram:0001b322    3d48            ldr         r0,[DAT_0001b418]                       ;= 50000500h
ram:0001b324    0069            ldr         r0,[r0,#offset DAT_50000510 &0xff]      
ram:0001b326    0190            str         r0,[sp,#local_3c+0x40]                  
                            LAB_0001b328:                 ;XREF[1,0]:   0001b316
ram:0001b328    3c4c            ldr         r4,[DAT_0001b41c]                       ;= 20005274h
ram:0001b32a    2807            lsls        r0,r5,#0x1c                             
ram:0001b32c    12d0            beq         LAB_0001b354                            
ram:0001b32e    0127            movs        r7,#0x1                                 
ram:0001b330    0026            movs        r6,#0x0                                 
                            LAB_0001b332:                 ;XREF[1,0]:   0001b352
ram:0001b332    2f42            tst         r7,r5                                   
ram:0001b334    0ad0            beq         LAB_0001b34c                            
ram:0001b336    3a48            ldr         r0,[DAT_0001b420]                       ;= 40006500h
ram:0001b338    b200            lsls        r2,r6,#0x2                              
ram:0001b33a    1118            adds        r1,r2,r0                                
ram:0001b33c    0869            ldr         r0,[r1,#offset DAT_40006510 &0xff]      
ram:0001b33e    0969            ldr         r1,[r1,#offset DAT_40006510 &0xff]      
ram:0001b340    c004            lsls        r0,r0,#0x13                             
ram:0001b342    c00e            lsrs        r0,r0,#0x1b                             
ram:0001b344    8903            lsls        r1,r1,#0xe                              
ram:0001b346    a258            ldr         r2,[r4,r2]=>DAT_20005274                
ram:0001b348    890f            lsrs        r1,r1,#0x1e                             
ram:0001b34a    9047            blx         r2                                      
                            LAB_0001b34c:                 ;XREF[1,0]:   0001b334
ram:0001b34c    7f00            lsls        r7,r7,#0x1                              
ram:0001b34e    761c            adds        r6,r6,#0x1                              
ram:0001b350    042e            cmp         r6,#0x4                                 
ram:0001b352    eed3            bcc         LAB_0001b332                            
                            LAB_0001b354:                 ;XREF[1,0]:   0001b32c
ram:0001b354    002d            cmp         r5,#0x0                                 
ram:0001b356    57da            bge         LAB_0001b408                            
ram:0001b358    0020            movs        r0,#0x0                                 
ram:0001b35a    0590            str         r0,[sp,#local_2c+0x40]                  
ram:0001b35c    401e            subs        r0,r0,#0x1                              
ram:0001b35e    4de0            b           LAB_0001b3fc                            
                            LAB_0001b360:                 ;XREF[2,0]:   0001b3e8,0001b402
ram:0001b360    a119            adds        r1,r4,r6                                
ram:0001b362    4031            adds        r1,#0x40                                
                                                          ; FWD[2,0]:   200052b4,200052b5
ram:0001b364    0878            ldrb        r0,[r1,#0x0]=>DAT_200052b4              
ram:0001b366    8506            lsls        r5,r0,#0x1a                             
ram:0001b368    ad0e            lsrs        r5,r5,#0x1a                             
ram:0001b36a    42b2            sxtb        r2,r0                                   
ram:0001b36c    521c            adds        r2,r2,#0x1                              
ram:0001b36e    39d0            beq         LAB_0001b3e4                            
ram:0001b370    0121            movs        r1,#0x1                                 
ram:0001b372    a940            lsls        r1,r5                                   
ram:0001b374    089a            ldr         r2,[sp,#local_20+0x40]                  
ram:0001b376    0091            str         r1,[sp,#0x0]=>local_40                  
ram:0001b378    1142            tst         r1,r2                                   
ram:0001b37a    33d0            beq         LAB_0001b3e4                            
ram:0001b37c    8009            lsrs        r0,r0,#0x6                              
ram:0001b37e    0390            str         r0,[sp,#local_34+0x40]                  
ram:0001b380    2846            mov         r0,r5                                   
ram:0001b382    00f0dbfe        bl          FUN_0001c13c                            ;int FUN_0001c13c(int param_1)
ram:0001b386    8000            lsls        r0,r0,#0x2                              
ram:0001b388    2058            ldr         r0,[r4,r0]=>DAT_20005274                
ram:0001b38a    0490            str         r0,[sp,#local_30+0x40]                  
ram:0001b38c    0028            cmp         r0,#0x0                                 
ram:0001b38e    02d1            bne         LAB_0001b396                            
ram:0001b390    0398            ldr         r0,[sp,#local_34+0x40]                  
ram:0001b392    0328            cmp         r0,#0x3                                 
ram:0001b394    26d1            bne         LAB_0001b3e4                            
                            LAB_0001b396:                 ;XREF[1,0]:   0001b38e
ram:0001b396    0398            ldr         r0,[sp,#local_34+0x40]                  
ram:0001b398    0099            ldr         r1,[sp,#0x0]=>local_40                  
ram:0001b39a    0328            cmp         r0,#0x3                                 
ram:0001b39c    02d1            bne         LAB_0001b3a4                            
ram:0001b39e    0598            ldr         r0,[sp,#local_2c+0x40]                  
ram:0001b3a0    0843            orrs        r0,r1                                   
ram:0001b3a2    0590            str         r0,[sp,#local_2c+0x40]                  
                            LAB_0001b3a4:                 ;XREF[1,0]:   0001b39c
ram:0001b3a4    1f4a            ldr         r2,[DAT_0001b424]                       ;= 50000700h
ram:0001b3a6    a800            lsls        r0,r5,#0x2                              
ram:0001b3a8    8018            adds        r0,r0,r2                                
ram:0001b3aa    0068            ldr         r0,[r0,#0x0]                            
ram:0001b3ac    019a            ldr         r2,[sp,#local_3c+0x40]                  
ram:0001b3ae    8003            lsls        r0,r0,#0xe                              
ram:0001b3b0    800f            lsrs        r0,r0,#0x1e                             
ram:0001b3b2    1142            tst         r1,r2                                   
ram:0001b3b4    02d0            beq         LAB_0001b3bc                            
ram:0001b3b6    0228            cmp         r0,#0x2                                 
ram:0001b3b8    02d0            beq         LAB_0001b3c0                            
ram:0001b3ba    13e0            b           LAB_0001b3e4                            
                            LAB_0001b3bc:                 ;XREF[1,0]:   0001b3b4
ram:0001b3bc    0328            cmp         r0,#0x3                                 
ram:0001b3be    11d1            bne         LAB_0001b3e4                            
                            LAB_0001b3c0:                 ;XREF[1,0]:   0001b3b8
ram:0001b3c0    0399            ldr         r1,[sp,#local_34+0x40]                  
ram:0001b3c2    0329            cmp         r1,#0x3                                 
ram:0001b3c4    07d1            bne         LAB_0001b3d6                            
ram:0001b3c6    0228            cmp         r0,#0x2                                 
ram:0001b3c8    1cd0            beq         LAB_0001b404                            
ram:0001b3ca    0221            movs        r1,#0x2                                 
                            LAB_0001b3cc:                 ;XREF[1,0]:   0001b406
ram:0001b3cc    2846            mov         r0,r5                                   
ram:0001b3ce    01f07dfe        bl          FUN_0001d0cc                            ;undefined FUN_0001d0cc(int param_1, ...
ram:0001b3d2    7f1c            adds        r7,r7,#0x1                              
ram:0001b3d4    ffb2            uxtb        r7,r7                                   
                            LAB_0001b3d6:                 ;XREF[1,0]:   0001b3c4
ram:0001b3d6    0498            ldr         r0,[sp,#local_30+0x40]                  
ram:0001b3d8    0028            cmp         r0,#0x0                                 
ram:0001b3da    03d0            beq         LAB_0001b3e4                            
ram:0001b3dc    049a            ldr         r2,[sp,#local_30+0x40]                  
ram:0001b3de    2846            mov         r0,r5                                   
ram:0001b3e0    0399            ldr         r1,[sp,#local_34+0x40]                  
ram:0001b3e2    9047            blx         r2                                      
                            LAB_0001b3e4:                 ;XREF[6,0]:   0001b36e,0001b37a,0001b394,0001b3ba
                                                          ;             0001b3be,0001b3da
ram:0001b3e4    761c            adds        r6,r6,#0x1                              
ram:0001b3e6    042e            cmp         r6,#0x4                                 
ram:0001b3e8    bad3            bcc         LAB_0001b360                            
ram:0001b3ea    002f            cmp         r7,#0x0                                 
ram:0001b3ec    0cd0            beq         LAB_0001b408                            
ram:0001b3ee    0a48            ldr         r0,[DAT_0001b418]                       ;= 50000500h
ram:0001b3f0    0069            ldr         r0,[r0,#offset DAT_50000510 &0xff]      
ram:0001b3f2    0199            ldr         r1,[sp,#local_3c+0x40]                  
ram:0001b3f4    8842            cmp         r0,r1                                   
ram:0001b3f6    07d0            beq         LAB_0001b408                            
ram:0001b3f8    0190            str         r0,[sp,#local_3c+0x40]                  
ram:0001b3fa    0598            ldr         r0,[sp,#local_2c+0x40]                  
                            LAB_0001b3fc:                 ;XREF[1,0]:   0001b35e
ram:0001b3fc    0027            movs        r7,#0x0                                 
ram:0001b3fe    3e46            mov         r6,r7                                   
ram:0001b400    0890            str         r0,[sp,#local_20+0x40]                  
ram:0001b402    ade7            b           LAB_0001b360                            
                            LAB_0001b404:                 ;XREF[1,0]:   0001b3c8
ram:0001b404    0321            movs        r1,#0x3                                 
ram:0001b406    e1e7            b           LAB_0001b3cc                            
                            LAB_0001b408:                 ;XREF[3,0]:   0001b356,0001b3ec,0001b3f6
ram:0001b408    0bb0            add         sp,#0x2c                                
ram:0001b40a    f0bd            pop         {r4,r5,r6,r7,pc}                        
                            DAT_0001b40c:                 ;XREF[1,0]:   0001b2ee
ram:0001b40c    00630040        undefined4  40006300h                               
                            DAT_0001b410:                 ;XREF[1,0]:   0001b2f6
ram:0001b410    00600040        undefined4  40006000h                               
                            DAT_0001b414:                 ;XREF[1,0]:   0001b318
ram:0001b414    7c610040        undefined4  4000617Ch                               
                            DAT_0001b418:                 ;XREF[2,0]:   0001b322,0001b3ee
ram:0001b418    00050050        undefined4  50000500h                               
                            DAT_0001b41c:                 ;XREF[1,0]:   0001b328
ram:0001b41c    74520020        undefined4  20005274h                               
                            DAT_0001b420:                 ;XREF[1,0]:   0001b336
ram:0001b420    00650040        undefined4  40006500h                               
                            DAT_0001b424:                 ;XREF[1,0]:   0001b3a4
ram:0001b424    00070050        undefined4  50000700h                               
                            ;************************************************************************************************
                            ;*                                           FUNCTION                                           *
                            ;************************************************************************************************
                            ;undefined FUN_0001b428(uint param_1, int param_2)
          ;param_1       uint                r0                      
          ;param_2       int                 r1                      
                                                          ;XREF[2,0]:   0001b936,0001b948
ram:0001b428    8307            lsls        r3,param_1,#0x1e                        
ram:0001b42a    ff22            movs        r2,#0xff                                
ram:0001b42c    db0e            lsrs        r3,r3,#0x1b                             
ram:0001b42e    9a40            lsls        r2,r3                                   
ram:0001b430    8907            lsls        param_2,param_2,#0x1e                   
ram:0001b432    090e            lsrs        param_2,param_2,#0x18                   
ram:0001b434    9940            lsls        param_2,r3                              
ram:0001b436    0028            cmp         param_1,#0x0                            
ram:0001b438    0bda            bge         LAB_0001b452                            
ram:0001b43a    0007            lsls        param_1,param_1,#0x1c                   
ram:0001b43c    000f            lsrs        param_1,param_1,#0x1c                   
ram:0001b43e    0838            subs        param_1,#0x8                            
ram:0001b440    8308            lsrs        r3,param_1,#0x2                         
ram:0001b442    0848            ldr         param_1,[DAT_0001b464]                  ;= E000ED00h
ram:0001b444    9b00            lsls        r3,r3,#0x2                              
ram:0001b446    1818            adds        param_1,r3,param_1                      
ram:0001b448    c369            ldr         r3,[param_1,#0x1c]                      
ram:0001b44a    9343            bics        r3,r2                                   
ram:0001b44c    0b43            orrs        r3,param_2                              
ram:0001b44e    c361            str         r3,[param_1,#0x1c]                      
ram:0001b450    7047            bx          lr                                      
                            LAB_0001b452:                 ;XREF[1,0]:   0001b438
ram:0001b452    8308            lsrs        r3,param_1,#0x2                         
ram:0001b454    0448            ldr         param_1,[DAT_0001b468]                  ;= E000E400h
ram:0001b456    9b00            lsls        r3,r3,#0x2                              
ram:0001b458    1b18            adds        r3,r3,param_1                           
ram:0001b45a    1868            ldr         param_1,[r3,#0x0]                       
ram:0001b45c    9043            bics        param_1,r2                              
ram:0001b45e    0843            orrs        param_1,param_2                         
ram:0001b460    1860            str         param_1,[r3,#0x0]                       
ram:0001b462    7047            bx          lr                                      
                            DAT_0001b464:                 ;XREF[1,0]:   0001b442
ram:0001b464    00ed00e0        undefined4  E000ED00h                               
                            DAT_0001b468:                 ;XREF[1,0]:   0001b454
ram:0001b468    00e400e0        undefined4  E000E400h                               
                            ;************************************************************************************************
                            ;*                                           FUNCTION                                           *
                            ;************************************************************************************************
                            ;undefined FUNC_VT_0001b46c(void)
                                                          ;XREF[0,1]:   0001b084
ram:0001b46c    10b5            push        {r4,lr}                                 
ram:0001b46e    0649            ldr         r1,[DAT_0001b488]                       ;= 40011140h
ram:0001b470    0020            movs        r0,#0x0                                 
ram:0001b472    0860            str         r0,[r1,#0x0]=>DAT_40011140              
ram:0001b474    4860            str         r0,[r1,#0x4]=>DAT_40011144              
ram:0001b476    8860            str         r0,[r1,#0x8]=>DAT_40011148              
ram:0001b478    c860            str         r0,[r1,#0xc]=>DAT_4001114c              
ram:0001b47a    0349            ldr         r1,[DAT_0001b488]                       ;= 40011140h
ram:0001b47c    4039            subs        r1=>DAT_40011100,#0x40                  
ram:0001b47e    0860            str         r0,[r1,#0x0]=>DAT_40011100              
ram:0001b480    4860            str         r0,[r1,#offset DAT_40011104 &0xff]      
ram:0001b482    02f0c5fa        bl          FUN_0001da10                            ;undefined FUN_0001da10(void)
ram:0001b486    10bd            pop         {r4,pc}                                 
                            DAT_0001b488:                 ;XREF[2,0]:   0001b46e,0001b47a
ram:0001b488    40110140        undefined4  40011140h                               
                            ;************************************************************************************************
                            ;*                                           FUNCTION                                           *
                            ;************************************************************************************************
                            ;undefined FUNC_VT_0001b48c(undefined4 param_1, uint param_2, undefined4 param_3)
          ;param_1       undefined4          r0                      
          ;param_2       uint                r1                      
          ;param_3       undefined4          r2                      
                                                          ;XREF[0,1]:   0001b090
ram:0001b48c    10b5            push        {r4,lr}                                 
ram:0001b48e    02f055fa        bl          FUN_0001d93c                            ;undefined FUN_0001d93c(undefined4 pa...
ram:0001b492    10bd            pop         {r4,pc}                                 
                            ;************************************************************************************************
                            ;*                                           FUNCTION                                           *
                            ;************************************************************************************************
                            ;undefined FUNC_VT_0001b494(void)
                                                          ;XREF[0,1]:   0001b098
ram:0001b494    10b5            push        {r4,lr}                                 
ram:0001b496    0648            ldr         r0,[DAT_0001b4b0]                       ;= 20003E3Ch
ram:0001b498    4068            ldr         r0,[r0,#0x4]=>DAT_20003e40              
ram:0001b49a    0028            cmp         r0,#0x0                                 
ram:0001b49c    05d0            beq         LAB_0001b4aa                            
ram:0001b49e    8047            blx         r0                                      
ram:0001b4a0    0028            cmp         r0,#0x0                                 
ram:0001b4a2    01d0            beq         LAB_0001b4a8                            
ram:0001b4a4    00f0d0f9        bl          FUN_0001b848                            ;undefined FUN_0001b848(void)
                            LAB_0001b4a8:                 ;XREF[1,0]:   0001b4a2
ram:0001b4a8    10bd            pop         {r4,pc}                                 
                            LAB_0001b4aa:                 ;XREF[1,0]:   0001b49c
ram:0001b4aa    01f085f8        bl          FUN_0001c5b8                            ;undefined FUN_0001c5b8(void)
ram:0001b4ae    10bd            pop         {r4,pc}                                 
                            DAT_0001b4b0:                 ;XREF[1,0]:   0001b496
ram:0001b4b0    3c3e0020        undefined4  20003E3Ch                               
                            ;************************************************************************************************
                            ;*                                           FUNCTION                                           *
                            ;************************************************************************************************
                            ;undefined FUN_0001b4b4(void)
                                                          ;XREF[1,1]:   0001b108,0001b124
ram:0001b4b4    10b5            push        {r4,lr}                                 
ram:0001b4b6    01f0f9f8        bl          FUN_0001c6ac                            ;undefined4 FUN_0001c6ac(void)
ram:0001b4ba    0028            cmp         r0,#0x0                                 
ram:0001b4bc    05d0            beq         LAB_0001b4ca                            
ram:0001b4be    1f49            ldr         r1,[DAT_0001b53c]                       ;= 40000500h
ram:0001b4c0    1d48            ldr         r0,[DAT_0001b538]                       ;= C007FFDFh
ram:0001b4c2    4860            str         r0,[r1,#offset DAT_40000504 &0xff]      
ram:0001b4c4    c813            asrs        r0,r1,#0xf                              
ram:0001b4c6    1e49            ldr         r1,[DAT_0001b540]                       ;= 40006C00h
ram:0001b4c8    8861            str         r0,[r1,#offset DAT_40006c18 &0xff]      
                            LAB_0001b4ca:                 ;XREF[1,0]:   0001b4bc
ram:0001b4ca    1e48            ldr         r0,[DAT_0001b544]                       ;= F0000FC0h
ram:0001b4cc    018c            ldrh        r1,[r0,#0x20]=>DAT_f0000fe0             
ram:0001b4ce    c9b2            uxtb        r1,r1                                   
ram:0001b4d0    0129            cmp         r1,#0x1                                 
ram:0001b4d2    0bd1            bne         LAB_0001b4ec                            
ram:0001b4d4    828c            ldrh        r2,[r0,#0x24]=>DAT_f0000fe4             
ram:0001b4d6    1207            lsls        r2,r2,#0x1c                             
ram:0001b4d8    08d1            bne         LAB_0001b4ec                            
ram:0001b4da    028d            ldrh        r2,[r0,#0x28]=>DAT_f0000fe8             
ram:0001b4dc    1206            lsls        r2,r2,#0x18                             
ram:0001b4de    120f            lsrs        r2,r2,#0x1c                             
ram:0001b4e0    042a            cmp         r2,#0x4                                 
ram:0001b4e2    03d1            bne         LAB_0001b4ec                            
ram:0001b4e4    828d            ldrh        r2,[r0,#0x2c]=>DAT_f0000fec             
ram:0001b4e6    1206            lsls        r2,r2,#0x18                             
ram:0001b4e8    120f            lsrs        r2,r2,#0x1c                             
ram:0001b4ea    0ad0            beq         LAB_0001b502                            
                            LAB_0001b4ec:                 ;XREF[3,0]:   0001b4d2,0001b4d8,0001b4e2
ram:0001b4ec    0129            cmp         r1,#0x1                                 
ram:0001b4ee    21d1            bne         LAB_0001b534                            
ram:0001b4f0    818c            ldrh        r1,[r0,#0x24]=>DAT_f0000fe4             
ram:0001b4f2    0907            lsls        r1,r1,#0x1c                             
ram:0001b4f4    1ed1            bne         LAB_0001b534                            
                            LAB_0001b4f6:                 ;XREF[1,0]:   0001b508
ram:0001b4f6    018d            ldrh        r1,[r0,#0x28]=>DAT_f0000fe8             
                            LAB_0001b4f8:                 ;XREF[1,0]:   0001b1f4
ram:0001b4f8    0906            lsls        r1,r1,#0x18                             
ram:0001b4fa    090f            lsrs        r1,r1,#0x1c                             
ram:0001b4fc    0a29            cmp         r1,#0xa                                 
ram:0001b4fe    04d0            beq         LAB_0001b50a                            
ram:0001b500    07e0            b           LAB_0001b512                            
                            LAB_0001b502:                 ;XREF[1,0]:   0001b4ea
ram:0001b502    114a            ldr         r2,[DAT_0001b548]                       ;= 40000600h
ram:0001b504    0121            movs        r1,#0x1                                 
ram:0001b506    9160            str         r1,[r2,#offset DAT_40000608 &0xff]      
ram:0001b508    f5e7            b           LAB_0001b4f6                            
                            LAB_0001b50a:                 ;XREF[1,0]:   0001b4fe
ram:0001b50a    828d            ldrh        r2,[r0,#0x2c]=>DAT_f0000fec             
ram:0001b50c    1206            lsls        r2,r2,#0x18                             
ram:0001b50e    120f            lsrs        r2,r2,#0x1c                             
ram:0001b510    05d0            beq         LAB_0001b51e                            
                            LAB_0001b512:                 ;XREF[1,0]:   0001b500
ram:0001b512    0d29            cmp         r1,#0xd                                 
ram:0001b514    0ed1            bne         LAB_0001b534                            
ram:0001b516    808d            ldrh        r0,[r0,#0x2c]=>DAT_f0000fec             
ram:0001b518    0006            lsls        r0,r0,#0x18                             
ram:0001b51a    000f            lsrs        r0,r0,#0x1c                             
ram:0001b51c    0ad1            bne         LAB_0001b534                            
                            LAB_0001b51e:                 ;XREF[1,0]:   0001b510
ram:0001b51e    0b48            ldr         r0=>DAT_4006ec00,[DAT_0001b54c]         ;= 4006EC00h
ram:0001b520    0168            ldr         r1,[r0,#0x0]=>DAT_4006ec00              
ram:0001b522    0129            cmp         r1,#0x1                                 
ram:0001b524    04d0            beq         LAB_0001b530                            
ram:0001b526    0a49            ldr         r1,[DAT_0001b550]                       ;= 00009375h
ram:0001b528    0160            str         r1,[r0,#0x0]=>DAT_4006ec00              
                            LAB_0001b52a:                 ;XREF[1,0]:   0001b52e
ram:0001b52a    0168            ldr         r1,[r0,#0x0]=>DAT_4006ec00              
ram:0001b52c    0129            cmp         r1,#0x1                                 
ram:0001b52e    fcd1            bne         LAB_0001b52a                            
                            LAB_0001b530:                 ;XREF[1,0]:   0001b524
ram:0001b530    c021            movs        r1,#0xc0                                
ram:0001b532    4161            str         r1,[r0,#offset DAT_4006ec14 &0xff]      
                            LAB_0001b534:                 ;XREF[4,0]:   0001b4ee,0001b4f4,0001b514,0001b51c
ram:0001b534    10bd            pop         {r4,pc}                                 
ram:0001b536    0000            movs        r0,r0                                   
                            DAT_0001b538:                 ;XREF[1,0]:   0001b4c0
ram:0001b538    dfff07c0        undefined4  C007FFDFh                               
                            DAT_0001b53c:                 ;XREF[1,0]:   0001b4be
ram:0001b53c    00050040        undefined4  40000500h                               
                            DAT_0001b540:                 ;XREF[1,0]:   0001b4c6
ram:0001b540    006c0040        undefined4  40006C00h                               
                            DAT_0001b544:                 ;XREF[1,0]:   0001b4ca
ram:0001b544    c00f00f0        undefined4  F0000FC0h                               
                            DAT_0001b548:                 ;XREF[1,0]:   0001b502
ram:0001b548    00060040        undefined4  40000600h                               
                            DAT_0001b54c:                 ;XREF[1,0]:   0001b51e
ram:0001b54c    00ec0640        undefined4  4006EC00h                               
                            DAT_0001b550:                 ;XREF[1,0]:   0001b526
ram:0001b550    75930000        undefined4  00009375h                               
                            ;************************************************************************************************
                            ;*                                           FUNCTION                                           *
                            ;************************************************************************************************
                            ;undefined FUNC_VT_0001b554(undefined4 param_1, undefined4 param_2, undefined * param_3, undefined4 param_4)
          ;param_1       undefined4          r0                      
          ;param_2       undefined4          r1                      
          ;param_3       undefined *         r2                      
          ;param_4       undefined4          r3                      
                                                          ;XREF[0,1]:   0001b048
ram:0001b554    10b5            push        {r4,lr}                                 
ram:0001b556    02f07bfc        bl          FUN_0001de50                            ;uint FUN_0001de50(undefined4 param_1...
ram:0001b55a    10bd            pop         {r4,pc}                                 
                            ;************************************************************************************************
                            ;*                                           FUNCTION                                           *
                            ;************************************************************************************************
                            ;undefined FUN_0001b55c(byte * param_1, uint param_2, undefined4 param_3, undefined4 param_4)
          ;param_1       byte *              r0                      
          ;param_2       uint                r1                      
          ;param_3       undefined4          r2                      
          ;param_4       undefined4          r3                      
          ;local_10      undefined4         -10                      ;XREF[1,0]:   0001b566
                                                          ;XREF[1,0]:   0001dff2
ram:0001b55c    0fb4            push        {param_1,param_2,param_3,param_4}       
ram:0001b55e    10b5            push        {r4,lr}                                 
ram:0001b560    03a9            add         param_2,sp,#0xc                         
ram:0001b562    044b            ldr         param_4,[DAT_0001b574]                  ;= 0001C55Bh
ram:0001b564    044a            ldr         param_3,[DAT_0001b578]                  ;= 20003E38h
ram:0001b566    0298            ldr         param_1,[sp,#local_10+0x18]             
ram:0001b568    00f024f8        bl          FUN_0001b5b4                            ;int FUN_0001b5b4(byte * param_1, uin...
ram:0001b56c    10bc            pop         {r4}                                    
ram:0001b56e    08bc            pop         {param_4}                               
ram:0001b570    04b0            add         sp,#0x10                                
ram:0001b572    1847            bx          param_4                                 
                            DAT_0001b574:                 ;XREF[1,0]:   0001b562
ram:0001b574    5bc50100        undefined4  0001C55Bh                               ;?  ->  0001c55b
                            DAT_0001b578:                 ;XREF[1,0]:   0001b564
ram:0001b578    383e0020        undefined4  20003E38h                               
                            ;************************************************************************************************
                            ;*                                           FUNCTION                                           *
                            ;************************************************************************************************
                            ;undefined __ARM_common_switch8(void)
                                                          ;XREF[1,0]:   0001dbdc
ram:0001b57c    30b4            push        {r4,r5}                                 
ram:0001b57e    7446            mov         r4,lr                                   
ram:0001b580    641e            subs        r4,r4,#0x1                              
ram:0001b582    2578            ldrb        r5,[r4,#0x0]                            
ram:0001b584    641c            adds        r4,r4,#0x1                              
ram:0001b586    ab42            cmp         r3,r5                                   
ram:0001b588    00d2            bcs         FUN_0001b58c                            
ram:0001b58a    1d46            mov         r5,r3                                   
                            ;************************************************************************************************
                            ;*                                           FUNCTION                                           *
                            ;************************************************************************************************
                            ;undefined FUN_0001b58c(void)
                                                          ;XREF[1,0]:   0001b588
ram:0001b58c    635d            ldrb        r3,[r4,r5]                              
ram:0001b58e    5b00            lsls        r3,r3,#0x1                              
ram:0001b590    e318            adds        r3,r4,r3                                
ram:0001b592    30bc            pop         {r4,r5}                                 
ram:0001b594    1847            bx          r3                                      
                            ;************************************************************************************************
                            ;*                                           FUNCTION                                           *
                            ;************************************************************************************************
                            ;undefined thunk_FUN_0001b59e(undefined4 * param_1, undefined4 * param_2, int param_3)
          ;param_1       undefined4 *        r0                      
          ;param_2       undefined4 *        r1                      
          ;param_3       int                 r2                      
                                                          ;XREF[2,0]:   0001b1e8,0001e18c
ram:0001b596    02e0            b           FUN_0001b59e                            
                            LAB_0001b598:                 ;XREF[1,0]:   0001b5a0
ram:0001b598    08c8            ldmia       param_1!,{r3}                           
ram:0001b59a    121f            subs        param_3,param_3,#0x4                    
ram:0001b59c    08c1            stmia       param_2!,{r3}                           
                            ;************************************************************************************************
                            ;*                                           FUNCTION                                           *
                            ;************************************************************************************************
                            ;undefined FUN_0001b59e(undefined4 * param_1, undefined4 * param_2, int param_3)
          ;param_1       undefined4 *        r0                      
          ;param_2       undefined4 *        r1                      
          ;param_3       int                 r2                      
                                                          ;XREF[1,0]:   0001b596
ram:0001b59e    002a            cmp         param_3,#0x0                            
ram:0001b5a0    fad1            bne         LAB_0001b598                            
ram:0001b5a2    7047            bx          lr                                      
ram:0001b5a4    7047            bx          lr                                      
ram:0001b5a6    0020            movs        r0,#0x0                                 
ram:0001b5a8    01e0            b           LAB_0001b5ae                            
                            LAB_0001b5aa:                 ;XREF[1,0]:   0001b5b0
ram:0001b5aa    01c1            stmia       r1!,{r0}                                
ram:0001b5ac    121f            subs        r2,r2,#0x4                              
                            LAB_0001b5ae:                 ;XREF[1,0]:   0001b5a8
ram:0001b5ae    002a            cmp         r2,#0x0                                 
ram:0001b5b0    fbd1            bne         LAB_0001b5aa                            
ram:0001b5b2    7047            bx          lr                                      
                            ;************************************************************************************************
                            ;*                                           FUNCTION                                           *
                            ;************************************************************************************************
                            ;int FUN_0001b5b4(byte * param_1, uint * param_2, undefined4 param_3, undefined * param_4)
          ;param_1       byte *              r0                      
          ;param_2       uint *              r1                      
          ;param_3       undefined4          r2                      
          ;param_4       undefined *         r3                      
          ;local_18      undefined4         -18                      ;XREF[5,0]:   0001b5c2,0001b63a,0001b6bc,0001b6d0,0001b6e8
          ;local_1c      undefined4         -1c                      ;XREF[5,0]:   0001b5c4,0001b63c,0001b6c0,0001b6d4,0001b6ec
          ;local_20      undefined4         -20                      ;XREF[6,0]:   0001b604,0001b60c,0001b646,0001b64c,0001b67a
                                                                     ;             0001b680
          ;local_2c      undefined4         -2c                      ;XREF[3,0]:   0001b670,0001b6c8,0001b6e6
          ;local_2d      undefined1         -2d                      ;XREF[1,0]:   0001b68e
          ;local_50      undefined1         -50                      ;XREF[2,0]:   0001b660,0001b6be
          ;local_54      undefined4         -54                      ;XREF[7,0]:   0001b648,0001b67c,0001b684,0001b69a,0001b6a8
                                                                     ;             0001b6f2,0001b6f6
          ;local_58      undefined4         -58                      ;XREF[9,0]:   0001b5de,0001b60a,0001b610,0001b61c,0001b6a0
                                                                     ;             0001b6a6,0001b6b6,0001b6da,0001b6de
                                                          ;XREF[1,0]:   0001b568
ram:0001b5b4    ffb5            push        {param_1,param_2,param_3,param_4,r4,r...
ram:0001b5b6    8db0            sub         sp,#0x34                                
ram:0001b5b8    0446            mov         r4,param_1                              
ram:0001b5ba    0025            movs        r5,#0x0                                 
ram:0001b5bc    06e0            b           LAB_0001b5cc                            
                            LAB_0001b5be:                 ;XREF[1,0]:   0001b5d0
ram:0001b5be    2528            cmp         param_1,#0x25                           
ram:0001b5c0    0ad0            beq         LAB_0001b5d8                            
ram:0001b5c2    109a            ldr         param_3,[sp,#local_18+0x58]             
ram:0001b5c4    0f99            ldr         param_2,[sp,#local_1c+0x58]             
ram:0001b5c6    9047            blx         param_3                                 
ram:0001b5c8    641c            adds        r4,r4,#0x1                              
ram:0001b5ca    6d1c            adds        r5,r5,#0x1                              
                            LAB_0001b5cc:                 ;XREF[2,0]:   0001b5bc,0001b6fe
ram:0001b5cc    2078            ldrb        param_1,[r4,#0x0]                       
ram:0001b5ce    0028            cmp         param_1,#0x0                            
ram:0001b5d0    f5d1            bne         LAB_0001b5be                            
                            LAB_0001b5d2:                 ;XREF[1,0]:   0001b62c
ram:0001b5d2    2846            mov         param_1,r5                              
ram:0001b5d4    11b0            add         sp,#0x44                                
ram:0001b5d6    f0bd            pop         {r4,r5,r6,r7,pc}                        
                            LAB_0001b5d8:                 ;XREF[1,0]:   0001b5c0
ram:0001b5d8    0027            movs        r7,#0x0                                 
ram:0001b5da    0121            movs        param_2,#0x1                            
ram:0001b5dc    484a            ldr         param_3,[DAT_0001b700]                  ;= 00012809h
ram:0001b5de    0097            str         r7,[sp,#0x0]=>local_58                  
ram:0001b5e0    00e0            b           LAB_0001b5e4                            
                            LAB_0001b5e2:                 ;XREF[1,0]:   0001b5f0
ram:0001b5e2    0743            orrs        r7,param_1                              
                            LAB_0001b5e4:                 ;XREF[1,0]:   0001b5e0
ram:0001b5e4    641c            adds        r4,r4,#0x1                              
ram:0001b5e6    2378            ldrb        param_4,[r4,#0x0]                       
ram:0001b5e8    0846            mov         param_1,param_2                         
ram:0001b5ea    203b            subs        param_4,#0x20                           
ram:0001b5ec    9840            lsls        param_1,param_4                         
ram:0001b5ee    1042            tst         param_1,param_3                         
ram:0001b5f0    f7d1            bne         LAB_0001b5e2                            
ram:0001b5f2    2078            ldrb        param_1,[r4,#0x0]                       
ram:0001b5f4    2e28            cmp         param_1,#0x2e                           
ram:0001b5f6    17d1            bne         LAB_0001b628                            
ram:0001b5f8    0420            movs        param_1,#0x4                            
ram:0001b5fa    0743            orrs        r7,param_1                              
ram:0001b5fc    6078            ldrb        param_1,[r4,#0x1]                       
ram:0001b5fe    641c            adds        r4,r4,#0x1                              
ram:0001b600    2a28            cmp         param_1,#0x2a                           
ram:0001b602    0cd1            bne         LAB_0001b61e                            
ram:0001b604    0e98            ldr         param_1,[sp,#local_20+0x58]             
ram:0001b606    641c            adds        r4,r4,#0x1                              
ram:0001b608    02c8            ldmia       param_1!,{param_2}                      
ram:0001b60a    0091            str         param_2,[sp,#0x0]=>local_58             
ram:0001b60c    0e90            str         param_1,[sp,#local_20+0x58]             
ram:0001b60e    0be0            b           LAB_0001b628                            
                            LAB_0001b610:                 ;XREF[1,0]:   0001b626
ram:0001b610    0099            ldr         param_2,[sp,#0x0]=>local_58             
ram:0001b612    0a22            movs        param_3,#0xa                            
ram:0001b614    5143            muls        param_2,param_3                         
ram:0001b616    3039            subs        param_2,#0x30                           
ram:0001b618    4018            adds        param_1,param_1,param_2                 
ram:0001b61a    641c            adds        r4,r4,#0x1                              
ram:0001b61c    0090            str         param_1,[sp,#0x0]=>local_58             
                            LAB_0001b61e:                 ;XREF[1,0]:   0001b602
ram:0001b61e    2078            ldrb        param_1,[r4,#0x0]                       
ram:0001b620    0146            mov         param_2,param_1                         
ram:0001b622    3039            subs        param_2,#0x30                           
ram:0001b624    0929            cmp         param_2,#0x9                            
ram:0001b626    f3d9            bls         LAB_0001b610                            
                            LAB_0001b628:                 ;XREF[2,0]:   0001b5f6,0001b60e
ram:0001b628    2078            ldrb        param_1,[r4,#0x0]                       
ram:0001b62a    0028            cmp         param_1,#0x0                            
ram:0001b62c    d1d0            beq         LAB_0001b5d2                            
ram:0001b62e    6428            cmp         param_1,#0x64                           
ram:0001b630    08d0            beq         LAB_0001b644                            
ram:0001b632    6928            cmp         param_1,#0x69                           
ram:0001b634    06d0            beq         LAB_0001b644                            
ram:0001b636    7528            cmp         param_1,#0x75                           
ram:0001b638    1ed0            beq         LAB_0001b678                            
ram:0001b63a    109a            ldr         param_3,[sp,#local_18+0x58]             
ram:0001b63c    0f99            ldr         param_2,[sp,#local_1c+0x58]             
ram:0001b63e    9047            blx         param_3                                 
ram:0001b640    6d1c            adds        r5,r5,#0x1                              
ram:0001b642    5be0            b           LAB_0001b6fc                            
                            LAB_0001b644:                 ;XREF[2,0]:   0001b630,0001b634
ram:0001b644    0a20            movs        param_1,#0xa                            
ram:0001b646    0e99            ldr         param_2,[sp,#local_20+0x58]             
ram:0001b648    0190            str         param_1,[sp,#local_54+0x58]             
ram:0001b64a    01c9            ldmia       param_2!,{param_1}                      
ram:0001b64c    0e91            str         param_2,[sp,#local_20+0x58]             
ram:0001b64e    0028            cmp         param_1,#0x0                            
ram:0001b650    02da            bge         LAB_0001b658                            
ram:0001b652    4042            rsbs        param_1,param_1                         
ram:0001b654    2d21            movs        param_2,#0x2d                           
ram:0001b656    02e0            b           LAB_0001b65e                            
                            LAB_0001b658:                 ;XREF[1,0]:   0001b650
ram:0001b658    3905            lsls        param_2,r7,#0x14                        
ram:0001b65a    04d5            bpl         LAB_0001b666                            
ram:0001b65c    2b21            movs        param_2,#0x2b                           
                            LAB_0001b65e:                 ;XREF[2,0]:   0001b656,0001b66c
ram:0001b65e    6a46            mov         param_3,sp                              
ram:0001b660    1172            strb        param_2,[r2,#local_50+0x58]             
ram:0001b662    0121            movs        param_2,#0x1                            
ram:0001b664    03e0            b           LAB_0001b66e                            
                            LAB_0001b666:                 ;XREF[1,0]:   0001b65a
ram:0001b666    f907            lsls        param_2,r7,#0x1f                        
ram:0001b668    04d0            beq         LAB_0001b674                            
ram:0001b66a    2021            movs        param_2,#0x20                           
ram:0001b66c    f7e7            b           LAB_0001b65e                            
                            LAB_0001b66e:                 ;XREF[2,0]:   0001b664,0001b676
ram:0001b66e    0bae            add         r6,sp,#0x2c                             
ram:0001b670    0b91            str         param_2,[sp,#local_2c+0x58]             
ram:0001b672    0de0            b           LAB_0001b690                            
                            LAB_0001b674:                 ;XREF[2,0]:   0001b668,0001b682
ram:0001b674    0021            movs        param_2,#0x0                            
ram:0001b676    fae7            b           LAB_0001b66e                            
                            LAB_0001b678:                 ;XREF[1,0]:   0001b638
ram:0001b678    0a20            movs        param_1,#0xa                            
ram:0001b67a    0e99            ldr         param_2,[sp,#local_20+0x58]             
ram:0001b67c    0190            str         param_1,[sp,#local_54+0x58]             
ram:0001b67e    01c9            ldmia       param_2!,{param_1}                      
ram:0001b680    0e91            str         param_2,[sp,#local_20+0x58]             
ram:0001b682    f7e7            b           LAB_0001b674                            
                            LAB_0001b684:                 ;XREF[1,0]:   0001b692
ram:0001b684    0199            ldr         param_2,[sp,#local_54+0x58]             
ram:0001b686    fff751fd        bl          FUN_0001b12c                            ;int FUN_0001b12c(uint param_1, uint ...
ram:0001b68a    3031            adds        param_2,#0x30                           
ram:0001b68c    761e            subs        r6,r6,#0x1                              
ram:0001b68e    3170            strb        param_2,[r6,#0x0]=>local_2d             
                            LAB_0001b690:                 ;XREF[1,0]:   0001b672
ram:0001b690    0028            cmp         param_1,#0x0                            
ram:0001b692    f7d1            bne         LAB_0001b684                            
ram:0001b694    03a8            add         param_1,sp,#0xc                         
ram:0001b696    801b            subs        param_1,param_1,r6                      
ram:0001b698    2030            adds        param_1,#0x20                           
ram:0001b69a    0190            str         param_1,[sp,#local_54+0x58]             
ram:0001b69c    7807            lsls        param_1,r7,#0x1d                        
ram:0001b69e    01d5            bpl         LAB_0001b6a4                            
ram:0001b6a0    0098            ldr         param_1,[sp,#0x0]=>local_58             
ram:0001b6a2    01e0            b           LAB_0001b6a8                            
                            LAB_0001b6a4:                 ;XREF[1,0]:   0001b69e
ram:0001b6a4    0120            movs        param_1,#0x1                            
ram:0001b6a6    0090            str         param_1,[sp,#0x0]=>local_58             
                            LAB_0001b6a8:                 ;XREF[1,0]:   0001b6a2
ram:0001b6a8    0199            ldr         param_2,[sp,#local_54+0x58]             
ram:0001b6aa    8842            cmp         param_1,param_2                         
ram:0001b6ac    01dd            ble         LAB_0001b6b2                            
ram:0001b6ae    401a            subs        param_1,param_1,param_2                 
ram:0001b6b0    00e0            b           LAB_0001b6b4                            
                            LAB_0001b6b2:                 ;XREF[1,0]:   0001b6ac
ram:0001b6b2    0020            movs        param_1,#0x0                            
                            LAB_0001b6b4:                 ;XREF[1,0]:   0001b6b0
ram:0001b6b4    0027            movs        r7,#0x0                                 
ram:0001b6b6    0090            str         param_1,[sp,#0x0]=>local_58             
ram:0001b6b8    06e0            b           LAB_0001b6c8                            
                            LAB_0001b6ba:                 ;XREF[1,0]:   0001b6cc
ram:0001b6ba    02a8            add         param_1,sp,#0x8                         
ram:0001b6bc    109a            ldr         param_3,[sp,#local_18+0x58]             
ram:0001b6be    c05d            ldrb        param_1=>local_50,[param_1,r7]          
ram:0001b6c0    0f99            ldr         param_2,[sp,#local_1c+0x58]             
ram:0001b6c2    9047            blx         param_3                                 
ram:0001b6c4    6d1c            adds        r5,r5,#0x1                              
ram:0001b6c6    7f1c            adds        r7,r7,#0x1                              
                            LAB_0001b6c8:                 ;XREF[1,0]:   0001b6b8
ram:0001b6c8    0b98            ldr         param_1,[sp,#local_2c+0x58]             
ram:0001b6ca    8742            cmp         r7,param_1                              
ram:0001b6cc    f5db            blt         LAB_0001b6ba                            
ram:0001b6ce    04e0            b           LAB_0001b6da                            
                            LAB_0001b6d0:                 ;XREF[1,0]:   0001b6e2
ram:0001b6d0    109a            ldr         param_3,[sp,#local_18+0x58]             
ram:0001b6d2    3020            movs        param_1,#0x30                           
ram:0001b6d4    0f99            ldr         param_2,[sp,#local_1c+0x58]             
ram:0001b6d6    9047            blx         param_3                                 
ram:0001b6d8    6d1c            adds        r5,r5,#0x1                              
                            LAB_0001b6da:                 ;XREF[1,0]:   0001b6ce
ram:0001b6da    0099            ldr         param_2,[sp,#0x0]=>local_58             
ram:0001b6dc    481e            subs        param_1,param_2,#0x1                    
ram:0001b6de    0090            str         param_1,[sp,#0x0]=>local_58             
ram:0001b6e0    0029            cmp         param_2,#0x0                            
ram:0001b6e2    f5dc            bgt         LAB_0001b6d0                            
ram:0001b6e4    05e0            b           LAB_0001b6f2                            
                            LAB_0001b6e6:                 ;XREF[1,0]:   0001b6fa
ram:0001b6e6    3078            ldrb        param_1,[r6,#0x0]=>local_2c             
ram:0001b6e8    109a            ldr         param_3,[sp,#local_18+0x58]             
ram:0001b6ea    761c            adds        r6,r6,#0x1                              
ram:0001b6ec    0f99            ldr         param_2,[sp,#local_1c+0x58]             
ram:0001b6ee    9047            blx         param_3                                 
ram:0001b6f0    6d1c            adds        r5,r5,#0x1                              
                            LAB_0001b6f2:                 ;XREF[1,0]:   0001b6e4
ram:0001b6f2    0199            ldr         param_2,[sp,#local_54+0x58]             
ram:0001b6f4    481e            subs        param_1,param_2,#0x1                    
ram:0001b6f6    0190            str         param_1,[sp,#local_54+0x58]             
ram:0001b6f8    0029            cmp         param_2,#0x0                            
ram:0001b6fa    f4dc            bgt         LAB_0001b6e6                            
                            LAB_0001b6fc:                 ;XREF[1,0]:   0001b642
ram:0001b6fc    641c            adds        r4,r4,#0x1                              
ram:0001b6fe    65e7            b           LAB_0001b5cc                            
                            DAT_0001b700:                 ;XREF[1,0]:   0001b5dc
ram:0001b700    09280100        undefined4  00012809h                               
                            ;************************************************************************************************
                            ;*                                           FUNCTION                                           *
                            ;************************************************************************************************
                            ;undefined4 FUN_0001b704(undefined4 param_1, int param_2, undefined4 * param_3, uint param_4, undefined param_5)
          ;param_1       undefined4          r0                      
          ;param_2       int                 r1                      
          ;param_3       undefined4 *        r2                      
          ;param_4       uint                r3                      
          ;param_5       undefined            0                      ;XREF[1,0]:   0001b70e
          ;local_1c      undefined4         -1c                      ;XREF[1,0]:   0001b76a
          ;local_30      undefined1         -30                      ;XREF[1,0]:   0001b718
                                                          ;XREF[2,0]:   0001dc8c,0001dcc8
ram:0001b704    ffb5            push        {param_1,param_2,param_3,param_4,r4,r...
ram:0001b706    83b0            sub         sp,#0xc                                 
ram:0001b708    0646            mov         r6,param_1                              
ram:0001b70a    1d46            mov         r5,param_4                              
ram:0001b70c    0020            movs        param_1,#0x0                            
ram:0001b70e    0c9f            ldr         r7,[sp,#param_5+0x30]                   
ram:0001b710    6a46            mov         param_3,sp                              
ram:0001b712    0523            movs        param_4,#0x5                            
                            LAB_0001b714:                 ;XREF[1,0]:   0001b71e
ram:0001b714    1c1a            subs        r4,param_4,param_1                      
ram:0001b716    0c5d            ldrb        r4,[param_2,r4]                         
ram:0001b718    1454            strb        r4,[param_3,param_1]=>local_30          
ram:0001b71a    401c            adds        param_1,param_1,#0x1                    
ram:0001b71c    0628            cmp         param_1,#0x6                            
ram:0001b71e    f9db            blt         LAB_0001b714                            
ram:0001b720    1046            mov         param_1,param_3                         
ram:0001b722    00f0a7ff        bl          FUN_0001c674                            ;int FUN_0001c674(int param_1)
ram:0001b726    1a4a            ldr         param_3,[DAT_0001b790]                  ;= 20004F10h
ram:0001b728    411c            adds        param_2,param_1,#0x1                    
ram:0001b72a    0ad1            bne         LAB_0001b742                            
                            LAB_0001b72c:                 ;XREF[1,0]:   0001b73c
ram:0001b72c    1423            movs        param_4,#0x14                           
ram:0001b72e    4b43            muls        param_4,param_2                         
ram:0001b730    9b18            adds        param_4,param_4,param_3                 
ram:0001b732    5b78            ldrb        param_4,[param_4,#0x1]=>DAT_20004f11    
ram:0001b734    002b            cmp         param_4,#0x0                            
ram:0001b736    1ed0            beq         LAB_0001b776                            
ram:0001b738    491c            adds        param_2,param_2,#0x1                    
ram:0001b73a    0629            cmp         param_2,#0x6                            
ram:0001b73c    f6db            blt         LAB_0001b72c                            
                            LAB_0001b73e:                 ;XREF[1,0]:   0001b778
ram:0001b73e    411c            adds        param_2,param_1,#0x1                    
ram:0001b740    23d0            beq         LAB_0001b78a                            
                            LAB_0001b742:                 ;XREF[1,0]:   0001b72a
ram:0001b742    032d            cmp         r5,#0x3                                 
ram:0001b744    19d0            beq         LAB_0001b77a                            
ram:0001b746    0023            movs        param_4,#0x0                            
ram:0001b748    1421            movs        param_2,#0x14                           
ram:0001b74a    4143            muls        param_2,param_1                         
ram:0001b74c    5354            strb        param_4,[param_3,param_2]=>DAT_20004f10 
                            LAB_0001b74e:                 ;XREF[2,0]:   0001b784,0001b788
ram:0001b74e    1421            movs        param_2,#0x14                           
ram:0001b750    4843            muls        param_1,param_2                         
ram:0001b752    8418            adds        r4,param_1,param_3                      
ram:0001b754    6570            strb        r5,[r4,#0x1]=>DAT_20004f11              
ram:0001b756    a01c            adds        param_1,r4,#0x2                         
ram:0001b758    0622            movs        param_3,#0x6                            
ram:0001b75a    6946            mov         param_2,sp                              
ram:0001b75c    fff7fcfc        bl          FUN_0001b158                            ;undefined FUN_0001b158(undefined4 * ...
ram:0001b760    2672            strb        r6,[r4,#0x8]=>DAT_20004f18              
ram:0001b762    e774            strb        r7,[r4,#0x13]=>DAT_20004f23             
ram:0001b764    2046            mov         param_1,r4                              
ram:0001b766    0930            adds        param_1,#0x9                            
ram:0001b768    0822            movs        param_3,#0x8                            
ram:0001b76a    0599            ldr         param_2,[sp,#local_1c+0x30]             
ram:0001b76c    fff7f4fc        bl          FUN_0001b158                            ;undefined FUN_0001b158(undefined4 * ...
ram:0001b770    0020            movs        param_1,#0x0                            
                            LAB_0001b772:                 ;XREF[1,0]:   0001b78c
ram:0001b772    07b0            add         sp,#0x1c                                
ram:0001b774    f0bd            pop         {r4,r5,r6,r7,pc}                        
                            LAB_0001b776:                 ;XREF[1,0]:   0001b736
ram:0001b776    0846            mov         param_1,param_2                         
ram:0001b778    e1e7            b           LAB_0001b73e                            
                            LAB_0001b77a:                 ;XREF[1,0]:   0001b744
ram:0001b77a    1421            movs        param_2,#0x14                           
ram:0001b77c    4143            muls        param_2,param_1                         
ram:0001b77e    8918            adds        param_2,param_2,param_3                 
ram:0001b780    4978            ldrb        param_2,[param_2,#0x1]=>DAT_20004f11    
ram:0001b782    0029            cmp         param_2,#0x0                            
ram:0001b784    e3d0            beq         LAB_0001b74e                            
ram:0001b786    0d46            mov         r5,param_2                              
ram:0001b788    e1e7            b           LAB_0001b74e                            
                            LAB_0001b78a:                 ;XREF[1,0]:   0001b740
ram:0001b78a    0120            movs        param_1,#0x1                            
ram:0001b78c    f1e7            b           LAB_0001b772                            
ram:0001b78e    0000            movs        r0,r0                                   
                            DAT_0001b790:                 ;XREF[1,0]:   0001b726
ram:0001b790    104f0020        undefined4  20004F10h                               
                            ;************************************************************************************************
                            ;*                                           FUNCTION                                           *
                            ;************************************************************************************************
                            ;undefined4 FUN_0001b794(void)
                                                          ;XREF[2,0]:   0001c0c0,0001c8f0
ram:0001b794    70b5            push        {r4,r5,r6,lr}                           
ram:0001b796    0024            movs        r4,#0x0                                 
ram:0001b798    064d            ldr         r5,[DAT_0001b7b4]                       ;= 20003E04h
ram:0001b79a    06e0            b           LAB_0001b7aa                            
                            LAB_0001b79c:                 ;XREF[1,0]:   0001b7ae
ram:0001b79c    6968            ldr         r1,[r5,#0x4]=>DAT_20003e08              
ram:0001b79e    e000            lsls        r0,r4,#0x3                              
ram:0001b7a0    085c            ldrb        r0,[r1,r0]                              
ram:0001b7a2    0121            movs        r1,#0x1                                 
ram:0001b7a4    01f044fa        bl          FUN_0001cc30                            ;undefined FUN_0001cc30(uint param_1,...
ram:0001b7a8    641c            adds        r4,r4,#0x1                              
                            LAB_0001b7aa:                 ;XREF[1,0]:   0001b79a
ram:0001b7aa    2878            ldrb        r0,[r5,#0x0]=>DAT_20003e04              
ram:0001b7ac    8442            cmp         r4,r0                                   
ram:0001b7ae    f5d3            bcc         LAB_0001b79c                            
ram:0001b7b0    0020            movs        r0,#0x0                                 
ram:0001b7b2    70bd            pop         {r4,r5,r6,pc}                           
                            DAT_0001b7b4:                 ;XREF[1,0]:   0001b798
ram:0001b7b4    043e0020        undefined4  20003E04h                               
                            ;************************************************************************************************
                            ;*                                           FUNCTION                                           *
                            ;************************************************************************************************
                            ;int FUN_0001b7b8(int param_1, uint param_2, uint param_3, uint param_4)
          ;param_1       int                 r0                      
          ;param_2       uint                r1                      
          ;param_3       uint                r2                      
          ;param_4       uint                r3                      
          ;local_18      undefined4         -18                      ;XREF[1,1]:   0001b7f0,0001b7f6
                                                          ;XREF[2,0]:   0001c0b8,0001cb24
ram:0001b7b8    f8b5            push        {param_4,r4,r5,r6,r7,lr}                
ram:0001b7ba    1546            mov         r5,param_3                              
ram:0001b7bc    0c46            mov         r4,param_2                              
ram:0001b7be    0646            mov         r6,param_1                              
ram:0001b7c0    052a            cmp         param_3,#0x5                            
ram:0001b7c2    01d2            bcs         LAB_0001b7c8                            
ram:0001b7c4    0720            movs        param_1,#0x7                            
                            LAB_0001b7c6:                 ;XREF[2,0]:   0001b7d6,0001b804
ram:0001b7c6    f8bd            pop         {param_4,r4,r5,r6,r7,pc}                
                            LAB_0001b7c8:                 ;XREF[1,0]:   0001b7c2
ram:0001b7c8    01f008fb        bl          FUN_0001cddc                            ;char FUN_0001cddc(void)
ram:0001b7cc    0028            cmp         param_1,#0x0                            
ram:0001b7ce    03d1            bne         LAB_0001b7d8                            
ram:0001b7d0    01f0dafa        bl          FUN_0001cd88                            ;undefined4 FUN_0001cd88(void)
ram:0001b7d4    0028            cmp         param_1,#0x0                            
ram:0001b7d6    f6d1            bne         LAB_0001b7c6                            
                            LAB_0001b7d8:                 ;XREF[1,0]:   0001b7ce
ram:0001b7d8    1049            ldr         param_2,[DAT_0001b81c]                  ;= 20003E04h
ram:0001b7da    0020            movs        param_1,#0x0                            
ram:0001b7dc    4e60            str         r6,[param_2,#0x4]=>DAT_20003e08         
ram:0001b7de    0c70            strb        r4,[param_2,#0x0]=>DAT_20003e04         
ram:0001b7e0    c860            str         param_1,[param_2,#0xc]=>DAT_20003e10    
ram:0001b7e2    8d60            str         r5,[param_2,#0x8]=>DAT_20003e0c         
ram:0001b7e4    0861            str         param_1,[param_2,#0x10]=>DAT_20003e14   
ram:0001b7e6    0e4d            ldr         r5,[PTR_DAT_0001b820]                   ;= 0001e178
ram:0001b7e8    0de0            b           LAB_0001b806                            
                            LAB_0001b7ea:                 ;XREF[1,0]:   0001b80e
ram:0001b7ea    e000            lsls        param_1,r4,#0x3                         
ram:0001b7ec    6968            ldr         param_2,[r5,#0x4]=>DAT_0001e17c         ;= 00000003h
ram:0001b7ee    8019            adds        param_1,param_1,r6                      
ram:0001b7f0    0091            str         param_2,[sp,#0x0]=>local_18             
ram:0001b7f2    8178            ldrb        param_2,[param_1,#0x2]                  
ram:0001b7f4    6a46            mov         param_3,sp                              
ram:0001b7f6    5170            strb        param_2,[r2,#local_18+0x19]             
ram:0001b7f8    0078            ldrb        param_1,[param_1,#0x0]                  
ram:0001b7fa    0a4a            ldr         param_3,[DAT_0001b824]                  ;= 0001C569h
ram:0001b7fc    6946            mov         param_2,sp                              
ram:0001b7fe    01f067fa        bl          FUN_0001ccd0                            ;undefined8 FUN_0001ccd0(int param_1,...
ram:0001b802    0028            cmp         param_1,#0x0                            
ram:0001b804    dfd1            bne         LAB_0001b7c6                            
                            LAB_0001b806:                 ;XREF[1,0]:   0001b7e8
ram:0001b806    2046            mov         param_1,r4                              
ram:0001b808    641e            subs        r4,r4,#0x1                              
ram:0001b80a    e4b2            uxtb        r4,r4                                   
ram:0001b80c    0028            cmp         param_1,#0x0                            
ram:0001b80e    ecd1            bne         LAB_0001b7ea                            
ram:0001b810    054a            ldr         param_3=>LAB_000...,[PTR_LAB_0001c3dc...;= 0001c3dd
ram:0001b812    0021            movs        param_2,#0x0                            
ram:0001b814    0248            ldr         param_1=>DAT_0001e178,[PTR_DAT_0001b820];= 200052D8h
                                                                                    ;= 0001e178
ram:0001b816    00f04df8        bl          FUN_0001b8b4                            ;undefined4 FUN_0001b8b4(int * param_...
ram:0001b81a    f8bd            pop         {param_4,r4,r5,r6,r7,pc}                
                            DAT_0001b81c:                 ;XREF[1,0]:   0001b7d8
ram:0001b81c    043e0020        undefined4  20003E04h                               
                            PTR_DAT_0001b820:             ;XREF[2,0]:   0001b7e6,0001b814
ram:0001b820    78e10100        addr        DAT_0001e178                            ;= 200052D8h
                            DAT_0001b824:                 ;XREF[1,0]:   0001b7fa
ram:0001b824    69c50100        undefined4  0001C569h                               ;?  ->  0001c569
                            PTR_LAB_0001c3dc+1+1_0001b828:;XREF[1,0]:   0001b810
ram:0001b828    ddc30100        addr        LAB_0001c3dc+1+1                        
                            ;************************************************************************************************
                            ;*                                           FUNCTION                                           *
                            ;************************************************************************************************
                            ;undefined FUN_0001b82c(void)
                                                          ;XREF[2,0]:   0001b856,0001d902
ram:0001b82c    bff34f8f        dsb         0xf                                     
ram:0001b830    0449            ldr         r1,[DAT_0001b844]                       ;= E000ED00h
ram:0001b832    0348            ldr         r0,[DAT_0001b840]                       ;= 05FA0004h
ram:0001b834    c860            str         r0,[r1,#offset DAT_e000ed0c &0xff]      
ram:0001b836    bff34f8f        dsb         0xf                                     
                            LAB_0001b83a:                 ;XREF[1,0]:   0001b83c
ram:0001b83a    00bf            nop                                                  
ram:0001b83c    fde7            b           LAB_0001b83a                            
ram:0001b83e    0000            movs        r0,r0                                   
                            DAT_0001b840:                 ;XREF[1,0]:   0001b832
ram:0001b840    0400fa05        undefined4  05FA0004h                               
                            DAT_0001b844:                 ;XREF[1,0]:   0001b830
ram:0001b844    00ed00e0        undefined4  E000ED00h                               
                            ;************************************************************************************************
                            ;*                                           FUNCTION                                           *
                            ;************************************************************************************************
                            ;undefined FUN_0001b848(void)
          ;local_8       undefined4          -8                      ;XREF[1,0]:   0001b84c
          ;local_c       undefined4          -c                      ;XREF[1,0]:   0001b852
          ;local_10      undefined4         -10                      ;XREF[1,0]:   0001b84e
                                                          ;XREF[34,0]:  0001b4a4,0001bc0e,0001c02a,0001c03c
                                                          ;             0001c050,0001c05e,0001c06c,0001c5ec
                                                          ;             0001c612,0001c8ea,0001c8f8,0001c906
                                                          ;             0001c91e,0001c98e,0001ca96,0001cb06
                                                          ;             0001cb1a,0001cb2c,0001cb3e,0001cb5e
                                                          ;             0001cb7e,0001cb92,0001cba0,0001d262
                                                          ;             0001d278,0001d296,0001d2d8,0001da50
                                                          ;             0001dc06,0001dc12,0001dc24,0001dd3a
                                                          ;             0001df8e,0001dffe
ram:0001b848    0eb5            push        {r1,r2,r3,lr}                           
ram:0001b84a    0021            movs        r1,#0x0                                 
ram:0001b84c    0290            str         r0,[sp,#local_8+0x10]                   
ram:0001b84e    0091            str         r1,[sp,#0x0]=>local_10                  
ram:0001b850    6a46            mov         r2,sp                                   
ram:0001b852    0191            str         r1,[sp,#local_c+0x10]                   
ram:0001b854    0148            ldr         r0,[DAT_0001b85c]                       ;= 00004001h
ram:0001b856    fff7e9ff        bl          FUN_0001b82c                            ;undefined FUN_0001b82c(void)
ram:0001b85a    0ebd            pop         {r1,r2,r3,pc}                           
                            DAT_0001b85c:                 ;XREF[1,0]:   0001b854
ram:0001b85c    01400000        undefined4  00004001h                               
                            ;************************************************************************************************
                            ;*                                           FUNCTION                                           *
                            ;************************************************************************************************
                            ;undefined4 FUN_0001b860(int * param_1, undefined * param_2)
          ;param_1       int *               r0                      
          ;param_2       undefined *         r1                      
                                                          ;XREF[3,0]:   0001ba66,0001bb2e,0001ddb6
ram:0001b860    10b5            push        {r4,lr}                                 
ram:0001b862    8268            ldr         r2,[param_1,#0x8]                       
ram:0001b864    c368            ldr         r3,[param_1,#0xc]                       
ram:0001b866    9342            cmp         r3,r2                                   
ram:0001b868    03d0            beq         LAB_0001b872                            
ram:0001b86a    00f063fe        bl          FUN_0001c534                            ;undefined FUN_0001c534(int * param_1...
ram:0001b86e    0020            movs        param_1,#0x0                            
ram:0001b870    10bd            pop         {r4,pc}                                 
                            LAB_0001b872:                 ;XREF[1,0]:   0001b868
ram:0001b872    0520            movs        param_1,#0x5                            
ram:0001b874    10bd            pop         {r4,pc}                                 
                            ;************************************************************************************************
                            ;*                                           FUNCTION                                           *
                            ;************************************************************************************************
                            ;undefined4 FUN_0001b876(int * param_1, int param_2, uint param_3)
          ;param_1       int *               r0                      
          ;param_2       int                 r1                      
          ;param_3       uint                r2                      
                                                          ;XREF[2,0]:   0001ba8c,0001ba9e
ram:0001b876    0029            cmp         param_2,#0x0                            
ram:0001b878    06d0            beq         LAB_0001b888                            
ram:0001b87a    002a            cmp         param_3,#0x0                            
ram:0001b87c    02d0            beq         LAB_0001b884                            
ram:0001b87e    531e            subs        r3,param_3,#0x1                         
ram:0001b880    1342            tst         r3,param_3                              
ram:0001b882    03d0            beq         LAB_0001b88c                            
                            LAB_0001b884:                 ;XREF[1,0]:   0001b87c
ram:0001b884    0920            movs        param_1,#0x9                            
ram:0001b886    7047            bx          lr                                      
                            LAB_0001b888:                 ;XREF[1,0]:   0001b878
ram:0001b888    0e20            movs        param_1,#0xe                            
ram:0001b88a    7047            bx          lr                                      
                            LAB_0001b88c:                 ;XREF[1,0]:   0001b882
ram:0001b88c    0160            str         param_2,[param_1,#0x0]                  
ram:0001b88e    8380            strh        r3,[param_1,#0x4]                       
ram:0001b890    0021            movs        param_2,#0x0                            
ram:0001b892    8160            str         param_2,[param_1,#0x8]                  
ram:0001b894    c160            str         param_2,[param_1,#0xc]                  
ram:0001b896    0846            mov         param_1,param_2                         
ram:0001b898    7047            bx          lr                                      
                            ;************************************************************************************************
                            ;*                                           FUNCTION                                           *
                            ;************************************************************************************************
                            ;undefined4 FUN_0001b89a(int * param_1, undefined param_2)
          ;param_1       int *               r0                      
          ;param_2       undefined           r1                      
                                                          ;XREF[2,0]:   0001bb1a,0001ddc8
ram:0001b89a    10b5            push        {r4,lr}                                 
ram:0001b89c    8268            ldr         r2,[param_1,#0x8]                       
ram:0001b89e    c368            ldr         r3,[param_1,#0xc]                       
ram:0001b8a0    9a1a            subs        r2,r3,r2                                
ram:0001b8a2    8388            ldrh        r3,[param_1,#0x4]                       
ram:0001b8a4    9a42            cmp         r2,r3                                   
ram:0001b8a6    03d8            bhi         LAB_0001b8b0                            
ram:0001b8a8    00f04efe        bl          FUN_0001c548                            ;undefined FUN_0001c548(int * param_1...
ram:0001b8ac    0020            movs        param_1,#0x0                            
ram:0001b8ae    10bd            pop         {r4,pc}                                 
                            LAB_0001b8b0:                 ;XREF[1,0]:   0001b8a6
ram:0001b8b0    0420            movs        param_1,#0x4                            
ram:0001b8b2    10bd            pop         {r4,pc}                                 
                            ;************************************************************************************************
                            ;*                                           FUNCTION                                           *
                            ;************************************************************************************************
                            ;undefined4 FUN_0001b8b4(int * param_1, undefined param_2, int param_3)
          ;param_1       int *               r0                      
          ;param_2       undefined           r1                      
          ;param_3       int                 r2                      
                                                          ;XREF[4,0]:   0001b816,0001cb56,0001cb76,0001cb8a
ram:0001b8b4    094b            ldr         r3,[DAT_0001b8dc]                       ;= 20003E18h
ram:0001b8b6    9b68            ldr         r3,[r3,#0x8]=>DAT_20003e20              
ram:0001b8b8    002b            cmp         r3,#0x0                                 
ram:0001b8ba    07d0            beq         LAB_0001b8cc                            
ram:0001b8bc    002a            cmp         param_3,#0x0                            
ram:0001b8be    07d0            beq         LAB_0001b8d0                            
ram:0001b8c0    0028            cmp         param_1,#0x0                            
ram:0001b8c2    05d0            beq         LAB_0001b8d0                            
ram:0001b8c4    0068            ldr         param_1,[param_1,#0x0]                  
ram:0001b8c6    037c            ldrb        r3,[param_1,#0x10]                      
ram:0001b8c8    002b            cmp         r3,#0x0                                 
ram:0001b8ca    03d0            beq         LAB_0001b8d4                            
                            LAB_0001b8cc:                 ;XREF[1,0]:   0001b8ba
ram:0001b8cc    0820            movs        param_1,#0x8                            
ram:0001b8ce    7047            bx          lr                                      
                            LAB_0001b8d0:                 ;XREF[2,0]:   0001b8be,0001b8c2
ram:0001b8d0    0720            movs        param_1,#0x7                            
ram:0001b8d2    7047            bx          lr                                      
                            LAB_0001b8d4:                 ;XREF[1,0]:   0001b8ca
ram:0001b8d4    4174            strb        param_2,[param_1,#0x11]                 
ram:0001b8d6    4261            str         param_3,[param_1,#0x14]                 
ram:0001b8d8    0020            movs        param_1,#0x0                            
ram:0001b8da    7047            bx          lr                                      
                            DAT_0001b8dc:                 ;XREF[1,0]:   0001b8b4
ram:0001b8dc    183e0020        undefined4  20003E18h                               
                            ;************************************************************************************************
                            ;*                                           FUNCTION                                           *
                            ;************************************************************************************************
                            ;undefined4 FUN_0001b8e0(undefined4 param_1, int param_2, uint param_3, undefined4 param_4)
          ;param_1       undefined4          r0                      
          ;param_2       int                 r1                      
          ;param_3       uint                r2                      
          ;param_4       undefined4          r3                      
          ;local_18      undefined4         -18                      ;XREF[1,0]:   0001b8fa
          ;local_24      undefined4         -24                      ;XREF[1,0]:   0001b940
                                                          ;XREF[1,0]:   0001cb12
ram:0001b8e0    ffb5            push        {param_1,param_2,param_3,param_4,r4,r...
ram:0001b8e2    9007            lsls        param_1,param_3,#0x1e                   
ram:0001b8e4    0025            movs        r5,#0x0                                 
ram:0001b8e6    81b0            sub         sp,#0x4                                 
ram:0001b8e8    1446            mov         r4,param_3                              
ram:0001b8ea    0e46            mov         r6,param_2                              
ram:0001b8ec    0028            cmp         param_1,#0x0                            
ram:0001b8ee    32d1            bne         LAB_0001b956                            
ram:0001b8f0    1b4f            ldr         r7,[DAT_0001b960]                       ;= 20003E18h
ram:0001b8f2    002c            cmp         r4,#0x0                                 
ram:0001b8f4    31d0            beq         LAB_0001b95a                            
ram:0001b8f6    01f0b9fe        bl          FUN_0001d66c                            ;undefined FUN_0001d66c(void)
ram:0001b8fa    0498            ldr         param_1,[sp,#local_18+0x28]             
ram:0001b8fc    7861            str         param_1,[r7,#0x14]=>DAT_20003e2c        
ram:0001b8fe    0320            movs        param_1,#0x3                            
ram:0001b900    3870            strb        param_1,[r7,#0x0]=>DAT_20003e18         
ram:0001b902    3346            mov         param_4,r6                              
ram:0001b904    1821            movs        param_2,#0x18                           
ram:0001b906    2246            mov         param_3,r4                              
ram:0001b908    0020            movs        param_1,#0x0                            
ram:0001b90a    4b43            muls        param_4,param_2                         
ram:0001b90c    bc60            str         r4,[r7,#0x8]=>DAT_20003e20              
ram:0001b90e    1834            adds        r4,#0x18                                
                            LAB_0001b910:                 ;XREF[1,0]:   0001b922
ram:0001b910    c100            lsls        param_2,param_1,#0x3                    
ram:0001b912    8918            adds        param_2,param_2,param_3                 
ram:0001b914    0d70            strb        r5,[param_2,#0x0]                       
ram:0001b916    4d70            strb        r5,[param_2,#0x1]                       
ram:0001b918    8e70            strb        r6,[param_2,#0x2]                       
ram:0001b91a    4c60            str         r4,[param_2,#0x4]                       
ram:0001b91c    1c19            adds        r4,param_4,r4                           
ram:0001b91e    401c            adds        param_1,param_1,#0x1                    
ram:0001b920    0328            cmp         param_1,#0x3                            
ram:0001b922    f5db            blt         LAB_0001b910                            
ram:0001b924    fd60            str         r5,[r7,#0xc]=>DAT_20003e24              
ram:0001b926    7d70            strb        r5,[r7,#0x1]=>DAT_20003e19              
ram:0001b928    0124            movs        r4,#0x1                                 
ram:0001b92a    0e48            ldr         param_1,[DAT_0001b964]                  ;= E000E280h
ram:0001b92c    bd70            strb        r5,[r7,#0x2]=>DAT_20003e1a              
ram:0001b92e    2405            lsls        r4,r4,#0x14                             
ram:0001b930    0460            str         r4,[param_1,#0x0]=>DAT_e000e280         
ram:0001b932    0321            movs        param_2,#0x3                            
ram:0001b934    1420            movs        param_1,#0x14                           
ram:0001b936    fff777fd        bl          FUN_0001b428                            ;undefined FUN_0001b428(uint param_1,...
ram:0001b93a    0b48            ldr         param_1,[DAT_0001b968]                  ;= E000E100h
ram:0001b93c    0460            str         r4,[param_1,#0x0]=>DAT_e000e100         
ram:0001b93e    0b4c            ldr         r4,[DAT_0001b96c]                       ;= 40011500h
ram:0001b940    0198            ldr         param_1,[sp,#local_24+0x28]             
ram:0001b942    a060            str         param_1,[r4,#offset DAT_40011508 &0xff] 
ram:0001b944    0321            movs        param_2,#0x3                            
ram:0001b946    1120            movs        param_1,#0x11                           
ram:0001b948    fff76efd        bl          FUN_0001b428                            ;undefined FUN_0001b428(uint param_1,...
ram:0001b94c    6068            ldr         param_1,[r4,#offset DAT_40011504 &0xff] 
ram:0001b94e    3861            str         param_1,[r7,#0x10]=>DAT_20003e28        
ram:0001b950    0020            movs        param_1,#0x0                            
                            LAB_0001b952:                 ;XREF[1,0]:   0001b958
ram:0001b952    05b0            add         sp,#0x14                                
ram:0001b954    f0bd            pop         {r4,r5,r6,r7,pc}                        
                            LAB_0001b956:                 ;XREF[2,0]:   0001b8ee,0001b95c
ram:0001b956    0720            movs        param_1,#0x7                            
ram:0001b958    fbe7            b           LAB_0001b952                            
                            LAB_0001b95a:                 ;XREF[1,0]:   0001b8f4
ram:0001b95a    bd60            str         r5,[r7,#0x8]=>DAT_20003e20              
ram:0001b95c    fbe7            b           LAB_0001b956                            
ram:0001b95e    0000            movs        r0,r0                                   
                            DAT_0001b960:                 ;XREF[1,0]:   0001b8f0
ram:0001b960    183e0020        undefined4  20003E18h                               
                            DAT_0001b964:                 ;XREF[1,0]:   0001b92a
ram:0001b964    80e200e0        undefined4  E000E280h                               
                            DAT_0001b968:                 ;XREF[1,0]:   0001b93a
ram:0001b968    00e100e0        undefined4  E000E100h                               
                            DAT_0001b96c:                 ;XREF[1,0]:   0001b93e
ram:0001b96c    00150140        undefined4  40011500h                               
                            ;************************************************************************************************
                            ;*                                           FUNCTION                                           *
                            ;************************************************************************************************
                            ;longlong FUN_0001b970(int param_1, uint param_2, undefined4 param_3, undefined4 param_4)
          ;param_1       int                 r0                      
          ;param_2       uint                r1                      
          ;param_3       undefined4          r2                      
          ;param_4       undefined4          r3                      
          ;local_1c      undefined4         -1c                      ;XREF[2,0]:   0001b9a2,0001b9c2
          ;local_20      undefined1         -20                      ;XREF[1,0]:   0001b9ca
                                                          ;XREF[4,0]:   0001c5aa,0001c8e2,0001cb6a,0001dc1c
ram:0001b970    feb5            push        {param_2,param_3,param_4,r4,r5,r6,r7,lr}
ram:0001b972    0d46            mov         r5,param_2                              
ram:0001b974    1b49            ldr         param_2,[DAT_0001b9e4]                  ;= 20003E18h
ram:0001b976    1746            mov         r7,param_3                              
ram:0001b978    8968            ldr         param_2,[param_2,#0x8]=>DAT_20003e20    
ram:0001b97a    0446            mov         r4,param_1                              
ram:0001b97c    0029            cmp         param_2,#0x0                            
ram:0001b97e    2ad0            beq         LAB_0001b9d6                            
ram:0001b980    002c            cmp         r4,#0x0                                 
ram:0001b982    28d0            beq         LAB_0001b9d6                            
ram:0001b984    052d            cmp         r5,#0x5                                 
ram:0001b986    01d2            bcs         LAB_0001b98c                            
ram:0001b988    0720            movs        param_1,#0x7                            
ram:0001b98a    febd            pop         {param_2,param_3,param_4,r4,r5,r6,r7,pc}
                            LAB_0001b98c:                 ;XREF[1,0]:   0001b986
ram:0001b98c    6069            ldr         param_1,[r4,#0x14]                      
ram:0001b98e    0028            cmp         param_1,#0x0                            
ram:0001b990    21d0            beq         LAB_0001b9d6                            
ram:0001b992    607c            ldrb        param_1,[r4,#0x11]                      
ram:0001b994    0128            cmp         param_1,#0x1                            
ram:0001b996    20d0            beq         LAB_0001b9da                            
ram:0001b998    0026            movs        r6,#0x0                                 
                            LAB_0001b99a:                 ;XREF[1,0]:   0001b9dc
ram:0001b99a    02f04ffb        bl          FUN_0001e03c                            ;undefined4 FUN_0001e03c(void)
ram:0001b99e    c000            lsls        param_1,param_1,#0x3                    
ram:0001b9a0    1049            ldr         param_2,[DAT_0001b9e4]                  ;= 20003E18h
ram:0001b9a2    0190            str         param_1,[sp,#local_1c+0x20]             
ram:0001b9a4    8968            ldr         param_2,[param_2,#0x8]=>DAT_20003e20    
ram:0001b9a6    4018            adds        param_1,param_1,param_2                 
ram:0001b9a8    6946            mov         param_2,sp                              
ram:0001b9aa    02f071fb        bl          FUN_0001e090                            ;int FUN_0001e090(char * param_1, cha...
ram:0001b9ae    0028            cmp         param_1,#0x0                            
ram:0001b9b0    15d0            beq         LAB_0001b9de                            
ram:0001b9b2    0121            movs        param_2,#0x1                            
ram:0001b9b4    0170            strb        param_2,[param_1,#0x0]                  
ram:0001b9b6    0c49            ldr         param_2,[DAT_0001b9e8]                  ;= 40011500h
ram:0001b9b8    4460            str         r4,[param_1,#0x4]                       
ram:0001b9ba    4968            ldr         param_2,[param_2,#offset DAT_40011504...
ram:0001b9bc    0830            adds        param_1,#0x8                            
ram:0001b9be    e2c0            stmia       param_1!,{param_2,r5,r6,r7}             
ram:0001b9c0    0849            ldr         param_2,[DAT_0001b9e4]                  ;= 20003E18h
ram:0001b9c2    0198            ldr         param_1,[sp,#local_1c+0x20]             
ram:0001b9c4    8968            ldr         param_2,[param_2,#0x8]=>DAT_20003e20    
ram:0001b9c6    4118            adds        param_2,param_1,param_2                 
ram:0001b9c8    6846            mov         param_1,sp                              
ram:0001b9ca    0078            ldrb        param_1=>local_20,[param_1,#0x0]        
ram:0001b9cc    4870            strb        param_1,[param_2,#0x1]                  
ram:0001b9ce    01f0f7ff        bl          FUN_0001d9c0                            ;undefined FUN_0001d9c0(void)
ram:0001b9d2    0020            movs        param_1,#0x0                            
ram:0001b9d4    febd            pop         {param_2,param_3,param_4,r4,r5,r6,r7,pc}
                            LAB_0001b9d6:                 ;XREF[3,0]:   0001b97e,0001b982,0001b990
ram:0001b9d6    0820            movs        param_1,#0x8                            
ram:0001b9d8    febd            pop         {param_2,param_3,param_4,r4,r5,r6,r7,pc}
                            LAB_0001b9da:                 ;XREF[1,0]:   0001b996
ram:0001b9da    2e46            mov         r6,r5                                   
ram:0001b9dc    dde7            b           LAB_0001b99a                            
                            LAB_0001b9de:                 ;XREF[1,0]:   0001b9b0
ram:0001b9de    0420            movs        param_1,#0x4                            
ram:0001b9e0    febd            pop         {param_2,param_3,param_4,r4,r5,r6,r7,pc}
ram:0001b9e2    0000            movs        r0,r0                                   
                            DAT_0001b9e4:                 ;XREF[3,0]:   0001b974,0001b9a0,0001b9c0
ram:0001b9e4    183e0020        undefined4  20003E18h                               
                            DAT_0001b9e8:                 ;XREF[1,0]:   0001b9b6
ram:0001b9e8    00150140        undefined4  40011500h                               
                            ;************************************************************************************************
                            ;*                                           FUNCTION                                           *
                            ;************************************************************************************************
                            ;undefined4 FUN_0001b9ec(int param_1, undefined4 param_2, undefined4 param_3, undefined4 param_4)
          ;param_1       int                 r0                      
          ;param_2       undefined4          r1                      
          ;param_3       undefined4          r2                      
          ;param_4       undefined4          r3                      
          ;local_18      undefined1         -18                      ;XREF[1,0]:   0001ba26
                                                          ;XREF[1,0]:   0001c574
ram:0001b9ec    f8b5            push        {param_4,r4,r5,r6,r7,lr}                
ram:0001b9ee    134d            ldr         r5,[DAT_0001ba3c]                       ;= 20003E18h
ram:0001b9f0    0446            mov         r4,param_1                              
ram:0001b9f2    a968            ldr         param_2,[r5,#0x8]=>DAT_20003e20         
ram:0001b9f4    0029            cmp         param_2,#0x0                            
ram:0001b9f6    1cd0            beq         LAB_0001ba32                            
ram:0001b9f8    002c            cmp         r4,#0x0                                 
ram:0001b9fa    1ad0            beq         LAB_0001ba32                            
ram:0001b9fc    6069            ldr         param_1,[r4,#0x14]                      
ram:0001b9fe    0028            cmp         param_1,#0x0                            
ram:0001ba00    17d0            beq         LAB_0001ba32                            
ram:0001ba02    0026            movs        r6,#0x0                                 
ram:0001ba04    2674            strb        r6,[r4,#0x10]                           
ram:0001ba06    02f019fb        bl          FUN_0001e03c                            ;undefined4 FUN_0001e03c(void)
ram:0001ba0a    c700            lsls        r7,param_1,#0x3                         
ram:0001ba0c    a868            ldr         param_1,[r5,#0x8]=>DAT_20003e20         
ram:0001ba0e    6946            mov         param_2,sp                              
ram:0001ba10    3818            adds        param_1,r7,param_1                      
ram:0001ba12    02f03dfb        bl          FUN_0001e090                            ;int FUN_0001e090(char * param_1, cha...
ram:0001ba16    0028            cmp         param_1,#0x0                            
ram:0001ba18    0dd0            beq         LAB_0001ba36                            
ram:0001ba1a    0221            movs        param_2,#0x2                            
ram:0001ba1c    0170            strb        param_2,[param_1,#0x0]                  
ram:0001ba1e    4460            str         r4,[param_1,#0x4]                       
ram:0001ba20    a868            ldr         param_1,[r5,#0x8]=>DAT_20003e20         
ram:0001ba22    3918            adds        param_2,r7,param_1                      
ram:0001ba24    6846            mov         param_1,sp                              
ram:0001ba26    0078            ldrb        param_1=>local_18,[param_1,#0x0]        
ram:0001ba28    4870            strb        param_1,[param_2,#0x1]                  
ram:0001ba2a    01f0c9ff        bl          FUN_0001d9c0                            ;undefined FUN_0001d9c0(void)
ram:0001ba2e    3046            mov         param_1,r6                              
ram:0001ba30    f8bd            pop         {param_4,r4,r5,r6,r7,pc}                
                            LAB_0001ba32:                 ;XREF[3,0]:   0001b9f6,0001b9fa,0001ba00
ram:0001ba32    0820            movs        param_1,#0x8                            
ram:0001ba34    f8bd            pop         {param_4,r4,r5,r6,r7,pc}                
                            LAB_0001ba36:                 ;XREF[1,0]:   0001ba18
ram:0001ba36    0420            movs        param_1,#0x4                            
ram:0001ba38    f8bd            pop         {param_4,r4,r5,r6,r7,pc}                
ram:0001ba3a    0000            movs        r0,r0                                   
                            DAT_0001ba3c:                 ;XREF[1,0]:   0001b9ee
ram:0001ba3c    183e0020        undefined4  20003E18h                               
                            ;************************************************************************************************
                            ;*                                           FUNCTION                                           *
                            ;************************************************************************************************
                            ;undefined4 FUN_0001ba40(undefined * param_1)
          ;param_1       undefined *         r0                      
                                                          ;XREF[1,0]:   0001db3e
ram:0001ba40    10b5            push        {r4,lr}                                 
ram:0001ba42    0446            mov         r4,param_1                              
ram:0001ba44    0948            ldr         param_1,[DAT_0001ba6c]                  ;= 20005254h
ram:0001ba46    8168            ldr         r1,[param_1,#0x8]=>DAT_2000525c         
ram:0001ba48    c268            ldr         r2,[param_1,#0xc]=>DAT_20005260         
ram:0001ba4a    8088            ldrh        param_1,[param_1,#0x4]=>DAT_20005258    
ram:0001ba4c    511a            subs        r1,r2,r1                                
ram:0001ba4e    8142            cmp         r1,param_1                              
ram:0001ba50    07d1            bne         LAB_0001ba62                            
ram:0001ba52    0121            movs        r1,#0x1                                 
ram:0001ba54    0648            ldr         param_1,[DAT_0001ba70]                  ;= 20003DFDh
ram:0001ba56    01f02dfa        bl          FUN_0001ceb4                            ;undefined4 FUN_0001ceb4(undefined4 p...
ram:0001ba5a    0028            cmp         param_1,#0x0                            
ram:0001ba5c    01d0            beq         LAB_0001ba62                            
ram:0001ba5e    0520            movs        param_1,#0x5                            
ram:0001ba60    10bd            pop         {r4,pc}                                 
                            LAB_0001ba62:                 ;XREF[2,0]:   0001ba50,0001ba5c
ram:0001ba62    2146            mov         r1,r4                                   
ram:0001ba64    0148            ldr         param_1,[DAT_0001ba6c]                  ;= 20005254h
ram:0001ba66    fff7fbfe        bl          FUN_0001b860                            ;undefined4 FUN_0001b860(int * param_...
ram:0001ba6a    10bd            pop         {r4,pc}                                 
                            DAT_0001ba6c:                 ;XREF[2,0]:   0001ba44,0001ba64
ram:0001ba6c    54520020        undefined4  20005254h                               
                            DAT_0001ba70:                 ;XREF[1,0]:   0001ba54
ram:0001ba70    fd3d0020        undefined4  20003DFDh                               
                            ;************************************************************************************************
                            ;*                                           FUNCTION                                           *
                            ;************************************************************************************************
                            ;int FUN_0001ba74(byte * param_1, int * param_2, undefined4 param_3, undefined param_4)
          ;param_1       byte *              r0                      
          ;param_2       int *               r1                      
          ;param_3       undefined4          r2                      
          ;param_4       undefined           r3                      
          ;local_14      undefined1         -14                      ;XREF[1,0]:   0001baca
          ;local_18      undefined4         -18                      ;XREF[1,0]:   0001bab2
          ;local_1b      undefined1         -1b                      ;XREF[1,0]:   0001bad6
          ;local_1c      undefined1         -1c                      ;XREF[1,0]:   0001bac8
          ;local_24      undefined4         -24                      ;XREF[1,0]:   0001bade
          ;local_28      undefined4         -28                      ;XREF[1,0]:   0001bada
          ;local_2c      undefined4         -2c                      ;XREF[1,0]:   0001bae2
          ;local_30      undefined4         -30                      ;XREF[1,0]:   0001bae6
                                                          ;XREF[1,0]:   0001cafe
ram:0001ba74    70b5            push        {r4,r5,r6,lr}                           
ram:0001ba76    0446            mov         r4,param_1                              
ram:0001ba78    2248            ldr         param_1,[DAT_0001bb04]                  ;= 20003DFCh
ram:0001ba7a    88b0            sub         sp,#0x20                                
ram:0001ba7c    1e46            mov         r6,param_4                              
ram:0001ba7e    0d00            movs        r5,param_2                              
ram:0001ba80    4260            str         param_3,[param_1,#0x4]=>DAT_20003e00    
ram:0001ba82    1cd0            beq         LAB_0001babe                            
ram:0001ba84    a888            ldrh        param_1,[r5,#0x4]                       
ram:0001ba86    2968            ldr         param_2,[r5,#0x0]                       
ram:0001ba88    82b2            uxth        param_3,param_1                         
ram:0001ba8a    1f48            ldr         param_1,[DAT_0001bb08]                  ;= 20005254h
ram:0001ba8c    fff7f3fe        bl          FUN_0001b876                            ;undefined4 FUN_0001b876(int * param_...
ram:0001ba90    0028            cmp         param_1,#0x0                            
ram:0001ba92    15d1            bne         LAB_0001bac0                            
ram:0001ba94    a889            ldrh        param_1,[r5,#0xc]                       
ram:0001ba96    a968            ldr         param_2,[r5,#0x8]                       
ram:0001ba98    82b2            uxth        param_3,param_1                         
ram:0001ba9a    1b48            ldr         param_1,[DAT_0001bb08]                  ;= 20005254h
ram:0001ba9c    1030            adds        param_1,#0x10                           
ram:0001ba9e    fff7eafe        bl          FUN_0001b876                            ;undefined4 FUN_0001b876(int * param_...
ram:0001baa2    0028            cmp         param_1,#0x0                            
ram:0001baa4    0cd1            bne         LAB_0001bac0                            
ram:0001baa6    2022            movs        param_3,#0x20                           
ram:0001baa8    1849            ldr         param_2=>DAT_0001e138,[PTR_DAT_0001bb0c];= 09h
                                                                                    ;= 0001e138
ram:0001baaa    6846            mov         param_1,sp                              
ram:0001baac    fff754fb        bl          FUN_0001b158                            ;undefined FUN_0001b158(undefined4 * ...
ram:0001bab0    a068            ldr         param_1,[r4,#0x8]                       
ram:0001bab2    0690            str         param_1,[sp,#local_18+0x30]             
ram:0001bab4    2079            ldrb        param_1,[r4,#0x4]                       
ram:0001bab6    0028            cmp         param_1,#0x0                            
ram:0001bab8    04d0            beq         LAB_0001bac4                            
ram:0001baba    0121            movs        param_2,#0x1                            
ram:0001babc    03e0            b           LAB_0001bac6                            
                            LAB_0001babe:                 ;XREF[1,0]:   0001ba82
ram:0001babe    0720            movs        param_1,#0x7                            
                            LAB_0001bac0:                 ;XREF[4,0]:   0001ba92,0001baa4,0001baf2,0001bb02
ram:0001bac0    08b0            add         sp,#0x20                                
ram:0001bac2    70bd            pop         {r4,r5,r6,pc}                           
                            LAB_0001bac4:                 ;XREF[1,0]:   0001bab8
ram:0001bac4    0021            movs        param_2,#0x0                            
                            LAB_0001bac6:                 ;XREF[1,0]:   0001babc
ram:0001bac6    6846            mov         param_1,sp                              
ram:0001bac8    0175            strb        param_2,[r0,#local_1c+0x30]             
ram:0001baca    0677            strb        r6,[r0,#local_14+0x30]                  
ram:0001bacc    6079            ldrb        param_1,[r4,#0x5]                       
ram:0001bace    0028            cmp         param_1,#0x0                            
ram:0001bad0    00d0            beq         LAB_0001bad4                            
ram:0001bad2    0e20            movs        param_1,#0xe                            
                            LAB_0001bad4:                 ;XREF[1,0]:   0001bad0
ram:0001bad4    6946            mov         param_2,sp                              
ram:0001bad6    4875            strb        param_1,[r1,#local_1b+0x30]             
ram:0001bad8    e078            ldrb        param_1,[r4,#0x3]                       
ram:0001bada    0290            str         param_1,[sp,#local_28+0x30]             
ram:0001badc    a078            ldrb        param_1,[r4,#0x2]                       
ram:0001bade    0390            str         param_1,[sp,#local_24+0x30]             
ram:0001bae0    2078            ldrb        param_1,[r4,#0x0]                       
ram:0001bae2    0190            str         param_1,[sp,#local_2c+0x30]             
ram:0001bae4    6078            ldrb        param_1,[r4,#0x1]                       
ram:0001bae6    0090            str         param_1,[sp,#0x0]=>local_30             
ram:0001bae8    0949            ldr         param_2=>LAB_000...,[PTR_LAB_0001dda0...;= 0001dda1
ram:0001baea    6846            mov         param_1,sp                              
ram:0001baec    01f07ef9        bl          FUN_0001cdec                            ;longlong FUN_0001cdec(int * param_1,...
ram:0001baf0    0028            cmp         param_1,#0x0                            
ram:0001baf2    e5d1            bne         LAB_0001bac0                            
ram:0001baf4    01f004fa        bl          FUN_0001cf00                            ;undefined FUN_0001cf00(void)
ram:0001baf8    0248            ldr         param_1,[DAT_0001bb04]                  ;= 20003DFCh
ram:0001bafa    0121            movs        param_2,#0x1                            
ram:0001bafc    401c            adds        param_1,param_1,#0x1                    
ram:0001bafe    01f0d9f9        bl          FUN_0001ceb4                            ;undefined4 FUN_0001ceb4(undefined4 p...
ram:0001bb02    dde7            b           LAB_0001bac0                            
                            DAT_0001bb04:                 ;XREF[2,0]:   0001ba78,0001baf8
ram:0001bb04    fc3d0020        undefined4  20003DFCh                               
                            DAT_0001bb08:                 ;XREF[2,0]:   0001ba8a,0001ba9a
ram:0001bb08    54520020        undefined4  20005254h                               
                            PTR_DAT_0001bb0c:             ;XREF[1,0]:   0001baa8
ram:0001bb0c    38e10100        addr        DAT_0001e138                            ;= 09h
                            PTR_LAB_0001dda0+1+1_0001bb10:;XREF[1,0]:   0001bae8
ram:0001bb10    a1dd0100        addr        LAB_0001dda0+1+1                        
                            ;************************************************************************************************
                            ;*                                           FUNCTION                                           *
                            ;************************************************************************************************
                            ;int FUN_0001bb14(undefined param_1)
          ;param_1       undefined           r0                      
                                                          ;XREF[3,0]:   0001c1ca,0001c20c,0001c560
ram:0001bb14    10b5            push        {r4,lr}                                 
ram:0001bb16    0146            mov         r1,param_1                              
ram:0001bb18    0a48            ldr         param_1,[DAT_0001bb44]                  ;= 20005264h
ram:0001bb1a    fff7befe        bl          FUN_0001b89a                            ;undefined4 FUN_0001b89a(int * param_...
ram:0001bb1e    0400            movs        r4,param_1                              
ram:0001bb20    0ed1            bne         LAB_0001bb40                            
ram:0001bb22    01f093fa        bl          FUN_0001d04c                            ;char FUN_0001d04c(void)
ram:0001bb26    0028            cmp         param_1,#0x0                            
ram:0001bb28    0ad1            bne         LAB_0001bb40                            
ram:0001bb2a    0749            ldr         r1,[DAT_0001bb48]                       ;= 20003DFCh
ram:0001bb2c    0548            ldr         param_1,[DAT_0001bb44]                  ;= 20005264h
ram:0001bb2e    fff797fe        bl          FUN_0001b860                            ;undefined4 FUN_0001b860(int * param_...
ram:0001bb32    0028            cmp         param_1,#0x0                            
ram:0001bb34    04d1            bne         LAB_0001bb40                            
ram:0001bb36    0121            movs        r1,#0x1                                 
ram:0001bb38    0348            ldr         param_1,[DAT_0001bb48]                  ;= 20003DFCh
ram:0001bb3a    01f03bfa        bl          FUN_0001cfb4                            ;undefined4 FUN_0001cfb4(undefined4 p...
ram:0001bb3e    0446            mov         r4,param_1                              
                            LAB_0001bb40:                 ;XREF[3,0]:   0001bb20,0001bb28,0001bb34
ram:0001bb40    2046            mov         param_1,r4                              
ram:0001bb42    10bd            pop         {r4,pc}                                 
                            DAT_0001bb44:                 ;XREF[2,0]:   0001bb18,0001bb2c
ram:0001bb44    64520020        undefined4  20005264h                               
                            DAT_0001bb48:                 ;XREF[2,0]:   0001bb2a,0001bb38
ram:0001bb48    fc3d0020        undefined4  20003DFCh                               
                            ;************************************************************************************************
                            ;*                                           FUNCTION                                           *
                            ;************************************************************************************************
                            ;undefined FUN_0001bb4c(void)
                                                          ;XREF[2,0]:   0001d230,0001d29a
ram:0001bb4c    10b5            push        {r4,lr}                                 
ram:0001bb4e    0349            ldr         r1,[DAT_0001bb5c]                       ;= 20005028h
ram:0001bb50    887d            ldrb        r0,[r1,#0x16]=>DAT_2000503e             
ram:0001bb52    497d            ldrb        r1,[r1,#0x15]=>DAT_2000503d             
ram:0001bb54    0840            ands        r0,r1                                   
ram:0001bb56    01f094fe        bl          FUN_0001d882                            ;int FUN_0001d882(uint param_1)
ram:0001bb5a    10bd            pop         {r4,pc}                                 
                            DAT_0001bb5c:                 ;XREF[1,0]:   0001bb4e
ram:0001bb5c    28500020        undefined4  20005028h                               
                            ;************************************************************************************************
                            ;*                                           FUNCTION                                           *
                            ;************************************************************************************************
                            ;undefined FUN_0001bb60(short * param_1)
          ;param_1       short *             r0                      
          ;local_28      undefined4         -28                      ;XREF[3,0]:   0001bbaa,0001bbbc,0001bbf4
          ;local_3c      undefined2         -3c                      ;XREF[1,0]:   0001bbb4
          ;local_40      undefined4         -40                      ;XREF[1,0]:   0001bbc4
          ;local_44      undefined4         -44                      ;XREF[2,0]:   0001bb6e,0001bbe8
          ;local_48      undefined4         -48                      ;XREF[1,0]:   0001bbb8
                                                          ;XREF[1,0]:   0001bd86
ram:0001bb60    f0b5            push        {r4,r5,r6,r7,lr}                        
ram:0001bb62    0446            mov         r4,param_1                              
ram:0001bb64    0288            ldrh        r2,[param_1,#0x0]                       
ram:0001bb66    3a48            ldr         param_1,[DAT_0001bc50]                  ;= 20005028h
ram:0001bb68    8db0            sub         sp,#0x34                                
ram:0001bb6a    0146            mov         r1,param_1                              
ram:0001bb6c    1531            adds        r1=>DAT_2000503d,#0x15                  
ram:0001bb6e    0191            str         r1=>DAT_2000503d,[sp,#local_44+0x48]    
ram:0001bb70    102a            cmp         r2,#0x10                                
ram:0001bb72    09d0            beq         LAB_0001bb88                            
ram:0001bb74    112a            cmp         r2,#0x11                                
ram:0001bb76    50d0            beq         LAB_0001bc1a                            
ram:0001bb78    1a2a            cmp         r2,#0x1a                                
ram:0001bb7a    4ad1            bne         LAB_0001bc12                            
ram:0001bb7c    217a            ldrb        r1,[r4,#0x8]                            
ram:0001bb7e    0909            lsrs        r1,r1,#0x4                              
ram:0001bb80    0129            cmp         r1,#0x1                                 
ram:0001bb82    4ed9            bls         LAB_0001bc22                            
ram:0001bb84    0123            movs        r3,#0x1                                 
ram:0001bb86    4de0            b           LAB_0001bc24                            
                            LAB_0001bb88:                 ;XREF[1,0]:   0001bb72
ram:0001bb88    027d            ldrb        r2,[param_1,#0x14]=>DAT_2000503c        
ram:0001bb8a    417d            ldrb        r1,[param_1,#0x15]=>DAT_2000503d        
ram:0001bb8c    0546            mov         r5,param_1                              
ram:0001bb8e    8a43            bics        r2,r1                                   
ram:0001bb90    011d            adds        r1,param_1,#0x4                         
ram:0001bb92    07a8            add         param_1,sp,#0x1c                        
ram:0001bb94    01f052fe        bl          FUN_0001d83c                            ;undefined FUN_0001d83c(undefined4 * ...
ram:0001bb98    1422            movs        r2,#0x14                                
ram:0001bb9a    07a9            add         r1,sp,#0x1c                             
ram:0001bb9c    02a8            add         param_1,sp,#0x8                         
ram:0001bb9e    fff7dbfa        bl          FUN_0001b158                            ;undefined FUN_0001b158(undefined4 * ...
ram:0001bba2    0026            movs        r6,#0x0                                 
ram:0001bba4    2a48            ldr         param_1,[DAT_0001bc50]                  ;= 20005028h
ram:0001bba6    3746            mov         r7,r6                                   
ram:0001bba8    1430            adds        param_1,#0x14                           
ram:0001bbaa    0890            str         param_1=>DAT_200...,[sp,#local_28+0x48] 
ram:0001bbac    0ae0            b           LAB_0001bbc4                            
                            LAB_0001bbae:                 ;XREF[1,0]:   0001bbc8
ram:0001bbae    7100            lsls        r1,r6,#0x1                              
ram:0001bbb0    02a8            add         param_1,sp,#0x8                         
ram:0001bbb2    0818            adds        param_1,r1,param_1                      
ram:0001bbb4    8388            ldrh        r3,[r0,#local_3c+0x40]                  
ram:0001bbb6    1d22            movs        r2,#0x1d                                
ram:0001bbb8    0097            str         r7,[sp,#0x0]=>local_48                  
ram:0001bbba    281d            adds        param_1,r5,#0x4                         
ram:0001bbbc    0899            ldr         r1=>DAT_2000503c,[sp,#local_28+0x48]    
ram:0001bbbe    01f0fdfd        bl          FUN_0001d7bc                            ;undefined FUN_0001d7bc(int param_1, ...
ram:0001bbc2    761c            adds        r6,r6,#0x1                              
                            LAB_0001bbc4:                 ;XREF[1,0]:   0001bbac
ram:0001bbc4    0298            ldr         param_1,[sp,#local_40+0x48]             
ram:0001bbc6    b042            cmp         param_1,r6                              
ram:0001bbc8    f1d8            bhi         LAB_0001bbae                            
ram:0001bbca    287d            ldrb        param_1,[r5,#0x14]=>DAT_2000503c        
ram:0001bbcc    a688            ldrh        r6,[r4,#0x4]                            
ram:0001bbce    c043            mvns        param_1,param_1                         
ram:0001bbd0    c0b2            uxtb        param_1,param_1                         
ram:0001bbd2    01f017fe        bl          FUN_0001d804                            ;uint FUN_0001d804(uint param_1)
ram:0001bbd6    1f49            ldr         r1,[DAT_0001bc54]                       ;= 0000FFFFh
ram:0001bbd8    8842            cmp         param_1,r1                              
ram:0001bbda    17d0            beq         LAB_0001bc0c                            
ram:0001bbdc    4000            lsls        param_1,param_1,#0x1                    
ram:0001bbde    4019            adds        param_1,param_1,r5                      
ram:0001bbe0    8680            strh        r6,[param_1,#0x4]                       
ram:0001bbe2    0123            movs        r3,#0x1                                 
ram:0001bbe4    3246            mov         r2,r6                                   
ram:0001bbe6    281d            adds        param_1,r5,#0x4                         
ram:0001bbe8    0199            ldr         r1=>DAT_2000503d,[sp,#local_44+0x48]    
ram:0001bbea    01f05afe        bl          FUN_0001d8a2                            ;undefined FUN_0001d8a2(int param_1, ...
ram:0001bbee    0123            movs        r3,#0x1                                 
ram:0001bbf0    3246            mov         r2,r6                                   
ram:0001bbf2    281d            adds        param_1,r5,#0x4                         
ram:0001bbf4    0899            ldr         r1=>DAT_2000503c,[sp,#local_28+0x48]    
ram:0001bbf6    01f054fe        bl          FUN_0001d8a2                            ;undefined FUN_0001d8a2(int param_1, ...
ram:0001bbfa    a07d            ldrb        param_1,[r4,#0x16]                      
ram:0001bbfc    0228            cmp         param_1,#0x2                            
ram:0001bbfe    0ad0            beq         LAB_0001bc16                            
ram:0001bc00    0023            movs        r3,#0x0                                 
                            LAB_0001bc02:                 ;XREF[1,0]:   0001bc18
ram:0001bc02    1349            ldr         r1,[DAT_0001bc50]                       ;= 20005028h
ram:0001bc04    a288            ldrh        r2,[r4,#0x4]                            
ram:0001bc06    1631            adds        r1=>DAT_2000503e,#0x16                  
ram:0001bc08    281d            adds        param_1,r5,#0x4                         
ram:0001bc0a    1de0            b           LAB_0001bc48                            
                            LAB_0001bc0c:                 ;XREF[1,0]:   0001bbda
ram:0001bc0c    0420            movs        param_1,#0x4                            
ram:0001bc0e    fff71bfe        bl          FUN_0001b848                            ;undefined FUN_0001b848(void)
                            LAB_0001bc12:                 ;XREF[2,0]:   0001bb7a,0001bc4c
ram:0001bc12    0db0            add         sp,#0x34                                
ram:0001bc14    f0bd            pop         {r4,r5,r6,r7,pc}                        
                            LAB_0001bc16:                 ;XREF[1,0]:   0001bbfe
ram:0001bc16    0123            movs        r3,#0x1                                 
ram:0001bc18    f3e7            b           LAB_0001bc02                            
                            LAB_0001bc1a:                 ;XREF[1,0]:   0001bb76
ram:0001bc1a    0023            movs        r3,#0x0                                 
ram:0001bc1c    a288            ldrh        r2,[r4,#0x4]                            
ram:0001bc1e    001d            adds        param_1,param_1,#0x4                    
ram:0001bc20    12e0            b           LAB_0001bc48                            
                            LAB_0001bc22:                 ;XREF[1,0]:   0001bb82
ram:0001bc22    0023            movs        r3,#0x0                                 
                            LAB_0001bc24:                 ;XREF[1,0]:   0001bb86
ram:0001bc24    0a49            ldr         r1,[DAT_0001bc50]                       ;= 20005028h
ram:0001bc26    0546            mov         r5,param_1                              
ram:0001bc28    a288            ldrh        r2,[r4,#0x4]                            
ram:0001bc2a    1731            adds        r1,#0x17                                
ram:0001bc2c    001d            adds        param_1,param_1,#0x4                    
ram:0001bc2e    01f038fe        bl          FUN_0001d8a2                            ;undefined FUN_0001d8a2(int param_1, ...
ram:0001bc32    207a            ldrb        param_1,[r4,#0x8]                       
ram:0001bc34    0009            lsrs        param_1,param_1,#0x4                    
ram:0001bc36    0228            cmp         param_1,#0x2                            
ram:0001bc38    01d9            bls         LAB_0001bc3e                            
ram:0001bc3a    0123            movs        r3,#0x1                                 
ram:0001bc3c    00e0            b           LAB_0001bc40                            
                            LAB_0001bc3e:                 ;XREF[1,0]:   0001bc38
ram:0001bc3e    0023            movs        r3,#0x0                                 
                            LAB_0001bc40:                 ;XREF[1,0]:   0001bc3c
ram:0001bc40    0349            ldr         r1,[DAT_0001bc50]                       ;= 20005028h
ram:0001bc42    a288            ldrh        r2,[r4,#0x4]                            
ram:0001bc44    1831            adds        r1,#0x18                                
ram:0001bc46    281d            adds        param_1,r5,#0x4                         
                            LAB_0001bc48:                 ;XREF[2,0]:   0001bc0a,0001bc20
ram:0001bc48    01f02bfe        bl          FUN_0001d8a2                            ;undefined FUN_0001d8a2(int param_1, ...
ram:0001bc4c    e1e7            b           LAB_0001bc12                            
ram:0001bc4e    0000            movs        r0,r0                                   
                            DAT_0001bc50:                 ;XREF[5,0]:   0001bb66,0001bba4,0001bc02,0001bc24
                                                          ;             0001bc40
ram:0001bc50    28500020        undefined4  20005028h                               
                            DAT_0001bc54:                 ;XREF[1,0]:   0001bbd6
ram:0001bc54    ffff0000        undefined4  0000FFFFh                               
                            ;************************************************************************************************
                            ;*                                           FUNCTION                                           *
                            ;************************************************************************************************
                            ;undefined4 FUN_0001bc58(short * param_1)
          ;param_1       short *             r0                      
                                                          ;XREF[1,0]:   0001bea0
ram:0001bc58    70b5            push        {r4,r5,r6,lr}                           
ram:0001bc5a    0028            cmp         param_1,#0x0                            
ram:0001bc5c    0ad0            beq         LAB_0001bc74                            
ram:0001bc5e    0f4d            ldr         r5,[DAT_0001bc9c]                       ;= 20003DECh
ram:0001bc60    2978            ldrb        r1,[r5,#0x0]=>DAT_20003dec              
ram:0001bc62    0029            cmp         r1,#0x0                                 
ram:0001bc64    08d0            beq         LAB_0001bc78                            
ram:0001bc66    0446            mov         r4,param_1                              
ram:0001bc68    01f0a6fc        bl          FUN_0001d5b8                            ;undefined4 FUN_0001d5b8(short * para...
ram:0001bc6c    0028            cmp         param_1,#0x0                            
ram:0001bc6e    05d0            beq         LAB_0001bc7c                            
                            LAB_0001bc70:                 ;XREF[1,0]:   0001bc94
ram:0001bc70    0020            movs        param_1,#0x0                            
ram:0001bc72    70bd            pop         {r4,r5,r6,pc}                           
                            LAB_0001bc74:                 ;XREF[1,0]:   0001bc5c
ram:0001bc74    0e20            movs        param_1,#0xe                            
ram:0001bc76    70bd            pop         {r4,r5,r6,pc}                           
                            LAB_0001bc78:                 ;XREF[1,0]:   0001bc64
ram:0001bc78    0820            movs        param_1,#0x8                            
ram:0001bc7a    70bd            pop         {r4,r5,r6,pc}                           
                            LAB_0001bc7c:                 ;XREF[1,0]:   0001bc6e
ram:0001bc7c    e868            ldr         param_1,[r5,#0xc]=>DAT_20003df8         
ram:0001bc7e    0628            cmp         param_1,#0x6                            
ram:0001bc80    09d2            bcs         LAB_0001bc96                            
ram:0001bc82    074a            ldr         r2,[DAT_0001bca0]                       ;= 2000505Ch
ram:0001bc84    8100            lsls        r1,param_1,#0x2                         
ram:0001bc86    8918            adds        r1,r1,r2                                
ram:0001bc88    2288            ldrh        r2,[r4,#0x0]                            
ram:0001bc8a    0a80            strh        r2,[r1,#0x0]=>DAT_2000505c              
ram:0001bc8c    6288            ldrh        r2,[r4,#0x2]                            
ram:0001bc8e    4a80            strh        r2,[r1,#0x2]=>DAT_2000505e              
ram:0001bc90    401c            adds        param_1,param_1,#0x1                    
ram:0001bc92    e860            str         param_1,[r5,#0xc]=>DAT_20003df8         
ram:0001bc94    ece7            b           LAB_0001bc70                            
                            LAB_0001bc96:                 ;XREF[1,0]:   0001bc80
ram:0001bc96    0420            movs        param_1,#0x4                            
ram:0001bc98    70bd            pop         {r4,r5,r6,pc}                           
ram:0001bc9a    0000            movs        r0,r0                                   
                            DAT_0001bc9c:                 ;XREF[1,0]:   0001bc5e
ram:0001bc9c    ec3d0020        undefined4  20003DECh                               
                            DAT_0001bca0:                 ;XREF[1,0]:   0001bc82
ram:0001bca0    5c500020        undefined4  2000505Ch                               
                            ;************************************************************************************************
                            ;*                                           FUNCTION                                           *
                            ;************************************************************************************************
                            ;undefined4 FUN_0001bca4(int param_1)
          ;param_1       int                 r0                      
                                                          ;XREF[1,0]:   0001cb36
ram:0001bca4    0028            cmp         param_1,#0x0                            
ram:0001bca6    08d0            beq         LAB_0001bcba                            
ram:0001bca8    0022            movs        r2,#0x0                                 
ram:0001bcaa    0549            ldr         r1,[DAT_0001bcc0]                       ;= 20003DECh
ram:0001bcac    0123            movs        r3,#0x1                                 
ram:0001bcae    ca60            str         r2,[r1,#0xc]=>DAT_20003df8              
ram:0001bcb0    0b70            strb        r3,[r1,#0x0]=>DAT_20003dec              
ram:0001bcb2    8a60            str         r2,[r1,#0x8]=>DAT_20003df4              
ram:0001bcb4    4860            str         param_1,[r1,#0x4]=>DAT_20003df0         
ram:0001bcb6    1046            mov         param_1,r2                              
ram:0001bcb8    7047            bx          lr                                      
                            LAB_0001bcba:                 ;XREF[1,0]:   0001bca6
ram:0001bcba    0e20            movs        param_1,#0xe                            
ram:0001bcbc    7047            bx          lr                                      
ram:0001bcbe    0000            movs        r0,r0                                   
                            DAT_0001bcc0:                 ;XREF[1,0]:   0001bcaa
ram:0001bcc0    ec3d0020        undefined4  20003DECh                               
                            ;************************************************************************************************
                            ;*                                           FUNCTION                                           *
                            ;************************************************************************************************
                            ;undefined FUN_0001bcc4(int param_1, short * param_2, undefined4 param_3, uint param_4)
          ;param_1       int                 r0                      
          ;param_2       short *             r1                      
          ;param_3       undefined4          r2                      
          ;param_4       uint                r3                      
                                                          ;XREF[1,0]:   0001bda0
ram:0001bcc4    10b5            push        {r4,lr}                                 
ram:0001bcc6    0028            cmp         param_1,#0x0                            
ram:0001bcc8    11d0            beq         LAB_0001bcee                            
ram:0001bcca    0029            cmp         param_2,#0x0                            
ram:0001bccc    0fd0            beq         LAB_0001bcee                            
ram:0001bcce    124a            ldr         param_3,[DAT_0001bd18]                  ;= 20003DECh
ram:0001bcd0    1278            ldrb        param_3,[param_3,#0x0]=>DAT_20003dec    
ram:0001bcd2    002a            cmp         param_3,#0x0                            
ram:0001bcd4    0bd0            beq         LAB_0001bcee                            
ram:0001bcd6    0a88            ldrh        param_3,[param_2,#0x0]                  
ram:0001bcd8    112a            cmp         param_3,#0x11                           
ram:0001bcda    11d0            beq         LAB_0001bd00                            
ram:0001bcdc    302a            cmp         param_3,#0x30                           
ram:0001bcde    07d0            beq         LAB_0001bcf0                            
ram:0001bce0    322a            cmp         param_3,#0x32                           
ram:0001bce2    09d0            beq         LAB_0001bcf8                            
ram:0001bce4    332a            cmp         param_3,#0x33                           
ram:0001bce6    02d1            bne         LAB_0001bcee                            
ram:0001bce8    091d            adds        param_2,param_2,#0x4                    
ram:0001bcea    01f07ffb        bl          FUN_0001d3ec                            ;undefined FUN_0001d3ec(int param_1, ...
                            LAB_0001bcee:                 ;XREF[4,0]:   0001bcc8,0001bccc,0001bcd4,0001bce6
ram:0001bcee    10bd            pop         {r4,pc}                                 
                            LAB_0001bcf0:                 ;XREF[1,0]:   0001bcde
ram:0001bcf0    091d            adds        param_2,param_2,#0x4                    
ram:0001bcf2    01f0dbfb        bl          FUN_0001d4ac                            ;undefined FUN_0001d4ac(int param_1, ...
ram:0001bcf6    10bd            pop         {r4,pc}                                 
                            LAB_0001bcf8:                 ;XREF[1,0]:   0001bce2
ram:0001bcf8    091d            adds        param_2,param_2,#0x4                    
ram:0001bcfa    01f0fffa        bl          FUN_0001d2fc                            ;undefined FUN_0001d2fc(int param_1, ...
                            LAB_0001bcfe:                 ;XREF[1,0]:   0001bd0a
ram:0001bcfe    10bd            pop         {r4,pc}                                 
                            LAB_0001bd00:                 ;XREF[1,0]:   0001bcda
ram:0001bd00    8a88            ldrh        param_3,[param_2,#0x4]                  
ram:0001bd02    ff21            movs        param_2,#0xff                           
ram:0001bd04    ab31            adds        param_2,#0xab                           
ram:0001bd06    095a            ldrh        param_2,[param_2,param_1]               
ram:0001bd08    8a42            cmp         param_3,param_2                         
ram:0001bd0a    f8d1            bne         LAB_0001bcfe                            
ram:0001bd0c    0021            movs        param_2,#0x0                            
ram:0001bd0e    ff30            adds        param_1,#0xff                           
ram:0001bd10    a130            adds        param_1,#0xa1                           
ram:0001bd12    c171            strb        param_2,[param_1,#0x7]                  
ram:0001bd14    10bd            pop         {r4,pc}                                 
ram:0001bd16    0000            movs        r0,r0                                   
                            DAT_0001bd18:                 ;XREF[1,0]:   0001bcce
ram:0001bd18    ec3d0020        undefined4  20003DECh                               
                            ;************************************************************************************************
                            ;*                                           FUNCTION                                           *
                            ;************************************************************************************************
                            ;undefined8 FUN_0001bd1c(undefined2 * param_1, int param_2)
          ;param_1       undefined2 *        r0                      
          ;param_2       int                 r1                      
                                                          ;XREF[1,0]:   0001d28a
ram:0001bd1c    10b5            push        {r4,lr}                                 
ram:0001bd1e    0b46            mov         r3,param_2                              
ram:0001bd20    0028            cmp         param_1,#0x0                            
ram:0001bd22    0ed0            beq         LAB_0001bd42                            
ram:0001bd24    144a            ldr         r2,[DAT_0001bd78]                       ;= 20003DECh
ram:0001bd26    1178            ldrb        param_2,[r2,#0x0]=>DAT_20003dec         
ram:0001bd28    0029            cmp         param_2,#0x0                            
ram:0001bd2a    0cd0            beq         LAB_0001bd46                            
ram:0001bd2c    d168            ldr         param_2,[r2,#0xc]=>DAT_20003df8         
ram:0001bd2e    0029            cmp         param_2,#0x0                            
ram:0001bd30    09d0            beq         LAB_0001bd46                            
ram:0001bd32    0446            mov         r4,param_1                              
ram:0001bd34    ff34            adds        r4,#0xff                                
ram:0001bd36    a134            adds        r4,#0xa1                                
ram:0001bd38    e179            ldrb        param_2,[r4,#0x7]                       
ram:0001bd3a    0029            cmp         param_2,#0x0                            
ram:0001bd3c    05d0            beq         LAB_0001bd4a                            
ram:0001bd3e    1120            movs        param_1,#0x11                           
ram:0001bd40    10bd            pop         {r4,pc}                                 
                            LAB_0001bd42:                 ;XREF[1,0]:   0001bd22
ram:0001bd42    0e20            movs        param_1,#0xe                            
ram:0001bd44    10bd            pop         {r4,pc}                                 
                            LAB_0001bd46:                 ;XREF[2,0]:   0001bd2a,0001bd30
ram:0001bd46    0820            movs        param_1,#0x8                            
                            LAB_0001bd48:                 ;XREF[1,0]:   0001bd6c
ram:0001bd48    10bd            pop         {r4,pc}                                 
                            LAB_0001bd4a:                 ;XREF[1,0]:   0001bd3c
ram:0001bd4a    ff21            movs        param_2,#0xff                           
ram:0001bd4c    ab31            adds        param_2,#0xab                           
ram:0001bd4e    0b52            strh        r3,[param_2,param_1]                    
ram:0001bd50    0021            movs        param_2,#0x0                            
ram:0001bd52    9160            str         param_2,[r2,#0x8]=>DAT_20003df4         
ram:0001bd54    0246            mov         r2,param_1                              
ram:0001bd56    2172            strb        param_2,[r4,#0x8]                       
ram:0001bd58    0848            ldr         param_1,[DAT_0001bd7c]                  ;= 2000505Ch
ram:0001bd5a    a171            strb        param_2,[r4,#0x6]                       
ram:0001bd5c    0188            ldrh        param_2,[param_1,#0x0]=>DAT_2000505c    
ram:0001bd5e    1180            strh        param_2,[r2,#0x0]                       
ram:0001bd60    4088            ldrh        param_1,[param_1,#0x2]=>DAT_2000505e    
ram:0001bd62    5080            strh        param_1,[r2,#0x2]                       
ram:0001bd64    0121            movs        param_2,#0x1                            
ram:0001bd66    1846            mov         param_1,r3                              
ram:0001bd68    90df            svc         0x90                                    
ram:0001bd6a    0028            cmp         param_1,#0x0                            
ram:0001bd6c    ecd1            bne         LAB_0001bd48                            
ram:0001bd6e    0120            movs        param_1,#0x1                            
ram:0001bd70    e071            strb        param_1,[r4,#0x7]                       
ram:0001bd72    0020            movs        param_1,#0x0                            
ram:0001bd74    10bd            pop         {r4,pc}                                 
ram:0001bd76    0000            movs        r0,r0                                   
                            DAT_0001bd78:                 ;XREF[1,0]:   0001bd24
ram:0001bd78    ec3d0020        undefined4  20003DECh                               
                            DAT_0001bd7c:                 ;XREF[1,0]:   0001bd58
ram:0001bd7c    5c500020        undefined4  2000505Ch                               
                            ;************************************************************************************************
                            ;*                                           FUNCTION                                           *
                            ;************************************************************************************************
                            ;undefined4 FUN_0001bd80(ushort * param_1, undefined4 param_2, undefined4 param_3, uint param_4)
          ;param_1       ushort *            r0                      
          ;param_2       undefined4          r1                      
          ;param_3       undefined4          r2                      
          ;param_4       uint                r3                      
                                                          ;XREF[0,2]:   0001c062,0001c080
ram:0001bd80    70b5            push        {r4,r5,r6,lr}                           
ram:0001bd82    0546            mov         r5,param_1                              
ram:0001bd84    8488            ldrh        r4,[param_1,#0x4]                       
ram:0001bd86    fff7ebfe        bl          FUN_0001bb60                            ;undefined FUN_0001bb60(short * param_1)
ram:0001bd8a    2846            mov         param_1,r5                              
ram:0001bd8c    01f026fa        bl          FUN_0001d1dc                            ;undefined FUN_0001d1dc(ushort * para...
ram:0001bd90    072c            cmp         r4,#0x7                                 
ram:0001bd92    0fd2            bcs         LAB_0001bdb4                            
ram:0001bd94    ff20            movs        param_1,#0xff                           
ram:0001bd96    ad30            adds        param_1,#0xad                           
ram:0001bd98    0749            ldr         param_2,[DAT_0001bdb8]                  ;= 2000435Ch
ram:0001bd9a    6043            muls        param_1,r4                              
ram:0001bd9c    4018            adds        param_1,param_1,param_2                 
ram:0001bd9e    2946            mov         param_2,r5                              
ram:0001bda0    fff790ff        bl          FUN_0001bcc4                            ;undefined FUN_0001bcc4(int param_1, ...
ram:0001bda4    2420            movs        param_1,#0x24                           
ram:0001bda6    4443            muls        r4,param_1                              
ram:0001bda8    0348            ldr         param_1,[DAT_0001bdb8]                  ;= 2000435Ch
ram:0001bdaa    2946            mov         param_2,r5                              
ram:0001bdac    fc38            subs        param_1,#0xfc                           
ram:0001bdae    2018            adds        param_1,r4,param_1                      
ram:0001bdb0    00f07bf8        bl          FUN_0001beaa                            ;undefined8 FUN_0001beaa(short * para...
                            LAB_0001bdb4:                 ;XREF[1,0]:   0001bd92
ram:0001bdb4    70bd            pop         {r4,r5,r6,pc}                           
ram:0001bdb6    0000            movs        r0,r0                                   
                            DAT_0001bdb8:                 ;XREF[2,0]:   0001bd98,0001bda8
ram:0001bdb8    5c430020        undefined4  2000435Ch                               
                            ;************************************************************************************************
                            ;*                                           FUNCTION                                           *
                            ;************************************************************************************************
                            ;undefined4 FUN_0001bdbc(ushort * param_1)
          ;param_1       ushort *            r0                      
                                                          ;XREF[2,0]:   0001c90c,0001caba
ram:0001bdbc    10b5            push        {r4,lr}                                 
ram:0001bdbe    0028            cmp         param_1,#0x0                            
ram:0001bdc0    05d0            beq         LAB_0001bdce                            
ram:0001bdc2    0188            ldrh        r1,[param_1,#0x0]                       
ram:0001bdc4    0d4a            ldr         r2,[DAT_0001bdfc]                       ;= 0000FFFFh
ram:0001bdc6    9142            cmp         r1,r2                                   
ram:0001bdc8    03d1            bne         LAB_0001bdd2                            
ram:0001bdca    0820            movs        param_1,#0x8                            
ram:0001bdcc    10bd            pop         {r4,pc}                                 
                            LAB_0001bdce:                 ;XREF[1,0]:   0001bdc0
ram:0001bdce    0e20            movs        param_1,#0xe                            
ram:0001bdd0    10bd            pop         {r4,pc}                                 
                            LAB_0001bdd2:                 ;XREF[1,0]:   0001bdc8
ram:0001bdd2    0b4b            ldr         r3=>DAT_20003dd4,[DAT_0001be00]         ;= 20003DD4h
ram:0001bdd4    1422            movs        r2,#0x14                                
ram:0001bdd6    1968            ldr         r1,[r3,#0x0]=>DAT_20003dd4              
ram:0001bdd8    0a4c            ldr         r4,[DAT_0001be04]                       ;= 20004F88h
ram:0001bdda    4a43            muls        r2,r1                                   
ram:0001bddc    491c            adds        r1,r1,#0x1                              
ram:0001bdde    4907            lsls        r1,r1,#0x1d                             
ram:0001bde0    490f            lsrs        r1,r1,#0x1d                             
ram:0001bde2    1960            str         r1,[r3,#0x0]=>DAT_20003dd4              
ram:0001bde4    1219            adds        r2,r2,r4                                
ram:0001bde6    418b            ldrh        r1,[param_1,#0x1a]                      
ram:0001bde8    9180            strh        r1,[r2,#0x4]                            
ram:0001bdea    0088            ldrh        param_1,[param_1,#0x0]                  
ram:0001bdec    1080            strh        param_1,[r2,#0x0]                       
ram:0001bdee    0020            movs        param_1,#0x0                            
ram:0001bdf0    9070            strb        param_1,[r2,#0x2]                       
ram:0001bdf2    01f04dfe        bl          FUN_0001da90                            ;undefined FUN_0001da90(void)
ram:0001bdf6    0020            movs        param_1,#0x0                            
ram:0001bdf8    10bd            pop         {r4,pc}                                 
ram:0001bdfa    0000            movs        r0,r0                                   
                            DAT_0001bdfc:                 ;XREF[1,0]:   0001bdc4
ram:0001bdfc    ffff0000        undefined4  0000FFFFh                               
                            DAT_0001be00:                 ;XREF[1,0]:   0001bdd2
ram:0001be00    d43d0020        undefined4  20003DD4h                               
                            DAT_0001be04:                 ;XREF[1,0]:   0001bdd8
ram:0001be04    884f0020        undefined4  20004F88h                               
                            ;************************************************************************************************
                            ;*                                           FUNCTION                                           *
                            ;************************************************************************************************
                            ;undefined4 FUN_0001be08(undefined2 * param_1, undefined2 param_2, undefined4 * param_3)
          ;param_1       undefined2 *        r0                      
          ;param_2       undefined2          r1                      
          ;param_3       undefined4 *        r2                      
                                                          ;XREF[1,0]:   0001d270
ram:0001be08    10b5            push        {r4,lr}                                 
ram:0001be0a    1346            mov         r3,param_3                              
ram:0001be0c    0028            cmp         param_1,#0x0                            
ram:0001be0e    09d0            beq         LAB_0001be24                            
ram:0001be10    0180            strh        param_2,[param_1,#0x0]                  
ram:0001be12    002b            cmp         r3,#0x0                                 
ram:0001be14    04d0            beq         LAB_0001be20                            
ram:0001be16    0a22            movs        param_3,#0xa                            
ram:0001be18    1946            mov         param_2,r3                              
ram:0001be1a    1430            adds        param_1,#0x14                           
ram:0001be1c    fff79cf9        bl          FUN_0001b158                            ;undefined FUN_0001b158(undefined4 * ...
                            LAB_0001be20:                 ;XREF[1,0]:   0001be14
ram:0001be20    0020            movs        param_1,#0x0                            
ram:0001be22    10bd            pop         {r4,pc}                                 
                            LAB_0001be24:                 ;XREF[1,0]:   0001be0e
ram:0001be24    0e20            movs        param_1,#0xe                            
ram:0001be26    10bd            pop         {r4,pc}                                 
                            ;************************************************************************************************
                            ;*                                           FUNCTION                                           *
                            ;************************************************************************************************
                            ;undefined4 FUN_0001be28(undefined2 * param_1)
          ;param_1       undefined2 *        r0                      
                                                          ;XREF[1,0]:   0001c8fe
ram:0001be28    70b5            push        {r4,r5,r6,lr}                           
ram:0001be2a    0028            cmp         param_1,#0x0                            
ram:0001be2c    1cd0            beq         LAB_0001be68                            
ram:0001be2e    0f4b            ldr         r3=>DAT_20003dd4,[DAT_0001be6c]         ;= 20003DD4h
ram:0001be30    0288            ldrh        r2,[param_1,#0x0]                       
ram:0001be32    848a            ldrh        r4,[param_1,#0x14]                      
ram:0001be34    1868            ldr         param_1,[r3,#0x0]=>DAT_20003dd4         
ram:0001be36    1421            movs        r1,#0x14                                
ram:0001be38    4143            muls        r1,param_1                              
ram:0001be3a    401c            adds        param_1,param_1,#0x1                    
ram:0001be3c    4007            lsls        param_1,param_1,#0x1d                   
ram:0001be3e    0c4d            ldr         r5,[DAT_0001be70]                       ;= 20004F88h
ram:0001be40    400f            lsrs        param_1,param_1,#0x1d                   
ram:0001be42    1860            str         param_1,[r3,#0x0]=>DAT_20003dd4         
ram:0001be44    4919            adds        r1,r1,r5                                
ram:0001be46    4c81            strh        r4,[r1,#0xa]                            
ram:0001be48    0220            movs        param_1,#0x2                            
ram:0001be4a    c881            strh        param_1,[r1,#0xe]                       
ram:0001be4c    081d            adds        param_1,r1,#0x4                         
ram:0001be4e    0861            str         param_1,[r1,#0x10]                      
ram:0001be50    0024            movs        r4,#0x0                                 
ram:0001be52    8c81            strh        r4,[r1,#0xc]                            
ram:0001be54    0120            movs        param_1,#0x1                            
ram:0001be56    0872            strb        param_1,[r1,#0x8]                       
ram:0001be58    0871            strb        param_1,[r1,#0x4]                       
ram:0001be5a    4c71            strb        r4,[r1,#0x5]                            
ram:0001be5c    0a80            strh        r2,[r1,#0x0]                            
ram:0001be5e    8870            strb        param_1,[r1,#0x2]                       
ram:0001be60    01f016fe        bl          FUN_0001da90                            ;undefined FUN_0001da90(void)
ram:0001be64    2046            mov         param_1,r4                              
ram:0001be66    70bd            pop         {r4,r5,r6,pc}                           
                            LAB_0001be68:                 ;XREF[1,0]:   0001be2c
ram:0001be68    0e20            movs        param_1,#0xe                            
ram:0001be6a    70bd            pop         {r4,r5,r6,pc}                           
                            DAT_0001be6c:                 ;XREF[1,0]:   0001be2e
ram:0001be6c    d43d0020        undefined4  20003DD4h                               
                            DAT_0001be70:                 ;XREF[1,0]:   0001be3e
ram:0001be70    884f0020        undefined4  20004F88h                               
                            ;************************************************************************************************
                            ;*                                           FUNCTION                                           *
                            ;************************************************************************************************
                            ;undefined4 FUN_0001be74(undefined2 * param_1, undefined4 * param_2, undefined4 param_3, undefined4 param_4)
          ;param_1       undefined2 *        r0                      
          ;param_2       undefined4 *        r1                      
          ;param_3       undefined4          r2                      
          ;param_4       undefined4          r3                      
          ;local_6       undefined1          -6                      ;XREF[1,0]:   0001be82
          ;local_8       undefined2          -8                      ;XREF[1,0]:   0001be88
                                                          ;XREF[1,0]:   0001c986
ram:0001be74    08b5            push        {param_4,lr}                            
ram:0001be76    0028            cmp         param_1,#0x0                            
ram:0001be78    15d0            beq         LAB_0001bea6                            
ram:0001be7a    0029            cmp         param_2,#0x0                            
ram:0001be7c    13d0            beq         LAB_0001bea6                            
ram:0001be7e    0123            movs        param_4,#0x1                            
ram:0001be80    6a46            mov         param_3,sp                              
ram:0001be82    9370            strb        param_4,[r2,#local_6+0x8]               
ram:0001be84    0f23            movs        param_4,#0xf                            
ram:0001be86    db43            mvns        param_4,param_4                         
ram:0001be88    1380            strh        param_4,[param_3,#0x0]=>local_8         
ram:0001be8a    0968            ldr         param_2,[param_2,#0x0]                  
ram:0001be8c    0162            str         param_2,[param_1,#0x20]                 
ram:0001be8e    1911            asrs        param_2,param_4,#0x4                    
ram:0001be90    0180            strh        param_2,[param_1,#0x0]                  
ram:0001be92    0021            movs        param_2,#0x0                            
ram:0001be94    8182            strh        param_2,[param_1,#0x14]                 
ram:0001be96    c182            strh        param_2,[param_1,#0x16]                 
ram:0001be98    0183            strh        param_2,[param_1,#0x18]                 
ram:0001be9a    4183            strh        param_2,[param_1,#0x1a]                 
ram:0001be9c    8183            strh        param_2,[param_1,#0x1c]                 
ram:0001be9e    6846            mov         param_1,sp                              
ram:0001bea0    fff7dafe        bl          FUN_0001bc58                            ;undefined4 FUN_0001bc58(short * para...
ram:0001bea4    08bd            pop         {param_4,pc}                            
                            LAB_0001bea6:                 ;XREF[2,0]:   0001be78,0001be7c
ram:0001bea6    0e20            movs        param_1,#0xe                            
ram:0001bea8    08bd            pop         {param_4,pc}                            
                            ;************************************************************************************************
                            ;*                                           FUNCTION                                           *
                            ;************************************************************************************************
                            ;undefined8 FUN_0001beaa(short * param_1, short * param_2, undefined4 param_3, undefined4 param_4)
          ;param_1       short *             r0                      
          ;param_2       short *             r1                      
          ;param_3       undefined4          r2                      
          ;param_4       undefined4          r3                      
          ;local_16      undefined2         -16                      ;XREF[2,0]:   0001bee0,0001bf36
          ;local_18      undefined1         -18                      ;XREF[2,0]:   0001bedc,0001bf3a
                                                          ;XREF[1,0]:   0001bdb0
ram:0001beaa    1fb5            push        {param_1,param_2,param_3,param_4,r4,lr} 
ram:0001beac    0028            cmp         param_1,#0x0                            
ram:0001beae    21d0            beq         LAB_0001bef4                            
ram:0001beb0    0029            cmp         param_2,#0x0                            
ram:0001beb2    1fd0            beq         LAB_0001bef4                            
ram:0001beb4    0a88            ldrh        param_3,[param_2,#0x0]                  
ram:0001beb6    112a            cmp         param_3,#0x11                           
ram:0001beb8    24d0            beq         LAB_0001bf04                            
ram:0001beba    362a            cmp         param_3,#0x36                           
ram:0001bebc    30d0            beq         LAB_0001bf20                            
ram:0001bebe    382a            cmp         param_3,#0x38                           
ram:0001bec0    19d0            beq         LAB_0001bef6                            
ram:0001bec2    392a            cmp         param_3,#0x39                           
ram:0001bec4    16d1            bne         LAB_0001bef4                            
ram:0001bec6    0446            mov         r4,param_1                              
ram:0001bec8    0088            ldrh        param_1,[param_1,#0x0]                  
ram:0001beca    8a88            ldrh        param_3,[param_2,#0x4]                  
ram:0001becc    9042            cmp         param_1,param_3                         
ram:0001bece    11d1            bne         LAB_0001bef4                            
ram:0001bed0    8889            ldrh        param_1,[param_2,#0xc]                  
ram:0001bed2    e28a            ldrh        param_3,[r4,#0x16]                      
ram:0001bed4    9042            cmp         param_1,param_3                         
ram:0001bed6    0dd1            bne         LAB_0001bef4                            
ram:0001bed8    0220            movs        param_1,#0x2                            
ram:0001beda    6a46            mov         param_3,sp                              
ram:0001bedc    1070            strb        param_1,[param_3,#0x0]=>local_18        
ram:0001bede    2088            ldrh        param_1,[r4,#0x0]                       
ram:0001bee0    5080            strh        param_1,[r2,#local_16+0x18]             
ram:0001bee2    0822            movs        param_3,#0x8                            
ram:0001bee4    01a8            add         param_1,sp,#0x4                         
ram:0001bee6    1231            adds        param_2,#0x12                           
ram:0001bee8    fff736f9        bl          FUN_0001b158                            ;undefined FUN_0001b158(undefined4 * ...
ram:0001beec    226a            ldr         param_3,[r4,#0x20]                      
ram:0001beee    6946            mov         param_2,sp                              
ram:0001bef0    2046            mov         param_1,r4                              
ram:0001bef2    9047            blx         param_3                                 
                            LAB_0001bef4:                 ;XREF[6,0]:   0001beae,0001beb2,0001bec4,0001bece
                                                          ;             0001bed6,0001befc
ram:0001bef4    1fbd            pop         {param_1,param_2,param_3,param_4,r4,pc} 
                            LAB_0001bef6:                 ;XREF[1,0]:   0001bec0
ram:0001bef6    0088            ldrh        param_1,[param_1,#0x0]                  
ram:0001bef8    8988            ldrh        param_2,[param_2,#0x4]                  
ram:0001befa    8842            cmp         param_1,param_2                         
ram:0001befc    fad1            bne         LAB_0001bef4                            
                            LAB_0001befe:                 ;XREF[2,0]:   0001bf32,0001bf4e
ram:0001befe    01f0c7fd        bl          FUN_0001da90                            ;undefined FUN_0001da90(void)
                            LAB_0001bf02:                 ;XREF[1,0]:   0001bf0a
ram:0001bf02    1fbd            pop         {param_1,param_2,param_3,param_4,r4,pc} 
                            LAB_0001bf04:                 ;XREF[1,0]:   0001beb8
ram:0001bf04    0288            ldrh        param_3,[param_1,#0x0]                  
ram:0001bf06    8988            ldrh        param_2,[param_2,#0x4]                  
ram:0001bf08    8a42            cmp         param_3,param_2                         
ram:0001bf0a    fad1            bne         LAB_0001bf02                            
ram:0001bf0c    0021            movs        param_2,#0x0                            
ram:0001bf0e    c943            mvns        param_2,param_2                         
ram:0001bf10    0180            strh        param_2,[param_1,#0x0]                  
ram:0001bf12    0021            movs        param_2,#0x0                            
ram:0001bf14    8182            strh        param_2,[param_1,#0x14]                 
ram:0001bf16    c182            strh        param_2,[param_1,#0x16]                 
ram:0001bf18    0183            strh        param_2,[param_1,#0x18]                 
ram:0001bf1a    4183            strh        param_2,[param_1,#0x1a]                 
ram:0001bf1c    8183            strh        param_2,[param_1,#0x1c]                 
                            LAB_0001bf1e:                 ;XREF[1,0]:   0001bf28
ram:0001bf1e    1fbd            pop         {param_1,param_2,param_3,param_4,r4,pc} 
                            LAB_0001bf20:                 ;XREF[1,0]:   0001bebc
ram:0001bf20    0446            mov         r4,param_1                              
ram:0001bf22    0288            ldrh        param_3,[param_1,#0x0]                  
ram:0001bf24    8888            ldrh        param_1,[param_2,#0x4]                  
ram:0001bf26    8242            cmp         param_3,param_1                         
ram:0001bf28    f9d1            bne         LAB_0001bf1e                            
ram:0001bf2a    8a89            ldrh        param_3,[param_2,#0xc]                  
ram:0001bf2c    638b            ldrh        param_4,[r4,#0x1a]                      
ram:0001bf2e    0c31            adds        param_2,#0xc                            
ram:0001bf30    9a42            cmp         param_3,param_4                         
ram:0001bf32    e4d1            bne         LAB_0001befe                            
ram:0001bf34    6a46            mov         param_3,sp                              
ram:0001bf36    5080            strh        param_1,[r2,#local_16+0x18]             
ram:0001bf38    0320            movs        param_1,#0x3                            
ram:0001bf3a    1070            strb        param_1,[param_3,#0x0]=>local_18        
ram:0001bf3c    0822            movs        param_3,#0x8                            
ram:0001bf3e    01a8            add         param_1,sp,#0x4                         
ram:0001bf40    891d            adds        param_2,param_2,#0x6                    
ram:0001bf42    fff709f9        bl          FUN_0001b158                            ;undefined FUN_0001b158(undefined4 * ...
ram:0001bf46    226a            ldr         param_3,[r4,#0x20]                      
ram:0001bf48    6946            mov         param_2,sp                              
ram:0001bf4a    2046            mov         param_1,r4                              
ram:0001bf4c    9047            blx         param_3                                 
ram:0001bf4e    d6e7            b           LAB_0001befe                            
                            ;************************************************************************************************
                            ;*                                           FUNCTION                                           *
                            ;************************************************************************************************
                            ;undefined4 FUN_0001bf50(undefined2 * param_1, undefined4 param_2)
          ;param_1       undefined2 *        r0                      
          ;param_2       undefined4          r1                      
                                                          ;XREF[1,0]:   0001c8c2
ram:0001bf50    10b5            push        {r4,lr}                                 
ram:0001bf52    0b46            mov         r3,param_2                              
ram:0001bf54    0028            cmp         param_1,#0x0                            
ram:0001bf56    05d0            beq         LAB_0001bf64                            
ram:0001bf58    818b            ldrh        param_2,[param_1,#0x1c]                 
ram:0001bf5a    0088            ldrh        param_1,[param_1,#0x0]                  
ram:0001bf5c    0822            movs        r2,#0x8                                 
ram:0001bf5e    02f0abf8        bl          FUN_0001e0b8                            ;undefined4 FUN_0001e0b8(undefined2 p...
ram:0001bf62    10bd            pop         {r4,pc}                                 
                            LAB_0001bf64:                 ;XREF[1,0]:   0001bf56
ram:0001bf64    0e20            movs        param_1,#0xe                            
ram:0001bf66    10bd            pop         {r4,pc}                                 
                            ;************************************************************************************************
                            ;*                                           FUNCTION                                           *
                            ;************************************************************************************************
                            ;undefined8 FUN_0001bf68(ushort * param_1, char * param_2, uint param_3, uint param_4)
          ;param_1       ushort *            r0                      
          ;param_2       char *              r1                      
          ;param_3       uint                r2                      
          ;param_4       uint                r3                      
          ;local_14      undefined2         -14                      ;XREF[1,0]:   0001bfd6
          ;local_16      undefined2         -16                      ;XREF[1,0]:   0001bfc6
          ;local_18      undefined2         -18                      ;XREF[1,0]:   0001bfb6
          ;local_1a      undefined2         -1a                      ;XREF[1,0]:   0001bfa6
          ;local_1c      undefined2         -1c                      ;XREF[1,0]:   0001bfa2
          ;local_1e      undefined2         -1e                      ;XREF[1,0]:   0001bf88
          ;local_20      undefined1         -20                      ;XREF[1,0]:   0001bf84
                                                          ;XREF[1,0]:   0001c2d4
ram:0001bf68    7fb5            push        {param_1,param_2,param_3,param_4,r4,r...
ram:0001bf6a    0446            mov         r4,param_1                              
ram:0001bf6c    0878            ldrb        param_1,[param_2,#0x0]                  
ram:0001bf6e    0028            cmp         param_1,#0x0                            
ram:0001bf70    4bd1            bne         LAB_0001c00a                            
ram:0001bf72    8888            ldrh        param_1,[param_2,#0x4]                  
ram:0001bf74    254a            ldr         param_3,[DAT_0001c00c]                  ;= 0000FFF0h
ram:0001bf76    9042            cmp         param_1,param_3                         
ram:0001bf78    47d1            bne         LAB_0001c00a                            
ram:0001bf7a    8879            ldrb        param_1,[param_2,#0x6]                  
ram:0001bf7c    0128            cmp         param_1,#0x1                            
ram:0001bf7e    44d1            bne         LAB_0001c00a                            
ram:0001bf80    0122            movs        param_3,#0x1                            
ram:0001bf82    6846            mov         param_1,sp                              
ram:0001bf84    0270            strb        param_3,[param_1,#0x0]=>local_20        
ram:0001bf86    4a88            ldrh        param_3,[param_2,#0x2]                  
ram:0001bf88    4280            strh        param_3,[r0,#local_1e+0x20]             
ram:0001bf8a    0020            movs        param_1,#0x0                            
ram:0001bf8c    25e0            b           LAB_0001bfda                            
                            LAB_0001bf8e:                 ;XREF[1,0]:   0001bfde
ram:0001bf8e    0c22            movs        param_3,#0xc                            
ram:0001bf90    4243            muls        param_3,param_1                         
ram:0001bf92    5218            adds        param_3,param_3,param_2                 
ram:0001bf94    1d4d            ldr         r5,[DAT_0001c00c]                       ;= 0000FFF0h
ram:0001bf96    d389            ldrh        param_4,[param_3,#0xe]                  
ram:0001bf98    ad1c            adds        r5,r5,#0x2                              
ram:0001bf9a    ab42            cmp         param_4,r5                              
ram:0001bf9c    05d1            bne         LAB_0001bfaa                            
ram:0001bf9e    158b            ldrh        r5,[param_3,#0x18]                      
ram:0001bfa0    6b46            mov         param_4,sp                              
ram:0001bfa2    9d80            strh        r5,[r3,#local_1c+0x20]                  
ram:0001bfa4    d28a            ldrh        param_3,[param_3,#0x16]                 
ram:0001bfa6    da80            strh        param_3,[r3,#local_1a+0x20]             
ram:0001bfa8    16e0            b           LAB_0001bfd8                            
                            LAB_0001bfaa:                 ;XREF[1,0]:   0001bf9c
ram:0001bfaa    184d            ldr         r5,[DAT_0001c00c]                       ;= 0000FFF0h
ram:0001bfac    6d1c            adds        r5,r5,#0x1                              
ram:0001bfae    ab42            cmp         param_4,r5                              
ram:0001bfb0    03d1            bne         LAB_0001bfba                            
ram:0001bfb2    d28a            ldrh        param_3,[param_3,#0x16]                 
ram:0001bfb4    6b46            mov         param_4,sp                              
ram:0001bfb6    1a81            strh        param_3,[r3,#local_18+0x20]             
ram:0001bfb8    0ee0            b           LAB_0001bfd8                            
                            LAB_0001bfba:                 ;XREF[1,0]:   0001bfb0
ram:0001bfba    144d            ldr         r5,[DAT_0001c00c]                       ;= 0000FFF0h
ram:0001bfbc    ad1d            adds        r5,r5,#0x6                              
ram:0001bfbe    ab42            cmp         param_4,r5                              
ram:0001bfc0    03d1            bne         LAB_0001bfca                            
ram:0001bfc2    d28a            ldrh        param_3,[param_3,#0x16]                 
ram:0001bfc4    6b46            mov         param_4,sp                              
ram:0001bfc6    5a81            strh        param_3,[r3,#local_16+0x20]             
ram:0001bfc8    06e0            b           LAB_0001bfd8                            
                            LAB_0001bfca:                 ;XREF[1,0]:   0001bfc0
ram:0001bfca    104d            ldr         r5,[DAT_0001c00c]                       ;= 0000FFF0h
ram:0001bfcc    ed1d            adds        r5,r5,#0x7                              
ram:0001bfce    ab42            cmp         param_4,r5                              
ram:0001bfd0    02d1            bne         LAB_0001bfd8                            
ram:0001bfd2    d28a            ldrh        param_3,[param_3,#0x16]                 
ram:0001bfd4    6b46            mov         param_4,sp                              
ram:0001bfd6    9a81            strh        param_3,[r3,#local_14+0x20]             
                            LAB_0001bfd8:                 ;XREF[4,0]:   0001bfa8,0001bfb8,0001bfc8,0001bfd0
ram:0001bfd8    401c            adds        param_1,param_1,#0x1                    
                            LAB_0001bfda:                 ;XREF[1,0]:   0001bf8c
ram:0001bfda    0a7a            ldrb        param_3,[param_2,#0x8]                  
ram:0001bfdc    8242            cmp         param_3,param_1                         
ram:0001bfde    d6d8            bhi         LAB_0001bf8e                            
ram:0001bfe0    0a49            ldr         param_2,[DAT_0001c00c]                  ;= 0000FFF0h
ram:0001bfe2    2088            ldrh        param_1,[r4,#0x0]                       
ram:0001bfe4    0f31            adds        param_2,#0xf                            
ram:0001bfe6    8842            cmp         param_1,param_2                         
ram:0001bfe8    0bd0            beq         LAB_0001c002                            
ram:0001bfea    a08a            ldrh        param_1,[r4,#0x14]                      
ram:0001bfec    0028            cmp         param_1,#0x0                            
ram:0001bfee    08d1            bne         LAB_0001c002                            
ram:0001bff0    e08a            ldrh        param_1,[r4,#0x16]                      
ram:0001bff2    0028            cmp         param_1,#0x0                            
ram:0001bff4    05d1            bne         LAB_0001c002                            
ram:0001bff6    2046            mov         param_1,r4                              
ram:0001bff8    0a22            movs        param_3,#0xa                            
ram:0001bffa    1430            adds        param_1,#0x14                           
ram:0001bffc    01a9            add         param_2,sp,#0x4                         
ram:0001bffe    fff7abf8        bl          FUN_0001b158                            ;undefined FUN_0001b158(undefined4 * ...
                            LAB_0001c002:                 ;XREF[3,0]:   0001bfe8,0001bfee,0001bff4
ram:0001c002    226a            ldr         param_3,[r4,#0x20]                      
ram:0001c004    6946            mov         param_2,sp                              
ram:0001c006    2046            mov         param_1,r4                              
ram:0001c008    9047            blx         param_3                                 
                            LAB_0001c00a:                 ;XREF[3,0]:   0001bf70,0001bf78,0001bf7e
ram:0001c00a    7fbd            pop         {param_1,param_2,param_3,param_4,r4,r...
                            DAT_0001c00c:                 ;XREF[6,0]:   0001bf74,0001bf94,0001bfaa,0001bfba
                                                          ;             0001bfca,0001bfe0
ram:0001c00c    f0ff0000        undefined4  0000FFF0h                               
                            ;************************************************************************************************
                            ;*                                           FUNCTION                                           *
                            ;************************************************************************************************
                            ;undefined FUN_0001c010(void)
          ;local_c       undefined4          -c                      ;XREF[1,0]:   0001c018
          ;local_20      undefined2         -20                      ;XREF[1,0]:   0001c044
                                                          ;XREF[1,0]:   0001cb30
ram:0001c010    00b5            push        {lr}                                    
ram:0001c012    1848            ldr         r0,[PTR_DAT_0001c074]                   ;= 0001e0f4
ram:0001c014    87b0            sub         sp,#0x1c                                
ram:0001c016    c068            ldr         r0,[r0,#0xc]=>DAT_0001e100              ;= 07000001h
ram:0001c018    0590            str         r0,[sp,#local_c+0x20]                   
ram:0001c01a    0023            movs        r3,#0x0                                 
ram:0001c01c    4822            movs        r2,#0x48                                
ram:0001c01e    1649            ldr         r1,[DAT_0001c078]                       ;= 20003EBCh
ram:0001c020    05a8            add         r0,sp,#0x14                             
ram:0001c022    01f071fc        bl          FUN_0001d908                            ;int FUN_0001d908(int param_1, uint p...
ram:0001c026    0028            cmp         r0,#0x0                                 
ram:0001c028    01d0            beq         LAB_0001c02e                            
ram:0001c02a    fff70dfc        bl          FUN_0001b848                            ;undefined FUN_0001b848(void)
                            LAB_0001c02e:                 ;XREF[1,0]:   0001c028
ram:0001c02e    6a46            mov         r2,sp                                   
ram:0001c030    0121            movs        r1,#0x1                                 
ram:0001c032    0620            movs        r0,#0x6                                 
ram:0001c034    01f050fc        bl          FUN_0001d8d8                            ;undefined4 FUN_0001d8d8(int param_1,...
ram:0001c038    0028            cmp         r0,#0x0                                 
ram:0001c03a    01d0            beq         LAB_0001c040                            
ram:0001c03c    fff704fc        bl          FUN_0001b848                            ;undefined FUN_0001b848(void)
                            LAB_0001c040:                 ;XREF[1,0]:   0001c03a
ram:0001c040    0220            movs        r0,#0x2                                 
ram:0001c042    6946            mov         r1,sp                                   
ram:0001c044    0880            strh        r0,[r1,#0x0]=>local_20                  
ram:0001c046    0d48            ldr         r0,[DAT_0001c07c]                       ;= 200038F8h
ram:0001c048    01f06afb        bl          FUN_0001d720                            ;undefined4 FUN_0001d720(void)
ram:0001c04c    0028            cmp         r0,#0x0                                 
ram:0001c04e    01d0            beq         LAB_0001c054                            
ram:0001c050    fff7fafb        bl          FUN_0001b848                            ;undefined FUN_0001b848(void)
                            LAB_0001c054:                 ;XREF[1,0]:   0001c04e
ram:0001c054    6846            mov         r0,sp                                   
ram:0001c056    01f035fc        bl          FUN_0001d8c4                            ;undefined FUN_0001d8c4(void)
ram:0001c05a    0028            cmp         r0,#0x0                                 
ram:0001c05c    01d0            beq         LAB_0001c062                            
ram:0001c05e    fff7f3fb        bl          FUN_0001b848                            ;undefined FUN_0001b848(void)
                            LAB_0001c062:                 ;XREF[1,0]:   0001c05c
ram:0001c062    0748            ldr         r0=>FUN_0001bd80+1,[PTR_FUN_0001bd80+...;= 0001bd81
ram:0001c064    01f024fc        bl          FUN_0001d8b0                            ;undefined4 FUN_0001d8b0(int param_1)
ram:0001c068    0028            cmp         r0,#0x0                                 
ram:0001c06a    01d0            beq         LAB_0001c070                            
ram:0001c06c    fff7ecfb        bl          FUN_0001b848                            ;undefined FUN_0001b848(void)
                            LAB_0001c070:                 ;XREF[1,0]:   0001c06a
ram:0001c070    07b0            add         sp,#0x1c                                
ram:0001c072    00bd            pop         {pc}                                    
                            PTR_DAT_0001c074:             ;XREF[1,0]:   0001c012
ram:0001c074    f4e00100        addr        DAT_0001e0f4                            ;= 20003E5Ch
                            DAT_0001c078:                 ;XREF[1,0]:   0001c01e
ram:0001c078    bc3e0020        undefined4  20003EBCh                               
                            DAT_0001c07c:                 ;XREF[1,0]:   0001c046
ram:0001c07c    f8380020        undefined4  200038F8h                               
                            PTR_FUN_0001bd80+1_0001c080:  ;XREF[1,0]:   0001c062
ram:0001c080    81bd0100        addr        FUN_0001bd80+1                          
ram:0001c084    10              ??          10h                                     
ram:0001c085    b5              ??          B5h                                     
ram:0001c086    11              ??          11h                                     
ram:0001c087    28              ??          28h    (                                
ram:0001c088    01              ??          01h                                     
ram:0001c089    d0              ??          D0h                                     
ram:0001c08a    ff              ??          FFh                                     
ram:0001c08b    f7              ??          F7h                                     
ram:0001c08c    dd              ??          DDh                                     
ram:0001c08d    fb              ??          FBh                                     
ram:0001c08e    10              ??          10h                                     
ram:0001c08f    bd              ??          BDh                                     
ram:0001c090    01              ??          01h                                     
ram:0001c091    29              ??          29h    )                                
ram:0001c092    08              ??          08h                                     
ram:0001c093    d1              ??          D1h                                     
ram:0001c094    bf              ??          BFh                                     
ram:0001c095    f3              ??          F3h                                     
ram:0001c096    4f              ??          4Fh    O                                
ram:0001c097    8f              ??          8Fh                                     
ram:0001c098    04              ??          04h                                     
ram:0001c099    49              ??          49h    I                                
ram:0001c09a    03              ??          03h                                     
ram:0001c09b    48              ??          48h    H                                
ram:0001c09c    c8              ??          C8h                                     
ram:0001c09d    60              ??          60h    `                                
ram:0001c09e    bf              ??          BFh                                     
ram:0001c09f    f3              ??          F3h                                     
ram:0001c0a0    4f              ??          4Fh    O                                
ram:0001c0a1    8f              ??          8Fh                                     
ram:0001c0a2    00              ??          00h                                     
ram:0001c0a3    bf              ??          BFh                                     
ram:0001c0a4    fd              ??          FDh                                     
ram:0001c0a5    e7              ??          E7h                                     
ram:0001c0a6    70              ??          70h    p                                
ram:0001c0a7    47              ??          47h    G                                
ram:0001c0a8    04              ??          04h                                     
ram:0001c0a9    00              ??          00h                                     
ram:0001c0aa    fa              ??          FAh                                     
ram:0001c0ab    05              ??          05h                                     
ram:0001c0ac    00              ??          00h                                     
ram:0001c0ad    ed              ??          EDh                                     
ram:0001c0ae    00              ??          00h                                     
ram:0001c0af    e0              ??          E0h                                     
                            ;************************************************************************************************
                            ;*                                           FUNCTION                                           *
                            ;************************************************************************************************
                            ;undefined4 FUN_0001c0b0(void)
                                                          ;XREF[1,0]:   0001cb96
ram:0001c0b0    10b5            push        {r4,lr}                                 
ram:0001c0b2    074a            ldr         r2,[DAT_0001c0d0]                       ;= 00000BB8h
ram:0001c0b4    0121            movs        r1,#0x1                                 
ram:0001c0b6    0748            ldr         r0,[DAT_0001c0d4]                       ;= 20003DE4h
ram:0001c0b8    fff77efb        bl          FUN_0001b7b8                            ;int FUN_0001b7b8(int param_1, uint p...
ram:0001c0bc    0028            cmp         r0,#0x0                                 
ram:0001c0be    03d1            bne         LAB_0001c0c8                            
ram:0001c0c0    fff768fb        bl          FUN_0001b794                            ;undefined4 FUN_0001b794(void)
ram:0001c0c4    0028            cmp         r0,#0x0                                 
ram:0001c0c6    01d0            beq         LAB_0001c0cc                            
                            LAB_0001c0c8:                 ;XREF[1,0]:   0001c0be
ram:0001c0c8    0020            movs        r0,#0x0                                 
ram:0001c0ca    10bd            pop         {r4,pc}                                 
                            LAB_0001c0cc:                 ;XREF[1,0]:   0001c0c6
ram:0001c0cc    0120            movs        r0,#0x1                                 
ram:0001c0ce    10bd            pop         {r4,pc}                                 
                            DAT_0001c0d0:                 ;XREF[1,0]:   0001c0b2
ram:0001c0d0    b80b0000        undefined4  00000BB8h                               
                            DAT_0001c0d4:                 ;XREF[1,0]:   0001c0b6
ram:0001c0d4    e43d0020        undefined4  20003DE4h                               
                            ;************************************************************************************************
                            ;*                                           FUNCTION                                           *
                            ;************************************************************************************************
                            ;undefined FUN_0001c0d8(uint param_1)
          ;param_1       uint                r0                      
                                                          ;XREF[1,0]:   0001cdb0
ram:0001c0d8    0022            movs        r2,#0x0                                 
ram:0001c0da    d243            mvns        r2,r2                                   
ram:0001c0dc    8300            lsls        r3,param_1,#0x2                         
ram:0001c0de    0449            ldr         r1,[DAT_0001c0f0]                       ;= 20005274h
ram:0001c0e0    0428            cmp         param_1,#0x4                            
ram:0001c0e2    ca50            str         r2,[r1,r3]=>DAT_20005274                
ram:0001c0e4    02d3            bcc         LAB_0001c0ec                            
ram:0001c0e6    0818            adds        param_1,r1,param_1                      
ram:0001c0e8    2030            adds        param_1,#0x20                           
ram:0001c0ea    0277            strb        r2,[param_1,#0x1c]=>DAT_200052b0        
                            LAB_0001c0ec:                 ;XREF[1,0]:   0001c0e4
ram:0001c0ec    7047            bx          lr                                      
ram:0001c0ee    0000            movs        r0,r0                                   
                            DAT_0001c0f0:                 ;XREF[1,0]:   0001c0de
ram:0001c0f0    74520020        undefined4  20005274h                               
                            ;************************************************************************************************
                            ;*                                           FUNCTION                                           *
                            ;************************************************************************************************
                            ;int FUN_0001c0f4(int param_1, undefined4 param_2, int param_3)
          ;param_1       int                 r0                      
          ;param_2       undefined4          r1                      
          ;param_3       int                 r2                      
                                                          ;XREF[1,0]:   0001ccf2
ram:0001c0f4    f0b5            push        {r4,r5,r6,r7,lr}                        
ram:0001c0f6    0025            movs        r5,#0x0                                 
ram:0001c0f8    ed43            mvns        r5,r5                                   
ram:0001c0fa    002a            cmp         param_3,#0x0                            
ram:0001c0fc    02d0            beq         LAB_0001c104                            
ram:0001c0fe    0023            movs        r3,#0x0                                 
ram:0001c100    0426            movs        r6,#0x4                                 
ram:0001c102    01e0            b           LAB_0001c108                            
                            LAB_0001c104:                 ;XREF[1,0]:   0001c0fc
ram:0001c104    0423            movs        r3,#0x4                                 
ram:0001c106    0826            movs        r6,#0x8                                 
                            LAB_0001c108:                 ;XREF[1,0]:   0001c102
ram:0001c108    0b4c            ldr         r4,[DAT_0001c138]                       ;= 20005274h
ram:0001c10a    04e0            b           LAB_0001c116                            
                            LAB_0001c10c:                 ;XREF[1,0]:   0001c118
ram:0001c10c    9f00            lsls        r7,r3,#0x2                              
ram:0001c10e    e759            ldr         r7,[r4,r7]=>DAT_20005274                
ram:0001c110    7f1c            adds        r7,r7,#0x1                              
ram:0001c112    04d0            beq         LAB_0001c11e                            
ram:0001c114    5b1c            adds        r3,r3,#0x1                              
                            LAB_0001c116:                 ;XREF[1,0]:   0001c10a
ram:0001c116    b342            cmp         r3,r6                                   
ram:0001c118    f8d3            bcc         LAB_0001c10c                            
                            LAB_0001c11a:                 ;XREF[2,0]:   0001c12c,0001c134
ram:0001c11a    2846            mov         param_1,r5                              
ram:0001c11c    f0bd            pop         {r4,r5,r6,r7,pc}                        
                            LAB_0001c11e:                 ;XREF[1,0]:   0001c112
ram:0001c11e    2618            adds        r6,r4,param_1                           
ram:0001c120    5db2            sxtb        r5,r3                                   
ram:0001c122    2036            adds        r6,#0x20                                
ram:0001c124    3570            strb        r5,[r6,#0x0]=>DAT_20005294              
ram:0001c126    9e00            lsls        r6,r3,#0x2                              
ram:0001c128    a151            str         param_2,[r4,r6]=>DAT_20005274           
ram:0001c12a    002a            cmp         param_3,#0x0                            
ram:0001c12c    f5d1            bne         LAB_0001c11a                            
ram:0001c12e    e118            adds        param_2,r4,r3                           
ram:0001c130    2031            adds        param_2,#0x20                           
ram:0001c132    0877            strb        param_1,[param_2,#0x1c]=>DAT_200052b0   
ram:0001c134    f1e7            b           LAB_0001c11a                            
ram:0001c136    0000            movs        r0,r0                                   
                            DAT_0001c138:                 ;XREF[1,0]:   0001c108
ram:0001c138    74520020        undefined4  20005274h                               
                            ;************************************************************************************************
                            ;*                                           FUNCTION                                           *
                            ;************************************************************************************************
                            ;int FUN_0001c13c(int param_1)
          ;param_1       int                 r0                      
                                                          ;XREF[4,0]:   0001b382,0001cc46,0001cc80,0001cca6
ram:0001c13c    0249            ldr         r1,[DAT_0001c148]                       ;= 20005274h
ram:0001c13e    0918            adds        r1,r1,param_1                           
ram:0001c140    2020            movs        param_1,#0x20                           
ram:0001c142    0856            ldrsb       param_1,[r1,param_1]=>DAT_20005294      
ram:0001c144    7047            bx          lr                                      
ram:0001c146    0000            movs        r0,r0                                   
                            DAT_0001c148:                 ;XREF[1,0]:   0001c13c
ram:0001c148    74520020        undefined4  20005274h                               
                            ;************************************************************************************************
                            ;*                                           FUNCTION                                           *
                            ;************************************************************************************************
                            ;undefined8 FUN_0001c14c(undefined4 param_1, undefined4 param_2)
          ;param_1       undefined4          r0                      
          ;param_2       undefined4          r1                      
          ;local_e       undefined2          -e                      ;XREF[1,0]:   0001c180
          ;local_10      undefined2         -10                      ;XREF[1,0]:   0001c17c
                                                          ;XREF[2,0]:   0001d394,0001d4f8
ram:0001c14c    38b5            push        {r3,r4,r5,lr}                           
ram:0001c14e    0b46            mov         r3,param_2                              
ram:0001c150    0146            mov         param_2,param_1                         
ram:0001c152    ff31            adds        param_2,#0xff                           
ram:0001c154    0246            mov         r2,param_1                              
ram:0001c156    a131            adds        param_2,#0xa1                           
ram:0001c158    8879            ldrb        param_1,[param_2,#0x6]                  
ram:0001c15a    4624            movs        r4,#0x46                                
ram:0001c15c    6043            muls        param_1,r4                              
ram:0001c15e    8018            adds        param_1,param_1,r2                      
ram:0001c160    4a79            ldrb        r2,[param_2,#0x5]                       
ram:0001c162    002a            cmp         r2,#0x0                                 
ram:0001c164    08d0            beq         LAB_0001c178                            
ram:0001c166    521e            subs        r2,r2,#0x1                              
ram:0001c168    d2b2            uxtb        r2,r2                                   
ram:0001c16a    0c21            movs        param_2,#0xc                            
ram:0001c16c    4a43            muls        r2,param_2                              
ram:0001c16e    1118            adds        param_2,r2,param_1                      
ram:0001c170    498a            ldrh        param_2,[param_2,#0x12]                 
ram:0001c172    6a46            mov         r2,sp                                   
ram:0001c174    491c            adds        param_2,param_2,#0x1                    
ram:0001c176    01e0            b           LAB_0001c17c                            
                            LAB_0001c178:                 ;XREF[1,0]:   0001c164
ram:0001c178    c188            ldrh        param_2,[param_1,#0x6]                  
ram:0001c17a    6a46            mov         r2,sp                                   
                            LAB_0001c17c:                 ;XREF[1,0]:   0001c176
ram:0001c17c    1180            strh        param_2,[r2,#0x0]=>local_10             
ram:0001c17e    0089            ldrh        param_1,[param_1,#0x8]                  
ram:0001c180    5080            strh        param_1,[r2,#local_e+0x10]              
ram:0001c182    1146            mov         param_2,r2                              
ram:0001c184    1846            mov         param_1,r3                              
ram:0001c186    92df            svc         0x92                                    
ram:0001c188    38bd            pop         {r3,r4,r5,pc}                           
                            ;************************************************************************************************
                            ;*                                           FUNCTION                                           *
                            ;************************************************************************************************
                            ;undefined4 FUN_0001c18a(int param_1)
          ;param_1       int                 r0                      
                                                          ;XREF[1,0]:   0001db68
ram:0001c18a    0022            movs        r2,#0x0                                 
ram:0001c18c    1146            mov         r1,r2                                   
                            LAB_0001c18e:                 ;XREF[1,0]:   0001c198
ram:0001c18e    435c            ldrb        r3,[param_1,r1]                         
ram:0001c190    491c            adds        r1,r1,#0x1                              
ram:0001c192    9a18            adds        r2,r3,r2                                
ram:0001c194    d2b2            uxtb        r2,r2                                   
ram:0001c196    1329            cmp         r1,#0x13                                
ram:0001c198    f9db            blt         LAB_0001c18e                            
ram:0001c19a    c07c            ldrb        param_1,[param_1,#0x13]                 
ram:0001c19c    521c            adds        r2,r2,#0x1                              
ram:0001c19e    9042            cmp         param_1,r2                              
ram:0001c1a0    01d1            bne         LAB_0001c1a6                            
ram:0001c1a2    0120            movs        param_1,#0x1                            
ram:0001c1a4    7047            bx          lr                                      
                            LAB_0001c1a6:                 ;XREF[1,0]:   0001c1a0
ram:0001c1a6    0020            movs        param_1,#0x0                            
ram:0001c1a8    7047            bx          lr                                      
                            ;************************************************************************************************
                            ;*                                           FUNCTION                                           *
                            ;************************************************************************************************
                            ;undefined FUN_0001c1aa(undefined param_1)
          ;param_1       undefined           r0                      
          ;local_10      undefined4         -10                      ;XREF[1,1]:   0001c1b2,0001c1c2
          ;local_14      undefined4         -14                      ;XREF[1,0]:   0001c1b0
          ;local_18      undefined4         -18                      ;XREF[3,2]:   0001c1ae,0001c1b8,0001c1c8,0001c1bc,0001c1be
                                                          ;XREF[3,0]:   0001cb4c,0001dba2,0001dbaa
ram:0001c1aa    3eb5            push        {r1,r2,r3,r4,r5,lr}                     
ram:0001c1ac    0021            movs        r1,#0x0                                 
ram:0001c1ae    0091            str         r1,[sp,#0x0]=>local_18                  
ram:0001c1b0    0191            str         r1,[sp,#local_14+0x18]                  
ram:0001c1b2    0291            str         r1,[sp,#local_10+0x18]                  
ram:0001c1b4    4122            movs        r2,#0x41                                
ram:0001c1b6    6946            mov         r1,sp                                   
ram:0001c1b8    0a70            strb        r2,[r1,#0x0]=>local_18                  
ram:0001c1ba    3022            movs        r2,#0x30                                
ram:0001c1bc    4a70            strb        r2,[r1,#local_18+0x19]                  
ram:0001c1be    8870            strb        param_1,[r1,#local_18+0x1a]             
ram:0001c1c0    5a20            movs        param_1,#0x5a                           
ram:0001c1c2    4872            strb        param_1,[r1,#local_10+0x19]             
ram:0001c1c4    0024            movs        r4,#0x0                                 
ram:0001c1c6    6d46            mov         r5,sp                                   
                            LAB_0001c1c8:                 ;XREF[1,0]:   0001c1d4
ram:0001c1c8    285d            ldrb        param_1,[r5,r4]=>local_18               
ram:0001c1ca    fff7a3fc        bl          FUN_0001bb14                            ;int FUN_0001bb14(undefined param_1)
ram:0001c1ce    641c            adds        r4,r4,#0x1                              
ram:0001c1d0    24b2            sxth        r4,r4                                   
ram:0001c1d2    0a2c            cmp         r4,#0xa                                 
ram:0001c1d4    f8db            blt         LAB_0001c1c8                            
ram:0001c1d6    3ebd            pop         {r1,r2,r3,r4,r5,pc}                     
                            ;************************************************************************************************
                            ;*                                           FUNCTION                                           *
                            ;************************************************************************************************
                            ;undefined FUN_0001c1d8(int param_1, undefined * param_2)
          ;param_1       int                 r0                      
          ;param_2       undefined *         r1                      
          ;local_18      undefined4         -18                      ;XREF[1,1]:   0001c1e0,0001c1ea
          ;local_1c      undefined4         -1c                      ;XREF[1,0]:   0001c1de
          ;local_20      undefined4         -20                      ;XREF[3,3]:   0001c1dc,0001c1e6,0001c20a,0001c1fa,0001c202
                                                                     ;             0001c206
                                                          ;XREF[8,0]:   0001c942,0001ca50,0001ca88,0001d1ca
                                                          ;             0001d220,0001d2ca,0001dca4,0001dd28
ram:0001c1d8    feb5            push        {param_2,r2,r3,r4,r5,r6,r7,lr}          
ram:0001c1da    0022            movs        r2,#0x0                                 
ram:0001c1dc    0092            str         r2,[sp,#0x0]=>local_20                  
ram:0001c1de    0192            str         r2,[sp,#local_1c+0x20]                  
ram:0001c1e0    0292            str         r2,[sp,#local_18+0x20]                  
ram:0001c1e2    4123            movs        r3,#0x41                                
ram:0001c1e4    6a46            mov         r2,sp                                   
ram:0001c1e6    1370            strb        r3,[r2,#0x0]=>local_20                  
ram:0001c1e8    5a23            movs        r3,#0x5a                                
ram:0001c1ea    5372            strb        r3,[r2,#local_18+0x21]                  
ram:0001c1ec    0022            movs        r2,#0x0                                 
ram:0001c1ee    0523            movs        r3,#0x5                                 
ram:0001c1f0    6d46            mov         r5,sp                                   
                            LAB_0001c1f2:                 ;XREF[1,0]:   0001c1fe
ram:0001c1f2    9c1a            subs        r4,r3,r2                                
ram:0001c1f4    ae18            adds        r6,r5,r2                                
ram:0001c1f6    045d            ldrb        r4,[param_1,r4]                         
ram:0001c1f8    521c            adds        r2,r2,#0x1                              
ram:0001c1fa    f470            strb        r4,[r6,#local_20+0x23]                  
ram:0001c1fc    062a            cmp         r2,#0x6                                 
ram:0001c1fe    f8db            blt         LAB_0001c1f2                            
ram:0001c200    0a78            ldrb        r2,[param_2,#0x0]                       
ram:0001c202    6a70            strb        r2,[r5,#local_20+0x21]                  
ram:0001c204    4978            ldrb        param_2,[param_2,#0x1]                  
ram:0001c206    a970            strb        param_2,[r5,#local_20+0x22]             
ram:0001c208    0024            movs        r4,#0x0                                 
                            LAB_0001c20a:                 ;XREF[1,0]:   0001c216
ram:0001c20a    285d            ldrb        param_1,[r5,r4]=>local_20               
ram:0001c20c    fff782fc        bl          FUN_0001bb14                            ;int FUN_0001bb14(undefined param_1)
ram:0001c210    641c            adds        r4,r4,#0x1                              
ram:0001c212    24b2            sxth        r4,r4                                   
ram:0001c214    0a2c            cmp         r4,#0xa                                 
ram:0001c216    f8db            blt         LAB_0001c20a                            
ram:0001c218    febd            pop         {param_2,r2,r3,r4,r5,r6,r7,pc}          
ram:0001c21a    0000            movs        r0,r0                                   
                            ;************************************************************************************************
                            ;*                                           FUNCTION                                           *
                            ;************************************************************************************************
                            ;undefined FUN_0001c21c(void)
                                                          ;XREF[1,0]:   0001d9b2
ram:0001c21c    f8b5            push        {r3,r4,r5,r6,r7,lr}                     
ram:0001c21e    2348            ldr         r0,[DAT_0001c2ac]                       ;= 20003E18h
ram:0001c220    c168            ldr         r1,[r0,#0xc]=>DAT_20003e24              
ram:0001c222    0029            cmp         r1,#0x0                                 
ram:0001c224    3ed0            beq         LAB_0001c2a4                            
ram:0001c226    0e68            ldr         r6,[r1,#0x0]                            
ram:0001c228    2149            ldr         r1,[DAT_0001c2b0]                       ;= 40011500h
ram:0001c22a    4c68            ldr         r4,[r1,#offset DAT_40011504 &0xff]      
ram:0001c22c    0769            ldr         r7,[r0,#0x10]=>DAT_20003e28             
ram:0001c22e    c078            ldrb        r0,[r0,#0x3]=>DAT_20003e1b              
ram:0001c230    e11b            subs        r1,r4,r7                                
ram:0001c232    0d02            lsls        r5,r1,#0x8                              
ram:0001c234    2d0a            lsrs        r5,r5,#0x8                              
ram:0001c236    ed1c            adds        r5,r5,#0x3                              
ram:0001c238    0028            cmp         r0,#0x0                                 
ram:0001c23a    14d1            bne         LAB_0001c266                            
ram:0001c23c    0120            movs        r0,#0x1                                 
ram:0001c23e    1d4a            ldr         r2,[DAT_0001c2b4]                       ;= 40011340h
ram:0001c240    0004            lsls        r0,r0,#0x10                             
ram:0001c242    5060            str         r0,[r2,#0x4]=>DAT_40011344              
ram:0001c244    1b4a            ldr         r2,[DAT_0001c2b4]                       ;= 40011340h
ram:0001c246    403a            subs        r2,#0x40                                
ram:0001c248    5060            str         r0,[r2,#offset DAT_40011304 &0xff]      
ram:0001c24a    1b49            ldr         r1,[DAT_0001c2b8]                       ;= E000E280h
ram:0001c24c    4000            lsls        r0,r0,#0x1                              
ram:0001c24e    0860            str         r0,[r1,#0x0]=>DAT_e000e280              
ram:0001c250    1a49            ldr         r1,[DAT_0001c2bc]                       ;= E000E100h
ram:0001c252    0860            str         r0,[r1,#0x0]=>DAT_e000e100              
ram:0001c254    1a49            ldr         r1=>DAT_40011000,[DAT_0001c2c0]         ;= 40011000h
ram:0001c256    0120            movs        r0,#0x1                                 
ram:0001c258    0860            str         r0,[r1,#0x0]=>DAT_40011000              
ram:0001c25a    2f20            movs        r0,#0x2f                                
ram:0001c25c    fef73aff        bl          FUN_0001b0d4                            ;undefined FUN_0001b0d4(int param_1)
ram:0001c260    1249            ldr         r1,[DAT_0001c2ac]                       ;= 20003E18h
ram:0001c262    0120            movs        r0,#0x1                                 
ram:0001c264    c870            strb        r0,[r1,#0x3]=>DAT_20003e1b              
                            LAB_0001c266:                 ;XREF[1,0]:   0001c23a
ram:0001c266    b542            cmp         r5,r6                                   
ram:0001c268    00d2            bcs         LAB_0001c26c                            
ram:0001c26a    3546            mov         r5,r6                                   
                            LAB_0001c26c:                 ;XREF[1,0]:   0001c268
ram:0001c26c    e819            adds        r0,r5,r7                                
ram:0001c26e    0002            lsls        r0,r0,#0x8                              
ram:0001c270    0f4b            ldr         r3,[DAT_0001c2b0]                       ;= 40011500h
ram:0001c272    000a            lsrs        r0,r0,#0x8                              
ram:0001c274    4033            adds        r3=>DAT_40011540,#0x40                  
ram:0001c276    1860            str         r0,[r3,#0x0]=>DAT_40011540              
ram:0001c278    0d4a            ldr         r2,[DAT_0001c2b0]                       ;= 40011500h
ram:0001c27a    5168            ldr         r1,[r2,#offset DAT_40011504 &0xff]      
ram:0001c27c    001b            subs        r0,r0,r4                                
ram:0001c27e    091b            subs        r1,r1,r4                                
ram:0001c280    0902            lsls        r1,r1,#0x8                              
ram:0001c282    090a            lsrs        r1,r1,#0x8                              
ram:0001c284    0002            lsls        r0,r0,#0x8                              
ram:0001c286    000a            lsrs        r0,r0,#0x8                              
ram:0001c288    c91c            adds        r1,r1,#0x3                              
ram:0001c28a    8142            cmp         r1,r0                                   
ram:0001c28c    09d9            bls         LAB_0001c2a2                            
ram:0001c28e    5068            ldr         r0,[r2,#offset DAT_40011504 &0xff]      
ram:0001c290    1860            str         r0,[r3,#0x0]=>DAT_40011540              
ram:0001c292    2f20            movs        r0,#0x2f                                
ram:0001c294    fef71eff        bl          FUN_0001b0d4                            ;undefined FUN_0001b0d4(int param_1)
ram:0001c298    0120            movs        r0,#0x1                                 
ram:0001c29a    0749            ldr         r1,[DAT_0001c2b8]                       ;= E000E280h
ram:0001c29c    4004            lsls        r0,r0,#0x11                             
ram:0001c29e    8039            subs        r1,#0x80                                
ram:0001c2a0    0860            str         r0,[r1,#0x0]=>DAT_e000e200              
                            LAB_0001c2a2:                 ;XREF[1,0]:   0001c28c
ram:0001c2a2    f8bd            pop         {r3,r4,r5,r6,r7,pc}                     
                            LAB_0001c2a4:                 ;XREF[1,0]:   0001c224
ram:0001c2a4    01f0e2f9        bl          FUN_0001d66c                            ;undefined FUN_0001d66c(void)
ram:0001c2a8    f8bd            pop         {r3,r4,r5,r6,r7,pc}                     
ram:0001c2aa    0000            movs        r0,r0                                   
                            DAT_0001c2ac:                 ;XREF[2,0]:   0001c21e,0001c260
ram:0001c2ac    183e0020        undefined4  20003E18h                               
                            DAT_0001c2b0:                 ;XREF[3,0]:   0001c228,0001c270,0001c278
ram:0001c2b0    00150140        undefined4  40011500h                               
                            DAT_0001c2b4:                 ;XREF[2,0]:   0001c23e,0001c244
ram:0001c2b4    40130140        undefined4  40011340h                               
                            DAT_0001c2b8:                 ;XREF[2,0]:   0001c24a,0001c29a
ram:0001c2b8    80e200e0        undefined4  E000E280h                               
                            DAT_0001c2bc:                 ;XREF[1,0]:   0001c250
ram:0001c2bc    00e100e0        undefined4  E000E100h                               
                            DAT_0001c2c0:                 ;XREF[1,0]:   0001c254
ram:0001c2c0    00100140        undefined4  40011000h                               
                            ;************************************************************************************************
                            ;*                                           FUNCTION                                           *
                            ;************************************************************************************************
                            ;undefined8 LAB_0001c2c4+1(char * param_1, undefined4 param_2, undefined4 param_3, uint param_4)
          ;param_1       char *              r0                      
          ;param_2       undefined4          r1                      
          ;param_3       undefined4          r2                      
          ;param_4       uint                r3                      
                                                          ;XREF[0,2]:   0001cb34,0001cbc0
ram:0001c2c4    10b5            push        {r4,lr}                                 
ram:0001c2c6    4188            ldrh        param_2,[param_1,#0x2]                  
ram:0001c2c8    2422            movs        param_3,#0x24                           
ram:0001c2ca    5143            muls        param_2,param_3                         
ram:0001c2cc    034a            ldr         param_3,[DAT_0001c2dc]                  ;= 20004260h
ram:0001c2ce    8a18            adds        param_3,param_2,param_3                 
ram:0001c2d0    0146            mov         param_2,param_1                         
ram:0001c2d2    1046            mov         param_1,param_3                         
ram:0001c2d4    fff748fe        bl          FUN_0001bf68                            ;undefined8 FUN_0001bf68(ushort * par...
ram:0001c2d8    10bd            pop         {r4,pc}                                 
ram:0001c2da    0000            movs        r0,r0                                   
                            DAT_0001c2dc:                 ;XREF[1,0]:   0001c2cc
ram:0001c2dc    60420020        undefined4  20004260h                               
                            ;************************************************************************************************
                            ;*                                           FUNCTION                                           *
                            ;************************************************************************************************
                            ;undefined FUN_0001c2e0(int param_1, int param_2, int param_3, int param_4)
          ;param_1       int                 r0                      
          ;param_2       int                 r1                      
          ;param_3       int                 r2                      
          ;param_4       int                 r3                      
                                                          ;XREF[1,0]:   0001c8ba
ram:0001c2e0    f0b5            push        {r4,r5,r6,r7,lr}                        
ram:0001c2e2    1646            mov         r6,param_3                              
ram:0001c2e4    0a46            mov         param_3,param_2                         
ram:0001c2e6    0546            mov         r5,param_1                              
ram:0001c2e8    1946            mov         param_2,param_4                         
ram:0001c2ea    1046            mov         param_1,param_3                         
ram:0001c2ec    fef7aaff        bl          FUN_0001b244                            ;undefined FUN_0001b244(int param_1, ...
ram:0001c2f0    0024            movs        r4,#0x0                                 
ram:0001c2f2    094f            ldr         r7,[DAT_0001c318]                       ;= 20003DDCh
ram:0001c2f4    0ce0            b           LAB_0001c310                            
                            LAB_0001c2f6:                 ;XREF[1,0]:   0001c312
ram:0001c2f6    2819            adds        param_1,r5,r4                           
ram:0001c2f8    fef780ff        bl          FUN_0001b1fc                            ;undefined FUN_0001b1fc(int param_1)
ram:0001c2fc    0020            movs        param_1,#0x0                            
                            LAB_0001c2fe:                 ;XREF[1,0]:   0001c30c
ram:0001c2fe    2118            adds        param_2,r4,param_1                      
ram:0001c300    6a5c            ldrb        param_3,[r5,param_2]                    
                                                          ; FWD[2,0]:   20003ddc,20003ddd
ram:0001c302    3b5c            ldrb        param_4,[r7,param_1]=>DAT_20003ddc      
ram:0001c304    401c            adds        param_1,param_1,#0x1                    
ram:0001c306    5a40            eors        param_3,param_4                         
ram:0001c308    6a54            strb        param_3,[r5,param_2]                    
ram:0001c30a    0828            cmp         param_1,#0x8                            
ram:0001c30c    f7db            blt         LAB_0001c2fe                            
ram:0001c30e    0834            adds        r4,#0x8                                 
                            LAB_0001c310:                 ;XREF[1,0]:   0001c2f4
ram:0001c310    b442            cmp         r4,r6                                   
ram:0001c312    f0db            blt         LAB_0001c2f6                            
ram:0001c314    f0bd            pop         {r4,r5,r6,r7,pc}                        
ram:0001c316    0000            movs        r0,r0                                   
                            DAT_0001c318:                 ;XREF[1,0]:   0001c2f2
ram:0001c318    dc3d0020        undefined4  20003DDCh                               
                            ;************************************************************************************************
                            ;*                                           FUNCTION                                           *
                            ;************************************************************************************************
                            ;undefined FUN_0001c31c(int param_1, int param_2, int param_3, int param_4)
          ;param_1       int                 r0                      
          ;param_2       int                 r1                      
          ;param_3       int                 r2                      
          ;param_4       int                 r3                      
                                                          ;XREF[1,0]:   0001db86
ram:0001c31c    f0b5            push        {r4,r5,r6,r7,lr}                        
ram:0001c31e    1646            mov         r6,param_3                              
ram:0001c320    0a46            mov         param_3,param_2                         
ram:0001c322    0546            mov         r5,param_1                              
ram:0001c324    1946            mov         param_2,param_4                         
ram:0001c326    1046            mov         param_1,param_3                         
ram:0001c328    fef78cff        bl          FUN_0001b244                            ;undefined FUN_0001b244(int param_1, ...
ram:0001c32c    0024            movs        r4,#0x0                                 
ram:0001c32e    094f            ldr         r7,[DAT_0001c354]                       ;= 20003DDCh
ram:0001c330    0ce0            b           LAB_0001c34c                            
                            LAB_0001c332:                 ;XREF[1,0]:   0001c34e
ram:0001c332    0020            movs        param_1,#0x0                            
                            LAB_0001c334:                 ;XREF[1,0]:   0001c342
ram:0001c334    2118            adds        param_2,r4,param_1                      
ram:0001c336    6a5c            ldrb        param_3,[r5,param_2]                    
                                                          ; FWD[2,0]:   20003ddc,20003ddd
ram:0001c338    3b5c            ldrb        param_4,[r7,param_1]=>DAT_20003ddc      
ram:0001c33a    401c            adds        param_1,param_1,#0x1                    
ram:0001c33c    5a40            eors        param_3,param_4                         
ram:0001c33e    6a54            strb        param_3,[r5,param_2]                    
ram:0001c340    0828            cmp         param_1,#0x8                            
ram:0001c342    f7db            blt         LAB_0001c334                            
ram:0001c344    2819            adds        param_1,r5,r4                           
ram:0001c346    fef7a1ff        bl          FUN_0001b28c                            ;undefined FUN_0001b28c(int param_1)
ram:0001c34a    0834            adds        r4,#0x8                                 
                            LAB_0001c34c:                 ;XREF[1,0]:   0001c330
ram:0001c34c    b442            cmp         r4,r6                                   
ram:0001c34e    f0db            blt         LAB_0001c332                            
ram:0001c350    f0bd            pop         {r4,r5,r6,r7,pc}                        
ram:0001c352    0000            movs        r0,r0                                   
                            DAT_0001c354:                 ;XREF[1,0]:   0001c32e
ram:0001c354    dc3d0020        undefined4  20003DDCh                               
                            ;************************************************************************************************
                            ;*                                           FUNCTION                                           *
                            ;************************************************************************************************
                            ;undefined8 FUN_0001c358(int param_1, undefined * param_2, undefined4 param_3)
          ;param_1       int                 r0                      
          ;param_2       undefined *         r1                      
          ;param_3       undefined4          r2                      
          ;local_18      undefined4         -18                      ;XREF[1,0]:   0001c3b8
          ;local_1c      undefined4         -1c                      ;XREF[2,0]:   0001c3b0,0001c3d2
          ;local_28      undefined4         -28                      ;XREF[2,0]:   0001c3a2,0001c3c2
                                                          ;XREF[2,0]:   0001d3ac,0001d46a
ram:0001c358    f7b5            push        {param_1,param_2,param_3,r4,r5,r6,r7,lr}
ram:0001c35a    0546            mov         r5,param_1                              
ram:0001c35c    ff35            adds        r5,#0xff                                
ram:0001c35e    0646            mov         r6,param_1                              
ram:0001c360    a135            adds        r5,#0xa1                                
ram:0001c362    a879            ldrb        param_1,[r5,#0x6]                       
ram:0001c364    4621            movs        param_2,#0x46                           
ram:0001c366    4843            muls        param_1,param_2                         
ram:0001c368    8719            adds        r7,param_1,r6                           
ram:0001c36a    6c79            ldrb        r4,[r5,#0x5]                            
ram:0001c36c    0c20            movs        param_1,#0xc                            
ram:0001c36e    6043            muls        param_1,r4                              
ram:0001c370    c119            adds        param_2,param_1,r7                      
ram:0001c372    3a79            ldrb        param_3,[r7,#0x4]                       
ram:0001c374    601c            adds        param_1,r4,#0x1                         
ram:0001c376    0a31            adds        param_2,#0xa                            
ram:0001c378    82b0            sub         sp,#0x8                                 
ram:0001c37a    9042            cmp         param_1,param_3                         
ram:0001c37c    26d1            bne         LAB_0001c3cc                            
ram:0001c37e    01ab            add         r3,sp,#0x4                              
ram:0001c380    0022            movs        param_3,#0x0                            
ram:0001c382    3046            mov         param_1,r6                              
ram:0001c384    00f054f9        bl          FUN_0001c630                            ;undefined4 FUN_0001c630(int param_1,...
ram:0001c388    0028            cmp         param_1,#0x0                            
ram:0001c38a    22d0            beq         LAB_0001c3d2                            
ram:0001c38c    10e0            b           LAB_0001c3b0                            
                            LAB_0001c38e:                 ;XREF[1,0]:   0001c3d0
ram:0001c38e    401e            subs        param_1,param_1,#0x1                    
ram:0001c390    a042            cmp         param_1,r4                              
ram:0001c392    01d1            bne         LAB_0001c398                            
ram:0001c394    0020            movs        param_1,#0x0                            
ram:0001c396    03e0            b           LAB_0001c3a0                            
                            LAB_0001c398:                 ;XREF[1,0]:   0001c392
ram:0001c398    0c20            movs        param_1,#0xc                            
ram:0001c39a    6043            muls        param_1,r4                              
ram:0001c39c    c019            adds        param_1,param_1,r7                      
ram:0001c39e    1630            adds        param_1,#0x16                           
                            LAB_0001c3a0:                 ;XREF[1,0]:   0001c396
ram:0001c3a0    0246            mov         param_3,param_1                         
ram:0001c3a2    0090            str         param_1,[sp,#0x0]=>local_28             
ram:0001c3a4    01ab            add         r3,sp,#0x4                              
ram:0001c3a6    3046            mov         param_1,r6                              
ram:0001c3a8    00f042f9        bl          FUN_0001c630                            ;undefined4 FUN_0001c630(int param_1,...
ram:0001c3ac    0028            cmp         param_1,#0x0                            
ram:0001c3ae    07d0            beq         LAB_0001c3c0                            
                            LAB_0001c3b0:                 ;XREF[1,0]:   0001c38c
ram:0001c3b0    0398            ldr         param_1,[sp,#local_1c+0x28]             
ram:0001c3b2    0021            movs        param_2,#0x0                            
ram:0001c3b4    0170            strb        param_2,[param_1,#0x0]                  
ram:0001c3b6    01a9            add         param_2,sp,#0x4                         
ram:0001c3b8    0498            ldr         param_1,[sp,#local_18+0x28]             
ram:0001c3ba    93df            svc         0x93                                    
                            LAB_0001c3bc:                 ;XREF[1,0]:   0001c3da
ram:0001c3bc    05b0            add         sp,#0x14                                
ram:0001c3be    f0bd            pop         {r4,r5,r6,r7,pc}                        
                            LAB_0001c3c0:                 ;XREF[1,0]:   0001c3ae
ram:0001c3c0    6879            ldrb        param_1,[r5,#0x5]                       
ram:0001c3c2    0099            ldr         param_2,[sp,#0x0]=>local_28             
ram:0001c3c4    401c            adds        param_1,param_1,#0x1                    
ram:0001c3c6    641c            adds        r4,r4,#0x1                              
ram:0001c3c8    6871            strb        param_1,[r5,#0x5]                       
ram:0001c3ca    e4b2            uxtb        r4,r4                                   
                            LAB_0001c3cc:                 ;XREF[1,0]:   0001c37c
ram:0001c3cc    3879            ldrb        param_1,[r7,#0x4]                       
ram:0001c3ce    a042            cmp         param_1,r4                              
ram:0001c3d0    ddd8            bhi         LAB_0001c38e                            
                            LAB_0001c3d2:                 ;XREF[1,0]:   0001c38a
ram:0001c3d2    0398            ldr         param_1,[sp,#local_1c+0x28]             
ram:0001c3d4    0121            movs        param_2,#0x1                            
ram:0001c3d6    0170            strb        param_2,[param_1,#0x0]                  
ram:0001c3d8    0020            movs        param_1,#0x0                            
ram:0001c3da    efe7            b           LAB_0001c3bc                            
                            ;************************************************************************************************
                            ;*                                           FUNCTION                                           *
                            ;************************************************************************************************
                            ;undefined LAB_0001c3dc+1(void)
                                                          ;XREF[0,2]:   0001b810,0001b828
ram:0001c3dc    f8b5            push        {r3,r4,r5,r6,r7,lr}                     
ram:0001c3de    0026            movs        r6,#0x0                                 
ram:0001c3e0    0124            movs        r4,#0x1                                 
ram:0001c3e2    154d            ldr         r5,[DAT_0001c438]                       ;= 20003E04h
ram:0001c3e4    23e0            b           LAB_0001c42e                            
                            LAB_0001c3e6:                 ;XREF[1,0]:   0001c432
ram:0001c3e6    6968            ldr         r1,[r5,#0x4]=>DAT_20003e08              
ram:0001c3e8    f000            lsls        r0,r6,#0x3                              
ram:0001c3ea    4718            adds        r7,r0,r1                                
ram:0001c3ec    3878            ldrb        r0,[r7,#0x0]                            
ram:0001c3ee    2146            mov         r1,r4                                   
ram:0001c3f0    2a69            ldr         r2,[r5,#0x10]=>DAT_20003e14             
ram:0001c3f2    8140            lsls        r1,r0                                   
ram:0001c3f4    1142            tst         r1,r2                                   
ram:0001c3f6    18d0            beq         LAB_0001c42a                            
ram:0001c3f8    8a43            bics        r2,r1                                   
ram:0001c3fa    2a61            str         r2,[r5,#0x10]=>DAT_20003e14             
ram:0001c3fc    00f0bafc        bl          FUN_0001cd74                            ;int FUN_0001cd74(uint param_1)
ram:0001c400    3a78            ldrb        r2,[r7,#0x0]                            
ram:0001c402    2146            mov         r1,r4                                   
ram:0001c404    eb68            ldr         r3,[r5,#0xc]=>DAT_20003e10              
ram:0001c406    9140            lsls        r1,r2                                   
ram:0001c408    1940            ands        r1,r3                                   
ram:0001c40a    0346            mov         r3,r0                                   
ram:0001c40c    9340            lsls        r3,r2                                   
ram:0001c40e    9942            cmp         r1,r3                                   
ram:0001c410    0bd1            bne         LAB_0001c42a                            
ram:0001c412    7978            ldrb        r1,[r7,#0x1]                            
ram:0001c414    0129            cmp         r1,#0x1                                 
ram:0001c416    01d0            beq         LAB_0001c41c                            
ram:0001c418    0121            movs        r1,#0x1                                 
ram:0001c41a    00e0            b           LAB_0001c41e                            
                            LAB_0001c41c:                 ;XREF[1,0]:   0001c416
ram:0001c41c    0021            movs        r1,#0x0                                 
                            LAB_0001c41e:                 ;XREF[1,0]:   0001c41a
ram:0001c41e    7b68            ldr         r3,[r7,#0x4]                            
ram:0001c420    4140            eors        r1,r0                                   
ram:0001c422    002b            cmp         r3,#0x0                                 
ram:0001c424    01d0            beq         LAB_0001c42a                            
ram:0001c426    1046            mov         r0,r2                                   
ram:0001c428    9847            blx         r3                                      
                            LAB_0001c42a:                 ;XREF[3,0]:   0001c3f6,0001c410,0001c424
ram:0001c42a    761c            adds        r6,r6,#0x1                              
ram:0001c42c    f6b2            uxtb        r6,r6                                   
                            LAB_0001c42e:                 ;XREF[1,0]:   0001c3e4
ram:0001c42e    2878            ldrb        r0,[r5,#0x0]=>DAT_20003e04              
ram:0001c430    8642            cmp         r6,r0                                   
ram:0001c432    d8d3            bcc         LAB_0001c3e6                            
ram:0001c434    f8bd            pop         {r3,r4,r5,r6,r7,pc}                     
ram:0001c436    0000            movs        r0,r0                                   
                            DAT_0001c438:                 ;XREF[1,0]:   0001c3e2
ram:0001c438    043e0020        undefined4  20003E04h                               
                            ;************************************************************************************************
                            ;*                                           FUNCTION                                           *
                            ;************************************************************************************************
                            ;undefined FUN_0001c43c(int param_1, int param_2, undefined2 param_3)
          ;param_1       int                 r0                      
          ;param_2       int                 r1                      
          ;param_3       undefined2          r2                      
          ;local_1c      undefined4         -1c                      ;XREF[1,0]:   0001c476
                                                          ;XREF[3,0]:   0001d3da,0001d496,0001d4d6
ram:0001c43c    f7b5            push        {param_1,param_2,param_3,r4,r5,r6,r7,lr}
ram:0001c43e    ff21            movs        param_2,#0xff                           
ram:0001c440    a731            adds        param_2,#0xa7                           
ram:0001c442    1446            mov         r4,param_3                              
ram:0001c444    095c            ldrb        param_2,[param_2,param_1]               
ram:0001c446    4622            movs        param_3,#0x46                           
ram:0001c448    5143            muls        param_2,param_3                         
ram:0001c44a    0f18            adds        r7,param_2,param_1                      
ram:0001c44c    3846            mov         param_1,r7                              
ram:0001c44e    01f0b3f8        bl          FUN_0001d5b8                            ;undefined4 FUN_0001d5b8(short * para...
ram:0001c452    0600            movs        r6,param_1                              
ram:0001c454    33d0            beq         LAB_0001c4be                            
ram:0001c456    1a4a            ldr         param_3,[DAT_0001c4c0]                  ;= 20003DECh
ram:0001c458    9068            ldr         param_1,[param_3,#0x8]=>DAT_20003df4    
ram:0001c45a    0628            cmp         param_1,#0x6                            
ram:0001c45c    2fd2            bcs         LAB_0001c4be                            
ram:0001c45e    2146            mov         param_2,r4                              
ram:0001c460    1446            mov         r4,param_3                              
ram:0001c462    5022            movs        param_3,#0x50                           
ram:0001c464    5043            muls        param_1,param_3                         
ram:0001c466    174d            ldr         r5,[DAT_0001c4c4]                       ;= 20005074h
ram:0001c468    4622            movs        param_3,#0x46                           
ram:0001c46a    4019            adds        param_1,param_1,r5                      
ram:0001c46c    4180            strh        param_2,[param_1,#0x2]=>DAT_20005076    
ram:0001c46e    3946            mov         param_2,r7                              
ram:0001c470    001d            adds        param_1,param_1,#0x4                    
ram:0001c472    fef771fe        bl          FUN_0001b158                            ;undefined FUN_0001b158(undefined4 * ...
ram:0001c476    0198            ldr         param_1,[sp,#local_1c+0x20]             
ram:0001c478    0027            movs        r7,#0x0                                 
ram:0001c47a    0028            cmp         param_1,#0x0                            
ram:0001c47c    04d0            beq         LAB_0001c488                            
ram:0001c47e    a068            ldr         param_1,[r4,#0x8]=>DAT_20003df4         
ram:0001c480    5021            movs        param_2,#0x50                           
ram:0001c482    4843            muls        param_1,param_2                         
ram:0001c484    2f54            strb        r7,[r5,param_1]=>DAT_20005074           
ram:0001c486    04e0            b           LAB_0001c492                            
                            LAB_0001c488:                 ;XREF[1,0]:   0001c47c
ram:0001c488    a068            ldr         param_1,[r4,#0x8]=>DAT_20003df4         
ram:0001c48a    0221            movs        param_2,#0x2                            
ram:0001c48c    5022            movs        param_3,#0x50                           
ram:0001c48e    5043            muls        param_1,param_3                         
ram:0001c490    2954            strb        param_2,[r5,param_1]=>DAT_20005074      
                            LAB_0001c492:                 ;XREF[1,0]:   0001c486
ram:0001c492    a068            ldr         param_1,[r4,#0x8]=>DAT_20003df4         
ram:0001c494    5021            movs        param_2,#0x50                           
ram:0001c496    4143            muls        param_2,param_1                         
ram:0001c498    4919            adds        param_2,param_2,r5                      
ram:0001c49a    401c            adds        param_1,param_1,#0x1                    
ram:0001c49c    ce64            str         r6,[param_2,#0x4c]=>DAT_200050c0        
ram:0001c49e    a060            str         param_1,[r4,#0x8]=>DAT_20003df4         
ram:0001c4a0    e168            ldr         param_2,[r4,#0xc]=>DAT_20003df8         
ram:0001c4a2    8842            cmp         param_1,param_2                         
ram:0001c4a4    0bd1            bne         LAB_0001c4be                            
ram:0001c4a6    0026            movs        r6,#0x0                                 
ram:0001c4a8    05e0            b           LAB_0001c4b6                            
                            LAB_0001c4aa:                 ;XREF[1,0]:   0001c4ba
ram:0001c4aa    5020            movs        param_1,#0x50                           
ram:0001c4ac    7043            muls        param_1,r6                              
ram:0001c4ae    4019            adds        param_1=>DAT_20005074,param_1,r5        
ram:0001c4b0    c16c            ldr         param_2,[param_1,#0x4c]=>DAT_200050c0   
ram:0001c4b2    8847            blx         param_2                                 
ram:0001c4b4    761c            adds        r6,r6,#0x1                              
                            LAB_0001c4b6:                 ;XREF[1,0]:   0001c4a8
ram:0001c4b6    e068            ldr         param_1,[r4,#0xc]=>DAT_20003df8         
ram:0001c4b8    8642            cmp         r6,param_1                              
ram:0001c4ba    f6d3            bcc         LAB_0001c4aa                            
ram:0001c4bc    a760            str         r7,[r4,#0x8]=>DAT_20003df4              
                            LAB_0001c4be:                 ;XREF[3,0]:   0001c454,0001c45c,0001c4a4
ram:0001c4be    febd            pop         {param_2,param_3,r3,r4,r5,r6,r7,pc}     
                            DAT_0001c4c0:                 ;XREF[1,0]:   0001c456
ram:0001c4c0    ec3d0020        undefined4  20003DECh                               
                            DAT_0001c4c4:                 ;XREF[1,0]:   0001c466
ram:0001c4c4    74500020        undefined4  20005074h                               
                            ;************************************************************************************************
                            ;*                                           FUNCTION                                           *
                            ;************************************************************************************************
                            ;undefined FUN_0001c4c8(int param_1)
          ;param_1       int                 r0                      
          ;local_54      undefined4         -54                      ;XREF[1,0]:   0001c4ec
          ;local_56      undefined2         -56                      ;XREF[1,0]:   0001c4e6
          ;local_58      undefined1         -58                      ;XREF[1,0]:   0001c4ea
                                                          ;XREF[4,0]:   0001d3ba,0001d478,0001d508,0001d56a
ram:0001c4c8    30b5            push        {r4,r5,lr}                              
ram:0001c4ca    0d46            mov         r5,r1                                   
ram:0001c4cc    ff21            movs        r1,#0xff                                
ram:0001c4ce    a731            adds        r1,#0xa7                                
ram:0001c4d0    1446            mov         r4,r2                                   
ram:0001c4d2    095c            ldrb        r1,[r1,param_1]                         
ram:0001c4d4    4622            movs        r2,#0x46                                
ram:0001c4d6    5143            muls        r1,r2                                   
ram:0001c4d8    93b0            sub         sp,#0x4c                                
ram:0001c4da    0818            adds        param_1,r1,param_1                      
ram:0001c4dc    01f06cf8        bl          FUN_0001d5b8                            ;undefined4 FUN_0001d5b8(short * para...
ram:0001c4e0    0300            movs        r3,param_1                              
ram:0001c4e2    05d0            beq         LAB_0001c4f0                            
ram:0001c4e4    6846            mov         param_1,sp                              
ram:0001c4e6    4480            strh        r4,[r0,#local_56+0x58]                  
ram:0001c4e8    0121            movs        r1,#0x1                                 
ram:0001c4ea    0170            strb        r1,[param_1,#0x0]=>local_58             
ram:0001c4ec    0195            str         r5,[sp,#local_54+0x58]                  
ram:0001c4ee    9847            blx         r3                                      
                            LAB_0001c4f0:                 ;XREF[1,0]:   0001c4e2
ram:0001c4f0    13b0            add         sp,#0x4c                                
ram:0001c4f2    30bd            pop         {r4,r5,pc}                              
                            ;************************************************************************************************
                            ;*                                           FUNCTION                                           *
                            ;************************************************************************************************
                            ;undefined4 FUN_0001c4f4(int * param_1)
          ;param_1       int *               r0                      
                                                          ;XREF[1,0]:   0001d94a
ram:0001c4f4    10b5            push        {r4,lr}                                 
ram:0001c4f6    0e49            ldr         r1,[DAT_0001c530]                       ;= 20003E18h
ram:0001c4f8    0023            movs        r3,#0x0                                 
ram:0001c4fa    4a78            ldrb        r2,[r1,#0x1]=>DAT_20003e19              
ram:0001c4fc    8c78            ldrb        r4,[r1,#0x2]=>DAT_20003e1a              
ram:0001c4fe    a242            cmp         r2,r4                                   
ram:0001c500    12d0            beq         LAB_0001c528                            
ram:0001c502    521c            adds        r2,r2,#0x1                              
ram:0001c504    d2b2            uxtb        r2,r2                                   
ram:0001c506    4a70            strb        r2,[r1,#0x1]=>DAT_20003e19              
ram:0001c508    022a            cmp         r2,#0x2                                 
ram:0001c50a    00d1            bne         LAB_0001c50e                            
ram:0001c50c    4b70            strb        r3,[r1,#0x1]=>DAT_20003e19              
                            LAB_0001c50e:                 ;XREF[1,0]:   0001c50a
ram:0001c50e    4a78            ldrb        r2,[r1,#0x1]=>DAT_20003e19              
ram:0001c510    074b            ldr         r3,[DAT_0001c530]                       ;= 20003E18h
ram:0001c512    9200            lsls        r2,r2,#0x2                              
ram:0001c514    1833            adds        r3,#0x18                                
ram:0001c516    9a58            ldr         r2,[r3,r2]=>DAT_20003e30                
ram:0001c518    0260            str         r2,[param_1,#0x0]                       
ram:0001c51a    0869            ldr         param_1,[r1,#0x10]=>DAT_20003e28        
ram:0001c51c    1018            adds        param_1,r2,param_1                      
ram:0001c51e    0002            lsls        param_1,param_1,#0x8                    
ram:0001c520    000a            lsrs        param_1,param_1,#0x8                    
ram:0001c522    0861            str         param_1,[r1,#0x10]=>DAT_20003e28        
ram:0001c524    0120            movs        param_1,#0x1                            
ram:0001c526    10bd            pop         {r4,pc}                                 
                            LAB_0001c528:                 ;XREF[1,0]:   0001c500
ram:0001c528    0360            str         r3,[param_1,#0x0]                       
ram:0001c52a    0020            movs        param_1,#0x0                            
ram:0001c52c    10bd            pop         {r4,pc}                                 
ram:0001c52e    0000            movs        r0,r0                                   
                            DAT_0001c530:                 ;XREF[2,0]:   0001c4f6,0001c510
ram:0001c530    183e0020        undefined4  20003E18h                               
                            ;************************************************************************************************
                            ;*                                           FUNCTION                                           *
                            ;************************************************************************************************
                            ;undefined FUN_0001c534(int * param_1, undefined * param_2)
          ;param_1       int *               r0                      
          ;param_2       undefined *         r1                      
                                                          ;XREF[1,0]:   0001b86a
ram:0001c534    8268            ldr         r2,[param_1,#0x8]                       
ram:0001c536    8388            ldrh        r3,[param_1,#0x4]                       
ram:0001c538    1a40            ands        r2,r3                                   
ram:0001c53a    0368            ldr         r3,[param_1,#0x0]                       
ram:0001c53c    9a5c            ldrb        r2,[r3,r2]                              
ram:0001c53e    0a70            strb        r2,[param_2,#0x0]                       
ram:0001c540    8168            ldr         param_2,[param_1,#0x8]                  
ram:0001c542    491c            adds        param_2,param_2,#0x1                    
ram:0001c544    8160            str         param_2,[param_1,#0x8]                  
ram:0001c546    7047            bx          lr                                      
                            ;************************************************************************************************
                            ;*                                           FUNCTION                                           *
                            ;************************************************************************************************
                            ;undefined FUN_0001c548(int * param_1, undefined param_2)
          ;param_1       int *               r0                      
          ;param_2       undefined           r1                      
                                                          ;XREF[1,0]:   0001b8a8
ram:0001c548    c268            ldr         r2,[param_1,#0xc]                       
ram:0001c54a    8388            ldrh        r3,[param_1,#0x4]                       
ram:0001c54c    1a40            ands        r2,r3                                   
ram:0001c54e    0368            ldr         r3,[param_1,#0x0]                       
ram:0001c550    9954            strb        param_2,[r3,r2]                         
ram:0001c552    c168            ldr         param_2,[param_1,#0xc]                  
ram:0001c554    491c            adds        param_2,param_2,#0x1                    
ram:0001c556    c160            str         param_2,[param_1,#0xc]                  
ram:0001c558    7047            bx          lr                                      
                            ;************************************************************************************************
                            ;*                                           FUNCTION                                           *
                            ;************************************************************************************************
                            ;undefined4 FUN_0001c55a(undefined4 param_1)
          ;param_1       undefined4          r0                      
ram:0001c55a    10b5            push        {r4,lr}                                 
ram:0001c55c    0446            mov         r4,param_1                              
ram:0001c55e    c0b2            uxtb        param_1,param_1                         
ram:0001c560    fff7d8fa        bl          FUN_0001bb14                            ;int FUN_0001bb14(undefined param_1)
ram:0001c564    2046            mov         param_1,r4                              
ram:0001c566    10bd            pop         {r4,pc}                                 
                            ;************************************************************************************************
                            ;*                                           FUNCTION                                           *
                            ;************************************************************************************************
                            ;longlong FUN_0001c568(uint param_1, undefined4 param_2, undefined4 param_3, undefined4 param_4)
          ;param_1       uint                r0                      
          ;param_2       undefined4          r1                      
          ;param_3       undefined4          r2                      
          ;param_4       undefined4          r3                      
ram:0001c568    f8b5            push        {param_4,r4,r5,r6,r7,lr}                
ram:0001c56a    0746            mov         r7,param_1                              
ram:0001c56c    104e            ldr         r6,[PTR_DAT_0001c5b0]                   ;= 0001e178
ram:0001c56e    0125            movs        r5,#0x1                                 
ram:0001c570    bd40            lsls        r5,r7                                   
ram:0001c572    3068            ldr         param_1,[r6,#0x0]=>DAT_0001e178         ;= 200052D8h
ram:0001c574    fff73afa        bl          FUN_0001b9ec                            ;undefined4 FUN_0001b9ec(int param_1,...
ram:0001c578    0028            cmp         param_1,#0x0                            
ram:0001c57a    0dd1            bne         LAB_0001c598                            
ram:0001c57c    0d4c            ldr         r4,[DAT_0001c5b4]                       ;= 20003E04h
ram:0001c57e    2069            ldr         param_1,[r4,#0x10]=>DAT_20003e14        
ram:0001c580    2842            tst         param_1,r5                              
ram:0001c582    07d1            bne         LAB_0001c594                            
ram:0001c584    3846            mov         param_1,r7                              
ram:0001c586    00f0f5fb        bl          FUN_0001cd74                            ;int FUN_0001cd74(uint param_1)
ram:0001c58a    0028            cmp         param_1,#0x0                            
ram:0001c58c    e068            ldr         param_1,[r4,#0xc]=>DAT_20003e10         
ram:0001c58e    04d0            beq         LAB_0001c59a                            
ram:0001c590    2843            orrs        param_1,r5                              
ram:0001c592    03e0            b           LAB_0001c59c                            
                            LAB_0001c594:                 ;XREF[1,0]:   0001c582
ram:0001c594    a843            bics        param_1,r5                              
ram:0001c596    2061            str         param_1,[r4,#0x10]=>DAT_20003e14        
                            LAB_0001c598:                 ;XREF[1,0]:   0001c57a
ram:0001c598    f8bd            pop         {param_4,r4,r5,r6,r7,pc}                
                            LAB_0001c59a:                 ;XREF[1,0]:   0001c58e
ram:0001c59a    a843            bics        param_1,r5                              
                            LAB_0001c59c:                 ;XREF[1,0]:   0001c592
ram:0001c59c    e060            str         param_1,[r4,#0xc]=>DAT_20003e10         
ram:0001c59e    2069            ldr         param_1,[r4,#0x10]=>DAT_20003e14        
ram:0001c5a0    0022            movs        param_3,#0x0                            
ram:0001c5a2    2843            orrs        param_1,r5                              
ram:0001c5a4    2061            str         param_1,[r4,#0x10]=>DAT_20003e14        
ram:0001c5a6    a168            ldr         param_2,[r4,#0x8]=>DAT_20003e0c         
ram:0001c5a8    3068            ldr         param_1,[r6,#0x0]=>DAT_0001e178         ;= 200052D8h
ram:0001c5aa    fff7e1f9        bl          FUN_0001b970                            ;longlong FUN_0001b970(int param_1, u...
ram:0001c5ae    f8bd            pop         {param_4,r4,r5,r6,r7,pc}                
                            PTR_DAT_0001c5b0:             ;XREF[1,0]:   0001c56c
ram:0001c5b0    78e10100        addr        DAT_0001e178                            ;= 200052D8h
                            DAT_0001c5b4:                 ;XREF[1,0]:   0001c57c
ram:0001c5b4    043e0020        undefined4  20003E04h                               
                            ;************************************************************************************************
                            ;*                                           FUNCTION                                           *
                            ;************************************************************************************************
                            ;undefined FUN_0001c5b8(void)
          ;local_18      undefined4         -18                      ;XREF[2,0]:   0001c5f8,0001c604
                                                          ;XREF[1,0]:   0001b4aa
ram:0001c5b8    f8b5            push        {r3,r4,r5,r6,r7,lr}                     
ram:0001c5ba    1c4c            ldr         r4,[DAT_0001c62c]                       ;= 20003E3Ch
ram:0001c5bc    2078            ldrb        r0,[r4,#0x0]=>DAT_20003e3c              
ram:0001c5be    0028            cmp         r0,#0x0                                 
ram:0001c5c0    33d0            beq         LAB_0001c62a                            
ram:0001c5c2    2069            ldr         r0,[r4,#0x10]=>DAT_20003e4c             
ram:0001c5c4    0028            cmp         r0,#0x0                                 
ram:0001c5c6    07d0            beq         LAB_0001c5d8                            
ram:0001c5c8    0026            movs        r6,#0x0                                 
                            LAB_0001c5ca:                 ;XREF[1,0]:   0001c5da
ram:0001c5ca    e068            ldr         r0,[r4,#0xc]=>DAT_20003e48              
ram:0001c5cc    0028            cmp         r0,#0x0                                 
ram:0001c5ce    05d0            beq         LAB_0001c5dc                            
ram:0001c5d0    0025            movs        r5,#0x0                                 
                            LAB_0001c5d2:                 ;XREF[2,0]:   0001c5de,0001c628
ram:0001c5d2    002e            cmp         r6,#0x0                                 
ram:0001c5d4    04d0            beq         LAB_0001c5e0                            
ram:0001c5d6    11e0            b           LAB_0001c5fc                            
                            LAB_0001c5d8:                 ;XREF[1,0]:   0001c5c6
ram:0001c5d8    0126            movs        r6,#0x1                                 
ram:0001c5da    f6e7            b           LAB_0001c5ca                            
                            LAB_0001c5dc:                 ;XREF[1,0]:   0001c5ce
ram:0001c5dc    0125            movs        r5,#0x1                                 
ram:0001c5de    f8e7            b           LAB_0001c5d2                            
                            LAB_0001c5e0:                 ;XREF[2,0]:   0001c5d4,0001c624
ram:0001c5e0    6846            mov         r0,sp                                   
ram:0001c5e2    52df            svc         0x52                                    
ram:0001c5e4    0528            cmp         r0,#0x5                                 
ram:0001c5e6    04d0            beq         LAB_0001c5f2                            
ram:0001c5e8    0028            cmp         r0,#0x0                                 
ram:0001c5ea    04d0            beq         LAB_0001c5f6                            
ram:0001c5ec    fff72cf9        bl          FUN_0001b848                            ;undefined FUN_0001b848(void)
ram:0001c5f0    04e0            b           LAB_0001c5fc                            
                            LAB_0001c5f2:                 ;XREF[1,0]:   0001c5e6
ram:0001c5f2    0126            movs        r6,#0x1                                 
ram:0001c5f4    02e0            b           LAB_0001c5fc                            
                            LAB_0001c5f6:                 ;XREF[1,0]:   0001c5ea
ram:0001c5f6    2169            ldr         r1,[r4,#0x10]=>DAT_20003e4c             
ram:0001c5f8    0098            ldr         r0=>local_18,[sp,#0x0]                  
ram:0001c5fa    8847            blx         r1                                      
                            LAB_0001c5fc:                 ;XREF[3,0]:   0001c5d6,0001c5f0,0001c5f4
ram:0001c5fc    002d            cmp         r5,#0x0                                 
ram:0001c5fe    10d1            bne         LAB_0001c622                            
ram:0001c600    6088            ldrh        r0,[r4,#0x2]=>DAT_20003e3e              
ram:0001c602    6946            mov         r1,sp                                   
ram:0001c604    0880            strh        r0,[r1,#0x0]=>local_18                  
ram:0001c606    a068            ldr         r0,[r4,#0x8]=>DAT_20003e44              
ram:0001c608    61df            svc         0x61                                    
ram:0001c60a    0528            cmp         r0,#0x5                                 
ram:0001c60c    04d0            beq         LAB_0001c618                            
ram:0001c60e    0028            cmp         r0,#0x0                                 
ram:0001c610    04d0            beq         LAB_0001c61c                            
ram:0001c612    fff719f9        bl          FUN_0001b848                            ;undefined FUN_0001b848(void)
ram:0001c616    04e0            b           LAB_0001c622                            
                            LAB_0001c618:                 ;XREF[1,0]:   0001c60c
ram:0001c618    0125            movs        r5,#0x1                                 
ram:0001c61a    02e0            b           LAB_0001c622                            
                            LAB_0001c61c:                 ;XREF[1,0]:   0001c610
ram:0001c61c    e168            ldr         r1,[r4,#0xc]=>DAT_20003e48              
ram:0001c61e    a068            ldr         r0,[r4,#0x8]=>DAT_20003e44              
ram:0001c620    8847            blx         r1                                      
                            LAB_0001c622:                 ;XREF[3,0]:   0001c5fe,0001c616,0001c61a
ram:0001c622    002e            cmp         r6,#0x0                                 
ram:0001c624    dcd0            beq         LAB_0001c5e0                            
ram:0001c626    002d            cmp         r5,#0x0                                 
ram:0001c628    d3d0            beq         LAB_0001c5d2                            
                            LAB_0001c62a:                 ;XREF[1,0]:   0001c5c0
ram:0001c62a    f8bd            pop         {r3,r4,r5,r6,r7,pc}                     
                            DAT_0001c62c:                 ;XREF[1,0]:   0001c5ba
ram:0001c62c    3c3e0020        undefined4  20003E3Ch                               
                            ;************************************************************************************************
                            ;*                                           FUNCTION                                           *
                            ;************************************************************************************************
                            ;undefined4 FUN_0001c630(int param_1, int param_2, int param_3, short * param_4)
          ;param_1       int                 r0                      
          ;param_2       int                 r1                      
          ;param_3       int                 r2                      
          ;param_4       short *             r3                      
                                                          ;XREF[2,0]:   0001c384,0001c3a8
ram:0001c630    30b5            push        {r4,r5,lr}                              
ram:0001c632    0989            ldrh        param_2,[param_2,#0x8]                  
ram:0001c634    002a            cmp         param_3,#0x0                            
ram:0001c636    05d0            beq         LAB_0001c644                            
ram:0001c638    d088            ldrh        param_1,[param_3,#0x6]                  
ram:0001c63a    491c            adds        param_2,param_2,#0x1                    
ram:0001c63c    8142            cmp         param_2,param_1                         
ram:0001c63e    13d1            bne         LAB_0001c668                            
                            LAB_0001c640:                 ;XREF[1,0]:   0001c656
ram:0001c640    0020            movs        param_1,#0x0                            
ram:0001c642    30bd            pop         {r4,r5,pc}                              
                            LAB_0001c644:                 ;XREF[1,0]:   0001c636
ram:0001c644    0246            mov         param_3,param_1                         
ram:0001c646    ff32            adds        param_3,#0xff                           
ram:0001c648    a132            adds        param_3,#0xa1                           
ram:0001c64a    9479            ldrb        r4,[param_3,#0x6]                       
ram:0001c64c    4625            movs        r5,#0x46                                
ram:0001c64e    6c43            muls        r4,r5                                   
ram:0001c650    2418            adds        r4,r4,param_1                           
ram:0001c652    2489            ldrh        r4,[r4,#0x8]                            
ram:0001c654    a142            cmp         param_2,r4                              
ram:0001c656    f3d0            beq         LAB_0001c640                            
ram:0001c658    491c            adds        param_2,param_2,#0x1                    
ram:0001c65a    1980            strh        param_2,[param_4,#0x0]                  
ram:0001c65c    9179            ldrb        param_2,[param_3,#0x6]                  
ram:0001c65e    4622            movs        param_3,#0x46                           
ram:0001c660    5143            muls        param_2,param_3                         
ram:0001c662    0818            adds        param_1,param_2,param_1                 
ram:0001c664    0089            ldrh        param_1,[param_1,#0x8]                  
ram:0001c666    02e0            b           LAB_0001c66e                            
                            LAB_0001c668:                 ;XREF[1,0]:   0001c63e
ram:0001c668    1980            strh        param_2,[param_4,#0x0]                  
ram:0001c66a    d088            ldrh        param_1,[param_3,#0x6]                  
ram:0001c66c    401e            subs        param_1,param_1,#0x1                    
                            LAB_0001c66e:                 ;XREF[1,0]:   0001c666
ram:0001c66e    5880            strh        param_1,[param_4,#0x2]                  
ram:0001c670    0120            movs        param_1,#0x1                            
ram:0001c672    30bd            pop         {r4,r5,pc}                              
                            ;************************************************************************************************
                            ;*                                           FUNCTION                                           *
                            ;************************************************************************************************
                            ;int FUN_0001c674(int param_1)
          ;param_1       int                 r0                      
                                                          ;XREF[3,0]:   0001b722,0001d13c,0001dc50
ram:0001c674    f8b5            push        {r3,r4,r5,r6,r7,lr}                     
ram:0001c676    0026            movs        r6,#0x0                                 
ram:0001c678    f643            mvns        r6,r6                                   
ram:0001c67a    0b4d            ldr         r5,[DAT_0001c6a8]                       ;= 20004F10h
ram:0001c67c    0746            mov         r7,param_1                              
ram:0001c67e    0024            movs        r4,#0x0                                 
                            LAB_0001c680:                 ;XREF[1,0]:   0001c69e
ram:0001c680    1420            movs        param_1,#0x14                           
ram:0001c682    6043            muls        param_1,r4                              
ram:0001c684    4019            adds        param_1,param_1,r5                      
                                                          ; FWD[2,0]:   20004f11,20004f25
ram:0001c686    4178            ldrb        r1,[param_1,#0x1]=>DAT_20004f11         
ram:0001c688    0029            cmp         r1,#0x0                                 
ram:0001c68a    06d0            beq         LAB_0001c69a                            
ram:0001c68c    0622            movs        r2,#0x6                                 
ram:0001c68e    3946            mov         r1,r7                                   
ram:0001c690    801c            adds        param_1=>DAT_20004f12,param_1,#0x2      
ram:0001c692    fef793fd        bl          FUN_0001b1bc                            ;undefined FUN_0001b1bc(int param_1, ...
ram:0001c696    0028            cmp         param_1,#0x0                            
ram:0001c698    04d0            beq         LAB_0001c6a4                            
                            LAB_0001c69a:                 ;XREF[1,0]:   0001c68a
ram:0001c69a    641c            adds        r4,r4,#0x1                              
ram:0001c69c    062c            cmp         r4,#0x6                                 
ram:0001c69e    efdb            blt         LAB_0001c680                            
ram:0001c6a0    3046            mov         param_1,r6                              
ram:0001c6a2    f8bd            pop         {r3,r4,r5,r6,r7,pc}                     
                            LAB_0001c6a4:                 ;XREF[1,0]:   0001c698
ram:0001c6a4    2046            mov         param_1,r4                              
ram:0001c6a6    f8bd            pop         {r3,r4,r5,r6,r7,pc}                     
                            DAT_0001c6a8:                 ;XREF[1,0]:   0001c67a
ram:0001c6a8    104f0020        undefined4  20004F10h                               
                            ;************************************************************************************************
                            ;*                                           FUNCTION                                           *
                            ;************************************************************************************************
                            ;undefined4 FUN_0001c6ac(void)
                                                          ;XREF[1,0]:   0001b4b6
ram:0001c6ac    1048            ldr         r0,[DAT_0001c6f0]                       ;= F0000FC0h
ram:0001c6ae    018c            ldrh        r1,[r0,#0x20]=>DAT_f0000fe0             
ram:0001c6b0    c9b2            uxtb        r1,r1                                   
ram:0001c6b2    0129            cmp         r1,#0x1                                 
ram:0001c6b4    17d1            bne         LAB_0001c6e6                            
ram:0001c6b6    818c            ldrh        r1,[r0,#0x24]=>DAT_f0000fe4             
ram:0001c6b8    0907            lsls        r1,r1,#0x1c                             
ram:0001c6ba    14d1            bne         LAB_0001c6e6                            
ram:0001c6bc    018d            ldrh        r1,[r0,#0x28]=>DAT_f0000fe8             
ram:0001c6be    0906            lsls        r1,r1,#0x18                             
ram:0001c6c0    0a0f            lsrs        r2,r1,#0x1c                             
ram:0001c6c2    03d1            bne         LAB_0001c6cc                            
ram:0001c6c4    828d            ldrh        r2,[r0,#0x2c]=>DAT_f0000fec             
ram:0001c6c6    1206            lsls        r2,r2,#0x18                             
ram:0001c6c8    120f            lsrs        r2,r2,#0x1c                             
ram:0001c6ca    0ed0            beq         LAB_0001c6ea                            
                            LAB_0001c6cc:                 ;XREF[1,0]:   0001c6c2
ram:0001c6cc    090f            lsrs        r1,r1,#0x1c                             
ram:0001c6ce    0129            cmp         r1,#0x1                                 
ram:0001c6d0    03d1            bne         LAB_0001c6da                            
ram:0001c6d2    828d            ldrh        r2,[r0,#0x2c]=>DAT_f0000fec             
ram:0001c6d4    1206            lsls        r2,r2,#0x18                             
ram:0001c6d6    120f            lsrs        r2,r2,#0x1c                             
ram:0001c6d8    07d0            beq         LAB_0001c6ea                            
                            LAB_0001c6da:                 ;XREF[1,0]:   0001c6d0
ram:0001c6da    0329            cmp         r1,#0x3                                 
ram:0001c6dc    03d1            bne         LAB_0001c6e6                            
ram:0001c6de    808d            ldrh        r0,[r0,#0x2c]=>DAT_f0000fec             
ram:0001c6e0    0006            lsls        r0,r0,#0x18                             
ram:0001c6e2    000f            lsrs        r0,r0,#0x1c                             
ram:0001c6e4    01d0            beq         LAB_0001c6ea                            
                            LAB_0001c6e6:                 ;XREF[3,0]:   0001c6b4,0001c6ba,0001c6dc
ram:0001c6e6    0020            movs        r0,#0x0                                 
ram:0001c6e8    7047            bx          lr                                      
                            LAB_0001c6ea:                 ;XREF[3,0]:   0001c6ca,0001c6d8,0001c6e4
ram:0001c6ea    0120            movs        r0,#0x1                                 
ram:0001c6ec    7047            bx          lr                                      
ram:0001c6ee    0000            movs        r0,r0                                   
                            DAT_0001c6f0:                 ;XREF[1,0]:   0001c6ac
ram:0001c6f0    c00f00f0        undefined4  F0000FC0h                               
                            ;************************************************************************************************
                            ;*                                           FUNCTION                                           *
                            ;************************************************************************************************
                            ;undefined4 FUN_0001c6f4(void)
          ;local_18      undefined4         -18                      ;XREF[2,0]:   0001c706,0001c70a
                                                          ;XREF[1,0]:   0001d950
ram:0001c6f4    f8b5            push        {r3,r4,r5,r6,r7,lr}                     
ram:0001c6f6    2c49            ldr         r1,[DAT_0001c7a8]                       ;= 20003E18h
ram:0001c6f8    c868            ldr         r0,[r1,#0xc]=>DAT_20003e24              
ram:0001c6fa    0a69            ldr         r2,[r1,#0x10]=>DAT_20003e28             
ram:0001c6fc    0c78            ldrb        r4,[r1,#0x0]=>DAT_20003e18              
ram:0001c6fe    0f79            ldrb        r7,[r1,#0x4]=>DAT_20003e1c              
ram:0001c700    8968            ldr         r1,[r1,#0x8]=>DAT_20003e20              
ram:0001c702    8646            mov         lr,r0                                   
ram:0001c704    9446            mov         r12,r2                                  
ram:0001c706    0091            str         r1,[sp,#0x0]=>local_18                  
ram:0001c708    3ee0            b           LAB_0001c788                            
                            LAB_0001c70a:                 ;XREF[1,0]:   0001c790
ram:0001c70a    0099            ldr         r1,[sp,#0x0]=>local_18                  
ram:0001c70c    e200            lsls        r2,r4,#0x3                              
ram:0001c70e    5518            adds        r5,r2,r1                                
ram:0001c710    2a78            ldrb        r2,[r5,#0x0]                            
ram:0001c712    36e0            b           LAB_0001c782                            
                            LAB_0001c714:                 ;XREF[1,0]:   0001c786
ram:0001c714    1823            movs        r3,#0x18                                
ram:0001c716    5343            muls        r3,r2                                   
ram:0001c718    6968            ldr         r1,[r5,#0x4]                            
ram:0001c71a    521c            adds        r2,r2,#0x1                              
ram:0001c71c    c918            adds        r1,r1,r3                                
ram:0001c71e    ab78            ldrb        r3,[r5,#0x2]                            
ram:0001c720    d2b2            uxtb        r2,r2                                   
ram:0001c722    9342            cmp         r3,r2                                   
ram:0001c724    00d1            bne         LAB_0001c728                            
ram:0001c726    0022            movs        r2,#0x0                                 
                            LAB_0001c728:                 ;XREF[1,0]:   0001c724
ram:0001c728    0b78            ldrb        r3,[r1,#0x0]                            
ram:0001c72a    022b            cmp         r3,#0x2                                 
ram:0001c72c    02d0            beq         LAB_0001c734                            
ram:0001c72e    032b            cmp         r3,#0x3                                 
ram:0001c730    27d1            bne         LAB_0001c782                            
ram:0001c732    23e0            b           LAB_0001c77c                            
                            LAB_0001c734:                 ;XREF[1,0]:   0001c72c
ram:0001c734    4e68            ldr         r6,[r1,#0x4]                            
ram:0001c736    0346            mov         r3,r0                                   
ram:0001c738    0146            mov         r1,r0                                   
ram:0001c73a    03e0            b           LAB_0001c744                            
                            LAB_0001c73c:                 ;XREF[1,0]:   0001c748
ram:0001c73c    b142            cmp         r1,r6                                   
ram:0001c73e    04d0            beq         LAB_0001c74a                            
ram:0001c740    0b46            mov         r3,r1                                   
ram:0001c742    c969            ldr         r1,[r1,#0x1c]                           
                            LAB_0001c744:                 ;XREF[1,0]:   0001c73a
ram:0001c744    0029            cmp         r1,#0x0                                 
ram:0001c746    1cd0            beq         LAB_0001c782                            
ram:0001c748    f8e7            b           LAB_0001c73c                            
                            LAB_0001c74a:                 ;XREF[1,0]:   0001c73e
ram:0001c74a    0029            cmp         r1,#0x0                                 
ram:0001c74c    19d0            beq         LAB_0001c782                            
ram:0001c74e    8b42            cmp         r3,r1                                   
ram:0001c750    08d1            bne         LAB_0001c764                            
ram:0001c752    c069            ldr         r0,[r0,#0x1c]                           
ram:0001c754    0028            cmp         r0,#0x0                                 
ram:0001c756    05d1            bne         LAB_0001c764                            
ram:0001c758    144f            ldr         r7,[DAT_0001c7ac]                       ;= 40011000h
ram:0001c75a    0126            movs        r6,#0x1                                 
ram:0001c75c    be60            str         r6,[r7,#offset DAT_40011008 &0xff]      
ram:0001c75e    0026            movs        r6,#0x0                                 
ram:0001c760    b446            mov         r12,r6                                  
ram:0001c762    0127            movs        r7,#0x1                                 
                            LAB_0001c764:                 ;XREF[2,0]:   0001c750,0001c756
ram:0001c764    0e68            ldr         r6,[r1,#0x0]                            
ram:0001c766    c969            ldr         r1,[r1,#0x1c]                           
ram:0001c768    d961            str         r1,[r3,#0x1c]                           
ram:0001c76a    0029            cmp         r1,#0x0                                 
ram:0001c76c    09d0            beq         LAB_0001c782                            
ram:0001c76e    0b68            ldr         r3,[r1,#0x0]                            
ram:0001c770    9b19            adds        r3,r3,r6                                
ram:0001c772    0b60            str         r3,[r1,#0x0]                            
ram:0001c774    05e0            b           LAB_0001c782                            
                            LAB_0001c776:                 ;XREF[1,0]:   0001c780
ram:0001c776    0174            strb        r1,[r0,#0x10]                           
ram:0001c778    c069            ldr         r0,[r0,#0x1c]                           
ram:0001c77a    00e0            b           LAB_0001c77e                            
                            LAB_0001c77c:                 ;XREF[1,0]:   0001c732
ram:0001c77c    0021            movs        r1,#0x0                                 
                            LAB_0001c77e:                 ;XREF[1,0]:   0001c77a
ram:0001c77e    0028            cmp         r0,#0x0                                 
ram:0001c780    f9d1            bne         LAB_0001c776                            
                            LAB_0001c782:                 ;XREF[6,0]:   0001c712,0001c730,0001c746,0001c74c
                                                          ;             0001c76c,0001c774
ram:0001c782    6978            ldrb        r1,[r5,#0x1]                            
ram:0001c784    9142            cmp         r1,r2                                   
ram:0001c786    c5d1            bne         LAB_0001c714                            
                            LAB_0001c788:                 ;XREF[1,0]:   0001c708
ram:0001c788    2146            mov         r1,r4                                   
ram:0001c78a    641e            subs        r4,r4,#0x1                              
ram:0001c78c    e4b2            uxtb        r4,r4                                   
ram:0001c78e    0029            cmp         r1,#0x0                                 
ram:0001c790    bbd1            bne         LAB_0001c70a                            
ram:0001c792    0549            ldr         r1,[DAT_0001c7a8]                       ;= 20003E18h
ram:0001c794    6246            mov         r2,r12                                  
ram:0001c796    0a61            str         r2,[r1,#0x10]=>DAT_20003e28             
ram:0001c798    c860            str         r0,[r1,#0xc]=>DAT_20003e24              
ram:0001c79a    0f71            strb        r7,[r1,#0x4]=>DAT_20003e1c              
ram:0001c79c    7045            cmp         r0,lr                                   
ram:0001c79e    01d0            beq         LAB_0001c7a4                            
ram:0001c7a0    0120            movs        r0,#0x1                                 
ram:0001c7a2    f8bd            pop         {r3,r4,r5,r6,r7,pc}                     
                            LAB_0001c7a4:                 ;XREF[1,0]:   0001c79e
ram:0001c7a4    0020            movs        r0,#0x0                                 
ram:0001c7a6    f8bd            pop         {r3,r4,r5,r6,r7,pc}                     
                            DAT_0001c7a8:                 ;XREF[2,0]:   0001c6f6,0001c792
ram:0001c7a8    183e0020        undefined4  20003E18h                               
                            DAT_0001c7ac:                 ;XREF[1,0]:   0001c758
ram:0001c7ac    00100140        undefined4  40011000h                               
                            ;************************************************************************************************
                            ;*                                           FUNCTION                                           *
                            ;************************************************************************************************
                            ;undefined4 FUN_0001c7b0(uint * param_1)
          ;param_1       uint *              r0                      
          ;local_18      undefined4         -18                      ;XREF[2,0]:   0001c7ba,0001c86c
                                                          ;XREF[2,0]:   0001d99c,0001d9a4
ram:0001c7b0    f8b5            push        {r3,r4,r5,r6,r7,lr}                     
ram:0001c7b2    0446            mov         r4,param_1                              
ram:0001c7b4    3148            ldr         param_1,[DAT_0001c87c]                  ;= 20003E18h
ram:0001c7b6    0026            movs        r6,#0x0                                 
ram:0001c7b8    c168            ldr         r1,[param_1,#0xc]=>DAT_20003e24         
ram:0001c7ba    0091            str         r1,[sp,#0x0]=>local_18                  
ram:0001c7bc    0778            ldrb        r7,[param_1,#0x0]=>DAT_20003e18         
ram:0001c7be    4ee0            b           LAB_0001c85e                            
                            LAB_0001c7c0:                 ;XREF[1,0]:   0001c866
ram:0001c7c0    2e48            ldr         param_1,[DAT_0001c87c]                  ;= 20003E18h
ram:0001c7c2    f900            lsls        r1,r7,#0x3                              
ram:0001c7c4    8068            ldr         param_1,[param_1,#0x8]=>DAT_20003e20    
ram:0001c7c6    0d18            adds        r5,r1,param_1                           
ram:0001c7c8    43e0            b           LAB_0001c852                            
                            LAB_0001c7ca:                 ;XREF[1,0]:   0001c854
ram:0001c7ca    002c            cmp         r4,#0x0                                 
ram:0001c7cc    02d0            beq         LAB_0001c7d4                            
ram:0001c7ce    2046            mov         param_1,r4                              
ram:0001c7d0    e469            ldr         r4,[r4,#0x1c]                           
ram:0001c7d2    1fe0            b           LAB_0001c814                            
                            LAB_0001c7d4:                 ;XREF[2,0]:   0001c7cc,0001c85c
ram:0001c7d4    2878            ldrb        param_1,[r5,#0x0]                       
ram:0001c7d6    1821            movs        r1,#0x18                                
ram:0001c7d8    4143            muls        r1,param_1                              
ram:0001c7da    6a68            ldr         r2,[r5,#0x4]                            
ram:0001c7dc    401c            adds        param_1,param_1,#0x1                    
ram:0001c7de    c0b2            uxtb        param_1,param_1                         
ram:0001c7e0    5118            adds        r1,r2,r1                                
ram:0001c7e2    2870            strb        param_1,[r5,#0x0]                       
ram:0001c7e4    aa78            ldrb        r2,[r5,#0x2]                            
ram:0001c7e6    9042            cmp         param_1,r2                              
ram:0001c7e8    00d1            bne         LAB_0001c7ec                            
ram:0001c7ea    2e70            strb        r6,[r5,#0x0]                            
                            LAB_0001c7ec:                 ;XREF[1,0]:   0001c7e8
ram:0001c7ec    0a78            ldrb        r2,[r1,#0x0]                            
ram:0001c7ee    4868            ldr         param_1,[r1,#0x4]                       
ram:0001c7f0    012a            cmp         r2,#0x1                                 
ram:0001c7f2    30d1            bne         LAB_0001c856                            
ram:0001c7f4    027c            ldrb        r2,[param_1,#0x10]                      
ram:0001c7f6    002a            cmp         r2,#0x0                                 
ram:0001c7f8    2dd1            bne         LAB_0001c856                            
ram:0001c7fa    8a68            ldr         r2,[r1,#0x8]                            
ram:0001c7fc    4260            str         r2,[param_1,#0x4]                       
ram:0001c7fe    ca68            ldr         r2,[r1,#0xc]                            
ram:0001c800    8260            str         r2,[param_1,#0x8]                       
ram:0001c802    0a69            ldr         r2,[r1,#0x10]                           
ram:0001c804    c260            str         r2,[param_1,#0xc]                       
ram:0001c806    4969            ldr         r1,[r1,#0x14]                           
ram:0001c808    8161            str         r1,[param_1,#0x18]                      
ram:0001c80a    1c49            ldr         r1,[DAT_0001c87c]                       ;= 20003E18h
ram:0001c80c    0979            ldrb        r1,[r1,#0x4]=>DAT_20003e1c              
ram:0001c80e    0029            cmp         r1,#0x0                                 
ram:0001c810    00d0            beq         LAB_0001c814                            
ram:0001c812    4660            str         r6,[param_1,#0x4]                       
                            LAB_0001c814:                 ;XREF[2,0]:   0001c7d2,0001c810
ram:0001c814    1949            ldr         r1,[DAT_0001c87c]                       ;= 20003E18h
ram:0001c816    4368            ldr         r3,[param_1,#0x4]                       
ram:0001c818    0a69            ldr         r2,[r1,#0x10]=>DAT_20003e28             
ram:0001c81a    9c46            mov         r12,r3                                  
ram:0001c81c    991a            subs        r1,r3,r2                                
ram:0001c81e    0902            lsls        r1,r1,#0x8                              
ram:0001c820    174b            ldr         r3,[DAT_0001c880]                       ;= 007FFFFFh
ram:0001c822    090a            lsrs        r1,r1,#0x8                              
ram:0001c824    9942            cmp         r1,r3                                   
ram:0001c826    02d2            bcs         LAB_0001c82e                            
ram:0001c828    8268            ldr         r2,[param_1,#0x8]                       
ram:0001c82a    8918            adds        r1,r1,r2                                
ram:0001c82c    07e0            b           LAB_0001c83e                            
                            LAB_0001c82e:                 ;XREF[1,0]:   0001c826
ram:0001c82e    6146            mov         r1,r12                                  
ram:0001c830    511a            subs        r1,r2,r1                                
ram:0001c832    0902            lsls        r1,r1,#0x8                              
ram:0001c834    8268            ldr         r2,[param_1,#0x8]                       
ram:0001c836    090a            lsrs        r1,r1,#0x8                              
ram:0001c838    8a42            cmp         r2,r1                                   
ram:0001c83a    02d9            bls         LAB_0001c842                            
ram:0001c83c    511a            subs        r1,r2,r1                                
                            LAB_0001c83e:                 ;XREF[1,0]:   0001c82c
ram:0001c83e    0160            str         r1,[param_1,#0x0]                       
ram:0001c840    00e0            b           LAB_0001c844                            
                            LAB_0001c842:                 ;XREF[1,0]:   0001c83a
ram:0001c842    0660            str         r6,[param_1,#0x0]                       
                            LAB_0001c844:                 ;XREF[1,0]:   0001c840
ram:0001c844    4660            str         r6,[param_1,#0x4]                       
ram:0001c846    0121            movs        r1,#0x1                                 
ram:0001c848    8660            str         r6,[param_1,#0x8]                       
ram:0001c84a    0174            strb        r1,[param_1,#0x10]                      
ram:0001c84c    c661            str         r6,[param_1,#0x1c]                      
ram:0001c84e    01f0bff8        bl          FUN_0001d9d0                            ;undefined FUN_0001d9d0(uint * param_1)
                            LAB_0001c852:                 ;XREF[1,0]:   0001c7c8
ram:0001c852    002c            cmp         r4,#0x0                                 
ram:0001c854    b9d1            bne         LAB_0001c7ca                            
                            LAB_0001c856:                 ;XREF[2,0]:   0001c7f2,0001c7f8
ram:0001c856    2878            ldrb        param_1,[r5,#0x0]                       
ram:0001c858    6978            ldrb        r1,[r5,#0x1]                            
ram:0001c85a    8842            cmp         param_1,r1                              
ram:0001c85c    bad1            bne         LAB_0001c7d4                            
                            LAB_0001c85e:                 ;XREF[1,0]:   0001c7be
ram:0001c85e    3846            mov         param_1,r7                              
ram:0001c860    7f1e            subs        r7,r7,#0x1                              
ram:0001c862    ffb2            uxtb        r7,r7                                   
ram:0001c864    0028            cmp         param_1,#0x0                            
ram:0001c866    abd1            bne         LAB_0001c7c0                            
ram:0001c868    0448            ldr         param_1,[DAT_0001c87c]                  ;= 20003E18h
ram:0001c86a    c168            ldr         r1,[param_1,#0xc]=>DAT_20003e24         
ram:0001c86c    0098            ldr         param_1,[sp,#0x0]=>local_18             
ram:0001c86e    8142            cmp         r1,param_1                              
ram:0001c870    01d0            beq         LAB_0001c876                            
ram:0001c872    0120            movs        param_1,#0x1                            
ram:0001c874    f8bd            pop         {r3,r4,r5,r6,r7,pc}                     
                            LAB_0001c876:                 ;XREF[1,0]:   0001c870
ram:0001c876    0020            movs        param_1,#0x0                            
ram:0001c878    f8bd            pop         {r3,r4,r5,r6,r7,pc}                     
ram:0001c87a    0000            movs        r0,r0                                   
                            DAT_0001c87c:                 ;XREF[5,0]:   0001c7b4,0001c7c0,0001c80a,0001c814
                                                          ;             0001c868
ram:0001c87c    183e0020        undefined4  20003E18h                               
                            DAT_0001c880:                 ;XREF[1,0]:   0001c820
ram:0001c880    ffff7f00        undefined4  007FFFFFh                               
                            ;************************************************************************************************
                            ;*                                           FUNCTION                                           *
                            ;************************************************************************************************
                            ;undefined LAB_0001c884+1(ushort * param_1, char * param_2, undefined4 param_3, undefined4 param_4)
          ;param_1       ushort *            r0                      
          ;param_2       char *              r1                      
          ;param_3       undefined4          r2                      
          ;param_4       undefined4          r3                      
          ;local_1c      undefined4         -1c                      ;XREF[1,0]:   0001c89e
          ;local_20      undefined4         -20                      ;XREF[5,3]:   0001c89c,0001c8a4,0001c92e,0001c934,0001c958
                                                                     ;             0001c8a8,0001c93c,0001c954
                                                          ;XREF[0,2]:   0001c974,0001c9c8
ram:0001c884    feb5            push        {param_2,param_3,param_4,r4,r5,r6,r7,lr}
ram:0001c886    0446            mov         r4,param_1                              
ram:0001c888    0878            ldrb        param_1,[param_2,#0x0]                  
ram:0001c88a    4d88            ldrh        r5,[param_2,#0x2]                       
ram:0001c88c    0027            movs        r7,#0x0                                 
ram:0001c88e    0e46            mov         r6,param_2                              
ram:0001c890    0128            cmp         param_1,#0x1                            
ram:0001c892    2dd0            beq         LAB_0001c8f0                            
ram:0001c894    0228            cmp         param_1,#0x2                            
ram:0001c896    3dd0            beq         LAB_0001c914                            
ram:0001c898    0328            cmp         param_1,#0x3                            
ram:0001c89a    28d1            bne         LAB_0001c8ee                            
ram:0001c89c    0097            str         r7,[sp,#0x0]=>local_20                  
ram:0001c89e    0197            str         r7,[sp,#local_1c+0x20]                  
ram:0001c8a0    a178            ldrb        param_2,[r4,#0x2]                       
ram:0001c8a2    6846            mov         param_1,sp                              
ram:0001c8a4    0170            strb        param_2,[param_1,#0x0]=>local_20        
ram:0001c8a6    e178            ldrb        param_2,[r4,#0x3]                       
ram:0001c8a8    4170            strb        param_2,[r0,#local_20+0x21]             
ram:0001c8aa    2420            movs        param_1,#0x24                           
ram:0001c8ac    2b49            ldr         param_2,[DAT_0001c95c]                  ;= 20004260h
ram:0001c8ae    6843            muls        param_1,r5                              
ram:0001c8b0    4318            adds        param_4,param_1,param_2                 
ram:0001c8b2    0822            movs        param_3,#0x8                            
ram:0001c8b4    311d            adds        param_2,r6,#0x4                         
ram:0001c8b6    6846            mov         param_1,sp                              
ram:0001c8b8    1b1d            adds        param_4,param_4,#0x4                    
ram:0001c8ba    fff711fd        bl          FUN_0001c2e0                            ;undefined FUN_0001c2e0(int param_1, ...
ram:0001c8be    6946            mov         param_2,sp                              
ram:0001c8c0    2046            mov         param_1,r4                              
ram:0001c8c2    fff745fb        bl          FUN_0001bf50                            ;undefined4 FUN_0001bf50(undefined2 *...
ram:0001c8c6    a078            ldrb        param_1,[r4,#0x2]                       
ram:0001c8c8    0428            cmp         param_1,#0x4                            
ram:0001c8ca    03d0            beq         LAB_0001c8d4                            
ram:0001c8cc    0528            cmp         param_1,#0x5                            
ram:0001c8ce    01d0            beq         LAB_0001c8d4                            
ram:0001c8d0    0628            cmp         param_1,#0x6                            
ram:0001c8d2    0cd1            bne         LAB_0001c8ee                            
                            LAB_0001c8d4:                 ;XREF[2,0]:   0001c8ca,0001c8ce
ram:0001c8d4    2248            ldr         param_1,[DAT_0001c960]                  ;= 20003DB0h
ram:0001c8d6    0121            movs        param_2,#0x1                            
ram:0001c8d8    c570            strb        r5,[param_1,#0x3]=>DAT_20003db3         
ram:0001c8da    2248            ldr         param_1,[PTR_DAT_0001c964]              ;= 0001e0f4
ram:0001c8dc    0022            movs        param_3,#0x0                            
ram:0001c8de    0904            lsls        param_2,param_2,#0x10                   
ram:0001c8e0    8068            ldr         param_1,[param_1,#0x8]=>DAT_0001e0fc    ;= 20003E9Ch
ram:0001c8e2    fff745f8        bl          FUN_0001b970                            ;longlong FUN_0001b970(int param_1, u...
ram:0001c8e6    0028            cmp         param_1,#0x0                            
ram:0001c8e8    01d0            beq         LAB_0001c8ee                            
ram:0001c8ea    fef7adff        bl          FUN_0001b848                            ;undefined FUN_0001b848(void)
                            LAB_0001c8ee:                 ;XREF[3,0]:   0001c89a,0001c8d2,0001c8e8
ram:0001c8ee    febd            pop         {param_2,param_3,param_4,r4,r5,r6,r7,pc}
                            LAB_0001c8f0:                 ;XREF[1,0]:   0001c892
ram:0001c8f0    fef750ff        bl          FUN_0001b794                            ;undefined4 FUN_0001b794(void)
ram:0001c8f4    0028            cmp         param_1,#0x0                            
ram:0001c8f6    01d0            beq         LAB_0001c8fc                            
ram:0001c8f8    fef7a6ff        bl          FUN_0001b848                            ;undefined FUN_0001b848(void)
                            LAB_0001c8fc:                 ;XREF[1,0]:   0001c8f6
ram:0001c8fc    2046            mov         param_1,r4                              
ram:0001c8fe    fff793fa        bl          FUN_0001be28                            ;undefined4 FUN_0001be28(undefined2 *...
ram:0001c902    0028            cmp         param_1,#0x0                            
ram:0001c904    01d0            beq         LAB_0001c90a                            
ram:0001c906    fef79fff        bl          FUN_0001b848                            ;undefined FUN_0001b848(void)
                            LAB_0001c90a:                 ;XREF[1,0]:   0001c904
ram:0001c90a    2046            mov         param_1,r4                              
ram:0001c90c    fff756fa        bl          FUN_0001bdbc                            ;undefined4 FUN_0001bdbc(ushort * par...
ram:0001c910    2773            strb        r7,[r4,#0xc]                            
ram:0001c912    febd            pop         {param_2,param_3,param_4,r4,r5,r6,r7,pc}
                            LAB_0001c914:                 ;XREF[1,0]:   0001c896
ram:0001c914    1321            movs        param_2,#0x13                           
ram:0001c916    2846            mov         param_1,r5                              
ram:0001c918    76df            svc         0x76                                    
ram:0001c91a    0028            cmp         param_1,#0x0                            
ram:0001c91c    01d0            beq         LAB_0001c922                            
ram:0001c91e    fef793ff        bl          FUN_0001b848                            ;undefined FUN_0001b848(void)
                            LAB_0001c922:                 ;XREF[1,0]:   0001c91c
ram:0001c922    2420            movs        param_1,#0x24                           
ram:0001c924    4543            muls        r5,param_1                              
ram:0001c926    0d48            ldr         param_1,[DAT_0001c95c]                  ;= 20004260h
ram:0001c928    ff21            movs        param_2,#0xff                           
ram:0001c92a    2818            adds        param_1,r5,param_1                      
ram:0001c92c    0173            strb        param_2,[param_1,#0xc]=>DAT_2000426c    
ram:0001c92e    0097            str         r7,[sp,#0x0]=>local_20                  
ram:0001c930    a178            ldrb        param_2,[r4,#0x2]                       
ram:0001c932    6a46            mov         param_3,sp                              
ram:0001c934    1170            strb        param_2,[param_3,#0x0]=>local_20        
ram:0001c936    0729            cmp         param_2,#0x7                            
ram:0001c938    06d0            beq         LAB_0001c948                            
ram:0001c93a    f179            ldrb        param_2,[r6,#0x7]                       
ram:0001c93c    5170            strb        param_2,[r2,#local_20+0x21]             
                            LAB_0001c93e:                 ;XREF[1,0]:   0001c95a
ram:0001c93e    1146            mov         param_2,param_3                         
ram:0001c940    0d30            adds        param_1,#0xd                            
ram:0001c942    fff749fc        bl          FUN_0001c1d8                            ;undefined FUN_0001c1d8(int param_1, ...
ram:0001c946    febd            pop         {param_2,param_3,param_4,r4,r5,r6,r7,pc}
                            LAB_0001c948:                 ;XREF[1,0]:   0001c938
ram:0001c948    e178            ldrb        param_2,[r4,#0x3]                       
ram:0001c94a    361d            adds        r6,r6,#0x4                              
ram:0001c94c    895d            ldrb        param_2,[param_2,r6]                    
ram:0001c94e    8022            movs        param_3,#0x80                           
ram:0001c950    1143            orrs        param_2,param_3                         
ram:0001c952    6a46            mov         param_3,sp                              
ram:0001c954    5170            strb        param_2,[r2,#local_20+0x21]             
ram:0001c956    e178            ldrb        param_2,[r4,#0x3]                       
ram:0001c958    1170            strb        param_2,[param_3,#0x0]=>local_20        
ram:0001c95a    f0e7            b           LAB_0001c93e                            
                            DAT_0001c95c:                 ;XREF[2,0]:   0001c8ac,0001c926
ram:0001c95c    60420020        undefined4  20004260h                               
                            DAT_0001c960:                 ;XREF[1,0]:   0001c8d4
ram:0001c960    b03d0020        undefined4  20003DB0h                               
                            PTR_DAT_0001c964:             ;XREF[1,0]:   0001c8da
ram:0001c964    f4e00100        addr        DAT_0001e0f4                            ;= 20003E5Ch
                            ;************************************************************************************************
                            ;*                                           FUNCTION                                           *
                            ;************************************************************************************************
                            ;undefined FUN_0001c968(undefined4 param_1, undefined4 param_2, undefined4 param_3, undefined4 param_4)
          ;param_1       undefined4          r0                      
          ;param_2       undefined4          r1                      
          ;param_3       undefined4          r2                      
          ;param_4       undefined4          r3                      
                                                          ;XREF[1,0]:   0001cb42
ram:0001c968    f8b5            push        {param_4,r4,r5,r6,r7,lr}                
ram:0001c96a    1849            ldr         param_2,[DAT_0001c9cc]                  ;= 20003DB8h
ram:0001c96c    1648            ldr         param_1,[PTR_LAB_0001c884+1+1_0001c9c8] ;= 0001c885
ram:0001c96e    0c46            mov         r4,param_2                              
ram:0001c970    0025            movs        r5,#0x0                                 
ram:0001c972    083c            subs        r4,#0x8                                 
ram:0001c974    0860            str         param_1=>LAB_000...,[param_2,#0x0]=>D...
ram:0001c976    164e            ldr         r6,[DAT_0001c9d0]                       ;= 20004260h
ram:0001c978    a570            strb        r5,[r4,#0x2]=>DAT_20003db2              
ram:0001c97a    ff27            movs        r7,#0xff                                
                            LAB_0001c97c:                 ;XREF[1,0]:   0001c9a4
ram:0001c97c    a078            ldrb        param_1,[r4,#0x2]=>DAT_20003db2         
ram:0001c97e    2421            movs        param_2,#0x24                           
ram:0001c980    4843            muls        param_1,param_2                         
ram:0001c982    8019            adds        param_1=>DAT_20004260,param_1,r6        
ram:0001c984    1149            ldr         param_2=>DAT_20003db8,[DAT_0001c9cc]    ;= 20003DB8h
ram:0001c986    fff775fa        bl          FUN_0001be74                            ;undefined4 FUN_0001be74(undefined2 *...
ram:0001c98a    0028            cmp         param_1,#0x0                            
ram:0001c98c    01d0            beq         LAB_0001c992                            
ram:0001c98e    fef75bff        bl          FUN_0001b848                            ;undefined FUN_0001b848(void)
                            LAB_0001c992:                 ;XREF[1,0]:   0001c98c
ram:0001c992    a078            ldrb        param_1,[r4,#0x2]=>DAT_20003db2         
ram:0001c994    2421            movs        param_2,#0x24                           
ram:0001c996    4143            muls        param_2,param_1                         
ram:0001c998    8919            adds        param_2,param_2,r6                      
ram:0001c99a    401c            adds        param_1,param_1,#0x1                    
ram:0001c99c    c0b2            uxtb        param_1,param_1                         
ram:0001c99e    0f73            strb        r7,[param_2,#0xc]=>DAT_2000426c         
ram:0001c9a0    a070            strb        param_1,[r4,#0x2]=>DAT_20003db2         
ram:0001c9a2    0728            cmp         param_1,#0x7                            
ram:0001c9a4    ead3            bcc         LAB_0001c97c                            
ram:0001c9a6    0b4a            ldr         param_3,[DAT_0001c9d4]                  ;= 20004F10h
ram:0001c9a8    a570            strb        r5,[r4,#0x2]=>DAT_20003db2              
                            LAB_0001c9aa:                 ;XREF[1,0]:   0001c9c0
ram:0001c9aa    a078            ldrb        param_1,[r4,#0x2]=>DAT_20003db2         
ram:0001c9ac    1423            movs        param_4,#0x14                           
ram:0001c9ae    0146            mov         param_2,param_1                         
ram:0001c9b0    5843            muls        param_1,param_4                         
ram:0001c9b2    8318            adds        param_4,param_1,param_3                 
                                                          ; FWD[2,0]:   20004f11,20004f25
ram:0001c9b4    5d70            strb        r5,[param_4,#0x1]=>DAT_20004f11         
                                                          ; FWD[2,0]:   20004f10,20004f24
ram:0001c9b6    1554            strb        r5,[param_3,param_1]=>DAT_20004f10      
ram:0001c9b8    491c            adds        param_2,param_2,#0x1                    
ram:0001c9ba    c8b2            uxtb        param_1,param_2                         
ram:0001c9bc    a070            strb        param_1,[r4,#0x2]=>DAT_20003db2         
ram:0001c9be    0628            cmp         param_1,#0x6                            
ram:0001c9c0    f3d3            bcc         LAB_0001c9aa                            
ram:0001c9c2    a570            strb        r5,[r4,#0x2]=>DAT_20003db2              
ram:0001c9c4    f8bd            pop         {param_4,r4,r5,r6,r7,pc}                
ram:0001c9c6    0000            movs        r0,r0                                   
                            PTR_LAB_0001c884+1+1_0001c9c8:;XREF[1,0]:   0001c96c
ram:0001c9c8    85c80100        addr        LAB_0001c884+1+1                        
                            DAT_0001c9cc:                 ;XREF[2,0]:   0001c96a,0001c984
ram:0001c9cc    b83d0020        undefined4  20003DB8h                               
                            DAT_0001c9d0:                 ;XREF[1,0]:   0001c976
ram:0001c9d0    60420020        undefined4  20004260h                               
                            DAT_0001c9d4:                 ;XREF[1,0]:   0001c9a6
ram:0001c9d4    104f0020        undefined4  20004F10h                               
ram:0001c9d8    11              ??          11h                                     
                            DAT_0001c9d9:                 ;XREF[2,0]:   0001cb70,0001cbc8
ram:0001c9d9    df              ??          DFh                                     
ram:0001c9da    bf              ??          BFh                                     
ram:0001c9db    f3              ??          F3h                                     
ram:0001c9dc    4f              ??          4Fh    O                                
ram:0001c9dd    8f              ??          8Fh                                     
ram:0001c9de    04              ??          04h                                     
ram:0001c9df    49              ??          49h    I                                
ram:0001c9e0    02              ??          02h                                     
ram:0001c9e1    48              ??          48h    H                                
ram:0001c9e2    c8              ??          C8h                                     
ram:0001c9e3    60              ??          60h    `                                
ram:0001c9e4    bf              ??          BFh                                     
ram:0001c9e5    f3              ??          F3h                                     
ram:0001c9e6    4f              ??          4Fh    O                                
ram:0001c9e7    8f              ??          8Fh                                     
ram:0001c9e8    00              ??          00h                                     
ram:0001c9e9    bf              ??          BFh                                     
ram:0001c9ea    fd              ??          FDh                                     
ram:0001c9eb    e7              ??          E7h                                     
ram:0001c9ec    04              ??          04h                                     
ram:0001c9ed    00              ??          00h                                     
ram:0001c9ee    fa              ??          FAh                                     
ram:0001c9ef    05              ??          05h                                     
ram:0001c9f0    00              ??          00h                                     
ram:0001c9f1    ed              ??          EDh                                     
ram:0001c9f2    00              ??          00h                                     
ram:0001c9f3    e0              ??          E0h                                     
                            ;************************************************************************************************
                            ;*                                           FUNCTION                                           *
                            ;************************************************************************************************
                            ;undefined LAB_0001c9f4+1(undefined4 param_1, undefined4 param_2, undefined4 param_3, uint param_4)
          ;param_1       undefined4          r0                      
          ;param_2       undefined4          r1                      
          ;param_3       undefined4          r2                      
          ;param_4       uint                r3                      
          ;local_18      undefined4         -18                      ;XREF[6,2]:   0001ca26,0001ca2c,0001ca44,0001ca46,0001ca7a
                                                                     ;             0001ca80,0001ca4a,0001ca84
                                                          ;XREF[0,2]:   0001cb50,0001cbc4
ram:0001c9f4    f8b5            push        {param_4,r4,r5,r6,r7,lr}                
ram:0001c9f6    0024            movs        r4,#0x0                                 
ram:0001c9f8    2a4d            ldr         r5,[DAT_0001caa4]                       ;= 20004F10h
ram:0001c9fa    2746            mov         r7,r4                                   
                            LAB_0001c9fc:                 ;XREF[1,0]:   0001ca58
ram:0001c9fc    2046            mov         param_1,r4                              
ram:0001c9fe    1421            movs        param_2,#0x14                           
ram:0001ca00    4843            muls        param_1,param_2                         
ram:0001ca02    4619            adds        r6,param_1,r5                           
                                                          ; FWD[2,0]:   20004f11,20004f25
ram:0001ca04    7178            ldrb        param_2,[r6,#0x1]=>DAT_20004f11         
ram:0001ca06    0229            cmp         param_2,#0x2                            
ram:0001ca08    02d0            beq         LAB_0001ca10                            
ram:0001ca0a    0429            cmp         param_2,#0x4                            
ram:0001ca0c    11d0            beq         LAB_0001ca32                            
ram:0001ca0e    21e0            b           LAB_0001ca54                            
                            LAB_0001ca10:                 ;XREF[1,0]:   0001ca08
ram:0001ca10    295c            ldrb        param_2,[r5,param_1]=>DAT_20004f10      
ram:0001ca12    491c            adds        param_2,param_2,#0x1                    
ram:0001ca14    c9b2            uxtb        param_2,param_2                         
ram:0001ca16    2954            strb        param_2,[r5,param_1]=>DAT_20004f10      
ram:0001ca18    0a29            cmp         param_2,#0xa                            
ram:0001ca1a    1bd9            bls         LAB_0001ca54                            
ram:0001ca1c    0321            movs        param_2,#0x3                            
ram:0001ca1e    7170            strb        param_2,[r6,#0x1]=>DAT_20004f11         
ram:0001ca20    2f54            strb        r7,[r5,param_1]=>DAT_20004f10           
ram:0001ca22    01f0a9fa        bl          FUN_0001df78                            ;undefined FUN_0001df78(undefined4 pa...
ram:0001ca26    0097            str         r7,[sp,#0x0]=>local_18                  
ram:0001ca28    317a            ldrb        param_2,[r6,#0x8]=>DAT_20004f18         
ram:0001ca2a    6846            mov         param_1,sp                              
ram:0001ca2c    0170            strb        param_2,[param_1,#0x0]=>local_18        
ram:0001ca2e    8221            movs        param_2,#0x82                           
ram:0001ca30    0be0            b           LAB_0001ca4a                            
                            LAB_0001ca32:                 ;XREF[1,0]:   0001ca0c
ram:0001ca32    295c            ldrb        param_2,[r5,param_1]=>DAT_20004f10      
ram:0001ca34    491c            adds        param_2,param_2,#0x1                    
ram:0001ca36    c9b2            uxtb        param_2,param_2                         
ram:0001ca38    2954            strb        param_2,[r5,param_1]=>DAT_20004f10      
ram:0001ca3a    0a29            cmp         param_2,#0xa                            
ram:0001ca3c    0ad9            bls         LAB_0001ca54                            
ram:0001ca3e    2f54            strb        r7,[r5,param_1]=>DAT_20004f10           
ram:0001ca40    e021            movs        param_2,#0xe0                           
ram:0001ca42    6846            mov         param_1,sp                              
ram:0001ca44    0097            str         r7,[sp,#0x0]=>local_18                  
ram:0001ca46    0170            strb        param_2,[param_1,#0x0]=>local_18        
ram:0001ca48    8821            movs        param_2,#0x88                           
                            LAB_0001ca4a:                 ;XREF[1,0]:   0001ca30
ram:0001ca4a    4170            strb        param_2,[r0,#local_18+0x19]             
ram:0001ca4c    b01c            adds        param_1=>DAT_20004f12,r6,#0x2           
ram:0001ca4e    6946            mov         param_2,sp                              
ram:0001ca50    fff7c2fb        bl          FUN_0001c1d8                            ;undefined FUN_0001c1d8(int param_1, ...
                            LAB_0001ca54:                 ;XREF[3,0]:   0001ca0e,0001ca1a,0001ca3c
ram:0001ca54    641c            adds        r4,r4,#0x1                              
ram:0001ca56    062c            cmp         r4,#0x6                                 
ram:0001ca58    d0db            blt         LAB_0001c9fc                            
ram:0001ca5a    134d            ldr         r5,[DAT_0001caa8]                       ;= 20004260h
ram:0001ca5c    0024            movs        r4,#0x0                                 
                            LAB_0001ca5e:                 ;XREF[1,0]:   0001ca9e
ram:0001ca5e    2420            movs        param_1,#0x24                           
ram:0001ca60    2646            mov         r6,r4                                   
ram:0001ca62    4643            muls        r6,param_1                              
ram:0001ca64    7019            adds        param_1,r6,r5                           
                                                          ; FWD[2,0]:   2000426c,20004290
ram:0001ca66    017b            ldrb        param_2,[param_1,#0xc]=>DAT_2000426c    
ram:0001ca68    ff29            cmp         param_2,#0xff                           
ram:0001ca6a    16d0            beq         LAB_0001ca9a                            
ram:0001ca6c    491c            adds        param_2,param_2,#0x1                    
ram:0001ca6e    c9b2            uxtb        param_2,param_2                         
ram:0001ca70    0173            strb        param_2,[param_1,#0xc]=>DAT_2000426c    
ram:0001ca72    0a29            cmp         param_2,#0xa                            
ram:0001ca74    11d9            bls         LAB_0001ca9a                            
ram:0001ca76    ff21            movs        param_2,#0xff                           
ram:0001ca78    0173            strb        param_2,[param_1,#0xc]=>DAT_2000426c    
ram:0001ca7a    0097            str         r7,[sp,#0x0]=>local_18                  
ram:0001ca7c    8278            ldrb        param_3,[param_1,#0x2]=>DAT_20004262    
ram:0001ca7e    6946            mov         param_2,sp                              
ram:0001ca80    0a70            strb        param_3,[param_2,#0x0]=>local_18        
ram:0001ca82    8322            movs        param_3,#0x83                           
ram:0001ca84    4a70            strb        param_3,[r1,#local_18+0x19]             
ram:0001ca86    0d30            adds        param_1,#0xd                            
ram:0001ca88    fff7a6fb        bl          FUN_0001c1d8                            ;undefined FUN_0001c1d8(int param_1, ...
ram:0001ca8c    a85b            ldrh        param_1,[r5,r6]=>DAT_20004260           
ram:0001ca8e    1321            movs        param_2,#0x13                           
ram:0001ca90    76df            svc         0x76                                    
ram:0001ca92    0028            cmp         param_1,#0x0                            
ram:0001ca94    01d0            beq         LAB_0001ca9a                            
ram:0001ca96    fef7d7fe        bl          FUN_0001b848                            ;undefined FUN_0001b848(void)
                            LAB_0001ca9a:                 ;XREF[3,0]:   0001ca6a,0001ca74,0001ca94
ram:0001ca9a    641c            adds        r4,r4,#0x1                              
ram:0001ca9c    072c            cmp         r4,#0x7                                 
ram:0001ca9e    dedb            blt         LAB_0001ca5e                            
ram:0001caa0    f8bd            pop         {param_4,r4,r5,r6,r7,pc}                
ram:0001caa2    0000            movs        r0,r0                                   
                            DAT_0001caa4:                 ;XREF[1,0]:   0001c9f8
ram:0001caa4    104f0020        undefined4  20004F10h                               
                            DAT_0001caa8:                 ;XREF[1,0]:   0001ca5a
ram:0001caa8    60420020        undefined4  20004260h                               
                            ;************************************************************************************************
                            ;*                                           FUNCTION                                           *
                            ;************************************************************************************************
                            ;undefined FUN_0001caac(void)
                                                          ;XREF[0,2]:   0001cb84,0001cbcc
ram:0001caac    70b5            push        {r4,r5,r6,lr}                           
ram:0001caae    084c            ldr         r4,[DAT_0001cad0]                       ;= 20003DB0h
ram:0001cab0    2421            movs        r1,#0x24                                
ram:0001cab2    e078            ldrb        r0,[r4,#0x3]=>DAT_20003db3              
ram:0001cab4    074d            ldr         r5,[DAT_0001cad4]                       ;= 20004260h
ram:0001cab6    4843            muls        r0,r1                                   
ram:0001cab8    4019            adds        r0,r0,r5                                
ram:0001caba    fff77ff9        bl          FUN_0001bdbc                            ;undefined4 FUN_0001bdbc(ushort * par...
ram:0001cabe    e078            ldrb        r0,[r4,#0x3]=>DAT_20003db3              
ram:0001cac0    2421            movs        r1,#0x24                                
ram:0001cac2    4843            muls        r0,r1                                   
ram:0001cac4    4019            adds        r0,r0,r5                                
ram:0001cac6    8178            ldrb        r1,[r0,#0x2]=>DAT_20004262              
ram:0001cac8    c170            strb        r1,[r0,#0x3]                            
ram:0001caca    0721            movs        r1,#0x7                                 
ram:0001cacc    8170            strb        r1,[r0,#0x2]=>DAT_20004262              
ram:0001cace    70bd            pop         {r4,r5,r6,pc}                           
                            DAT_0001cad0:                 ;XREF[1,0]:   0001caae
ram:0001cad0    b03d0020        undefined4  20003DB0h                               
                            DAT_0001cad4:                 ;XREF[1,0]:   0001cab4
ram:0001cad4    60420020        undefined4  20004260h                               
                            ;************************************************************************************************
                            ;*                                           FUNCTION                                           *
                            ;************************************************************************************************
                            ;undefined FUN_0001cad8(void)
          ;local_10      undefined4         -10                      ;XREF[1,0]:   0001cae4
          ;local_14      undefined4         -14                      ;XREF[1,0]:   0001caf2
          ;local_18      undefined4         -18                      ;XREF[1,0]:   0001caf4
          ;local_1c      undefined4         -1c                      ;XREF[1,0]:   0001caf0
          ;local_20      undefined4         -20                      ;XREF[1,0]:   0001caec
                                                          ;XREF[1,0]:   0001b0ca
ram:0001cad8    334c            ldr         r4,[PTR_DAT_0001cba8]                   ;= 0001e0f4
ram:0001cada    88b0            sub         sp,#0x20                                
ram:0001cadc    2046            mov         r0,r4                                   
ram:0001cade    3830            adds        r0,#0x38                                
                                                          ; FWD[3,0]:   0001e12c,0001e130,0001e134
ram:0001cae0    07c8            ldmia       r0,{r0,r1,r2}=>DAT_0001e12c             ;= 0A080405h
                                                                                    ;= 01D7E000h
ram:0001cae2    04ab            add         r3,sp,#0x10                             
ram:0001cae4    07c3            stmia       r3!=>local_10,{r0,r1,r2}                
ram:0001cae6    ff21            movs        r1,#0xff                                
ram:0001cae8    0131            adds        r1,#0x1                                 
ram:0001caea    3048            ldr         r0,[DAT_0001cbac]                       ;= 20003F18h
ram:0001caec    0090            str         r0,[sp,#0x0]=>local_20                  
ram:0001caee    4018            adds        r0,r0,r1                                
ram:0001caf0    0191            str         r1,[sp,#local_1c+0x20]                  
ram:0001caf2    0391            str         r1,[sp,#local_14+0x20]                  
ram:0001caf4    0290            str         r0,[sp,#local_18+0x20]                  
ram:0001caf6    0323            movs        r3,#0x3                                 
ram:0001caf8    2d4a            ldr         r2=>LAB_0001db20...,[PTR_LAB_0001db20...;= 0001db21
ram:0001cafa    6946            mov         r1,sp                                   
ram:0001cafc    04a8            add         r0,sp,#0x10                             
ram:0001cafe    fef7b9ff        bl          FUN_0001ba74                            ;int FUN_0001ba74(byte * param_1, int...
ram:0001cb02    0028            cmp         r0,#0x0                                 
ram:0001cb04    01d0            beq         LAB_0001cb0a                            
ram:0001cb06    fef79ffe        bl          FUN_0001b848                            ;undefined FUN_0001b848(void)
                            LAB_0001cb0a:                 ;XREF[1,0]:   0001cb04
ram:0001cb0a    0023            movs        r3,#0x0                                 
ram:0001cb0c    294a            ldr         r2,[DAT_0001cbb4]                       ;= 20004118h
ram:0001cb0e    0321            movs        r1,#0x3                                 
ram:0001cb10    1846            mov         r0,r3                                   
ram:0001cb12    fef7e5fe        bl          FUN_0001b8e0                            ;undefined4 FUN_0001b8e0(undefined4 p...
ram:0001cb16    0028            cmp         r0,#0x0                                 
ram:0001cb18    01d0            beq         LAB_0001cb1e                            
ram:0001cb1a    fef795fe        bl          FUN_0001b848                            ;undefined FUN_0001b848(void)
                            LAB_0001cb1e:                 ;XREF[1,0]:   0001cb18
ram:0001cb1e    264a            ldr         r2,[DAT_0001cbb8]                       ;= 00000666h
ram:0001cb20    0121            movs        r1,#0x1                                 
ram:0001cb22    2648            ldr         r0,[DAT_0001cbbc]                       ;= 20003DCCh
ram:0001cb24    fef748fe        bl          FUN_0001b7b8                            ;int FUN_0001b7b8(int param_1, uint p...
ram:0001cb28    0028            cmp         r0,#0x0                                 
ram:0001cb2a    01d0            beq         LAB_0001cb30                            
ram:0001cb2c    fef78cfe        bl          FUN_0001b848                            ;undefined FUN_0001b848(void)
                            LAB_0001cb30:                 ;XREF[1,0]:   0001cb2a
ram:0001cb30    fff76efa        bl          FUN_0001c010                            ;undefined FUN_0001c010(void)
ram:0001cb34    2248            ldr         r0=>LAB_0001c2c4...,[PTR_LAB_0001c2c4...;= 0001c2c5
ram:0001cb36    fff7b5f8        bl          FUN_0001bca4                            ;undefined4 FUN_0001bca4(int param_1)
ram:0001cb3a    0028            cmp         r0,#0x0                                 
ram:0001cb3c    01d0            beq         LAB_0001cb42                            
ram:0001cb3e    fef783fe        bl          FUN_0001b848                            ;undefined FUN_0001b848(void)
                            LAB_0001cb42:                 ;XREF[1,0]:   0001cb3c
ram:0001cb42    fff711ff        bl          FUN_0001c968                            ;undefined FUN_0001c968(undefined4 pa...
ram:0001cb46    0320            movs        r0,#0x3                                 
ram:0001cb48    77df            svc         0x77                                    
ram:0001cb4a    0520            movs        r0,#0x5                                 
ram:0001cb4c    fff72dfb        bl          FUN_0001c1aa                            ;undefined FUN_0001c1aa(undefined par...
ram:0001cb50    1c4a            ldr         r2=>LAB_0001c9f4...,[PTR_LAB_0001c9f4...;= 0001c9f5
ram:0001cb52    0121            movs        r1,#0x1                                 
ram:0001cb54    1448            ldr         r0=>DAT_0001e0f4,[PTR_DAT_0001cba8]     ;= 20003E5Ch
                                                                                    ;= 0001e0f4
ram:0001cb56    fef7adfe        bl          FUN_0001b8b4                            ;undefined4 FUN_0001b8b4(int * param_...
ram:0001cb5a    0028            cmp         r0,#0x0                                 
ram:0001cb5c    01d0            beq         LAB_0001cb62                            
ram:0001cb5e    fef773fe        bl          FUN_0001b848                            ;undefined FUN_0001b848(void)
                            LAB_0001cb62:                 ;XREF[1,0]:   0001cb5c
ram:0001cb62    0121            movs        r1,#0x1                                 
ram:0001cb64    0022            movs        r2,#0x0                                 
ram:0001cb66    c903            lsls        r1,r1,#0xf                              
ram:0001cb68    2068            ldr         r0,[r4,#0x0]=>DAT_0001e0f4              ;= 20003E5Ch
ram:0001cb6a    fef701ff        bl          FUN_0001b970                            ;longlong FUN_0001b970(int param_1, u...
ram:0001cb6e    0e48            ldr         r0,[PTR_DAT_0001cba8]                   ;= 0001e0f4
ram:0001cb70    154a            ldr         r2=>DAT_0001c9d9,[PTR_DAT_0001cbc8]     ;= DFh
                                                                                    ;= 0001c9d9
ram:0001cb72    0021            movs        r1,#0x0                                 
ram:0001cb74    001d            adds        r0=>DAT_0001e0f8,r0,#0x4                ;= 20003E7Ch
ram:0001cb76    fef79dfe        bl          FUN_0001b8b4                            ;undefined4 FUN_0001b8b4(int * param_...
ram:0001cb7a    0028            cmp         r0,#0x0                                 
ram:0001cb7c    01d0            beq         LAB_0001cb82                            
ram:0001cb7e    fef763fe        bl          FUN_0001b848                            ;undefined FUN_0001b848(void)
                            LAB_0001cb82:                 ;XREF[1,0]:   0001cb7c
ram:0001cb82    0948            ldr         r0,[PTR_DAT_0001cba8]                   ;= 0001e0f4
ram:0001cb84    114a            ldr         r2=>FUN_0001caac+1,[PTR_FUN_0001caac+...;= 0001caad
ram:0001cb86    0021            movs        r1,#0x0                                 
ram:0001cb88    0830            adds        r0=>DAT_0001e0fc,#0x8                   ;= 20003E9Ch
ram:0001cb8a    fef793fe        bl          FUN_0001b8b4                            ;undefined4 FUN_0001b8b4(int * param_...
ram:0001cb8e    0028            cmp         r0,#0x0                                 
ram:0001cb90    01d0            beq         LAB_0001cb96                            
ram:0001cb92    fef759fe        bl          FUN_0001b848                            ;undefined FUN_0001b848(void)
                            LAB_0001cb96:                 ;XREF[1,0]:   0001cb90
ram:0001cb96    fff78bfa        bl          FUN_0001c0b0                            ;undefined4 FUN_0001c0b0(void)
                            LAB_0001cb9a:                 ;XREF[2,0]:   0001cb9e,0001cba4
ram:0001cb9a    48df            svc         0x48                                    
ram:0001cb9c    0028            cmp         r0,#0x0                                 
ram:0001cb9e    fcd0            beq         LAB_0001cb9a                            
ram:0001cba0    fef752fe        bl          FUN_0001b848                            ;undefined FUN_0001b848(void)
ram:0001cba4    f9e7            b           LAB_0001cb9a                            
ram:0001cba6    0000            movs        r0,r0                                   
                            PTR_DAT_0001cba8:             ;XREF[4,0]:   0001cad8,0001cb54,0001cb6e,0001cb82
ram:0001cba8    f4e00100        addr        DAT_0001e0f4                            ;= 20003E5Ch
                            DAT_0001cbac:                 ;XREF[1,0]:   0001caea
ram:0001cbac    183f0020        undefined4  20003F18h                               
                            PTR_LAB_0001db20+1+1_0001cbb0:;XREF[1,0]:   0001caf8
ram:0001cbb0    21db0100        addr        LAB_0001db20+1+1                        
                            DAT_0001cbb4:                 ;XREF[1,0]:   0001cb0c
ram:0001cbb4    18410020        undefined4  20004118h                               
                            DAT_0001cbb8:                 ;XREF[1,0]:   0001cb1e
ram:0001cbb8    66060000        undefined4  00000666h                               
                            DAT_0001cbbc:                 ;XREF[1,0]:   0001cb22
ram:0001cbbc    cc3d0020        undefined4  20003DCCh                               
                            PTR_LAB_0001c2c4+1+1_0001cbc0:;XREF[1,0]:   0001cb34
ram:0001cbc0    c5c20100        addr        LAB_0001c2c4+1+1                        
                            PTR_LAB_0001c9f4+1+1_0001cbc4:;XREF[1,0]:   0001cb50
ram:0001cbc4    f5c90100        addr        LAB_0001c9f4+1+1                        
                            PTR_DAT_0001cbc8:             ;XREF[1,0]:   0001cb70
ram:0001cbc8    d9c90100        addr        DAT_0001c9d9                            ;= DFh
                            PTR_FUN_0001caac+1_0001cbcc:  ;XREF[1,0]:   0001cb84
ram:0001cbcc    adca0100        addr        FUN_0001caac+1                          
                            ;************************************************************************************************
                            ;*                                           FUNCTION                                           *
                            ;************************************************************************************************
                            ;undefined FUN_0001cbd0(uint param_1, int param_2)
          ;param_1       uint                r0                      
          ;param_2       int                 r1                      
                                                          ;XREF[2,0]:   0001cdc0,0001ce80
ram:0001cbd0    8207            lsls        r2,param_1,#0x1e                        
ram:0001cbd2    d30e            lsrs        r3,r2,#0x1b                             
ram:0001cbd4    ff22            movs        r2,#0xff                                
ram:0001cbd6    9a40            lsls        r2,r3                                   
ram:0001cbd8    8907            lsls        param_2,param_2,#0x1e                   
ram:0001cbda    090e            lsrs        param_2,param_2,#0x18                   
ram:0001cbdc    10b5            push        {r4,lr}                                 
ram:0001cbde    9940            lsls        param_2,r3                              
ram:0001cbe0    0028            cmp         param_1,#0x0                            
ram:0001cbe2    0bda            bge         LAB_0001cbfc                            
ram:0001cbe4    0307            lsls        r3,param_1,#0x1c                        
ram:0001cbe6    1b0f            lsrs        r3,r3,#0x1c                             
ram:0001cbe8    083b            subs        r3,#0x8                                 
ram:0001cbea    9c08            lsrs        r4,r3,#0x2                              
ram:0001cbec    0c4b            ldr         r3,[DAT_0001cc20]                       ;= E000ED00h
ram:0001cbee    a400            lsls        r4,r4,#0x2                              
ram:0001cbf0    e318            adds        r3,r4,r3                                
ram:0001cbf2    dc69            ldr         r4,[r3,#0x1c]                           
ram:0001cbf4    9443            bics        r4,r2                                   
ram:0001cbf6    0c43            orrs        r4,param_2                              
ram:0001cbf8    dc61            str         r4,[r3,#0x1c]                           
ram:0001cbfa    07e0            b           LAB_0001cc0c                            
                            LAB_0001cbfc:                 ;XREF[1,0]:   0001cbe2
ram:0001cbfc    8408            lsrs        r4,param_1,#0x2                         
ram:0001cbfe    094b            ldr         r3,[DAT_0001cc24]                       ;= E000E400h
ram:0001cc00    a400            lsls        r4,r4,#0x2                              
ram:0001cc02    e418            adds        r4,r4,r3                                
ram:0001cc04    2368            ldr         r3,[r4,#0x0]                            
ram:0001cc06    9343            bics        r3,r2                                   
ram:0001cc08    0b43            orrs        r3,param_2                              
ram:0001cc0a    2360            str         r3,[r4,#0x0]                            
                            LAB_0001cc0c:                 ;XREF[1,0]:   0001cbfa
ram:0001cc0c    c106            lsls        param_2,param_1,#0x1b                   
ram:0001cc0e    c90e            lsrs        param_2,param_2,#0x1b                   
ram:0001cc10    0120            movs        param_1,#0x1                            
ram:0001cc12    8840            lsls        param_1,param_2                         
ram:0001cc14    0449            ldr         param_2,[DAT_0001cc28]                  ;= E000E280h
ram:0001cc16    0860            str         param_1,[param_2,#0x0]=>DAT_e000e280    
ram:0001cc18    0449            ldr         param_2,[DAT_0001cc2c]                  ;= E000E100h
ram:0001cc1a    0860            str         param_1,[param_2,#0x0]=>DAT_e000e100    
ram:0001cc1c    10bd            pop         {r4,pc}                                 
ram:0001cc1e    0000            movs        r0,r0                                   
                            DAT_0001cc20:                 ;XREF[1,0]:   0001cbec
ram:0001cc20    00ed00e0        undefined4  E000ED00h                               
                            DAT_0001cc24:                 ;XREF[1,0]:   0001cbfe
ram:0001cc24    00e400e0        undefined4  E000E400h                               
                            DAT_0001cc28:                 ;XREF[1,0]:   0001cc14
ram:0001cc28    80e200e0        undefined4  E000E280h                               
                            DAT_0001cc2c:                 ;XREF[1,0]:   0001cc18
ram:0001cc2c    00e100e0        undefined4  E000E100h                               
                            ;************************************************************************************************
                            ;*                                           FUNCTION                                           *
                            ;************************************************************************************************
                            ;undefined FUN_0001cc30(uint param_1, int param_2)
          ;param_1       uint                r0                      
          ;param_2       int                 r1                      
          ;local_1c      undefined4         -1c                      ;XREF[6,0]:   0001cc36,0001cc42,0001cc60,0001cc6e,0001cc7e
                                                                     ;             0001cca4
                                                          ;XREF[1,0]:   0001b7a4
ram:0001cc30    f3b5            push        {param_1,param_2,r4,r5,r6,r7,lr}        
ram:0001cc32    81b0            sub         sp,#0x4                                 
ram:0001cc34    0f46            mov         r7,param_2                              
ram:0001cc36    0198            ldr         param_1,[sp,#local_1c+0x20]             
ram:0001cc38    00f0a6fc        bl          FUN_0001d588                            ;undefined4 FUN_0001d588(int param_1)
ram:0001cc3c    0124            movs        r4,#0x1                                 
ram:0001cc3e    0028            cmp         param_1,#0x0                            
ram:0001cc40    1e4e            ldr         r6,[DAT_0001ccbc]                       ;= 20005274h
ram:0001cc42    0198            ldr         param_1,[sp,#local_1c+0x20]             
ram:0001cc44    17d0            beq         LAB_0001cc76                            
ram:0001cc46    fff779fa        bl          FUN_0001c13c                            ;int FUN_0001c13c(int param_1)
ram:0001cc4a    8019            adds        param_1,param_1,r6                      
ram:0001cc4c    2030            adds        param_1,#0x20                           
ram:0001cc4e    007f            ldrb        param_1,[param_1,#0x1c]=>DAT_200052b0   
ram:0001cc50    8009            lsrs        param_1,param_1,#0x6                    
ram:0001cc52    0328            cmp         param_1,#0x3                            
ram:0001cc54    02d0            beq         LAB_0001cc5c                            
ram:0001cc56    0128            cmp         param_1,#0x1                            
ram:0001cc58    06d0            beq         LAB_0001cc68                            
ram:0001cc5a    07e0            b           LAB_0001cc6c                            
                            LAB_0001cc5c:                 ;XREF[1,0]:   0001cc54
ram:0001cc5c    1848            ldr         param_1,[DAT_0001ccc0]                  ;= 50000500h
ram:0001cc5e    0069            ldr         param_1,[param_1,#offset DAT_50000510...
ram:0001cc60    0199            ldr         param_2,[sp,#local_1c+0x20]             
ram:0001cc62    8c40            lsls        r4,param_2                              
ram:0001cc64    2042            tst         param_1,r4                              
ram:0001cc66    01d1            bne         LAB_0001cc6c                            
                            LAB_0001cc68:                 ;XREF[1,0]:   0001cc58
ram:0001cc68    0221            movs        param_2,#0x2                            
ram:0001cc6a    00e0            b           LAB_0001cc6e                            
                            LAB_0001cc6c:                 ;XREF[2,0]:   0001cc5a,0001cc66
ram:0001cc6c    0321            movs        param_2,#0x3                            
                            LAB_0001cc6e:                 ;XREF[1,0]:   0001cc6a
ram:0001cc6e    0198            ldr         param_1,[sp,#local_1c+0x20]             
ram:0001cc70    00f02cfa        bl          FUN_0001d0cc                            ;undefined FUN_0001d0cc(int param_1, ...
                            LAB_0001cc74:                 ;XREF[3,0]:   0001cc7c,0001cca2,0001ccb0
ram:0001cc74    febd            pop         {param_2,r2,r3,r4,r5,r6,r7,pc}          
                            LAB_0001cc76:                 ;XREF[1,0]:   0001cc44
ram:0001cc76    00f093fc        bl          FUN_0001d5a0                            ;undefined4 FUN_0001d5a0(int param_1)
ram:0001cc7a    0028            cmp         param_1,#0x0                            
ram:0001cc7c    fad0            beq         LAB_0001cc74                            
ram:0001cc7e    0198            ldr         param_1,[sp,#local_1c+0x20]             
ram:0001cc80    fff75cfa        bl          FUN_0001c13c                            ;int FUN_0001c13c(int param_1)
ram:0001cc84    0546            mov         r5,param_1                              
ram:0001cc86    8100            lsls        param_2,param_1,#0x2                    
ram:0001cc88    c81d            adds        param_1,param_2,#0x7                    
ram:0001cc8a    0e4a            ldr         r2,[DAT_0001ccc4]                       ;= 40006500h
ram:0001cc8c    f930            adds        param_1,#0xf9                           
ram:0001cc8e    8918            adds        param_2,param_2,r2                      
ram:0001cc90    0a69            ldr         r2,[param_2,#offset DAT_40006510 &0xff] 
ram:0001cc92    80b2            uxth        param_1,param_1                         
ram:0001cc94    2243            orrs        r2,r4                                   
ram:0001cc96    0a61            str         r2,[param_2,#offset DAT_40006510 &0xff] 
ram:0001cc98    0b49            ldr         param_2,[DAT_0001ccc8]                  ;= 40006000h
ram:0001cc9a    4018            adds        param_1,param_1,param_2                 
ram:0001cc9c    0021            movs        param_2,#0x0                            
ram:0001cc9e    0160            str         param_2,[param_1,#0x0]                  
ram:0001cca0    002f            cmp         r7,#0x0                                 
ram:0001cca2    e7d0            beq         LAB_0001cc74                            
ram:0001cca4    0198            ldr         param_1,[sp,#local_1c+0x20]             
ram:0001cca6    fff749fa        bl          FUN_0001c13c                            ;int FUN_0001c13c(int param_1)
ram:0001ccaa    8000            lsls        param_1,param_1,#0x2                    
ram:0001ccac    3058            ldr         param_1,[r6,param_1]=>DAT_20005274      
ram:0001ccae    0028            cmp         param_1,#0x0                            
ram:0001ccb0    e0d0            beq         LAB_0001cc74                            
ram:0001ccb2    0648            ldr         param_1,[DAT_0001cccc]                  ;= 40006300h
ram:0001ccb4    ac40            lsls        r4,r5                                   
ram:0001ccb6    4460            str         r4,[param_1,#offset DAT_40006304 &0xff] 
ram:0001ccb8    febd            pop         {param_2,r2,r3,r4,r5,r6,r7,pc}          
ram:0001ccba    0000            movs        r0,r0                                   
                            DAT_0001ccbc:                 ;XREF[1,0]:   0001cc40
ram:0001ccbc    74520020        undefined4  20005274h                               
                            DAT_0001ccc0:                 ;XREF[1,0]:   0001cc5c
ram:0001ccc0    00050050        undefined4  50000500h                               
                            DAT_0001ccc4:                 ;XREF[1,0]:   0001cc8a
ram:0001ccc4    00650040        undefined4  40006500h                               
                            DAT_0001ccc8:                 ;XREF[1,0]:   0001cc98
ram:0001ccc8    00600040        undefined4  40006000h                               
                            DAT_0001cccc:                 ;XREF[1,0]:   0001ccb2
ram:0001cccc    00630040        undefined4  40006300h                               
                            ;************************************************************************************************
                            ;*                                           FUNCTION                                           *
                            ;************************************************************************************************
                            ;undefined8 FUN_0001ccd0(int param_1, byte * param_2, undefined4 param_3)
          ;param_1       int                 r0                      
          ;param_2       byte *              r1                      
          ;param_3       undefined4          r2                      
          ;local_1c      undefined4         -1c                      ;XREF[1,0]:   0001cd1c
          ;local_20      undefined4         -20                      ;XREF[1,0]:   0001cd18
                                                          ;XREF[1,0]:   0001b7fe
ram:0001ccd0    feb5            push        {param_2,param_3,r3,r4,r5,r6,r7,lr}     
ram:0001ccd2    0446            mov         r4,param_1                              
ram:0001ccd4    2348            ldr         param_1,[DAT_0001cd64]                  ;= 20005274h
ram:0001ccd6    0e46            mov         r6,param_2                              
ram:0001ccd8    0019            adds        param_1,param_1,r4                      
ram:0001ccda    2021            movs        param_2,#0x20                           
ram:0001ccdc    4156            ldrsb       param_2,[param_1,param_2]=>DAT_20005294 
ram:0001ccde    0027            movs        r7,#0x0                                 
ram:0001cce0    c817            asrs        param_1,param_2,#0x1f                   
ram:0001cce2    1346            mov         r3,param_3                              
ram:0001cce4    401c            adds        param_1,param_1,#0x1                    
ram:0001cce6    01d0            beq         LAB_0001ccec                            
ram:0001cce8    0827            movs        r7,#0x8                                 
ram:0001ccea    38e0            b           LAB_0001cd5e                            
                            LAB_0001ccec:                 ;XREF[1,0]:   0001cce6
ram:0001ccec    f278            ldrb        param_3,[r6,#0x3]                       
ram:0001ccee    1946            mov         param_2,r3                              
ram:0001ccf0    2046            mov         param_1,r4                              
ram:0001ccf2    fff7fff9        bl          FUN_0001c0f4                            ;int FUN_0001c0f4(int param_1, undefi...
ram:0001ccf6    0546            mov         r5,param_1                              
ram:0001ccf8    401c            adds        param_1,param_1,#0x1                    
ram:0001ccfa    2fd0            beq         LAB_0001cd5c                            
ram:0001ccfc    b078            ldrb        param_1,[r6,#0x2]                       
ram:0001ccfe    0028            cmp         param_1,#0x0                            
ram:0001cd00    07d0            beq         LAB_0001cd12                            
ram:0001cd02    1948            ldr         param_1,[DAT_0001cd68]                  ;= 50000700h
ram:0001cd04    a100            lsls        param_2,r4,#0x2                         
ram:0001cd06    0918            adds        param_2,param_2,param_1                 
ram:0001cd08    0868            ldr         param_1,[param_2,#0x0]                  
ram:0001cd0a    0222            movs        param_3,#0x2                            
ram:0001cd0c    9043            bics        param_1,param_3                         
ram:0001cd0e    0860            str         param_1,[param_2,#0x0]                  
ram:0001cd10    07e0            b           LAB_0001cd22                            
                            LAB_0001cd12:                 ;XREF[1,0]:   0001cd00
ram:0001cd12    0021            movs        param_2,#0x0                            
ram:0001cd14    7378            ldrb        r3,[r6,#0x1]                            
ram:0001cd16    2046            mov         param_1,r4                              
ram:0001cd18    0091            str         param_2,[sp,#0x0]=>local_20             
ram:0001cd1a    0a46            mov         param_3,param_2                         
ram:0001cd1c    0191            str         param_2,[sp,#local_1c+0x20]             
ram:0001cd1e    00f09df9        bl          FUN_0001d05c                            ;undefined FUN_0001d05c(int param_1, ...
                            LAB_0001cd22:                 ;XREF[1,0]:   0001cd10
ram:0001cd22    f078            ldrb        param_1,[r6,#0x3]                       
ram:0001cd24    0028            cmp         param_1,#0x0                            
ram:0001cd26    10d0            beq         LAB_0001cd4a                            
ram:0001cd28    1048            ldr         param_1,[DAT_0001cd6c]                  ;= 40006500h
ram:0001cd2a    aa00            lsls        param_3,r5,#0x2                         
ram:0001cd2c    1018            adds        param_1,param_3,param_1                 
ram:0001cd2e    3178            ldrb        param_2,[r6,#0x0]                       
ram:0001cd30    0269            ldr         param_3,[param_1,#offset DAT_40006510...
ram:0001cd32    0f4b            ldr         r3,[DAT_0001cd70]                       ;= FFFCE0FFh
ram:0001cd34    1a40            ands        param_3,r3                              
ram:0001cd36    0261            str         param_3,[param_1,#offset DAT_40006510...
ram:0001cd38    e206            lsls        param_3,r4,#0x1b                        
ram:0001cd3a    d20c            lsrs        param_3,param_3,#0x13                   
ram:0001cd3c    8907            lsls        param_2,param_2,#0x1e                   
ram:0001cd3e    890b            lsrs        param_2,param_2,#0xe                    
ram:0001cd40    0a43            orrs        param_3,param_2                         
ram:0001cd42    0169            ldr         param_2,[param_1,#offset DAT_40006510...
ram:0001cd44    0a43            orrs        param_3,param_2                         
ram:0001cd46    0261            str         param_3,[param_1,#offset DAT_40006510...
ram:0001cd48    09e0            b           LAB_0001cd5e                            
                            LAB_0001cd4a:                 ;XREF[1,0]:   0001cd26
ram:0001cd4a    0648            ldr         param_1,[DAT_0001cd64]                  ;= 20005274h
ram:0001cd4c    3278            ldrb        param_3,[r6,#0x0]                       
ram:0001cd4e    4019            adds        param_1,param_1,r5                      
ram:0001cd50    2030            adds        param_1,#0x20                           
ram:0001cd52    017f            ldrb        param_2,[param_1,#0x1c]=>DAT_200052b0   
ram:0001cd54    9201            lsls        param_3,param_3,#0x6                    
ram:0001cd56    1143            orrs        param_2,param_3                         
ram:0001cd58    0177            strb        param_2,[param_1,#0x1c]=>DAT_200052b0   
ram:0001cd5a    00e0            b           LAB_0001cd5e                            
                            LAB_0001cd5c:                 ;XREF[1,0]:   0001ccfa
ram:0001cd5c    0427            movs        r7,#0x4                                 
                            LAB_0001cd5e:                 ;XREF[3,0]:   0001ccea,0001cd48,0001cd5a
ram:0001cd5e    3846            mov         param_1,r7                              
ram:0001cd60    febd            pop         {param_2,param_3,r3,r4,r5,r6,r7,pc}     
ram:0001cd62    0000            movs        r0,r0                                   
                            DAT_0001cd64:                 ;XREF[2,0]:   0001ccd4,0001cd4a
ram:0001cd64    74520020        undefined4  20005274h                               
                            DAT_0001cd68:                 ;XREF[1,0]:   0001cd02
ram:0001cd68    00070050        undefined4  50000700h                               
                            DAT_0001cd6c:                 ;XREF[1,0]:   0001cd28
ram:0001cd6c    00650040        undefined4  40006500h                               
                            DAT_0001cd70:                 ;XREF[1,0]:   0001cd32
ram:0001cd70    ffe0fcff        undefined4  FFFCE0FFh                               
                            ;************************************************************************************************
                            ;*                                           FUNCTION                                           *
                            ;************************************************************************************************
                            ;int FUN_0001cd74(uint param_1)
          ;param_1       uint                r0                      
                                                          ;XREF[2,0]:   0001c3fc,0001c586
ram:0001cd74    0349            ldr         r1,[DAT_0001cd84]                       ;= 50000500h
ram:0001cd76    0969            ldr         r1,[r1,#offset DAT_50000510 &0xff]      
ram:0001cd78    c140            lsrs        r1,param_1                              
ram:0001cd7a    c807            lsls        param_1,r1,#0x1f                        
ram:0001cd7c    c00f            lsrs        param_1,param_1,#0x1f                   
ram:0001cd7e    00d0            beq         LAB_0001cd82                            
ram:0001cd80    0120            movs        param_1,#0x1                            
                            LAB_0001cd82:                 ;XREF[1,0]:   0001cd7e
ram:0001cd82    7047            bx          lr                                      
                            DAT_0001cd84:                 ;XREF[1,0]:   0001cd74
ram:0001cd84    00050050        undefined4  50000500h                               
                            ;************************************************************************************************
                            ;*                                           FUNCTION                                           *
                            ;************************************************************************************************
                            ;undefined4 FUN_0001cd88(void)
                                                          ;XREF[1,0]:   0001b7d0
ram:0001cd88    70b5            push        {r4,r5,r6,lr}                           
ram:0001cd8a    124d            ldr         r5,[DAT_0001cdd4]                       ;= 200052B4h
ram:0001cd8c    2879            ldrb        r0,[r5,#0x4]=>DAT_200052b8              
ram:0001cd8e    0028            cmp         r0,#0x0                                 
ram:0001cd90    01d0            beq         LAB_0001cd96                            
ram:0001cd92    0820            movs        r0,#0x8                                 
ram:0001cd94    70bd            pop         {r4,r5,r6,pc}                           
                            LAB_0001cd96:                 ;XREF[1,0]:   0001cd90
ram:0001cd96    0f49            ldr         r1,[DAT_0001cdd4]                       ;= 200052B4h
ram:0001cd98    0020            movs        r0,#0x0                                 
ram:0001cd9a    4039            subs        r1,#0x40                                
ram:0001cd9c    421e            subs        r2,r0,#0x1                              
                            LAB_0001cd9e:                 ;XREF[1,0]:   0001cdaa
ram:0001cd9e    0b18            adds        r3,r1,r0                                
ram:0001cda0    2033            adds        r3=>DAT_20005294,#0x20                  
ram:0001cda2    401c            adds        r0,r0,#0x1                              
ram:0001cda4    c0b2            uxtb        r0,r0                                   
                                                          ; FWD[2,0]:   20005294,20005295
ram:0001cda6    1a70            strb        r2,[r3,#0x0]=>DAT_20005294              
ram:0001cda8    2028            cmp         r0,#0x20                                
ram:0001cdaa    f8d3            bcc         LAB_0001cd9e                            
ram:0001cdac    0024            movs        r4,#0x0                                 
                            LAB_0001cdae:                 ;XREF[1,0]:   0001cdba
ram:0001cdae    2046            mov         r0,r4                                   
ram:0001cdb0    fff792f9        bl          FUN_0001c0d8                            ;undefined FUN_0001c0d8(uint param_1)
ram:0001cdb4    641c            adds        r4,r4,#0x1                              
ram:0001cdb6    e4b2            uxtb        r4,r4                                   
ram:0001cdb8    082c            cmp         r4,#0x8                                 
ram:0001cdba    f8d3            bcc         LAB_0001cdae                            
ram:0001cdbc    0321            movs        r1,#0x3                                 
ram:0001cdbe    0620            movs        r0,#0x6                                 
ram:0001cdc0    fff706ff        bl          FUN_0001cbd0                            ;undefined FUN_0001cbd0(uint param_1,...
ram:0001cdc4    0120            movs        r0,#0x1                                 
ram:0001cdc6    0449            ldr         r1,[DAT_0001cdd8]                       ;= 40006300h
ram:0001cdc8    c007            lsls        r0,r0,#0x1f                             
ram:0001cdca    4860            str         r0,[r1,#offset DAT_40006304 &0xff]      
ram:0001cdcc    0120            movs        r0,#0x1                                 
ram:0001cdce    2871            strb        r0,[r5,#0x4]=>DAT_200052b8              
ram:0001cdd0    0020            movs        r0,#0x0                                 
ram:0001cdd2    70bd            pop         {r4,r5,r6,pc}                           
                            DAT_0001cdd4:                 ;XREF[2,0]:   0001cd8a,0001cd96
ram:0001cdd4    b4520020        undefined4  200052B4h                               
                            DAT_0001cdd8:                 ;XREF[1,0]:   0001cdc6
ram:0001cdd8    00630040        undefined4  40006300h                               
                            ;************************************************************************************************
                            ;*                                           FUNCTION                                           *
                            ;************************************************************************************************
                            ;char FUN_0001cddc(void)
                                                          ;XREF[1,0]:   0001b7c8
ram:0001cddc    0248            ldr         r0,[DAT_0001cde8]                       ;= 200052B4h
ram:0001cdde    0079            ldrb        r0,[r0,#0x4]=>DAT_200052b8              
ram:0001cde0    0028            cmp         r0,#0x0                                 
ram:0001cde2    00d0            beq         LAB_0001cde6                            
ram:0001cde4    0120            movs        r0,#0x1                                 
                            LAB_0001cde6:                 ;XREF[1,0]:   0001cde2
ram:0001cde6    7047            bx          lr                                      
                            DAT_0001cde8:                 ;XREF[1,0]:   0001cddc
ram:0001cde8    b4520020        undefined4  200052B4h                               
                            ;************************************************************************************************
                            ;*                                           FUNCTION                                           *
                            ;************************************************************************************************
                            ;longlong FUN_0001cdec(int * param_1, int param_2)
          ;param_1       int *               r0                      
          ;param_2       int                 r1                      
          ;local_18      undefined4         -18                      ;XREF[1,0]:   0001ce5a
                                                          ;XREF[1,0]:   0001baec
ram:0001cdec    f3b5            push        {param_1,param_2,r4,r5,r6,r7,lr}        
ram:0001cdee    2a4c            ldr         r4,[DAT_0001ce98]                       ;= 200052BCh
ram:0001cdf0    0746            mov         r7,param_1                              
ram:0001cdf2    e07e            ldrb        param_1,[r4,#0x1b]=>DAT_200052d7        
ram:0001cdf4    81b0            sub         sp,#0x4                                 
ram:0001cdf6    0028            cmp         param_1,#0x0                            
ram:0001cdf8    01d0            beq         LAB_0001cdfe                            
ram:0001cdfa    0820            movs        param_1,#0x8                            
ram:0001cdfc    febd            pop         {param_2,r2,r3,r4,r5,r6,r7,pc}          
                            LAB_0001cdfe:                 ;XREF[1,0]:   0001cdf8
ram:0001cdfe    002f            cmp         r7,#0x0                                 
ram:0001ce00    00d1            bne         LAB_0001ce04                            
ram:0001ce02    264f            ldr         r7,[PTR_DAT_0001ce9c]                   ;= 0001e158
                            LAB_0001ce04:                 ;XREF[1,0]:   0001ce00
ram:0001ce04    0126            movs        r6,#0x1                                 
ram:0001ce06    3878            ldrb        param_1,[r7,#0x0]=>DAT_0001e158         ;= 00000009h
ram:0001ce08    3146            mov         param_2,r6                              
ram:0001ce0a    8140            lsls        param_2,param_1                         
ram:0001ce0c    2448            ldr         param_1,[DAT_0001cea0]                  ;= 50000500h
ram:0001ce0e    8160            str         param_2,[param_1,#offset DAT_50000508...
ram:0001ce10    3868            ldr         param_1,[r7,#0x0]=>DAT_0001e158         ;= 00000009h
ram:0001ce12    00f050f9        bl          FUN_0001d0b6                            ;undefined FUN_0001d0b6(int param_1)
ram:0001ce16    0021            movs        param_2,#0x0                            
ram:0001ce18    7868            ldr         param_1,[r7,#0x4]=>DAT_0001e15c         ;= 0000000Bh
ram:0001ce1a    00f043f9        bl          FUN_0001d0a4                            ;undefined FUN_0001d0a4(int param_1, ...
ram:0001ce1e    214d            ldr         r5,[DAT_0001cea4]                       ;= 40002500h
ram:0001ce20    b869            ldr         param_1,[r7,#0x18]=>DAT_0001e170        ;= 01D7E000h
ram:0001ce22    6862            str         param_1,[r5,#offset DAT_40002524 &0xff] 
ram:0001ce24    787d            ldrb        param_1,[r7,#0x15]=>DAT_0001e16d        
ram:0001ce26    397d            ldrb        param_2,[r7,#0x14]=>DAT_0001e16c        
ram:0001ce28    0843            orrs        param_1,param_2                         
ram:0001ce2a    e866            str         param_1,[r5,#offset DAT_4000256c &0xff] 
                                                          ; FWD[2,0]:   0001e158,0001e15c
ram:0001ce2c    03cf            ldmia       r7!,{param_1,param_2}=>DAT_0001e158     ;= 00000009h
                                                                                    ;= 0000000Bh
ram:0001ce2e    e860            str         param_1,[r5,#offset DAT_4000250c &0xff] 
ram:0001ce30    6961            str         param_2,[r5,#offset DAT_40002514 &0xff] 
ram:0001ce32    387b            ldrb        param_1,[r7,#0xc]=>DAT_0001e16c         
ram:0001ce34    083f            subs        r7,#0x8                                 
ram:0001ce36    0128            cmp         param_1,#0x1                            
ram:0001ce38    0fd1            bne         LAB_0001ce5a                            
ram:0001ce3a    0021            movs        param_2,#0x0                            
ram:0001ce3c    b868            ldr         param_1,[r7,#0x8]=>DAT_0001e160         ;= 0000000Ah
ram:0001ce3e    00f031f9        bl          FUN_0001d0a4                            ;undefined FUN_0001d0a4(int param_1, ...
ram:0001ce42    387b            ldrb        param_1,[r7,#0xc]=>DAT_0001e164         ;= 00000008h
ram:0001ce44    3146            mov         param_2,r6                              
ram:0001ce46    8140            lsls        param_2,param_1                         
ram:0001ce48    1548            ldr         param_1,[DAT_0001cea0]                  ;= 50000500h
ram:0001ce4a    8160            str         param_2,[param_1,#offset DAT_50000508...
ram:0001ce4c    f868            ldr         param_1,[r7,#0xc]=>DAT_0001e164         ;= 00000008h
ram:0001ce4e    00f032f9        bl          FUN_0001d0b6                            ;undefined FUN_0001d0b6(int param_1)
ram:0001ce52    f968            ldr         param_2,[r7,#0xc]=>DAT_0001e164         ;= 00000008h
ram:0001ce54    b868            ldr         param_1,[r7,#0x8]=>DAT_0001e160         ;= 0000000Ah
ram:0001ce56    a960            str         param_2,[r5,#offset DAT_40002508 &0xff] 
ram:0001ce58    2861            str         param_1,[r5,#offset DAT_40002510 &0xff] 
                            LAB_0001ce5a:                 ;XREF[1,0]:   0001ce38
ram:0001ce5a    0298            ldr         param_1,[sp,#local_18+0x20]             
ram:0001ce5c    6060            str         param_1,[r4,#0x4]=>DAT_200052c0         
ram:0001ce5e    3969            ldr         param_2,[r7,#0x10]=>DAT_0001e168        
ram:0001ce60    2160            str         param_2,[r4,#0x0]=>DAT_200052bc         
ram:0001ce62    0028            cmp         param_1,#0x0                            
ram:0001ce64    0ed0            beq         LAB_0001ce84                            
ram:0001ce66    ff23            movs        r3,#0xff                                
ram:0001ce68    0f48            ldr         param_1,[DAT_0001cea8]                  ;= 40002000h
ram:0001ce6a    1d33            adds        r3,#0x1d                                
ram:0001ce6c    397f            ldrb        param_2,[r7,#0x1c]=>DAT_0001e174        ;= 03h
ram:0001ce6e    0022            movs        r2,#0x0                                 
ram:0001ce70    c250            str         r2,[param_1,r3]=>DAT_4000211c           
ram:0001ce72    ff23            movs        r3,#0xff                                
ram:0001ce74    4533            adds        r3,#0x45                                
ram:0001ce76    c250            str         r2,[param_1,r3]=>DAT_40002144           
ram:0001ce78    0d4a            ldr         r2,[DAT_0001ceb0]                       ;= 40002300h
ram:0001ce7a    0c48            ldr         param_1,[DAT_0001ceac]                  ;= 00020080h
ram:0001ce7c    5060            str         param_1,[r2,#offset DAT_40002304 &0xff] 
ram:0001ce7e    0220            movs        param_1,#0x2                            
ram:0001ce80    fff7a6fe        bl          FUN_0001cbd0                            ;undefined FUN_0001cbd0(uint param_1,...
                            LAB_0001ce84:                 ;XREF[1,0]:   0001ce64
ram:0001ce84    0420            movs        param_1,#0x4                            
ram:0001ce86    2860            str         param_1,[r5,#0x0]=>DAT_40002500         
ram:0001ce88    0020            movs        param_1,#0x0                            
ram:0001ce8a    e075            strb        param_1,[r4,#0x17]=>DAT_200052d3        
ram:0001ce8c    2076            strb        param_1,[r4,#0x18]=>DAT_200052d4        
ram:0001ce8e    a075            strb        param_1,[r4,#0x16]=>DAT_200052d2        
ram:0001ce90    e676            strb        r6,[r4,#0x1b]=>DAT_200052d7             
ram:0001ce92    a076            strb        param_1,[r4,#0x1a]=>DAT_200052d6        
ram:0001ce94    febd            pop         {param_2,r2,r3,r4,r5,r6,r7,pc}          
ram:0001ce96    0000            movs        r0,r0                                   
                            DAT_0001ce98:                 ;XREF[1,0]:   0001cdee
ram:0001ce98    bc520020        undefined4  200052BCh                               
                            PTR_DAT_0001ce9c:             ;XREF[1,0]:   0001ce02
ram:0001ce9c    58e10100        addr        DAT_0001e158                            ;= 00000009h
                            DAT_0001cea0:                 ;XREF[2,0]:   0001ce0c,0001ce48
ram:0001cea0    00050050        undefined4  50000500h                               
                            DAT_0001cea4:                 ;XREF[1,0]:   0001ce1e
ram:0001cea4    00250040        undefined4  40002500h                               
                            DAT_0001cea8:                 ;XREF[1,0]:   0001ce68
ram:0001cea8    00200040        undefined4  40002000h                               
                            DAT_0001ceac:                 ;XREF[1,0]:   0001ce7a
ram:0001ceac    80000200        undefined4  00020080h                               
                            DAT_0001ceb0:                 ;XREF[1,0]:   0001ce78
ram:0001ceb0    00230040        undefined4  40002300h                               
                            ;************************************************************************************************
                            ;*                                           FUNCTION                                           *
                            ;************************************************************************************************
                            ;undefined4 FUN_0001ceb4(undefined4 param_1, undefined4 param_2)
          ;param_1       undefined4          r0                      
          ;param_2       undefined4          r1                      
                                                          ;XREF[4,0]:   0001ba56,0001bafe,0001de08,0001de1e
ram:0001ceb4    f8b5            push        {r3,r4,r5,r6,r7,lr}                     
ram:0001ceb6    104b            ldr         r3,[DAT_0001cef8]                       ;= 200052BCh
ram:0001ceb8    8124            movs        r4,#0x81                                
ram:0001ceba    5e68            ldr         r6,[r3,#0x4]=>DAT_200052c0              
ram:0001cebc    0022            movs        r2,#0x0                                 
ram:0001cebe    a400            lsls        r4,r4,#0x2                              
ram:0001cec0    0e4d            ldr         r5,[DAT_0001cefc]                       ;= 40002300h
ram:0001cec2    002e            cmp         r6,#0x0                                 
ram:0001cec4    00d0            beq         LAB_0001cec8                            
ram:0001cec6    ac60            str         r4,[r5,#offset DAT_40002308 &0xff]      
                            LAB_0001cec8:                 ;XREF[1,0]:   0001cec4
ram:0001cec8    df7d            ldrb        r7,[r3,#0x17]=>DAT_200052d3             
ram:0001ceca    002f            cmp         r7,#0x0                                 
ram:0001cecc    0bd0            beq         LAB_0001cee6                            
ram:0001cece    1a7e            ldrb        r2,[r3,#0x18]=>DAT_200052d4             
ram:0001ced0    002a            cmp         r2,#0x0                                 
ram:0001ced2    04d0            beq         LAB_0001cede                            
ram:0001ced4    002e            cmp         r6,#0x0                                 
ram:0001ced6    00d0            beq         LAB_0001ceda                            
ram:0001ced8    6c60            str         r4,[r5,#offset DAT_40002304 &0xff]      
                            LAB_0001ceda:                 ;XREF[1,0]:   0001ced6
ram:0001ceda    1120            movs        param_1,#0x11                           
ram:0001cedc    f8bd            pop         {r3,r4,r5,r6,r7,pc}                     
                            LAB_0001cede:                 ;XREF[1,0]:   0001ced2
ram:0001cede    1861            str         param_1,[r3,#0x10]=>DAT_200052cc        
ram:0001cee0    0122            movs        r2,#0x1                                 
ram:0001cee2    1976            strb        param_2,[r3,#0x18]=>DAT_200052d4        
ram:0001cee4    04e0            b           LAB_0001cef0                            
                            LAB_0001cee6:                 ;XREF[1,0]:   0001cecc
ram:0001cee6    d975            strb        param_2,[r3,#0x17]=>DAT_200052d3        
ram:0001cee8    0024            movs        r4,#0x0                                 
ram:0001ceea    d860            str         param_1,[r3,#0xc]=>DAT_200052c8         
ram:0001ceec    5c76            strb        r4,[r3,#0x19]=>DAT_200052d5             
ram:0001ceee    1c76            strb        r4,[r3,#0x18]=>DAT_200052d4             
                            LAB_0001cef0:                 ;XREF[1,0]:   0001cee4
ram:0001cef0    00f012f8        bl          FUN_0001cf18                            ;undefined4 FUN_0001cf18(undefined4 p...
ram:0001cef4    f8bd            pop         {r3,r4,r5,r6,r7,pc}                     
ram:0001cef6    0000            movs        r0,r0                                   
                            DAT_0001cef8:                 ;XREF[1,0]:   0001ceb6
ram:0001cef8    bc520020        undefined4  200052BCh                               
                            DAT_0001cefc:                 ;XREF[1,0]:   0001cec0
ram:0001cefc    00230040        undefined4  40002300h                               
                            ;************************************************************************************************
                            ;*                                           FUNCTION                                           *
                            ;************************************************************************************************
                            ;undefined FUN_0001cf00(void)
                                                          ;XREF[1,0]:   0001baf4
ram:0001cf00    10b5            push        {r4,lr}                                 
ram:0001cf02    044c            ldr         r4,[DAT_0001cf14]                       ;= 200052BCh
ram:0001cf04    a07e            ldrb        r0,[r4,#0x1a]=>DAT_200052d6             
ram:0001cf06    0028            cmp         r0,#0x0                                 
ram:0001cf08    03d1            bne         LAB_0001cf12                            
ram:0001cf0a    00f0fbfb        bl          FUN_0001d704                            ;undefined FUN_0001d704(void)
ram:0001cf0e    0120            movs        r0,#0x1                                 
ram:0001cf10    a076            strb        r0,[r4,#0x1a]=>DAT_200052d6             
                            LAB_0001cf12:                 ;XREF[1,0]:   0001cf08
ram:0001cf12    10bd            pop         {r4,pc}                                 
                            DAT_0001cf14:                 ;XREF[1,0]:   0001cf02
ram:0001cf14    bc520020        undefined4  200052BCh                               
                            ;************************************************************************************************
                            ;*                                           FUNCTION                                           *
                            ;************************************************************************************************
                            ;undefined4 FUN_0001cf18(undefined4 param_1, undefined4 param_2, uint param_3)
          ;param_1       undefined4          r0                      
          ;param_2       undefined4          r1                      
          ;param_3       uint                r2                      
                                                          ;XREF[1,0]:   0001cef0
ram:0001cf18    f8b5            push        {r3,r4,r5,r6,r7,lr}                     
ram:0001cf1a    234d            ldr         r5,[DAT_0001cfa8]                       ;= 200052BCh
ram:0001cf1c    a87e            ldrb        param_1,[r5,#0x1a]=>DAT_200052d6        
ram:0001cf1e    1043            orrs        param_1,param_3                         
ram:0001cf20    01d1            bne         LAB_0001cf26                            
ram:0001cf22    00f0effb        bl          FUN_0001d704                            ;undefined FUN_0001d704(void)
                            LAB_0001cf26:                 ;XREF[1,0]:   0001cf20
ram:0001cf26    6868            ldr         param_1,[r5,#0x4]=>DAT_200052c0         
ram:0001cf28    204c            ldr         r4,[DAT_0001cfac]                       ;= 40002000h
ram:0001cf2a    0028            cmp         param_1,#0x0                            
ram:0001cf2c    05d0            beq         LAB_0001cf3a                            
ram:0001cf2e    8120            movs        param_1,#0x81                           
ram:0001cf30    1f49            ldr         param_2,[DAT_0001cfb0]                  ;= 40002300h
ram:0001cf32    8000            lsls        param_1,param_1,#0x2                    
ram:0001cf34    4860            str         param_1,[param_2,#offset DAT_40002304...
                            LAB_0001cf36:                 ;XREF[2,0]:   0001cfa2,0001cfa6
ram:0001cf36    0020            movs        param_1,#0x0                            
ram:0001cf38    f8bd            pop         {r3,r4,r5,r6,r7,pc}                     
                            LAB_0001cf3a:                 ;XREF[1,0]:   0001cf2c
ram:0001cf3a    ff20            movs        param_1,#0xff                           
ram:0001cf3c    4530            adds        param_1,#0x45                           
ram:0001cf3e    0021            movs        param_2,#0x0                            
ram:0001cf40    2150            str         param_2,[r4,param_1]=>DAT_40002144      
                            LAB_0001cf42:                 ;XREF[2,0]:   0001cf6c,0001cf80
ram:0001cf42    ff21            movs        param_2,#0xff                           
ram:0001cf44    2531            adds        param_2,#0x25                           
ram:0001cf46    2046            mov         param_1=>DAT_40002000,r4                
ram:0001cf48    00f0daf8        bl          FUN_0001d100                            ;int FUN_0001d100(int param_1, int pa...
ram:0001cf4c    0546            mov         r5,param_1                              
ram:0001cf4e    ff21            movs        param_2,#0xff                           
ram:0001cf50    0931            adds        param_2,#0x9                            
ram:0001cf52    2046            mov         param_1=>DAT_40002000,r4                
ram:0001cf54    00f0d4f8        bl          FUN_0001d100                            ;int FUN_0001d100(int param_1, int pa...
ram:0001cf58    0746            mov         r7,param_1                              
ram:0001cf5a    ff21            movs        param_2,#0xff                           
ram:0001cf5c    4531            adds        param_2,#0x45                           
ram:0001cf5e    2046            mov         param_1=>DAT_40002000,r4                
ram:0001cf60    00f0cef8        bl          FUN_0001d100                            ;int FUN_0001d100(int param_1, int pa...
ram:0001cf64    0646            mov         r6,param_1                              
ram:0001cf66    3946            mov         param_2,r7                              
ram:0001cf68    3143            orrs        param_2,r6                              
ram:0001cf6a    2943            orrs        param_2,r5                              
ram:0001cf6c    e9d0            beq         LAB_0001cf42                            
ram:0001cf6e    2846            mov         param_1,r5                              
ram:0001cf70    3043            orrs        param_1,r6                              
ram:0001cf72    06d1            bne         LAB_0001cf82                            
ram:0001cf74    00f09cfb        bl          FUN_0001d6b0                            ;int FUN_0001d6b0(void)
ram:0001cf78    0b48            ldr         param_1,[DAT_0001cfa8]                  ;= 200052BCh
ram:0001cf7a    c17d            ldrb        param_2,[param_1,#0x17]=>DAT_200052d3   
ram:0001cf7c    407e            ldrb        param_1,[param_1,#0x19]=>DAT_200052d5   
ram:0001cf7e    8142            cmp         param_2,param_1                         
ram:0001cf80    dfd8            bhi         LAB_0001cf42                            
                            LAB_0001cf82:                 ;XREF[1,0]:   0001cf72
ram:0001cf82    0021            movs        param_2,#0x0                            
ram:0001cf84    0848            ldr         param_1,[DAT_0001cfa8]                  ;= 200052BCh
ram:0001cf86    002d            cmp         r5,#0x0                                 
ram:0001cf88    c175            strb        param_2,[param_1,#0x17]=>DAT_200052d3   
ram:0001cf8a    01d0            beq         LAB_0001cf90                            
ram:0001cf8c    0320            movs        param_1,#0x3                            
ram:0001cf8e    f8bd            pop         {r3,r4,r5,r6,r7,pc}                     
                            LAB_0001cf90:                 ;XREF[1,0]:   0001cf8a
ram:0001cf90    002e            cmp         r6,#0x0                                 
ram:0001cf92    01d0            beq         LAB_0001cf98                            
ram:0001cf94    0f20            movs        param_1,#0xf                            
ram:0001cf96    f8bd            pop         {r3,r4,r5,r6,r7,pc}                     
                            LAB_0001cf98:                 ;XREF[1,0]:   0001cf92
ram:0001cf98    817e            ldrb        param_2,[param_1,#0x1a]=>DAT_200052d6   
ram:0001cf9a    0120            movs        param_1,#0x1                            
ram:0001cf9c    0029            cmp         param_2,#0x0                            
ram:0001cf9e    01d0            beq         LAB_0001cfa4                            
ram:0001cfa0    2060            str         param_1,[r4,#0x0]=>DAT_40002000         
ram:0001cfa2    c8e7            b           LAB_0001cf36                            
                            LAB_0001cfa4:                 ;XREF[1,0]:   0001cf9e
ram:0001cfa4    6060            str         param_1,[r4,#offset DAT_40002004 &0xff] 
ram:0001cfa6    c6e7            b           LAB_0001cf36                            
                            DAT_0001cfa8:                 ;XREF[3,0]:   0001cf1a,0001cf78,0001cf84
ram:0001cfa8    bc520020        undefined4  200052BCh                               
                            DAT_0001cfac:                 ;XREF[1,0]:   0001cf28
ram:0001cfac    00200040        undefined4  40002000h                               
                            DAT_0001cfb0:                 ;XREF[1,0]:   0001cf30
ram:0001cfb0    00230040        undefined4  40002300h                               
                            ;************************************************************************************************
                            ;*                                           FUNCTION                                           *
                            ;************************************************************************************************
                            ;undefined4 FUN_0001cfb4(undefined4 param_1)
          ;param_1       undefined4          r0                      
                                                          ;XREF[2,0]:   0001bb3a,0001de2a
ram:0001cfb4    10b5            push        {r4,lr}                                 
ram:0001cfb6    0346            mov         r3,param_1                              
ram:0001cfb8    00f048f8        bl          FUN_0001d04c                            ;char FUN_0001d04c(void)
ram:0001cfbc    0028            cmp         param_1,#0x0                            
ram:0001cfbe    01d0            beq         LAB_0001cfc4                            
ram:0001cfc0    1120            movs        param_1,#0x11                           
ram:0001cfc2    10bd            pop         {r4,pc}                                 
                            LAB_0001cfc4:                 ;XREF[1,0]:   0001cfbe
ram:0001cfc4    034a            ldr         r2,[DAT_0001cfd4]                       ;= 200052BCh
ram:0001cfc6    0020            movs        param_1,#0x0                            
ram:0001cfc8    9175            strb        r1,[r2,#0x16]=>DAT_200052d2             
ram:0001cfca    9360            str         r3,[r2,#0x8]=>DAT_200052c4              
ram:0001cfcc    9082            strh        param_1,[r2,#0x14]=>DAT_200052d0        
ram:0001cfce    00f003f8        bl          FUN_0001cfd8                            ;undefined4 FUN_0001cfd8(void)
ram:0001cfd2    10bd            pop         {r4,pc}                                 
                            DAT_0001cfd4:                 ;XREF[1,0]:   0001cfc4
ram:0001cfd4    bc520020        undefined4  200052BCh                               
                            ;************************************************************************************************
                            ;*                                           FUNCTION                                           *
                            ;************************************************************************************************
                            ;undefined4 FUN_0001cfd8(void)
                                                          ;XREF[1,0]:   0001cfce
ram:0001cfd8    f8b5            push        {r3,r4,r5,r6,r7,lr}                     
ram:0001cfda    0026            movs        r6,#0x0                                 
ram:0001cfdc    194f            ldr         r7,[DAT_0001d044]                       ;= 40002000h
ram:0001cfde    ff25            movs        r5,#0xff                                
ram:0001cfe0    1d35            adds        r5,#0x1d                                
ram:0001cfe2    7e51            str         r6,[r7,r5]=>DAT_4000211c                
ram:0001cfe4    0120            movs        r0,#0x1                                 
ram:0001cfe6    b860            str         r0,[r7,#offset DAT_40002008 &0xff]      
ram:0001cfe8    00f074fd        bl          FUN_0001dad4                            ;undefined FUN_0001dad4(void)
ram:0001cfec    164c            ldr         r4,[DAT_0001d048]                       ;= 200052BCh
ram:0001cfee    6168            ldr         r1,[r4,#0x4]=>DAT_200052c0              
ram:0001cff0    0029            cmp         r1,#0x0                                 
ram:0001cff2    10d0            beq         LAB_0001d016                            
ram:0001cff4    22e0            b           LAB_0001d03c                            
                            LAB_0001cff6:                 ;XREF[1,0]:   0001d01c
ram:0001cff6    ff27            movs        r7,#0xff                                
ram:0001cff8    0137            adds        r7,#0x1                                 
                            LAB_0001cffa:                 ;XREF[1,0]:   0001d00a
ram:0001cffa    2946            mov         r1,r5                                   
ram:0001cffc    1148            ldr         r0=>DAT_40002000,[DAT_0001d044]         ;= 40002000h
ram:0001cffe    00f07ff8        bl          FUN_0001d100                            ;int FUN_0001d100(int param_1, int pa...
ram:0001d002    0028            cmp         r0,#0x0                                 
ram:0001d004    02d1            bne         LAB_0001d00c                            
ram:0001d006    a08a            ldrh        r0,[r4,#0x14]=>DAT_200052d0             
ram:0001d008    b842            cmp         r0,r7                                   
ram:0001d00a    f6d1            bne         LAB_0001cffa                            
                            LAB_0001d00c:                 ;XREF[1,0]:   0001d004
ram:0001d00c    a08a            ldrh        r0,[r4,#0x14]=>DAT_200052d0             
ram:0001d00e    b842            cmp         r0,r7                                   
ram:0001d010    01d0            beq         LAB_0001d016                            
ram:0001d012    00f05ffd        bl          FUN_0001dad4                            ;undefined FUN_0001dad4(void)
                            LAB_0001d016:                 ;XREF[2,0]:   0001cff2,0001d010
ram:0001d016    a08a            ldrh        r0,[r4,#0x14]=>DAT_200052d0             
ram:0001d018    a17d            ldrb        r1,[r4,#0x16]=>DAT_200052d2             
ram:0001d01a    8842            cmp         r0,r1                                   
ram:0001d01c    ebd3            bcc         LAB_0001cff6                            
ram:0001d01e    a18a            ldrh        r1,[r4,#0x14]=>DAT_200052d0             
ram:0001d020    c81f            subs        r0,r1,#0x7                              
ram:0001d022    f938            subs        r0,#0xf9                                
ram:0001d024    0cd0            beq         LAB_0001d040                            
ram:0001d026    074f            ldr         r7,[DAT_0001d044]                       ;= 40002000h
                            LAB_0001d028:                 ;XREF[1,0]:   0001d032
ram:0001d028    2946            mov         r1,r5                                   
ram:0001d02a    3846            mov         r0=>DAT_40002000,r7                     
ram:0001d02c    00f068f8        bl          FUN_0001d100                            ;int FUN_0001d100(int param_1, int pa...
ram:0001d030    0028            cmp         r0,#0x0                                 
ram:0001d032    f9d0            beq         LAB_0001d028                            
ram:0001d034    0120            movs        r0,#0x1                                 
ram:0001d036    f860            str         r0,[r7,#offset DAT_4000200c &0xff]      
                            LAB_0001d038:                 ;XREF[1,0]:   0001d042
ram:0001d038    0020            movs        r0,#0x0                                 
ram:0001d03a    a075            strb        r0,[r4,#0x16]=>DAT_200052d2             
                            LAB_0001d03c:                 ;XREF[1,0]:   0001cff4
ram:0001d03c    3046            mov         r0,r6                                   
ram:0001d03e    f8bd            pop         {r3,r4,r5,r6,r7,pc}                     
                            LAB_0001d040:                 ;XREF[1,0]:   0001d024
ram:0001d040    0f26            movs        r6,#0xf                                 
ram:0001d042    f9e7            b           LAB_0001d038                            
                            DAT_0001d044:                 ;XREF[3,0]:   0001cfdc,0001cffc,0001d026
ram:0001d044    00200040        undefined4  40002000h                               
                            DAT_0001d048:                 ;XREF[1,0]:   0001cfec
ram:0001d048    bc520020        undefined4  200052BCh                               
                            ;************************************************************************************************
                            ;*                                           FUNCTION                                           *
                            ;************************************************************************************************
                            ;char FUN_0001d04c(void)
                                                          ;XREF[2,0]:   0001bb22,0001cfb8
ram:0001d04c    0248            ldr         r0,[DAT_0001d058]                       ;= 200052BCh
ram:0001d04e    807d            ldrb        r0,[r0,#0x16]=>DAT_200052d2             
ram:0001d050    0028            cmp         r0,#0x0                                 
ram:0001d052    00d0            beq         LAB_0001d056                            
ram:0001d054    0120            movs        r0,#0x1                                 
                            LAB_0001d056:                 ;XREF[1,0]:   0001d052
ram:0001d056    7047            bx          lr                                      
                            DAT_0001d058:                 ;XREF[1,0]:   0001d04c
ram:0001d058    bc520020        undefined4  200052BCh                               
                            ;************************************************************************************************
                            ;*                                           FUNCTION                                           *
                            ;************************************************************************************************
                            ;undefined FUN_0001d05c(int param_1, uint param_2, int param_3, int param_4, int param_5, int param_6)
          ;param_1       int                 r0                      
          ;param_2       uint                r1                      
          ;param_3       int                 r2                      
          ;param_4       int                 r3                      
          ;param_5       int                  0                      ;XREF[1,0]:   0001d064
          ;param_6       int                  4                      ;XREF[1,0]:   0001d06a
                                                          ;XREF[1,0]:   0001cd1e
ram:0001d05c    30b5            push        {r4,r5,lr}                              
ram:0001d05e    5200            lsls        param_3,param_3,#0x1                    
ram:0001d060    0a43            orrs        param_3,param_2                         
ram:0001d062    9900            lsls        param_2,param_4,#0x2                    
ram:0001d064    039c            ldr         r4,[sp,#param_5+0xc]                    
ram:0001d066    0a43            orrs        param_3,param_2                         
ram:0001d068    2102            lsls        param_2,r4,#0x8                         
ram:0001d06a    049d            ldr         r5,[sp,#param_6+0xc]                    
ram:0001d06c    0a43            orrs        param_3,param_2                         
ram:0001d06e    2904            lsls        param_2,r5,#0x10                        
ram:0001d070    0a43            orrs        param_3,param_2                         
ram:0001d072    0249            ldr         param_2,[DAT_0001d07c]                  ;= 50000700h
ram:0001d074    8000            lsls        param_1,param_1,#0x2                    
ram:0001d076    4018            adds        param_1,param_1,param_2                 
ram:0001d078    0260            str         param_3,[param_1,#0x0]                  
ram:0001d07a    30bd            pop         {r4,r5,pc}                              
                            DAT_0001d07c:                 ;XREF[1,0]:   0001d072
ram:0001d07c    00070050        undefined4  50000700h                               
                            ;************************************************************************************************
                            ;*                                           FUNCTION                                           *
                            ;************************************************************************************************
                            ;undefined FUN_0001d080(int param_1, uint param_2, int param_3, int param_4, int param_5, int param_6)
          ;param_1       int                 r0                      
          ;param_2       uint                r1                      
          ;param_3       int                 r2                      
          ;param_4       int                 r3                      
          ;param_5       int                  0                      ;XREF[1,0]:   0001d088
          ;param_6       int                  4                      ;XREF[1,0]:   0001d08e
                                                          ;XREF[2,0]:   0001d0b0,0001d0c4
ram:0001d080    30b5            push        {r4,r5,lr}                              
ram:0001d082    5200            lsls        param_3,param_3,#0x1                    
ram:0001d084    0a43            orrs        param_3,param_2                         
ram:0001d086    9900            lsls        param_2,param_4,#0x2                    
ram:0001d088    039c            ldr         r4,[sp,#param_5+0xc]                    
ram:0001d08a    0a43            orrs        param_3,param_2                         
ram:0001d08c    2102            lsls        param_2,r4,#0x8                         
ram:0001d08e    049d            ldr         r5,[sp,#param_6+0xc]                    
ram:0001d090    0a43            orrs        param_3,param_2                         
ram:0001d092    2904            lsls        param_2,r5,#0x10                        
ram:0001d094    0a43            orrs        param_3,param_2                         
ram:0001d096    0249            ldr         param_2,[DAT_0001d0a0]                  ;= 50000700h
ram:0001d098    8000            lsls        param_1,param_1,#0x2                    
ram:0001d09a    4018            adds        param_1,param_1,param_2                 
ram:0001d09c    0260            str         param_3,[param_1,#0x0]                  
ram:0001d09e    30bd            pop         {r4,r5,pc}                              
                            DAT_0001d0a0:                 ;XREF[1,0]:   0001d096
ram:0001d0a0    00070050        undefined4  50000700h                               
                            ;************************************************************************************************
                            ;*                                           FUNCTION                                           *
                            ;************************************************************************************************
                            ;undefined FUN_0001d0a4(int param_1, int param_2)
          ;param_1       int                 r0                      
          ;param_2       int                 r1                      
          ;local_c       undefined4          -c                      ;XREF[1,0]:   0001d0ae
          ;local_10      undefined4         -10                      ;XREF[1,0]:   0001d0aa
                                                          ;XREF[2,0]:   0001ce1a,0001ce3e
ram:0001d0a4    1cb5            push        {r2,r3,r4,lr}                           
ram:0001d0a6    0022            movs        r2,#0x0                                 
ram:0001d0a8    0b46            mov         r3,param_2                              
ram:0001d0aa    0092            str         r2,[sp,#0x0]=>local_10                  
ram:0001d0ac    1146            mov         param_2,r2                              
ram:0001d0ae    0192            str         r2,[sp,#local_c+0x10]                   
ram:0001d0b0    fff7e6ff        bl          FUN_0001d080                            ;undefined FUN_0001d080(int param_1, ...
ram:0001d0b4    1cbd            pop         {r2,r3,r4,pc}                           
                            ;************************************************************************************************
                            ;*                                           FUNCTION                                           *
                            ;************************************************************************************************
                            ;undefined FUN_0001d0b6(int param_1)
          ;param_1       int                 r0                      
          ;local_c       undefined4          -c                      ;XREF[1,0]:   0001d0c0
          ;local_10      undefined4         -10                      ;XREF[1,0]:   0001d0ba
                                                          ;XREF[2,0]:   0001ce12,0001ce4e
ram:0001d0b6    1cb5            push        {r2,r3,r4,lr}                           
ram:0001d0b8    0021            movs        r1,#0x0                                 
ram:0001d0ba    0091            str         r1,[sp,#0x0]=>local_10                  
ram:0001d0bc    0b46            mov         r3,r1                                   
ram:0001d0be    0122            movs        r2,#0x1                                 
ram:0001d0c0    0191            str         r1,[sp,#local_c+0x10]                   
ram:0001d0c2    1146            mov         r1,r2                                   
ram:0001d0c4    fff7dcff        bl          FUN_0001d080                            ;undefined FUN_0001d080(int param_1, ...
ram:0001d0c8    1cbd            pop         {r2,r3,r4,pc}                           
ram:0001d0ca    0000            movs        r0,r0                                   
                            ;************************************************************************************************
                            ;*                                           FUNCTION                                           *
                            ;************************************************************************************************
                            ;undefined FUN_0001d0cc(int param_1, int param_2)
          ;param_1       int                 r0                      
          ;param_2       int                 r1                      
                                                          ;XREF[2,0]:   0001b3ce,0001cc70
ram:0001d0cc    8200            lsls        r2,param_1,#0x2                         
ram:0001d0ce    0648            ldr         param_1,[DAT_0001d0e8]                  ;= 50000700h
ram:0001d0d0    1018            adds        param_1,r2,param_1                      
ram:0001d0d2    0268            ldr         r2,[param_1,#0x0]                       
ram:0001d0d4    0323            movs        r3,#0x3                                 
ram:0001d0d6    1b04            lsls        r3,r3,#0x10                             
ram:0001d0d8    9a43            bics        r2,r3                                   
ram:0001d0da    0260            str         r2,[param_1,#0x0]                       
ram:0001d0dc    0268            ldr         r2,[param_1,#0x0]                       
ram:0001d0de    0904            lsls        param_2,param_2,#0x10                   
ram:0001d0e0    0a43            orrs        r2,param_2                              
ram:0001d0e2    0260            str         r2,[param_1,#0x0]                       
ram:0001d0e4    7047            bx          lr                                      
ram:0001d0e6    0000            movs        r0,r0                                   
                            DAT_0001d0e8:                 ;XREF[1,0]:   0001d0ce
ram:0001d0e8    00070050        undefined4  50000700h                               
                            ;************************************************************************************************
                            ;*                                           FUNCTION                                           *
                            ;************************************************************************************************
                            ;int FUN_0001d0ec(int param_1)
          ;param_1       int                 r0                      
                                                          ;XREF[2,0]:   0001b2e6,0001b310
ram:0001d0ec    0349            ldr         r1,[DAT_0001d0fc]                       ;= 40006000h
ram:0001d0ee    4018            adds        param_1,param_1,r1                      
ram:0001d0f0    0068            ldr         param_1,[param_1,#0x0]                  
ram:0001d0f2    0128            cmp         param_1,#0x1                            
ram:0001d0f4    00d0            beq         LAB_0001d0f8                            
ram:0001d0f6    0020            movs        param_1,#0x0                            
                            LAB_0001d0f8:                 ;XREF[1,0]:   0001d0f4
ram:0001d0f8    7047            bx          lr                                      
ram:0001d0fa    0000            movs        r0,r0                                   
                            DAT_0001d0fc:                 ;XREF[1,0]:   0001d0ec
ram:0001d0fc    00600040        undefined4  40006000h                               
                            ;************************************************************************************************
                            ;*                                           FUNCTION                                           *
                            ;************************************************************************************************
                            ;int FUN_0001d100(int param_1, int param_2)
          ;param_1       int                 r0                      
          ;param_2       int                 r1                      
                                                          ;XREF[9,0]:   0001cf48,0001cf54,0001cf60,0001cffe
                                                          ;             0001d02c,0001de70,0001dec6,0001df12
                                                          ;             0001df3c
ram:0001d100    4058            ldr         param_1,[param_1,param_2]               
ram:0001d102    0028            cmp         param_1,#0x0                            
ram:0001d104    00d0            beq         LAB_0001d108                            
ram:0001d106    0120            movs        param_1,#0x1                            
                            LAB_0001d108:                 ;XREF[1,0]:   0001d104
ram:0001d108    7047            bx          lr                                      
                            ;************************************************************************************************
                            ;*                                           FUNCTION                                           *
                            ;************************************************************************************************
                            ;uint FUN_0001d10a(int param_1, uint param_2)
          ;param_1       int                 r0                      
          ;param_2       uint                r1                      
                                                          ;XREF[2,0]:   0001de5c,0001deb8
ram:0001d10a    0322            movs        r2,#0x3                                 
ram:0001d10c    1202            lsls        r2,r2,#0x8                              
ram:0001d10e    8018            adds        param_1,param_1,r2                      
ram:0001d110    4068            ldr         param_1,[param_1,#0x4]                  
ram:0001d112    0840            ands        param_1,param_2                         
ram:0001d114    00d0            beq         LAB_0001d118                            
ram:0001d116    0120            movs        param_1,#0x1                            
                            LAB_0001d118:                 ;XREF[1,0]:   0001d114
ram:0001d118    7047            bx          lr                                      
ram:0001d11a    0000            movs        r0,r0                                   
                            ;************************************************************************************************
                            ;*                                           FUNCTION                                           *
                            ;************************************************************************************************
                            ;undefined FUN_0001d11c(int param_1)
          ;param_1       int                 r0                      
          ;local_30      undefined4         -30                      ;XREF[2,1]:   0001d1b4,0001d1bc,0001d1c4
          ;local_3c      undefined4         -3c                      ;XREF[4,0]:   0001d126,0001d144,0001d146,0001d150
          ;local_40      undefined2         -40                      ;XREF[1,0]:   0001d12e
                                                          ;XREF[1,0]:   0001d2e0
ram:0001d11c    f0b5            push        {r4,r5,r6,r7,lr}                        
ram:0001d11e    0246            mov         r2,param_1                              
ram:0001d120    8bb0            sub         sp,#0x2c                                
ram:0001d122    1132            adds        r2,#0x11                                
ram:0001d124    0146            mov         r1,param_1                              
ram:0001d126    0192            str         r2,[sp,#local_3c+0x40]                  
ram:0001d128    007c            ldrb        param_1,[param_1,#0x10]                 
ram:0001d12a    6a46            mov         r2,sp                                   
ram:0001d12c    c008            lsrs        param_1,param_1,#0x3                    
ram:0001d12e    1080            strh        param_1,[r2,#0x0]=>local_40             
ram:0001d130    0931            adds        r1,#0x9                                 
ram:0001d132    0622            movs        r2,#0x6                                 
ram:0001d134    05a8            add         param_1,sp,#0x14                        
ram:0001d136    fef70ff8        bl          FUN_0001b158                            ;undefined FUN_0001b158(undefined4 * ...
ram:0001d13a    05a8            add         param_1,sp,#0x14                        
ram:0001d13c    fff79afa        bl          FUN_0001c674                            ;int FUN_0001c674(int param_1)
ram:0001d140    411c            adds        r1,param_1,#0x1                         
ram:0001d142    44d0            beq         LAB_0001d1ce                            
ram:0001d144    019a            ldr         r2,[sp,#local_3c+0x40]                  
ram:0001d146    0199            ldr         r1,[sp,#local_3c+0x40]                  
ram:0001d148    927e            ldrb        r2,[r2,#0x1a]                           
ram:0001d14a    497e            ldrb        r1,[r1,#0x19]                           
ram:0001d14c    9207            lsls        r2,r2,#0x1e                             
ram:0001d14e    160f            lsrs        r6,r2,#0x1c                             
ram:0001d150    019a            ldr         r2,[sp,#local_3c+0x40]                  
ram:0001d152    8907            lsls        r1,r1,#0x1e                             
ram:0001d154    147f            ldrb        r4,[r2,#0x1c]                           
ram:0001d156    1422            movs        r2,#0x14                                
ram:0001d158    5043            muls        param_1,r2                              
ram:0001d15a    1e4a            ldr         r2,[DAT_0001d1d4]                       ;= 20004F10h
ram:0001d15c    0023            movs        r3,#0x0                                 
ram:0001d15e    8218            adds        r2,param_1,r2                           
ram:0001d160    5778            ldrb        r7,[r2,#0x1]=>DAT_20004f11              
ram:0001d162    890f            lsrs        r1,r1,#0x1e                             
ram:0001d164    8446            mov         r12,param_1                             
ram:0001d166    032f            cmp         r7,#0x3                                 
ram:0001d168    11d0            beq         LAB_0001d18e                            
ram:0001d16a    957c            ldrb        r5,[r2,#0x12]                           
ram:0001d16c    0846            mov         param_1,r1                              
ram:0001d16e    3043            orrs        param_1,r6                              
ram:0001d170    8542            cmp         r5,param_1                              
ram:0001d172    10d1            bne         LAB_0001d196                            
ram:0001d174    507c            ldrb        param_1,[r2,#0x11]                      
ram:0001d176    a042            cmp         param_1,r4                              
ram:0001d178    0dd1            bne         LAB_0001d196                            
ram:0001d17a    1748            ldr         param_1,[DAT_0001d1d8]                  ;= 20003DB0h
ram:0001d17c    8588            ldrh        r5,[param_1,#0x4]=>DAT_20003db4         
ram:0001d17e    4b20            movs        param_1,#0x4b                           
ram:0001d180    c000            lsls        param_1,param_1,#0x3                    
ram:0001d182    8542            cmp         r5,param_1                              
ram:0001d184    07d2            bcs         LAB_0001d196                            
ram:0001d186    1448            ldr         param_1,[DAT_0001d1d8]                  ;= 20003DB0h
ram:0001d188    6d1c            adds        r5,r5,#0x1                              
ram:0001d18a    8580            strh        r5,[param_1,#0x4]=>DAT_20003db4         
ram:0001d18c    04e0            b           LAB_0001d198                            
                            LAB_0001d18e:                 ;XREF[1,0]:   0001d168
ram:0001d18e    0123            movs        r3,#0x1                                 
ram:0001d190    0420            movs        param_1,#0x4                            
ram:0001d192    5070            strb        param_1,[r2,#0x1]=>DAT_20004f11         
ram:0001d194    02e0            b           LAB_0001d19c                            
                            LAB_0001d196:                 ;XREF[3,0]:   0001d172,0001d178,0001d184
ram:0001d196    0123            movs        r3,#0x1                                 
                            LAB_0001d198:                 ;XREF[1,0]:   0001d18c
ram:0001d198    042f            cmp         r7,#0x4                                 
ram:0001d19a    03d1            bne         LAB_0001d1a4                            
                            LAB_0001d19c:                 ;XREF[1,0]:   0001d194
ram:0001d19c    0d4f            ldr         r7,[DAT_0001d1d4]                       ;= 20004F10h
ram:0001d19e    0020            movs        param_1,#0x0                            
ram:0001d1a0    6546            mov         r5,r12                                  
ram:0001d1a2    7855            strb        param_1,[r7,r5]=>DAT_20004f10           
                            LAB_0001d1a4:                 ;XREF[1,0]:   0001d19a
ram:0001d1a4    002b            cmp         r3,#0x0                                 
ram:0001d1a6    12d0            beq         LAB_0001d1ce                            
ram:0001d1a8    0b4b            ldr         r3,[DAT_0001d1d8]                       ;= 20003DB0h
ram:0001d1aa    0020            movs        param_1,#0x0                            
ram:0001d1ac    9880            strh        param_1,[r3,#0x4]=>DAT_20003db4         
ram:0001d1ae    5474            strb        r4,[r2,#0x11]                           
ram:0001d1b0    3143            orrs        r1,r6                                   
ram:0001d1b2    9174            strb        r1,[r2,#0x12]                           
ram:0001d1b4    0490            str         param_1,[sp,#local_30+0x40]             
ram:0001d1b6    e020            movs        param_1,#0xe0                           
ram:0001d1b8    0143            orrs        r1,param_1                              
ram:0001d1ba    6846            mov         param_1,sp                              
ram:0001d1bc    0174            strb        r1,[r0,#local_30+0x40]                  
ram:0001d1be    8020            movs        param_1,#0x80                           
ram:0001d1c0    0443            orrs        r4,param_1                              
ram:0001d1c2    6846            mov         param_1,sp                              
ram:0001d1c4    4474            strb        r4,[r0,#local_30+0x41]                  
ram:0001d1c6    04a9            add         r1,sp,#0x10                             
ram:0001d1c8    05a8            add         param_1,sp,#0x14                        
ram:0001d1ca    fff705f8        bl          FUN_0001c1d8                            ;undefined FUN_0001c1d8(int param_1, ...
                            LAB_0001d1ce:                 ;XREF[2,0]:   0001d142,0001d1a6
ram:0001d1ce    0bb0            add         sp,#0x2c                                
ram:0001d1d0    f0bd            pop         {r4,r5,r6,r7,pc}                        
ram:0001d1d2    0000            movs        r0,r0                                   
                            DAT_0001d1d4:                 ;XREF[2,0]:   0001d15a,0001d19c
ram:0001d1d4    104f0020        undefined4  20004F10h                               
                            DAT_0001d1d8:                 ;XREF[3,0]:   0001d17a,0001d186,0001d1a8
ram:0001d1d8    b03d0020        undefined4  20003DB0h                               
                            ;************************************************************************************************
                            ;*                                           FUNCTION                                           *
                            ;************************************************************************************************
                            ;undefined FUN_0001d1dc(ushort * param_1, undefined4 param_2, undefined4 param_3, uint param_4)
          ;param_1       ushort *            r0                      
          ;param_2       undefined4          r1                      
          ;param_3       undefined4          r2                      
          ;param_4       uint                r3                      
          ;local_18      undefined4         -18                      ;XREF[4,2]:   0001d208,0001d20e,0001d2a8,0001d2b8,0001d212
                                                                     ;             0001d2bc
                                                          ;XREF[1,0]:   0001bd8c
ram:0001d1dc    f8b5            push        {param_4,r4,r5,r6,r7,lr}                
ram:0001d1de    041d            adds        r4,param_1,#0x4                         
ram:0001d1e0    0028            cmp         param_1,#0x0                            
ram:0001d1e2    27d0            beq         LAB_0001d234                            
ram:0001d1e4    0288            ldrh        param_3,[param_1,#0x0]                  
ram:0001d1e6    4249            ldr         param_2=>DAT_20003db0,[DAT_0001d2f0]    ;= 20003DB0h
ram:0001d1e8    0026            movs        r6,#0x0                                 
ram:0001d1ea    1b2a            cmp         param_3,#0x1b                           
ram:0001d1ec    7bd0            beq         LAB_0001d2e6                            
ram:0001d1ee    22dc            bgt         LAB_0001d236                            
ram:0001d1f0    404d            ldr         r5,[DAT_0001d2f4]                       ;= 20004260h
ram:0001d1f2    102a            cmp         param_3,#0x10                           
ram:0001d1f4    27d0            beq         LAB_0001d246                            
ram:0001d1f6    112a            cmp         param_3,#0x11                           
ram:0001d1f8    1cd1            bne         LAB_0001d234                            
ram:0001d1fa    2088            ldrh        param_1,[r4,#0x0]                       
ram:0001d1fc    2421            movs        param_2,#0x24                           
ram:0001d1fe    4843            muls        param_1,param_2                         
ram:0001d200    4019            adds        param_1,param_1,r5                      
ram:0001d202    017b            ldrb        param_2,[param_1,#0xc]=>DAT_2000426c    
ram:0001d204    ff29            cmp         param_2,#0xff                           
ram:0001d206    13d0            beq         LAB_0001d230                            
ram:0001d208    0096            str         r6,[sp,#0x0]=>local_18                  
ram:0001d20a    8178            ldrb        param_2,[param_1,#0x2]=>DAT_20004262    
ram:0001d20c    6846            mov         param_1,sp                              
ram:0001d20e    0170            strb        param_2,[param_1,#0x0]=>local_18        
ram:0001d210    8721            movs        param_2,#0x87                           
ram:0001d212    4170            strb        param_2,[r0,#local_18+0x19]             
ram:0001d214    2088            ldrh        param_1,[r4,#0x0]                       
ram:0001d216    2421            movs        param_2,#0x24                           
ram:0001d218    4843            muls        param_1,param_2                         
ram:0001d21a    4019            adds        param_1,param_1,r5                      
ram:0001d21c    6946            mov         param_2,sp                              
ram:0001d21e    0d30            adds        param_1,#0xd                            
ram:0001d220    fef7daff        bl          FUN_0001c1d8                            ;undefined FUN_0001c1d8(int param_1, ...
ram:0001d224    2088            ldrh        param_1,[r4,#0x0]                       
ram:0001d226    2422            movs        param_3,#0x24                           
ram:0001d228    5043            muls        param_1,param_3                         
ram:0001d22a    ff21            movs        param_2,#0xff                           
ram:0001d22c    4019            adds        param_1,param_1,r5                      
ram:0001d22e    0173            strb        param_2,[param_1,#0xc]=>DAT_2000426c    
                            LAB_0001d230:                 ;XREF[1,0]:   0001d206
ram:0001d230    fef78cfc        bl          FUN_0001bb4c                            ;undefined FUN_0001bb4c(void)
                            LAB_0001d234:                 ;XREF[4,0]:   0001d1e2,0001d1f8,0001d23c,0001d2a0
ram:0001d234    f8bd            pop         {param_4,r4,r5,r6,r7,pc}                
                            LAB_0001d236:                 ;XREF[1,0]:   0001d1ee
ram:0001d236    1d2a            cmp         param_3,#0x1d                           
ram:0001d238    52d0            beq         LAB_0001d2e0                            
ram:0001d23a    1f2a            cmp         param_3,#0x1f                           
ram:0001d23c    fad1            bne         LAB_0001d234                            
ram:0001d23e    2088            ldrh        param_1,[r4,#0x0]                       
ram:0001d240    211d            adds        param_2,r4,#0x4                         
ram:0001d242    75df            svc         0x75                                    
ram:0001d244    46e0            b           LAB_0001d2d4                            
                            LAB_0001d246:                 ;XREF[1,0]:   0001d1f4
ram:0001d246    0e70            strb        r6,[param_2,#0x0]=>DAT_20003db0         
ram:0001d248    2088            ldrh        param_1,[r4,#0x0]                       
ram:0001d24a    2421            movs        param_2,#0x24                           
ram:0001d24c    4843            muls        param_1,param_2                         
ram:0001d24e    4119            adds        param_2,param_1,r5                      
ram:0001d250    601d            adds        param_1,r4,#0x5                         
ram:0001d252    00f0cdf9        bl          FUN_0001d5f0                            ;longlong FUN_0001d5f0(int param_1, i...
ram:0001d256    0228            cmp         param_1,#0x2                            
ram:0001d258    26d0            beq         LAB_0001d2a8                            
ram:0001d25a    2088            ldrh        param_1,[r4,#0x0]                       
ram:0001d25c    0728            cmp         param_1,#0x7                            
ram:0001d25e    02d3            bcc         LAB_0001d266                            
ram:0001d260    0020            movs        param_1,#0x0                            
ram:0001d262    fef7f1fa        bl          FUN_0001b848                            ;undefined FUN_0001b848(void)
                            LAB_0001d266:                 ;XREF[1,0]:   0001d25e
ram:0001d266    2188            ldrh        param_2,[r4,#0x0]                       
ram:0001d268    2420            movs        param_1,#0x24                           
ram:0001d26a    4843            muls        param_1,param_2                         
ram:0001d26c    4019            adds        param_1,param_1,r5                      
ram:0001d26e    0022            movs        param_3,#0x0                            
ram:0001d270    fef7cafd        bl          FUN_0001be08                            ;undefined4 FUN_0001be08(undefined2 *...
ram:0001d274    0028            cmp         param_1,#0x0                            
ram:0001d276    01d0            beq         LAB_0001d27c                            
ram:0001d278    fef7e6fa        bl          FUN_0001b848                            ;undefined FUN_0001b848(void)
                            LAB_0001d27c:                 ;XREF[1,0]:   0001d276
ram:0001d27c    2188            ldrh        param_2,[r4,#0x0]                       
ram:0001d27e    ff20            movs        param_1,#0xff                           
ram:0001d280    1c4a            ldr         param_3,[DAT_0001d2f4]                  ;= 20004260h
ram:0001d282    ad30            adds        param_1,#0xad                           
ram:0001d284    4843            muls        param_1,param_2                         
ram:0001d286    fc32            adds        param_3,#0xfc                           
ram:0001d288    8018            adds        param_1,param_1,param_3                 
ram:0001d28a    fef747fd        bl          FUN_0001bd1c                            ;undefined8 FUN_0001bd1c(undefined2 *...
ram:0001d28e    1128            cmp         param_1,#0x11                           
ram:0001d290    03d0            beq         LAB_0001d29a                            
ram:0001d292    0028            cmp         param_1,#0x0                            
ram:0001d294    01d0            beq         LAB_0001d29a                            
ram:0001d296    fef7d7fa        bl          FUN_0001b848                            ;undefined FUN_0001b848(void)
                            LAB_0001d29a:                 ;XREF[2,0]:   0001d290,0001d294
ram:0001d29a    fef757fc        bl          FUN_0001bb4c                            ;undefined FUN_0001bb4c(void)
ram:0001d29e    0628            cmp         param_1,#0x6                            
ram:0001d2a0    c8d0            beq         LAB_0001d234                            
ram:0001d2a2    00f069fe        bl          FUN_0001df78                            ;undefined FUN_0001df78(undefined4 pa...
                            LAB_0001d2a6:                 ;XREF[1,0]:   0001d2d6
ram:0001d2a6    f8bd            pop         {param_4,r4,r5,r6,r7,pc}                
                            LAB_0001d2a8:                 ;XREF[1,0]:   0001d258
ram:0001d2a8    0096            str         r6,[sp,#0x0]=>local_18                  
ram:0001d2aa    2188            ldrh        param_2,[r4,#0x0]                       
ram:0001d2ac    1420            movs        param_1,#0x14                           
ram:0001d2ae    4143            muls        param_2,param_1                         
ram:0001d2b0    1148            ldr         param_1,[DAT_0001d2f8]                  ;= 20004F10h
ram:0001d2b2    0918            adds        param_2,param_2,param_1                 
ram:0001d2b4    0a7a            ldrb        param_3,[param_2,#0x8]=>DAT_20004f18    
ram:0001d2b6    6946            mov         param_2,sp                              
ram:0001d2b8    0a70            strb        param_3,[param_2,#0x0]=>local_18        
ram:0001d2ba    8222            movs        param_3,#0x82                           
ram:0001d2bc    4a70            strb        param_3,[r1,#local_18+0x19]             
ram:0001d2be    2188            ldrh        param_2,[r4,#0x0]                       
ram:0001d2c0    1422            movs        param_3,#0x14                           
ram:0001d2c2    5143            muls        param_2,param_3                         
ram:0001d2c4    0818            adds        param_1,param_2,param_1                 
ram:0001d2c6    6946            mov         param_2,sp                              
ram:0001d2c8    801c            adds        param_1,param_1,#0x2                    
ram:0001d2ca    fef785ff        bl          FUN_0001c1d8                            ;undefined FUN_0001c1d8(int param_1, ...
ram:0001d2ce    2088            ldrh        param_1,[r4,#0x0]                       
ram:0001d2d0    1321            movs        param_2,#0x13                           
ram:0001d2d2    76df            svc         0x76                                    
                            LAB_0001d2d4:                 ;XREF[1,0]:   0001d244
ram:0001d2d4    0028            cmp         param_1,#0x0                            
ram:0001d2d6    e6d0            beq         LAB_0001d2a6                            
ram:0001d2d8    fef7b6fa        bl          FUN_0001b848                            ;undefined FUN_0001b848(void)
                            LAB_0001d2dc:                 ;XREF[3,0]:   0001d2e4,0001d2ea,0001d2ee
ram:0001d2dc    f8bd            pop         {param_4,r4,r5,r6,r7,pc}                
ram:0001d2de    02e0            b           LAB_0001d2e6                            
                            LAB_0001d2e0:                 ;XREF[1,0]:   0001d238
ram:0001d2e0    fff71cff        bl          FUN_0001d11c                            ;undefined FUN_0001d11c(int param_1)
ram:0001d2e4    fae7            b           LAB_0001d2dc                            
                            LAB_0001d2e6:                 ;XREF[2,0]:   0001d1ec,0001d2de
ram:0001d2e6    2079            ldrb        param_1,[r4,#0x4]                       
ram:0001d2e8    0328            cmp         param_1,#0x3                            
ram:0001d2ea    f7d1            bne         LAB_0001d2dc                            
ram:0001d2ec    0e70            strb        r6,[param_2,#0x0]=>DAT_20003db0         
ram:0001d2ee    f5e7            b           LAB_0001d2dc                            
                            DAT_0001d2f0:                 ;XREF[1,0]:   0001d1e6
ram:0001d2f0    b03d0020        undefined4  20003DB0h                               
                            DAT_0001d2f4:                 ;XREF[2,0]:   0001d1f0,0001d280
ram:0001d2f4    60420020        undefined4  20004260h                               
                            DAT_0001d2f8:                 ;XREF[1,0]:   0001d2b0
ram:0001d2f8    104f0020        undefined4  20004F10h                               
                            ;************************************************************************************************
                            ;*                                           FUNCTION                                           *
                            ;************************************************************************************************
                            ;undefined FUN_0001d2fc(int param_1, ushort * param_2)
          ;param_1       int                 r0                      
          ;param_2       ushort *            r1                      
          ;local_1c      undefined4         -1c                      ;XREF[9,0]:   0001d300,0001d310,0001d31c,0001d37c,0001d392
                                                                     ;             0001d3aa,0001d3b8,0001d3d8,0001d3e0
          ;local_20      undefined4         -20                      ;XREF[2,0]:   0001d352,0001d35c
          ;local_24      undefined4         -24                      ;XREF[2,0]:   0001d32a,0001d346
          ;local_28      undefined4         -28                      ;XREF[5,0]:   0001d33c,0001d340,0001d362,0001d368,0001d3ce
                                                          ;XREF[1,0]:   0001bcfa
ram:0001d2fc    f3b5            push        {param_1,param_2,r4,r5,r6,r7,lr}        
ram:0001d2fe    83b0            sub         sp,#0xc                                 
ram:0001d300    0398            ldr         param_1,[sp,#local_1c+0x28]             
ram:0001d302    0c46            mov         r4,param_2                              
ram:0001d304    ff30            adds        param_1,#0xff                           
ram:0001d306    8130            adds        param_1,#0x81                           
ram:0001d308    0988            ldrh        param_2,[param_2,#0x0]                  
ram:0001d30a    408d            ldrh        param_1,[param_1,#0x2a]                 
ram:0001d30c    8142            cmp         param_2,param_1                         
ram:0001d30e    5bd1            bne         LAB_0001d3c8                            
ram:0001d310    039f            ldr         r7,[sp,#local_1c+0x28]                  
ram:0001d312    4621            movs        param_2,#0x46                           
ram:0001d314    ff37            adds        r7,#0xff                                
ram:0001d316    a137            adds        r7,#0xa1                                
ram:0001d318    b879            ldrb        param_1,[r7,#0x6]                       
ram:0001d31a    4843            muls        param_1,param_2                         
ram:0001d31c    0399            ldr         param_2,[sp,#local_1c+0x28]             
ram:0001d31e    4618            adds        r6,param_1,param_2                      
ram:0001d320    6088            ldrh        param_1,[r4,#0x2]                       
ram:0001d322    0028            cmp         param_1,#0x0                            
ram:0001d324    3dd1            bne         LAB_0001d3a2                            
ram:0001d326    2046            mov         param_1,r4                              
ram:0001d328    0830            adds        param_1,#0x8                            
ram:0001d32a    0190            str         param_1,[sp,#local_24+0x28]             
ram:0001d32c    3579            ldrb        r5,[r6,#0x4]                            
ram:0001d32e    207a            ldrb        param_1,[r4,#0x8]                       
ram:0001d330    2818            adds        param_1,r5,param_1                      
ram:0001d332    0528            cmp         param_1,#0x5                            
ram:0001d334    00d9            bls         LAB_0001d338                            
ram:0001d336    0520            movs        param_1,#0x5                            
                            LAB_0001d338:                 ;XREF[1,0]:   0001d334
ram:0001d338    3071            strb        param_1,[r6,#0x4]                       
ram:0001d33a    0020            movs        param_1,#0x0                            
ram:0001d33c    0090            str         param_1,[sp,#0x0]=>local_28             
ram:0001d33e    14e0            b           LAB_0001d36a                            
                            LAB_0001d340:                 ;XREF[1,0]:   0001d36e
ram:0001d340    0098            ldr         param_1,[sp,#0x0]=>local_28             
ram:0001d342    0a21            movs        param_2,#0xa                            
ram:0001d344    4843            muls        param_1,param_2                         
ram:0001d346    0199            ldr         param_2,[sp,#local_24+0x28]             
ram:0001d348    0a22            movs        r2,#0xa                                 
ram:0001d34a    4118            adds        param_2,param_1,param_2                 
ram:0001d34c    0c20            movs        param_1,#0xc                            
ram:0001d34e    6843            muls        param_1,r5                              
ram:0001d350    8019            adds        param_1,param_1,r6                      
ram:0001d352    0290            str         param_1,[sp,#local_20+0x28]             
ram:0001d354    0a30            adds        param_1,#0xa                            
ram:0001d356    891c            adds        param_2,param_2,#0x2                    
ram:0001d358    fdf7fefe        bl          FUN_0001b158                            ;undefined FUN_0001b158(undefined4 * ...
ram:0001d35c    0298            ldr         param_1,[sp,#local_20+0x28]             
ram:0001d35e    0021            movs        param_2,#0x0                            
ram:0001d360    8182            strh        param_2,[param_1,#0x14]                 
ram:0001d362    0098            ldr         param_1,[sp,#0x0]=>local_28             
ram:0001d364    401c            adds        param_1,param_1,#0x1                    
ram:0001d366    6d1c            adds        r5,r5,#0x1                              
ram:0001d368    0090            str         param_1,[sp,#0x0]=>local_28             
                            LAB_0001d36a:                 ;XREF[1,0]:   0001d33e
ram:0001d36a    3079            ldrb        param_1,[r6,#0x4]                       
ram:0001d36c    a842            cmp         param_1,r5                              
ram:0001d36e    e7d8            bhi         LAB_0001d340                            
ram:0001d370    0c20            movs        param_1,#0xc                            
ram:0001d372    4543            muls        r5,param_1                              
ram:0001d374    a819            adds        param_1,r5,r6                           
ram:0001d376    c288            ldrh        r2,[param_1,#0x6]                       
ram:0001d378    b879            ldrb        param_1,[r7,#0x6]                       
ram:0001d37a    4623            movs        r3,#0x46                                
ram:0001d37c    0399            ldr         param_2,[sp,#local_1c+0x28]             
ram:0001d37e    5843            muls        param_1,r3                              
ram:0001d380    4018            adds        param_1,param_1,param_2                 
ram:0001d382    0089            ldrh        param_1,[param_1,#0x8]                  
ram:0001d384    8242            cmp         r2,param_1                              
ram:0001d386    0cd2            bcs         LAB_0001d3a2                            
ram:0001d388    3079            ldrb        param_1,[r6,#0x4]                       
ram:0001d38a    0528            cmp         param_1,#0x5                            
ram:0001d38c    09d0            beq         LAB_0001d3a2                            
ram:0001d38e    7871            strb        param_1,[r7,#0x5]                       
ram:0001d390    2188            ldrh        param_2,[r4,#0x0]                       
ram:0001d392    0398            ldr         param_1,[sp,#local_1c+0x28]             
ram:0001d394    fef7dafe        bl          FUN_0001c14c                            ;undefined8 FUN_0001c14c(undefined4 p...
ram:0001d398    0100            movs        param_2,param_1                         
ram:0001d39a    15d0            beq         LAB_0001d3c8                            
ram:0001d39c    0020            movs        param_1,#0x0                            
ram:0001d39e    f871            strb        param_1,[r7,#0x7]                       
ram:0001d3a0    09e0            b           LAB_0001d3b6                            
                            LAB_0001d3a2:                 ;XREF[3,0]:   0001d324,0001d386,0001d38c
ram:0001d3a2    0025            movs        r5,#0x0                                 
ram:0001d3a4    7d71            strb        r5,[r7,#0x5]                            
ram:0001d3a6    2288            ldrh        r2,[r4,#0x0]                            
ram:0001d3a8    6946            mov         param_2,sp                              
ram:0001d3aa    0398            ldr         param_1,[sp,#local_1c+0x28]             
ram:0001d3ac    fef7d4ff        bl          FUN_0001c358                            ;undefined8 FUN_0001c358(int param_1,...
ram:0001d3b0    0100            movs        param_2,param_1                         
ram:0001d3b2    0bd0            beq         LAB_0001d3cc                            
ram:0001d3b4    fd71            strb        r5,[r7,#0x7]                            
                            LAB_0001d3b6:                 ;XREF[1,0]:   0001d3a0
ram:0001d3b6    2288            ldrh        r2,[r4,#0x0]                            
ram:0001d3b8    0398            ldr         param_1,[sp,#local_1c+0x28]             
ram:0001d3ba    fff785f8        bl          FUN_0001c4c8                            ;undefined FUN_0001c4c8(int param_1)
ram:0001d3be    0a48            ldr         param_1=>DAT_20005074,[DAT_0001d3e8]    ;= 20005074h
ram:0001d3c0    0321            movs        param_2,#0x3                            
ram:0001d3c2    0170            strb        param_2,[param_1,#0x0]=>DAT_20005074    
ram:0001d3c4    2188            ldrh        param_2,[r4,#0x0]                       
ram:0001d3c6    4180            strh        param_2,[param_1,#0x2]=>DAT_20005076    
                            LAB_0001d3c8:                 ;XREF[4,0]:   0001d30e,0001d39a,0001d3d2,0001d3e6
ram:0001d3c8    05b0            add         sp,#0x14                                
ram:0001d3ca    f0bd            pop         {r4,r5,r6,r7,pc}                        
                            LAB_0001d3cc:                 ;XREF[1,0]:   0001d3b2
ram:0001d3cc    6846            mov         param_1,sp                              
ram:0001d3ce    0078            ldrb        param_1=>local_28,[param_1,#0x0]        
ram:0001d3d0    0028            cmp         param_1,#0x0                            
ram:0001d3d2    f9d0            beq         LAB_0001d3c8                            
ram:0001d3d4    2288            ldrh        r2,[r4,#0x0]                            
ram:0001d3d6    0121            movs        param_2,#0x1                            
ram:0001d3d8    0398            ldr         param_1,[sp,#local_1c+0x28]             
ram:0001d3da    fff72ff8        bl          FUN_0001c43c                            ;undefined FUN_0001c43c(int param_1, ...
ram:0001d3de    2188            ldrh        param_2,[r4,#0x0]                       
ram:0001d3e0    0398            ldr         param_1,[sp,#local_1c+0x28]             
ram:0001d3e2    00f09bf8        bl          FUN_0001d51c                            ;undefined FUN_0001d51c(int param_1, ...
ram:0001d3e6    efe7            b           LAB_0001d3c8                            
                            DAT_0001d3e8:                 ;XREF[1,0]:   0001d3be
ram:0001d3e8    74500020        undefined4  20005074h                               
                            ;************************************************************************************************
                            ;*                                           FUNCTION                                           *
                            ;************************************************************************************************
                            ;undefined FUN_0001d3ec(int param_1, ushort * param_2, undefined4 param_3, uint param_4)
          ;param_1       int                 r0                      
          ;param_2       ushort *            r1                      
          ;param_3       undefined4          r2                      
          ;param_4       uint                r3                      
          ;local_18      undefined1         -18                      ;XREF[3,0]:   0001d44e,0001d45e,0001d48a
                                                          ;XREF[1,0]:   0001bcea
ram:0001d3ec    f8b5            push        {param_4,r4,r5,r6,r7,lr}                
ram:0001d3ee    0546            mov         r5,param_1                              
ram:0001d3f0    ff30            adds        param_1,#0xff                           
ram:0001d3f2    0c46            mov         r4,param_2                              
ram:0001d3f4    8130            adds        param_1,#0x81                           
ram:0001d3f6    0988            ldrh        param_2,[param_2,#0x0]                  
ram:0001d3f8    408d            ldrh        param_1,[param_1,#0x2a]                 
ram:0001d3fa    8142            cmp         param_2,param_1                         
ram:0001d3fc    43d1            bne         LAB_0001d486                            
ram:0001d3fe    2e46            mov         r6,r5                                   
ram:0001d400    ff36            adds        r6,#0xff                                
ram:0001d402    a136            adds        r6,#0xa1                                
ram:0001d404    b079            ldrb        param_1,[r6,#0x6]                       
ram:0001d406    4621            movs        param_2,#0x46                           
ram:0001d408    4843            muls        param_1,param_2                         
ram:0001d40a    4219            adds        param_3,param_1,r5                      
ram:0001d40c    7079            ldrb        param_1,[r6,#0x5]                       
ram:0001d40e    0c23            movs        param_4,#0xc                            
ram:0001d410    5843            muls        param_1,param_4                         
ram:0001d412    8018            adds        param_1,param_1,param_3                 
ram:0001d414    0a30            adds        param_1,#0xa                            
ram:0001d416    8646            mov         lr,param_1                              
ram:0001d418    2146            mov         param_2,r4                              
ram:0001d41a    6088            ldrh        param_1,[r4,#0x2]                       
ram:0001d41c    0831            adds        param_2,#0x8                            
ram:0001d41e    0028            cmp         param_1,#0x0                            
ram:0001d420    13d1            bne         LAB_0001d44a                            
ram:0001d422    0f88            ldrh        r7,[param_2,#0x0]                       
ram:0001d424    1f4b            ldr         param_4,[DAT_0001d4a4]                  ;= 00002902h
ram:0001d426    bc46            mov         r12,r7                                  
ram:0001d428    0de0            b           LAB_0001d446                            
                            LAB_0001d42a:                 ;XREF[1,0]:   0001d448
ram:0001d42a    0627            movs        r7,#0x6                                 
ram:0001d42c    4743            muls        r7,param_1                              
ram:0001d42e    7f18            adds        r7,r7,param_2                           
ram:0001d430    bf88            ldrh        r7,[r7,#0x4]                            
ram:0001d432    9f42            cmp         r7,param_4                              
ram:0001d434    06d1            bne         LAB_0001d444                            
ram:0001d436    0623            movs        param_4,#0x6                            
ram:0001d438    5843            muls        param_1,param_4                         
ram:0001d43a    4018            adds        param_1,param_1,param_2                 
ram:0001d43c    4188            ldrh        param_2,[param_1,#0x2]                  
ram:0001d43e    7046            mov         param_1,lr                              
ram:0001d440    4181            strh        param_2,[param_1,#0xa]                  
ram:0001d442    02e0            b           LAB_0001d44a                            
                            LAB_0001d444:                 ;XREF[1,0]:   0001d434
ram:0001d444    401c            adds        param_1,param_1,#0x1                    
                            LAB_0001d446:                 ;XREF[1,0]:   0001d428
ram:0001d446    8445            cmp         r12,param_1                             
ram:0001d448    efd8            bhi         LAB_0001d42a                            
                            LAB_0001d44a:                 ;XREF[2,0]:   0001d420,0001d442
ram:0001d44a    0027            movs        r7,#0x0                                 
ram:0001d44c    6846            mov         param_1,sp                              
ram:0001d44e    0770            strb        r7,[param_1,#0x0]=>local_18             
ram:0001d450    7079            ldrb        param_1,[r6,#0x5]                       
ram:0001d452    1179            ldrb        param_2,[param_3,#0x4]                  
ram:0001d454    401c            adds        param_1,param_1,#0x1                    
ram:0001d456    8842            cmp         param_1,param_2                         
ram:0001d458    03d1            bne         LAB_0001d462                            
ram:0001d45a    0120            movs        param_1,#0x1                            
ram:0001d45c    6946            mov         param_2,sp                              
ram:0001d45e    0870            strb        param_1,[param_2,#0x0]=>local_18        
ram:0001d460    16e0            b           LAB_0001d490                            
                            LAB_0001d462:                 ;XREF[1,0]:   0001d458
ram:0001d462    7071            strb        param_1,[r6,#0x5]                       
ram:0001d464    2288            ldrh        param_3,[r4,#0x0]                       
ram:0001d466    6946            mov         param_2,sp                              
ram:0001d468    2846            mov         param_1,r5                              
ram:0001d46a    fef775ff        bl          FUN_0001c358                            ;undefined8 FUN_0001c358(int param_1,...
ram:0001d46e    0100            movs        param_2,param_1                         
ram:0001d470    0ad0            beq         LAB_0001d488                            
ram:0001d472    f771            strb        r7,[r6,#0x7]                            
ram:0001d474    2288            ldrh        param_3,[r4,#0x0]                       
ram:0001d476    2846            mov         param_1,r5                              
ram:0001d478    fff726f8        bl          FUN_0001c4c8                            ;undefined FUN_0001c4c8(int param_1)
ram:0001d47c    0a48            ldr         param_1=>DAT_20005074,[DAT_0001d4a8]    ;= 20005074h
ram:0001d47e    0321            movs        param_2,#0x3                            
ram:0001d480    0170            strb        param_2,[param_1,#0x0]=>DAT_20005074    
ram:0001d482    2188            ldrh        param_2,[r4,#0x0]                       
ram:0001d484    4180            strh        param_2,[param_1,#0x2]=>DAT_20005076    
                            LAB_0001d486:                 ;XREF[2,0]:   0001d3fc,0001d48e
ram:0001d486    f8bd            pop         {param_4,r4,r5,r6,r7,pc}                
                            LAB_0001d488:                 ;XREF[1,0]:   0001d470
ram:0001d488    6846            mov         param_1,sp                              
ram:0001d48a    0078            ldrb        param_1=>local_18,[param_1,#0x0]        
ram:0001d48c    0028            cmp         param_1,#0x0                            
ram:0001d48e    fad0            beq         LAB_0001d486                            
                            LAB_0001d490:                 ;XREF[1,0]:   0001d460
ram:0001d490    2288            ldrh        param_3,[r4,#0x0]                       
ram:0001d492    0121            movs        param_2,#0x1                            
ram:0001d494    2846            mov         param_1,r5                              
ram:0001d496    fef7d1ff        bl          FUN_0001c43c                            ;undefined FUN_0001c43c(int param_1, ...
ram:0001d49a    2188            ldrh        param_2,[r4,#0x0]                       
ram:0001d49c    2846            mov         param_1,r5                              
ram:0001d49e    00f03df8        bl          FUN_0001d51c                            ;undefined FUN_0001d51c(int param_1, ...
ram:0001d4a2    f8bd            pop         {param_4,r4,r5,r6,r7,pc}                
                            DAT_0001d4a4:                 ;XREF[1,0]:   0001d424
ram:0001d4a4    02290000        undefined4  00002902h                               
                            DAT_0001d4a8:                 ;XREF[1,0]:   0001d47c
ram:0001d4a8    74500020        undefined4  20005074h                               
                            ;************************************************************************************************
                            ;*                                           FUNCTION                                           *
                            ;************************************************************************************************
                            ;undefined FUN_0001d4ac(int param_1, ushort * param_2)
          ;param_1       int                 r0                      
          ;param_2       ushort *            r1                      
                                                          ;XREF[1,0]:   0001bcf2
ram:0001d4ac    70b5            push        {r4,r5,r6,lr}                           
ram:0001d4ae    0646            mov         r6,param_1                              
ram:0001d4b0    ff36            adds        r6,#0xff                                
ram:0001d4b2    0c46            mov         r4,param_2                              
ram:0001d4b4    0546            mov         r5,param_1                              
ram:0001d4b6    a136            adds        r6,#0xa1                                
ram:0001d4b8    b079            ldrb        param_1,[r6,#0x6]                       
ram:0001d4ba    4621            movs        param_2,#0x46                           
ram:0001d4bc    4843            muls        param_1,param_2                         
ram:0001d4be    4119            adds        param_2,param_1,r5                      
ram:0001d4c0    ff20            movs        param_1,#0xff                           
ram:0001d4c2    ab30            adds        param_1,#0xab                           
ram:0001d4c4    2288            ldrh        r2,[r4,#0x0]                            
ram:0001d4c6    405b            ldrh        param_1,[param_1,r5]                    
ram:0001d4c8    8242            cmp         r2,param_1                              
ram:0001d4ca    0ad1            bne         LAB_0001d4e2                            
ram:0001d4cc    6088            ldrh        param_1,[r4,#0x2]                       
ram:0001d4ce    0028            cmp         param_1,#0x0                            
ram:0001d4d0    08d0            beq         LAB_0001d4e4                            
ram:0001d4d2    0021            movs        param_2,#0x0                            
ram:0001d4d4    2846            mov         param_1,r5                              
ram:0001d4d6    fef7b1ff        bl          FUN_0001c43c                            ;undefined FUN_0001c43c(int param_1, ...
ram:0001d4da    2188            ldrh        param_2,[r4,#0x0]                       
ram:0001d4dc    2846            mov         param_1,r5                              
ram:0001d4de    00f01df8        bl          FUN_0001d51c                            ;undefined FUN_0001d51c(int param_1, ...
                            LAB_0001d4e2:                 ;XREF[2,0]:   0001d4ca,0001d4fe
ram:0001d4e2    70bd            pop         {r4,r5,r6,pc}                           
                            LAB_0001d4e4:                 ;XREF[1,0]:   0001d4d0
ram:0001d4e4    6289            ldrh        r2,[r4,#0xa]                            
ram:0001d4e6    0a80            strh        r2,[param_2,#0x0]                       
ram:0001d4e8    a289            ldrh        r2,[r4,#0xc]                            
ram:0001d4ea    4a80            strh        r2,[param_2,#0x2]                       
ram:0001d4ec    e289            ldrh        r2,[r4,#0xe]                            
ram:0001d4ee    ca80            strh        r2,[param_2,#0x6]                       
ram:0001d4f0    208a            ldrh        param_1,[r4,#0x10]                      
ram:0001d4f2    0881            strh        param_1,[param_2,#0x8]                  
ram:0001d4f4    2188            ldrh        param_2,[r4,#0x0]                       
ram:0001d4f6    2846            mov         param_1,r5                              
ram:0001d4f8    fef728fe        bl          FUN_0001c14c                            ;undefined8 FUN_0001c14c(undefined4 p...
ram:0001d4fc    0100            movs        param_2,param_1                         
ram:0001d4fe    f0d0            beq         LAB_0001d4e2                            
ram:0001d500    0020            movs        param_1,#0x0                            
ram:0001d502    f071            strb        param_1,[r6,#0x7]                       
ram:0001d504    2288            ldrh        r2,[r4,#0x0]                            
ram:0001d506    2846            mov         param_1,r5                              
ram:0001d508    fef7deff        bl          FUN_0001c4c8                            ;undefined FUN_0001c4c8(int param_1)
ram:0001d50c    0248            ldr         param_1=>DAT_20005074,[DAT_0001d518]    ;= 20005074h
ram:0001d50e    0321            movs        param_2,#0x3                            
ram:0001d510    0170            strb        param_2,[param_1,#0x0]=>DAT_20005074    
ram:0001d512    2188            ldrh        param_2,[r4,#0x0]                       
ram:0001d514    4180            strh        param_2,[param_1,#0x2]=>DAT_20005076    
ram:0001d516    70bd            pop         {r4,r5,r6,pc}                           
                            DAT_0001d518:                 ;XREF[1,0]:   0001d50c
ram:0001d518    74500020        undefined4  20005074h                               
                            ;************************************************************************************************
                            ;*                                           FUNCTION                                           *
                            ;************************************************************************************************
                            ;undefined FUN_0001d51c(int param_1, int param_2)
          ;param_1       int                 r0                      
          ;param_2       int                 r1                      
                                                          ;XREF[3,0]:   0001d3e2,0001d49e,0001d4de
ram:0001d51c    f8b5            push        {r3,r4,r5,r6,r7,lr}                     
ram:0001d51e    0446            mov         r4,param_1                              
ram:0001d520    ff34            adds        r4,#0xff                                
ram:0001d522    0646            mov         r6,param_1                              
ram:0001d524    a134            adds        r4,#0xa1                                
ram:0001d526    207a            ldrb        param_1,[r4,#0x8]                       
ram:0001d528    0f46            mov         r7,param_2                              
ram:0001d52a    401c            adds        param_1,param_1,#0x1                    
ram:0001d52c    c0b2            uxtb        param_1,param_1                         
ram:0001d52e    1449            ldr         param_2,[DAT_0001d580]                  ;= 20003DECh
ram:0001d530    2072            strb        param_1,[r4,#0x8]                       
ram:0001d532    c968            ldr         param_2,[param_2,#0xc]=>DAT_20003df8    
ram:0001d534    0025            movs        r5,#0x0                                 
ram:0001d536    8842            cmp         param_1,param_2                         
ram:0001d538    1fd2            bcs         LAB_0001d57a                            
ram:0001d53a    6571            strb        r5,[r4,#0x5]                            
ram:0001d53c    a079            ldrb        param_1,[r4,#0x6]                       
ram:0001d53e    4621            movs        param_2,#0x46                           
ram:0001d540    401c            adds        param_1,param_1,#0x1                    
ram:0001d542    c0b2            uxtb        param_1,param_1                         
ram:0001d544    4143            muls        param_2,param_1                         
ram:0001d546    8a19            adds        r2,param_2,r6                           
ram:0001d548    a071            strb        param_1,[r4,#0x6]                       
ram:0001d54a    0e49            ldr         param_2,[DAT_0001d584]                  ;= 2000505Ch
ram:0001d54c    8000            lsls        param_1,param_1,#0x2                    
ram:0001d54e    4018            adds        param_1,param_1,param_2                 
ram:0001d550    0188            ldrh        param_2=>DAT_2000505c,[param_1,#0x0]    
ram:0001d552    1180            strh        param_2,[r2,#0x0]                       
ram:0001d554    4088            ldrh        param_1,[param_1,#0x2]=>DAT_2000505e    
ram:0001d556    5080            strh        param_1,[r2,#0x2]                       
ram:0001d558    1571            strb        r5,[r2,#0x4]                            
ram:0001d55a    0121            movs        param_2,#0x1                            
ram:0001d55c    3846            mov         param_1,r7                              
ram:0001d55e    90df            svc         0x90                                    
ram:0001d560    0100            movs        param_2,param_1                         
ram:0001d562    09d0            beq         LAB_0001d578                            
ram:0001d564    e571            strb        r5,[r4,#0x7]                            
ram:0001d566    3a46            mov         r2,r7                                   
ram:0001d568    3046            mov         param_1,r6                              
ram:0001d56a    fef7adff        bl          FUN_0001c4c8                            ;undefined FUN_0001c4c8(int param_1)
                            LAB_0001d56e:                 ;XREF[1,0]:   0001d57c
ram:0001d56e    0548            ldr         param_1,[DAT_0001d584]                  ;= 2000505Ch
ram:0001d570    0321            movs        param_2,#0x3                            
ram:0001d572    1830            adds        param_1=>DAT_20005074,#0x18             
ram:0001d574    0170            strb        param_2,[param_1,#0x0]=>DAT_20005074    
ram:0001d576    4780            strh        r7,[param_1,#0x2]=>DAT_20005076         
                            LAB_0001d578:                 ;XREF[1,0]:   0001d562
ram:0001d578    f8bd            pop         {r3,r4,r5,r6,r7,pc}                     
                            LAB_0001d57a:                 ;XREF[1,0]:   0001d538
ram:0001d57a    e571            strb        r5,[r4,#0x7]                            
ram:0001d57c    f7e7            b           LAB_0001d56e                            
ram:0001d57e    0000            movs        r0,r0                                   
                            DAT_0001d580:                 ;XREF[1,0]:   0001d52e
ram:0001d580    ec3d0020        undefined4  20003DECh                               
                            DAT_0001d584:                 ;XREF[2,0]:   0001d54a,0001d56e
ram:0001d584    5c500020        undefined4  2000505Ch                               
                            ;************************************************************************************************
                            ;*                                           FUNCTION                                           *
                            ;************************************************************************************************
                            ;undefined4 FUN_0001d588(int param_1)
          ;param_1       int                 r0                      
                                                          ;XREF[1,0]:   0001cc38
ram:0001d588    0449            ldr         r1,[DAT_0001d59c]                       ;= 20005274h
ram:0001d58a    0818            adds        param_1,r1,param_1                      
ram:0001d58c    2021            movs        r1,#0x20                                
ram:0001d58e    4156            ldrsb       r1,[param_1,r1]=>DAT_20005294           
ram:0001d590    0429            cmp         r1,#0x4                                 
ram:0001d592    01db            blt         LAB_0001d598                            
ram:0001d594    0120            movs        param_1,#0x1                            
ram:0001d596    7047            bx          lr                                      
                            LAB_0001d598:                 ;XREF[1,0]:   0001d592
ram:0001d598    0020            movs        param_1,#0x0                            
ram:0001d59a    7047            bx          lr                                      
                            DAT_0001d59c:                 ;XREF[1,0]:   0001d588
ram:0001d59c    74520020        undefined4  20005274h                               
                            ;************************************************************************************************
                            ;*                                           FUNCTION                                           *
                            ;************************************************************************************************
                            ;undefined4 FUN_0001d5a0(int param_1)
          ;param_1       int                 r0                      
                                                          ;XREF[1,0]:   0001cc76
ram:0001d5a0    0449            ldr         r1,[DAT_0001d5b4]                       ;= 20005274h
ram:0001d5a2    0818            adds        param_1,r1,param_1                      
ram:0001d5a4    2021            movs        r1,#0x20                                
ram:0001d5a6    4156            ldrsb       r1,[param_1,r1]=>DAT_20005294           
ram:0001d5a8    0429            cmp         r1,#0x4                                 
ram:0001d5aa    01d2            bcs         LAB_0001d5b0                            
ram:0001d5ac    0120            movs        param_1,#0x1                            
ram:0001d5ae    7047            bx          lr                                      
                            LAB_0001d5b0:                 ;XREF[1,0]:   0001d5aa
ram:0001d5b0    0020            movs        param_1,#0x0                            
ram:0001d5b2    7047            bx          lr                                      
                            DAT_0001d5b4:                 ;XREF[1,0]:   0001d5a0
ram:0001d5b4    74520020        undefined4  20005274h                               
                            ;************************************************************************************************
                            ;*                                           FUNCTION                                           *
                            ;************************************************************************************************
                            ;undefined4 FUN_0001d5b8(short * param_1)
          ;param_1       short *             r0                      
                                                          ;XREF[3,0]:   0001bc68,0001c44e,0001c4dc
ram:0001d5b8    f0b5            push        {r4,r5,r6,r7,lr}                        
ram:0001d5ba    0c4b            ldr         r3,[DAT_0001d5ec]                       ;= 20003DECh
ram:0001d5bc    0021            movs        r1,#0x0                                 
ram:0001d5be    0a4a            ldr         r2,[DAT_0001d5e8]                       ;= 2000505Ch
ram:0001d5c0    dc68            ldr         r4,[r3,#0xc]=>DAT_20003df8              
ram:0001d5c2    0ce0            b           LAB_0001d5de                            
                            LAB_0001d5c4:                 ;XREF[1,0]:   0001d5e0
ram:0001d5c4    8d00            lsls        r5,r1,#0x2                              
ram:0001d5c6    ae18            adds        r6,r5,r2                                
ram:0001d5c8    b678            ldrb        r6,[r6,#0x2]=>DAT_2000505e              
ram:0001d5ca    8778            ldrb        r7,[param_1,#0x2]                       
ram:0001d5cc    be42            cmp         r6,r7                                   
ram:0001d5ce    05d1            bne         LAB_0001d5dc                            
ram:0001d5d0    555b            ldrh        r5,[r2,r5]=>DAT_2000505c                
ram:0001d5d2    0688            ldrh        r6,[param_1,#0x0]                       
ram:0001d5d4    b542            cmp         r5,r6                                   
ram:0001d5d6    01d1            bne         LAB_0001d5dc                            
ram:0001d5d8    5868            ldr         param_1,[r3,#0x4]=>DAT_20003df0         
ram:0001d5da    f0bd            pop         {r4,r5,r6,r7,pc}                        
                            LAB_0001d5dc:                 ;XREF[2,0]:   0001d5ce,0001d5d6
ram:0001d5dc    491c            adds        r1,r1,#0x1                              
                            LAB_0001d5de:                 ;XREF[1,0]:   0001d5c2
ram:0001d5de    a142            cmp         r1,r4                                   
ram:0001d5e0    f0d3            bcc         LAB_0001d5c4                            
ram:0001d5e2    0020            movs        param_1,#0x0                            
ram:0001d5e4    f0bd            pop         {r4,r5,r6,r7,pc}                        
ram:0001d5e6    0000            movs        r0,r0                                   
                            DAT_0001d5e8:                 ;XREF[1,0]:   0001d5be
ram:0001d5e8    5c500020        undefined4  2000505Ch                               
                            DAT_0001d5ec:                 ;XREF[1,0]:   0001d5ba
ram:0001d5ec    ec3d0020        undefined4  20003DECh                               
                            ;************************************************************************************************
                            ;*                                           FUNCTION                                           *
                            ;************************************************************************************************
                            ;longlong FUN_0001d5f0(int param_1, int param_2)
          ;param_1       int                 r0                      
          ;param_2       int                 r1                      
          ;local_1c      undefined4         -1c                      ;XREF[1,0]:   0001d60c
                                                          ;XREF[1,0]:   0001d252
ram:0001d5f0    f3b5            push        {param_1,param_2,r4,r5,r6,r7,lr}        
ram:0001d5f2    81b0            sub         sp,#0x4                                 
ram:0001d5f4    0e46            mov         r6,param_2                              
ram:0001d5f6    0025            movs        r5,#0x0                                 
                            LAB_0001d5f8:                 ;XREF[1,0]:   0001d61a
ram:0001d5f8    1420            movs        param_1,#0x14                           
ram:0001d5fa    2f46            mov         r7,r5                                   
ram:0001d5fc    4743            muls        r7,param_1                              
ram:0001d5fe    1548            ldr         param_1,[DAT_0001d654]                  ;= 20004F10h
ram:0001d600    3c18            adds        r4,r7,param_1                           
                                                          ; FWD[2,0]:   20004f11,20004f25
ram:0001d602    6078            ldrb        param_1,[r4,#0x1]=>DAT_20004f11         
ram:0001d604    0028            cmp         param_1,#0x0                            
ram:0001d606    06d0            beq         LAB_0001d616                            
ram:0001d608    a01c            adds        param_1=>DAT_20004f12,r4,#0x2           
ram:0001d60a    0622            movs        r2,#0x6                                 
ram:0001d60c    0199            ldr         param_2,[sp,#local_1c+0x20]             
ram:0001d60e    fdf7d5fd        bl          FUN_0001b1bc                            ;undefined FUN_0001b1bc(int param_1, ...
ram:0001d612    0028            cmp         param_1,#0x0                            
ram:0001d614    04d0            beq         LAB_0001d620                            
                            LAB_0001d616:                 ;XREF[1,0]:   0001d606
ram:0001d616    6d1c            adds        r5,r5,#0x1                              
ram:0001d618    062d            cmp         r5,#0x6                                 
ram:0001d61a    eddb            blt         LAB_0001d5f8                            
ram:0001d61c    0220            movs        param_1,#0x2                            
ram:0001d61e    febd            pop         {param_2,r2,r3,r4,r5,r6,r7,pc}          
                            LAB_0001d620:                 ;XREF[1,0]:   0001d614
ram:0001d620    2846            mov         param_1,r5                              
ram:0001d622    1421            movs        param_2,#0x14                           
ram:0001d624    4843            muls        param_1,param_2                         
ram:0001d626    0b4d            ldr         r5,[DAT_0001d654]                       ;= 20004F10h
ram:0001d628    2146            mov         param_2,r4                              
ram:0001d62a    4019            adds        param_1,param_1,r5                      
ram:0001d62c    007a            ldrb        param_1,[param_1,#0x8]=>DAT_20004f18    
ram:0001d62e    b070            strb        param_1,[r6,#0x2]                       
ram:0001d630    e07c            ldrb        param_1,[r4,#0x13]=>DAT_20004f23        
ram:0001d632    f070            strb        param_1,[r6,#0x3]                       
ram:0001d634    0931            adds        param_2,#0x9                            
ram:0001d636    0822            movs        r2,#0x8                                 
ram:0001d638    301d            adds        param_1,r6,#0x4                         
ram:0001d63a    fdf78dfd        bl          FUN_0001b158                            ;undefined FUN_0001b158(undefined4 * ...
ram:0001d63e    3046            mov         param_1,r6                              
ram:0001d640    a11c            adds        param_2=>DAT_20004f12,r4,#0x2           
ram:0001d642    0622            movs        r2,#0x6                                 
ram:0001d644    0d30            adds        param_1,#0xd                            
ram:0001d646    fdf787fd        bl          FUN_0001b158                            ;undefined FUN_0001b158(undefined4 * ...
ram:0001d64a    0320            movs        param_1,#0x3                            
ram:0001d64c    6070            strb        param_1,[r4,#0x1]=>DAT_20004f11         
ram:0001d64e    0020            movs        param_1,#0x0                            
ram:0001d650    e855            strb        param_1,[r5,r7]=>DAT_20004f10           
ram:0001d652    febd            pop         {param_2,r2,r3,r4,r5,r6,r7,pc}          
                            DAT_0001d654:                 ;XREF[2,0]:   0001d5fe,0001d626
ram:0001d654    104f0020        undefined4  20004F10h                               
                            ;************************************************************************************************
                            ;*                                           FUNCTION                                           *
                            ;************************************************************************************************
                            ;undefined FUN_0001d658(int param_1, int param_2)
          ;param_1       int                 r0                      
          ;param_2       int                 r1                      
                                                          ;XREF[1,0]:   0001dbcc
ram:0001d658    10b5            push        {r4,lr}                                 
ram:0001d65a    0022            movs        r2,#0x0                                 
ram:0001d65c    0523            movs        r3,#0x5                                 
                            LAB_0001d65e:                 ;XREF[1,0]:   0001d668
ram:0001d65e    9c1a            subs        r4,r3,r2                                
ram:0001d660    045d            ldrb        r4,[param_1,r4]                         
ram:0001d662    8c54            strb        r4,[param_2,r2]                         
ram:0001d664    521c            adds        r2,r2,#0x1                              
ram:0001d666    062a            cmp         r2,#0x6                                 
ram:0001d668    f9db            blt         LAB_0001d65e                            
ram:0001d66a    10bd            pop         {r4,pc}                                 
                            ;************************************************************************************************
                            ;*                                           FUNCTION                                           *
                            ;************************************************************************************************
                            ;undefined FUN_0001d66c(void)
                                                          ;XREF[2,0]:   0001b8f6,0001c2a4
ram:0001d66c    70b5            push        {r4,r5,r6,lr}                           
ram:0001d66e    0124            movs        r4,#0x1                                 
ram:0001d670    0b49            ldr         r1,[DAT_0001d6a0]                       ;= E000E180h
ram:0001d672    6004            lsls        r0,r4,#0x11                             
ram:0001d674    0860            str         r0,[r1,#0x0]=>DAT_e000e180              
ram:0001d676    0b49            ldr         r1,[DAT_0001d6a4]                       ;= 40011340h
ram:0001d678    4010            asrs        r0,r0,#0x1                              
ram:0001d67a    8860            str         r0,[r1,#0x8]=>DAT_40011348              
ram:0001d67c    0949            ldr         r1,[DAT_0001d6a4]                       ;= 40011340h
ram:0001d67e    4039            subs        r1,#0x40                                
ram:0001d680    8860            str         r0,[r1,#offset DAT_40011308 &0xff]      
ram:0001d682    094d            ldr         r5,[DAT_0001d6a8]                       ;= 40011000h
ram:0001d684    6c60            str         r4,[r5,#offset DAT_40011004 &0xff]      
ram:0001d686    2f20            movs        r0,#0x2f                                
ram:0001d688    fdf724fd        bl          FUN_0001b0d4                            ;undefined FUN_0001b0d4(int param_1)
ram:0001d68c    ac60            str         r4,[r5,#offset DAT_40011008 &0xff]      
ram:0001d68e    074d            ldr         r5,[DAT_0001d6ac]                       ;= 20003E18h
ram:0001d690    0024            movs        r4,#0x0                                 
ram:0001d692    2f20            movs        r0,#0x2f                                
ram:0001d694    2c61            str         r4,[r5,#0x10]=>DAT_20003e28             
ram:0001d696    fdf71dfd        bl          FUN_0001b0d4                            ;undefined FUN_0001b0d4(int param_1)
ram:0001d69a    ec70            strb        r4,[r5,#0x3]=>DAT_20003e1b              
ram:0001d69c    70bd            pop         {r4,r5,r6,pc}                           
ram:0001d69e    0000            movs        r0,r0                                   
                            DAT_0001d6a0:                 ;XREF[1,0]:   0001d670
ram:0001d6a0    80e100e0        undefined4  E000E180h                               
                            DAT_0001d6a4:                 ;XREF[2,0]:   0001d676,0001d67c
ram:0001d6a4    40130140        undefined4  40011340h                               
                            DAT_0001d6a8:                 ;XREF[1,0]:   0001d682
ram:0001d6a8    00100140        undefined4  40011000h                               
                            DAT_0001d6ac:                 ;XREF[1,0]:   0001d68e
ram:0001d6ac    183e0020        undefined4  20003E18h                               
                            ;************************************************************************************************
                            ;*                                           FUNCTION                                           *
                            ;************************************************************************************************
                            ;int FUN_0001d6b0(void)
                                                          ;XREF[2,0]:   0001cf74,0001dece
ram:0001d6b0    30b5            push        {r4,r5,lr}                              
ram:0001d6b2    0a48            ldr         r0=>DAT_200052bc,[DAT_0001d6dc]         ;= 200052BCh
ram:0001d6b4    ff21            movs        r1,#0xff                                
ram:0001d6b6    c57d            ldrb        r5,[r0,#0x17]=>DAT_200052d3             
ram:0001d6b8    0022            movs        r2,#0x0                                 
ram:0001d6ba    094c            ldr         r4,[DAT_0001d6e0]                       ;= 40002000h
ram:0001d6bc    0931            adds        r1,#0x9                                 
ram:0001d6be    094b            ldr         r3,[DAT_0001d6e4]                       ;= 40002500h
ram:0001d6c0    002d            cmp         r5,#0x0                                 
ram:0001d6c2    6250            str         r2,[r4,r1]=>DAT_40002108                
ram:0001d6c4    07d0            beq         LAB_0001d6d6                            
ram:0001d6c6    9969            ldr         r1,[r3,#offset DAT_40002518 &0xff]      
ram:0001d6c8    437e            ldrb        r3,[r0,#0x19]=>DAT_200052d5             
ram:0001d6ca    c268            ldr         r2,[r0,#0xc]=>DAT_200052c8              
ram:0001d6cc    d154            strb        r1,[r2,r3]                              
ram:0001d6ce    417e            ldrb        r1,[r0,#0x19]=>DAT_200052d5             
ram:0001d6d0    491c            adds        r1,r1,#0x1                              
ram:0001d6d2    4176            strb        r1,[r0,#0x19]=>DAT_200052d5             
ram:0001d6d4    30bd            pop         {r4,r5,pc}                              
                            LAB_0001d6d6:                 ;XREF[1,0]:   0001d6c4
ram:0001d6d6    9869            ldr         r0,[r3,#offset DAT_40002518 &0xff]      
ram:0001d6d8    30bd            pop         {r4,r5,pc}                              
ram:0001d6da    0000            movs        r0,r0                                   
                            DAT_0001d6dc:                 ;XREF[1,0]:   0001d6b2
ram:0001d6dc    bc520020        undefined4  200052BCh                               
                            DAT_0001d6e0:                 ;XREF[1,0]:   0001d6ba
ram:0001d6e0    00200040        undefined4  40002000h                               
                            DAT_0001d6e4:                 ;XREF[1,0]:   0001d6be
ram:0001d6e4    00250040        undefined4  40002500h                               
                            ;************************************************************************************************
                            ;*                                           FUNCTION                                           *
                            ;************************************************************************************************
                            ;undefined8 FUN_0001d6e8(uint param_1, undefined4 param_2, uint param_3, undefined4 param_4)
          ;param_1       uint                r0                      
          ;param_2       undefined4          r1                      
          ;param_3       uint                r2                      
          ;param_4       undefined4          r3                      
          ;local_10      undefined1         -10                      ;XREF[1,0]:   0001d6f0
          ;local_14      undefined4         -14                      ;XREF[1,0]:   0001d6f4
          ;local_18      undefined1         -18                      ;XREF[1,0]:   0001d6ee
                                                          ;XREF[2,0]:   0001df08,0001df5e
ram:0001d6e8    1fb5            push        {param_1,param_2,param_3,param_4,r4,lr} 
ram:0001d6ea    0123            movs        param_4,#0x1                            
ram:0001d6ec    6a46            mov         param_3,sp                              
ram:0001d6ee    1370            strb        param_4,[param_3,#0x0]=>local_18        
ram:0001d6f0    1072            strb        param_1,[r2,#local_10+0x18]             
ram:0001d6f2    0348            ldr         param_1,[DAT_0001d700]                  ;= 200052BCh
ram:0001d6f4    0191            str         param_2,[sp,#local_14+0x18]             
ram:0001d6f6    06c8            ldmia       param_1!=>DAT_20...,{param_2,param_3}...
ram:0001d6f8    6846            mov         param_1,sp                              
ram:0001d6fa    9047            blx         param_3                                 
ram:0001d6fc    1fbd            pop         {param_1,param_2,param_3,param_4,r4,pc} 
ram:0001d6fe    0000            movs        r0,r0                                   
                            DAT_0001d700:                 ;XREF[1,0]:   0001d6f2
ram:0001d700    bc520020        undefined4  200052BCh                               
                            ;************************************************************************************************
                            ;*                                           FUNCTION                                           *
                            ;************************************************************************************************
                            ;undefined FUN_0001d704(void)
                                                          ;XREF[2,0]:   0001cf0a,0001cf22
ram:0001d704    ff22            movs        r2,#0xff                                
ram:0001d706    0548            ldr         r0=>DAT_40002000,[DAT_0001d71c]         ;= 40002000h
ram:0001d708    2532            adds        r2,#0x25                                
ram:0001d70a    0021            movs        r1,#0x0                                 
ram:0001d70c    8150            str         r1,[r0,r2]=>DAT_40002124                
ram:0001d70e    ff22            movs        r2,#0xff                                
ram:0001d710    0932            adds        r2,#0x9                                 
ram:0001d712    8150            str         r1,[r0,r2]=>DAT_40002108                
ram:0001d714    0121            movs        r1,#0x1                                 
ram:0001d716    0160            str         r1,[r0,#0x0]=>DAT_40002000              
ram:0001d718    7047            bx          lr                                      
ram:0001d71a    0000            movs        r0,r0                                   
                            DAT_0001d71c:                 ;XREF[1,0]:   0001d706
ram:0001d71c    00200040        undefined4  40002000h                               
                            ;************************************************************************************************
                            ;*                                           FUNCTION                                           *
                            ;************************************************************************************************
                            ;undefined4 FUN_0001d720(void)
          ;local_8       undefined4          -8                      ;XREF[1,0]:   0001d726
                                                          ;XREF[1,0]:   0001c048
ram:0001d720    08b5            push        {r3,lr}                                 
ram:0001d722    0249            ldr         r1,[DAT_0001d72c]                       ;= 20003DB0h
ram:0001d724    0020            movs        r0,#0x0                                 
ram:0001d726    0091            str         r1=>DAT_20003db0,[sp,#0x0]=>local_8     
ram:0001d728    08bd            pop         {r3,pc}                                 
ram:0001d72a    0000            movs        r0,r0                                   
                            DAT_0001d72c:                 ;XREF[1,0]:   0001d722
ram:0001d72c    b03d0020        undefined4  20003DB0h                               
                            ;************************************************************************************************
                            ;*                                           FUNCTION                                           *
                            ;************************************************************************************************
                            ;int FUN_0001d730(uint param_1)
          ;param_1       uint                r0                      
                                                          ;XREF[1,0]:   0001d92c
ram:0001d730    10b5            push        {r4,lr}                                 
ram:0001d732    0121            movs        r1,#0x1                                 
ram:0001d734    2028            cmp         param_1,#0x20                           
ram:0001d736    05da            bge         LAB_0001d744                            
ram:0001d738    1a4a            ldr         r2,[DAT_0001d7a4]                       ;= BCFF06FCh
ram:0001d73a    8140            lsls        r1,param_1                              
ram:0001d73c    1142            tst         r1,r2                                   
ram:0001d73e    01d1            bne         LAB_0001d744                            
ram:0001d740    1948            ldr         param_1,[DAT_0001d7a8]                  ;= 00002001h
ram:0001d742    10bd            pop         {r4,pc}                                 
                            LAB_0001d744:                 ;XREF[2,0]:   0001d736,0001d73e
ram:0001d744    8107            lsls        r1,param_1,#0x1e                        
ram:0001d746    c90e            lsrs        r1,r1,#0x1b                             
ram:0001d748    0028            cmp         param_1,#0x0                            
ram:0001d74a    08da            bge         LAB_0001d75e                            
ram:0001d74c    0207            lsls        r2,param_1,#0x1c                        
ram:0001d74e    120f            lsrs        r2,r2,#0x1c                             
ram:0001d750    083a            subs        r2,#0x8                                 
ram:0001d752    9208            lsrs        r2,r2,#0x2                              
ram:0001d754    154b            ldr         r3,[DAT_0001d7ac]                       ;= E000ED00h
ram:0001d756    9200            lsls        r2,r2,#0x2                              
ram:0001d758    d218            adds        r2,r2,r3                                
ram:0001d75a    d269            ldr         r2,[r2,#0x1c]                           
ram:0001d75c    04e0            b           LAB_0001d768                            
                            LAB_0001d75e:                 ;XREF[1,0]:   0001d74a
ram:0001d75e    8208            lsrs        r2,param_1,#0x2                         
ram:0001d760    134b            ldr         r3,[DAT_0001d7b0]                       ;= E000E400h
ram:0001d762    9200            lsls        r2,r2,#0x2                              
ram:0001d764    d218            adds        r2,r2,r3                                
ram:0001d766    1268            ldr         r2,[r2,#0x0]                            
                            LAB_0001d768:                 ;XREF[1,0]:   0001d75c
ram:0001d768    ca40            lsrs        r2,r1                                   
ram:0001d76a    1106            lsls        r1,r2,#0x18                             
ram:0001d76c    890f            lsrs        r1,r1,#0x1e                             
ram:0001d76e    0429            cmp         r1,#0x4                                 
ram:0001d770    11d2            bcs         LAB_0001d796                            
ram:0001d772    0029            cmp         r1,#0x0                                 
ram:0001d774    0fd0            beq         LAB_0001d796                            
ram:0001d776    0229            cmp         r1,#0x2                                 
ram:0001d778    0dd0            beq         LAB_0001d796                            
ram:0001d77a    0e49            ldr         r1,[DAT_0001d7b4]                       ;= 20003E50h
ram:0001d77c    4c68            ldr         r4,[r1,#0x4]=>DAT_20003e54              
ram:0001d77e    c306            lsls        r3,param_1,#0x1b                        
ram:0001d780    db0e            lsrs        r3,r3,#0x1b                             
ram:0001d782    0122            movs        r2,#0x1                                 
ram:0001d784    9a40            lsls        r2,r3                                   
ram:0001d786    002c            cmp         r4,#0x0                                 
ram:0001d788    08d0            beq         LAB_0001d79c                            
ram:0001d78a    4009            lsrs        param_1,param_1,#0x5                    
ram:0001d78c    8000            lsls        param_1,param_1,#0x2                    
ram:0001d78e    0b58            ldr         r3,[r1,param_1]                         
ram:0001d790    1343            orrs        r3,r2                                   
ram:0001d792    0b50            str         r3,[r1,param_1]                         
ram:0001d794    04e0            b           LAB_0001d7a0                            
                            LAB_0001d796:                 ;XREF[3,0]:   0001d770,0001d774,0001d778
ram:0001d796    0448            ldr         param_1,[DAT_0001d7a8]                  ;= 00002001h
ram:0001d798    401c            adds        param_1,param_1,#0x1                    
ram:0001d79a    10bd            pop         {r4,pc}                                 
                            LAB_0001d79c:                 ;XREF[1,0]:   0001d788
ram:0001d79c    0648            ldr         param_1,[DAT_0001d7b8]                  ;= E000E100h
ram:0001d79e    0260            str         r2,[param_1,#0x0]=>DAT_e000e100         
                            LAB_0001d7a0:                 ;XREF[1,0]:   0001d794
ram:0001d7a0    0020            movs        param_1,#0x0                            
ram:0001d7a2    10bd            pop         {r4,pc}                                 
                            DAT_0001d7a4:                 ;XREF[1,0]:   0001d738
ram:0001d7a4    fc06ffbc        undefined4  BCFF06FCh                               
                            DAT_0001d7a8:                 ;XREF[2,0]:   0001d740,0001d796
ram:0001d7a8    01200000        undefined4  00002001h                               
                            DAT_0001d7ac:                 ;XREF[1,0]:   0001d754
ram:0001d7ac    00ed00e0        undefined4  E000ED00h                               
                            DAT_0001d7b0:                 ;XREF[1,0]:   0001d760
ram:0001d7b0    00e400e0        undefined4  E000E400h                               
                            DAT_0001d7b4:                 ;XREF[1,0]:   0001d77a
ram:0001d7b4    503e0020        undefined4  20003E50h                               
                            DAT_0001d7b8:                 ;XREF[1,0]:   0001d79c
ram:0001d7b8    00e100e0        undefined4  E000E100h                               
                            ;************************************************************************************************
                            ;*                                           FUNCTION                                           *
                            ;************************************************************************************************
                            ;undefined FUN_0001d7bc(int param_1, int param_2, uint param_3, uint param_4, int param_5)
          ;param_1       int                 r0                      
          ;param_2       int                 r1                      
          ;param_3       uint                r2                      
          ;param_4       uint                r3                      
          ;param_5       int                  0                      ;XREF[1,0]:   0001d7be
                                                          ;XREF[2,0]:   0001bbbe,0001d8aa
ram:0001d7bc    70b5            push        {r4,r5,r6,lr}                           
ram:0001d7be    049d            ldr         r5,[sp,#param_5+0x10]                   
ram:0001d7c0    0028            cmp         param_1,#0x0                            
ram:0001d7c2    19d0            beq         LAB_0001d7f8                            
ram:0001d7c4    0029            cmp         param_2,#0x0                            
ram:0001d7c6    17d0            beq         LAB_0001d7f8                            
ram:0001d7c8    002a            cmp         param_3,#0x0                            
ram:0001d7ca    15d0            beq         LAB_0001d7f8                            
ram:0001d7cc    0024            movs        r4,#0x0                                 
                            LAB_0001d7ce:                 ;XREF[1,0]:   0001d7fe
ram:0001d7ce    6600            lsls        r6,r4,#0x1                              
ram:0001d7d0    865b            ldrh        r6,[param_1,r6]                         
ram:0001d7d2    9e42            cmp         r6,param_4                              
ram:0001d7d4    11d1            bne         LAB_0001d7fa                            
ram:0001d7d6    0020            movs        param_1,#0x0                            
ram:0001d7d8    0123            movs        param_4,#0x1                            
ram:0001d7da    a340            lsls        param_4,r4                              
ram:0001d7dc    0ae0            b           LAB_0001d7f4                            
                            LAB_0001d7de:                 ;XREF[1,0]:   0001d7f6
ram:0001d7de    002d            cmp         r5,#0x0                                 
ram:0001d7e0    03d0            beq         LAB_0001d7ea                            
ram:0001d7e2    0c18            adds        r4,param_2,param_1                      
ram:0001d7e4    2678            ldrb        r6,[r4,#0x0]                            
ram:0001d7e6    1e43            orrs        r6,param_4                              
ram:0001d7e8    02e0            b           LAB_0001d7f0                            
                            LAB_0001d7ea:                 ;XREF[1,0]:   0001d7e0
ram:0001d7ea    0c18            adds        r4,param_2,param_1                      
ram:0001d7ec    2678            ldrb        r6,[r4,#0x0]                            
ram:0001d7ee    9e43            bics        r6,param_4                              
                            LAB_0001d7f0:                 ;XREF[1,0]:   0001d7e8
ram:0001d7f0    2670            strb        r6,[r4,#0x0]                            
ram:0001d7f2    401c            adds        param_1,param_1,#0x1                    
                            LAB_0001d7f4:                 ;XREF[1,0]:   0001d7dc
ram:0001d7f4    9042            cmp         param_1,param_3                         
ram:0001d7f6    f2d3            bcc         LAB_0001d7de                            
                            LAB_0001d7f8:                 ;XREF[3,0]:   0001d7c2,0001d7c6,0001d7ca
ram:0001d7f8    70bd            pop         {r4,r5,r6,pc}                           
                            LAB_0001d7fa:                 ;XREF[1,0]:   0001d7d4
ram:0001d7fa    641c            adds        r4,r4,#0x1                              
ram:0001d7fc    082c            cmp         r4,#0x8                                 
ram:0001d7fe    e6d3            bcc         LAB_0001d7ce                            
ram:0001d800    70bd            pop         {r4,r5,r6,pc}                           
ram:0001d802    0000            movs        r0,r0                                   
                            ;************************************************************************************************
                            ;*                                           FUNCTION                                           *
                            ;************************************************************************************************
                            ;uint FUN_0001d804(uint param_1)
          ;param_1       uint                r0                      
                                                          ;XREF[1,0]:   0001bbd2
ram:0001d804    70b5            push        {r4,r5,r6,lr}                           
ram:0001d806    0546            mov         r5,param_1                              
ram:0001d808    0024            movs        r4,#0x0                                 
                            LAB_0001d80a:                 ;XREF[1,0]:   0001d820
ram:0001d80a    2146            mov         r1,r4                                   
ram:0001d80c    2846            mov         param_1,r5                              
ram:0001d80e    00f00df8        bl          FUN_0001d82c                            ;undefined4 FUN_0001d82c(uint param_1...
ram:0001d812    0028            cmp         param_1,#0x0                            
ram:0001d814    01d0            beq         LAB_0001d81a                            
ram:0001d816    2046            mov         param_1,r4                              
ram:0001d818    70bd            pop         {r4,r5,r6,pc}                           
                            LAB_0001d81a:                 ;XREF[1,0]:   0001d814
ram:0001d81a    641c            adds        r4,r4,#0x1                              
ram:0001d81c    a4b2            uxth        r4,r4                                   
ram:0001d81e    082c            cmp         r4,#0x8                                 
ram:0001d820    f3d3            bcc         LAB_0001d80a                            
ram:0001d822    0148            ldr         param_1,[DAT_0001d828]                  ;= 0000FFFFh
ram:0001d824    70bd            pop         {r4,r5,r6,pc}                           
ram:0001d826    0000            movs        r0,r0                                   
                            DAT_0001d828:                 ;XREF[1,0]:   0001d822
ram:0001d828    ffff0000        undefined4  0000FFFFh                               
                            ;************************************************************************************************
                            ;*                                           FUNCTION                                           *
                            ;************************************************************************************************
                            ;undefined4 FUN_0001d82c(uint param_1, uint param_2)
          ;param_1       uint                r0                      
          ;param_2       uint                r1                      
                                                          ;XREF[3,0]:   0001d80e,0001d854,0001d88e
ram:0001d82c    0122            movs        r2,#0x1                                 
ram:0001d82e    8a40            lsls        r2,param_2                              
ram:0001d830    0242            tst         r2,param_1                              
ram:0001d832    01d0            beq         LAB_0001d838                            
ram:0001d834    0120            movs        param_1,#0x1                            
ram:0001d836    7047            bx          lr                                      
                            LAB_0001d838:                 ;XREF[1,0]:   0001d832
ram:0001d838    0020            movs        param_1,#0x0                            
ram:0001d83a    7047            bx          lr                                      
                            ;************************************************************************************************
                            ;*                                           FUNCTION                                           *
                            ;************************************************************************************************
                            ;undefined FUN_0001d83c(undefined4 * param_1, int param_2, uint param_3)
          ;param_1       undefined4 *        r0                      
          ;param_2       int                 r1                      
          ;param_3       uint                r2                      
          ;local_20      undefined4         -20                      ;XREF[1,0]:   0001d878
          ;local_38      undefined4         -38                      ;XREF[4,0]:   0001d846,0001d85c,0001d868,0001d86c
                                                          ;XREF[1,0]:   0001bb94
ram:0001d83c    f7b5            push        {param_1,param_2,param_3,r4,r5,r6,r7,lr}
ram:0001d83e    0020            movs        param_1,#0x0                            
ram:0001d840    86b0            sub         sp,#0x18                                
ram:0001d842    1746            mov         r7,param_3                              
ram:0001d844    0d46            mov         r5,param_2                              
ram:0001d846    0090            str         param_1,[sp,#0x0]=>local_38             
ram:0001d848    0029            cmp         param_2,#0x0                            
ram:0001d84a    13d0            beq         LAB_0001d874                            
ram:0001d84c    0024            movs        r4,#0x0                                 
ram:0001d84e    6e46            mov         r6,sp                                   
                            LAB_0001d850:                 ;XREF[1,0]:   0001d872
ram:0001d850    a1b2            uxth        param_2,r4                              
ram:0001d852    3846            mov         param_1,r7                              
ram:0001d854    fff7eaff        bl          FUN_0001d82c                            ;undefined4 FUN_0001d82c(uint param_1...
ram:0001d858    0028            cmp         param_1,#0x0                            
ram:0001d85a    08d0            beq         LAB_0001d86e                            
ram:0001d85c    0099            ldr         param_2,[sp,#0x0]=>local_38             
ram:0001d85e    6000            lsls        param_1,r4,#0x1                         
ram:0001d860    4900            lsls        param_2,param_2,#0x1                    
ram:0001d862    285a            ldrh        param_1,[r5,param_1]                    
ram:0001d864    8919            adds        param_2,param_2,r6                      
ram:0001d866    8880            strh        param_1,[param_2,#0x4]                  
ram:0001d868    0098            ldr         param_1,[sp,#0x0]=>local_38             
ram:0001d86a    401c            adds        param_1,param_1,#0x1                    
ram:0001d86c    0090            str         param_1,[sp,#0x0]=>local_38             
                            LAB_0001d86e:                 ;XREF[1,0]:   0001d85a
ram:0001d86e    641c            adds        r4,r4,#0x1                              
ram:0001d870    082c            cmp         r4,#0x8                                 
ram:0001d872    edd3            bcc         LAB_0001d850                            
                            LAB_0001d874:                 ;XREF[1,0]:   0001d84a
ram:0001d874    1422            movs        param_3,#0x14                           
ram:0001d876    6946            mov         param_2,sp                              
ram:0001d878    0698            ldr         param_1,[sp,#local_20+0x38]             
ram:0001d87a    fdf76dfc        bl          FUN_0001b158                            ;undefined FUN_0001b158(undefined4 * ...
ram:0001d87e    09b0            add         sp,#0x24                                
ram:0001d880    f0bd            pop         {r4,r5,r6,r7,pc}                        
                            ;************************************************************************************************
                            ;*                                           FUNCTION                                           *
                            ;************************************************************************************************
                            ;int FUN_0001d882(uint param_1)
          ;param_1       uint                r0                      
                                                          ;XREF[1,0]:   0001bb56
ram:0001d882    70b5            push        {r4,r5,r6,lr}                           
ram:0001d884    0025            movs        r5,#0x0                                 
ram:0001d886    0646            mov         r6,param_1                              
ram:0001d888    2c46            mov         r4,r5                                   
                            LAB_0001d88a:                 ;XREF[1,0]:   0001d89c
ram:0001d88a    a1b2            uxth        r1,r4                                   
ram:0001d88c    3046            mov         param_1,r6                              
ram:0001d88e    fff7cdff        bl          FUN_0001d82c                            ;undefined4 FUN_0001d82c(uint param_1...
ram:0001d892    0028            cmp         param_1,#0x0                            
ram:0001d894    00d0            beq         LAB_0001d898                            
ram:0001d896    6d1c            adds        r5,r5,#0x1                              
                            LAB_0001d898:                 ;XREF[1,0]:   0001d894
ram:0001d898    641c            adds        r4,r4,#0x1                              
ram:0001d89a    082c            cmp         r4,#0x8                                 
ram:0001d89c    f5d3            bcc         LAB_0001d88a                            
ram:0001d89e    2846            mov         param_1,r5                              
ram:0001d8a0    70bd            pop         {r4,r5,r6,pc}                           
                            ;************************************************************************************************
                            ;*                                           FUNCTION                                           *
                            ;************************************************************************************************
                            ;undefined FUN_0001d8a2(int param_1, int param_2, uint param_3, int param_4)
          ;param_1       int                 r0                      
          ;param_2       int                 r1                      
          ;param_3       uint                r2                      
          ;param_4       int                 r3                      
          ;local_8       undefined4          -8                      ;XREF[1,0]:   0001d8a4
                                                          ;XREF[4,0]:   0001bbea,0001bbf6,0001bc2e,0001bc48
ram:0001d8a2    08b5            push        {param_4,lr}                            
ram:0001d8a4    0093            str         param_4,[sp,#0x0]=>local_8              
ram:0001d8a6    1346            mov         param_4,param_3                         
ram:0001d8a8    0122            movs        param_3,#0x1                            
ram:0001d8aa    fff787ff        bl          FUN_0001d7bc                            ;undefined FUN_0001d7bc(int param_1, ...
ram:0001d8ae    08bd            pop         {param_4,pc}                            
                            ;************************************************************************************************
                            ;*                                           FUNCTION                                           *
                            ;************************************************************************************************
                            ;undefined4 FUN_0001d8b0(int param_1)
          ;param_1       int                 r0                      
                                                          ;XREF[1,0]:   0001c064
ram:0001d8b0    0028            cmp         param_1,#0x0                            
ram:0001d8b2    03d0            beq         LAB_0001d8bc                            
ram:0001d8b4    0249            ldr         r1,[DAT_0001d8c0]                       ;= 20003E3Ch
ram:0001d8b6    c860            str         param_1,[r1,#0xc]=>DAT_20003e48         
ram:0001d8b8    0020            movs        param_1,#0x0                            
ram:0001d8ba    7047            bx          lr                                      
                            LAB_0001d8bc:                 ;XREF[1,0]:   0001d8b2
ram:0001d8bc    0e20            movs        param_1,#0xe                            
ram:0001d8be    7047            bx          lr                                      
                            DAT_0001d8c0:                 ;XREF[1,0]:   0001d8b4
ram:0001d8c0    3c3e0020        undefined4  20003E3Ch                               
                            ;************************************************************************************************
                            ;*                                           FUNCTION                                           *
                            ;************************************************************************************************
                            ;undefined FUN_0001d8c4(void)
          ;local_c       undefined4          -c                      ;XREF[1,0]:   0001d8c8
          ;local_10      undefined4         -10                      ;XREF[1,0]:   0001d8ca
                                                          ;XREF[1,0]:   0001c056
ram:0001d8c4    1cb5            push        {r2,r3,r4,lr}                           
ram:0001d8c6    0349            ldr         r1,[DAT_0001d8d4]                       ;= 20003DB0h
ram:0001d8c8    0191            str         r1=>DAT_20003db0,[sp,#local_c+0x10]     
ram:0001d8ca    0091            str         r1=>DAT_20003db0,[sp,#0x0]=>local_10    
ram:0001d8cc    6946            mov         r1,sp                                   
ram:0001d8ce    60df            svc         0x60                                    
ram:0001d8d0    1cbd            pop         {r2,r3,r4,pc}                           
ram:0001d8d2    0000            movs        r0,r0                                   
                            DAT_0001d8d4:                 ;XREF[1,0]:   0001d8c6
ram:0001d8d4    b03d0020        undefined4  20003DB0h                               
                            ;************************************************************************************************
                            ;*                                           FUNCTION                                           *
                            ;************************************************************************************************
                            ;undefined4 FUN_0001d8d8(int param_1, undefined param_2, undefined2 * param_3)
          ;param_1       int                 r0                      
          ;param_2       undefined           r1                      
          ;param_3       undefined2 *        r2                      
                                                          ;XREF[1,0]:   0001c034
ram:0001d8d8    70b5            push        {r4,r5,r6,lr}                           
ram:0001d8da    0e46            mov         r6,param_2                              
ram:0001d8dc    0546            mov         r5,param_1                              
ram:0001d8de    1446            mov         r4,param_3                              
ram:0001d8e0    1421            movs        param_2,#0x14                           
ram:0001d8e2    1046            mov         param_1,param_3                         
ram:0001d8e4    fdf75ffc        bl          FUN_0001b1a6                            ;undefined FUN_0001b1a6(undefined * p...
ram:0001d8e8    0120            movs        param_1,#0x1                            
ram:0001d8ea    0021            movs        param_2,#0x0                            
ram:0001d8ec    2080            strh        param_1,[r4,#0x0]                       
ram:0001d8ee    2161            str         param_2,[r4,#0x10]                      
ram:0001d8f0    2173            strb        param_2,[r4,#0xc]                       
ram:0001d8f2    2672            strb        r6,[r4,#0x8]                            
ram:0001d8f4    6572            strb        r5,[r4,#0x9]                            
ram:0001d8f6    002d            cmp         r5,#0x0                                 
ram:0001d8f8    00d0            beq         LAB_0001d8fc                            
ram:0001d8fa    a072            strb        param_1,[r4,#0xa]                       
                            LAB_0001d8fc:                 ;XREF[1,0]:   0001d8f8
ram:0001d8fc    0020            movs        param_1,#0x0                            
ram:0001d8fe    70bd            pop         {r4,r5,r6,pc}                           
                            ;************************************************************************************************
                            ;*                                           FUNCTION                                           *
                            ;************************************************************************************************
                            ;undefined LAB_0001d900+1(void)
                                                          ;XREF[0,2]:   0001d91e,0001d938
ram:0001d900    10b5            push        {r4,lr}                                 
ram:0001d902    fdf793ff        bl          FUN_0001b82c                            ;undefined FUN_0001b82c(void)
ram:0001d906    10bd            pop         {r4,pc}                                 
                            ;************************************************************************************************
                            ;*                                           FUNCTION                                           *
                            ;************************************************************************************************
                            ;int FUN_0001d908(int param_1, uint param_2, undefined2 param_3, undefined4 param_4)
          ;param_1       int                 r0                      
          ;param_2       uint                r1                      
          ;param_3       undefined2          r2                      
          ;param_4       undefined4          r3                      
                                                          ;XREF[1,0]:   0001c022
ram:0001d908    70b5            push        {r4,r5,r6,lr}                           
ram:0001d90a    0029            cmp         param_2,#0x0                            
ram:0001d90c    01d0            beq         LAB_0001d912                            
ram:0001d90e    8c07            lsls        r4,param_2,#0x1e                        
ram:0001d910    01d0            beq         LAB_0001d916                            
                            LAB_0001d912:                 ;XREF[1,0]:   0001d90c
ram:0001d912    0720            movs        param_1,#0x7                            
                            LAB_0001d914:                 ;XREF[1,0]:   0001d926
ram:0001d914    70bd            pop         {r4,r5,r6,pc}                           
                            LAB_0001d916:                 ;XREF[1,0]:   0001d910
ram:0001d916    074c            ldr         r4,[DAT_0001d934]                       ;= 20003E3Ch
ram:0001d918    0125            movs        r5,#0x1                                 
ram:0001d91a    a160            str         param_2,[r4,#0x8]=>DAT_20003e44         
ram:0001d91c    6280            strh        param_3,[r4,#0x2]=>DAT_20003e3e         
ram:0001d91e    0649            ldr         param_2=>LAB_000...,[PTR_LAB_0001d900...;= 0001d901
ram:0001d920    6360            str         param_4,[r4,#0x4]=>DAT_20003e40         
ram:0001d922    10df            svc         0x10                                    
ram:0001d924    0028            cmp         param_1,#0x0                            
ram:0001d926    f5d1            bne         LAB_0001d914                            
ram:0001d928    2570            strb        r5,[r4,#0x0]=>DAT_20003e3c              
ram:0001d92a    1620            movs        param_1,#0x16                           
ram:0001d92c    fff700ff        bl          FUN_0001d730                            ;int FUN_0001d730(uint param_1)
ram:0001d930    70bd            pop         {r4,r5,r6,pc}                           
ram:0001d932    0000            movs        r0,r0                                   
                            DAT_0001d934:                 ;XREF[1,0]:   0001d916
ram:0001d934    3c3e0020        undefined4  20003E3Ch                               
                            PTR_LAB_0001d900+1+1_0001d938:;XREF[1,0]:   0001d91e
ram:0001d938    01d90100        addr        LAB_0001d900+1+1                        
                            ;************************************************************************************************
                            ;*                                           FUNCTION                                           *
                            ;************************************************************************************************
                            ;undefined FUN_0001d93c(undefined4 param_1, uint param_2, undefined4 param_3)
          ;param_1       undefined4          r0                      
          ;param_2       uint                r1                      
          ;param_3       undefined4          r2                      
          ;local_18      undefined4         -18                      ;XREF[2,0]:   0001d946,0001d9b0
          ;local_1c      undefined4         -1c                      ;XREF[2,0]:   0001d94e,0001d956
          ;local_20      undefined4         -20                      ;XREF[1,0]:   0001d95e
                                                          ;XREF[1,0]:   0001b48e
ram:0001d93c    feb5            push        {param_2,param_3,r3,r4,r5,r6,r7,lr}     
ram:0001d93e    1f4c            ldr         r4,[DAT_0001d9bc]                       ;= 20003E18h
ram:0001d940    0025            movs        r5,#0x0                                 
ram:0001d942    2769            ldr         r7,[r4,#0x10]=>DAT_20003e28             
ram:0001d944    e068            ldr         param_1,[r4,#0xc]=>DAT_20003e24         
ram:0001d946    0290            str         param_1,[sp,#local_18+0x20]             
ram:0001d948    6846            mov         param_1,sp                              
ram:0001d94a    fef7d3fd        bl          FUN_0001c4f4                            ;undefined4 FUN_0001c4f4(int * param_1)
ram:0001d94e    0190            str         param_1,[sp,#local_1c+0x20]             
ram:0001d950    fef7d0fe        bl          FUN_0001c6f4                            ;undefined4 FUN_0001c6f4(void)
ram:0001d954    0646            mov         r6,param_1                              
ram:0001d956    0198            ldr         param_1,[sp,#local_1c+0x20]             
ram:0001d958    0028            cmp         param_1,#0x0                            
ram:0001d95a    22d0            beq         LAB_0001d9a2                            
ram:0001d95c    0023            movs        r3,#0x0                                 
ram:0001d95e    0098            ldr         param_1,[sp,#0x0]=>local_20             
ram:0001d960    e168            ldr         param_2,[r4,#0xc]=>DAT_20003e24         
ram:0001d962    17e0            b           LAB_0001d994                            
                            LAB_0001d964:                 ;XREF[1,0]:   0001d996
ram:0001d964    0e68            ldr         r6,[param_2,#0x0]                       
ram:0001d966    0a46            mov         param_3,param_2                         
ram:0001d968    8642            cmp         r6,param_1                              
ram:0001d96a    02d9            bls         LAB_0001d972                            
ram:0001d96c    301a            subs        param_1,r6,param_1                      
ram:0001d96e    0860            str         param_1,[param_2,#0x0]                  
ram:0001d970    12e0            b           LAB_0001d998                            
                            LAB_0001d972:                 ;XREF[1,0]:   0001d96a
ram:0001d972    801b            subs        param_1,param_1,r6                      
ram:0001d974    f318            adds        r3,r6,r3                                
ram:0001d976    0026            movs        r6,#0x0                                 
ram:0001d978    1660            str         r6,[param_3,#0x0]                       
ram:0001d97a    d668            ldr         r6,[param_3,#0xc]                       
ram:0001d97c    d169            ldr         param_2,[param_3,#0x1c]                 
ram:0001d97e    b446            mov         r12,r6                                  
ram:0001d980    002e            cmp         r6,#0x0                                 
ram:0001d982    07d0            beq         LAB_0001d994                            
ram:0001d984    fe18            adds        r6,r7,r3                                
ram:0001d986    3602            lsls        r6,r6,#0x8                              
ram:0001d988    360a            lsrs        r6,r6,#0x8                              
ram:0001d98a    5660            str         r6,[param_3,#0x4]                       
ram:0001d98c    6646            mov         r6,r12                                  
ram:0001d98e    9660            str         r6,[param_3,#0x8]                       
ram:0001d990    d561            str         r5,[param_3,#0x1c]                      
ram:0001d992    1546            mov         r5,param_3                              
                            LAB_0001d994:                 ;XREF[2,0]:   0001d962,0001d982
ram:0001d994    0029            cmp         param_2,#0x0                            
ram:0001d996    e5d1            bne         LAB_0001d964                            
                            LAB_0001d998:                 ;XREF[1,0]:   0001d970
ram:0001d998    2846            mov         param_1,r5                              
ram:0001d99a    e160            str         param_2,[r4,#0xc]=>DAT_20003e24         
ram:0001d99c    fef708ff        bl          FUN_0001c7b0                            ;undefined4 FUN_0001c7b0(uint * param_1)
ram:0001d9a0    06e0            b           LAB_0001d9b0                            
                            LAB_0001d9a2:                 ;XREF[1,0]:   0001d95a
ram:0001d9a2    2846            mov         param_1,r5                              
ram:0001d9a4    fef704ff        bl          FUN_0001c7b0                            ;undefined4 FUN_0001c7b0(uint * param_1)
ram:0001d9a8    0028            cmp         param_1,#0x0                            
ram:0001d9aa    01d1            bne         LAB_0001d9b0                            
ram:0001d9ac    002e            cmp         r6,#0x0                                 
ram:0001d9ae    02d0            beq         LAB_0001d9b6                            
                            LAB_0001d9b0:                 ;XREF[2,0]:   0001d9a0,0001d9aa
ram:0001d9b0    0298            ldr         param_1,[sp,#local_18+0x20]             
ram:0001d9b2    fef733fc        bl          FUN_0001c21c                            ;undefined FUN_0001c21c(void)
                            LAB_0001d9b6:                 ;XREF[1,0]:   0001d9ae
ram:0001d9b6    0020            movs        param_1,#0x0                            
ram:0001d9b8    2071            strb        param_1,[r4,#0x4]=>DAT_20003e1c         
ram:0001d9ba    febd            pop         {param_2,param_3,r3,r4,r5,r6,r7,pc}     
                            DAT_0001d9bc:                 ;XREF[1,0]:   0001d93e
ram:0001d9bc    183e0020        undefined4  20003E18h                               
                            ;************************************************************************************************
                            ;*                                           FUNCTION                                           *
                            ;************************************************************************************************
                            ;undefined FUN_0001d9c0(void)
                                                          ;XREF[3,0]:   0001b9ce,0001ba2a,0001da80
ram:0001d9c0    0120            movs        r0,#0x1                                 
ram:0001d9c2    0249            ldr         r1,[DAT_0001d9cc]                       ;= E000E200h
ram:0001d9c4    0005            lsls        r0,r0,#0x14                             
ram:0001d9c6    0860            str         r0,[r1,#0x0]=>DAT_e000e200              
ram:0001d9c8    7047            bx          lr                                      
ram:0001d9ca    0000            movs        r0,r0                                   
                            DAT_0001d9cc:                 ;XREF[1,0]:   0001d9c2
ram:0001d9cc    00e200e0        undefined4  E000E200h                               
                            ;************************************************************************************************
                            ;*                                           FUNCTION                                           *
                            ;************************************************************************************************
                            ;undefined FUN_0001d9d0(uint * param_1)
          ;param_1       uint *              r0                      
                                                          ;XREF[1,0]:   0001c84e
ram:0001d9d0    10b5            push        {r4,lr}                                 
ram:0001d9d2    0e4b            ldr         r3,[DAT_0001da0c]                       ;= 20003E18h
ram:0001d9d4    d968            ldr         r1,[r3,#0xc]=>DAT_20003e24              
ram:0001d9d6    0029            cmp         r1,#0x0                                 
ram:0001d9d8    06d0            beq         LAB_0001d9e8                            
ram:0001d9da    0268            ldr         r2,[param_1,#0x0]                       
ram:0001d9dc    0c68            ldr         r4,[r1,#0x0]                            
ram:0001d9de    a242            cmp         r2,r4                                   
ram:0001d9e0    04d8            bhi         LAB_0001d9ec                            
ram:0001d9e2    a21a            subs        r2,r4,r2                                
ram:0001d9e4    0a60            str         r2,[r1,#0x0]                            
ram:0001d9e6    c161            str         r1,[param_1,#0x1c]                      
                            LAB_0001d9e8:                 ;XREF[1,0]:   0001d9d8
ram:0001d9e8    d860            str         param_1,[r3,#0xc]=>DAT_20003e24         
ram:0001d9ea    10bd            pop         {r4,pc}                                 
                            LAB_0001d9ec:                 ;XREF[1,0]:   0001d9e0
ram:0001d9ec    0b46            mov         r3,r1                                   
ram:0001d9ee    04e0            b           LAB_0001d9fa                            
                            LAB_0001d9f0:                 ;XREF[1,0]:   0001d9fe
ram:0001d9f0    0b46            mov         r3,r1                                   
ram:0001d9f2    c969            ldr         r1,[r1,#0x1c]                           
ram:0001d9f4    121b            subs        r2,r2,r4                                
ram:0001d9f6    0029            cmp         r1,#0x0                                 
ram:0001d9f8    04d0            beq         LAB_0001da04                            
                            LAB_0001d9fa:                 ;XREF[1,0]:   0001d9ee
ram:0001d9fa    0c68            ldr         r4,[r1,#0x0]                            
ram:0001d9fc    9442            cmp         r4,r2                                   
ram:0001d9fe    f7d3            bcc         LAB_0001d9f0                            
ram:0001da00    a41a            subs        r4,r4,r2                                
ram:0001da02    0c60            str         r4,[r1,#0x0]                            
                            LAB_0001da04:                 ;XREF[1,0]:   0001d9f8
ram:0001da04    0260            str         r2,[param_1,#0x0]                       
ram:0001da06    c161            str         r1,[param_1,#0x1c]                      
ram:0001da08    d861            str         param_1,[r3,#0x1c]                      
ram:0001da0a    10bd            pop         {r4,pc}                                 
                            DAT_0001da0c:                 ;XREF[1,0]:   0001d9d2
ram:0001da0c    183e0020        undefined4  20003E18h                               
                            ;************************************************************************************************
                            ;*                                           FUNCTION                                           *
                            ;************************************************************************************************
                            ;undefined FUN_0001da10(void)
                                                          ;XREF[1,0]:   0001b482
ram:0001da10    f8b5            push        {r3,r4,r5,r6,r7,lr}                     
ram:0001da12    1d4d            ldr         r5,[DAT_0001da88]                       ;= 20003E18h
ram:0001da14    ec68            ldr         r4,[r5,#0xc]=>DAT_20003e24              
ram:0001da16    002c            cmp         r4,#0x0                                 
ram:0001da18    34d0            beq         LAB_0001da84                            
ram:0001da1a    1c48            ldr         r0,[DAT_0001da8c]                       ;= 40011500h
ram:0001da1c    0027            movs        r7,#0x0                                 
ram:0001da1e    4068            ldr         r0,[r0,#offset DAT_40011504 &0xff]      
ram:0001da20    2969            ldr         r1,[r5,#0x10]=>DAT_20003e28             
ram:0001da22    401a            subs        r0,r0,r1                                
ram:0001da24    0602            lsls        r6,r0,#0x8                              
ram:0001da26    360a            lsrs        r6,r6,#0x8                              
                            LAB_0001da28:                 ;XREF[1,0]:   0001da5e
ram:0001da28    2068            ldr         r0,[r4,#0x0]                            
ram:0001da2a    b042            cmp         r0,r6                                   
ram:0001da2c    18d8            bhi         LAB_0001da60                            
ram:0001da2e    361a            subs        r6,r6,r0                                
ram:0001da30    c719            adds        r7,r0,r7                                
ram:0001da32    2246            mov         r2,r4                                   
ram:0001da34    107c            ldrb        r0,[r2,#0x10]                           
ram:0001da36    e469            ldr         r4,[r4,#0x1c]                           
ram:0001da38    0028            cmp         r0,#0x0                                 
ram:0001da3a    0fd0            beq         LAB_0001da5c                            
ram:0001da3c    0020            movs        r0,#0x0                                 
ram:0001da3e    1074            strb        r0,[r2,#0x10]                           
ram:0001da40    6b69            ldr         r3,[r5,#0x14]=>DAT_20003e2c             
ram:0001da42    002b            cmp         r3,#0x0                                 
ram:0001da44    07d0            beq         LAB_0001da56                            
ram:0001da46    9169            ldr         r1,[r2,#0x18]                           
ram:0001da48    5069            ldr         r0,[r2,#0x14]                           
ram:0001da4a    9847            blx         r3                                      
ram:0001da4c    0028            cmp         r0,#0x0                                 
ram:0001da4e    05d0            beq         LAB_0001da5c                            
ram:0001da50    fdf7fafe        bl          FUN_0001b848                            ;undefined FUN_0001b848(void)
ram:0001da54    02e0            b           LAB_0001da5c                            
                            LAB_0001da56:                 ;XREF[1,0]:   0001da44
ram:0001da56    5169            ldr         r1,[r2,#0x14]                           
ram:0001da58    9069            ldr         r0,[r2,#0x18]                           
ram:0001da5a    8847            blx         r1                                      
                            LAB_0001da5c:                 ;XREF[3,0]:   0001da3a,0001da4e,0001da54
ram:0001da5c    002c            cmp         r4,#0x0                                 
ram:0001da5e    e3d1            bne         LAB_0001da28                            
                            LAB_0001da60:                 ;XREF[1,0]:   0001da2c
ram:0001da60    6978            ldrb        r1,[r5,#0x1]=>DAT_20003e19              
ram:0001da62    a878            ldrb        r0,[r5,#0x2]=>DAT_20003e1a              
ram:0001da64    8142            cmp         r1,r0                                   
ram:0001da66    06d1            bne         LAB_0001da76                            
ram:0001da68    401c            adds        r0,r0,#0x1                              
ram:0001da6a    c0b2            uxtb        r0,r0                                   
ram:0001da6c    a870            strb        r0,[r5,#0x2]=>DAT_20003e1a              
ram:0001da6e    0228            cmp         r0,#0x2                                 
ram:0001da70    01d1            bne         LAB_0001da76                            
ram:0001da72    0020            movs        r0,#0x0                                 
ram:0001da74    a870            strb        r0,[r5,#0x2]=>DAT_20003e1a              
                            LAB_0001da76:                 ;XREF[2,0]:   0001da66,0001da70
ram:0001da76    0449            ldr         r1,[DAT_0001da88]                       ;= 20003E18h
ram:0001da78    0006            lsls        r0,r0,#0x18                             
ram:0001da7a    800d            lsrs        r0,r0,#0x16                             
ram:0001da7c    1831            adds        r1=>DAT_20003e30,#0x18                  
ram:0001da7e    0f50            str         r7,[r1,r0]=>DAT_20003e30                
ram:0001da80    fff79eff        bl          FUN_0001d9c0                            ;undefined FUN_0001d9c0(void)
                            LAB_0001da84:                 ;XREF[1,0]:   0001da18
ram:0001da84    f8bd            pop         {r3,r4,r5,r6,r7,pc}                     
ram:0001da86    0000            movs        r0,r0                                   
                            DAT_0001da88:                 ;XREF[2,0]:   0001da12,0001da76
ram:0001da88    183e0020        undefined4  20003E18h                               
                            DAT_0001da8c:                 ;XREF[1,0]:   0001da1a
ram:0001da8c    00150140        undefined4  40011500h                               
                            ;************************************************************************************************
                            ;*                                           FUNCTION                                           *
                            ;************************************************************************************************
                            ;undefined FUN_0001da90(void)
                                                          ;XREF[4,0]:   0001bdf2,0001be60,0001befe,0001e0e2
ram:0001da90    10b5            push        {r4,lr}                                 
ram:0001da92    0e4c            ldr         r4,[DAT_0001dacc]                       ;= 20003DD4h
ram:0001da94    2168            ldr         r1,[r4,#0x0]=>DAT_20003dd4              
ram:0001da96    6068            ldr         r0,[r4,#0x4]=>DAT_20003dd8              
ram:0001da98    8842            cmp         r0,r1                                   
ram:0001da9a    10d0            beq         LAB_0001dabe                            
ram:0001da9c    1421            movs        r1,#0x14                                
ram:0001da9e    0c4a            ldr         r2,[DAT_0001dad0]                       ;= 20004F88h
ram:0001daa0    4843            muls        r0,r1                                   
ram:0001daa2    8118            adds        r1,r0,r2                                
ram:0001daa4    8b78            ldrb        r3,[r1,#0x2]                            
ram:0001daa6    002b            cmp         r3,#0x0                                 
ram:0001daa8    0ad0            beq         LAB_0001dac0                            
ram:0001daaa    105a            ldrh        r0,[r2,r0]                              
ram:0001daac    0831            adds        r1,#0x8                                 
ram:0001daae    98df            svc         0x98                                    
                            LAB_0001dab0:                 ;XREF[1,0]:   0001dac8
ram:0001dab0    0028            cmp         r0,#0x0                                 
ram:0001dab2    04d1            bne         LAB_0001dabe                            
ram:0001dab4    2079            ldrb        r0,[r4,#0x4]=>DAT_20003dd8              
ram:0001dab6    401c            adds        r0,r0,#0x1                              
ram:0001dab8    4007            lsls        r0,r0,#0x1d                             
ram:0001daba    400f            lsrs        r0,r0,#0x1d                             
ram:0001dabc    6060            str         r0,[r4,#0x4]=>DAT_20003dd8              
                            LAB_0001dabe:                 ;XREF[2,0]:   0001da9a,0001dab2
ram:0001dabe    10bd            pop         {r4,pc}                                 
                            LAB_0001dac0:                 ;XREF[1,0]:   0001daa8
ram:0001dac0    105a            ldrh        r0,[r2,r0]                              
ram:0001dac2    8988            ldrh        r1,[r1,#0x4]                            
ram:0001dac4    0022            movs        r2,#0x0                                 
ram:0001dac6    96df            svc         0x96                                    
ram:0001dac8    f2e7            b           LAB_0001dab0                            
ram:0001daca    0000            movs        r0,r0                                   
                            DAT_0001dacc:                 ;XREF[1,0]:   0001da92
ram:0001dacc    d43d0020        undefined4  20003DD4h                               
                            DAT_0001dad0:                 ;XREF[1,0]:   0001da9e
ram:0001dad0    884f0020        undefined4  20004F88h                               
                            ;************************************************************************************************
                            ;*                                           FUNCTION                                           *
                            ;************************************************************************************************
                            ;undefined FUN_0001dad4(void)
                                                          ;XREF[3,0]:   0001cfe8,0001d012,0001df22
ram:0001dad4    ff21            movs        r1,#0xff                                
ram:0001dad6    0748            ldr         r0,[DAT_0001daf4]                       ;= 40002000h
ram:0001dad8    1d31            adds        r1,#0x1d                                
ram:0001dada    0022            movs        r2,#0x0                                 
ram:0001dadc    4250            str         r2,[r0,r1]=>DAT_4000211c                
ram:0001dade    0648            ldr         r0,[DAT_0001daf8]                       ;= 200052BCh
ram:0001dae0    828a            ldrh        r2,[r0,#0x14]=>DAT_200052d0             
ram:0001dae2    8168            ldr         r1,[r0,#0x8]=>DAT_200052c4              
ram:0001dae4    895c            ldrb        r1,[r1,r2]                              
ram:0001dae6    828a            ldrh        r2,[r0,#0x14]=>DAT_200052d0             
ram:0001dae8    521c            adds        r2,r2,#0x1                              
ram:0001daea    8282            strh        r2,[r0,#0x14]=>DAT_200052d0             
ram:0001daec    0348            ldr         r0=>DAT_40002500,[DAT_0001dafc]         ;= 40002500h
ram:0001daee    c161            str         r1,[r0,#offset DAT_4000251c &0xff]      
ram:0001daf0    7047            bx          lr                                      
ram:0001daf2    0000            movs        r0,r0                                   
                            DAT_0001daf4:                 ;XREF[1,0]:   0001dad6
ram:0001daf4    00200040        undefined4  40002000h                               
                            DAT_0001daf8:                 ;XREF[1,0]:   0001dade
ram:0001daf8    bc520020        undefined4  200052BCh                               
                            DAT_0001dafc:                 ;XREF[1,0]:   0001daec
ram:0001dafc    00250040        undefined4  40002500h                               
                            ;************************************************************************************************
                            ;*                                           FUNCTION                                           *
                            ;************************************************************************************************
                            ;undefined8 FUN_0001db00(uint param_1, undefined4 param_2, uint param_3, undefined4 param_4)
          ;param_1       uint                r0                      
          ;param_2       undefined4          r1                      
          ;param_3       uint                r2                      
          ;param_4       undefined4          r3                      
          ;local_10      undefined1         -10                      ;XREF[1,0]:   0001db08
          ;local_14      undefined4         -14                      ;XREF[1,0]:   0001db0e
          ;local_18      undefined1         -18                      ;XREF[1,0]:   0001db06
                                                          ;XREF[1,0]:   0001df32
ram:0001db00    1fb5            push        {param_1,param_2,param_3,param_4,r4,lr} 
ram:0001db02    0021            movs        param_2,#0x0                            
ram:0001db04    6a46            mov         param_3,sp                              
ram:0001db06    1170            strb        param_2,[param_3,#0x0]=>local_18        
ram:0001db08    1072            strb        param_1,[r2,#local_10+0x18]             
ram:0001db0a    0448            ldr         param_1,[DAT_0001db1c]                  ;= 200052BCh
ram:0001db0c    8268            ldr         param_3,[param_1,#0x8]=>DAT_200052c4    
ram:0001db0e    0192            str         param_3,[sp,#local_14+0x18]             
ram:0001db10    8175            strb        param_2,[param_1,#0x16]=>DAT_200052d2   
ram:0001db12    06c8            ldmia       param_1!=>DAT_20...,{param_2,param_3}...
ram:0001db14    6846            mov         param_1,sp                              
ram:0001db16    9047            blx         param_3                                 
ram:0001db18    1fbd            pop         {param_1,param_2,param_3,param_4,r4,pc} 
ram:0001db1a    0000            movs        r0,r0                                   
                            DAT_0001db1c:                 ;XREF[1,0]:   0001db0a
ram:0001db1c    bc520020        undefined4  200052BCh                               
                            ;************************************************************************************************
                            ;*                                           FUNCTION                                           *
                            ;************************************************************************************************
                            ;undefined LAB_0001db20+1(char * param_1)
          ;param_1       char *              r0                      
          ;local_2c      undefined4         -2c                      ;XREF[1,0]:   0001dd42
          ;local_30      undefined4         -30                      ;XREF[1,0]:   0001dbc4
          ;local_34      undefined4         -34                      ;XREF[1,0]:   0001dbc6
          ;local_40      undefined4         -40                      ;XREF[1,0]:   0001dc36
          ;local_44      undefined4         -44                      ;XREF[2,1]:   0001dc38,0001dc94,0001dc9e
          ;local_45      undefined1         -45                      ;XREF[1,0]:   0001db9a
          ;local_54      undefined1         -54                      ;XREF[1,0]:   0001db8c
          ;local_60      undefined4         -60                      ;XREF[3,2]:   0001dc3e,0001dc4c,0001dc8a,0001dc6e,0001dc7a
                                                          ;XREF[0,2]:   0001caf8,0001cbb0
ram:0001db20    f0b5            push        {r4,r5,r6,r7,lr}                        
ram:0001db22    0178            ldrb        r1,[param_1,#0x0]                       
ram:0001db24    93b0            sub         sp,#0x4c                                
ram:0001db26    0029            cmp         r1,#0x0                                 
ram:0001db28    05d0            beq         LAB_0001db36                            
ram:0001db2a    0129            cmp         r1,#0x1                                 
ram:0001db2c    01d0            beq         LAB_0001db32                            
ram:0001db2e    0229            cmp         r1,#0x2                                 
ram:0001db30    17d1            bne         LAB_0001db62                            
                            LAB_0001db32:                 ;XREF[1,0]:   0001db2c
ram:0001db32    4068            ldr         param_1,[param_1,#0x4]                  
ram:0001db34    76e0            b           LAB_0001dc24                            
                            LAB_0001db36:                 ;XREF[1,0]:   0001db28
ram:0001db36    914f            ldr         r7,[DAT_0001dd7c]                       ;= 20003DB0h
ram:0001db38    8f4d            ldr         r5,[DAT_0001dd78]                       ;= 20003F04h
ram:0001db3a    7878            ldrb        param_1,[r7,#0x1]=>DAT_20003db1         
ram:0001db3c    2818            adds        param_1,r5,param_1                      
ram:0001db3e    fdf77fff        bl          FUN_0001ba40                            ;undefined4 FUN_0001ba40(undefined * ...
ram:0001db42    7878            ldrb        param_1,[r7,#0x1]=>DAT_20003db1         
ram:0001db44    0024            movs        r4,#0x0                                 
ram:0001db46    401c            adds        param_1,param_1,#0x1                    
ram:0001db48    c0b2            uxtb        param_1,param_1                         
ram:0001db4a    7870            strb        param_1,[r7,#0x1]=>DAT_20003db1         
ram:0001db4c    2978            ldrb        r1,[r5,#0x0]=>DAT_20003f04              
ram:0001db4e    7729            cmp         r1,#0x77                                
ram:0001db50    02d0            beq         LAB_0001db58                            
ram:0001db52    1428            cmp         param_1,#0x14                           
ram:0001db54    77d0            beq         LAB_0001dc46                            
ram:0001db56    01e0            b           LAB_0001db5c                            
                            LAB_0001db58:                 ;XREF[1,0]:   0001db50
ram:0001db58    1428            cmp         param_1,#0x14                           
ram:0001db5a    04d0            beq         LAB_0001db66                            
                            LAB_0001db5c:                 ;XREF[1,0]:   0001db56
ram:0001db5c    1428            cmp         param_1,#0x14                           
ram:0001db5e    00d9            bls         LAB_0001db62                            
                            LAB_0001db60:                 ;XREF[2,0]:   0001dba6,0001dd60
ram:0001db60    7c70            strb        r4,[r7,#0x1]=>DAT_20003db1              
                            LAB_0001db62:                 ;XREF[10,0]:  0001db30,0001db5e,0001dbfc,0001dc22
                                                          ;             0001dc28,0001dc30,0001dcac,0001dd14
                                                          ;             0001dd2c,0001dd62
ram:0001db62    13b0            add         sp,#0x4c                                
ram:0001db64    f0bd            pop         {r4,r5,r6,r7,pc}                        
                            LAB_0001db66:                 ;XREF[1,0]:   0001db5a
ram:0001db66    8448            ldr         param_1=>DAT_20003f04,[DAT_0001dd78]    ;= 20003F04h
ram:0001db68    fef70ffb        bl          FUN_0001c18a                            ;undefined4 FUN_0001c18a(int param_1)
ram:0001db6c    0028            cmp         param_1,#0x0                            
ram:0001db6e    11d0            beq         LAB_0001db94                            
ram:0001db70    1022            movs        r2,#0x10                                
ram:0001db72    e91c            adds        r1,r5,#0x3                              
ram:0001db74    03a8            add         param_1,sp,#0xc                         
ram:0001db76    fdf7effa        bl          FUN_0001b158                            ;undefined FUN_0001b158(undefined4 * ...
ram:0001db7a    804b            ldr         r3,[DAT_0001dd7c]                       ;= 20003DB0h
ram:0001db7c    1022            movs        r2,#0x10                                
ram:0001db7e    0c33            adds        r3,#0xc                                 
ram:0001db80    1946            mov         r1,r3                                   
ram:0001db82    0831            adds        r1,#0x8                                 
ram:0001db84    03a8            add         param_1,sp,#0xc                         
ram:0001db86    fef7c9fb        bl          FUN_0001c31c                            ;undefined FUN_0001c31c(int param_1, ...
ram:0001db8a    6846            mov         param_1,sp                              
ram:0001db8c    007b            ldrb        param_1,[r0,#local_54+0x60]             
ram:0001db8e    6628            cmp         param_1,#0x66                           
ram:0001db90    02d0            beq         LAB_0001db98                            
ram:0001db92    05e0            b           LAB_0001dba0                            
                            LAB_0001db94:                 ;XREF[1,0]:   0001db6e
ram:0001db94    0720            movs        param_1,#0x7                            
ram:0001db96    04e0            b           LAB_0001dba2                            
                            LAB_0001db98:                 ;XREF[1,0]:   0001db90
ram:0001db98    6846            mov         param_1,sp                              
ram:0001db9a    c07e            ldrb        param_1,[r0,#local_45+0x60]             
ram:0001db9c    8828            cmp         param_1,#0x88                           
ram:0001db9e    03d0            beq         LAB_0001dba8                            
                            LAB_0001dba0:                 ;XREF[1,0]:   0001db92
ram:0001dba0    0820            movs        param_1,#0x8                            
                            LAB_0001dba2:                 ;XREF[1,0]:   0001db96
ram:0001dba2    fef702fb        bl          FUN_0001c1aa                            ;undefined FUN_0001c1aa(undefined par...
ram:0001dba6    dbe7            b           LAB_0001db60                            
                            LAB_0001dba8:                 ;XREF[1,0]:   0001db9e
ram:0001dba8    0620            movs        param_1,#0x6                            
ram:0001dbaa    fef7fefa        bl          FUN_0001c1aa                            ;undefined FUN_0001c1aa(undefined par...
ram:0001dbae    724d            ldr         r5,[DAT_0001dd78]                       ;= 20003F04h
ram:0001dbb0    1022            movs        r2,#0x10                                
ram:0001dbb2    03a9            add         r1,sp,#0xc                              
ram:0001dbb4    e81c            adds        param_1,r5,#0x3                         
ram:0001dbb6    fdf7cffa        bl          FUN_0001b158                            ;undefined FUN_0001b158(undefined4 * ...
ram:0001dbba    2946            mov         r1,r5                                   
ram:0001dbbc    7c70            strb        r4,[r7,#0x1]=>DAT_20003db1              
ram:0001dbbe    4839            subs        r1,#0x48                                
ram:0001dbc0    c86c            ldr         param_1,[r1,#0x4c]=>DAT_20003f08        
ram:0001dbc2    096d            ldr         r1,[r1,#0x50]=>DAT_20003f0c             
ram:0001dbc4    0c91            str         r1,[sp,#local_30+0x60]                  
ram:0001dbc6    0b90            str         param_1,[sp,#local_34+0x60]             
ram:0001dbc8    01a9            add         r1,sp,#0x4                              
ram:0001dbca    0ba8            add         param_1,sp,#0x2c                        
ram:0001dbcc    fff744fd        bl          FUN_0001d658                            ;undefined FUN_0001d658(int param_1, ...
ram:0001dbd0    6e78            ldrb        r6,[r5,#0x1]=>DAT_20003f05              
ram:0001dbd2    6b4d            ldr         r5,[PTR_DAT_0001dd80]                   ;= 0001e0f4
ram:0001dbd4    0c2e            cmp         r6,#0xc                                 
ram:0001dbd6    54d0            beq         LAB_0001dc82                            
ram:0001dbd8    08dc            bgt         LAB_0001dbec                            
ram:0001dbda    3300            movs        r3,r6                                   
                                                          ; FWD[2,0]:   0001b57c,0001dbe0
ram:0001dbdc    fdf7cefc        bl          __ARM_common_switch8                    ;undefined __ARM_common_switch8(void)
                                                                                    ;= 07h
                            DAT_0001dbe0:                 ;XREF[1,0]:   0001dbdc
ram:0001dbe0    07              undefined1  07h                                     
ram:0001dbe1    67              ??          67h    g                                
ram:0001dbe2    67              ??          67h    g                                
ram:0001dbe3    05              ??          05h                                     
ram:0001dbe4    05              ??          05h                                     
ram:0001dbe5    67              ??          67h    g                                
ram:0001dbe6    67              ??          67h    g                                
ram:0001dbe7    67              ??          67h    g                                
ram:0001dbe8    05              ??          05h                                     
ram:0001dbe9    00              ??          00h                                     
ram:0001dbea    ba              ??          BAh                                     
ram:0001dbeb    e7              ??          E7h                                     
                            LAB_0001dbec:                 ;XREF[1,0]:   0001dbd8
ram:0001dbec    0127            movs        r7,#0x1                                 
ram:0001dbee    ff03            lsls        r7,r7,#0xf                              
ram:0001dbf0    0f2e            cmp         r6,#0xf                                 
ram:0001dbf2    7dd0            beq         LAB_0001dcf0                            
ram:0001dbf4    19dc            bgt         LAB_0001dc2a                            
ram:0001dbf6    0d2e            cmp         r6,#0xd                                 
ram:0001dbf8    26d0            beq         LAB_0001dc48                            
ram:0001dbfa    0e2e            cmp         r6,#0xe                                 
ram:0001dbfc    b1d1            bne         LAB_0001db62                            
ram:0001dbfe    ff20            movs        param_1,#0xff                           
ram:0001dc00    45df            svc         0x45                                    
ram:0001dc02    0028            cmp         param_1,#0x0                            
ram:0001dc04    01d0            beq         LAB_0001dc0a                            
ram:0001dc06    fdf71ffe        bl          FUN_0001b848                            ;undefined FUN_0001b848(void)
                            LAB_0001dc0a:                 ;XREF[1,0]:   0001dc04
ram:0001dc0a    b020            movs        param_1,#0xb0                           
ram:0001dc0c    44df            svc         0x44                                    
ram:0001dc0e    0028            cmp         param_1,#0x0                            
ram:0001dc10    01d0            beq         LAB_0001dc16                            
ram:0001dc12    fdf719fe        bl          FUN_0001b848                            ;undefined FUN_0001b848(void)
                            LAB_0001dc16:                 ;XREF[2,0]:   0001dc10,0001dc2c
ram:0001dc16    0022            movs        r2,#0x0                                 
ram:0001dc18    3946            mov         r1,r7                                   
ram:0001dc1a    6868            ldr         param_1,[r5,#0x4]=>DAT_0001e0f8         ;= 20003E7Ch
ram:0001dc1c    fdf7a8fe        bl          FUN_0001b970                            ;longlong FUN_0001b970(int param_1, u...
ram:0001dc20    0028            cmp         param_1,#0x0                            
ram:0001dc22    9ed0            beq         LAB_0001db62                            
                            LAB_0001dc24:                 ;XREF[1,0]:   0001db34
ram:0001dc24    fdf710fe        bl          FUN_0001b848                            ;undefined FUN_0001b848(void)
                            LAB_0001dc28:                 ;XREF[1,0]:   0001dd08
ram:0001dc28    9be7            b           LAB_0001db62                            
                            LAB_0001dc2a:                 ;XREF[1,0]:   0001dbf4
ram:0001dc2a    102e            cmp         r6,#0x10                                
ram:0001dc2c    f3d0            beq         LAB_0001dc16                            
ram:0001dc2e    202e            cmp         r6,#0x20                                
ram:0001dc30    97d1            bne         LAB_0001db62                            
ram:0001dc32    54a1            adr         r1,[DAT_0001dd84]                       ;= 00010107h
                                                          ; FWD[2,0]:   0001dd84,0001dd88
ram:0001dc34    03c9            ldmia       r1,{param_1,r1}=>DAT_0001dd84           ;= 00010107h
ram:0001dc36    0891            str         r1,[sp,#local_40+0x60]                  
ram:0001dc38    0790            str         param_1,[sp,#local_44+0x60]             
ram:0001dc3a    54a0            adr         param_1,[DAT_0001dd8c]                  ;= 00008020h
ram:0001dc3c    0068            ldr         param_1,[param_1,#0x0]=>DAT_0001dd8c    ;= 00008020h
ram:0001dc3e    0090            str         param_1,[sp,#0x0]=>local_60             
ram:0001dc40    6946            mov         r1,sp                                   
ram:0001dc42    07a8            add         param_1,sp,#0x1c                        
ram:0001dc44    70e0            b           LAB_0001dd28                            
                            LAB_0001dc46:                 ;XREF[1,0]:   0001db54
ram:0001dc46    81e0            b           LAB_0001dd4c                            
                            LAB_0001dc48:                 ;XREF[1,0]:   0001dbf8
ram:0001dc48    51a0            adr         param_1,[DAT_0001dd90]                  ;= 0000850Dh
ram:0001dc4a    0068            ldr         param_1,[param_1,#0x0]=>DAT_0001dd90    ;= 0000850Dh
ram:0001dc4c    0090            str         param_1,[sp,#0x0]=>local_60             
ram:0001dc4e    01a8            add         param_1,sp,#0x4                         
ram:0001dc50    fef710fd        bl          FUN_0001c674                            ;int FUN_0001c674(int param_1)
ram:0001dc54    411c            adds        r1,param_1,#0x1                         
ram:0001dc56    0bd0            beq         LAB_0001dc70                            
ram:0001dc58    1421            movs        r1,#0x14                                
ram:0001dc5a    4843            muls        param_1,r1                              
ram:0001dc5c    4d49            ldr         r1,[DAT_0001dd94]                       ;= 20004F10h
ram:0001dc5e    4118            adds        r1,param_1,r1                           
ram:0001dc60    4878            ldrb        param_1,[r1,#0x1]=>DAT_20004f11         
ram:0001dc62    0328            cmp         param_1,#0x3                            
ram:0001dc64    06d0            beq         LAB_0001dc74                            
ram:0001dc66    0428            cmp         param_1,#0x4                            
ram:0001dc68    04d0            beq         LAB_0001dc74                            
ram:0001dc6a    8620            movs        param_1,#0x86                           
ram:0001dc6c    6946            mov         r1,sp                                   
ram:0001dc6e    4870            strb        param_1,[r1,#local_60+0x61]             
                            LAB_0001dc70:                 ;XREF[2,0]:   0001dc56,0001dc80
ram:0001dc70    6946            mov         r1,sp                                   
ram:0001dc72    58e0            b           LAB_0001dd26                            
                            LAB_0001dc74:                 ;XREF[2,0]:   0001dc64,0001dc68
ram:0001dc74    4c70            strb        r4,[r1,#0x1]=>DAT_20004f11              
ram:0001dc76    8020            movs        param_1,#0x80                           
ram:0001dc78    6946            mov         r1,sp                                   
ram:0001dc7a    4870            strb        param_1,[r1,#local_60+0x61]             
ram:0001dc7c    00f07cf9        bl          FUN_0001df78                            ;undefined FUN_0001df78(undefined4 pa...
ram:0001dc80    f6e7            b           LAB_0001dc70                            
                            LAB_0001dc82:                 ;XREF[1,0]:   0001dbd6
ram:0001dc82    0323            movs        r3,#0x3                                 
ram:0001dc84    09aa            add         r2,sp,#0x24                             
ram:0001dc86    0ba9            add         r1,sp,#0x2c                             
ram:0001dc88    0020            movs        param_1,#0x0                            
ram:0001dc8a    0094            str         r4,[sp,#0x0]=>local_60                  
ram:0001dc8c    fdf73afd        bl          FUN_0001b704                            ;undefined4 FUN_0001b704(undefined4 p...
ram:0001dc90    41a1            adr         r1,[DAT_0001dd98]                       ;= 0000840Ch
ram:0001dc92    0968            ldr         r1,[r1,#0x0]=>DAT_0001dd98              ;= 0000840Ch
ram:0001dc94    0791            str         r1,[sp,#local_44+0x60]                  
ram:0001dc96    0028            cmp         param_1,#0x0                            
ram:0001dc98    02d1            bne         LAB_0001dca0                            
ram:0001dc9a    8020            movs        param_1,#0x80                           
ram:0001dc9c    6946            mov         r1,sp                                   
ram:0001dc9e    4877            strb        param_1,[r1,#local_44+0x61]             
                            LAB_0001dca0:                 ;XREF[1,0]:   0001dc98
ram:0001dca0    07a9            add         r1,sp,#0x1c                             
ram:0001dca2    01a8            add         param_1,sp,#0x4                         
ram:0001dca4    fef798fa        bl          FUN_0001c1d8                            ;undefined FUN_0001c1d8(int param_1, ...
ram:0001dca8    00f066f9        bl          FUN_0001df78                            ;undefined FUN_0001df78(undefined4 pa...
ram:0001dcac    59e7            b           LAB_0001db62                            
ram:0001dcae    3249            ldr         r1,[DAT_0001dd78]                       ;= 20003F04h
ram:0001dcb0    0822            movs        r2,#0x8                                 
ram:0001dcb2    0a31            adds        r1,#0xa                                 
ram:0001dcb4    09a8            add         r0,sp,#0x24                             
ram:0001dcb6    fdf74ffa        bl          FUN_0001b158                            ;undefined FUN_0001b158(undefined4 * ...
ram:0001dcba    2f48            ldr         r0,[DAT_0001dd78]                       ;= 20003F04h
ram:0001dcbc    0223            movs        r3,#0x2                                 
ram:0001dcbe    8078            ldrb        r0,[r0,#0x2]=>DAT_20003f06              
ram:0001dcc0    0090            str         r0,[sp,#0x0]                            
ram:0001dcc2    09aa            add         r2,sp,#0x24                             
ram:0001dcc4    0ba9            add         r1,sp,#0x2c                             
ram:0001dcc6    3046            mov         r0,r6                                   
ram:0001dcc8    fdf71cfd        bl          FUN_0001b704                            ;undefined4 FUN_0001b704(undefined4 p...
ram:0001dccc    0128            cmp         r0,#0x1                                 
ram:0001dcce    22d0            beq         FUN_0001dd16                            
ram:0001dcd0    6846            mov         r0,sp                                   
ram:0001dcd2    0079            ldrb        r0,[r0,#0x4]                            
ram:0001dcd4    0126            movs        r6,#0x1                                 
ram:0001dcd6    1f28            cmp         r0,#0x1f                                
ram:0001dcd8    6846            mov         r0,sp                                   
ram:0001dcda    28d0            beq         FUN_0001dd2e                            
ram:0001dcdc    0677            strb        r6,[r0,#0x1c]                           
                            ;************************************************************************************************
                            ;*                                           FUNCTION                                           *
                            ;************************************************************************************************
                            ;undefined FUN_0001dcde(undefined param_1, undefined param_2, undefined param_3, undefined param_4, undefined param_5, undefined param_6, undefined param_7, undefined param_8, undefined param_9, undefined param_10, undefined4 param_11)
          ;param_1       undefined           r0                      
          ;param_2       undefined           r1                      
          ;param_3       undefined           r2                      
          ;param_4       undefined           r3                      
          ;param_5       undefined            0                      
          ;param_6       undefined            4                      
          ;param_7       undefined            8                      
          ;param_8       undefined            c                      
          ;param_9       undefined           10                      
          ;param_10      undefined           14                      
          ;param_11      undefined4          34                      ;XREF[1,0]:   0001dcf4
                                                          ;XREF[1,0]:   0001dd30
ram:0001dcde    07a8            add         param_1,sp,#0x1c                        
ram:0001dce0    0622            movs        param_3,#0x6                            
ram:0001dce2    01a9            add         param_2,sp,#0x4                         
ram:0001dce4    0130            adds        param_1,#0x1                            
ram:0001dce6    fdf737fa        bl          FUN_0001b158                            ;undefined FUN_0001b158(undefined4 * ...
ram:0001dcea    2835            adds        r5,#0x28                                
ram:0001dcec    0fcd            ldmia       r5!,{param_1,param_2,param_3,param_4}   
ram:0001dcee    00e0            b           LAB_0001dcf2                            
                            LAB_0001dcf0:                 ;XREF[1,0]:   0001dbf2
ram:0001dcf0    1fe0            b           LAB_0001dd32                            
                            LAB_0001dcf2:                 ;XREF[1,0]:   0001dcee
ram:0001dcf2    0dac            add         r4,sp,#0x34                             
ram:0001dcf4    0fc4            stmia       r4!=>param_11,{param_1,param_2,param_...
ram:0001dcf6    8bdf            svc         0x8b                                    
ram:0001dcf8    3e70            strb        r6,[r7,#0x0]                            
ram:0001dcfa    0324            movs        r4,#0x3                                 
                            LAB_0001dcfc:                 ;XREF[1,0]:   0001dd12
ram:0001dcfc    204a            ldr         param_3,[PTR_DAT_0001dd80]              ;= 0001e0f4
ram:0001dcfe    0da9            add         param_2,sp,#0x34                        
ram:0001dd00    1032            adds        param_3,#0x10                           
ram:0001dd02    07a8            add         param_1,sp,#0x1c                        
ram:0001dd04    8cdf            svc         0x8c                                    
ram:0001dd06    0028            cmp         param_1,#0x0                            
ram:0001dd08    8ed0            beq         LAB_0001dc28                            
ram:0001dd0a    2046            mov         param_1,r4                              
ram:0001dd0c    641e            subs        r4,r4,#0x1                              
ram:0001dd0e    e4b2            uxtb        r4,r4                                   
ram:0001dd10    0028            cmp         param_1,#0x0                            
ram:0001dd12    f3d1            bne         LAB_0001dcfc                            
ram:0001dd14    25e7            b           LAB_0001db62                            
                            ;************************************************************************************************
                            ;*                                           FUNCTION                                           *
                            ;************************************************************************************************
                            ;undefined FUN_0001dd16(undefined param_1, undefined param_2, undefined param_3, undefined param_4, undefined4 param_5)
          ;param_1       undefined           r0                      
          ;param_2       undefined           r1                      
          ;param_3       undefined           r2                      
          ;param_4       undefined           r3                      
          ;param_5       undefined4           0                      ;XREF[2,1]:   0001dd18,0001dd1e,0001dd22
                                                          ;XREF[1,0]:   0001dcce
ram:0001dd16    1848            ldr         param_1,[DAT_0001dd78]                  ;= 20003F04h
ram:0001dd18    0094            str         r4,[sp,#0x0]=>param_5                   
ram:0001dd1a    4178            ldrb        param_2,[param_1,#0x1]=>DAT_20003f05    
ram:0001dd1c    6846            mov         param_1,sp                              
ram:0001dd1e    0170            strb        param_2,[param_1,#0x0]=>param_5         
ram:0001dd20    8121            movs        param_2,#0x81                           
ram:0001dd22    4170            strb        param_2,[r0,#param_5+0x1]               
ram:0001dd24    6946            mov         param_2,sp                              
                            LAB_0001dd26:                 ;XREF[1,0]:   0001dc72
ram:0001dd26    01a8            add         param_1,sp,#0x4                         
                            LAB_0001dd28:                 ;XREF[2,0]:   0001dc44,0001dd4a
ram:0001dd28    fef756fa        bl          FUN_0001c1d8                            ;undefined FUN_0001c1d8(int param_1, ...
ram:0001dd2c    19e7            b           LAB_0001db62                            
                            ;************************************************************************************************
                            ;*                                           FUNCTION                                           *
                            ;************************************************************************************************
                            ;undefined FUN_0001dd2e(int param_1)
          ;param_1       int                 r0                      
                                                          ;XREF[1,0]:   0001dcda
ram:0001dd2e    0477            strb        r4,[param_1,#0x1c]                      
ram:0001dd30    d5e7            b           FUN_0001dcde                            
                            LAB_0001dd32:                 ;XREF[1,0]:   0001dcf0
ram:0001dd32    07a8            add         param_1,sp,#0x1c                        
ram:0001dd34    71df            svc         0x71                                    
ram:0001dd36    0028            cmp         param_1,#0x0                            
ram:0001dd38    01d0            beq         LAB_0001dd3e                            
ram:0001dd3a    fdf785fd        bl          FUN_0001b848                            ;undefined FUN_0001b848(void)
                            LAB_0001dd3e:                 ;XREF[1,0]:   0001dd38
ram:0001dd3e    17a0            adr         param_1,[DAT_0001dd9c]                  ;= 0000800Fh
ram:0001dd40    0068            ldr         param_1,[param_1,#0x0]=>DAT_0001dd9c    ;= 0000800Fh
ram:0001dd42    0d90            str         param_1,[sp,#local_2c+0x60]             
ram:0001dd44    07a8            add         param_1,sp,#0x1c                        
ram:0001dd46    0da9            add         r1,sp,#0x34                             
ram:0001dd48    0130            adds        param_1,#0x1                            
ram:0001dd4a    ede7            b           LAB_0001dd28                            
                            LAB_0001dd4c:                 ;XREF[1,0]:   0001dc46
ram:0001dd4c    0020            movs        param_1,#0x0                            
                            LAB_0001dd4e:                 ;XREF[1,0]:   0001dd58
                                                          ; FWD[2,0]:   20003f04,20003f05
ram:0001dd4e    295c            ldrb        r1,[r5,param_1]=>DAT_20003f04           
ram:0001dd50    7729            cmp         r1,#0x77                                
ram:0001dd52    07d0            beq         LAB_0001dd64                            
ram:0001dd54    401c            adds        param_1,param_1,#0x1                    
ram:0001dd56    1428            cmp         param_1,#0x14                           
ram:0001dd58    f9db            blt         LAB_0001dd4e                            
                            LAB_0001dd5a:                 ;XREF[1,0]:   0001dd74
ram:0001dd5a    7878            ldrb        param_1,[r7,#0x1]=>DAT_20003db1         
ram:0001dd5c    1428            cmp         param_1,#0x14                           
ram:0001dd5e    00d1            bne         LAB_0001dd62                            
ram:0001dd60    fee6            b           LAB_0001db60                            
                            LAB_0001dd62:                 ;XREF[1,0]:   0001dd5e
ram:0001dd62    fee6            b           LAB_0001db62                            
                            LAB_0001dd64:                 ;XREF[1,0]:   0001dd52
ram:0001dd64    1421            movs        r1,#0x14                                
ram:0001dd66    0e1a            subs        r6,r1,param_1                           
ram:0001dd68    2918            adds        r1=>DAT_20003f04,r5,param_1             
ram:0001dd6a    3246            mov         r2,r6                                   
ram:0001dd6c    0248            ldr         param_1=>DAT_20003f04,[DAT_0001dd78]    ;= 20003F04h
ram:0001dd6e    fdf7f3f9        bl          FUN_0001b158                            ;undefined FUN_0001b158(undefined4 * ...
ram:0001dd72    7e70            strb        r6,[r7,#0x1]=>DAT_20003db1              
ram:0001dd74    f1e7            b           LAB_0001dd5a                            
ram:0001dd76    0000            movs        r0,r0                                   
                            DAT_0001dd78:                 ;XREF[7,0]:   0001db38,0001db66,0001dbae,0001dcae
                                                          ;             0001dcba,0001dd16,0001dd6c
ram:0001dd78    043f0020        undefined4  20003F04h                               
                            DAT_0001dd7c:                 ;XREF[2,0]:   0001db36,0001db7a
ram:0001dd7c    b03d0020        undefined4  20003DB0h                               
                            PTR_DAT_0001dd80:             ;XREF[2,0]:   0001dbd2,0001dcfc
ram:0001dd80    f4e00100        addr        DAT_0001e0f4                            ;= 20003E5Ch
                            DAT_0001dd84:                 ;XREF[2,0]:   0001dc32,0001dc34
ram:0001dd84    07010100        undefined4  00010107h                               
                            DAT_0001dd88:                 ;XREF[1,0]:   0001dc34
ram:0001dd88    00000000        undefined4  00000000h                               
                            DAT_0001dd8c:                 ;XREF[2,0]:   0001dc3a,0001dc3c
ram:0001dd8c    20800000        undefined4  00008020h                               
                            DAT_0001dd90:                 ;XREF[2,0]:   0001dc48,0001dc4a
ram:0001dd90    0d850000        undefined4  0000850Dh                               
                            DAT_0001dd94:                 ;XREF[1,0]:   0001dc5c
ram:0001dd94    104f0020        undefined4  20004F10h                               
                            DAT_0001dd98:                 ;XREF[2,0]:   0001dc90,0001dc92
ram:0001dd98    0c840000        undefined4  0000840Ch                               
                            DAT_0001dd9c:                 ;XREF[2,0]:   0001dd3e,0001dd40
ram:0001dd9c    0f800000        undefined4  0000800Fh                               
                            ;************************************************************************************************
                            ;*                                           FUNCTION                                           *
                            ;************************************************************************************************
                            ;undefined LAB_0001dda0+1(char * param_1, undefined4 param_2, int param_3, int param_4)
          ;param_1       char *              r0                      
          ;param_2       undefined4          r1                      
          ;param_3       int                 r2                      
          ;param_4       int                 r3                      
          ;local_14      undefined4         -14                      ;XREF[2,0]:   0001ddda,0001de16
          ;local_18      undefined1         -18                      ;XREF[4,0]:   0001ddd8,0001ddee,0001de12,0001de3c
                                                          ;XREF[0,2]:   0001bae8,0001bb10
ram:0001dda0    7cb5            push        {param_3,param_4,r4,r5,r6,lr}           
ram:0001dda2    0178            ldrb        param_2,[param_1,#0x0]                  
ram:0001dda4    284d            ldr         r5,[DAT_0001de48]                       ;= 20003DFCh
ram:0001dda6    0129            cmp         param_2,#0x1                            
ram:0001dda8    0ad0            beq         LAB_0001ddc0                            
ram:0001ddaa    0229            cmp         param_2,#0x2                            
ram:0001ddac    2fd0            beq         LAB_0001de0e                            
ram:0001ddae    0029            cmp         param_2,#0x0                            
ram:0001ddb0    2cd1            bne         LAB_0001de0c                            
ram:0001ddb2    2946            mov         param_2,r5                              
ram:0001ddb4    2548            ldr         param_1,[DAT_0001de4c]                  ;= 20005264h
ram:0001ddb6    fdf753fd        bl          FUN_0001b860                            ;undefined4 FUN_0001b860(int * param_...
ram:0001ddba    0028            cmp         param_1,#0x0                            
ram:0001ddbc    33d0            beq         LAB_0001de26                            
ram:0001ddbe    36e0            b           LAB_0001de2e                            
                            LAB_0001ddc0:                 ;XREF[1,0]:   0001dda8
ram:0001ddc0    4068            ldr         param_1,[param_1,#0x4]                  
ram:0001ddc2    0178            ldrb        param_2,[param_1,#0x0]                  
ram:0001ddc4    2148            ldr         param_1,[DAT_0001de4c]                  ;= 20005264h
ram:0001ddc6    1038            subs        param_1,#0x10                           
ram:0001ddc8    fdf767fd        bl          FUN_0001b89a                            ;undefined4 FUN_0001b89a(int * param_...
ram:0001ddcc    1f4c            ldr         r4,[DAT_0001de4c]                       ;= 20005264h
ram:0001ddce    103c            subs        r4,#0x10                                
ram:0001ddd0    0028            cmp         param_1,#0x0                            
ram:0001ddd2    05d0            beq         LAB_0001dde0                            
ram:0001ddd4    0121            movs        param_2,#0x1                            
ram:0001ddd6    6a46            mov         param_3,sp                              
ram:0001ddd8    1170            strb        param_2,[param_3,#0x0]=>local_18        
ram:0001ddda    0190            str         param_1,[sp,#local_14+0x18]             
ram:0001dddc    6846            mov         param_1,sp                              
ram:0001ddde    08e0            b           LAB_0001ddf2                            
                            LAB_0001dde0:                 ;XREF[1,0]:   0001ddd2
ram:0001dde0    a068            ldr         param_1,[r4,#0x8]=>DAT_2000525c         
ram:0001dde2    e168            ldr         param_2,[r4,#0xc]=>DAT_20005260         
ram:0001dde4    081a            subs        param_1,param_2,param_1                 
ram:0001dde6    0128            cmp         param_1,#0x1                            
ram:0001dde8    05d1            bne         LAB_0001ddf6                            
ram:0001ddea    0020            movs        param_1,#0x0                            
ram:0001ddec    6946            mov         param_2,sp                              
ram:0001ddee    0870            strb        param_1,[param_2,#0x0]=>local_18        
ram:0001ddf0    6846            mov         param_1,sp                              
                            LAB_0001ddf2:                 ;XREF[1,0]:   0001ddde
ram:0001ddf2    6968            ldr         param_2,[r5,#0x4]=>DAT_20003e00         
ram:0001ddf4    8847            blx         param_2                                 
                            LAB_0001ddf6:                 ;XREF[1,0]:   0001dde8
ram:0001ddf6    a068            ldr         param_1,[r4,#0x8]=>DAT_2000525c         
ram:0001ddf8    e168            ldr         param_2,[r4,#0xc]=>DAT_20005260         
ram:0001ddfa    081a            subs        param_1,param_2,param_1                 
ram:0001ddfc    a188            ldrh        param_2,[r4,#0x4]=>DAT_20005258         
ram:0001ddfe    8842            cmp         param_1,param_2                         
ram:0001de00    04d8            bhi         LAB_0001de0c                            
ram:0001de02    1148            ldr         param_1,[DAT_0001de48]                  ;= 20003DFCh
ram:0001de04    0121            movs        param_2,#0x1                            
ram:0001de06    401c            adds        param_1,param_1,#0x1                    
ram:0001de08    fff754f8        bl          FUN_0001ceb4                            ;undefined4 FUN_0001ceb4(undefined4 p...
                            LAB_0001de0c:                 ;XREF[3,0]:   0001ddb0,0001de00,0001de36
ram:0001de0c    7cbd            pop         {param_3,param_4,r4,r5,r6,pc}           
                            LAB_0001de0e:                 ;XREF[1,0]:   0001ddac
ram:0001de0e    0221            movs        param_2,#0x2                            
ram:0001de10    6a46            mov         param_3,sp                              
ram:0001de12    1170            strb        param_2,[param_3,#0x0]=>local_18        
ram:0001de14    c068            ldr         param_1,[param_1,#0xc]                  
ram:0001de16    0190            str         param_1,[sp,#local_14+0x18]             
ram:0001de18    0b48            ldr         param_1,[DAT_0001de48]                  ;= 20003DFCh
ram:0001de1a    0121            movs        param_2,#0x1                            
ram:0001de1c    401c            adds        param_1,param_1,#0x1                    
ram:0001de1e    fff749f8        bl          FUN_0001ceb4                            ;undefined4 FUN_0001ceb4(undefined4 p...
ram:0001de22    6846            mov         param_1,sp                              
ram:0001de24    0ce0            b           LAB_0001de40                            
                            LAB_0001de26:                 ;XREF[1,0]:   0001ddbc
ram:0001de26    0121            movs        param_2,#0x1                            
ram:0001de28    0748            ldr         param_1,[DAT_0001de48]                  ;= 20003DFCh
ram:0001de2a    fff7c3f8        bl          FUN_0001cfb4                            ;undefined4 FUN_0001cfb4(undefined4 p...
                            LAB_0001de2e:                 ;XREF[1,0]:   0001ddbe
ram:0001de2e    0748            ldr         param_1,[DAT_0001de4c]                  ;= 20005264h
ram:0001de30    8168            ldr         param_2,[param_1,#0x8]=>DAT_2000526c    
ram:0001de32    c068            ldr         param_1,[param_1,#0xc]=>DAT_20005270    
ram:0001de34    8842            cmp         param_1,param_2                         
ram:0001de36    e9d1            bne         LAB_0001de0c                            
ram:0001de38    0320            movs        param_1,#0x3                            
ram:0001de3a    6946            mov         param_2,sp                              
ram:0001de3c    0870            strb        param_1,[param_2,#0x0]=>local_18        
ram:0001de3e    6846            mov         param_1,sp                              
                            LAB_0001de40:                 ;XREF[1,0]:   0001de24
ram:0001de40    6968            ldr         param_2,[r5,#0x4]=>DAT_20003e00         
ram:0001de42    8847            blx         param_2                                 
ram:0001de44    7cbd            pop         {param_3,param_4,r4,r5,r6,pc}           
ram:0001de46    0000            movs        r0,r0                                   
                            DAT_0001de48:                 ;XREF[4,0]:   0001dda4,0001de02,0001de18,0001de28
ram:0001de48    fc3d0020        undefined4  20003DFCh                               
                            DAT_0001de4c:                 ;XREF[4,0]:   0001ddb4,0001ddc4,0001ddcc,0001de2e
ram:0001de4c    64520020        undefined4  20005264h                               
                            ;************************************************************************************************
                            ;*                                           FUNCTION                                           *
                            ;************************************************************************************************
                            ;uint FUN_0001de50(undefined4 param_1, undefined4 param_2, undefined * param_3, undefined4 param_4)
          ;param_1       undefined4          r0                      
          ;param_2       undefined4          r1                      
          ;param_3       undefined *         r2                      
          ;param_4       undefined4          r3                      
          ;local_1c      undefined4         -1c                      ;XREF[1,0]:   0001de9a
          ;local_20      undefined1         -20                      ;XREF[1,0]:   0001dea0
          ;local_24      undefined4         -24                      ;XREF[1,0]:   0001dea4
          ;local_28      undefined1         -28                      ;XREF[1,0]:   0001de92
                                                          ;XREF[1,0]:   0001b556
ram:0001de50    f0b5            push        {r4,r5,r6,r7,lr}                        
ram:0001de52    454d            ldr         r5,[DAT_0001df68]                       ;= 40002000h
ram:0001de54    0121            movs        param_2,#0x1                            
ram:0001de56    85b0            sub         sp,#0x14                                
ram:0001de58    4902            lsls        param_2,param_2,#0x9                    
ram:0001de5a    2846            mov         param_1=>DAT_40002000,r5                
ram:0001de5c    fff755f9        bl          FUN_0001d10a                            ;uint FUN_0001d10a(int param_1, uint ...
ram:0001de60    0127            movs        r7,#0x1                                 
ram:0001de62    0026            movs        r6,#0x0                                 
ram:0001de64    414c            ldr         r4,[DAT_0001df6c]                       ;= 200052BCh
ram:0001de66    0028            cmp         param_1,#0x0                            
ram:0001de68    24d0            beq         LAB_0001deb4                            
ram:0001de6a    ff21            movs        param_2,#0xff                           
ram:0001de6c    2531            adds        param_2,#0x25                           
ram:0001de6e    2846            mov         param_1=>DAT_40002000,r5                
ram:0001de70    fff746f9        bl          FUN_0001d100                            ;int FUN_0001d100(int param_1, int pa...
ram:0001de74    0028            cmp         param_1,#0x0                            
ram:0001de76    1dd0            beq         LAB_0001deb4                            
ram:0001de78    ff20            movs        param_1,#0xff                           
ram:0001de7a    2530            adds        param_1,#0x25                           
ram:0001de7c    2e50            str         r6,[r5,param_1]=>DAT_40002124           
ram:0001de7e    8120            movs        param_1,#0x81                           
ram:0001de80    3b49            ldr         param_2,[DAT_0001df70]                  ;= 40002300h
ram:0001de82    8000            lsls        param_1,param_1,#0x2                    
ram:0001de84    8860            str         param_1,[param_2,#offset DAT_40002308...
ram:0001de86    a07e            ldrb        param_1,[r4,#0x1a]=>DAT_200052d6        
ram:0001de88    0028            cmp         param_1,#0x0                            
ram:0001de8a    00d1            bne         LAB_0001de8e                            
ram:0001de8c    6f60            str         r7,[r5,#offset DAT_40002004 &0xff]      
                            LAB_0001de8e:                 ;XREF[1,0]:   0001de8a
ram:0001de8e    0221            movs        param_2,#0x2                            
ram:0001de90    6846            mov         param_1,sp                              
ram:0001de92    0170            strb        param_2,[param_1,#0x0]=>local_28        
ram:0001de94    3749            ldr         param_2,[DAT_0001df74]                  ;= 40002480h
ram:0001de96    0868            ldr         param_1,[param_2,#0x0]=>DAT_40002480    
ram:0001de98    0860            str         param_1,[param_2,#0x0]=>DAT_40002480    
ram:0001de9a    0390            str         param_1,[sp,#local_1c+0x28]             
ram:0001de9c    e17d            ldrb        param_2,[r4,#0x17]=>DAT_200052d3        
ram:0001de9e    6846            mov         param_1,sp                              
ram:0001dea0    0172            strb        param_2,[r0,#local_20+0x28]             
ram:0001dea2    e068            ldr         param_1,[r4,#0xc]=>DAT_200052c8         
ram:0001dea4    0190            str         param_1,[sp,#local_24+0x28]             
ram:0001dea6    e675            strb        r6,[r4,#0x17]=>DAT_200052d3             
ram:0001dea8    2676            strb        r6,[r4,#0x18]=>DAT_200052d4             
ram:0001deaa    06cc            ldmia       r4!=>DAT_200052bc,{param_2,param_3}=>...
ram:0001deac    6846            mov         param_1,sp                              
ram:0001deae    083c            subs        r4,#0x8                                 
ram:0001deb0    9047            blx         param_3                                 
ram:0001deb2    2be0            b           LAB_0001df0c                            
                            LAB_0001deb4:                 ;XREF[2,0]:   0001de68,0001de76
ram:0001deb4    0421            movs        param_2,#0x4                            
ram:0001deb6    2846            mov         param_1=>DAT_40002000,r5                
ram:0001deb8    fff727f9        bl          FUN_0001d10a                            ;uint FUN_0001d10a(int param_1, uint ...
ram:0001debc    0028            cmp         param_1,#0x0                            
ram:0001debe    25d0            beq         LAB_0001df0c                            
ram:0001dec0    ff21            movs        param_2,#0xff                           
ram:0001dec2    0931            adds        param_2,#0x9                            
ram:0001dec4    2846            mov         param_1=>DAT_40002000,r5                
ram:0001dec6    fff71bf9        bl          FUN_0001d100                            ;int FUN_0001d100(int param_1, int pa...
ram:0001deca    0028            cmp         param_1,#0x0                            
ram:0001decc    1ed0            beq         LAB_0001df0c                            
ram:0001dece    fff7effb        bl          FUN_0001d6b0                            ;int FUN_0001d6b0(void)
ram:0001ded2    e07d            ldrb        param_1,[r4,#0x17]=>DAT_200052d3        
ram:0001ded4    617e            ldrb        param_2,[r4,#0x19]=>DAT_200052d5        
ram:0001ded6    8842            cmp         param_1,param_2                         
ram:0001ded8    18d1            bne         LAB_0001df0c                            
ram:0001deda    207e            ldrb        param_1,[r4,#0x18]=>DAT_200052d4        
ram:0001dedc    0028            cmp         param_1,#0x0                            
ram:0001dede    08d0            beq         LAB_0001def2                            
ram:0001dee0    627e            ldrb        param_3,[r4,#0x19]=>DAT_200052d5        
ram:0001dee2    e168            ldr         param_2,[r4,#0xc]=>DAT_200052c8         
ram:0001dee4    e075            strb        param_1,[r4,#0x17]=>DAT_200052d3        
ram:0001dee6    2069            ldr         param_1,[r4,#0x10]=>DAT_200052cc        
ram:0001dee8    e060            str         param_1,[r4,#0xc]=>DAT_200052c8         
ram:0001deea    2676            strb        r6,[r4,#0x18]=>DAT_200052d4             
ram:0001deec    6676            strb        r6,[r4,#0x19]=>DAT_200052d5             
ram:0001deee    1046            mov         param_1,param_3                         
ram:0001def0    0ae0            b           LAB_0001df08                            
                            LAB_0001def2:                 ;XREF[1,0]:   0001dede
ram:0001def2    a07e            ldrb        param_1,[r4,#0x1a]=>DAT_200052d6        
ram:0001def4    0028            cmp         param_1,#0x0                            
ram:0001def6    00d1            bne         LAB_0001defa                            
ram:0001def8    6f60            str         r7,[r5,#offset DAT_40002004 &0xff]      
                            LAB_0001defa:                 ;XREF[1,0]:   0001def6
ram:0001defa    8120            movs        param_1,#0x81                           
ram:0001defc    1c49            ldr         param_2,[DAT_0001df70]                  ;= 40002300h
ram:0001defe    8000            lsls        param_1,param_1,#0x2                    
ram:0001df00    8860            str         param_1,[param_2,#offset DAT_40002308...
ram:0001df02    e675            strb        r6,[r4,#0x17]=>DAT_200052d3             
ram:0001df04    607e            ldrb        param_1,[r4,#0x19]=>DAT_200052d5        
ram:0001df06    e168            ldr         param_2,[r4,#0xc]=>DAT_200052c8         
                            LAB_0001df08:                 ;XREF[1,0]:   0001def0
ram:0001df08    fff7eefb        bl          FUN_0001d6e8                            ;undefined8 FUN_0001d6e8(uint param_1...
                            LAB_0001df0c:                 ;XREF[4,0]:   0001deb2,0001debe,0001decc,0001ded8
ram:0001df0c    ff21            movs        param_2,#0xff                           
ram:0001df0e    1d31            adds        param_2,#0x1d                           
ram:0001df10    2846            mov         param_1=>DAT_40002000,r5                
ram:0001df12    fff7f5f8        bl          FUN_0001d100                            ;int FUN_0001d100(int param_1, int pa...
ram:0001df16    0028            cmp         param_1,#0x0                            
ram:0001df18    0dd0            beq         LAB_0001df36                            
ram:0001df1a    a18a            ldrh        param_2,[r4,#0x14]=>DAT_200052d0        
ram:0001df1c    a07d            ldrb        param_1,[r4,#0x16]=>DAT_200052d2        
ram:0001df1e    8142            cmp         param_2,param_1                         
ram:0001df20    02d2            bcs         LAB_0001df28                            
ram:0001df22    fff7d7fd        bl          FUN_0001dad4                            ;undefined FUN_0001dad4(void)
ram:0001df26    06e0            b           LAB_0001df36                            
                            LAB_0001df28:                 ;XREF[1,0]:   0001df20
ram:0001df28    ff21            movs        param_2,#0xff                           
ram:0001df2a    1d31            adds        param_2,#0x1d                           
ram:0001df2c    6e50            str         r6,[r5,param_2]=>DAT_4000211c           
ram:0001df2e    0028            cmp         param_1,#0x0                            
ram:0001df30    01d0            beq         LAB_0001df36                            
ram:0001df32    fff7e5fd        bl          FUN_0001db00                            ;undefined8 FUN_0001db00(uint param_1...
                            LAB_0001df36:                 ;XREF[3,0]:   0001df18,0001df26,0001df30
ram:0001df36    ff21            movs        param_2,#0xff                           
ram:0001df38    4531            adds        param_2,#0x45                           
ram:0001df3a    2846            mov         param_1=>DAT_40002000,r5                
ram:0001df3c    fff7e0f8        bl          FUN_0001d100                            ;int FUN_0001d100(int param_1, int pa...
ram:0001df40    0028            cmp         param_1,#0x0                            
ram:0001df42    0ed0            beq         LAB_0001df62                            
ram:0001df44    ff20            movs        param_1,#0xff                           
ram:0001df46    4530            adds        param_1,#0x45                           
ram:0001df48    2e50            str         r6,[r5,param_1]=>DAT_40002144           
ram:0001df4a    a07e            ldrb        param_1,[r4,#0x1a]=>DAT_200052d6        
ram:0001df4c    0028            cmp         param_1,#0x0                            
ram:0001df4e    00d0            beq         LAB_0001df52                            
ram:0001df50    2f60            str         r7,[r5,#0x0]=>DAT_40002000              
                            LAB_0001df52:                 ;XREF[1,0]:   0001df4e
ram:0001df52    e07d            ldrb        param_1,[r4,#0x17]=>DAT_200052d3        
ram:0001df54    0028            cmp         param_1,#0x0                            
ram:0001df56    04d0            beq         LAB_0001df62                            
ram:0001df58    e675            strb        r6,[r4,#0x17]=>DAT_200052d3             
ram:0001df5a    607e            ldrb        param_1,[r4,#0x19]=>DAT_200052d5        
ram:0001df5c    e168            ldr         param_2,[r4,#0xc]=>DAT_200052c8         
ram:0001df5e    fff7c3fb        bl          FUN_0001d6e8                            ;undefined8 FUN_0001d6e8(uint param_1...
                            LAB_0001df62:                 ;XREF[2,0]:   0001df42,0001df56
ram:0001df62    05b0            add         sp,#0x14                                
ram:0001df64    f0bd            pop         {r4,r5,r6,r7,pc}                        
ram:0001df66    0000            movs        r0,r0                                   
                            DAT_0001df68:                 ;XREF[1,0]:   0001de52
ram:0001df68    00200040        undefined4  40002000h                               
                            DAT_0001df6c:                 ;XREF[1,0]:   0001de64
ram:0001df6c    bc520020        undefined4  200052BCh                               
                            DAT_0001df70:                 ;XREF[2,0]:   0001de80,0001defc
ram:0001df70    00230040        undefined4  40002300h                               
                            DAT_0001df74:                 ;XREF[1,0]:   0001de94
ram:0001df74    80240040        undefined4  40002480h                               
                            ;************************************************************************************************
                            ;*                                           FUNCTION                                           *
                            ;************************************************************************************************
                            ;undefined FUN_0001df78(undefined4 param_1, undefined4 param_2, undefined4 param_3, int param_4)
          ;param_1       undefined4          r0                      
          ;param_2       undefined4          r1                      
          ;param_3       undefined4          r2                      
          ;param_4       int                 r3                      
          ;local_2c      undefined4         -2c                      ;XREF[1,0]:   0001dfce
          ;local_58      undefined1         -58                      ;XREF[2,0]:   0001dfb6,0001e00e
                                                          ;XREF[4,0]:   0001ca22,0001d2a2,0001dc7c,0001dca8
ram:0001df78    f0b5            push        {r4,r5,r6,r7,lr}                        
ram:0001df7a    2748            ldr         param_1,[DAT_0001e018]                  ;= 20003DB0h
ram:0001df7c    91b0            sub         sp,#0x44                                
ram:0001df7e    0078            ldrb        param_1,[param_1,#0x0]=>DAT_20003db0    
ram:0001df80    0028            cmp         param_1,#0x0                            
ram:0001df82    3ed1            bne         LAB_0001e002                            
ram:0001df84    8bdf            svc         0x8b                                    
ram:0001df86    0828            cmp         param_1,#0x8                            
ram:0001df88    03d0            beq         LAB_0001df92                            
ram:0001df8a    0028            cmp         param_1,#0x0                            
ram:0001df8c    01d0            beq         LAB_0001df92                            
ram:0001df8e    fdf75bfc        bl          FUN_0001b848                            ;undefined FUN_0001b848(void)
                            LAB_0001df92:                 ;XREF[2,0]:   0001df88,0001df8c
ram:0001df92    0024            movs        r4,#0x0                                 
ram:0001df94    2546            mov         r5,r4                                   
ram:0001df96    0baf            add         r7,sp,#0x2c                             
                            LAB_0001df98:                 ;XREF[1,0]:   0001dfd6
ram:0001df98    1420            movs        param_1,#0x14                           
ram:0001df9a    2946            mov         param_2,r5                              
ram:0001df9c    4143            muls        param_2,param_1                         
ram:0001df9e    1f48            ldr         param_1,[DAT_0001e01c]                  ;= 20004F10h
ram:0001dfa0    0918            adds        param_2,param_2,param_1                 
                                                          ; FWD[2,0]:   20004f11,20004f25
ram:0001dfa2    4878            ldrb        param_1,[param_2,#0x1]=>DAT_20004f11    
ram:0001dfa4    0028            cmp         param_1,#0x0                            
ram:0001dfa6    14d0            beq         LAB_0001dfd2                            
ram:0001dfa8    8878            ldrb        param_1,[param_2,#0x2]=>DAT_20004f12    
ram:0001dfaa    1f28            cmp         param_1,#0x1f                           
ram:0001dfac    2bd0            beq         LAB_0001e006                            
ram:0001dfae    0122            movs        param_3,#0x1                            
ram:0001dfb0    e000            lsls        param_1,r4,#0x3                         
ram:0001dfb2    031b            subs        param_4,param_1,r4                      
ram:0001dfb4    6846            mov         param_1,sp                              
ram:0001dfb6    c254            strb        param_3,[param_1,param_4]=>local_58     
                            LAB_0001dfb8:                 ;XREF[1,0]:   0001e010
ram:0001dfb8    e000            lsls        param_1,r4,#0x3                         
ram:0001dfba    021b            subs        param_3,param_1,r4                      
ram:0001dfbc    6846            mov         param_1,sp                              
ram:0001dfbe    1618            adds        r6,param_3,param_1                      
ram:0001dfc0    701c            adds        param_1,r6,#0x1                         
ram:0001dfc2    0622            movs        param_3,#0x6                            
ram:0001dfc4    891c            adds        param_2=>DAT_20004f12,param_2,#0x2      
ram:0001dfc6    fdf7c7f8        bl          FUN_0001b158                            ;undefined FUN_0001b158(undefined4 * ...
ram:0001dfca    a000            lsls        param_1,r4,#0x2                         
ram:0001dfcc    641c            adds        r4,r4,#0x1                              
ram:0001dfce    3e50            str         r6,[r7,param_1]=>local_2c               
ram:0001dfd0    e4b2            uxtb        r4,r4                                   
                            LAB_0001dfd2:                 ;XREF[1,0]:   0001dfa6
ram:0001dfd2    6d1c            adds        r5,r5,#0x1                              
ram:0001dfd4    062d            cmp         r5,#0x6                                 
ram:0001dfd6    dfdb            blt         LAB_0001df98                            
ram:0001dfd8    002c            cmp         r4,#0x0                                 
ram:0001dfda    1ad0            beq         LAB_0001e012                            
ram:0001dfdc    1048            ldr         param_1,[DAT_0001e020]                  ;= 50h    P
ram:0001dfde    0021            movs        param_2,#0x0                            
ram:0001dfe0    0471            strb        r4,[param_1,#0x4]=>DAT_20004254         
ram:0001dfe2    0760            str         r7,[param_1,#0x0]=>DAT_20004250         
ram:0001dfe4    8160            str         param_2,[param_1,#0x8]=>DAT_20004258    
ram:0001dfe6    0173            strb        param_2,[param_1,#0xc]=>DAT_2000425c    
ram:0001dfe8    8bdf            svc         0x8b                                    
ram:0001dfea    0146            mov         param_2=>DAT_20004250,param_1           
ram:0001dfec    0828            cmp         param_1,#0x8                            
ram:0001dfee    02d0            beq         LAB_0001dff6                            
ram:0001dff0    0ca0            adr         param_1=>s_debug...,[s_debug:_error_%...;= "debug: error %d\n"
ram:0001dff2    fdf7b3fa        bl          FUN_0001b55c                            ;undefined FUN_0001b55c(byte * param_...
                            LAB_0001dff6:                 ;XREF[1,0]:   0001dfee
ram:0001dff6    1048            ldr         param_1=>DAT_0001e10c,[PTR_DAT_0001e038];= 02h
                                                                                    ;= 0001e10c
ram:0001dff8    8adf            svc         0x8a                                    
ram:0001dffa    0028            cmp         param_1,#0x0                            
ram:0001dffc    01d0            beq         LAB_0001e002                            
ram:0001dffe    fdf723fc        bl          FUN_0001b848                            ;undefined FUN_0001b848(void)
                            LAB_0001e002:                 ;XREF[3,0]:   0001df82,0001dffc,0001e014
ram:0001e002    11b0            add         sp,#0x44                                
ram:0001e004    f0bd            pop         {r4,r5,r6,r7,pc}                        
                            LAB_0001e006:                 ;XREF[1,0]:   0001dfac
ram:0001e006    0020            movs        param_1,#0x0                            
ram:0001e008    e200            lsls        param_3,r4,#0x3                         
ram:0001e00a    131b            subs        param_4,param_3,r4                      
ram:0001e00c    6a46            mov         param_3,sp                              
ram:0001e00e    d054            strb        param_1,[param_3,param_4]=>local_58     
ram:0001e010    d2e7            b           LAB_0001dfb8                            
                            LAB_0001e012:                 ;XREF[1,0]:   0001dfda
ram:0001e012    8bdf            svc         0x8b                                    
ram:0001e014    f5e7            b           LAB_0001e002                            
ram:0001e016    0000            movs        r0,r0                                   
                            DAT_0001e018:                 ;XREF[1,0]:   0001df7a
ram:0001e018    b03d0020        undefined4  20003DB0h                               
                            DAT_0001e01c:                 ;XREF[1,0]:   0001df9e
ram:0001e01c    104f0020        undefined4  20004F10h                               
                            DAT_0001e020:                 ;XREF[1,0]:   0001dfdc
ram:0001e020    50              ??          50h    P                                
ram:0001e021    42              ??          42h    B                                
ram:0001e022    00              ??          00h                                     
                                                          ;XREF[0,2]:   0001dff0,0001dff0
ram:0001e023    206465627...    ds          " debug: error %d\n"                    
                            PTR_DAT_0001e038:             ;XREF[1,0]:   0001dff6
ram:0001e038    0ce10100        addr        DAT_0001e10c                            ;= 02h
                            ;************************************************************************************************
                            ;*                                           FUNCTION                                           *
                            ;************************************************************************************************
                            ;undefined4 FUN_0001e03c(void)
                                                          ;XREF[2,0]:   0001b99a,0001ba06
ram:0001e03c    eff30580        mrs         r0,ipsr                                 
ram:0001e040    c005            lsls        r0,r0,#0x17                             
ram:0001e042    c00d            lsrs        r0,r0,#0x17                             
ram:0001e044    1ad0            beq         LAB_0001e07c                            
ram:0001e046    1038            subs        r0,#0x10                                
ram:0001e048    40b2            sxtb        r0,r0                                   
ram:0001e04a    0028            cmp         r0,#0x0                                 
ram:0001e04c    08da            bge         LAB_0001e060                            
ram:0001e04e    0107            lsls        r1,r0,#0x1c                             
ram:0001e050    090f            lsrs        r1,r1,#0x1c                             
ram:0001e052    0839            subs        r1,#0x8                                 
ram:0001e054    8908            lsrs        r1,r1,#0x2                              
ram:0001e056    0c4a            ldr         r2,[DAT_0001e088]                       ;= E000ED00h
ram:0001e058    8900            lsls        r1,r1,#0x2                              
ram:0001e05a    8918            adds        r1,r1,r2                                
ram:0001e05c    c969            ldr         r1,[r1,#0x1c]                           
ram:0001e05e    04e0            b           LAB_0001e06a                            
                            LAB_0001e060:                 ;XREF[1,0]:   0001e04c
ram:0001e060    8108            lsrs        r1,r0,#0x2                              
ram:0001e062    0a4a            ldr         r2,[DAT_0001e08c]                       ;= E000E400h
ram:0001e064    8900            lsls        r1,r1,#0x2                              
ram:0001e066    8918            adds        r1,r1,r2                                
ram:0001e068    0968            ldr         r1,[r1,#0x0]                            
                            LAB_0001e06a:                 ;XREF[1,0]:   0001e05e
ram:0001e06a    8007            lsls        r0,r0,#0x1e                             
ram:0001e06c    c00e            lsrs        r0,r0,#0x1b                             
ram:0001e06e    c140            lsrs        r1,r0                                   
ram:0001e070    0806            lsls        r0,r1,#0x18                             
ram:0001e072    800f            lsrs        r0,r0,#0x1e                             
ram:0001e074    0128            cmp         r0,#0x1                                 
ram:0001e076    03d0            beq         LAB_0001e080                            
ram:0001e078    0328            cmp         r0,#0x3                                 
ram:0001e07a    03d0            beq         LAB_0001e084                            
                            LAB_0001e07c:                 ;XREF[1,0]:   0001e044
ram:0001e07c    0220            movs        r0,#0x2                                 
ram:0001e07e    7047            bx          lr                                      
                            LAB_0001e080:                 ;XREF[1,0]:   0001e076
ram:0001e080    0020            movs        r0,#0x0                                 
ram:0001e082    7047            bx          lr                                      
                            LAB_0001e084:                 ;XREF[1,0]:   0001e07a
ram:0001e084    0120            movs        r0,#0x1                                 
ram:0001e086    7047            bx          lr                                      
                            DAT_0001e088:                 ;XREF[1,0]:   0001e056
ram:0001e088    00ed00e0        undefined4  E000ED00h                               
                            DAT_0001e08c:                 ;XREF[1,0]:   0001e062
ram:0001e08c    00e400e0        undefined4  E000E400h                               
                            ;************************************************************************************************
                            ;*                                           FUNCTION                                           *
                            ;************************************************************************************************
                            ;int FUN_0001e090(char * param_1, char * param_2)
          ;param_1       char *              r0                      
          ;param_2       char *              r1                      
                                                          ;XREF[2,0]:   0001b9aa,0001ba12
ram:0001e090    4278            ldrb        r2,[param_1,#0x1]                       
ram:0001e092    8378            ldrb        r3,[param_1,#0x2]                       
ram:0001e094    521c            adds        r2,r2,#0x1                              
ram:0001e096    d2b2            uxtb        r2,r2                                   
ram:0001e098    9342            cmp         r3,r2                                   
ram:0001e09a    00d1            bne         LAB_0001e09e                            
ram:0001e09c    0022            movs        r2,#0x0                                 
                            LAB_0001e09e:                 ;XREF[1,0]:   0001e09a
ram:0001e09e    0378            ldrb        r3,[param_1,#0x0]                       
ram:0001e0a0    9342            cmp         r3,r2                                   
ram:0001e0a2    01d1            bne         LAB_0001e0a8                            
ram:0001e0a4    0020            movs        param_1,#0x0                            
ram:0001e0a6    7047            bx          lr                                      
                            LAB_0001e0a8:                 ;XREF[1,0]:   0001e0a2
ram:0001e0a8    0a70            strb        r2,[param_2,#0x0]                       
ram:0001e0aa    4168            ldr         param_2,[param_1,#0x4]                  
ram:0001e0ac    4078            ldrb        param_1,[param_1,#0x1]                  
ram:0001e0ae    1822            movs        r2,#0x18                                
ram:0001e0b0    5043            muls        param_1,r2                              
ram:0001e0b2    0818            adds        param_1,param_2,param_1                 
ram:0001e0b4    7047            bx          lr                                      
ram:0001e0b6    0000            movs        r0,r0                                   
                            ;************************************************************************************************
                            ;*                                           FUNCTION                                           *
                            ;************************************************************************************************
                            ;undefined4 FUN_0001e0b8(undefined2 param_1, undefined2 param_2, undefined2 param_3, undefined4 param_4)
          ;param_1       undefined2          r0                      
          ;param_2       undefined2          r1                      
          ;param_3       undefined2          r2                      
          ;param_4       undefined4          r3                      
                                                          ;XREF[1,0]:   0001bf5e
ram:0001e0b8    f8b5            push        {param_4,r4,r5,r6,r7,lr}                
ram:0001e0ba    0c4e            ldr         r6,[DAT_0001e0ec]                       ;= 20003DD4h
ram:0001e0bc    1424            movs        r4,#0x14                                
ram:0001e0be    3568            ldr         r5,[r6,#0x0]=>DAT_20003dd4              
ram:0001e0c0    0b4f            ldr         r7,[DAT_0001e0f0]                       ;= 20004F88h
ram:0001e0c2    6c43            muls        r4,r5                                   
ram:0001e0c4    6d1c            adds        r5,r5,#0x1                              
ram:0001e0c6    6d07            lsls        r5,r5,#0x1d                             
ram:0001e0c8    6d0f            lsrs        r5,r5,#0x1d                             
ram:0001e0ca    e419            adds        r4,r4,r7                                
ram:0001e0cc    3560            str         r5,[r6,#0x0]=>DAT_20003dd4              
ram:0001e0ce    6181            strh        param_2,[r4,#0xa]                       
ram:0001e0d0    0221            movs        param_2,#0x2                            
ram:0001e0d2    2172            strb        param_2,[r4,#0x8]                       
ram:0001e0d4    0021            movs        param_2,#0x0                            
ram:0001e0d6    a181            strh        param_2,[r4,#0xc]                       
ram:0001e0d8    e281            strh        param_3,[r4,#0xe]                       
ram:0001e0da    2361            str         param_4,[r4,#0x10]                      
ram:0001e0dc    2080            strh        param_1,[r4,#0x0]                       
ram:0001e0de    0120            movs        param_1,#0x1                            
ram:0001e0e0    a070            strb        param_1,[r4,#0x2]                       
ram:0001e0e2    fff7d5fc        bl          FUN_0001da90                            ;undefined FUN_0001da90(void)
ram:0001e0e6    0020            movs        param_1,#0x0                            
ram:0001e0e8    f8bd            pop         {param_4,r4,r5,r6,r7,pc}                
ram:0001e0ea    0000            movs        r0,r0                                   
                            DAT_0001e0ec:                 ;XREF[1,0]:   0001e0ba
ram:0001e0ec    d43d0020        undefined4  20003DD4h                               
                            DAT_0001e0f0:                 ;XREF[1,0]:   0001e0c0
ram:0001e0f0    884f0020        undefined4  20004F88h                               
                            DAT_0001e0f4:                 ;XREF[6,0]:   0001c074,0001c964,0001cb54,0001cb68
                                                          ;             0001cba8,0001dd80
ram:0001e0f4    5c3e0020        undefined4  20003E5Ch                               
                            DAT_0001e0f8:                 ;XREF[2,0]:   0001cb74,0001dc1a
ram:0001e0f8    7c3e0020        undefined4  20003E7Ch                               
                            DAT_0001e0fc:                 ;XREF[2,0]:   0001c8e0,0001cb88
ram:0001e0fc    9c3e0020        undefined4  20003E9Ch                               
                            DAT_0001e100:                 ;XREF[1,0]:   0001c016
ram:0001e100    01000007        undefined4  07000001h                               
ram:0001e104    06              ??          06h                                     
ram:0001e105    00              ??          00h                                     
ram:0001e106    18              ??          18h                                     
ram:0001e107    00              ??          00h                                     
ram:0001e108    00              ??          00h                                     
ram:0001e109    00              ??          00h                                     
ram:0001e10a    90              ??          90h                                     
ram:0001e10b    01              ??          01h                                     
                            DAT_0001e10c:                 ;XREF[2,0]:   0001dff6,0001e038
ram:0001e10c    02              ??          02h                                     
ram:0001e10d    00              ??          00h                                     
ram:0001e10e    00              ??          00h                                     
ram:0001e10f    00              ??          00h                                     
ram:0001e110    50              ??          50h    P                                
ram:0001e111    42              ??          42h    B                                
ram:0001e112    00              ??          00h                                     
ram:0001e113    20              ??          20h                                     
ram:0001e114    a0              ??          A0h                                     
ram:0001e115    00              ??          00h                                     
ram:0001e116    50              ??          50h    P                                
ram:0001e117    00              ??          00h                                     
ram:0001e118    00              ??          00h                                     
ram:0001e119    00              ??          00h                                     
ram:0001e11a    00              ??          00h                                     
ram:0001e11b    00              ??          00h                                     
ram:0001e11c    00              ??          00h                                     
ram:0001e11d    00              ??          00h                                     
ram:0001e11e    00              ??          00h                                     
ram:0001e11f    00              ??          00h                                     
ram:0001e120    00              ??          00h                                     
ram:0001e121    00              ??          00h                                     
ram:0001e122    00              ??          00h                                     
ram:0001e123    00              ??          00h                                     
ram:0001e124    a0              ??          A0h                                     
ram:0001e125    00              ??          00h                                     
ram:0001e126    50              ??          50h    P                                
ram:0001e127    00              ??          00h                                     
ram:0001e128    0a              ??          0Ah                                     
ram:0001e129    00              ??          00h                                     
ram:0001e12a    00              ??          00h                                     
ram:0001e12b    00              ??          00h                                     
                            DAT_0001e12c:                 ;XREF[1,0]:   0001cae0
ram:0001e12c    0504080a        undefined4  0A080405h                               
                            DAT_0001e130:                 ;XREF[1,0]:   0001cae0
ram:0001e130    00000000        undefined4  00000000h                               
                            DAT_0001e134:                 ;XREF[1,0]:   0001cae0
ram:0001e134    00e0d701        undefined4  01D7E000h                               
                            DAT_0001e138:                 ;XREF[2,0]:   0001baa8,0001bb0c
ram:0001e138    09              ??          09h                                     
ram:0001e139    00              ??          00h                                     
ram:0001e13a    00              ??          00h                                     
ram:0001e13b    00              ??          00h                                     
ram:0001e13c    0b              ??          0Bh                                     
ram:0001e13d    00              ??          00h                                     
ram:0001e13e    00              ??          00h                                     
ram:0001e13f    00              ??          00h                                     
ram:0001e140    0a              ??          0Ah                                     
ram:0001e141    00              ??          00h                                     
ram:0001e142    00              ??          00h                                     
ram:0001e143    00              ??          00h                                     
ram:0001e144    08              ??          08h                                     
ram:0001e145    00              ??          00h                                     
ram:0001e146    00              ??          00h                                     
ram:0001e147    00              ??          00h                                     
ram:0001e148    00              ??          00h                                     
ram:0001e149    00              ??          00h                                     
ram:0001e14a    00              ??          00h                                     
ram:0001e14b    00              ??          00h                                     
ram:0001e14c    00              ??          00h                                     
ram:0001e14d    00              ??          00h                                     
ram:0001e14e    00              ??          00h                                     
ram:0001e14f    00              ??          00h                                     
ram:0001e150    00              ??          00h                                     
ram:0001e151    e0              ??          E0h                                     
ram:0001e152    d7              ??          D7h                                     
ram:0001e153    01              ??          01h                                     
ram:0001e154    03              ??          03h                                     
ram:0001e155    00              ??          00h                                     
ram:0001e156    00              ??          00h                                     
ram:0001e157    00              ??          00h                                     
                            DAT_0001e158:                 ;XREF[4,0]:   0001ce06,0001ce10,0001ce2c,0001ce9c
ram:0001e158    09000000        undefined4  00000009h                               
                            DAT_0001e15c:                 ;XREF[2,0]:   0001ce18,0001ce2c
ram:0001e15c    0b000000        undefined4  0000000Bh                               
                            DAT_0001e160:                 ;XREF[2,0]:   0001ce3c,0001ce54
ram:0001e160    0a000000        undefined4  0000000Ah                               
                            DAT_0001e164:                 ;XREF[3,0]:   0001ce42,0001ce4c,0001ce52
ram:0001e164    08000000        undefined4  00000008h                               
                            DAT_0001e168:                 ;XREF[1,0]:   0001ce5e
ram:0001e168    00000000        undefined4  00000000h                               
                            DAT_0001e16c:                 ;XREF[2,0]:   0001ce26,0001ce32
ram:0001e16c    00              undefined1  00h                                     
                            DAT_0001e16d:                 ;XREF[1,0]:   0001ce24
ram:0001e16d    00              undefined1  00h                                     
ram:0001e16e    00              ??          00h                                     
ram:0001e16f    00              ??          00h                                     
                            DAT_0001e170:                 ;XREF[1,0]:   0001ce20
ram:0001e170    00e0d701        undefined4  01D7E000h                               
                            DAT_0001e174:                 ;XREF[1,0]:   0001ce6c
ram:0001e174    03              undefined1  03h                                     
ram:0001e175    00              ??          00h                                     
ram:0001e176    00              ??          00h                                     
ram:0001e177    00              ??          00h                                     
                            DAT_0001e178:                 ;XREF[5,0]:   0001b814,0001b820,0001c572,0001c5a8
                                                          ;             0001c5b0
ram:0001e178    d8520020        undefined4  200052D8h                               
                            DAT_0001e17c:                 ;XREF[1,0]:   0001b7ec
ram:0001e17c    03000000        undefined4  00000003h                               
                            PTR_DAT_0001e180:             ;XREF[1,0]:   0001b1e2
ram:0001e180    a0e10100        addr        DAT_0001e1a0                            
                            DAT_0001e184:                 ;XREF[1,0]:   0001b1e2
ram:0001e184    b03d0020        undefined4  20003DB0h                               
                            DAT_0001e188:                 ;XREF[1,0]:   0001b1e2
ram:0001e188    ac000000        undefined4  000000ACh                               
                            PTR_thunk_FUN_0001b59e_0001...;XREF[1,0]:   0001b1e0
ram:0001e18c    96b50100        addr        thunk_FUN_0001b59e                      
ram:0001e190    4c              ??          4Ch    L                                
ram:0001e191    e2              ??          E2h                                     
ram:0001e192    01              ??          01h                                     
ram:0001e193    00              ??          00h                                     
ram:0001e194    5c              ??          5Ch    \                                
ram:0001e195    3e              ??          3Eh    >                                
ram:0001e196    00              ??          00h                                     
ram:0001e197    20              ??          20h                                     
ram:0001e198    9c              ??          9Ch                                     
ram:0001e199    1c              ??          1Ch                                     
ram:0001e19a    00              ??          00h                                     
ram:0001e19b    00              ??          00h                                     
ram:0001e19c    a6              ??          A6h                                     ;?  ->  0001b5a6
ram:0001e19d    b5              ??          B5h                                     
ram:0001e19e    01              ??          01h                                     
ram:0001e19f    00              ??          00h                                     
                            DAT_0001e1a0:                 ;XREF[3,0]:   0001b1e2,0001b1f8,0001e180
ram:0001e1a0    00              ??          00h                                     
ram:0001e1a1    00              ??          00h                                     
ram:0001e1a2    00              ??          00h                                     
ram:0001e1a3    00              ??          00h                                     
ram:0001e1a4    00              ??          00h                                     
ram:0001e1a5    00              ??          00h                                     
ram:0001e1a6    00              ??          00h                                     
ram:0001e1a7    00              ??          00h                                     
ram:0001e1a8    00              ??          00h                                     
ram:0001e1a9    00              ??          00h                                     
ram:0001e1aa    00              ??          00h                                     
ram:0001e1ab    00              ??          00h                                     
ram:0001e1ac    5b              ??          5Bh    [                                
ram:0001e1ad    d1              ??          D1h                                     
ram:0001e1ae    4a              ??          4Ah    J                                
ram:0001e1af    54              ??          54h    T                                
ram:0001e1b0    8f              ??          8Fh                                     
ram:0001e1b1    8f              ??          8Fh                                     
ram:0001e1b2    1f              ??          1Fh                                     
ram:0001e1b3    cd              ??          CDh                                     
ram:0001e1b4    ad              ??          ADh                                     
ram:0001e1b5    8a              ??          8Ah                                     
ram:0001e1b6    d4              ??          D4h                                     
ram:0001e1b7    66              ??          66h    f                                
ram:0001e1b8    5a              ??          5Ah    Z                                
ram:0001e1b9    95              ??          95h                                     
ram:0001e1ba    97              ??          97h                                     
ram:0001e1bb    bf              ??          BFh                                     
ram:0001e1bc    11              ??          11h                                     
ram:0001e1bd    00              ??          00h                                     
ram:0001e1be    03              ??          03h                                     
ram:0001e1bf    00              ??          00h                                     
ram:0001e1c0    85              ??          85h                                     ;?  ->  0001c085
ram:0001e1c1    c0              ??          C0h                                     
ram:0001e1c2    01              ??          01h                                     
ram:0001e1c3    00              ??          00h                                     
ram:0001e1c4    00              ??          00h                                     
ram:0001e1c5    00              ??          00h                                     
ram:0001e1c6    00              ??          00h                                     
ram:0001e1c7    00              ??          00h                                     
ram:0001e1c8    00              ??          00h                                     
ram:0001e1c9    00              ??          00h                                     
ram:0001e1ca    00              ??          00h                                     
ram:0001e1cb    00              ??          00h                                     
ram:0001e1cc    00              ??          00h                                     
ram:0001e1cd    00              ??          00h                                     
ram:0001e1ce    00              ??          00h                                     
ram:0001e1cf    00              ??          00h                                     
ram:0001e1d0    00              ??          00h                                     
ram:0001e1d1    00              ??          00h                                     
ram:0001e1d2    00              ??          00h                                     
ram:0001e1d3    00              ??          00h                                     
ram:0001e1d4    02              ??          02h                                     
ram:0001e1d5    00              ??          00h                                     
ram:0001e1d6    03              ??          03h                                     
ram:0001e1d7    00              ??          00h                                     
ram:0001e1d8    91              ??          91h                                     ;?  ->  0001c091
ram:0001e1d9    c0              ??          C0h                                     
ram:0001e1da    01              ??          01h                                     
ram:0001e1db    00              ??          00h                                     
ram:0001e1dc    00              ??          00h                                     
ram:0001e1dd    00              ??          00h                                     
ram:0001e1de    00              ??          00h                                     
ram:0001e1df    00              ??          00h                                     
ram:0001e1e0    00              ??          00h                                     
ram:0001e1e1    00              ??          00h                                     
ram:0001e1e2    00              ??          00h                                     
ram:0001e1e3    00              ??          00h                                     
ram:0001e1e4    00              ??          00h                                     
ram:0001e1e5    00              ??          00h                                     
ram:0001e1e6    00              ??          00h                                     
ram:0001e1e7    00              ??          00h                                     
ram:0001e1e8    00              ??          00h                                     
ram:0001e1e9    00              ??          00h                                     
ram:0001e1ea    00              ??          00h                                     
ram:0001e1eb    00              ??          00h                                     
ram:0001e1ec    00              ??          00h                                     
ram:0001e1ed    00              ??          00h                                     
ram:0001e1ee    00              ??          00h                                     
ram:0001e1ef    00              ??          00h                                     
ram:0001e1f0    00              ??          00h                                     
ram:0001e1f1    00              ??          00h                                     
ram:0001e1f2    00              ??          00h                                     
ram:0001e1f3    00              ??          00h                                     
ram:0001e1f4    00              ??          00h                                     
ram:0001e1f5    00              ??          00h                                     
ram:0001e1f6    00              ??          00h                                     
ram:0001e1f7    00              ??          00h                                     
ram:0001e1f8    00              ??          00h                                     
ram:0001e1f9    00              ??          00h                                     
ram:0001e1fa    00              ??          00h                                     
ram:0001e1fb    00              ??          00h                                     
ram:0001e1fc    00              ??          00h                                     
ram:0001e1fd    00              ??          00h                                     
ram:0001e1fe    00              ??          00h                                     
ram:0001e1ff    00              ??          00h                                     
ram:0001e200    00              ??          00h                                     
ram:0001e201    00              ??          00h                                     
ram:0001e202    00              ??          00h                                     
ram:0001e203    00              ??          00h                                     
ram:0001e204    00              ??          00h                                     
ram:0001e205    00              ??          00h                                     
ram:0001e206    00              ??          00h                                     
ram:0001e207    00              ??          00h                                     
ram:0001e208    00              ??          00h                                     
ram:0001e209    00              ??          00h                                     
ram:0001e20a    00              ??          00h                                     
ram:0001e20b    00              ??          00h                                     
ram:0001e20c    00              ??          00h                                     
ram:0001e20d    00              ??          00h                                     
ram:0001e20e    00              ??          00h                                     
ram:0001e20f    00              ??          00h                                     
ram:0001e210    00              ??          00h                                     
ram:0001e211    00              ??          00h                                     
ram:0001e212    00              ??          00h                                     
ram:0001e213    00              ??          00h                                     
ram:0001e214    00              ??          00h                                     
ram:0001e215    00              ??          00h                                     
ram:0001e216    00              ??          00h                                     
ram:0001e217    00              ??          00h                                     
ram:0001e218    00              ??          00h                                     
ram:0001e219    00              ??          00h                                     
ram:0001e21a    00              ??          00h                                     
ram:0001e21b    00              ??          00h                                     
ram:0001e21c    00              ??          00h                                     
ram:0001e21d    00              ??          00h                                     
ram:0001e21e    00              ??          00h                                     
ram:0001e21f    00              ??          00h                                     
ram:0001e220    00              ??          00h                                     
ram:0001e221    00              ??          00h                                     
ram:0001e222    00              ??          00h                                     
ram:0001e223    00              ??          00h                                     
ram:0001e224    00              ??          00h                                     
ram:0001e225    00              ??          00h                                     
ram:0001e226    00              ??          00h                                     
ram:0001e227    00              ??          00h                                     
ram:0001e228    00              ??          00h                                     
ram:0001e229    00              ??          00h                                     
ram:0001e22a    00              ??          00h                                     
ram:0001e22b    00              ??          00h                                     
ram:0001e22c    00              ??          00h                                     
ram:0001e22d    00              ??          00h                                     
ram:0001e22e    00              ??          00h                                     
ram:0001e22f    00              ??          00h                                     
ram:0001e230    00              ??          00h                                     
ram:0001e231    00              ??          00h                                     
ram:0001e232    00              ??          00h                                     
ram:0001e233    00              ??          00h                                     
ram:0001e234    00              ??          00h                                     
ram:0001e235    00              ??          00h                                     
ram:0001e236    00              ??          00h                                     
ram:0001e237    00              ??          00h                                     
ram:0001e238    00              ??          00h                                     
ram:0001e239    00              ??          00h                                     
ram:0001e23a    00              ??          00h                                     
ram:0001e23b    00              ??          00h                                     
ram:0001e23c    00              ??          00h                                     
ram:0001e23d    00              ??          00h                                     
ram:0001e23e    00              ??          00h                                     
ram:0001e23f    00              ??          00h                                     
ram:0001e240    00              ??          00h                                     
ram:0001e241    00              ??          00h                                     
ram:0001e242    00              ??          00h                                     
ram:0001e243    00              ??          00h                                     
ram:0001e244    00              ??          00h                                     
ram:0001e245    00              ??          00h                                     
ram:0001e246    00              ??          00h                                     
ram:0001e247    00              ??          00h                                     
ram:0001e248    00              ??          00h                                     
ram:0001e249    48              ??          48h    H                                
ram:0001e24a    e8              ??          E8h                                     
ram:0001e24b    01              ??          01h                                     
