                            MasterStackPointer:           ;XREF[2,0]:   00019ac0,00019ac8
ram:00019000    00600020        addr        DAT_20006000                            
                            Reset:                        ;XREF[1,0]:   Entry Point
ram:00019004    e1920100        addr        FUNC_Reset_000192e0+1                   
                            NMI:                          ;XREF[1,0]:   Entry Point
ram:00019008    09930100        addr        FUNC_NMI_00019308+1                     
                            HardFault:                    ;XREF[1,0]:   Entry Point
ram:0001900c    0b930100        addr        FUNC_HardFault_0001930a+1               
                            MemManage:                    ;XREF[1,0]:   Entry Point
ram:00019010    0d930100        addr        FUNC_MemManage_0001930c+1               
                            BusFault:                     ;XREF[1,0]:   Entry Point
ram:00019014    0f930100        addr        FUNC_BusFault_0001930e+1                
                            UsageFault:                   ;XREF[1,0]:   Entry Point
ram:00019018    11930100        addr        FUNC_UsageFault_00019310+1              
                            Reserved1:                    ;XREF[1,0]:   Entry Point
ram:0001901c    00000000        addr        00000000                                
                            Reserved2:                    ;XREF[1,0]:   Entry Point
ram:00019020    00000000        addr        00000000                                
                            Reserved3:                    ;XREF[1,0]:   Entry Point
ram:00019024    00000000        addr        00000000                                
                            Reserved5:                    ;XREF[1,0]:   Entry Point
                            Reserved6:                    
                            Reserved4:                    
ram:00019028    00000000        addr        00000000                                
                            SVCall:                       ;XREF[1,0]:   Entry Point
ram:0001902c    13930100        addr        FUNC_SVCall_00019312+1                  
ram:00019030    15930100        addr        FUNC_VT_00019314+1                      
ram:00019034    00000000        addr        00000000                                
                            PendSV:                       ;XREF[1,0]:   Entry Point
ram:00019038    17930100        addr        FUNC_PendSV_00019316+1                  
                            SysTick:                      ;XREF[1,0]:   Entry Point
ram:0001903c    19930100        addr        FUNC_SysTick_00019318+1                 
                            IRQ:                          ;XREF[1,0]:   Entry Point
ram:00019040    1b930100        addr        FUNC_IRQ_0001931a+1                     
ram:00019044    1b930100        addr        FUNC_IRQ_0001931a+1                     
ram:00019048    1b930100        addr        FUNC_IRQ_0001931a+1                     
ram:0001904c    1b930100        addr        FUNC_IRQ_0001931a+1                     
ram:00019050    1b930100        addr        FUNC_IRQ_0001931a+1                     
ram:00019054    00000000        addr        00000000                                
ram:00019058    1b930100        addr        FUNC_IRQ_0001931a+1                     
ram:0001905c    d19b0100        addr        FUNC_VT_00019bd0+1                      
ram:00019060    1b930100        addr        FUNC_IRQ_0001931a+1                     
ram:00019064    65a10100        addr        FUNC_VT_0001a164+1                      
ram:00019068    1b930100        addr        FUNC_IRQ_0001931a+1                     
ram:0001906c    1b930100        addr        FUNC_IRQ_0001931a+1                     
ram:00019070    1b930100        addr        FUNC_IRQ_0001931a+1                     
ram:00019074    1b930100        addr        FUNC_IRQ_0001931a+1                     
ram:00019078    1b930100        addr        FUNC_IRQ_0001931a+1                     
ram:0001907c    1b930100        addr        FUNC_IRQ_0001931a+1                     
ram:00019080    1b930100        addr        FUNC_IRQ_0001931a+1                     
ram:00019084    09940100        addr        FUNC_VT_00019408+1                      
ram:00019088    1b930100        addr        FUNC_IRQ_0001931a+1                     
ram:0001908c    1b930100        addr        FUNC_IRQ_0001931a+1                     
ram:00019090    a5940100        addr        FUNC_VT_000194a4+1                      
ram:00019094    ada20100        addr        FUNC_VT_0001a2ac+1                      
ram:00019098    d9ba0100        addr        thunk_FUN_0001bab0+1                    
ram:0001909c    1b930100        addr        FUNC_IRQ_0001931a+1                     
ram:000190a0    1b930100        addr        FUNC_IRQ_0001931a+1                     
ram:000190a4    1b930100        addr        FUNC_IRQ_0001931a+1                     
ram:000190a8    00000000        addr        00000000                                
ram:000190ac    00000000        addr        00000000                                
ram:000190b0    1b930100        addr        FUNC_IRQ_0001931a+1                     
ram:000190b4    1b930100        addr        FUNC_IRQ_0001931a+1                     
ram:000190b8    00000000        addr        00000000                                
ram:000190bc    00000000        addr        00000000                                
ram:000190c0    00000000        addr        00000000                                
ram:000190c4    00000000        addr        00000000                                
ram:000190c8    00000000        addr        00000000                                
                            ;************************************************************************************************
                            ;*                                           FUNCTION                                           *
                            ;************************************************************************************************
                            ;undefined * LAB_00019200+1(undefined * param_1)
          ;param_1       undefined *         r0                      
                                                          ;XREF[0,1]:   0001d6c0
ram:00019200    10b5            push        {r4,lr}                                 
ram:00019202    054c            ldr         r4,[DAT_00019218]                       ;= 20001C90h
ram:00019204    2378            ldrb        r3,[r4,#0x0]=>DAT_20001c90              
ram:00019206    33b9            cbnz        r3,LAB_00019216                         
ram:00019208    044b            ldr         r3,[DAT_0001921c]                       
ram:0001920a    13b1            cbz         r3,LAB_00019212                         
ram:0001920c    0448            ldr         param_1=>DAT_0001d5d8,[PTR_DAT_00019220];= 0001d5d8
ram:0001920e    aff30080        nop.w                                                
                            LAB_00019212:                 ;XREF[1,0]:   0001920a
ram:00019212    0123            movs        r3,#0x1                                 
ram:00019214    2370            strb        r3,[r4,#0x0]=>DAT_20001c90              
                            LAB_00019216:                 ;XREF[1,0]:   00019206
ram:00019216    10bd            pop         {r4,pc}                                 
                            DAT_00019218:                 ;XREF[1,0]:   00019202
ram:00019218    901c0020        undefined4  20001C90h                               
                            DAT_0001921c:                 ;XREF[1,0]:   00019208
ram:0001921c    00000000        undefined4  00000000h                               
                            PTR_DAT_00019220:             ;XREF[1,0]:   0001920c
ram:00019220    d8d50100        addr        DAT_0001d5d8                            
                            ;************************************************************************************************
                            ;*                                           FUNCTION                                           *
                            ;************************************************************************************************
                            ;undefined LAB_00019224+1(void)
                                                          ;XREF[0,1]:   0001d6bc
ram:00019224    0c4b            ldr         r3,[DAT_00019258]                       
ram:00019226    43b1            cbz         r3,LAB_0001923a                         
ram:00019228    0c48            ldr         r0,[PTR_DAT_0001925c]                   ;= 0001d5d8
ram:0001922a    0d49            ldr         r1,[DAT_00019260]                       ;= 20001C94h
ram:0001922c    10b5            push        {r4,lr}                                 
ram:0001922e    aff30080        nop.w                                                
ram:00019232    0c48            ldr         r0=>DAT_20001c8c,[DAT_00019264]         ;= 20001C8Ch
ram:00019234    0368            ldr         r3,[r0,#0x0]=>DAT_20001c8c              
ram:00019236    23b9            cbnz        r3,LAB_00019242                         
                            LAB_00019238:                 ;XREF[1,0]:   00019246
ram:00019238    10bd            pop         {r4,pc}                                 
                            LAB_0001923a:                 ;XREF[1,0]:   00019226
ram:0001923a    0a48            ldr         r0=>DAT_20001c8c,[DAT_00019264]         ;= 20001C8Ch
ram:0001923c    0368            ldr         r3,[r0,#0x0]=>DAT_20001c8c              
ram:0001923e    33b9            cbnz        r3,LAB_0001924e                         
                            LAB_00019240:                 ;XREF[1,0]:   00019252
ram:00019240    7047            bx          lr                                      
                            LAB_00019242:                 ;XREF[1,0]:   00019236
ram:00019242    094b            ldr         r3,[DAT_00019268]                       
ram:00019244    002b            cmp         r3,#0x0                                 
ram:00019246    f7d0            beq         LAB_00019238                            
ram:00019248    bde81040        pop.w       {r4,lr}                                 
ram:0001924c    1847            bx          r3                                      
                            LAB_0001924e:                 ;XREF[1,0]:   0001923e
ram:0001924e    064b            ldr         r3,[DAT_00019268]                       
ram:00019250    002b            cmp         r3,#0x0                                 
ram:00019252    f5d0            beq         LAB_00019240                            
ram:00019254    1847            bx          r3                                      
ram:00019256    00bf            nop                                                  
                            DAT_00019258:                 ;XREF[1,0]:   00019224
ram:00019258    00000000        undefined4  00000000h                               
                            PTR_DAT_0001925c:             ;XREF[1,0]:   00019228
ram:0001925c    d8d50100        addr        DAT_0001d5d8                            
                            DAT_00019260:                 ;XREF[1,0]:   0001922a
ram:00019260    941c0020        undefined4  20001C94h                               
                            DAT_00019264:                 ;XREF[2,0]:   00019232,0001923a
ram:00019264    8c1c0020        undefined4  20001C8Ch                               
                            DAT_00019268:                 ;XREF[2,0]:   00019242,0001924e
ram:00019268    00000000        undefined4  00000000h                               
                            ;************************************************************************************************
                            ;*                                           FUNCTION                                           *
                            ;************************************************************************************************
                            ;undefined4 FUN_0001926c(void)
                                                          ;XREF[1,0]:   000192f6
ram:0001926c    154b            ldr         r3,[LAB_000192c4]                       
ram:0001926e    002b            cmp         r3,#0x0                                 
ram:00019270    08bf            it          eq                                      
ram:00019272    134b            ldr.eq      r3,[LAB_000192c0]                       
ram:00019274    9d46            mov         sp,r3                                   
ram:00019276    a3f5803a        sub.w       r10,r3,#0x10000                         
ram:0001927a    0021            movs        r1,#0x0                                 
ram:0001927c    8b46            mov         r11,r1                                  
ram:0001927e    0f46            mov         r7,r1                                   
ram:00019280    1348            ldr         r0=>DAT_20001c90,[LAB_000192d0]         
ram:00019282    144a            ldr         r2,[LAB_000192d4]                       
ram:00019284    121a            subs        r2,r2,r0                                
ram:00019286    03f0a8f9        bl          FUN_0001c5da                            ;undefined FUN_0001c5da(undefined * p...
ram:0001928a    0f4b            ldr         r3,[LAB_000192c8]                       
ram:0001928c    002b            cmp         r3,#0x0                                 
ram:0001928e    00d0            beq         LAB_00019292                            
ram:00019290    9847            blx         r3                                      
                            LAB_00019292:                 ;XREF[1,0]:   0001928e
ram:00019292    0e4b            ldr         r3,[LAB_000192cc]                       
ram:00019294    002b            cmp         r3,#0x0                                 
ram:00019296    00d0            beq         LAB_0001929a                            
ram:00019298    9847            blx         r3                                      
                            LAB_0001929a:                 ;XREF[1,0]:   00019296
ram:0001929a    0020            movs        r0,#0x0                                 
ram:0001929c    0021            movs        r1,#0x0                                 
ram:0001929e    0400            movs        r4,r0                                   
ram:000192a0    0d00            movs        r5,r1                                   
ram:000192a2    0d48            ldr         r0,[LAB_000192d8]                       
ram:000192a4    0028            cmp         r0,#0x0                                 
ram:000192a6    02d0            beq         LAB_000192ae                            
ram:000192a8    0c48            ldr         r0,[LAB_000192dc]                       
ram:000192aa    aff30080        nop.w                                                
                            LAB_000192ae:                 ;XREF[1,0]:   000192a6
ram:000192ae    03f065f9        bl          FUN_0001c57c                            ;undefined FUN_0001c57c(void)
ram:000192b2    2000            movs        r0,r4                                   
ram:000192b4    2900            movs        r1,r5                                   
ram:000192b6    03f015f8        bl          FUN_0001c2e4                            ;undefined FUN_0001c2e4(undefined4 pa...
ram:000192ba    03f04bf9        bl          FUN_0001c554                            ;undefined FUN_0001c554(undefined4 pa...
ram:000192be    00bf            nop                                                  
                            LAB_000192c0:                 ;XREF[1,0]:   00019272
ram:000192c0    0000            movs        r0,r0                                   
ram:000192c2    0800            movs        r0,r1                                   
                            LAB_000192c4:                 ;XREF[1,0]:   0001926c
ram:000192c4    0060            str         r0,[r0,#0x0]                            
ram:000192c6    0020            movs        r0,#0x0                                 
                            LAB_000192c8:                 ;XREF[1,0]:   0001928a
ram:000192c8    0000            movs        r0,r0                                   
ram:000192ca    0000            movs        r0,r0                                   
                            LAB_000192cc:                 ;XREF[1,0]:   00019292
ram:000192cc    0000            movs        r0,r0                                   
ram:000192ce    0000            movs        r0,r0                                   
                            LAB_000192d0:                 ;XREF[1,0]:   00019280
ram:000192d0    901c            adds        r0,r2,#0x2                              
ram:000192d2    0020            movs        r0,#0x0                                 
                            LAB_000192d4:                 ;XREF[1,0]:   00019282
ram:000192d4    f820            movs        r0,#0xf8                                
ram:000192d6    0020            movs        r0,#0x0                                 
                            LAB_000192d8:                 ;XREF[1,0]:   000192a2
ram:000192d8    0000            movs        r0,r0                                   
ram:000192da    0000            movs        r0,r0                                   
                            LAB_000192dc:                 ;XREF[1,0]:   000192a8
ram:000192dc    0000            movs        r0,r0                                   
ram:000192de    0000            movs        r0,r0                                   
                            ;************************************************************************************************
                            ;*                                           FUNCTION                                           *
                            ;************************************************************************************************
                            ;undefined FUNC_Reset_000192e0(void)
                                                          ;XREF[0,1]:   00019004
ram:000192e0    0649            ldr         r1=>DAT_0001d650,[LAB_000192fc]         
ram:000192e2    074a            ldr         r2=>DAT_20001c18,[LAB_00019300]         
ram:000192e4    074b            ldr         r3,[LAB_00019304]                       
ram:000192e6    9b1a            subs        r3,r3,r2                                
ram:000192e8    03dd            ble         LAB_000192f2                            
                            LAB_000192ea:                 ;XREF[1,0]:   000192f0
ram:000192ea    043b            subs        r3,#0x4                                 
                                                          ; FWD[2,0]:   0001d6c0,0001d6c4
ram:000192ec    c858            ldr         r0,[r1,r3]=>DAT_0001d6c4                ;= 00019201
                                                          ; FWD[2,0]:   20001c88,20001c8c
ram:000192ee    d050            str         r0,[r2,r3]=>DAT_20001c8c                
ram:000192f0    fbdc            bgt         LAB_000192ea                            
                            LAB_000192f2:                 ;XREF[1,0]:   000192e8
ram:000192f2    00f0ebfb        bl          FUN_00019acc                            ;undefined FUN_00019acc(void)
ram:000192f6    fff7b9ff        bl          FUN_0001926c                            ;undefined4 FUN_0001926c(void)
ram:000192fa    0000            movs        r0,r0                                   
                            LAB_000192fc:                 ;XREF[1,0]:   000192e0
ram:000192fc    50d6            bvs         LAB_000193a0                            
ram:000192fe    0100            movs        r1,r0                                   
                            LAB_00019300:                 ;XREF[1,0]:   000192e2
ram:00019300    181c            adds        r0,r3,#0x0                              
ram:00019302    0020            movs        r0,#0x0                                 
                            LAB_00019304:                 ;XREF[1,0]:   000192e4
ram:00019304    901c            adds        r0,r2,#0x2                              
ram:00019306    0020            movs        r0,#0x0                                 
                            ;************************************************************************************************
                            ;*                                           FUNCTION                                           *
                            ;************************************************************************************************
                            ;undefined FUNC_NMI_00019308(void)
                                                          ;XREF[1,1]:   00019308,00019008
ram:00019308    fee7            b           FUNC_NMI_00019308                       
                            ;************************************************************************************************
                            ;*                                           FUNCTION                                           *
                            ;************************************************************************************************
                            ;undefined FUNC_HardFault_0001930a(void)
                                                          ;XREF[1,1]:   0001930a,0001900c
ram:0001930a    fee7            b           FUNC_HardFault_0001930a                 
                            ;************************************************************************************************
                            ;*                                           FUNCTION                                           *
                            ;************************************************************************************************
                            ;undefined FUNC_MemManage_0001930c(void)
                                                          ;XREF[1,1]:   0001930c,00019010
ram:0001930c    fee7            b           FUNC_MemManage_0001930c                 
                            ;************************************************************************************************
                            ;*                                           FUNCTION                                           *
                            ;************************************************************************************************
                            ;undefined FUNC_BusFault_0001930e(void)
                                                          ;XREF[1,1]:   0001930e,00019014
ram:0001930e    fee7            b           FUNC_BusFault_0001930e                  
                            ;************************************************************************************************
                            ;*                                           FUNCTION                                           *
                            ;************************************************************************************************
                            ;undefined FUNC_UsageFault_00019310(void)
                                                          ;XREF[1,1]:   00019310,00019018
ram:00019310    fee7            b           FUNC_UsageFault_00019310                
                            ;************************************************************************************************
                            ;*                                           FUNCTION                                           *
                            ;************************************************************************************************
                            ;undefined FUNC_SVCall_00019312(void)
                                                          ;XREF[1,1]:   00019312,0001902c
ram:00019312    fee7            b           FUNC_SVCall_00019312                    
                            ;************************************************************************************************
                            ;*                                           FUNCTION                                           *
                            ;************************************************************************************************
                            ;undefined FUNC_VT_00019314(void)
                                                          ;XREF[1,1]:   00019314,00019030
ram:00019314    fee7            b           FUNC_VT_00019314                        
                            ;************************************************************************************************
                            ;*                                           FUNCTION                                           *
                            ;************************************************************************************************
                            ;undefined FUNC_PendSV_00019316(void)
                                                          ;XREF[1,1]:   00019316,00019038
ram:00019316    fee7            b           FUNC_PendSV_00019316                    
                            ;************************************************************************************************
                            ;*                                           FUNCTION                                           *
                            ;************************************************************************************************
                            ;undefined FUNC_SysTick_00019318(void)
                                                          ;XREF[1,1]:   00019318,0001903c
ram:00019318    fee7            b           FUNC_SysTick_00019318                   
                            ;************************************************************************************************
                            ;*                                           FUNCTION                                           *
                            ;************************************************************************************************
                            ;undefined FUNC_IRQ_0001931a(void)
                                                          ;XREF[1,21]:  0001931a,00019040,00019044,00019048
                                                          ;             0001904c,00019050,00019058,00019060
                                                          ;             00019068,0001906c,00019070,00019074
                                                          ;             00019078,0001907c,00019080,00019088
                                                          ;             0001908c,0001909c,000190a0,000190a4
                                                          ;             000190b0,000190b4
ram:0001931a    fee7            b           FUNC_IRQ_0001931a                       
                            ;************************************************************************************************
                            ;*                                           FUNCTION                                           *
                            ;************************************************************************************************
                            ;undefined FUN_0001931c(void)
          ;local_c       undefined4          -c                      ;XREF[1,0]:   00019320
          ;local_10      undefined4         -10                      ;XREF[1,0]:   0001932a
          ;local_14      undefined4         -14                      ;XREF[1,0]:   00019328
                                                          ;XREF[35,0]:  0001aee6,0001b3f0,0001b3f8,0001ba04
                                                          ;             0001bb28,0001be72,0001bf1a,0001bf8e
                                                          ;             0001bfc8,0001c0e6,0001c124,0001c13a
                                                          ;             0001c148,0001c21c,0001c240,0001c24e
                                                          ;             0001c294,0001c2b6,0001c2f0,0001c2fa
                                                          ;             0001c304,0001c30e,0001c324,0001c330
                                                          ;             0001c39c,0001c3cc,0001c3da,0001c420
                                                          ;             0001c440,0001c450,0001c494,0001c4a2
                                                          ;             0001c4de,0001c4ec,0001c4f8
ram:0001931c    1fb5            push        {r0,r1,r2,r3,r4,lr}                     
ram:0001931e    0021            movs        r1,#0x0                                 
ram:00019320    0390            str         r0,[sp,#local_c+0x18]                   
ram:00019322    01aa            add         r2,sp,#0x4                              
ram:00019324    44f20100        movw        r0,#0x4001                              
ram:00019328    0191            str         r1,[sp,#local_14+0x18]                  
ram:0001932a    0291            str         r1,[sp,#local_10+0x18]                  
ram:0001932c    02f06efe        bl          FUN_0001c00c                            ;undefined FUN_0001c00c(void)
ram:00019330    05b0            add         sp,#0x14                                
ram:00019332    5df804fb        pop.w       pc                                      
                            ;************************************************************************************************
                            ;*                                           FUNCTION                                           *
                            ;************************************************************************************************
                            ;char * FUN_00019338(char * param_1)
          ;param_1       char *              r0                      
                                                          ;XREF[1,0]:   00019804
ram:00019338    094a            ldr         r2,[DAT_00019360]                       ;= 20001CACh
ram:0001933a    5378            ldrb        r3,[r2,#0x1]=>DAT_20001cad              
ram:0001933c    9178            ldrb        r1,[r2,#0x2]=>DAT_20001cae              
ram:0001933e    0133            adds        r3,#0x1                                 
ram:00019340    dbb2            uxtb        r3,r3                                   
ram:00019342    9942            cmp         r1,r3                                   
ram:00019344    08bf            it          eq                                      
ram:00019346    0023            mov.eq      r3,#0x0                                 
ram:00019348    1178            ldrb        r1,[r2,#0x0]=>DAT_20001cac              
ram:0001934a    9942            cmp         r1,r3                                   
ram:0001934c    1fbf            itttt       ne                                      
ram:0001934e    0370            strb.ne     r3,[param_1,#0x0]                       
ram:00019350    5078            ldrb.ne     param_1,[r2,#0x1]                       
ram:00019352    1823            mov.ne      r3,#0x18                                
ram:00019354    03fb0020        mla.ne      param_1,r3,param_1,r2                   
ram:00019358    14bf            ite         ne                                      
ram:0001935a    0430            add.ne      param_1,#0x4                            
ram:0001935c    0020            mov.eq      param_1,#0x0                            
ram:0001935e    7047            bx          lr                                      
                            DAT_00019360:                 ;XREF[1,0]:   00019338
ram:00019360    ac1c0020        undefined4  20001CACh                               
                            ;************************************************************************************************
                            ;*                                           FUNCTION                                           *
                            ;************************************************************************************************
                            ;undefined FUN_0001938c(undefined param_1, undefined param_2, undefined param_3, undefined param_4, undefined param_5, undefined param_6, undefined param_7, undefined param_8, undefined param_9, undefined param_10, undefined1 param_11)
          ;param_1       undefined           r0                      
          ;param_2       undefined           r1                      
          ;param_3       undefined           r2                      
          ;param_4       undefined           r3                      
          ;param_5       undefined            0                      
          ;param_6       undefined            4                      
          ;param_7       undefined            8                      
          ;param_8       undefined            c                      
          ;param_9       undefined           10                      
          ;param_10      undefined           14                      
          ;param_11      undefined1           7                      ;XREF[1,0]:   0001938c
                                                          ;XREF[1,0]:   000193a8
ram:0001938c    9df80700        ldrb.w      param_1,[sp,#param_11]                  
ram:00019390    00f09cfa        bl          FUN_000198cc                            ;undefined FUN_000198cc(int param_1)
ram:00019394    24b9            cbnz        r4,LAB_000193a0                         
ram:00019396    064b            ldr         param_4,[DAT_000193b0]                  ;= E000E100h
ram:00019398    4ff48012        mov.w       param_3,#0x100000                       
ram:0001939c    c3f80021        str.w       param_3,[param_4,#0x100]=>DAT_e000e200  
                            LAB_000193a0:                 ;XREF[2,0]:   000192fc,00019394
ram:000193a0    2046            mov         r0,r4                                   
ram:000193a2    02b0            add         sp,#0x8                                 
                                                          ; FWD[4,0]:   00080008,0008000c,00080010,00080014
ram:000193a4    70bd            pop         {r4,r5,r6,pc}=>DAT_00080008             
ram:000193a6    0424            movs        r4,#0x4                                 
ram:000193a8    f0e7            b           FUN_0001938c                            ;undefined FUN_0001938c(undefined par...
ram:000193aa    00bf            nop                                                  
ram:000193ac    ac1c            adds        r4,r5,#0x2                              
ram:000193ae    0020            movs        r0,#0x0                                 
                            DAT_000193b0:                 ;XREF[1,0]:   00019396
ram:000193b0    00e100e0        undefined4  E000E100h                               
                            ;************************************************************************************************
                            ;*                                           FUNCTION                                           *
                            ;************************************************************************************************
                            ;undefined FUN_000193b4(void)
                                                          ;XREF[5,0]:   000193e2,000193ee,00019632,00019668
                                                          ;             000196fa
ram:000193b4    024b            ldr         r3,[DAT_000193c0]                       ;= 0001D500h
ram:000193b6    4ff43c60        mov.w       r0,#0xbc0                               
ram:000193ba    43f00103        orr         r3,r3,#0x1                              
ram:000193be    1847            bx          r3=>LAB_0001d500                        
                            DAT_000193c0:                 ;XREF[1,0]:   000193b4
ram:000193c0    00d50100        undefined4  0001D500h                               ;?  ->  0001d500
                            ;************************************************************************************************
                            ;*                                           FUNCTION                                           *
                            ;************************************************************************************************
                            ;undefined FUN_000193c4(void)
                                                          ;XREF[2,0]:   000196da,0001974a
ram:000193c4    38b5            push        {r3,r4,r5,lr}                           
ram:000193c6    0c4b            ldr         r3,[DAT_000193f8]                       ;= E000E100h
ram:000193c8    0c4c            ldr         r4,[DAT_000193fc]                       ;= 40011000h
ram:000193ca    4ff40032        mov.w       r2,#0x20000                             
ram:000193ce    c3f88020        str.w       r2,[r3,#offset DAT_e000e180 &0xff]      
ram:000193d2    0125            movs        r5,#0x1                                 
ram:000193d4    4ff48033        mov.w       r3,#0x10000                             
ram:000193d8    c4f84833        str.w       r3,[r4,#0x348]=>DAT_40011348            
ram:000193dc    c4f80833        str.w       r3,[r4,#0x308]=>DAT_40011308            
ram:000193e0    6560            str         r5,[r4,#offset DAT_40011004 &0xff]      
ram:000193e2    fff7e7ff        bl          FUN_000193b4                            ;undefined FUN_000193b4(void)
ram:000193e6    064b            ldr         r3=>DAT_20001dc8,[DAT_00019400]         ;= 20001DC8h
ram:000193e8    a560            str         r5,[r4,#offset DAT_40011008 &0xff]      
ram:000193ea    0024            movs        r4,#0x0                                 
ram:000193ec    1c60            str         r4,[r3,#0x0]=>DAT_20001dc8              
ram:000193ee    fff7e1ff        bl          FUN_000193b4                            ;undefined FUN_000193b4(void)
ram:000193f2    044b            ldr         r3,[DAT_00019404]                       ;= 20001DB9h
ram:000193f4    1c70            strb        r4,[r3,#0x0]=>DAT_20001db9              
ram:000193f6    38bd            pop         {r3,r4,r5,pc}                           
                            DAT_000193f8:                 ;XREF[1,0]:   000193c6
ram:000193f8    00e100e0        undefined4  E000E100h                               
                            DAT_000193fc:                 ;XREF[1,0]:   000193c8
ram:000193fc    00100140        undefined4  40011000h                               
                            DAT_00019400:                 ;XREF[1,0]:   000193e6
ram:00019400    c81d0020        undefined4  20001DC8h                               
                            DAT_00019404:                 ;XREF[1,0]:   000193f2
ram:00019404    b91d0020        undefined4  20001DB9h                               
                            ;************************************************************************************************
                            ;*                                           FUNCTION                                           *
                            ;************************************************************************************************
                            ;undefined FUNC_VT_00019408(void)
                                                          ;XREF[0,1]:   00019084
ram:00019408    f8b5            push        {r3,r4,r5,r6,r7,lr}                     
ram:0001940a    1f49            ldr         r1,[DAT_00019488]                       ;= 40011000h
ram:0001940c    1f4b            ldr         r3,[DAT_0001948c]                       ;= 20001DCCh
ram:0001940e    0025            movs        r5,#0x0                                 
ram:00019410    c1f84051        str.w       r5,[r1,#0x140]=>DAT_40011140            
ram:00019414    c1f84451        str.w       r5,[r1,#0x144]=>DAT_40011144            
ram:00019418    c1f84851        str.w       r5,[r1,#0x148]=>DAT_40011148            
ram:0001941c    c1f84c51        str.w       r5,[r1,#0x14c]=>DAT_4001114c            
ram:00019420    c1f80051        str.w       r5,[r1,#0x100]=>DAT_40011100            
ram:00019424    c1f80451        str.w       r5,[r1,#0x104]=>DAT_40011104            
ram:00019428    1b68            ldr         r3,[r3,#0x0]=>DAT_20001dcc              
ram:0001942a    4bb3            cbz         r3,LAB_00019480                         
ram:0001942c    d1f80445        ldr.w       r4,[r1,#0x504]=>DAT_40011504            
ram:00019430    1749            ldr         r1,[DAT_00019490]                       ;= 20001DC8h
ram:00019432    0968            ldr         r1,[r1,#0x0]=>DAT_20001dc8              
ram:00019434    641a            subs        r4,r4,r1                                
ram:00019436    24f07f44        bic         r4,r4,#0xff000000                       
ram:0001943a    2f46            mov         r7,r5                                   
                            LAB_0001943c:                 ;XREF[1,0]:   00019484
ram:0001943c    1a68            ldr         r2,[r3,#0x0]                            
ram:0001943e    a242            cmp         r2,r4                                   
ram:00019440    09d8            bhi         LAB_00019456                            
ram:00019442    a41a            subs        r4,r4,r2                                
ram:00019444    1544            add         r5,r2                                   
ram:00019446    1a7c            ldrb        r2,[r3,#0x10]                           
ram:00019448    de69            ldr         r6,[r3,#0x1c]                           
ram:0001944a    1ab1            cbz         r2,LAB_00019454                         
ram:0001944c    1f74            strb        r7,[r3,#0x10]                           
ram:0001944e    5a69            ldr         r2,[r3,#0x14]                           
ram:00019450    9869            ldr         r0,[r3,#0x18]                           
ram:00019452    9047            blx         r2                                      
                            LAB_00019454:                 ;XREF[1,0]:   0001944a
ram:00019454    aeb9            cbnz        r6,LAB_00019482                         
                            LAB_00019456:                 ;XREF[1,0]:   00019440
ram:00019456    0f4b            ldr         r3,[DAT_00019494]                       ;= 20001DC4h
ram:00019458    0f4a            ldr         r2,[DAT_00019498]                       ;= 20001DC5h
ram:0001945a    1978            ldrb        r1,[r3,#0x0]=>DAT_20001dc4              
ram:0001945c    1378            ldrb        r3,[r2,#0x0]=>DAT_20001dc5              
ram:0001945e    8b42            cmp         r3,r1                                   
ram:00019460    05d1            bne         LAB_0001946e                            
ram:00019462    0133            adds        r3,#0x1                                 
ram:00019464    dbb2            uxtb        r3,r3                                   
ram:00019466    022b            cmp         r3,#0x2                                 
ram:00019468    08bf            it          eq                                      
ram:0001946a    0023            mov.eq      r3,#0x0                                 
ram:0001946c    1370            strb        r3,[r2,#0x0]=>DAT_20001dc5              
                            LAB_0001946e:                 ;XREF[1,0]:   00019460
ram:0001946e    1278            ldrb        r2,[r2,#0x0]=>DAT_20001dc5              
ram:00019470    0a4b            ldr         r3,[DAT_0001949c]                       ;= 20001DBCh
ram:00019472    43f82250        str.w       r5,r3,r2,0x2                            
ram:00019476    0a4b            ldr         r3,[DAT_000194a0]                       ;= E000E100h
ram:00019478    4ff48012        mov.w       r2,#0x100000                            
ram:0001947c    c3f80021        str.w       r2,[r3,#0x100]=>DAT_e000e200            
                            LAB_00019480:                 ;XREF[1,0]:   0001942a
ram:00019480    f8bd            pop         {r3,r4,r5,r6,r7,pc}                     
                            LAB_00019482:                 ;XREF[1,0]:   00019454
ram:00019482    3346            mov         r3,r6                                   
ram:00019484    dae7            b           LAB_0001943c                            
ram:00019486    00bf            nop                                                  
                            DAT_00019488:                 ;XREF[1,0]:   0001940a
ram:00019488    00100140        undefined4  40011000h                               
                            DAT_0001948c:                 ;XREF[1,0]:   0001940c
ram:0001948c    cc1d0020        undefined4  20001DCCh                               
                            DAT_00019490:                 ;XREF[1,0]:   00019430
ram:00019490    c81d0020        undefined4  20001DC8h                               
                            DAT_00019494:                 ;XREF[1,0]:   00019456
ram:00019494    c41d0020        undefined4  20001DC4h                               
                            DAT_00019498:                 ;XREF[1,0]:   00019458
ram:00019498    c51d0020        undefined4  20001DC5h                               
                            DAT_0001949c:                 ;XREF[1,0]:   00019470
ram:0001949c    bc1d0020        undefined4  20001DBCh                               
                            DAT_000194a0:                 ;XREF[1,0]:   00019476
ram:000194a0    00e100e0        undefined4  E000E100h                               
                            ;************************************************************************************************
                            ;*                                           FUNCTION                                           *
                            ;************************************************************************************************
                            ;undefined FUNC_VT_000194a4(void)
          ;local_2c      undefined4         -2c                      ;XREF[2,0]:   000196ec,000196fe
          ;local_30      undefined4         -30                      ;XREF[2,0]:   00019502,000195e0
                                                          ;XREF[0,1]:   00019090
ram:000194a4    2de9f74f        push        {r0,r1,r2,r4,r5,r6,r7,r8,r9,r10,r11,lr} 
ram:000194a8    9c4a            ldr         r2,[DAT_0001971c]                       ;= 20001DC4h
ram:000194aa    9d49            ldr         r1,[DAT_00019720]                       ;= 20001DC5h
ram:000194ac    1378            ldrb        r3,[r2,#0x0]=>DAT_20001dc4              
ram:000194ae    0978            ldrb        r1,[r1,#0x0]=>DAT_20001dc5              
ram:000194b0    9c4e            ldr         r6,[DAT_00019724]                       ;= 20001DCCh
ram:000194b2    9942            cmp         r1,r3                                   
ram:000194b4    57d0            beq         LAB_00019566                            
ram:000194b6    0133            adds        r3,#0x1                                 
ram:000194b8    dbb2            uxtb        r3,r3                                   
ram:000194ba    022b            cmp         r3,#0x2                                 
ram:000194bc    08bf            it          eq                                      
ram:000194be    0023            mov.eq      r3,#0x0                                 
ram:000194c0    1370            strb        r3,[r2,#0x0]=>DAT_20001dc4              
ram:000194c2    9949            ldr         r1=>DAT_20001dc8,[DAT_00019728]         ;= 20001DC8h
ram:000194c4    1278            ldrb        r2,[r2,#0x0]=>DAT_20001dc4              
ram:000194c6    994b            ldr         r3,[DAT_0001972c]                       ;= 20001DBCh
ram:000194c8    0f68            ldr         r7,[r1,#0x0]=>DAT_20001dc8              
ram:000194ca    53f82200        ldr.w       r0,r3,r2,0x2                            
ram:000194ce    3b18            adds        r3,r7,r0                                
ram:000194d0    23f07f43        bic         r3,r3,#0xff000000                       
ram:000194d4    0022            movs        r2,#0x0                                 
ram:000194d6    0b60            str         r3,[r1,#0x0]=>DAT_20001dc8              
ram:000194d8    3368            ldr         r3,[r6,#0x0]=>DAT_20001dcc              
ram:000194da    1546            mov         r5,r2                                   
ram:000194dc    1446            mov         r4,r2                                   
ram:000194de    9646            mov         lr,r2                                   
                            LAB_000194e0:                 ;XREF[1,0]:   00019564
ram:000194e0    13b9            cbnz        r3,LAB_000194e8                         
ram:000194e2    42b1            cbz         r2,LAB_000194f6                         
ram:000194e4    3360            str         r3,[r6,#0x0]=>DAT_20001dcc              
ram:000194e6    06e0            b           LAB_000194f6                            
                            LAB_000194e8:                 ;XREF[1,0]:   000194e0
ram:000194e8    1968            ldr         r1,[r3,#0x0]                            
ram:000194ea    8142            cmp         r1,r0                                   
ram:000194ec    29d9            bls         LAB_00019542                            
ram:000194ee    02b1            cbz         r2,LAB_000194f2                         
ram:000194f0    3360            str         r3,[r6,#0x0]=>DAT_20001dcc              
                            LAB_000194f2:                 ;XREF[1,0]:   000194ee
ram:000194f2    091a            subs        r1,r1,r0                                
ram:000194f4    1960            str         r1,[r3,#0x0]                            
                            LAB_000194f6:                 ;XREF[2,0]:   000194e2,000194e6
ram:000194f6    4ff00108        mov.w       r8,#0x1                                 
                            LAB_000194fa:                 ;XREF[1,0]:   0001956a
ram:000194fa    3368            ldr         r3,[r6,#0x0]=>DAT_20001dcc              
ram:000194fc    8c4f            ldr         r7,[DAT_00019730]                       ;= 20001CACh
ram:000194fe    dff83cb2        ldr.w       r11,[DAT_0001973c]                      ;= 40011000h
ram:00019502    0093            str         r3,[sp,#0x0]=>local_30                  
ram:00019504    4ff00009        mov.w       r9,#0x0                                 
                            LAB_00019508:                 ;XREF[2,0]:   00019540,000196c2
ram:00019508    002d            cmp         r5,#0x0                                 
ram:0001950a    61d0            beq         LAB_000195d0                            
ram:0001950c    2c46            mov         r4,r5                                   
ram:0001950e    ed69            ldr         r5,[r5,#DAT_0000001c]                   
                            LAB_00019510:                 ;XREF[2,0]:   000195ac,000195b0
ram:00019510    854b            ldr         r3,[DAT_00019728]                       ;= 20001DC8h
ram:00019512    6068            ldr         r0,[r4,#DAT_00000004]                   
ram:00019514    1a68            ldr         r2,[r3,#0x0]=>DAT_20001dc8              
ram:00019516    831a            subs        r3,r0,r2                                
ram:00019518    23f07f41        bic         r1,r3,#0xff000000                       
ram:0001951c    854b            ldr         r3,[DAT_00019734]                       ;= 007FFFFEh
ram:0001951e    9942            cmp         r1,r3                                   
ram:00019520    a368            ldr         r3,[r4,#DAT_00000008]                   
ram:00019522    00f2b780        bhi.w       LAB_00019694                            
ram:00019526    0b44            add         r3,r1                                   
                            LAB_00019528:                 ;XREF[1,0]:   000196a2
ram:00019528    2360            str         r3,[r4,#0x0]                            
ram:0001952a    0023            movs        r3,#0x0                                 
ram:0001952c    6360            str         r3,[r4,#DAT_00000004]                   
ram:0001952e    a360            str         r3,[r4,#DAT_00000008]                   
ram:00019530    e361            str         r3,[r4,#DAT_0000001c]                   
ram:00019532    3368            ldr         r3,[r6,#0x0]=>DAT_20001dcc              
ram:00019534    0122            movs        r2,#0x1                                 
ram:00019536    2274            strb        r2,[r4,#DAT_00000010]                   
ram:00019538    002b            cmp         r3,#0x0                                 
ram:0001953a    40f0b380        bne.w       LAB_000196a4                            
                            LAB_0001953e:                 ;XREF[1,0]:   000196b2
ram:0001953e    3460            str         r4,[r6,#0x0]=>DAT_20001dcc              
ram:00019540    e2e7            b           LAB_00019508                            
                            LAB_00019542:                 ;XREF[1,0]:   000194ec
ram:00019542    401a            subs        r0,r0,r1                                
ram:00019544    0c44            add         r4,r1                                   
ram:00019546    d968            ldr         r1,[r3,#0xc]                            
ram:00019548    c3f800e0        str.w       lr,[r3,#0x0]                            
ram:0001954c    d3f81cc0        ldr.w       r12,[r3,#0x1c]                          
ram:00019550    31b1            cbz         r1,LAB_00019560                         
ram:00019552    3a19            adds        r2,r7,r4                                
ram:00019554    22f07f42        bic         r2,r2,#0xff000000                       
ram:00019558    dd61            str         r5,[r3,#0x1c]                           
ram:0001955a    5a60            str         r2,[r3,#0x4]                            
ram:0001955c    9960            str         r1,[r3,#0x8]                            
ram:0001955e    1d46            mov         r5,r3                                   
                            LAB_00019560:                 ;XREF[1,0]:   00019550
ram:00019560    6346            mov         r3,r12                                  
ram:00019562    0122            movs        r2,#0x1                                 
ram:00019564    bce7            b           LAB_000194e0                            
                            LAB_00019566:                 ;XREF[1,0]:   000194b4
ram:00019566    0025            movs        r5,#0x0                                 
ram:00019568    a846            mov         r8,r5                                   
ram:0001956a    c6e7            b           LAB_000194fa                            
                            LAB_0001956c:                 ;XREF[1,0]:   000195d6
ram:0001956c    531c            adds        r3,r2,#0x1                              
ram:0001956e    b978            ldrb        r1,[r7,#0x2]=>DAT_20001cae              
ram:00019570    dbb2            uxtb        r3,r3                                   
ram:00019572    9942            cmp         r1,r3                                   
ram:00019574    3b70            strb        r3,[r7,#0x0]=>DAT_20001cac              
ram:00019576    4ff01803        mov.w       r3,#0x18                                
ram:0001957a    03fb0272        mla         r2,r3,r2,r7                             
ram:0001957e    08bf            it          eq                                      
ram:00019580    3d70            strb.eq     r5,[r7,#0x0]=>DAT_20001cac              
ram:00019582    1379            ldrb        r3,[r2,#0x4]                            
ram:00019584    9468            ldr         r4,[r2,#0x8]                            
ram:00019586    022b            cmp         r3,#0x2                                 
ram:00019588    1bd0            beq         LAB_000195c2                            
ram:0001958a    032b            cmp         r3,#0x3                                 
ram:0001958c    11d0            beq         LAB_000195b2                            
ram:0001958e    012b            cmp         r3,#0x1                                 
ram:00019590    1ed1            bne         LAB_000195d0                            
ram:00019592    217c            ldrb        r1,[r4,#0x10]                           
ram:00019594    e1b9            cbnz        r1,LAB_000195d0                         
ram:00019596    d368            ldr         r3,[r2,#0xc]                            
ram:00019598    6360            str         r3,[r4,#0x4]                            
ram:0001959a    1369            ldr         r3,[r2,#0x10]                           
ram:0001959c    a360            str         r3,[r4,#0x8]                            
ram:0001959e    5369            ldr         r3,[r2,#0x14]                           
ram:000195a0    e360            str         r3,[r4,#0xc]                            
ram:000195a2    9369            ldr         r3,[r2,#0x18]                           
ram:000195a4    a361            str         r3,[r4,#0x18]                           
ram:000195a6    644b            ldr         r3,[DAT_00019738]                       ;= 20001DB8h
ram:000195a8    1b78            ldrb        r3,[r3,#0x0]=>DAT_20001db8              
ram:000195aa    002b            cmp         r3,#0x0                                 
ram:000195ac    b0d0            beq         LAB_00019510                            
ram:000195ae    6160            str         r1,[r4,#0x4]                            
ram:000195b0    aee7            b           LAB_00019510                            
                            LAB_000195b2:                 ;XREF[1,0]:   0001958c
ram:000195b2    0023            movs        r3,#0x0                                 
ram:000195b4    3568            ldr         r5,[r6,#0x0]=>DAT_20001dcc              
ram:000195b6    1a46            mov         r2,r3                                   
                            LAB_000195b8:                 ;XREF[1,0]:   00019692
ram:000195b8    002d            cmp         r5,#0x0                                 
ram:000195ba    67d1            bne         LAB_0001968c                            
ram:000195bc    43b1            cbz         r3,LAB_000195d0                         
ram:000195be    3560            str         r5,[r6,#0x0]=>DAT_20001dcc              
ram:000195c0    06e0            b           LAB_000195d0                            
                            LAB_000195c2:                 ;XREF[1,0]:   00019588
ram:000195c2    3268            ldr         r2,[r6,#0x0]=>DAT_20001dcc              
ram:000195c4    1346            mov         r3,r2                                   
ram:000195c6    9246            mov         r10,r2                                  
                            LAB_000195c8:                 ;XREF[1,0]:   0001968a
ram:000195c8    002b            cmp         r3,#0x0                                 
ram:000195ca    5ad1            bne         LAB_00019682                            
                            LAB_000195cc:                 ;XREF[1,0]:   0001971a
ram:000195cc    0023            movs        r3,#0x0                                 
ram:000195ce    2374            strb        r3,[r4,#0x10]                           
                            LAB_000195d0:                 ;XREF[5,0]:   0001950a,00019590,00019594,000195bc
                                                          ;             000195c0
ram:000195d0    3a78            ldrb        r2,[r7,#0x0]=>DAT_20001cac              
ram:000195d2    7b78            ldrb        r3,[r7,#0x1]=>DAT_20001cad              
ram:000195d4    9342            cmp         r3,r2                                   
ram:000195d6    c9d1            bne         LAB_0001956c                            
ram:000195d8    b9f1000f        cmp.w       r9,#0x0                                 
ram:000195dc    06d1            bne         LAB_000195ec                            
ram:000195de    3368            ldr         r3,[r6,#0x0]=>DAT_20001dcc              
ram:000195e0    009a            ldr         r2,[sp,#0x0]=>local_30                  
ram:000195e2    9a42            cmp         r2,r3                                   
ram:000195e4    02d1            bne         LAB_000195ec                            
ram:000195e6    b8f1000f        cmp.w       r8,#0x0                                 
ram:000195ea    44d0            beq         LAB_00019676                            
                            LAB_000195ec:                 ;XREF[2,0]:   000195dc,000195e4
ram:000195ec    3368            ldr         r3,[r6,#0x0]=>DAT_20001dcc              
ram:000195ee    002b            cmp         r3,#0x0                                 
ram:000195f0    73d0            beq         LAB_000196da                            
ram:000195f2    d3f800a0        ldr.w       r10,[r3,#0x0]                           
ram:000195f6    514d            ldr         r5,[DAT_0001973c]                       ;= 40011000h
ram:000195f8    4b4b            ldr         r3,[DAT_00019728]                       ;= 20001DC8h
ram:000195fa    d5f80475        ldr.w       r7,[r5,#0x504]=>DAT_40011504            
ram:000195fe    1c68            ldr         r4,[r3,#0x0]=>DAT_20001dc8              
ram:00019600    dff84081        ldr.w       r8,[DAT_00019744]                       ;= 20001DB9h
ram:00019604    3e1b            subs        r6,r7,r4                                
ram:00019606    98f80030        ldrb.w      r3,[r8,#0x0]=>DAT_20001db9              
ram:0001960a    26f07f46        bic         r6,r6,#0xff000000                       
ram:0001960e    0336            adds        r6,#0x3                                 
ram:00019610    9bb9            cbnz        r3,LAB_0001963a                         
ram:00019612    4ff48033        mov.w       r3,#0x10000                             
ram:00019616    c5f84433        str.w       r3,[r5,#0x344]=>DAT_40011344            
ram:0001961a    c5f80433        str.w       r3,[r5,#0x304]=>DAT_40011304            
ram:0001961e    484b            ldr         r3=>DAT_e000e100,[DAT_00019740]         ;= E000E100h
ram:00019620    4ff40032        mov.w       r2,#0x20000                             
ram:00019624    4ff00109        mov.w       r9,#0x1                                 
ram:00019628    c3f88021        str.w       r2,[r3,#0x180]=>DAT_e000e280            
ram:0001962c    1a60            str         r2,[r3,#0x0]=>DAT_e000e100              
ram:0001962e    c5f80090        str.w       r9,[r5,#0x0]=>DAT_40011000              
ram:00019632    fff7bffe        bl          FUN_000193b4                            ;undefined FUN_000193b4(void)
ram:00019636    88f80090        strb.w      r9,[r8,#0x0]=>DAT_20001db9              
                            LAB_0001963a:                 ;XREF[1,0]:   00019610
ram:0001963a    b245            cmp         r10,r6                                  
ram:0001963c    2cbf            ite         cs                                      
ram:0001963e    5444            add.cs      r4,r10                                  
ram:00019640    a419            add.cc      r4,r4,r6                                
ram:00019642    24f07f44        bic         r4,r4,#0xff000000                       
ram:00019646    c5f84045        str.w       r4,[r5,#0x540]=>DAT_40011540            
ram:0001964a    d5f80435        ldr.w       r3,[r5,#0x504]=>DAT_40011504            
ram:0001964e    db1b            subs        r3,r3,r7                                
ram:00019650    23f07f43        bic         r3,r3,#0xff000000                       
ram:00019654    e41b            subs        r4,r4,r7                                
ram:00019656    0333            adds        r3,#0x3                                 
ram:00019658    24f07f44        bic         r4,r4,#0xff000000                       
ram:0001965c    a342            cmp         r3,r4                                   
ram:0001965e    0ad9            bls         LAB_00019676                            
ram:00019660    d5f80435        ldr.w       r3,[r5,#0x504]=>DAT_40011504            
ram:00019664    c5f84035        str.w       r3,[r5,#0x540]=>DAT_40011540            
ram:00019668    fff7a4fe        bl          FUN_000193b4                            ;undefined FUN_000193b4(void)
ram:0001966c    344b            ldr         r3,[DAT_00019740]                       ;= E000E100h
ram:0001966e    4ff40032        mov.w       r2,#0x20000                             
ram:00019672    c3f80021        str.w       r2,[r3,#0x100]=>DAT_e000e200            
                            LAB_00019676:                 ;XREF[3,0]:   000195ea,0001965e,000196de
ram:00019676    304b            ldr         r3,[DAT_00019738]                       ;= 20001DB8h
ram:00019678    0022            movs        r2,#0x0                                 
ram:0001967a    1a70            strb        r2,[r3,#0x0]=>DAT_20001db8              
ram:0001967c    03b0            add         sp,#0xc                                 
ram:0001967e    bde8f08f        pop.w       {r4,r5,r6,r7,r8,r9,r10,r11,pc}          
                            LAB_00019682:                 ;XREF[1,0]:   000195ca
ram:00019682    9c42            cmp         r4,r3                                   
ram:00019684    2cd0            beq         LAB_000196e0                            
ram:00019686    9a46            mov         r10,r3                                  
ram:00019688    db69            ldr         r3,[r3,#0x1c]                           
ram:0001968a    9de7            b           LAB_000195c8                            
                            LAB_0001968c:                 ;XREF[1,0]:   000195ba
ram:0001968c    2a74            strb        r2,[r5,#0x10]                           
ram:0001968e    0123            movs        r3,#0x1                                 
ram:00019690    ed69            ldr         r5,[r5,#0x1c]                           
ram:00019692    91e7            b           LAB_000195b8                            
                            LAB_00019694:                 ;XREF[1,0]:   00019522
ram:00019694    121a            subs        r2,r2,r0                                
ram:00019696    22f07f42        bic         r2,r2,#0xff000000                       
ram:0001969a    9a42            cmp         r2,r3                                   
ram:0001969c    34bf            ite         cc                                      
ram:0001969e    9b1a            sub.cc      r3,r3,r2                                
ram:000196a0    0023            mov.cs      r3,#0x0                                 
ram:000196a2    41e7            b           LAB_00019528                            
                            LAB_000196a4:                 ;XREF[1,0]:   0001953a
ram:000196a4    2268            ldr         r2,[r4,#0x0]                            
ram:000196a6    1968            ldr         r1,[r3,#0x0]                            
ram:000196a8    8a42            cmp         r2,r1                                   
ram:000196aa    0bd8            bhi         LAB_000196c4                            
ram:000196ac    8a1a            subs        r2,r1,r2                                
ram:000196ae    1a60            str         r2,[r3,#0x0]                            
ram:000196b0    e361            str         r3,[r4,#DAT_0000001c]                   
ram:000196b2    44e7            b           LAB_0001953e                            
                            LAB_000196b4:                 ;XREF[1,0]:   000196ca
ram:000196b4    521a            subs        r2,r2,r1                                
ram:000196b6    d969            ldr         r1,[r3,#0x1c]                           
ram:000196b8    1846            mov         r0,r3                                   
ram:000196ba    61b9            cbnz        r1,LAB_000196d6                         
                            LAB_000196bc:                 ;XREF[1,0]:   000196d4
ram:000196bc    2260            str         r2,[r4,#0x0]                            
ram:000196be    e161            str         r1,[r4,#DAT_0000001c]                   
ram:000196c0    dc61            str         r4,[r3,#0x1c]                           
ram:000196c2    21e7            b           LAB_00019508                            
                            LAB_000196c4:                 ;XREF[1,0]:   000196aa
ram:000196c4    1846            mov         r0,r3                                   
                            LAB_000196c6:                 ;XREF[1,0]:   000196d8
ram:000196c6    1968            ldr         r1,[r3,#0x0]                            
ram:000196c8    9142            cmp         r1,r2                                   
ram:000196ca    f3d3            bcc         LAB_000196b4                            
ram:000196cc    891a            subs        r1,r1,r2                                
ram:000196ce    1960            str         r1,[r3,#0x0]                            
ram:000196d0    1946            mov         r1,r3                                   
ram:000196d2    0346            mov         r3,r0                                   
ram:000196d4    f2e7            b           LAB_000196bc                            
                            LAB_000196d6:                 ;XREF[1,0]:   000196ba
ram:000196d6    0b46            mov         r3,r1                                   
ram:000196d8    f5e7            b           LAB_000196c6                            
                            LAB_000196da:                 ;XREF[1,0]:   000195f0
ram:000196da    fff773fe        bl          FUN_000193c4                            ;undefined FUN_000193c4(void)
ram:000196de    cae7            b           LAB_00019676                            
                            LAB_000196e0:                 ;XREF[1,0]:   00019684
ram:000196e0    5445            cmp         r4,r10                                  
ram:000196e2    0dd1            bne         LAB_00019700                            
ram:000196e4    d369            ldr         r3,[r2,#0x1c]                           
ram:000196e6    3360            str         r3,[r6,#0x0]=>DAT_20001dcc              
ram:000196e8    53b9            cbnz        r3,LAB_00019700                         
ram:000196ea    0f48            ldr         r0=>DAT_20001dc8,[DAT_00019728]         ;= 20001DC8h
ram:000196ec    0192            str         r2,[sp,#local_2c+0x30]                  
ram:000196ee    0121            movs        r1,#0x1                                 
ram:000196f0    cbf80810        str.w       r1,[r11,#offset DAT_40011008 &0xff]     
ram:000196f4    0360            str         r3,[r0,#0x0]=>DAT_20001dc8              
ram:000196f6    104b            ldr         r3=>DAT_20001db8,[DAT_00019738]         ;= 20001DB8h
ram:000196f8    1970            strb        r1,[r3,#0x0]=>DAT_20001db8              
ram:000196fa    fff75bfe        bl          FUN_000193b4                            ;undefined FUN_000193b4(void)
ram:000196fe    019a            ldr         r2,[sp,#local_2c+0x30]                  
                            LAB_00019700:                 ;XREF[2,0]:   000196e2,000196e8
ram:00019700    e169            ldr         r1,[r4,#0x1c]                           
ram:00019702    2368            ldr         r3,[r4,#0x0]                            
ram:00019704    caf81c10        str.w       r1,[r10,#0x1c]                          
ram:00019708    11b1            cbz         r1,LAB_00019710                         
ram:0001970a    0868            ldr         r0,[r1,#0x0]                            
ram:0001970c    0344            add         r3,r0                                   
ram:0001970e    0b60            str         r3,[r1,#0x0]                            
                            LAB_00019710:                 ;XREF[1,0]:   00019708
ram:00019710    3368            ldr         r3,[r6,#0x0]=>DAT_20001dcc              
ram:00019712    9a42            cmp         r2,r3                                   
ram:00019714    18bf            it          ne                                      
ram:00019716    4ff00109        mov.ne.w    r9,#0x1                                 
ram:0001971a    57e7            b           LAB_000195cc                            
                            DAT_0001971c:                 ;XREF[1,0]:   000194a8
ram:0001971c    c41d0020        undefined4  20001DC4h                               
                            DAT_00019720:                 ;XREF[1,0]:   000194aa
ram:00019720    c51d0020        undefined4  20001DC5h                               
                            DAT_00019724:                 ;XREF[1,0]:   000194b0
ram:00019724    cc1d0020        undefined4  20001DCCh                               
                            DAT_00019728:                 ;XREF[4,0]:   000194c2,00019510,000195f8,000196ea
ram:00019728    c81d0020        undefined4  20001DC8h                               
                            DAT_0001972c:                 ;XREF[1,0]:   000194c6
ram:0001972c    bc1d0020        undefined4  20001DBCh                               
                            DAT_00019730:                 ;XREF[1,0]:   000194fc
ram:00019730    ac1c0020        undefined4  20001CACh                               
                            DAT_00019734:                 ;XREF[1,0]:   0001951c
ram:00019734    feff7f00        undefined4  007FFFFEh                               
                            DAT_00019738:                 ;XREF[3,0]:   000195a6,00019676,000196f6
ram:00019738    b81d0020        undefined4  20001DB8h                               
                            DAT_0001973c:                 ;XREF[2,0]:   000194fe,000195f6
ram:0001973c    00100140        undefined4  40011000h                               
                            DAT_00019740:                 ;XREF[2,0]:   0001961e,0001966c
ram:00019740    00e100e0        undefined4  E000E100h                               
                            DAT_00019744:                 ;XREF[1,0]:   00019600
ram:00019744    b91d0020        undefined4  20001DB9h                               
                            ;************************************************************************************************
                            ;*                                           FUNCTION                                           *
                            ;************************************************************************************************
                            ;undefined FUN_00019748(void)
                                                          ;XREF[1,0]:   0001c2f4
ram:00019748    08b5            push        {r3,lr}                                 
ram:0001974a    fff73bfe        bl          FUN_000193c4                            ;undefined FUN_000193c4(void)
ram:0001974e    114b            ldr         r3,[DAT_00019794]                       ;= 20001CACh
ram:00019750    0020            movs        r0,#0x0                                 
ram:00019752    0b22            movs        r2,#0xb                                 
ram:00019754    1870            strb        r0,[r3,#0x0]=>DAT_20001cac              
ram:00019756    9a70            strb        r2,[r3,#0x2]=>DAT_20001cae              
ram:00019758    5870            strb        r0,[r3,#0x1]=>DAT_20001cad              
ram:0001975a    0f4b            ldr         r3,[DAT_00019798]                       ;= 20001DCCh
ram:0001975c    1860            str         r0,[r3,#0x0]=>DAT_20001dcc              
ram:0001975e    0f4b            ldr         r3,[DAT_0001979c]                       ;= 20001DC4h
ram:00019760    1870            strb        r0,[r3,#0x0]=>DAT_20001dc4              
ram:00019762    0f4b            ldr         r3,[DAT_000197a0]                       ;= 20001DC5h
ram:00019764    1870            strb        r0,[r3,#0x0]=>DAT_20001dc5              
ram:00019766    0f4b            ldr         r3,[DAT_000197a4]                       ;= E000E100h
ram:00019768    4ff48012        mov.w       r2,#0x100000                            
ram:0001976c    c021            movs        r1,#0xc0                                
ram:0001976e    c3f88021        str.w       r2,[r3,#0x180]=>DAT_e000e280            
ram:00019772    83f81413        strb.w      r1,[r3,#0x314]=>DAT_e000e414            
ram:00019776    1a60            str         r2,[r3,#0x0]=>DAT_e000e100              
ram:00019778    02f18042        add.w       r2,r2,#0x40000000                       
ram:0001977c    a2f56f22        sub.w       r2,r2,#0xef000                          
ram:00019780    c2f80805        str.w       r0,[r2,#0x508]=>DAT_40011508            
ram:00019784    83f81113        strb.w      r1,[r3,#0x311]=>DAT_e000e411            
ram:00019788    074b            ldr         r3,[DAT_000197a8]                       ;= 20001DC8h
ram:0001978a    d2f80425        ldr.w       r2,[r2,#0x504]=>DAT_40011504            
ram:0001978e    1a60            str         r2,[r3,#0x0]=>DAT_20001dc8              
ram:00019790    08bd            pop         {r3,pc}                                 
ram:00019792    00bf            nop                                                  
                            DAT_00019794:                 ;XREF[1,0]:   0001974e
ram:00019794    ac1c0020        undefined4  20001CACh                               
                            DAT_00019798:                 ;XREF[1,0]:   0001975a
ram:00019798    cc1d0020        undefined4  20001DCCh                               
                            DAT_0001979c:                 ;XREF[1,0]:   0001975e
ram:0001979c    c41d0020        undefined4  20001DC4h                               
                            DAT_000197a0:                 ;XREF[1,0]:   00019762
ram:000197a0    c51d0020        undefined4  20001DC5h                               
                            DAT_000197a4:                 ;XREF[1,0]:   00019766
ram:000197a4    00e100e0        undefined4  E000E100h                               
                            DAT_000197a8:                 ;XREF[1,0]:   00019788
ram:000197a8    c81d0020        undefined4  20001DC8h                               
                            ;************************************************************************************************
                            ;*                                           FUNCTION                                           *
                            ;************************************************************************************************
                            ;undefined4 FUN_000197ac(int * param_1, undefined param_2, int param_3)
          ;param_1       int *               r0                      
          ;param_2       undefined           r1                      
          ;param_3       int                 r2                      
                                                          ;XREF[1,0]:   0001ad9e
ram:000197ac    074b            ldr         r3,[DAT_000197cc]                       ;= 20001CACh
ram:000197ae    9b78            ldrb        r3,[r3,#0x2]=>DAT_20001cae              
ram:000197b0    4bb1            cbz         r3,LAB_000197c6                         
ram:000197b2    32b1            cbz         param_3,LAB_000197c2                    
ram:000197b4    28b1            cbz         param_1,LAB_000197c2                    
ram:000197b6    0368            ldr         r3,[param_1,#0x0]                       
ram:000197b8    187c            ldrb        param_1,[r3,#0x10]                      
ram:000197ba    20b9            cbnz        param_1,LAB_000197c6                    
ram:000197bc    5974            strb        param_2,[r3,#0x11]                      
ram:000197be    5a61            str         param_3,[r3,#0x14]                      
ram:000197c0    7047            bx          lr                                      
                            LAB_000197c2:                 ;XREF[2,0]:   000197b2,000197b4
ram:000197c2    0720            movs        param_1,#0x7                            
ram:000197c4    7047            bx          lr                                      
                            LAB_000197c6:                 ;XREF[2,0]:   000197b0,000197ba
ram:000197c6    0820            movs        param_1,#0x8                            
ram:000197c8    7047            bx          lr                                      
ram:000197ca    00bf            nop                                                  
                            DAT_000197cc:                 ;XREF[1,0]:   000197ac
ram:000197cc    ac1c0020        undefined4  20001CACh                               
                            ;************************************************************************************************
                            ;*                                           FUNCTION                                           *
                            ;************************************************************************************************
                            ;int FUN_000197d0(int param_1, uint param_2, undefined4 param_3)
          ;param_1       int                 r0                      
          ;param_2       uint                r1                      
          ;param_3       undefined4          r2                      
          ;local_21      undefined1         -21                      ;XREF[2,0]:   000197f2,00019828
          ;local_22      undefined1         -22                      ;XREF[1,0]:   00019818
ram:000197d0    2de9f743        push        {param_1,param_2,param_3,r4,r5,r6,r7,...
ram:000197d4    1e4f            ldr         r7,[DAT_00019850]                       ;= 20001CACh
ram:000197d6    bb78            ldrb        r3,[r7,#0x2]=>DAT_20001cae              
ram:000197d8    0546            mov         r5,param_1                              
ram:000197da    0e46            mov         r6,param_2                              
ram:000197dc    9046            mov         r8,param_3                              
ram:000197de    abb3            cbz         r3,LAB_0001984c                         
ram:000197e0    a0b3            cbz         param_1,LAB_0001984c                    
ram:000197e2    0429            cmp         param_2,#0x4                            
ram:000197e4    30d9            bls         LAB_00019848                            
ram:000197e6    4369            ldr         r3,[param_1,#0x14]                      
ram:000197e8    83b3            cbz         r3,LAB_0001984c                         
ram:000197ea    437c            ldrb        r3,[param_1,#0x11]                      
ram:000197ec    02a8            add         param_1,sp,#0x8                         
ram:000197ee    0024            movs        r4,#0x0                                 
ram:000197f0    012b            cmp         r3,#0x1                                 
ram:000197f2    00f8014d        strb.w      r4,[param_1,#-0x1]!=>local_21           
ram:000197f6    0cbf            ite         eq                                      
ram:000197f8    8946            mov.eq      r9,param_2                              
ram:000197fa    a146            mov.ne      r9,r4                                   
ram:000197fc    00f042f8        bl          FUN_00019884                            ;undefined FUN_00019884(undefined * p...
ram:00019800    0df10600        add.w       param_1,sp,#0x6                         
ram:00019804    fff798fd        bl          FUN_00019338                            ;char * FUN_00019338(char * param_1)
ram:00019808    e0b1            cbz         param_1,LAB_00019844                    
ram:0001980a    0123            movs        r3,#0x1                                 
ram:0001980c    0370            strb        r3,[param_1,#0x0]                       
ram:0001980e    114b            ldr         r3,[DAT_00019854]                       ;= 40011000h
ram:00019810    4560            str         r5,[param_1,#0x4]                       
ram:00019812    d3f80435        ldr.w       r3,[r3,#0x504]=>DAT_40011504            
ram:00019816    8360            str         r3,[param_1,#0x8]                       
ram:00019818    9df80630        ldrb.w      r3,[sp,#local_22+0x28]                  
ram:0001981c    c660            str         r6,[param_1,#0xc]                       
ram:0001981e    c0f81090        str.w       r9,[param_1,#0x10]                      
ram:00019822    c0f81480        str.w       r8,[param_1,#0x14]                      
ram:00019826    7b70            strb        r3,[r7,#0x1]=>DAT_20001cad              
                            LAB_00019828:                 ;XREF[1,0]:   00019846
ram:00019828    9df80700        ldrb.w      param_1,[sp,#local_21+0x28]             
ram:0001982c    00f04ef8        bl          FUN_000198cc                            ;undefined FUN_000198cc(int param_1)
ram:00019830    24b9            cbnz        r4,LAB_0001983c                         
ram:00019832    094b            ldr         r3,[DAT_00019858]                       ;= E000E100h
ram:00019834    4ff48012        mov.w       param_3,#0x100000                       
ram:00019838    c3f80021        str.w       param_3,[r3,#0x100]=>DAT_e000e200       
                            LAB_0001983c:                 ;XREF[3,0]:   00019830,0001984a,0001984e
ram:0001983c    2046            mov         param_1,r4                              
ram:0001983e    03b0            add         sp,#0xc                                 
ram:00019840    bde8f083        pop.w       {r4,r5,r6,r7,r8,r9,pc}                  
                            LAB_00019844:                 ;XREF[1,0]:   00019808
ram:00019844    0424            movs        r4,#0x4                                 
ram:00019846    efe7            b           LAB_00019828                            
                            LAB_00019848:                 ;XREF[1,0]:   000197e4
ram:00019848    0724            movs        r4,#0x7                                 
ram:0001984a    f7e7            b           LAB_0001983c                            
                            LAB_0001984c:                 ;XREF[3,0]:   000197de,000197e0,000197e8
ram:0001984c    0824            movs        r4,#0x8                                 
ram:0001984e    f5e7            b           LAB_0001983c                            
                            DAT_00019850:                 ;XREF[1,0]:   000197d4
ram:00019850    ac1c0020        undefined4  20001CACh                               
                            DAT_00019854:                 ;XREF[1,0]:   0001980e
ram:00019854    00100140        undefined4  40011000h                               
                            DAT_00019858:                 ;XREF[1,0]:   00019832
ram:00019858    00e100e0        undefined4  E000E100h                               
                            ;************************************************************************************************
                            ;*                                           FUNCTION                                           *
                            ;************************************************************************************************
                            ;uint FUN_0001987c(int param_1, int param_2)
          ;param_1       int                 r0                      
          ;param_2       int                 r1                      
                                                          ;XREF[2,0]:   0001c16a,0001c1d8
ram:0001987c    401a            subs        param_1,param_1,param_2                 
ram:0001987e    20f07f40        bic         param_1,param_1,#0xff000000             
ram:00019882    7047            bx          lr                                      
                            ;************************************************************************************************
                            ;*                                           FUNCTION                                           *
                            ;************************************************************************************************
                            ;undefined FUN_00019884(undefined * param_1)
          ;param_1       undefined *         r0                      
                                                          ;XREF[4,0]:   000197fc,0001a0b2,0001a20c,0001ba56
ram:00019884    70b5            push        {r4,r5,r6,lr}                           
ram:00019886    eff31086        mrs         r6,primask                              
ram:0001988a    72b6            cpsid       i                                       
ram:0001988c    0c4a            ldr         r2,[DAT_000198c0]                       ;= 200020E0h
ram:0001988e    9468            ldr         r4,[r2,#0x8]=>DAT_200020e8              
ram:00019890    0123            movs        r3,#0x1                                 
ram:00019892    9cb9            cbnz        r4,LAB_000198bc                         
ram:00019894    9360            str         r3,[r2,#0x8]=>DAT_200020e8              
ram:00019896    0b4b            ldr         r3,[DAT_000198c4]                       ;= E000E100h
ram:00019898    0b4d            ldr         r5,[DAT_000198c8]                       ;= BDFF06FCh
ram:0001989a    d3f88010        ldr.w       r1,[r3,#offset DAT_e000e180 &0xff]      
ram:0001989e    2940            ands        r1,r5                                   
ram:000198a0    1160            str         r1,[r2,#0x0]=>DAT_200020e0              
ram:000198a2    c3f88050        str.w       r5,[r3,#offset DAT_e000e180 &0xff]      
ram:000198a6    d3f88410        ldr.w       r1,[r3,#offset DAT_e000e184 &0xff]      
ram:000198aa    5160            str         r1,[r2,#0x4]=>DAT_200020e4              
ram:000198ac    4ff0ff32        mov.w       r2,#0xffffffff                          
ram:000198b0    c3f88420        str.w       r2,[r3,#offset DAT_e000e184 &0xff]      
ram:000198b4    0470            strb        r4,[param_1,#0x0]                       
                            LAB_000198b6:                 ;XREF[1,0]:   000198be
ram:000198b6    06b9            cbnz        r6,LAB_000198ba                         
ram:000198b8    62b6            cpsie       i                                       
                            LAB_000198ba:                 ;XREF[1,0]:   000198b6
ram:000198ba    70bd            pop         {r4,r5,r6,pc}                           
                            LAB_000198bc:                 ;XREF[1,0]:   00019892
ram:000198bc    0370            strb        r3,[param_1,#0x0]                       
ram:000198be    fae7            b           LAB_000198b6                            
                            DAT_000198c0:                 ;XREF[1,0]:   0001988c
ram:000198c0    e0200020        undefined4  200020E0h                               
                            DAT_000198c4:                 ;XREF[1,0]:   00019896
ram:000198c4    00e100e0        undefined4  E000E100h                               
                            DAT_000198c8:                 ;XREF[1,0]:   00019898
ram:000198c8    fc06ffbd        undefined4  BDFF06FCh                               
                            ;************************************************************************************************
                            ;*                                           FUNCTION                                           *
                            ;************************************************************************************************
                            ;undefined FUN_000198cc(int param_1)
          ;param_1       int                 r0                      
                                                          ;XREF[5,0]:   00019390,0001982c,0001a0d0,0001a21c
                                                          ;             0001ba70
ram:000198cc    10b5            push        {r4,lr}                                 
ram:000198ce    084b            ldr         r3,[DAT_000198f0]                       ;= 200020E0h
ram:000198d0    9a68            ldr         r2,[r3,#0x8]=>DAT_200020e8              
ram:000198d2    5ab1            cbz         r2,LAB_000198ec                         
ram:000198d4    50b9            cbnz        param_1,LAB_000198ec                    
ram:000198d6    eff31082        mrs         r2,primask                              
ram:000198da    72b6            cpsid       i                                       
ram:000198dc    0549            ldr         r1,[DAT_000198f4]                       ;= E000E100h
ram:000198de    1c68            ldr         r4,[r3,#0x0]=>DAT_200020e0              
ram:000198e0    0c60            str         r4,[r1,#0x0]=>DAT_e000e100              
ram:000198e2    5c68            ldr         r4,[r3,#0x4]=>DAT_200020e4              
ram:000198e4    4c60            str         r4,[r1,#offset DAT_e000e104 &0xff]      
ram:000198e6    9860            str         param_1,[r3,#0x8]=>DAT_200020e8         
ram:000198e8    02b9            cbnz        r2,LAB_000198ec                         
ram:000198ea    62b6            cpsie       i                                       
                            LAB_000198ec:                 ;XREF[3,0]:   000198d2,000198d4,000198e8
ram:000198ec    10bd            pop         {r4,pc}                                 
ram:000198ee    00bf            nop                                                  
                            DAT_000198f0:                 ;XREF[1,0]:   000198ce
ram:000198f0    e0200020        undefined4  200020E0h                               
                            DAT_000198f4:                 ;XREF[1,0]:   000198dc
ram:000198f4    00e100e0        undefined4  E000E100h                               
                            ;************************************************************************************************
                            ;*                                           FUNCTION                                           *
                            ;************************************************************************************************
                            ;uint FUN_000198f8(int param_1, uint param_2)
          ;param_1       int                 r0                      
          ;param_2       uint                r1                      
                                                          ;XREF[4,0]:   0001ae7c,0001ae84,0001ae92,0001aecc
ram:000198f8    01f01f02        and         r2,param_2,#0x1f                        
ram:000198fc    4b09            lsrs        r3,param_2,#0x5                         
ram:000198fe    0121            movs        param_2,#0x1                            
ram:00019900    9140            lsls        param_2,r2                              
ram:00019902    00eb8300        add.w       param_1,param_1,r3, lsl #0x2            
ram:00019906    00f01fb8        b.w         LAB_00019948                            
                            ;************************************************************************************************
                            ;*                                           FUNCTION                                           *
                            ;************************************************************************************************
                            ;undefined FUN_0001990a(int param_1, uint param_2)
          ;param_1       int                 r0                      
          ;param_2       uint                r1                      
                                                          ;XREF[3,0]:   0001aea8,0001aeba,0001aeda
ram:0001990a    01f01f03        and         r3,param_2,#0x1f                        
ram:0001990e    0122            movs        r2,#0x1                                 
ram:00019910    9a40            lsls        r2,r3                                   
ram:00019912    4b09            lsrs        r3,param_2,#0x5                         
ram:00019914    00eb8300        add.w       param_1,param_1,r3, lsl #0x2            
ram:00019918    d143            mvns        param_2,r2                              
ram:0001991a    00f022b8        b.w         FUN_00019962                            ;uint FUN_00019962(uint * param_1, ui...
                            ;************************************************************************************************
                            ;*                                           FUNCTION                                           *
                            ;************************************************************************************************
                            ;uint FUN_0001991e(int param_1, uint param_2)
          ;param_1       int                 r0                      
          ;param_2       uint                r1                      
                                                          ;XREF[4,0]:   0001ade6,0001ae16,0001af0c,0001af26
ram:0001991e    4b09            lsrs        r3,param_2,#0x5                         
ram:00019920    01f01f01        and         param_2,param_2,#0x1f                   
ram:00019924    50f82300        ldr.w       param_1,param_1,r3,0x2                  
ram:00019928    c840            lsrs        param_1,param_2                         
ram:0001992a    00f00100        and         param_1,param_1,#0x1                    
ram:0001992e    7047            bx          lr                                      
                            ;************************************************************************************************
                            ;*                                           FUNCTION                                           *
                            ;************************************************************************************************
                            ;undefined4 FUN_00019930(undefined4 * param_1, undefined4 param_2)
          ;param_1       undefined4 *        r0                      
          ;param_2       undefined4          r1                      
                                                          ;XREF[1,0]:   000199d2
ram:00019930    00b5            push        {lr}                                    
                            LAB_00019932:                 ;XREF[1,0]:   00019940
ram:00019932    50e8002f        ldrex       r2,param_1,#0x0                         
ram:00019936    0b46            mov         r3,param_2                              
ram:00019938    40e8003e        strex       lr,r3,param_1,#0x0                      
ram:0001993c    9ef0000f        teq         lr,#0x0                                 
ram:00019940    f7d1            bne         LAB_00019932                            
ram:00019942    1046            mov         param_1,r2                              
ram:00019944    5df804fb        pop.w       pc                                      
                            LAB_00019948:                 ;XREF[1,0]:   00019906
ram:00019948    00b5            push        {lr}                                    
                            LAB_0001994a:                 ;XREF[1,0]:   0001995a
ram:0001994a    50e8003f        ldrex       r3,param_1,#0x0                         
ram:0001994e    43ea0102        orr.w       r2,r3,param_2                           
ram:00019952    40e8002e        strex       lr,r2,param_1,#0x0                      
ram:00019956    9ef0000f        teq         lr,#0x0                                 
ram:0001995a    f6d1            bne         LAB_0001994a                            
ram:0001995c    1046            mov         param_1,r2                              
ram:0001995e    5df804fb        pop.w       pc                                      
                            ;************************************************************************************************
                            ;*                                           FUNCTION                                           *
                            ;************************************************************************************************
                            ;uint FUN_00019962(uint * param_1, uint param_2)
          ;param_1       uint *              r0                      
          ;param_2       uint                r1                      
                                                          ;XREF[2,0]:   0001991a,0001ae5a
ram:00019962    00b5            push        {lr}                                    
                            LAB_00019964:                 ;XREF[1,0]:   00019974
ram:00019964    50e8003f        ldrex       r3,param_1,#0x0                         
ram:00019968    03ea0102        and.w       r2,r3,param_2                           
ram:0001996c    40e8002e        strex       lr,r2,param_1,#0x0                      
ram:00019970    9ef0000f        teq         lr,#0x0                                 
ram:00019974    f6d1            bne         LAB_00019964                            
ram:00019976    1046            mov         param_1,r2                              
ram:00019978    5df804fb        pop.w       pc                                      
                            ;************************************************************************************************
                            ;*                                           FUNCTION                                           *
                            ;************************************************************************************************
                            ;undefined FUN_0001997c(void)
                                                          ;XREF[1,0]:   00019a3a
ram:0001997c    33df            svc         0x33                                    
ram:0001997e    7047            bx          lr                                      
                            ;************************************************************************************************
                            ;*                                           FUNCTION                                           *
                            ;************************************************************************************************
                            ;undefined FUN_00019980(void)
                                                          ;XREF[1,0]:   000199bc
ram:00019980    41df            svc         0x41                                    
ram:00019982    7047            bx          lr                                      
                            ;************************************************************************************************
                            ;*                                           FUNCTION                                           *
                            ;************************************************************************************************
                            ;undefined4 FUN_00019984(void)
                                                          ;XREF[1,0]:   0001c2fe
ram:00019984    064b            ldr         r3,[DAT_000199a0]                       ;= 20001DD9h
ram:00019986    10b5            push        {r4,lr}                                 
ram:00019988    0024            movs        r4,#0x0                                 
ram:0001998a    1c70            strb        r4,[r3,#0x0]=>DAT_20001dd9              
ram:0001998c    054b            ldr         r3=>DAT_20001ddc,[DAT_000199a4]         ;= 20001DDCh
ram:0001998e    1c60            str         r4,[r3,#0x0]=>DAT_20001ddc              
ram:00019990    bff35f8f        dmb         0x1f                                    
ram:00019994    0449            ldr         r1=>PTR_PTR_LAB_...,[PTR_PTR_000199a8]  ;= 0001d62c
                                                                                    ;= 0001d508
ram:00019996    0548            ldr         r0,[DAT_000199ac]                       ;= 20001DD0h
ram:00019998    00f06af8        bl          FUN_00019a70                            ;undefined FUN_00019a70(int * * param...
ram:0001999c    2046            mov         r0,r4                                   
ram:0001999e    10bd            pop         {r4,pc}                                 
                            DAT_000199a0:                 ;XREF[1,0]:   00019984
ram:000199a0    d91d0020        undefined4  20001DD9h                               
                            DAT_000199a4:                 ;XREF[1,0]:   0001998c
ram:000199a4    dc1d0020        undefined4  20001DDCh                               
                            PTR_PTR_000199a8:             ;XREF[1,0]:   00019994
ram:000199a8    08d50100        addr        PTR_PTR_LAB_0001be5c+1+1_0001d508       ;= 0001d62c
                            DAT_000199ac:                 ;XREF[1,0]:   00019996
ram:000199ac    d01d0020        undefined4  20001DD0h                               
                            ;************************************************************************************************
                            ;*                                           FUNCTION                                           *
                            ;************************************************************************************************
                            ;undefined FUN_000199b0(void)
                                                          ;XREF[1,0]:   0001c500
ram:000199b0    08b5            push        {r3,lr}                                 
ram:000199b2    02f077f8        bl          FUN_0001baa4                            ;undefined FUN_0001baa4(void)
ram:000199b6    18b1            cbz         r0,LAB_000199c0                         
ram:000199b8    bde80840        pop.w       {r3,lr}                                 
ram:000199bc    fff7e0bf        b.w         FUN_00019980                            ;undefined FUN_00019980(void)
                            LAB_000199c0:                 ;XREF[1,0]:   000199b6
ram:000199c0    20bf            wfe                                                  
ram:000199c2    40bf            sev                                                  
ram:000199c4    20bf            wfe                                                  
ram:000199c6    08bd            pop         {r3,pc}                                 
                            ;************************************************************************************************
                            ;*                                           FUNCTION                                           *
                            ;************************************************************************************************
                            ;undefined FUN_000199c8(int param_1)
          ;param_1       int                 r0                      
                                                          ;XREF[2,0]:   0001b75c,0001befc
ram:000199c8    70b5            push        {r4,r5,r6,lr}                           
ram:000199ca    234c            ldr         r4,[DAT_00019a58]                       ;= 20001DDCh
ram:000199cc    0546            mov         r5,param_1                              
ram:000199ce    0121            movs        r1,#0x1                                 
ram:000199d0    2046            mov         param_1=>DAT_20001ddc,r4                
ram:000199d2    fff7adff        bl          FUN_00019930                            ;undefined4 FUN_00019930(undefined4 *...
ram:000199d6    bff35f8f        dmb         0x1f                                    
ram:000199da    2646            mov         r6,r4                                   
ram:000199dc    0028            cmp         param_1,#0x0                            
ram:000199de    3ad1            bne         LAB_00019a56                            
ram:000199e0    042d            cmp         r5,#0x4                                 
ram:000199e2    0ad0            beq         LAB_000199fa                            
ram:000199e4    1d4b            ldr         r3,[DAT_00019a5c]                       ;= 20001DD9h
ram:000199e6    1a78            ldrb        r2,[r3,#0x0]=>DAT_20001dd9              
ram:000199e8    1ab1            cbz         r2,LAB_000199f2                         
ram:000199ea    bff35f8f        dmb         0x1f                                    
ram:000199ee    2060            str         param_1,[r4,#0x0]=>DAT_20001ddc         
ram:000199f0    70bd            pop         {r4,r5,r6,pc}                           
                            LAB_000199f2:                 ;XREF[1,0]:   000199e8
ram:000199f2    1b4a            ldr         r2,[DAT_00019a60]                       ;= 20001DD8h
ram:000199f4    1570            strb        r5,[r2,#0x0]=>DAT_20001dd8              
ram:000199f6    0122            movs        r2,#0x1                                 
ram:000199f8    1a70            strb        r2,[r3,#0x0]=>DAT_20001dd9              
                            LAB_000199fa:                 ;XREF[1,0]:   000199e2
ram:000199fa    1a4d            ldr         r5,[DAT_00019a64]                       ;= 20001DD0h
ram:000199fc    184c            ldr         r4,[DAT_00019a60]                       ;= 20001DD8h
                            LAB_000199fe:                 ;XREF[1,0]:   00019a32
ram:000199fe    6b68            ldr         r3,[r5,#0x4]=>DAT_20001dd4              
ram:00019a00    83b9            cbnz        r3,LAB_00019a24                         
ram:00019a02    2378            ldrb        r3,[r4,#0x0]=>DAT_20001dd8              
ram:00019a04    023b            subs        r3,#0x2                                 
ram:00019a06    012b            cmp         r3,#0x1                                 
ram:00019a08    14d8            bhi         LAB_00019a34                            
ram:00019a0a    bff34f8f        dsb         0xf                                     
ram:00019a0e    1649            ldr         r1,[DAT_00019a68]                       ;= E000ED00h
ram:00019a10    164b            ldr         r3,[DAT_00019a6c]                       ;= 05FA0004h
ram:00019a12    ca68            ldr         r2,[r1,#offset DAT_e000ed0c &0xff]      
ram:00019a14    02f4e062        and         r2,r2,#0x700                            
ram:00019a18    1343            orrs        r3,r2                                   
ram:00019a1a    cb60            str         r3,[r1,#offset DAT_e000ed0c &0xff]      
ram:00019a1c    bff34f8f        dsb         0xf                                     
                            LAB_00019a20:                 ;XREF[1,0]:   00019a22
ram:00019a20    00bf            nop                                                  
ram:00019a22    fde7            b           LAB_00019a20                            
                            LAB_00019a24:                 ;XREF[1,0]:   00019a00
ram:00019a24    1b68            ldr         r3,[r3,#0x0]                            
ram:00019a26    2078            ldrb        param_1,[r4,#0x0]=>DAT_20001dd8         
ram:00019a28    9847            blx         r3                                      
ram:00019a2a    88b1            cbz         param_1,LAB_00019a50                    
ram:00019a2c    2846            mov         param_1,r5                              
ram:00019a2e    00f028f8        bl          FUN_00019a82                            ;undefined FUN_00019a82(int * param_1)
ram:00019a32    e4e7            b           LAB_000199fe                            
                            LAB_00019a34:                 ;XREF[1,0]:   00019a08
ram:00019a34    02f036f8        bl          FUN_0001baa4                            ;undefined FUN_0001baa4(void)
ram:00019a38    08b1            cbz         param_1,LAB_00019a3e                    
ram:00019a3a    fff79fff        bl          FUN_0001997c                            ;undefined FUN_0001997c(void)
                            LAB_00019a3e:                 ;XREF[1,0]:   00019a38
ram:00019a3e    4ff08043        mov.w       r3,#0x40000000                          
ram:00019a42    0122            movs        r2,#0x1                                 
ram:00019a44    c3f80025        str.w       r2,[r3,#offset DAT_40000500 &0xffff]    
ram:00019a48    bff34f8f        dsb         0xf                                     
                            LAB_00019a4c:                 ;XREF[1,0]:   00019a4e
ram:00019a4c    20bf            wfe                                                  
ram:00019a4e    fde7            b           LAB_00019a4c                            
                            LAB_00019a50:                 ;XREF[1,0]:   00019a2a
ram:00019a50    bff35f8f        dmb         0x1f                                    
ram:00019a54    3060            str         param_1,[r6,#0x0]=>DAT_20001ddc         
                            LAB_00019a56:                 ;XREF[1,0]:   000199de
ram:00019a56    70bd            pop         {r4,r5,r6,pc}                           
                            DAT_00019a58:                 ;XREF[1,0]:   000199ca
ram:00019a58    dc1d0020        undefined4  20001DDCh                               
                            DAT_00019a5c:                 ;XREF[1,0]:   000199e4
ram:00019a5c    d91d0020        undefined4  20001DD9h                               
                            DAT_00019a60:                 ;XREF[2,0]:   000199f2,000199fc
ram:00019a60    d81d0020        undefined4  20001DD8h                               
                            DAT_00019a64:                 ;XREF[1,0]:   000199fa
ram:00019a64    d01d0020        undefined4  20001DD0h                               
                            DAT_00019a68:                 ;XREF[1,0]:   00019a0e
ram:00019a68    00ed00e0        undefined4  E000ED00h                               
                            DAT_00019a6c:                 ;XREF[1,0]:   00019a10
ram:00019a6c    0400fa05        undefined4  05FA0004h                               
                            ;************************************************************************************************
                            ;*                                           FUNCTION                                           *
                            ;************************************************************************************************
                            ;undefined FUN_00019a70(int * * param_1, int * param_2)
          ;param_1       int * *             r0                      
          ;param_2       int *               r1                      
                                                          ;XREF[5,0]:   00019998,0001b9a0,0001b9d0,0001bab6
                                                          ;             0001bb0a
ram:00019a70    0160            str         param_2,[param_1,#0x0]                  
ram:00019a72    0b68            ldr         r3,[param_2,#0x0]                       
ram:00019a74    4360            str         r3,[param_1,#0x4]                       
ram:00019a76    4a68            ldr         r2,[param_2,#0x4]                       
ram:00019a78    9342            cmp         r3,r2                                   
ram:00019a7a    04bf            itt         eq                                      
ram:00019a7c    0023            mov.eq      r3,#0x0                                 
ram:00019a7e    4360            str.eq      r3,[param_1,#0x4]                       
ram:00019a80    7047            bx          lr                                      
                            ;************************************************************************************************
                            ;*                                           FUNCTION                                           *
                            ;************************************************************************************************
                            ;undefined FUN_00019a82(int * param_1)
          ;param_1       int *               r0                      
                                                          ;XREF[5,0]:   00019a2e,0001b9b8,0001b9e6,0001bacc
                                                          ;             0001bb1e
ram:00019a82    4368            ldr         r3,[param_1,#0x4]                       
ram:00019a84    43b1            cbz         r3,LAB_00019a98                         
ram:00019a86    0268            ldr         r2,[param_1,#0x0]                       
ram:00019a88    9168            ldr         r1,[r2,#0x8]                            
ram:00019a8a    0b44            add         r3,r1                                   
ram:00019a8c    4360            str         r3,[param_1,#0x4]                       
ram:00019a8e    5268            ldr         r2,[r2,#0x4]                            
ram:00019a90    9342            cmp         r3,r2                                   
ram:00019a92    04bf            itt         eq                                      
ram:00019a94    0023            mov.eq      r3,#0x0                                 
ram:00019a96    4360            str.eq      r3,[param_1,#0x4]                       
                            LAB_00019a98:                 ;XREF[1,0]:   00019a84
ram:00019a98    7047            bx          lr                                      
                            ;************************************************************************************************
                            ;*                                           FUNCTION                                           *
                            ;************************************************************************************************
                            ;undefined FUN_00019a9a(void)
                                                          ;XREF[2,0]:   00019ab2,00019ac2
ram:00019a9a    13df            svc         0x13                                    
ram:00019a9c    7047            bx          lr                                      
ram:00019a9e    0000            movs        r0,r0                                   
                            ;************************************************************************************************
                            ;*                                           FUNCTION                                           *
                            ;************************************************************************************************
                            ;undefined4 FUN_00019aa0(void)
                                                          ;XREF[1,0]:   0001b866
ram:00019aa0    40f6f873        movw        r3=>DAT_00000ff8,#0xff8                 
ram:00019aa4    1868            ldr         r0,[r3,#0x0]=>DAT_00000ff8              
ram:00019aa6    421c            adds        r2,r0,#0x1                              
ram:00019aa8    03d1            bne         LAB_00019ab2                            
ram:00019aaa    044b            ldr         r3,[DAT_00019abc]                       ;= 10001014h
ram:00019aac    1868            ldr         r0,[r3,#0x0]=>DAT_10001014              
ram:00019aae    431c            adds        r3,r0,#0x1                              
ram:00019ab0    01d0            beq         LAB_00019ab6                            
                            LAB_00019ab2:                 ;XREF[1,0]:   00019aa8
ram:00019ab2    fff7f2bf        b.w         FUN_00019a9a                            ;undefined FUN_00019a9a(void)
                            LAB_00019ab6:                 ;XREF[1,0]:   00019ab0
ram:00019ab6    0420            movs        r0,#0x4                                 
ram:00019ab8    7047            bx          lr                                      
ram:00019aba    00bf            nop                                                  
                            DAT_00019abc:                 ;XREF[1,0]:   00019aaa
ram:00019abc    14100010        undefined4  10001014h                               
                            ;************************************************************************************************
                            ;*                                           FUNCTION                                           *
                            ;************************************************************************************************
                            ;undefined FUN_00019ac0(void)
                                                          ;XREF[1,0]:   0001b878
ram:00019ac0    0148            ldr         r0=>MasterStackP...,[->MasterStackPoi...;= 20006000
                                                                                    ;= 00019000
ram:00019ac2    fff7eabf        b.w         FUN_00019a9a                            ;undefined FUN_00019a9a(void)
                            PTR_MasterStackPointer_0001...;XREF[1,0]:   00019ac0
ram:00019ac8    00900100        addr        MasterStackPointer                      ;= 20006000
                            ;************************************************************************************************
                            ;*                                           FUNCTION                                           *
                            ;************************************************************************************************
                            ;undefined FUN_00019acc(void)
                                                          ;XREF[1,0]:   000192f2
ram:00019acc    334b            ldr         r3,[DAT_00019b9c]                       ;= 10000244h
ram:00019ace    344a            ldr         r2,[DAT_00019ba0]                       ;= 4000053Ch
ram:00019ad0    1b68            ldr         r3,[r3,#0x0]=>DAT_10000244              
ram:00019ad2    4ff08041        mov.w       r1,#0x40000000                          
ram:00019ad6    c3f34233        ubfx        r3,r3,#0xd,#0x3                         
ram:00019ada    1360            str         r3,[r2,#0x0]=>DAT_4000053c              
ram:00019adc    4ff08052        mov.w       r2,#0x10000000                          
ram:00019ae0    0023            movs        r3,#0x0                                 
ram:00019ae2    c1f80c31        str.w       r3,[r1,#offset DAT_4000010c &0xffff]    
ram:00019ae6    c1f81031        str.w       r3,[r1,#offset DAT_40000110 &0xffff]    
ram:00019aea    c1f83835        str.w       r3,[r1,#offset DAT_40000538 &0xffff]    
ram:00019aee    2d4b            ldr         r3,[DAT_00019ba4]                       ;= 4000C000h
ram:00019af0    d2f80404        ldr.w       r0,[r2,#offset DAT_10000404 &0xffff]    
ram:00019af4    c3f82005        str.w       r0,[r3,#0x520]=>DAT_4000c520            
ram:00019af8    d2f80804        ldr.w       r0,[r2,#offset DAT_10000408 &0xffff]    
ram:00019afc    c3f82405        str.w       r0,[r3,#0x524]=>DAT_4000c524            
ram:00019b00    d2f80c04        ldr.w       r0,[r2,#offset DAT_1000040c &0xffff]    
ram:00019b04    c3f82805        str.w       r0,[r3,#0x528]=>DAT_4000c528            
ram:00019b08    d2f81004        ldr.w       r0,[r2,#offset DAT_10000410 &0xffff]    
ram:00019b0c    c3f82c05        str.w       r0,[r3,#0x52c]=>DAT_4000c52c            
ram:00019b10    d2f81404        ldr.w       r0,[r2,#offset DAT_10000414 &0xffff]    
ram:00019b14    c3f83005        str.w       r0,[r3,#0x530]=>DAT_4000c530            
ram:00019b18    d2f81804        ldr.w       r0,[r2,#offset DAT_10000418 &0xffff]    
ram:00019b1c    c3f83405        str.w       r0,[r3,#0x534]=>DAT_4000c534            
ram:00019b20    d2f81c04        ldr.w       r0,[r2,#offset DAT_1000041c &0xffff]    
ram:00019b24    c3f84005        str.w       r0,[r3,#0x540]=>DAT_4000c540            
ram:00019b28    d2f82004        ldr.w       r0,[r2,#offset DAT_10000420 &0xffff]    
ram:00019b2c    c3f84405        str.w       r0,[r3,#0x544]=>DAT_4000c544            
ram:00019b30    d2f82404        ldr.w       r0,[r2,#offset DAT_10000424 &0xffff]    
ram:00019b34    c3f84805        str.w       r0,[r3,#0x548]=>DAT_4000c548            
ram:00019b38    d2f82804        ldr.w       r0,[r2,#offset DAT_10000428 &0xffff]    
ram:00019b3c    c3f84c05        str.w       r0,[r3,#0x54c]=>DAT_4000c54c            
ram:00019b40    d2f82c04        ldr.w       r0,[r2,#offset DAT_1000042c &0xffff]    
ram:00019b44    c3f85005        str.w       r0,[r3,#0x550]=>DAT_4000c550            
ram:00019b48    d2f83004        ldr.w       r0,[r2,#offset DAT_10000430 &0xffff]    
ram:00019b4c    c3f85405        str.w       r0,[r3,#0x554]=>DAT_4000c554            
ram:00019b50    d2f83404        ldr.w       r0,[r2,#offset DAT_10000434 &0xffff]    
ram:00019b54    c3f86005        str.w       r0,[r3,#0x560]=>DAT_4000c560            
ram:00019b58    d2f83804        ldr.w       r0,[r2,#offset DAT_10000438 &0xffff]    
ram:00019b5c    c3f86405        str.w       r0,[r3,#0x564]=>DAT_4000c564            
ram:00019b60    d2f83c04        ldr.w       r0,[r2,#offset DAT_1000043c &0xffff]    
ram:00019b64    c3f86805        str.w       r0,[r3,#0x568]=>DAT_4000c568            
ram:00019b68    d2f84004        ldr.w       r0,[r2,#offset DAT_10000440 &0xffff]    
ram:00019b6c    c3f86c05        str.w       r0,[r3,#0x56c]=>DAT_4000c56c            
ram:00019b70    d2f84424        ldr.w       r2,[r2,#offset DAT_10000444 &0xffff]    
ram:00019b74    c3f87025        str.w       r2,[r3,#0x570]=>DAT_4000c570            
ram:00019b78    0b4b            ldr         r3,[DAT_00019ba8]                       ;= 10000258h
ram:00019b7a    0c4a            ldr         r2,[DAT_00019bac]                       ;= 40000EE4h
ram:00019b7c    1b68            ldr         r3,[r3,#0x0]=>DAT_10000258              
ram:00019b7e    03f04f03        and         r3,r3,#0x4f                             
ram:00019b82    1360            str         r3,[r2,#0x0]=>DAT_40000ee4              
ram:00019b84    d1f80034        ldr.w       r3,[r1,#offset DAT_40000400 &0xffff]    
ram:00019b88    094a            ldr         r2,[DAT_00019bb0]                       ;= 03D09000h
ram:00019b8a    db07            lsls        r3,r3,#0x1f                             
ram:00019b8c    44bf            itt         mi                                      
ram:00019b8e    6ff00103        mvn.mi      r3,#0x1                                 
ram:00019b92    c1f80034        str.w.mi    r3,[r1,#offset DAT_40000400 &0xffff]    
ram:00019b96    074b            ldr         r3,[DAT_00019bb4]                       ;= 20001C18h
ram:00019b98    1a60            str         r2,[r3,#0x0]=>DAT_20001c18              
ram:00019b9a    7047            bx          lr                                      
                            DAT_00019b9c:                 ;XREF[1,0]:   00019acc
ram:00019b9c    44020010        undefined4  10000244h                               
                            DAT_00019ba0:                 ;XREF[1,0]:   00019ace
ram:00019ba0    3c050040        undefined4  4000053Ch                               
                            DAT_00019ba4:                 ;XREF[1,0]:   00019aee
ram:00019ba4    00c00040        undefined4  4000C000h                               
                            DAT_00019ba8:                 ;XREF[1,0]:   00019b78
ram:00019ba8    58020010        undefined4  10000258h                               
                            DAT_00019bac:                 ;XREF[1,0]:   00019b7a
ram:00019bac    e40e0040        undefined4  40000EE4h                               
                            DAT_00019bb0:                 ;XREF[1,0]:   00019b88
ram:00019bb0    0090d003        undefined4  03D09000h                               
                            DAT_00019bb4:                 ;XREF[1,0]:   00019b96
ram:00019bb4    181c0020        undefined4  20001C18h                               
                            ;************************************************************************************************
                            ;*                                           FUNCTION                                           *
                            ;************************************************************************************************
                            ;undefined FUN_00019bb8(int param_1)
          ;param_1       int                 r0                      
          ;local_4       undefined4          -4                      ;XREF[2,0]:   00019bc8,00019bca
                                                          ;XREF[11,0]:  00019be0,00019c24,00019c54,00019c68
                                                          ;             00019c86,00019cec,00019d72,00019d7a
                                                          ;             00019d82,00019ec0,00019f0e
ram:00019bb8    00f18040        add.w       param_1,param_1,#0x40000000             
ram:00019bbc    00f5e040        add.w       param_1,param_1,#0x7000                 
ram:00019bc0    0023            movs        r3,#0x0                                 
ram:00019bc2    0360            str         r3,[param_1,#0x0]                       
ram:00019bc4    82b0            sub         sp,#0x8                                 
ram:00019bc6    0368            ldr         r3,[param_1,#0x0]                       
ram:00019bc8    0193            str         r3,[sp,#local_4+0x8]                    
ram:00019bca    019b            ldr         r3,[sp,#local_4+0x8]                    
ram:00019bcc    02b0            add         sp,#0x8                                 
ram:00019bce    7047            bx          lr                                      
                            ;************************************************************************************************
                            ;*                                           FUNCTION                                           *
                            ;************************************************************************************************
                            ;undefined FUNC_VT_00019bd0(void)
          ;local_1c      undefined2         -1c                      ;XREF[1,0]:   00019bf6
          ;local_20      undefined4         -20                      ;XREF[2,1]:   00019bf2,00019cfe,00019d06
          ;local_24      undefined1         -24                      ;XREF[3,0]:   00019bfe,00019c74,00019d02
                                                          ;XREF[0,1]:   0001905c
ram:00019bd0    f0b5            push        {r4,r5,r6,r7,lr}                        
ram:00019bd2    504b            ldr         r3,[DAT_00019d14]                       ;= 40007104h
ram:00019bd4    504c            ldr         r4,[DAT_00019d18]                       ;= 20001DE0h
ram:00019bd6    1b68            ldr         r3,[r3,#0x0]=>DAT_40007104              
ram:00019bd8    85b0            sub         sp,#0x14                                
ram:00019bda    dbb1            cbz         r3,LAB_00019c14                         
ram:00019bdc    4ff48270        mov.w       r0,#0x104                               
ram:00019be0    fff7eaff        bl          FUN_00019bb8                            ;undefined FUN_00019bb8(int param_1)
ram:00019be4    94f82e20        ldrb.w      r2,[r4,#0x2e]=>DAT_20001e0e             
ram:00019be8    12b1            cbz         r2,LAB_00019bf0                         
ram:00019bea    94f82f30        ldrb.w      r3,[r4,#0x2f]=>DAT_20001e0f             
ram:00019bee    a3b1            cbz         r3,LAB_00019c1a                         
                            LAB_00019bf0:                 ;XREF[1,0]:   00019be8
ram:00019bf0    6368            ldr         r3,[r4,#0x4]=>DAT_20001de4              
ram:00019bf2    0293            str         r3,[sp,#local_20+0x28]                  
ram:00019bf4    2389            ldrh        r3,[r4,#0x8]=>DAT_20001de8              
ram:00019bf6    adf80c30        strh.w      r3,[sp,#local_1c+0x28]                  
ram:00019bfa    e368            ldr         r3,[r4,#0xc]=>DAT_20001dec              
ram:00019bfc    0021            movs        r1,#0x0                                 
ram:00019bfe    8df80410        strb.w      r1,[sp,#local_24+0x28]                  
ram:00019c02    002b            cmp         r3,#0x0                                 
ram:00019c04    45d1            bne         LAB_00019c92                            
ram:00019c06    2374            strb        r3,[r4,#0x10]=>DAT_20001df0             
                            LAB_00019c08:                 ;XREF[2,0]:   00019c9e,00019ca6
ram:00019c08    2368            ldr         r3,[r4,#0x0]=>DAT_20001de0              
ram:00019c0a    01a8            add         r0,sp,#0x4                              
ram:00019c0c    9847            blx         r3                                      
ram:00019c0e    0023            movs        r3,#0x0                                 
ram:00019c10    84f82f30        strb.w      r3,[r4,#0x2f]=>DAT_20001e0f             
                            LAB_00019c14:                 ;XREF[1,0]:   00019bda
ram:00019c14    94f82e30        ldrb.w      r3,[r4,#0x2e]=>DAT_20001e0e             
ram:00019c18    0bb3            cbz         r3,LAB_00019c5e                         
                            LAB_00019c1a:                 ;XREF[1,0]:   00019bee
ram:00019c1a    404b            ldr         r3,[DAT_00019d1c]                       ;= 40007100h
ram:00019c1c    1b68            ldr         r3,[r3,#0x0]=>DAT_40007100              
ram:00019c1e    f3b1            cbz         r3,LAB_00019c5e                         
ram:00019c20    4ff48070        mov.w       r0,#0x100                               
ram:00019c24    fff7c8ff        bl          FUN_00019bb8                            ;undefined FUN_00019bb8(int param_1)
ram:00019c28    94f82d10        ldrb.w      r1,[r4,#0x2d]=>DAT_20001e0d             
ram:00019c2c    638b            ldrh        r3,[r4,#0x1a]=>DAT_20001dfa             
ram:00019c2e    8ab2            uxth        r2,r1                                   
ram:00019c30    9342            cmp         r3,r2                                   
ram:00019c32    39d9            bls         LAB_00019ca8                            
ram:00019c34    9b1a            subs        r3,r3,r2                                
ram:00019c36    2289            ldrh        r2,[r4,#0x8]=>DAT_20001de8              
ram:00019c38    9bb2            uxth        r3,r3                                   
ram:00019c3a    92b2            uxth        r2,r2                                   
ram:00019c3c    6383            strh        r3,[r4,#0x1a]=>DAT_20001dfa             
ram:00019c3e    d31a            subs        r3,r2,r3                                
ram:00019c40    6268            ldr         r2,[r4,#0x4]=>DAT_20001de4              
ram:00019c42    02eb4303        add.w       r3,r2,r3, lsl #0x1                      
                            LAB_00019c46:                 ;XREF[1,0]:   00019cb8
ram:00019c46    364a            ldr         r2,[DAT_00019d20]                       ;= 40007000h
ram:00019c48    c2f82c36        str.w       r3,[r2,#0x62c]=>DAT_4000762c            
ram:00019c4c    c2f83016        str.w       r1,[r2,#0x630]=>DAT_40007630            
                            LAB_00019c50:                 ;XREF[2,0]:   00019ca8,00019cbc
ram:00019c50    4ff48270        mov.w       r0,#0x104                               
ram:00019c54    fff7b0ff        bl          FUN_00019bb8                            ;undefined FUN_00019bb8(int param_1)
ram:00019c58    324b            ldr         r3,[DAT_00019d24]                       ;= 40007004h
ram:00019c5a    0122            movs        r2,#0x1                                 
ram:00019c5c    1a60            str         r2,[r3,#0x0]=>DAT_40007004              
                            LAB_00019c5e:                 ;XREF[2,0]:   00019c18,00019c1e
ram:00019c5e    324b            ldr         r3,[DAT_00019d28]                       ;= 40007110h
ram:00019c60    1b68            ldr         r3,[r3,#0x0]=>DAT_40007110              
ram:00019c62    5bb1            cbz         r3,LAB_00019c7c                         
ram:00019c64    4ff48870        mov.w       r0,#0x110                               
ram:00019c68    fff7a6ff        bl          FUN_00019bb8                            ;undefined FUN_00019bb8(int param_1)
ram:00019c6c    0023            movs        r3,#0x0                                 
ram:00019c6e    04a8            add         r0,sp,#0x10                             
ram:00019c70    2374            strb        r3,[r4,#0x10]=>DAT_20001df0             
ram:00019c72    0223            movs        r3,#0x2                                 
ram:00019c74    00f80c3d        strb.w      r3,[r0,#-0xc]!=>local_24                
ram:00019c78    2368            ldr         r3,[r4,#0x0]=>DAT_20001de0              
ram:00019c7a    9847            blx         r3                                      
                            LAB_00019c7c:                 ;XREF[1,0]:   00019c62
ram:00019c7c    2b4b            ldr         r3,[DAT_00019d2c]                       ;= 40007114h
ram:00019c7e    1b68            ldr         r3,[r3,#0x0]=>DAT_40007114              
ram:00019c80    ebb1            cbz         r3,LAB_00019cbe                         
ram:00019c82    4ff48a70        mov.w       r0,#0x114                               
ram:00019c86    fff797ff        bl          FUN_00019bb8                            ;undefined FUN_00019bb8(int param_1)
ram:00019c8a    0023            movs        r3,#0x0                                 
ram:00019c8c    2374            strb        r3,[r4,#0x10]=>DAT_20001df0             
                            LAB_00019c8e:                 ;XREF[1,0]:   00019cc8
ram:00019c8e    05b0            add         sp,#0x14                                
ram:00019c90    f0bd            pop         {r4,r5,r6,r7,pc}                        
                            LAB_00019c92:                 ;XREF[1,0]:   00019c04
ram:00019c92    208b            ldrh        r0,[r4,#0x18]=>DAT_20001df8             
ram:00019c94    6083            strh        r0,[r4,#0x1a]=>DAT_20001dfa             
ram:00019c96    6360            str         r3,[r4,#0x4]=>DAT_20001de4              
ram:00019c98    2081            strh        r0,[r4,#0x8]=>DAT_20001de8              
ram:00019c9a    e160            str         r1,[r4,#0xc]=>DAT_20001dec              
ram:00019c9c    002a            cmp         r2,#0x0                                 
ram:00019c9e    b3d1            bne         LAB_00019c08                            
ram:00019ca0    1f4b            ldr         r3,[DAT_00019d20]                       ;= 40007000h
ram:00019ca2    0122            movs        r2,#0x1                                 
ram:00019ca4    1a60            str         r2,[r3,#0x0]=>DAT_40007000              
ram:00019ca6    afe7            b           LAB_00019c08                            
                            LAB_00019ca8:                 ;XREF[1,0]:   00019c32
ram:00019ca8    d2d1            bne         LAB_00019c50                            
ram:00019caa    e368            ldr         r3,[r4,#0xc]=>DAT_20001dec              
ram:00019cac    0122            movs        r2,#0x1                                 
ram:00019cae    84f82f20        strb.w      r2,[r4,#0x2f]=>DAT_20001e0f             
ram:00019cb2    13b1            cbz         r3,LAB_00019cba                         
ram:00019cb4    0022            movs        r2,#0x0                                 
ram:00019cb6    6283            strh        r2,[r4,#0x1a]=>DAT_20001dfa             
ram:00019cb8    c5e7            b           LAB_00019c46                            
                            LAB_00019cba:                 ;XREF[1,0]:   00019cb2
ram:00019cba    6383            strh        r3,[r4,#0x1a]=>DAT_20001dfa             
ram:00019cbc    c8e7            b           LAB_00019c50                            
                            LAB_00019cbe:                 ;XREF[1,0]:   00019c80
ram:00019cbe    6669            ldr         r6,[r4,#0x14]=>DAT_20001df4             
ram:00019cc0    4ff00047        mov.w       r7,#0x80000000                          
ram:00019cc4    0125            movs        r5,#0x1                                 
                            LAB_00019cc6:                 ;XREF[2,0]:   00019ce8,00019d10
ram:00019cc6    002e            cmp         r6,#0x0                                 
ram:00019cc8    e1d0            beq         LAB_00019c8e                            
ram:00019cca    b6fa86f2        clz         r2,r6                                   
ram:00019cce    27fa02f3        lsr.w       r3,r7,r2                                
ram:00019cd2    9200            lsls        r2,r2,#0x2                              
ram:00019cd4    02f58c72        add.w       r2,r2,#0x118                            
ram:00019cd8    26ea0306        bic.w       r6,r6,r3                                
ram:00019cdc    02f18043        add.w       r3,r2,#0x40000000                       
ram:00019ce0    03f5e043        add.w       r3,r3,#0x7000                           
ram:00019ce4    1b68            ldr         r3,[r3,#0x0]                            
ram:00019ce6    002b            cmp         r3,#0x0                                 
ram:00019ce8    edd0            beq         LAB_00019cc6                            
ram:00019cea    1046            mov         r0,r2                                   
ram:00019cec    fff764ff        bl          FUN_00019bb8                            ;undefined FUN_00019bb8(int param_1)
ram:00019cf0    a2f58c72        sub.w       r2,r2,#0x118                            
ram:00019cf4    d308            lsrs        r3,r2,#0x3                              
ram:00019cf6    82f00402        eor         r2,r2,#0x4                              
ram:00019cfa    c2f38002        ubfx        r2,r2,#0x2,#0x1                         
ram:00019cfe    8df80830        strb.w      r3,[sp,#local_20+0x28]                  
ram:00019d02    8df80450        strb.w      r5,[sp,#local_24+0x28]                  
ram:00019d06    8df80920        strb.w      r2,[sp,#local_20+0x29]                  
ram:00019d0a    2368            ldr         r3,[r4,#0x0]=>DAT_20001de0              
ram:00019d0c    01a8            add         r0,sp,#0x4                              
ram:00019d0e    9847            blx         r3                                      
ram:00019d10    d9e7            b           LAB_00019cc6                            
ram:00019d12    00bf            nop                                                  
                            DAT_00019d14:                 ;XREF[1,0]:   00019bd2
ram:00019d14    04710040        undefined4  40007104h                               
                            DAT_00019d18:                 ;XREF[1,0]:   00019bd4
ram:00019d18    e01d0020        undefined4  20001DE0h                               
                            DAT_00019d1c:                 ;XREF[1,0]:   00019c1a
ram:00019d1c    00710040        undefined4  40007100h                               
                            DAT_00019d20:                 ;XREF[2,0]:   00019c46,00019ca0
ram:00019d20    00700040        undefined4  40007000h                               
                            DAT_00019d24:                 ;XREF[1,0]:   00019c58
ram:00019d24    04700040        undefined4  40007004h                               
                            DAT_00019d28:                 ;XREF[1,0]:   00019c5e
ram:00019d28    10710040        undefined4  40007110h                               
                            DAT_00019d2c:                 ;XREF[1,0]:   00019c7c
ram:00019d2c    14710040        undefined4  40007114h                               
                            ;************************************************************************************************
                            ;*                                           FUNCTION                                           *
                            ;************************************************************************************************
                            ;undefined4 FUN_00019d30(byte * param_1, undefined4 param_2)
          ;param_1       byte *              r0                      
          ;param_2       undefined4          r1                      
                                                          ;XREF[1,0]:   0001c0e0
ram:00019d30    38b5            push        {r3,r4,r5,lr}                           
ram:00019d32    204a            ldr         r2,[DAT_00019db4]                       ;= 20001DE0h
ram:00019d34    92f82c30        ldrb.w      r3,[r2,#0x2c]=>DAT_20001e0c             
ram:00019d38    0546            mov         r5,param_1                              
ram:00019d3a    002b            cmp         r3,#0x0                                 
ram:00019d3c    37d1            bne         LAB_00019dae                            
ram:00019d3e    1160            str         param_2,[r2,#0x0]=>DAT_20001de0         
ram:00019d40    1d49            ldr         param_2,[DAT_00019db8]                  ;= 40007000h
ram:00019d42    0078            ldrb        param_1,[param_1,#0x0]                  
ram:00019d44    c1f8f005        str.w       param_1,[param_2,#0x5f0]=>DAT_400075f0  
ram:00019d48    6878            ldrb        param_1,[r5,#0x1]                       
ram:00019d4a    c1f8f405        str.w       param_1,[param_2,#0x5f4]=>DAT_400075f4  
ram:00019d4e    e878            ldrb        param_1,[r5,#0x3]                       
ram:00019d50    1374            strb        r3,[r2,#0x10]=>DAT_20001df0             
ram:00019d52    82f82d30        strb.w      r3,[r2,#0x2d]=>DAT_20001e0d             
ram:00019d56    5361            str         r3,[r2,#0x14]=>DAT_20001df4             
ram:00019d58    82f82f30        strb.w      r3,[r2,#0x2f]=>DAT_20001e0f             
ram:00019d5c    0124            movs        r4,#0x1                                 
ram:00019d5e    6ff00043        mvn         r3,#0x80000000                          
ram:00019d62    82f82e00        strb.w      param_1,[r2,#0x2e]=>DAT_20001e0e        
ram:00019d66    82f82c40        strb.w      r4,[r2,#0x2c]=>DAT_20001e0c             
ram:00019d6a    4ff48270        mov.w       param_1,#0x104                          
ram:00019d6e    c1f80833        str.w       r3,[param_2,#0x308]=>DAT_40007308       
ram:00019d72    fff721ff        bl          FUN_00019bb8                            ;undefined FUN_00019bb8(int param_1)
ram:00019d76    4ff48070        mov.w       param_1,#0x100                          
ram:00019d7a    fff71dff        bl          FUN_00019bb8                            ;undefined FUN_00019bb8(int param_1)
ram:00019d7e    4ff48a70        mov.w       param_1,#0x114                          
ram:00019d82    fff719ff        bl          FUN_00019bb8                            ;undefined FUN_00019bb8(int param_1)
ram:00019d86    ab78            ldrb        r3,[r5,#0x2]                            
ram:00019d88    0c48            ldr         param_1,[DAT_00019dbc]                  ;= E000E100h
ram:00019d8a    5b01            lsls        r3,r3,#0x5                              
ram:00019d8c    dbb2            uxtb        r3,r3                                   
ram:00019d8e    80f80733        strb.w      r3,[param_1,#0x307]=>DAT_e000e407       
ram:00019d92    8023            movs        r3,#0x80                                
ram:00019d94    0360            str         r3,[param_1,#0x0]=>DAT_e000e100         
ram:00019d96    0223            movs        r3,#0x2                                 
ram:00019d98    c1f80433        str.w       r3,[param_2,#0x304]=>DAT_40007304       
ram:00019d9c    92f82e30        ldrb.w      r3,[r2,#0x2e]=>DAT_20001e0e             
ram:00019da0    0bb1            cbz         r3,LAB_00019da6                         
ram:00019da2    c1f80443        str.w       r4,[param_2,#0x304]=>DAT_40007304       
                            LAB_00019da6:                 ;XREF[1,0]:   00019da0
ram:00019da6    c1f80045        str.w       r4,[param_2,#0x500]=>DAT_40007500       
ram:00019daa    0020            movs        param_1,#0x0                            
ram:00019dac    38bd            pop         {r3,r4,r5,pc}                           
                            LAB_00019dae:                 ;XREF[1,0]:   00019d3c
ram:00019dae    0820            movs        param_1,#0x8                            
ram:00019db0    38bd            pop         {r3,r4,r5,pc}                           
ram:00019db2    00bf            nop                                                  
                            DAT_00019db4:                 ;XREF[1,0]:   00019d32
ram:00019db4    e01d0020        undefined4  20001DE0h                               
                            DAT_00019db8:                 ;XREF[1,0]:   00019d40
ram:00019db8    00700040        undefined4  40007000h                               
                            DAT_00019dbc:                 ;XREF[1,0]:   00019d88
ram:00019dbc    00e100e0        undefined4  E000E100h                               
                            ;************************************************************************************************
                            ;*                                           FUNCTION                                           *
                            ;************************************************************************************************
                            ;undefined4 FUN_00019dc0(int param_1, byte * param_2)
          ;param_1       int                 r0                      
          ;param_2       byte *              r1                      
                                                          ;XREF[2,0]:   0001c11e,0001c134
ram:00019dc0    10b5            push        {r4,lr}                                 
ram:00019dc2    2c4b            ldr         r3,[DAT_00019e74]                       ;= 20001DE0h
ram:00019dc4    1a7c            ldrb        r2,[r3,#0x10]=>DAT_20001df0             
ram:00019dc6    02f0ff04        and         r4,r2,#0xff                             
ram:00019dca    002a            cmp         r2,#0x0                                 
ram:00019dcc    4fd1            bne         LAB_00019e6e                            
ram:00019dce    0a79            ldrb        r2,[param_2,#0x4]                       
ram:00019dd0    012a            cmp         r2,#0x1                                 
ram:00019dd2    9cbf            itt         ls                                      
ram:00019dd4    284a            ldr.ls      r2,[DAT_00019e78]                       ;= 40007000h
ram:00019dd6    c2f80045        str.w.ls    r4,[r2,#0x500]                          
ram:00019dda    00f10c04        add.w       r4,param_1,#0xc                         
ram:00019dde    03eb4402        add.w       r2,r3,r4, lsl #0x1                      
ram:00019de2    1279            ldrb        r2,[r2,#0x4]=>DAT_20001de4              
ram:00019de4    22b9            cbnz        r2,LAB_00019df0                         
ram:00019de6    93f82d20        ldrb.w      r2,[r3,#0x2d]=>DAT_20001e0d             
ram:00019dea    0132            adds        r2,#0x1                                 
ram:00019dec    83f82d20        strb.w      r2,[r3,#0x2d]=>DAT_20001e0d             
                            LAB_00019df0:                 ;XREF[1,0]:   00019de4
ram:00019df0    03eb4403        add.w       r3,r3,r4, lsl #0x1                      
ram:00019df4    ca79            ldrb        r2,[param_2,#0x7]                       
ram:00019df6    1a71            strb        r2,[r3,#0x4]=>DAT_20001de4              
ram:00019df8    0a7a            ldrb        r2,[param_2,#0x8]                       
ram:00019dfa    5a71            strb        r2,[r3,#0x5]                            
ram:00019dfc    4b78            ldrb        r3,[param_2,#0x1]                       
ram:00019dfe    8a78            ldrb        r2,[param_2,#0x2]                       
ram:00019e00    1b01            lsls        r3,r3,#0x4                              
ram:00019e02    1202            lsls        r2,r2,#0x8                              
ram:00019e04    02f4e062        and         r2,r2,#0x700                            
ram:00019e08    03f03003        and         r3,r3,#0x30                             
ram:00019e0c    1343            orrs        r3,r2                                   
ram:00019e0e    0a78            ldrb        r2,[param_2,#0x0]                       
ram:00019e10    02f00302        and         r2,r2,#0x3                              
ram:00019e14    1343            orrs        r3,r2                                   
ram:00019e16    ca78            ldrb        r2,[param_2,#0x3]                       
ram:00019e18    1203            lsls        r2,r2,#0xc                              
ram:00019e1a    02f48052        and         r2,r2,#0x1000                           
ram:00019e1e    1343            orrs        r3,r2                                   
ram:00019e20    0a79            ldrb        r2,[param_2,#0x4]                       
ram:00019e22    1204            lsls        r2,r2,#0x10                             
ram:00019e24    02f4e022        and         r2,r2,#0x70000                          
ram:00019e28    1343            orrs        r3,r2                                   
ram:00019e2a    4a79            ldrb        r2,[param_2,#0x5]                       
ram:00019e2c    1205            lsls        r2,r2,#0x14                             
ram:00019e2e    02f48012        and         r2,r2,#0x100000                         
ram:00019e32    1343            orrs        r3,r2                                   
ram:00019e34    8a79            ldrb        r2,[param_2,#0x6]                       
ram:00019e36    1206            lsls        r2,r2,#0x18                             
ram:00019e38    02f08072        and         r2,r2,#0x1000000                        
ram:00019e3c    1343            orrs        r3,r2                                   
ram:00019e3e    0e4a            ldr         r2,[DAT_00019e78]                       ;= 40007000h
ram:00019e40    02eb0014        add.w       r4,r2,param_1, lsl #0x4                 
ram:00019e44    0001            lsls        param_1,param_1,#0x4                    
ram:00019e46    00f18040        add.w       param_1,param_1,#0x40000000             
ram:00019e4a    c4f81835        str.w       r3,[r4,#0x518]                          
ram:00019e4e    00f5e040        add.w       param_1,param_1,#0x7000                 
ram:00019e52    cb79            ldrb        r3,[param_2,#0x7]                       
ram:00019e54    0c7a            ldrb        r4,[param_2,#0x8]                       
ram:00019e56    c0f81445        str.w       r4,[param_1,#0x514]                     
ram:00019e5a    c0f81035        str.w       r3,[param_1,#0x510]                     
ram:00019e5e    0b79            ldrb        r3,[param_2,#0x4]                       
ram:00019e60    012b            cmp         r3,#0x1                                 
ram:00019e62    02d8            bhi         LAB_00019e6a                            
ram:00019e64    0123            movs        r3,#0x1                                 
ram:00019e66    c2f80035        str.w       r3,[r2,#0x500]=>DAT_40007500            
                            LAB_00019e6a:                 ;XREF[1,0]:   00019e62
ram:00019e6a    0020            movs        param_1,#0x0                            
ram:00019e6c    10bd            pop         {r4,pc}                                 
                            LAB_00019e6e:                 ;XREF[1,0]:   00019dcc
ram:00019e6e    1120            movs        param_1,#0x11                           
ram:00019e70    10bd            pop         {r4,pc}                                 
ram:00019e72    00bf            nop                                                  
                            DAT_00019e74:                 ;XREF[1,0]:   00019dc2
ram:00019e74    e01d0020        undefined4  20001DE0h                               
                            DAT_00019e78:                 ;XREF[2,0]:   00019dd4,00019e3e
ram:00019e78    00700040        undefined4  40007000h                               
                            ;************************************************************************************************
                            ;*                                           FUNCTION                                           *
                            ;************************************************************************************************
                            ;undefined4 FUN_00019e7c(undefined4 param_1, undefined4 param_2)
          ;param_1       undefined4          r0                      
          ;param_2       undefined4          r1                      
                                                          ;XREF[2,0]:   0001bf88,0001c142
ram:00019e7c    70b5            push        {r4,r5,r6,lr}                           
ram:00019e7e    264a            ldr         r2,[DAT_00019f18]                       ;= 40007000h
ram:00019e80    264b            ldr         r3,[DAT_00019f1c]                       ;= 20001DE0h
ram:00019e82    0546            mov         r5,param_1                              
ram:00019e84    1220            movs        param_1,#0x12                           
ram:00019e86    c2f80803        str.w       param_1,[r2,#0x308]=>DAT_40007308       
ram:00019e8a    1c7c            ldrb        r4,[r3,#0x10]=>DAT_20001df0             
ram:00019e8c    022c            cmp         r4,#0x2                                 
ram:00019e8e    03d1            bne         LAB_00019e98                            
ram:00019e90    c2f80403        str.w       param_1,[r2,#0x304]=>DAT_40007304       
                            LAB_00019e94:                 ;XREF[1,0]:   00019ea8
ram:00019e94    1120            movs        param_1,#0x11                           
ram:00019e96    70bd            pop         {r4,r5,r6,pc}                           
                            LAB_00019e98:                 ;XREF[1,0]:   00019e8e
ram:00019e98    187c            ldrb        param_1,[r3,#0x10]=>DAT_20001df0        
ram:00019e9a    0128            cmp         param_1,#0x1                            
ram:00019e9c    1dd1            bne         LAB_00019eda                            
ram:00019e9e    d868            ldr         param_1,[r3,#0xc]=>DAT_20001dec         
ram:00019ea0    18b1            cbz         param_1,LAB_00019eaa                    
ram:00019ea2    0223            movs        r3,#0x2                                 
ram:00019ea4    c2f80433        str.w       r3,[r2,#0x304]=>DAT_40007304            
ram:00019ea8    f4e7            b           LAB_00019e94                            
                            LAB_00019eaa:                 ;XREF[1,0]:   00019ea0
ram:00019eaa    dd60            str         r5,[r3,#0xc]=>DAT_20001dec              
ram:00019eac    1983            strh        param_2,[r3,#0x18]=>DAT_20001df8        
ram:00019eae    93f82e30        ldrb.w      r3,[r3,#0x2e]=>DAT_20001e0e             
ram:00019eb2    63b9            cbnz        r3,LAB_00019ece                         
ram:00019eb4    1a4a            ldr         r2,[DAT_00019f20]                       ;= 40007100h
                            LAB_00019eb6:                 ;XREF[1,0]:   00019eba
ram:00019eb6    1368            ldr         r3,[r2,#0x0]=>DAT_40007100              
ram:00019eb8    002b            cmp         r3,#0x0                                 
ram:00019eba    fcd0            beq         LAB_00019eb6                            
ram:00019ebc    4ff48070        mov.w       param_1,#0x100                          
ram:00019ec0    fff77afe        bl          FUN_00019bb8                            ;undefined FUN_00019bb8(int param_1)
ram:00019ec4    144b            ldr         r3,[DAT_00019f18]                       ;= 40007000h
ram:00019ec6    c3f82c56        str.w       r5,[r3,#0x62c]=>DAT_4000762c            
ram:00019eca    c3f83016        str.w       param_2,[r3,#0x630]=>DAT_40007630       
                            LAB_00019ece:                 ;XREF[1,0]:   00019eb2
ram:00019ece    124b            ldr         r3,[DAT_00019f18]                       ;= 40007000h
ram:00019ed0    0222            movs        r2,#0x2                                 
ram:00019ed2    c3f80423        str.w       r2,[r3,#0x304]=>DAT_40007304            
                            LAB_00019ed6:                 ;XREF[1,0]:   00019f14
ram:00019ed6    0020            movs        param_1,#0x0                            
ram:00019ed8    70bd            pop         {r4,r5,r6,pc}                           
                            LAB_00019eda:                 ;XREF[1,0]:   00019e9c
ram:00019eda    0220            movs        param_1,#0x2                            
ram:00019edc    c2f80403        str.w       param_1,[r2,#0x304]=>DAT_40007304       
ram:00019ee0    93f82e40        ldrb.w      r4,[r3,#0x2e]=>DAT_20001e0e             
ram:00019ee4    5d60            str         r5,[r3,#0x4]=>DAT_20001de4              
ram:00019ee6    0126            movs        r6,#0x1                                 
ram:00019ee8    0020            movs        param_1,#0x0                            
ram:00019eea    1e74            strb        r6,[r3,#0x10]=>DAT_20001df0             
ram:00019eec    d860            str         param_1,[r3,#0xc]=>DAT_20001dec         
ram:00019eee    1981            strh        param_2,[r3,#0x8]=>DAT_20001de8         
ram:00019ef0    3cb1            cbz         r4,LAB_00019f02                         
ram:00019ef2    5983            strh        param_2,[r3,#0x1a]=>DAT_20001dfa        
ram:00019ef4    93f82d30        ldrb.w      r3,[r3,#0x2d]=>DAT_20001e0d             
ram:00019ef8    c2f82c56        str.w       r5,[r2,#0x62c]=>DAT_4000762c            
ram:00019efc    c2f83036        str.w       r3,[r2,#0x630]=>DAT_40007630            
ram:00019f00    70bd            pop         {r4,r5,r6,pc}                           
                            LAB_00019f02:                 ;XREF[1,0]:   00019ef0
ram:00019f02    c2f82c56        str.w       r5,[r2,#0x62c]=>DAT_4000762c            
ram:00019f06    4ff48070        mov.w       param_1,#0x100                          
ram:00019f0a    c2f83016        str.w       param_2,[r2,#0x630]=>DAT_40007630       
ram:00019f0e    fff753fe        bl          FUN_00019bb8                            ;undefined FUN_00019bb8(int param_1)
ram:00019f12    1660            str         r6,[r2,#0x0]=>DAT_40007000              
ram:00019f14    dfe7            b           LAB_00019ed6                            
ram:00019f16    00bf            nop                                                  
                            DAT_00019f18:                 ;XREF[3,0]:   00019e7e,00019ec4,00019ece
ram:00019f18    00700040        undefined4  40007000h                               
                            DAT_00019f1c:                 ;XREF[1,0]:   00019e80
ram:00019f1c    e01d0020        undefined4  20001DE0h                               
                            DAT_00019f20:                 ;XREF[1,0]:   00019eb4
ram:00019f20    00710040        undefined4  40007100h                               
                            ;************************************************************************************************
                            ;*                                           FUNCTION                                           *
                            ;************************************************************************************************
                            ;undefined4 FUN_00019f24(void)
                                                          ;XREF[1,0]:   0001c17c
ram:00019f24    084a            ldr         r2,[DAT_00019f48]                       ;= 20001DE0h
ram:00019f26    137c            ldrb        r3,[r2,#0x10]=>DAT_20001df0             
ram:00019f28    dbb2            uxtb        r3,r3                                   
ram:00019f2a    012b            cmp         r3,#0x1                                 
ram:00019f2c    09d1            bne         LAB_00019f42                            
ram:00019f2e    92f82e00        ldrb.w      r0,[r2,#0x2e]=>DAT_20001e0e             
ram:00019f32    18b1            cbz         r0,LAB_00019f3c                         
ram:00019f34    054a            ldr         r2,[DAT_00019f4c]                       ;= 40007000h
ram:00019f36    0020            movs        r0,#0x0                                 
ram:00019f38    1360            str         r3,[r2,#0x0]=>DAT_40007000              
ram:00019f3a    7047            bx          lr                                      
                            LAB_00019f3c:                 ;XREF[1,0]:   00019f32
ram:00019f3c    044a            ldr         r2,[DAT_00019f50]                       ;= 40007004h
ram:00019f3e    1360            str         r3,[r2,#0x0]=>DAT_40007004              
ram:00019f40    7047            bx          lr                                      
                            LAB_00019f42:                 ;XREF[1,0]:   00019f2c
ram:00019f42    0820            movs        r0,#0x8                                 
ram:00019f44    7047            bx          lr                                      
ram:00019f46    00bf            nop                                                  
                            DAT_00019f48:                 ;XREF[1,0]:   00019f24
ram:00019f48    e01d0020        undefined4  20001DE0h                               
                            DAT_00019f4c:                 ;XREF[1,0]:   00019f34
ram:00019f4c    00700040        undefined4  40007000h                               
                            DAT_00019f50:                 ;XREF[1,0]:   00019f3c
ram:00019f50    04700040        undefined4  40007004h                               
                            ;************************************************************************************************
                            ;*                                           FUNCTION                                           *
                            ;************************************************************************************************
                            ;undefined FUN_00019f54(int param_1, uint param_2, int param_3)
          ;param_1       int                 r0                      
          ;param_2       uint                r1                      
          ;param_3       int                 r2                      
                                                          ;XREF[1,0]:   0001a014
ram:00019f54    70b5            push        {r4,r5,r6,lr}                           
ram:00019f56    1d4d            ldr         r5,[DAT_00019fcc]                       ;= 40007000h
ram:00019f58    8bb2            uxth        r3,param_2                              
ram:00019f5a    05eb0014        add.w       r4,r5,param_1, lsl #0x4                 
ram:00019f5e    43ea0243        orr.w       r3,r3,param_3, lsl #0x10                
ram:00019f62    c4f81c35        str.w       r3,[r4,#0x51c]                          
ram:00019f66    4000            lsls        param_1,param_1,#0x1                    
ram:00019f68    194b            ldr         r3,[DAT_00019fd0]                       ;= 20001DE0h
ram:00019f6a    11f5006f        cmn         param_2,#0x800                          
ram:00019f6e    00f10106        add.w       r6,param_1,#0x1                         
ram:00019f72    4ff00041        mov.w       param_2,#0x80000000                     
ram:00019f76    21fa06f1        lsr.w       param_2,param_2,r6                      
ram:00019f7a    5e69            ldr         r6,[r3,#0x14]=>DAT_20001df4             
ram:00019f7c    4ff08004        mov.w       r4,#0x80                                
ram:00019f80    04fa00f4        lsl.w       r4,r4,param_1                           
ram:00019f84    0bbf            itete       eq                                      
ram:00019f86    26ea0101        bic.eq.w    param_2,r6,param_2                      
ram:00019f8a    3143            orr.ne      param_2,r6                              
ram:00019f8c    5961            str.eq      param_2,[r3,#0x14]=>DAT_20001df4        
ram:00019f8e    5961            str.ne      param_2,[r3,#0x14]=>DAT_20001df4        
ram:00019f90    0cbf            ite         eq                                      
ram:00019f92    c5f80843        str.w.eq    r4,[r5,#0x308]=>DAT_40007308            
ram:00019f96    c5f80443        str.w.ne    r4,[r5,#0x304]=>DAT_40007304            
ram:00019f9a    40f2ff74        movw        r4,#0x7ff                               
ram:00019f9e    a242            cmp         param_3,r4                              
ram:00019fa0    4ff04001        mov.w       param_2,#0x40                           
ram:00019fa4    4ff00042        mov.w       param_3,#0x80000000                     
ram:00019fa8    01fa00f1        lsl.w       param_2,param_2,param_1                 
ram:00019fac    22fa00f0        lsr.w       param_1,param_3,param_1                 
ram:00019fb0    5a69            ldr         param_3,[r3,#0x14]=>DAT_20001df4        
ram:00019fb2    064c            ldr         r4,[DAT_00019fcc]                       ;= 40007000h
ram:00019fb4    0bbf            itete       eq                                      
ram:00019fb6    22ea0000        bic.eq.w    param_1,param_3,param_1                 
ram:00019fba    1043            orr.ne      param_1,param_3                         
ram:00019fbc    5861            str.eq      param_1,[r3,#0x14]=>DAT_20001df4        
ram:00019fbe    5861            str.ne      param_1,[r3,#0x14]=>DAT_20001df4        
ram:00019fc0    0cbf            ite         eq                                      
ram:00019fc2    c4f80813        str.w.eq    param_2,[r4,#0x308]=>DAT_40007308       
ram:00019fc6    c4f80413        str.w.ne    param_2,[r4,#0x304]=>DAT_40007304       
ram:00019fca    70bd            pop         {r4,r5,r6,pc}                           
                            DAT_00019fcc:                 ;XREF[2,0]:   00019f56,00019fb2
ram:00019fcc    00700040        undefined4  40007000h                               
                            DAT_00019fd0:                 ;XREF[1,0]:   00019f68
ram:00019fd0    e01d0020        undefined4  20001DE0h                               
                            ;************************************************************************************************
                            ;*                                           FUNCTION                                           *
                            ;************************************************************************************************
                            ;undefined4 FUN_00019fd4(int param_1)
          ;param_1       int                 r0                      
                                                          ;XREF[1,0]:   0001a064
ram:00019fd4    10b5            push        {r4,lr}                                 
ram:00019fd6    124b            ldr         r3,[DAT_0001a020]                       ;= 20001DE0h
ram:00019fd8    1a7c            ldrb        r2,[r3,#0x10]=>DAT_20001df0             
ram:00019fda    fab9            cbnz        r2,LAB_0001a01c                         
ram:00019fdc    00f10c01        add.w       r1,param_1,#0xc                         
ram:00019fe0    03eb4102        add.w       r2,r3,r1, lsl #0x1                      
ram:00019fe4    1279            ldrb        r2,[r2,#0x4]=>DAT_20001de4              
ram:00019fe6    22b1            cbz         r2,LAB_00019ff2                         
ram:00019fe8    93f82d20        ldrb.w      r2,[r3,#0x2d]=>DAT_20001e0d             
ram:00019fec    013a            subs        r2,#0x1                                 
ram:00019fee    83f82d20        strb.w      r2,[r3,#0x2d]=>DAT_20001e0d             
                            LAB_00019ff2:                 ;XREF[1,0]:   00019fe6
ram:00019ff2    03eb4103        add.w       r3,r3,r1, lsl #0x1                      
ram:00019ff6    0024            movs        r4,#0x0                                 
ram:00019ff8    1c71            strb        r4,[r3,#0x4]=>DAT_20001de4              
ram:00019ffa    5c71            strb        r4,[r3,#0x5]                            
ram:00019ffc    0301            lsls        r3,param_1,#0x4                         
ram:00019ffe    03f18043        add.w       r3,r3,#0x40000000                       
ram:0001a002    03f5e043        add.w       r3,r3,#0x7000                           
ram:0001a006    40f2ff72        movw        r2,#0x7ff                               
ram:0001a00a    c3f81445        str.w       r4,[r3,#0x514]                          
ram:0001a00e    0549            ldr         r1,[DAT_0001a024]                       ;= FFFFF800h
ram:0001a010    c3f81045        str.w       r4,[r3,#0x510]                          
ram:0001a014    fff79eff        bl          FUN_00019f54                            ;undefined FUN_00019f54(int param_1, ...
ram:0001a018    2046            mov         param_1,r4                              
ram:0001a01a    10bd            pop         {r4,pc}                                 
                            LAB_0001a01c:                 ;XREF[1,0]:   00019fda
ram:0001a01c    1120            movs        param_1,#0x11                           
ram:0001a01e    10bd            pop         {r4,pc}                                 
                            DAT_0001a020:                 ;XREF[1,0]:   00019fd6
ram:0001a020    e01d0020        undefined4  20001DE0h                               
                            DAT_0001a024:                 ;XREF[1,0]:   0001a00e
ram:0001a024    00f8ffff        undefined4  FFFFF800h                               
                            ;************************************************************************************************
                            ;*                                           FUNCTION                                           *
                            ;************************************************************************************************
                            ;undefined FUN_0001a028(void)
                                                          ;XREF[1,0]:   0001bf92
ram:0001a028    38b5            push        {r3,r4,r5,lr}                           
ram:0001a02a    134b            ldr         r3,[DAT_0001a078]                       ;= 40007000h
ram:0001a02c    6ff00042        mvn         r2,#0x80000000                          
ram:0001a030    c3f80823        str.w       r2,[r3,#0x308]=>DAT_40007308            
ram:0001a034    114a            ldr         r2,[DAT_0001a07c]                       ;= E000E100h
ram:0001a036    8021            movs        r1,#0x80                                
ram:0001a038    c2f88010        str.w       r1,[r2,#offset DAT_e000e180 &0xff]      
ram:0001a03c    104a            ldr         r2,[DAT_0001a080]                       ;= 40007008h
ram:0001a03e    0121            movs        r1,#0x1                                 
ram:0001a040    1160            str         r1,[r2,#0x0]=>DAT_40007008              
ram:0001a042    1049            ldr         r1=>DAT_40007114,[DAT_0001a084]         ;= 40007114h
ram:0001a044    42f21072        movw        r2,#0x2710                              
                            LAB_0001a048:                 ;XREF[1,0]:   0001a04e
ram:0001a048    0868            ldr         r0,[r1,#0x0]=>DAT_40007114              
ram:0001a04a    08b9            cbnz        r0,LAB_0001a050                         
ram:0001a04c    013a            subs        r2,#0x1                                 
ram:0001a04e    fbd1            bne         LAB_0001a048                            
                            LAB_0001a050:                 ;XREF[1,0]:   0001a04a
ram:0001a050    0d4d            ldr         r5,[DAT_0001a088]                       ;= 20001DE0h
ram:0001a052    0024            movs        r4,#0x0                                 
ram:0001a054    c3f80045        str.w       r4,[r3,#0x500]=>DAT_40007500            
ram:0001a058    2c74            strb        r4,[r5,#0x10]=>DAT_20001df0             
                            LAB_0001a05a:                 ;XREF[1,0]:   0001a06c
ram:0001a05a    05eb4403        add.w       r3,r5,r4, lsl #0x1                      
                                                          ; FWD[2,0]:   20001dfc,20001dfe
ram:0001a05e    1b7f            ldrb        r3,[r3,#0x1c]=>DAT_20001dfc             
ram:0001a060    13b1            cbz         r3,LAB_0001a068                         
ram:0001a062    e0b2            uxtb        r0,r4                                   
ram:0001a064    fff7b6ff        bl          FUN_00019fd4                            ;undefined4 FUN_00019fd4(int param_1)
                            LAB_0001a068:                 ;XREF[1,0]:   0001a060
ram:0001a068    0134            adds        r4,#0x1                                 
ram:0001a06a    082c            cmp         r4,#0x8                                 
ram:0001a06c    f5d1            bne         LAB_0001a05a                            
ram:0001a06e    0023            movs        r3,#0x0                                 
ram:0001a070    85f82c30        strb.w      r3,[r5,#0x2c]=>DAT_20001e0c             
ram:0001a074    38bd            pop         {r3,r4,r5,pc}                           
ram:0001a076    00bf            nop                                                  
                            DAT_0001a078:                 ;XREF[1,0]:   0001a02a
ram:0001a078    00700040        undefined4  40007000h                               
                            DAT_0001a07c:                 ;XREF[1,0]:   0001a034
ram:0001a07c    00e100e0        undefined4  E000E100h                               
                            DAT_0001a080:                 ;XREF[1,0]:   0001a03c
ram:0001a080    08700040        undefined4  40007008h                               
                            DAT_0001a084:                 ;XREF[1,0]:   0001a042
ram:0001a084    14710040        undefined4  40007114h                               
                            DAT_0001a088:                 ;XREF[1,0]:   0001a050
ram:0001a088    e01d0020        undefined4  20001DE0h                               
                            ;************************************************************************************************
                            ;*                                           FUNCTION                                           *
                            ;************************************************************************************************
                            ;uint FUN_0001a08c(byte * param_1, uint param_2, undefined4 param_3)
          ;param_1       byte *              r0                      
          ;param_2       uint                r1                      
          ;param_3       undefined4          r2                      
          ;local_29      undefined1         -29                      ;XREF[2,0]:   0001a0ae,0001a0cc
                                                          ;XREF[1,0]:   0001c216
ram:0001a08c    2de9f74f        push        {param_1,param_2,param_3,r4,r5,r6,r7,...
ram:0001a090    4ff00009        mov.w       r9,#0x0                                 
ram:0001a094    154d            ldr         r5,[DAT_0001a0ec]                       ;= 0001FFFFh
ram:0001a096    164e            ldr         r6,[DAT_0001a0f0]                       ;= 20001E10h
ram:0001a098    0746            mov         r7,param_1                              
ram:0001a09a    4ff0040a        mov.w       r10,#0x4                                
ram:0001a09e    c846            mov         r8,r9                                   
                            LAB_0001a0a0:                 ;XREF[1,0]:   0001a0e0
ram:0001a0a0    5ffa89fb        uxtb.w      r11,r9                                  
ram:0001a0a4    0124            movs        r4,#0x1                                 
ram:0001a0a6    0df10700        add.w       param_1,sp,#0x7                         
ram:0001a0aa    04fa0bf4        lsl.w       r4,r4,r11                               
ram:0001a0ae    8df80780        strb.w      r8,[sp,#local_29+0x30]                  
ram:0001a0b2    fff7e7fb        bl          FUN_00019884                            ;undefined FUN_00019884(undefined * p...
ram:0001a0b6    2c42            tst         r4,r5                                   
ram:0001a0b8    08d0            beq         LAB_0001a0cc                            
ram:0001a0ba    3368            ldr         r3,[r6,#0x0]=>DAT_20001e10              
ram:0001a0bc    14ea0302        ands.w      param_3,r4,r3                           
ram:0001a0c0    01bf            itttt       eq                                      
ram:0001a0c2    2343            orr.eq      r3,r4                                   
ram:0001a0c4    3360            str.eq      r3,[r6,#0x0]=>DAT_20001e10              
ram:0001a0c6    87f800b0        strb.eq.w   r11,[r7,#0x0]                           
ram:0001a0ca    9246            mov.eq      r10,param_3                             
                            LAB_0001a0cc:                 ;XREF[1,0]:   0001a0b8
ram:0001a0cc    9df80700        ldrb.w      param_1,[sp,#local_29+0x30]             
ram:0001a0d0    fff7fcfb        bl          FUN_000198cc                            ;undefined FUN_000198cc(int param_1)
ram:0001a0d4    baf1000f        cmp.w       r10,#0x0                                
ram:0001a0d8    03d0            beq         LAB_0001a0e2                            
ram:0001a0da    a543            bics        r5,r4                                   
ram:0001a0dc    09f10109        add.w       r9,r9,#0x1                              
ram:0001a0e0    ded1            bne         LAB_0001a0a0                            
                            LAB_0001a0e2:                 ;XREF[1,0]:   0001a0d8
ram:0001a0e2    5046            mov         param_1,r10                             
ram:0001a0e4    03b0            add         sp,#0xc                                 
ram:0001a0e6    bde8f08f        pop.w       {r4,r5,r6,r7,r8,r9,r10,r11,pc}          
                            DAT_0001a0ec:                 ;XREF[1,0]:   0001a094
ram:0001a0ec    ffff0100        undefined4  0001FFFFh                               
                            DAT_0001a0f0:                 ;XREF[1,0]:   0001a096
ram:0001a0f0    101e0020        undefined4  20001E10h                               
                            ;************************************************************************************************
                            ;*                                           FUNCTION                                           *
                            ;************************************************************************************************
                            ;undefined4 FUN_0001a0f4(uint param_1, int param_2, int param_3)
          ;param_1       uint                r0                      
          ;param_2       int                 r1                      
          ;param_3       int                 r2                      
                                                          ;XREF[1,0]:   0001c23a
ram:0001a0f4    10b5            push        {r4,lr}                                 
ram:0001a0f6    a1b1            cbz         param_2,LAB_0001a122                    
ram:0001a0f8    9ab1            cbz         param_3,LAB_0001a122                    
ram:0001a0fa    0123            movs        r3,#0x1                                 
ram:0001a0fc    8340            lsls        r3,param_1                              
ram:0001a0fe    c3f31004        ubfx        r4,r3,#0x0,#0x11                        
ram:0001a102    84b1            cbz         r4,LAB_0001a126                         
ram:0001a104    0a4c            ldr         r4,[DAT_0001a130]                       ;= 20001E10h
ram:0001a106    2468            ldr         r4,[r4,#0x0]=>DAT_20001e10              
ram:0001a108    2342            tst         r3,r4                                   
ram:0001a10a    0ed0            beq         LAB_0001a12a                            
ram:0001a10c    c000            lsls        param_1,param_1,#0x3                    
ram:0001a10e    00f18040        add.w       param_1,param_1,#0x40000000             
ram:0001a112    00f5f830        add.w       param_1,param_1,#0x1f000                
ram:0001a116    c0f81015        str.w       param_2,[param_1,#0x510]                
ram:0001a11a    c0f81425        str.w       param_3,[param_1,#0x514]                
ram:0001a11e    0020            movs        param_1,#0x0                            
ram:0001a120    10bd            pop         {r4,pc}                                 
                            LAB_0001a122:                 ;XREF[2,0]:   0001a0f6,0001a0f8
ram:0001a122    0e20            movs        param_1,#0xe                            
ram:0001a124    10bd            pop         {r4,pc}                                 
                            LAB_0001a126:                 ;XREF[1,0]:   0001a102
ram:0001a126    0720            movs        param_1,#0x7                            
ram:0001a128    10bd            pop         {r4,pc}                                 
                            LAB_0001a12a:                 ;XREF[1,0]:   0001a10a
ram:0001a12a    0820            movs        param_1,#0x8                            
ram:0001a12c    10bd            pop         {r4,pc}                                 
ram:0001a12e    00bf            nop                                                  
                            DAT_0001a130:                 ;XREF[1,0]:   0001a104
ram:0001a130    101e0020        undefined4  20001E10h                               
                            ;************************************************************************************************
                            ;*                                           FUNCTION                                           *
                            ;************************************************************************************************
                            ;undefined4 FUN_0001a134(uint param_1)
          ;param_1       uint                r0                      
                                                          ;XREF[1,0]:   0001c248
ram:0001a134    0123            movs        r3,#0x1                                 
ram:0001a136    03fa00f0        lsl.w       param_1,r3,param_1                      
ram:0001a13a    430c            lsrs        r3,param_1,#0x11                        
ram:0001a13c    5b04            lsls        r3,r3,#0x11                             
ram:0001a13e    4bb9            cbnz        r3,LAB_0001a154                         
ram:0001a140    18b1            cbz         param_1,LAB_0001a14a                    
ram:0001a142    064b            ldr         r3,[DAT_0001a15c]                       ;= 20001E10h
ram:0001a144    1b68            ldr         r3,[r3,#0x0]=>DAT_20001e10              
ram:0001a146    1842            tst         param_1,r3                              
ram:0001a148    06d0            beq         LAB_0001a158                            
                            LAB_0001a14a:                 ;XREF[1,0]:   0001a140
ram:0001a14a    054b            ldr         r3,[DAT_0001a160]                       ;= 4001F000h
ram:0001a14c    c3f80405        str.w       param_1,[r3,#0x504]=>DAT_4001f504       
ram:0001a150    0020            movs        param_1,#0x0                            
ram:0001a152    7047            bx          lr                                      
                            LAB_0001a154:                 ;XREF[1,0]:   0001a13e
ram:0001a154    0720            movs        param_1,#0x7                            
ram:0001a156    7047            bx          lr                                      
                            LAB_0001a158:                 ;XREF[1,0]:   0001a148
ram:0001a158    0820            movs        param_1,#0x8                            
ram:0001a15a    7047            bx          lr                                      
                            DAT_0001a15c:                 ;XREF[1,0]:   0001a142
ram:0001a15c    101e0020        undefined4  20001E10h                               
                            DAT_0001a160:                 ;XREF[1,0]:   0001a14a
ram:0001a160    00f00140        undefined4  4001F000h                               
                            ;************************************************************************************************
                            ;*                                           FUNCTION                                           *
                            ;************************************************************************************************
                            ;undefined FUNC_VT_0001a164(undefined4 param_1)
          ;param_1       undefined4          r0                      
          ;local_1c      undefined4         -1c                      ;XREF[2,0]:   0001a190,0001a192
                                                          ;XREF[0,1]:   00019064
ram:0001a164    2de9f341        push        {param_1,r1,r4,r5,r6,r7,r8,lr}          
ram:0001a168    104c            ldr         r4,[DAT_0001a1ac]                       ;= 40009140h
ram:0001a16a    114f            ldr         r7,[DAT_0001a1b0]                       ;= 40009000h
ram:0001a16c    114e            ldr         r6,[DAT_0001a1b4]                       ;= 20001E14h
ram:0001a16e    0025            movs        r5,#0x0                                 
ram:0001a170    4ff48038        mov.w       r8,#0x10000                             
                            LAB_0001a174:                 ;XREF[1,0]:   0001a1a2
                                                          ; FWD[2,0]:   40009140,40009144
ram:0001a174    2368            ldr         r3,[r4,#0x0]=>DAT_40009140              
ram:0001a176    04f5e040        add.w       param_1,r4,#0x7000                      
ram:0001a17a    80b2            uxth        param_1,param_1                         
ram:0001a17c    6bb1            cbz         r3,LAB_0001a19a                         
ram:0001a17e    d7f80433        ldr.w       r3,[r7,#0x304]=>DAT_40009304            
ram:0001a182    08fa05f2        lsl.w       r2,r8,r5                                
ram:0001a186    1a42            tst         r2,r3                                   
ram:0001a188    07d0            beq         LAB_0001a19a                            
ram:0001a18a    0023            movs        r3,#0x0                                 
ram:0001a18c    2360            str         r3,[r4,#0x0]=>DAT_40009140              
ram:0001a18e    2368            ldr         r3,[r4,#0x0]=>DAT_40009140              
ram:0001a190    0193            str         r3,[sp,#local_1c+0x20]                  
ram:0001a192    019b            ldr         r3,[sp,#local_1c+0x20]                  
ram:0001a194    7168            ldr         r1,[r6,#0x4]=>DAT_20001e18              
ram:0001a196    3368            ldr         r3,[r6,#0x0]=>DAT_20001e14              
ram:0001a198    9847            blx         r3                                      
                            LAB_0001a19a:                 ;XREF[2,0]:   0001a17c,0001a188
ram:0001a19a    0135            adds        r5,#0x1                                 
ram:0001a19c    042d            cmp         r5,#0x4                                 
ram:0001a19e    04f10404        add.w       r4,r4,#0x4                              
ram:0001a1a2    e7d1            bne         LAB_0001a174                            
ram:0001a1a4    02b0            add         sp,#0x8                                 
ram:0001a1a6    bde8f081        pop.w       {r4,r5,r6,r7,r8,pc}                     
                            DAT_0001a1ac:                 ;XREF[1,0]:   0001a168
ram:0001a1ac    40910040        undefined4  40009140h                               
                            DAT_0001a1b0:                 ;XREF[1,0]:   0001a16a
ram:0001a1b0    00900040        undefined4  40009000h                               
                            DAT_0001a1b4:                 ;XREF[1,0]:   0001a16c
ram:0001a1b4    141e0020        undefined4  20001E14h                               
                            ;************************************************************************************************
                            ;*                                           FUNCTION                                           *
                            ;************************************************************************************************
                            ;undefined FUN_0001a1b8(uint param_1)
          ;param_1       uint                r0                      
                                                          ;XREF[1,0]:   0001a242
ram:0001a1b8    0128            cmp         param_1,#0x1                            
ram:0001a1ba    0cd9            bls         LAB_0001a1d6                            
                            LAB_0001a1bc:                 ;XREF[1,0]:   0001a1f0
ram:0001a1bc    1430            adds        param_1,#0x14                           
ram:0001a1be    c0b2            uxtb        param_1,param_1                         
ram:0001a1c0    43b2            sxtb        r3,param_1                              
ram:0001a1c2    0122            movs        r2,#0x1                                 
ram:0001a1c4    00f01f00        and         param_1,param_1,#0x1f                   
ram:0001a1c8    02fa00f0        lsl.w       param_1,r2,param_1                      
ram:0001a1cc    5b09            lsrs        r3,r3,#0x5                              
ram:0001a1ce    094a            ldr         r2,[DAT_0001a1f4]                       ;= E000E100h
ram:0001a1d0    42f82300        str.w       param_1,r2=>DAT_e000e100,r3,0x2         
ram:0001a1d4    7047            bx          lr                                      
                            LAB_0001a1d6:                 ;XREF[1,0]:   0001a1ba
ram:0001a1d6    0303            lsls        r3,param_1,#0xc                         
ram:0001a1d8    03f14023        add.w       r3,r3,#0x40004000                       
ram:0001a1dc    03f58033        add.w       r3,r3,#0x10000                          
ram:0001a1e0    4ff6ff72        movw        r2,#0xffff                              
ram:0001a1e4    c3f80423        str.w       r2,[r3,#0x304]                          
ram:0001a1e8    034b            ldr         r3,[DAT_0001a1f8]                       ;= 20001E2Ch
ram:0001a1ea    53f82030        ldr.w       r3,r3,param_1,0x2                       
ram:0001a1ee    002b            cmp         r3,#0x0                                 
ram:0001a1f0    e4d1            bne         LAB_0001a1bc                            
ram:0001a1f2    7047            bx          lr                                      
                            DAT_0001a1f4:                 ;XREF[1,0]:   0001a1ce
ram:0001a1f4    00e100e0        undefined4  E000E100h                               
                            DAT_0001a1f8:                 ;XREF[1,0]:   0001a1e8
ram:0001a1f8    2c1e0020        undefined4  20001E2Ch                               
                            ;************************************************************************************************
                            ;*                                           FUNCTION                                           *
                            ;************************************************************************************************
                            ;undefined4 FUN_0001a1fc(undefined * param_1, uint param_2, int param_3)
          ;param_1       undefined *         r0                      
          ;param_2       uint                r1                      
          ;param_3       int                 r2                      
          ;local_19      undefined1         -19                      ;XREF[2,0]:   0001a204,0001a218
                                                          ;XREF[1,0]:   0001c2ac
ram:0001a1fc    f7b5            push        {param_1,param_2,param_3,r4,r5,r6,r7,lr}
ram:0001a1fe    0646            mov         r6,param_1                              
ram:0001a200    02a8            add         param_1,sp,#0x8                         
ram:0001a202    0025            movs        r5,#0x0                                 
ram:0001a204    00f8015d        strb.w      r5,[param_1,#-0x1]!=>local_19           
ram:0001a208    0f46            mov         r7,param_2                              
ram:0001a20a    1446            mov         r4,param_3                              
ram:0001a20c    fff73afb        bl          FUN_00019884                            ;undefined FUN_00019884(undefined * p...
ram:0001a210    0f4a            ldr         param_3=>DAT_20001e20,[DAT_0001a250]    ;= 20001E20h
ram:0001a212    1378            ldrb        r3,[param_3,#0x0]=>DAT_20001e20         
ram:0001a214    9907            lsls        param_2,r3,#0x1e                        
ram:0001a216    07d5            bpl         LAB_0001a228                            
                            LAB_0001a218:                 ;XREF[1,0]:   0001a230
ram:0001a218    9df80700        ldrb.w      param_1,[sp,#local_19+0x20]             
ram:0001a21c    fff756fb        bl          FUN_000198cc                            ;undefined FUN_000198cc(int param_1)
ram:0001a220    3db9            cbnz        r5,LAB_0001a232                         
ram:0001a222    0420            movs        param_1,#0x4                            
                            LAB_0001a224:                 ;XREF[1,0]:   0001a24c
ram:0001a224    03b0            add         sp,#0xc                                 
ram:0001a226    f0bd            pop         {r4,r5,r6,r7,pc}                        
                            LAB_0001a228:                 ;XREF[1,0]:   0001a216
ram:0001a228    43f00203        orr         r3,r3,#0x2                              
ram:0001a22c    1370            strb        r3,[param_3,#0x0]=>DAT_20001e20         
ram:0001a22e    0125            movs        r5,#0x1                                 
ram:0001a230    f2e7            b           LAB_0001a218                            
                            LAB_0001a232:                 ;XREF[1,0]:   0001a220
ram:0001a232    084b            ldr         r3,[DAT_0001a254]                       ;= 20001E2Ch
ram:0001a234    6401            lsls        r4,r4,#0x5                              
ram:0001a236    5f60            str         r7,[r3,#0x4]=>DAT_20001e30              
ram:0001a238    074b            ldr         r3=>DAT_e000e100,[DAT_0001a258]         ;= E000E100h
ram:0001a23a    e4b2            uxtb        r4,r4                                   
ram:0001a23c    83f81543        strb.w      r4,[r3,#0x315]=>DAT_e000e415            
ram:0001a240    0120            movs        param_1,#0x1                            
ram:0001a242    fff7b9ff        bl          FUN_0001a1b8                            ;undefined FUN_0001a1b8(uint param_1)
ram:0001a246    0123            movs        r3,#0x1                                 
ram:0001a248    3370            strb        r3,[r6,#0x0]                            
ram:0001a24a    0020            movs        param_1,#0x0                            
ram:0001a24c    eae7            b           LAB_0001a224                            
ram:0001a24e    00bf            nop                                                  
                            DAT_0001a250:                 ;XREF[1,0]:   0001a210
ram:0001a250    201e0020        undefined4  20001E20h                               
                            DAT_0001a254:                 ;XREF[1,0]:   0001a232
ram:0001a254    2c1e0020        undefined4  20001E2Ch                               
                            DAT_0001a258:                 ;XREF[1,0]:   0001a238
ram:0001a258    00e100e0        undefined4  E000E100h                               
                            ;************************************************************************************************
                            ;*                                           FUNCTION                                           *
                            ;************************************************************************************************
                            ;undefined FUN_0001a25c(uint param_1, uint param_2)
          ;param_1       uint                r0                      
          ;param_2       uint                r1                      
                                                          ;XREF[1,0]:   0001bfa0
ram:0001a25c    0128            cmp         param_1,#0x1                            
ram:0001a25e    30b5            push        {r4,r5,lr}                              
ram:0001a260    09d8            bhi         LAB_0001a276                            
ram:0001a262    0003            lsls        param_1,param_1,#0xc                    
ram:0001a264    00f14020        add.w       param_1,param_1,#0x40004000             
ram:0001a268    8900            lsls        param_2,param_2,#0x2                    
ram:0001a26a    00f58030        add.w       param_1,param_1,#0x10000                
ram:0001a26e    c9b2            uxtb        param_2,param_2                         
ram:0001a270    0123            movs        r3,#0x1                                 
ram:0001a272    4350            str         r3,[param_1,param_2]                    
ram:0001a274    30bd            pop         {r4,r5,pc}                              
                            LAB_0001a276:                 ;XREF[1,0]:   0001a260
ram:0001a276    841e            subs        r4,param_1,#0x2                         
ram:0001a278    0a4b            ldr         r3,[DAT_0001a2a4]                       ;= 20001E22h
ram:0001a27a    0122            movs        r2,#0x1                                 
ram:0001a27c    33f81450        ldrh.w      r5,r3,r4,0x1                            
ram:0001a280    02fa01f1        lsl.w       param_2,r2,param_2                      
ram:0001a284    1430            adds        param_1,#0x14                           
ram:0001a286    c0b2            uxtb        param_1,param_1                         
ram:0001a288    2943            orrs        param_2,r5                              
ram:0001a28a    23f81410        strh.w      param_2,r3,r4,0x1                       
ram:0001a28e    43b2            sxtb        r3,param_1                              
ram:0001a290    5b09            lsrs        r3,r3,#0x5                              
ram:0001a292    00f01f00        and         param_1,param_1,#0x1f                   
ram:0001a296    02fa00f0        lsl.w       param_1,r2,param_1                      
ram:0001a29a    4033            adds        r3,#0x40                                
ram:0001a29c    024a            ldr         r2,[DAT_0001a2a8]                       ;= E000E100h
ram:0001a29e    42f82300        str.w       param_1,r2=>DAT_e000e100,r3,0x2         
ram:0001a2a2    30bd            pop         {r4,r5,pc}                              
                            DAT_0001a2a4:                 ;XREF[1,0]:   0001a278
ram:0001a2a4    221e0020        undefined4  20001E22h                               
                            DAT_0001a2a8:                 ;XREF[1,0]:   0001a29c
ram:0001a2a8    00e100e0        undefined4  E000E100h                               
                            ;************************************************************************************************
                            ;*                                           FUNCTION                                           *
                            ;************************************************************************************************
                            ;undefined FUNC_VT_0001a2ac(undefined4 param_1, int * param_2, undefined4 param_3)
          ;param_1       undefined4          r0                      
          ;param_2       int *               r1                      
          ;param_3       undefined4          r2                      
          ;local_1c      undefined4         -1c                      ;XREF[2,0]:   0001a2c8,0001a2d0
                                                          ;XREF[0,1]:   00019094
ram:0001a2ac    f7b5            push        {param_1,param_2,param_3,r4,r5,r6,r7,lr}
ram:0001a2ae    0d4b            ldr         r3,[DAT_0001a2e4]                       ;= 20001E2Ch
ram:0001a2b0    0d48            ldr         param_1,[DAT_0001a2e8]                  ;= 10005440h
ram:0001a2b2    5c68            ldr         r4,[r3,#0x4]=>DAT_20001e30              
ram:0001a2b4    0023            movs        r3,#0x0                                 
ram:0001a2b6    1946            mov         param_2,r3                              
ram:0001a2b8    0125            movs        r5,#0x1                                 
ram:0001a2ba    1e46            mov         r6,r3                                   
                            LAB_0001a2bc:                 ;XREF[1,0]:   0001a2d8
ram:0001a2bc    1a18            adds        param_3,r3,param_1                      
ram:0001a2be    9200            lsls        param_3,param_3,#0x2                    
                                                          ; FWD[2,0]:   40015100,40015104
ram:0001a2c0    1768            ldr         r7,[param_3,#0x0]=>DAT_40015100         
ram:0001a2c2    3fb1            cbz         r7,LAB_0001a2d4                         
ram:0001a2c4    1660            str         r6,[param_3,#0x0]=>DAT_40015100         
ram:0001a2c6    1268            ldr         param_3,[param_3,#0x0]=>DAT_40015100    
ram:0001a2c8    0192            str         param_3,[sp,#local_1c+0x20]             
ram:0001a2ca    05fa03f7        lsl.w       r7,r5,r3                                
ram:0001a2ce    3943            orrs        param_2,r7                              
ram:0001a2d0    019a            ldr         param_3,[sp,#local_1c+0x20]             
ram:0001a2d2    89b2            uxth        param_2,param_2                         
                            LAB_0001a2d4:                 ;XREF[1,0]:   0001a2c2
ram:0001a2d4    0133            adds        r3,#0x1                                 
ram:0001a2d6    102b            cmp         r3,#0x10                                
ram:0001a2d8    f0d1            bne         LAB_0001a2bc                            
ram:0001a2da    0120            movs        param_1,#0x1                            
ram:0001a2dc    a047            blx         r4                                      
ram:0001a2de    03b0            add         sp,#0xc                                 
ram:0001a2e0    f0bd            pop         {r4,r5,r6,r7,pc}                        
ram:0001a2e2    00bf            nop                                                  
                            DAT_0001a2e4:                 ;XREF[1,0]:   0001a2ae
ram:0001a2e4    2c1e0020        undefined4  20001E2Ch                               
                            DAT_0001a2e8:                 ;XREF[1,0]:   0001a2b0
ram:0001a2e8    40540010        undefined4  10005440h                               
                            ;************************************************************************************************
                            ;*                                           FUNCTION                                           *
                            ;************************************************************************************************
                            ;undefined FUN_0001a2ec(void)
                                                          ;XREF[1,0]:   0001a3f2
ram:0001a2ec    6ddf            svc         0x6d                                    
ram:0001a2ee    7047            bx          lr                                      
                            ;************************************************************************************************
                            ;*                                           FUNCTION                                           *
                            ;************************************************************************************************
                            ;undefined FUN_0001a2f0(void)
                                                          ;XREF[1,0]:   0001a44c
ram:0001a2f0    79df            svc         0x79                                    
ram:0001a2f2    7047            bx          lr                                      
                            ;************************************************************************************************
                            ;*                                           FUNCTION                                           *
                            ;************************************************************************************************
                            ;undefined FUN_0001a2f4(void)
                                                          ;XREF[1,0]:   0001a5d0
ram:0001a2f4    7ddf            svc         0x7d                                    
ram:0001a2f6    7047            bx          lr                                      
                            ;************************************************************************************************
                            ;*                                           FUNCTION                                           *
                            ;************************************************************************************************
                            ;undefined FUN_0001a2f8(void)
                                                          ;XREF[2,0]:   0001a344,0001a384
ram:0001a2f8    64df            svc         0x64                                    
ram:0001a2fa    7047            bx          lr                                      
                            ;************************************************************************************************
                            ;*                                           FUNCTION                                           *
                            ;************************************************************************************************
                            ;int FUN_0001a2fc(ushort * param_1, undefined param_2, uint param_3, int param_4, ushort * param_5, ushort param_6)
          ;param_1       ushort *            r0                      
          ;param_2       undefined           r1                      
          ;param_3       uint                r2                      
          ;param_4       int                 r3                      
          ;param_5       ushort *             0                      ;XREF[1,0]:   0001a300
          ;param_6       ushort               4                      ;XREF[1,0]:   0001a302
          ;local_2c      undefined4         -2c                      ;XREF[1,0]:   0001a33a
          ;local_2d      undefined1         -2d                      ;XREF[2,0]:   0001a34c,0001a38e
                                                          ;XREF[2,0]:   0001a3b4,0001a3ca
ram:0001a2fc    2de9f74f        push        {param_1,param_2,param_3,r4,r5,r6,r7,...
ram:0001a300    0c9c            ldr         r4,[sp,#param_5+0x30]                   
ram:0001a302    bdf834b0        ldrh.w      r11,[sp,#param_6+0x30]                  
ram:0001a306    2788            ldrh        r7,[r4,#0x0]                            
ram:0001a308    0025            movs        r5,#0x0                                 
ram:0001a30a    8046            mov         r8,param_1                              
ram:0001a30c    8a46            mov         r10,param_2                             
ram:0001a30e    9146            mov         r9,param_3                              
ram:0001a310    2e46            mov         r6,r5                                   
                            LAB_0001a312:                 ;XREF[1,0]:   0001a39a
ram:0001a312    b8f80020        ldrh.w      param_3,[r8,#0x0]                       
ram:0001a316    9642            cmp         r6,param_3                              
ram:0001a318    0bdb            blt         LAB_0001a332                            
ram:0001a31a    35b1            cbz         r5,LAB_0001a32a                         
ram:0001a31c    2288            ldrh        param_3,[r4,#0x0]                       
ram:0001a31e    013a            subs        param_3,#0x1                            
ram:0001a320    d21b            subs        param_3,param_3,r7                      
ram:0001a322    92b2            uxth        param_3,param_3                         
ram:0001a324    ff2a            cmp         param_3,#0xff                           
ram:0001a326    39d8            bhi         LAB_0001a39c                            
ram:0001a328    da55            strb        param_3,[param_4,r7]                    
                            LAB_0001a32a:                 ;XREF[1,0]:   0001a31a
ram:0001a32a    0020            movs        param_1,#0x0                            
                            LAB_0001a32c:                 ;XREF[3,0]:   0001a34a,0001a38a,0001a39e
ram:0001a32c    03b0            add         sp,#0xc                                 
ram:0001a32e    bde8f08f        pop.w       {r4,r5,r6,r7,r8,r9,r10,r11,pc}          
                            LAB_0001a332:                 ;XREF[1,0]:   0001a318
ram:0001a332    d8f80420        ldr.w       param_3,[r8,#0x4]                       
ram:0001a336    52f82600        ldr.w       param_1,param_3,r6,0x2                  
ram:0001a33a    0190            str         param_1,[sp,#local_2c+0x30]             
ram:0001a33c    0022            movs        param_3,#0x0                            
ram:0001a33e    0df10301        add.w       param_2,sp,#0x3                         
ram:0001a342    01a8            add         param_1,sp,#0x4                         
ram:0001a344    fff7d8ff        bl          FUN_0001a2f8                            ;undefined FUN_0001a2f8(void)
ram:0001a348    0028            cmp         param_1,#0x0                            
ram:0001a34a    efd1            bne         LAB_0001a32c                            
ram:0001a34c    9df80320        ldrb.w      param_3,[sp,#local_2d+0x30]             
ram:0001a350    4a45            cmp         param_3,r9                              
ram:0001a352    21d1            bne         LAB_0001a398                            
ram:0001a354    2288            ldrh        param_3,[r4,#0x0]                       
ram:0001a356    002d            cmp         r5,#0x0                                 
ram:0001a358    14bf            ite         ne                                      
ram:0001a35a    0020            mov.ne      param_1,#0x0                            
ram:0001a35c    0220            mov.eq      param_1,#0x2                            
ram:0001a35e    02eb0901        add.w       param_2,param_3,r9                      
ram:0001a362    0144            add         param_2,param_1                         
ram:0001a364    5945            cmp         param_2,r11                             
ram:0001a366    19dc            bgt         LAB_0001a39c                            
ram:0001a368    3db9            cbnz        r5,LAB_0001a37a                         
ram:0001a36a    0132            adds        param_3,#0x1                            
ram:0001a36c    92b2            uxth        param_3,param_3                         
ram:0001a36e    2280            strh        param_3,[r4,#0x0]                       
ram:0001a370    03f802a0        strb.w      r10,param_4,param_3,0x0                 
ram:0001a374    2288            ldrh        param_3,[r4,#0x0]                       
ram:0001a376    0132            adds        param_3,#0x1                            
ram:0001a378    2280            strh        param_3,[r4,#0x0]                       
                            LAB_0001a37a:                 ;XREF[1,0]:   0001a368
ram:0001a37a    2288            ldrh        param_3,[r4,#0x0]                       
ram:0001a37c    0df10301        add.w       param_2,sp,#0x3                         
ram:0001a380    1a44            add         param_3,param_4                         
ram:0001a382    01a8            add         param_1,sp,#0x4                         
ram:0001a384    fff7b8ff        bl          FUN_0001a2f8                            ;undefined FUN_0001a2f8(void)
ram:0001a388    0028            cmp         param_1,#0x0                            
ram:0001a38a    cfd1            bne         LAB_0001a32c                            
ram:0001a38c    2188            ldrh        param_2,[r4,#0x0]                       
ram:0001a38e    9df80320        ldrb.w      param_3,[sp,#local_2d+0x30]             
ram:0001a392    0a44            add         param_3,param_2                         
ram:0001a394    2280            strh        param_3,[r4,#0x0]                       
ram:0001a396    0125            movs        r5,#0x1                                 
                            LAB_0001a398:                 ;XREF[1,0]:   0001a352
ram:0001a398    0136            adds        r6,#0x1                                 
ram:0001a39a    bae7            b           LAB_0001a312                            
                            LAB_0001a39c:                 ;XREF[2,0]:   0001a326,0001a366
ram:0001a39c    0c20            movs        param_1,#0xc                            
ram:0001a39e    c5e7            b           LAB_0001a32c                            
                            ;************************************************************************************************
                            ;*                                           FUNCTION                                           *
                            ;************************************************************************************************
                            ;undefined FUN_0001a3a0(ushort * param_1, undefined param_2, undefined param_3, int param_4, ushort * param_5, ushort param_6)
          ;param_1       ushort *            r0                      
          ;param_2       undefined           r1                      
          ;param_3       undefined           r2                      
          ;param_4       int                 r3                      
          ;param_5       ushort *             0                      ;XREF[2,0]:   0001a3a4,0001a3c2
          ;param_6       ushort               4                      ;XREF[2,0]:   0001a3a6,0001a3c0
          ;local_20      undefined4         -20                      ;XREF[1,0]:   0001a3ac
                                                          ;XREF[3,0]:   0001a4fc,0001a518,0001a632
ram:0001a3a0    2de9f341        push        {param_1,param_2,r4,r5,r6,r7,r8,lr}     
ram:0001a3a4    089c            ldr         r4,[sp,#param_5+0x20]                   
ram:0001a3a6    bdf82450        ldrh.w      r5,[sp,#param_6+0x20]                   
ram:0001a3aa    1746            mov         r7,param_3                              
ram:0001a3ac    8de83000        stm         sp=>local_20,{r4,r5}                    
ram:0001a3b0    0222            movs        param_3,#0x2                            
ram:0001a3b2    0646            mov         r6,param_1                              
ram:0001a3b4    fff7a2ff        bl          FUN_0001a2fc                            ;int FUN_0001a2fc(ushort * param_1, u...
ram:0001a3b8    48b9            cbnz        param_1,LAB_0001a3ce                    
ram:0001a3ba    1022            movs        param_3,#0x10                           
ram:0001a3bc    3946            mov         param_2,r7                              
ram:0001a3be    3046            mov         param_1,r6                              
ram:0001a3c0    0995            str         r5,[sp,#param_6+0x20]                   
ram:0001a3c2    0894            str         r4,[sp,#param_5+0x20]                   
ram:0001a3c4    02b0            add         sp,#0x8                                 
ram:0001a3c6    bde8f041        pop.w       {r4,r5,r6,r7,r8,lr}                     
ram:0001a3ca    fff797bf        b.w         FUN_0001a2fc                            ;int FUN_0001a2fc(ushort * param_1, u...
                            LAB_0001a3ce:                 ;XREF[1,0]:   0001a3b8
ram:0001a3ce    02b0            add         sp,#0x8                                 
ram:0001a3d0    bde8f081        pop.w       {r4,r5,r6,r7,r8,pc}                     
                            ;************************************************************************************************
                            ;*                                           FUNCTION                                           *
                            ;************************************************************************************************
                            ;int FUN_0001a3d4(short * param_1, int param_2, ushort * param_3)
          ;param_1       short *             r0                      
          ;param_2       int                 r1                      
          ;param_3       ushort *            r2                      
          ;local_30      undefined2         -30                      ;XREF[7,0]:   0001a424,0001a46a,0001a5ca,0001a5d8,0001a5fa
                                                                     ;             0001a600,0001a752
          ;local_38      undefined4         -38                      ;XREF[3,0]:   0001a4ee,0001a50a,0001a624
                                                          ;XREF[2,0]:   0001a880,0001a898
ram:0001a3d4    2de9f04f        push        {r4,r5,r6,r7,r8,r9,r10,r11,lr}          
ram:0001a3d8    0023            movs        r3,#0x0                                 
ram:0001a3da    1788            ldrh        r7,[param_3,#0x0]                       
ram:0001a3dc    1380            strh        r3,[param_3,#0x0]                       
ram:0001a3de    90f82d30        ldrb.w      r3,[param_1,#0x2d]                      
ram:0001a3e2    85b0            sub         sp,#0x14                                
ram:0001a3e4    0646            mov         r6,param_1                              
ram:0001a3e6    0d46            mov         r5,param_2                              
ram:0001a3e8    1446            mov         r4,param_3                              
ram:0001a3ea    43b3            cbz         r3,LAB_0001a43e                         
ram:0001a3ec    082f            cmp         r7,#0x8                                 
ram:0001a3ee    4ed9            bls         LAB_0001a48e                            
ram:0001a3f0    02a8            add         param_1,sp,#0x8                         
ram:0001a3f2    fff77bff        bl          FUN_0001a2ec                            ;undefined FUN_0001a2ec(void)
ram:0001a3f6    0028            cmp         param_1,#0x0                            
ram:0001a3f8    40f02081        bne.w       LAB_0001a63c                            
ram:0001a3fc    1388            ldrh        r3,[param_3,#0x0]                       
ram:0001a3fe    0822            movs        param_3,#0x8                            
ram:0001a400    ca54            strb        param_3,[param_2,r3]                    
ram:0001a402    2388            ldrh        r3,[r4,#0x0]                            
ram:0001a404    0133            adds        r3,#0x1                                 
ram:0001a406    9bb2            uxth        r3,r3                                   
ram:0001a408    1b22            movs        param_3,#0x1b                           
ram:0001a40a    2380            strh        r3,[r4,#0x0]                            
ram:0001a40c    ca54            strb        param_3,[param_2,r3]                    
ram:0001a40e    2088            ldrh        param_1,[r4,#0x0]                       
ram:0001a410    0130            adds        param_1,#0x1                            
ram:0001a412    80b2            uxth        param_1,param_1                         
ram:0001a414    2080            strh        param_1,[r4,#0x0]                       
ram:0001a416    0622            movs        param_3,#0x6                            
ram:0001a418    0df10901        add.w       param_2,sp,#0x9                         
ram:0001a41c    2844            add         param_1,r5                              
ram:0001a41e    02f0d1f8        bl          FUN_0001c5c4                            ;undefined FUN_0001c5c4(int param_1, ...
ram:0001a422    2388            ldrh        r3,[r4,#0x0]                            
ram:0001a424    9df80820        ldrb.w      param_3,[sp,#local_30+0x38]             
ram:0001a428    0633            adds        r3,#0x6                                 
ram:0001a42a    9bb2            uxth        r3,r3                                   
ram:0001a42c    12f0fe02        ands        param_3,param_3,#0xfe                   
ram:0001a430    18bf            it          ne                                      
ram:0001a432    0122            mov.ne      param_3,#0x1                            
ram:0001a434    2380            strh        r3,[r4,#0x0]                            
ram:0001a436    ea54            strb        param_3,[r5,r3]                         
ram:0001a438    2388            ldrh        r3,[r4,#0x0]                            
ram:0001a43a    0133            adds        r3,#0x1                                 
ram:0001a43c    2380            strh        r3,[r4,#0x0]                            
                            LAB_0001a43e:                 ;XREF[1,0]:   0001a3ea
ram:0001a43e    b378            ldrb        r3,[r6,#0x2]                            
ram:0001a440    fbb1            cbz         r3,LAB_0001a482                         
ram:0001a442    2388            ldrh        r3,[r4,#0x0]                            
ram:0001a444    0433            adds        r3,#0x4                                 
ram:0001a446    bb42            cmp         r3,r7                                   
ram:0001a448    21d8            bhi         LAB_0001a48e                            
ram:0001a44a    02a8            add         param_1,sp,#0x8                         
ram:0001a44c    fff750ff        bl          FUN_0001a2f0                            ;undefined FUN_0001a2f0(void)
ram:0001a450    0028            cmp         param_1,#0x0                            
ram:0001a452    40f0f380        bne.w       LAB_0001a63c                            
ram:0001a456    2388            ldrh        r3,[r4,#0x0]                            
ram:0001a458    0322            movs        param_3,#0x3                            
ram:0001a45a    ea54            strb        param_3,[r5,r3]                         
ram:0001a45c    2388            ldrh        r3,[r4,#0x0]                            
ram:0001a45e    0133            adds        r3,#0x1                                 
ram:0001a460    9bb2            uxth        r3,r3                                   
ram:0001a462    1922            movs        param_3,#0x19                           
ram:0001a464    2380            strh        r3,[r4,#0x0]                            
ram:0001a466    ea54            strb        param_3,[r5,r3]                         
ram:0001a468    2388            ldrh        r3,[r4,#0x0]                            
ram:0001a46a    bdf80820        ldrh.w      param_3,[sp,#local_30+0x38]             
ram:0001a46e    0133            adds        r3,#0x1                                 
ram:0001a470    9bb2            uxth        r3,r3                                   
ram:0001a472    e918            adds        param_2,r5,r3                           
ram:0001a474    2380            strh        r3,[r4,#0x0]                            
ram:0001a476    ea54            strb        param_3,[r5,r3]                         
ram:0001a478    120a            lsrs        param_3,param_3,#0x8                    
ram:0001a47a    4a70            strb        param_3,[param_2,#0x1]                  
ram:0001a47c    2388            ldrh        r3,[r4,#0x0]                            
ram:0001a47e    0233            adds        r3,#0x2                                 
ram:0001a480    2380            strh        r3,[r4,#0x0]                            
                            LAB_0001a482:                 ;XREF[1,0]:   0001a440
ram:0001a482    f278            ldrb        param_3,[r6,#0x3]                       
ram:0001a484    aab1            cbz         param_3,LAB_0001a4b2                    
ram:0001a486    2388            ldrh        r3,[r4,#0x0]                            
ram:0001a488    d91c            adds        param_2,r3,#0x3                         
ram:0001a48a    b942            cmp         param_2,r7                              
ram:0001a48c    01d9            bls         LAB_0001a492                            
                            LAB_0001a48e:                 ;XREF[10,0]:  0001a3ee,0001a448,0001a4bc,0001a542
                                                          ;             0001a546,0001a5ae,0001a5be,0001a606
                                                          ;             0001a64c,0001a6fe
ram:0001a48e    0c20            movs        param_1,#0xc                            
ram:0001a490    d4e0            b           LAB_0001a63c                            
                            LAB_0001a492:                 ;XREF[1,0]:   0001a48c
ram:0001a492    0221            movs        param_2,#0x2                            
ram:0001a494    e954            strb        param_2,[r5,r3]                         
ram:0001a496    2388            ldrh        r3,[r4,#0x0]                            
ram:0001a498    0133            adds        r3,#0x1                                 
ram:0001a49a    9bb2            uxth        r3,r3                                   
ram:0001a49c    0121            movs        param_2,#0x1                            
ram:0001a49e    2380            strh        r3,[r4,#0x0]                            
ram:0001a4a0    e954            strb        param_2,[r5,r3]                         
ram:0001a4a2    2388            ldrh        r3,[r4,#0x0]                            
ram:0001a4a4    0b44            add         r3,param_2                              
ram:0001a4a6    9bb2            uxth        r3,r3                                   
ram:0001a4a8    2380            strh        r3,[r4,#0x0]                            
ram:0001a4aa    ea54            strb        param_3,[r5,r3]                         
ram:0001a4ac    2388            ldrh        r3,[r4,#0x0]                            
ram:0001a4ae    0b44            add         r3,param_2                              
ram:0001a4b0    2380            strh        r3,[r4,#0x0]                            
                            LAB_0001a4b2:                 ;XREF[1,0]:   0001a484
ram:0001a4b2    7268            ldr         param_3,[r6,#0x4]                       
ram:0001a4b4    aab1            cbz         param_3,LAB_0001a4e2                    
ram:0001a4b6    2388            ldrh        r3,[r4,#0x0]                            
ram:0001a4b8    d91c            adds        param_2,r3,#0x3                         
ram:0001a4ba    b942            cmp         param_2,r7                              
ram:0001a4bc    e7d8            bhi         LAB_0001a48e                            
ram:0001a4be    0221            movs        param_2,#0x2                            
ram:0001a4c0    92f90020        ldrsb.w     param_3,[param_3,#0x0]                  
ram:0001a4c4    e954            strb        param_2,[r5,r3]                         
ram:0001a4c6    2388            ldrh        r3,[r4,#0x0]                            
ram:0001a4c8    0133            adds        r3,#0x1                                 
ram:0001a4ca    9bb2            uxth        r3,r3                                   
ram:0001a4cc    0a21            movs        param_2,#0xa                            
ram:0001a4ce    2380            strh        r3,[r4,#0x0]                            
ram:0001a4d0    e954            strb        param_2,[r5,r3]                         
ram:0001a4d2    2388            ldrh        r3,[r4,#0x0]                            
ram:0001a4d4    0133            adds        r3,#0x1                                 
ram:0001a4d6    9bb2            uxth        r3,r3                                   
ram:0001a4d8    2380            strh        r3,[r4,#0x0]                            
ram:0001a4da    ea54            strb        param_3,[r5,r3]                         
ram:0001a4dc    2388            ldrh        r3,[r4,#0x0]                            
ram:0001a4de    0133            adds        r3,#0x1                                 
ram:0001a4e0    2380            strh        r3,[r4,#0x0]                            
                            LAB_0001a4e2:                 ;XREF[1,0]:   0001a4b4
ram:0001a4e2    3389            ldrh        r3,[r6,#0x8]                            
ram:0001a4e4    002b            cmp         r3,#0x0                                 
ram:0001a4e6    40f09d80        bne.w       LAB_0001a624                            
                            LAB_0001a4ea:                 ;XREF[1,0]:   0001a638
ram:0001a4ea    338a            ldrh        r3,[r6,#0x10]                           
ram:0001a4ec    5bb1            cbz         r3,LAB_0001a506                         
ram:0001a4ee    8de89000        stm         sp=>local_38,{r4,r7}                    
ram:0001a4f2    2b46            mov         r3,r5                                   
ram:0001a4f4    0722            movs        param_3,#0x7                            
ram:0001a4f6    0321            movs        param_2,#0x3                            
ram:0001a4f8    06f11000        add.w       param_1,r6,#0x10                        
ram:0001a4fc    fff750ff        bl          FUN_0001a3a0                            ;undefined FUN_0001a3a0(ushort * para...
ram:0001a500    0028            cmp         param_1,#0x0                            
ram:0001a502    40f09b80        bne.w       LAB_0001a63c                            
                            LAB_0001a506:                 ;XREF[1,0]:   0001a4ec
ram:0001a506    338b            ldrh        r3,[r6,#0x18]                           
ram:0001a508    5bb1            cbz         r3,LAB_0001a522                         
ram:0001a50a    8de89000        stm         sp=>local_38,{r4,r7}                    
ram:0001a50e    2b46            mov         r3,r5                                   
ram:0001a510    1522            movs        param_3,#0x15                           
ram:0001a512    1421            movs        param_2,#0x14                           
ram:0001a514    06f11800        add.w       param_1,r6,#0x18                        
ram:0001a518    fff742ff        bl          FUN_0001a3a0                            ;undefined FUN_0001a3a0(ushort * para...
ram:0001a51c    0028            cmp         param_1,#0x0                            
ram:0001a51e    40f08d80        bne.w       LAB_0001a63c                            
                            LAB_0001a522:                 ;XREF[1,0]:   0001a508
ram:0001a522    326a            ldr         param_3,[r6,#0x20]                      
ram:0001a524    002a            cmp         param_3,#0x0                            
ram:0001a526    40f08c80        bne.w       LAB_0001a642                            
                            LAB_0001a52a:                 ;XREF[1,0]:   0001a6ca
ram:0001a52a    d6f82480        ldr.w       r8,[r6,#0x24]                           
ram:0001a52e    b8f1000f        cmp.w       r8,#0x0                                 
ram:0001a532    2ed0            beq         LAB_0001a592                            
ram:0001a534    b8f80430        ldrh.w      r3,[r8,#0x4]                            
ram:0001a538    2188            ldrh        param_2,[r4,#0x0]                       
ram:0001a53a    981c            adds        param_1,r3,#0x2                         
ram:0001a53c    8a1c            adds        param_3,param_2,#0x2                    
ram:0001a53e    0244            add         param_3,param_1                         
ram:0001a540    ba42            cmp         param_3,r7                              
ram:0001a542    a4d8            bhi         LAB_0001a48e                            
ram:0001a544    fe28            cmp         param_1,#0xfe                           
ram:0001a546    a2d8            bhi         LAB_0001a48e                            
ram:0001a548    0333            adds        r3,#0x3                                 
ram:0001a54a    6b54            strb        r3,[r5,param_2]                         
ram:0001a54c    2388            ldrh        r3,[r4,#0x0]                            
ram:0001a54e    0133            adds        r3,#0x1                                 
ram:0001a550    9bb2            uxth        r3,r3                                   
ram:0001a552    ff22            movs        param_3,#0xff                           
ram:0001a554    2380            strh        r3,[r4,#0x0]                            
ram:0001a556    ea54            strb        param_3,[r5,r3]                         
ram:0001a558    2388            ldrh        r3,[r4,#0x0]                            
ram:0001a55a    0133            adds        r3,#0x1                                 
ram:0001a55c    9bb2            uxth        r3,r3                                   
ram:0001a55e    2380            strh        r3,[r4,#0x0]                            
ram:0001a560    b8f80020        ldrh.w      param_3,[r8,#0x0]                       
ram:0001a564    ea54            strb        param_3,[r5,r3]                         
ram:0001a566    e918            adds        param_2,r5,r3                           
ram:0001a568    120a            lsrs        param_3,param_3,#0x8                    
ram:0001a56a    4a70            strb        param_3,[param_2,#0x1]                  
ram:0001a56c    2088            ldrh        param_1,[r4,#0x0]                       
ram:0001a56e    0230            adds        param_1,#0x2                            
ram:0001a570    80b2            uxth        param_1,param_1                         
ram:0001a572    2080            strh        param_1,[r4,#0x0]                       
ram:0001a574    b8f80420        ldrh.w      param_3,[r8,#0x4]                       
ram:0001a578    5ab1            cbz         param_3,LAB_0001a592                    
ram:0001a57a    d8f80810        ldr.w       param_2,[r8,#0x8]                       
ram:0001a57e    0029            cmp         param_2,#0x0                            
ram:0001a580    69d0            beq         LAB_0001a656                            
ram:0001a582    2844            add         param_1,r5                              
ram:0001a584    02f01ef8        bl          FUN_0001c5c4                            ;undefined FUN_0001c5c4(int param_1, ...
ram:0001a588    2388            ldrh        r3,[r4,#0x0]                            
ram:0001a58a    b8f80420        ldrh.w      param_3,[r8,#0x4]                       
ram:0001a58e    1344            add         r3,param_3                              
ram:0001a590    2380            strh        r3,[r4,#0x0]                            
                            LAB_0001a592:                 ;XREF[2,0]:   0001a532,0001a578
ram:0001a592    96f82c30        ldrb.w      r3,[r6,#0x2c]                           
ram:0001a596    002b            cmp         r3,#0x0                                 
ram:0001a598    40f09880        bne.w       LAB_0001a6cc                            
                            LAB_0001a59c:                 ;XREF[1,0]:   0001a6e8
ram:0001a59c    3078            ldrb        param_1,[r6,#0x0]                       
ram:0001a59e    0028            cmp         param_1,#0x0                            
ram:0001a5a0    4cd0            beq         LAB_0001a63c                            
ram:0001a5a2    3388            ldrh        r3,[r6,#0x0]                            
ram:0001a5a4    012b            cmp         r3,#0x1                                 
ram:0001a5a6    56d0            beq         LAB_0001a656                            
ram:0001a5a8    2188            ldrh        param_2,[r4,#0x0]                       
ram:0001a5aa    8a1c            adds        param_3,param_2,#0x2                    
ram:0001a5ac    ba42            cmp         param_3,r7                              
ram:0001a5ae    3ff66eaf        bhi.w       LAB_0001a48e                            
ram:0001a5b2    0128            cmp         param_1,#0x1                            
ram:0001a5b4    05d1            bne         LAB_0001a5c2                            
ram:0001a5b6    7378            ldrb        r3,[r6,#0x1]                            
ram:0001a5b8    0233            adds        r3,#0x2                                 
ram:0001a5ba    0b44            add         r3,param_2                              
ram:0001a5bc    9f42            cmp         r7,r3                                   
ram:0001a5be    fff466af        bcc.w       LAB_0001a48e                            
                            LAB_0001a5c2:                 ;XREF[1,0]:   0001a5b4
ram:0001a5c2    023f            subs        r7,#0x2                                 
ram:0001a5c4    7f1a            subs        r7,r7,param_2                           
ram:0001a5c6    04a9            add         param_2,sp,#0x10                        
ram:0001a5c8    bfb2            uxth        r7,r7                                   
ram:0001a5ca    21f8087d        strh        r7,[param_2,#-0x8]!=>local_30           
ram:0001a5ce    a818            adds        param_1,r5,param_3                      
ram:0001a5d0    fff790fe        bl          FUN_0001a2f4                            ;undefined FUN_0001a2f4(void)
ram:0001a5d4    90bb            cbnz        param_1,LAB_0001a63c                    
ram:0001a5d6    3378            ldrb        r3,[r6,#0x0]                            
ram:0001a5d8    bdf80820        ldrh.w      param_3,[sp,#local_30+0x38]             
ram:0001a5dc    022b            cmp         r3,#0x2                                 
ram:0001a5de    02d0            beq         LAB_0001a5e6                            
ram:0001a5e0    7178            ldrb        param_2,[r6,#0x1]                       
ram:0001a5e2    9142            cmp         param_2,param_3                         
ram:0001a5e4    02d3            bcc         LAB_0001a5ec                            
                            LAB_0001a5e6:                 ;XREF[1,0]:   0001a5de
ram:0001a5e6    ba42            cmp         param_3,r7                              
ram:0001a5e8    40f2b680        bls.w       LAB_0001a758                            
                            LAB_0001a5ec:                 ;XREF[1,0]:   0001a5e4
ram:0001a5ec    012b            cmp         r3,#0x1                                 
ram:0001a5ee    40f0b080        bne.w       LAB_0001a752                            
ram:0001a5f2    7378            ldrb        r3,[r6,#0x1]                            
ram:0001a5f4    9f42            cmp         r7,r3                                   
ram:0001a5f6    c0f0ac80        bcc.w       LAB_0001a752                            
ram:0001a5fa    adf80830        strh.w      r3,[sp,#local_30+0x38]                  
                            LAB_0001a5fe:                 ;XREF[1,0]:   0001a756
ram:0001a5fe    0821            movs        param_2,#0x8                            
                            LAB_0001a600:                 ;XREF[1,0]:   0001a75a
ram:0001a600    bdf80830        ldrh.w      r3,[sp,#local_30+0x38]                  
ram:0001a604    fe2b            cmp         r3,#0xfe                                
ram:0001a606    3ff642af        bhi.w       LAB_0001a48e                            
ram:0001a60a    2288            ldrh        param_3,[r4,#0x0]                       
ram:0001a60c    0133            adds        r3,#0x1                                 
ram:0001a60e    ab54            strb        r3,[r5,param_3]                         
ram:0001a610    2288            ldrh        param_3,[r4,#0x0]                       
ram:0001a612    0132            adds        param_3,#0x1                            
ram:0001a614    92b2            uxth        param_3,param_3                         
ram:0001a616    2280            strh        param_3,[r4,#0x0]                       
ram:0001a618    a954            strb        param_2,[r5,param_3]                    
ram:0001a61a    2288            ldrh        param_3,[r4,#0x0]                       
ram:0001a61c    1344            add         r3,param_3                              
ram:0001a61e    2380            strh        r3,[r4,#0x0]                            
ram:0001a620    0020            movs        param_1,#0x0                            
ram:0001a622    0be0            b           LAB_0001a63c                            
                            LAB_0001a624:                 ;XREF[1,0]:   0001a4e6
ram:0001a624    8de89000        stm         sp=>local_38,{r4,r7}                    
ram:0001a628    2b46            mov         r3,r5                                   
ram:0001a62a    0622            movs        param_3,#0x6                            
ram:0001a62c    0221            movs        param_2,#0x2                            
ram:0001a62e    06f10800        add.w       param_1,r6,#0x8                         
ram:0001a632    fff7b5fe        bl          FUN_0001a3a0                            ;undefined FUN_0001a3a0(ushort * para...
ram:0001a636    0028            cmp         param_1,#0x0                            
ram:0001a638    3ff457af        beq.w       LAB_0001a4ea                            
                            LAB_0001a63c:                 ;XREF[9,0]:   0001a3f8,0001a452,0001a490,0001a502
                                                          ;             0001a51e,0001a5a0,0001a5d4,0001a622
                                                          ;             0001a658
ram:0001a63c    05b0            add         sp,#0x14                                
ram:0001a63e    bde8f08f        pop.w       {r4,r5,r6,r7,r8,r9,r10,r11,pc}          
                            LAB_0001a642:                 ;XREF[1,0]:   0001a526
ram:0001a642    b4f800e0        ldrh.w      lr,[r4,#0x0]                            
ram:0001a646    0ef10603        add.w       r3,lr,#0x6                              
ram:0001a64a    bb42            cmp         r3,r7                                   
ram:0001a64c    3ff61faf        bhi.w       LAB_0001a48e                            
ram:0001a650    1188            ldrh        param_2,[param_3,#0x0]                  
ram:0001a652    0529            cmp         param_2,#0x5                            
ram:0001a654    01d8            bhi         LAB_0001a65a                            
                            LAB_0001a656:                 ;XREF[8,0]:   0001a580,0001a5a6,0001a66a,0001a670
                                                          ;             0001a67c,0001a68c,0001a6d0,0001a73a
ram:0001a656    0720            movs        param_1,#0x7                            
ram:0001a658    f0e7            b           LAB_0001a63c                            
                            LAB_0001a65a:                 ;XREF[1,0]:   0001a654
ram:0001a65a    6ff4486c        mvn         r12,#0xc80                              
ram:0001a65e    01eb0c03        add.w       r3,param_2,r12                          
ram:0001a662    9bb2            uxth        r3,r3                                   
ram:0001a664    4ff27d3c        movw        r12,#0xf37d                             
ram:0001a668    6345            cmp         r3,r12                                  
ram:0001a66a    f4d9            bls         LAB_0001a656                            
ram:0001a66c    5388            ldrh        r3,[param_3,#0x2]                       
ram:0001a66e    052b            cmp         r3,#0x5                                 
ram:0001a670    f1d9            bls         LAB_0001a656                            
ram:0001a672    6ff44860        mvn         param_1,#0xc80                          
ram:0001a676    1818            adds        param_1,r3,param_1                      
ram:0001a678    80b2            uxth        param_1,param_1                         
ram:0001a67a    6045            cmp         param_1,r12                             
ram:0001a67c    ebd9            bls         LAB_0001a656                            
ram:0001a67e    4ff6ff70        movw        param_1,#0xffff                         
ram:0001a682    8142            cmp         param_2,param_1                         
ram:0001a684    03d0            beq         LAB_0001a68e                            
ram:0001a686    8342            cmp         r3,param_1                              
ram:0001a688    01d0            beq         LAB_0001a68e                            
ram:0001a68a    9942            cmp         param_2,r3                              
ram:0001a68c    e3d8            bhi         LAB_0001a656                            
                            LAB_0001a68e:                 ;XREF[2,0]:   0001a684,0001a688
ram:0001a68e    0523            movs        r3,#0x5                                 
ram:0001a690    05f80e30        strb.w      r3,r5,lr,0x0                            
ram:0001a694    2388            ldrh        r3,[r4,#0x0]                            
ram:0001a696    0133            adds        r3,#0x1                                 
ram:0001a698    9bb2            uxth        r3,r3                                   
ram:0001a69a    1221            movs        param_2,#0x12                           
ram:0001a69c    2380            strh        r3,[r4,#0x0]                            
ram:0001a69e    e954            strb        param_2,[r5,r3]                         
ram:0001a6a0    2388            ldrh        r3,[r4,#0x0]                            
ram:0001a6a2    0133            adds        r3,#0x1                                 
ram:0001a6a4    9bb2            uxth        r3,r3                                   
ram:0001a6a6    2380            strh        r3,[r4,#0x0]                            
ram:0001a6a8    1188            ldrh        param_2,[param_3,#0x0]                  
ram:0001a6aa    e954            strb        param_2,[r5,r3]                         
ram:0001a6ac    e818            adds        param_1,r5,r3                           
ram:0001a6ae    090a            lsrs        param_2,param_2,#0x8                    
ram:0001a6b0    4170            strb        param_2,[param_1,#0x1]                  
ram:0001a6b2    2388            ldrh        r3,[r4,#0x0]                            
ram:0001a6b4    0233            adds        r3,#0x2                                 
ram:0001a6b6    9bb2            uxth        r3,r3                                   
ram:0001a6b8    2380            strh        r3,[r4,#0x0]                            
ram:0001a6ba    5288            ldrh        param_3,[param_3,#0x2]                  
ram:0001a6bc    ea54            strb        param_3,[r5,r3]                         
ram:0001a6be    e918            adds        param_2,r5,r3                           
ram:0001a6c0    120a            lsrs        param_3,param_3,#0x8                    
ram:0001a6c2    4a70            strb        param_3,[param_2,#0x1]                  
ram:0001a6c4    2388            ldrh        r3,[r4,#0x0]                            
ram:0001a6c6    0233            adds        r3,#0x2                                 
ram:0001a6c8    2380            strh        r3,[r4,#0x0]                            
ram:0001a6ca    2ee7            b           LAB_0001a52a                            
                            LAB_0001a6cc:                 ;XREF[1,0]:   0001a598
ram:0001a6cc    b36a            ldr         r3,[r6,#0x28]                           
ram:0001a6ce    002b            cmp         r3,#0x0                                 
ram:0001a6d0    c1d0            beq         LAB_0001a656                            
ram:0001a6d2    4ff00009        mov.w       r9,#0x0                                 
ram:0001a6d6    4ff00c0a        mov.w       r10,#0xc                                
ram:0001a6da    4ff0160b        mov.w       r11,#0x16                               
                            LAB_0001a6de:                 ;XREF[1,0]:   0001a750
ram:0001a6de    96f82c30        ldrb.w      r3,[r6,#0x2c]                           
ram:0001a6e2    5ffa89f2        uxtb.w      param_3,r9                              
ram:0001a6e6    9342            cmp         r3,param_3                              
ram:0001a6e8    7ff658af        bls.w       LAB_0001a59c                            
ram:0001a6ec    b16a            ldr         param_2,[r6,#0x28]                      
ram:0001a6ee    0afb02f2        mul         param_3,r10,param_3                     
ram:0001a6f2    01eb0208        add.w       r8,param_2,param_3                      
ram:0001a6f6    b8f80430        ldrh.w      r3,[r8,#0x4]                            
ram:0001a6fa    981c            adds        param_1,r3,#0x2                         
ram:0001a6fc    fe28            cmp         param_1,#0xfe                           
ram:0001a6fe    3ff6c6ae        bhi.w       LAB_0001a48e                            
ram:0001a702    2088            ldrh        param_1,[r4,#0x0]                       
ram:0001a704    0333            adds        r3,#0x3                                 
ram:0001a706    2b54            strb        r3,[r5,param_1]                         
ram:0001a708    2388            ldrh        r3,[r4,#0x0]                            
ram:0001a70a    0133            adds        r3,#0x1                                 
ram:0001a70c    9bb2            uxth        r3,r3                                   
ram:0001a70e    2380            strh        r3,[r4,#0x0]                            
ram:0001a710    05f803b0        strb.w      r11,r5,r3,0x0                           
ram:0001a714    2388            ldrh        r3,[r4,#0x0]                            
ram:0001a716    0133            adds        r3,#0x1                                 
ram:0001a718    9bb2            uxth        r3,r3                                   
ram:0001a71a    2380            strh        r3,[r4,#0x0]                            
ram:0001a71c    8a5a            ldrh        param_3,[param_2,param_3]               
ram:0001a71e    ea54            strb        param_3,[r5,r3]                         
ram:0001a720    e918            adds        param_2,r5,r3                           
ram:0001a722    120a            lsrs        param_3,param_3,#0x8                    
ram:0001a724    4a70            strb        param_3,[param_2,#0x1]                  
ram:0001a726    2088            ldrh        param_1,[r4,#0x0]                       
ram:0001a728    0230            adds        param_1,#0x2                            
ram:0001a72a    80b2            uxth        param_1,param_1                         
ram:0001a72c    2080            strh        param_1,[r4,#0x0]                       
ram:0001a72e    b8f80420        ldrh.w      param_3,[r8,#0x4]                       
ram:0001a732    5ab1            cbz         param_3,LAB_0001a74c                    
ram:0001a734    d8f80810        ldr.w       param_2,[r8,#0x8]                       
ram:0001a738    0029            cmp         param_2,#0x0                            
ram:0001a73a    8cd0            beq         LAB_0001a656                            
ram:0001a73c    2844            add         param_1,r5                              
ram:0001a73e    01f041ff        bl          FUN_0001c5c4                            ;undefined FUN_0001c5c4(int param_1, ...
ram:0001a742    2388            ldrh        r3,[r4,#0x0]                            
ram:0001a744    b8f80420        ldrh.w      param_3,[r8,#0x4]                       
ram:0001a748    1344            add         r3,param_3                              
ram:0001a74a    2380            strh        r3,[r4,#0x0]                            
                            LAB_0001a74c:                 ;XREF[1,0]:   0001a732
ram:0001a74c    09f10109        add.w       r9,r9,#0x1                              
ram:0001a750    c5e7            b           LAB_0001a6de                            
                            LAB_0001a752:                 ;XREF[2,0]:   0001a5ee,0001a5f6
ram:0001a752    adf80870        strh.w      r7,[sp,#local_30+0x38]                  
ram:0001a756    52e7            b           LAB_0001a5fe                            
                            LAB_0001a758:                 ;XREF[1,0]:   0001a5e8
ram:0001a758    0921            movs        param_2,#0x9                            
ram:0001a75a    51e7            b           LAB_0001a600                            
                            ;************************************************************************************************
                            ;*                                           FUNCTION                                           *
                            ;************************************************************************************************
                            ;uint FUN_0001a75c(uint param_1, uint param_2, ushort * param_3, uint param_4)
          ;param_1       uint                r0                      
          ;param_2       uint                r1                      
          ;param_3       ushort *            r2                      
          ;param_4       uint                r3                      
                                                          ;XREF[1,0]:   0001a7a4
ram:0001a75c    70b5            push        {r4,r5,r6,lr}                           
ram:0001a75e    58b1            cbz         param_1,LAB_0001a778                    
ram:0001a760    4ab1            cbz         param_3,LAB_0001a776                    
ram:0001a762    1688            ldrh        r6,[param_3,#0x0]                       
ram:0001a764    0024            movs        r4,#0x0                                 
                            LAB_0001a766:                 ;XREF[1,0]:   0001a782
ram:0001a766    b442            cmp         r4,r6                                   
ram:0001a768    03d3            bcc         LAB_0001a772                            
ram:0001a76a    0519            adds        r5,param_1,r4                           
ram:0001a76c    6d78            ldrb        r5,[r5,#0x1]                            
ram:0001a76e    9d42            cmp         r5,param_4                              
ram:0001a770    08d0            beq         LAB_0001a784                            
                            LAB_0001a772:                 ;XREF[1,0]:   0001a768
ram:0001a772    8c42            cmp         r4,param_2                              
ram:0001a774    01d3            bcc         LAB_0001a77a                            
                            LAB_0001a776:                 ;XREF[2,0]:   0001a760,0001a786
ram:0001a776    0020            movs        param_1,#0x0                            
                            LAB_0001a778:                 ;XREF[1,0]:   0001a75e
ram:0001a778    70bd            pop         {r4,r5,r6,pc}                           
                            LAB_0001a77a:                 ;XREF[1,0]:   0001a774
ram:0001a77a    055d            ldrb        r5,[param_1,r4]                         
ram:0001a77c    0135            adds        r5,#0x1                                 
ram:0001a77e    2c44            add         r4,r5                                   
ram:0001a780    a4b2            uxth        r4,r4                                   
ram:0001a782    f0e7            b           LAB_0001a766                            
                            LAB_0001a784:                 ;XREF[1,0]:   0001a770
ram:0001a784    8c42            cmp         r4,param_2                              
ram:0001a786    f6d2            bcs         LAB_0001a776                            
ram:0001a788    a31c            adds        param_4,r4,#0x2                         
ram:0001a78a    1380            strh        param_4,[param_3,#0x0]                  
ram:0001a78c    005d            ldrb        param_1,[param_1,r4]                    
ram:0001a78e    0138            subs        param_1,#0x1                            
ram:0001a790    80b2            uxth        param_1,param_1                         
ram:0001a792    70bd            pop         {r4,r5,r6,pc}                           
                            ;************************************************************************************************
                            ;*                                           FUNCTION                                           *
                            ;************************************************************************************************
                            ;uint FUN_0001a794(uint param_1, uint param_2, uint param_3)
          ;param_1       uint                r0                      
          ;param_2       uint                r1                      
          ;param_3       uint                r2                      
          ;local_12      undefined2         -12                      ;XREF[2,0]:   0001a79a,0001a7aa
                                                          ;XREF[1,0]:   0001a7cc
ram:0001a794    37b5            push        {param_1,param_2,param_3,r4,r5,lr}      
ram:0001a796    02ac            add         r4,sp,#0x8                              
ram:0001a798    0023            movs        r3,#0x0                                 
ram:0001a79a    24f8023d        strh        r3,[r4,#-0x2]!=>local_12                
ram:0001a79e    1346            mov         r3,param_3                              
ram:0001a7a0    2246            mov         param_3,r4                              
ram:0001a7a2    0546            mov         r5,param_1                              
ram:0001a7a4    fff7daff        bl          FUN_0001a75c                            ;uint FUN_0001a75c(uint param_1, uint...
ram:0001a7a8    10b1            cbz         param_1,LAB_0001a7b0                    
ram:0001a7aa    bdf80600        ldrh.w      param_1,[sp,#local_12+0x18]             
ram:0001a7ae    2844            add         param_1,r5                              
                            LAB_0001a7b0:                 ;XREF[1,0]:   0001a7a8
ram:0001a7b0    03b0            add         sp,#0xc                                 
ram:0001a7b2    30bd            pop         {r4,r5,pc}                              
                            ;************************************************************************************************
                            ;*                                           FUNCTION                                           *
                            ;************************************************************************************************
                            ;undefined FUN_0001a7b4(void)
                                                          ;XREF[3,0]:   0001a7e4,0001a8c2,0001aaac
ram:0001a7b4    72df            svc         0x72                                    
ram:0001a7b6    7047            bx          lr                                      
                            ;************************************************************************************************
                            ;*                                           FUNCTION                                           *
                            ;************************************************************************************************
                            ;undefined FUN_0001a7b8(void)
                                                          ;XREF[1,0]:   0001aaba
ram:0001a7b8    73df            svc         0x73                                    
ram:0001a7ba    7047            bx          lr                                      
                            ;************************************************************************************************
                            ;*                                           FUNCTION                                           *
                            ;************************************************************************************************
                            ;undefined FUN_0001a7bc(int param_1, undefined param_2)
          ;param_1       int                 r0                      
          ;param_2       undefined           r1                      
                                                          ;XREF[2,0]:   0001aa4c,0001aa8c
ram:0001a7bc    38b5            push        {r3,r4,r5,lr}                           
ram:0001a7be    0122            movs        r2,#0x1                                 
ram:0001a7c0    0446            mov         r4,param_1                              
ram:0001a7c2    0d46            mov         r5,param_2                              
ram:0001a7c4    b0f89810        ldrh.w      param_2,[param_1,#0x98]                 
ram:0001a7c8    d0f89400        ldr.w       param_1,[param_1,#0x94]                 
ram:0001a7cc    fff7e2ff        bl          FUN_0001a794                            ;uint FUN_0001a794(uint param_1, uint...
ram:0001a7d0    00b1            cbz         param_1,LAB_0001a7d4                    
ram:0001a7d2    0570            strb        r5,[param_1,#0x0]                       
                            LAB_0001a7d4:                 ;XREF[1,0]:   0001a7d0
ram:0001a7d4    04f13c02        add.w       r2,r4,#0x3c                             
ram:0001a7d8    04f19401        add.w       param_2,r4,#0x94                        
ram:0001a7dc    04f15400        add.w       param_1,r4,#0x54                        
ram:0001a7e0    bde83840        pop.w       {r3,r4,r5,lr}                           
ram:0001a7e4    fff7e6bf        b.w         FUN_0001a7b4                            ;undefined FUN_0001a7b4(void)
                            ;************************************************************************************************
                            ;*                                           FUNCTION                                           *
                            ;************************************************************************************************
                            ;undefined FUN_0001a7e8(int param_1, undefined param_2)
          ;param_1       int                 r0                      
          ;param_2       undefined           r1                      
                                                          ;XREF[1,0]:   0001c428
ram:0001a7e8    80f83010        strb.w      param_2,[param_1,#0x30]                 
ram:0001a7ec    7047            bx          lr                                      
                            ;************************************************************************************************
                            ;*                                           FUNCTION                                           *
                            ;************************************************************************************************
                            ;int FUN_0001a7ee(char * param_1, short * param_2)
          ;param_1       char *              r0                      
          ;param_2       short *             r1                      
                                                          ;XREF[1,0]:   0001c41a
ram:0001a7ee    f8b5            push        {r3,r4,r5,r6,r7,lr}                     
ram:0001a7f0    0446            mov         r4,param_1                              
ram:0001a7f2    0f46            mov         r7,param_2                              
ram:0001a7f4    81b1            cbz         param_2,LAB_0001a818                    
ram:0001a7f6    78b1            cbz         param_1,LAB_0001a818                    
ram:0001a7f8    91f87a30        ldrb.w      r3,[param_2,#0x7a]                      
ram:0001a7fc    13b1            cbz         r3,LAB_0001a804                         
ram:0001a7fe    91f89830        ldrb.w      r3,[param_2,#0x98]                      
ram:0001a802    3bb9            cbnz        r3,LAB_0001a814                         
                            LAB_0001a804:                 ;XREF[1,0]:   0001a7fc
ram:0001a804    d7f8a030        ldr.w       r3,[r7,#0xa0]                           
ram:0001a808    042b            cmp         r3,#0x4                                 
ram:0001a80a    03d0            beq         LAB_0001a814                            
ram:0001a80c    d7f89c30        ldr.w       r3,[r7,#0x9c]                           
ram:0001a810    042b            cmp         r3,#0x4                                 
ram:0001a812    03d1            bne         LAB_0001a81c                            
                            LAB_0001a814:                 ;XREF[2,0]:   0001a802,0001a80a
ram:0001a814    0720            movs        param_1,#0x7                            
ram:0001a816    f8bd            pop         {r3,r4,r5,r6,r7,pc}                     
                            LAB_0001a818:                 ;XREF[2,0]:   0001a7f4,0001a7f6
ram:0001a818    0e20            movs        param_1,#0xe                            
ram:0001a81a    f8bd            pop         {r3,r4,r5,r6,r7,pc}                     
                            LAB_0001a81c:                 ;XREF[1,0]:   0001a812
ram:0001a81c    4ff0000e        mov.w       lr,#0x0                                 
ram:0001a820    84f802e0        strb.w      lr,[r4,#0x2]                            
ram:0001a824    07f17806        add.w       r6,r7,#0x78                             
ram:0001a828    0fce            ldmia       r6!,{param_1,param_2,r2,r3}             
ram:0001a82a    251d            adds        r5,r4,#0x4                              
ram:0001a82c    0fc5            stmia       r5!,{param_1,param_2,r2,r3}             
ram:0001a82e    0fce            ldmia       r6!,{param_1,param_2,r2,r3}             
ram:0001a830    0fc5            stmia       r5!,{param_1,param_2,r2,r3}             
ram:0001a832    96e80700        ldm.w       r6,{param_1,param_2,r2}                 
ram:0001a836    85e80700        stm         r5,{param_1,param_2,r2}                 
ram:0001a83a    84f830e0        strb.w      lr,[r4,#0x30]                           
ram:0001a83e    d7f8a430        ldr.w       r3,[r7,#0xa4]                           
ram:0001a842    6363            str         r3,[r4,#0x34]                           
ram:0001a844    d7f8a830        ldr.w       r3,[r7,#0xa8]                           
ram:0001a848    a363            str         r3,[r4,#0x38]                           
ram:0001a84a    4ff6ff75        movw        r5,#0xffff                              
ram:0001a84e    04f19403        add.w       r3,r4,#0x94                             
ram:0001a852    c4f8a430        str.w       r3,[r4,#0xa4]                           
ram:0001a856    a4f8a850        strh.w      r5,[r4,#0xa8]                           
ram:0001a85a    0722            movs        r2,#0x7                                 
ram:0001a85c    7146            mov         param_2,lr                              
ram:0001a85e    04f1aa00        add.w       param_1,r4,#0xaa                        
ram:0001a862    01f0bafe        bl          FUN_0001c5da                            ;undefined FUN_0001c5da(undefined * p...
ram:0001a866    2378            ldrb        r3,[r4,#0x0]                            
ram:0001a868    0bb9            cbnz        r3,LAB_0001a86e                         
ram:0001a86a    84f85450        strb.w      r5,[r4,#0x54]                           
                            LAB_0001a86e:                 ;XREF[1,0]:   0001a868
ram:0001a86e    2246            mov         r2,r4                                   
ram:0001a870    04f15501        add.w       param_2,r4,#0x55                        
ram:0001a874    1f25            movs        r5,#0x1f                                
ram:0001a876    c4f89410        str.w       param_2,[r4,#0x94]                      
ram:0001a87a    3846            mov         param_1,r7                              
ram:0001a87c    22f8985f        strh        r5,[r2,#0x98]!                          
ram:0001a880    fff7a8fd        bl          FUN_0001a3d4                            ;int FUN_0001a3d4(short * param_1, in...
ram:0001a884    10bb            cbnz        param_1,LAB_0001a8cc                    
ram:0001a886    2246            mov         r2,r4                                   
ram:0001a888    04f17401        add.w       param_2,r4,#0x74                        
ram:0001a88c    c4f89c10        str.w       param_2,[r4,#0x9c]                      
ram:0001a890    07f13c00        add.w       param_1,r7,#0x3c                        
ram:0001a894    22f8a05f        strh        r5,[r2,#0xa0]!                          
ram:0001a898    fff79cfd        bl          FUN_0001a3d4                            ;int FUN_0001a3d4(short * param_1, in...
ram:0001a89c    b0b9            cbnz        param_1,LAB_0001a8cc                    
ram:0001a89e    a269            ldr         r2,[r4,#0x18]                           
ram:0001a8a0    a4f84820        strh.w      r2,[r4,#0x48]                           
ram:0001a8a4    0123            movs        r3,#0x1                                 
ram:0001a8a6    6269            ldr         r2,[r4,#0x14]                           
ram:0001a8a8    2064            str         param_1,[r4,#0x40]                      
ram:0001a8aa    84f85000        strb.w      param_1,[r4,#0x50]                      
ram:0001a8ae    6264            str         r2,[r4,#0x44]                           
ram:0001a8b0    0146            mov         param_2,param_1                         
ram:0001a8b2    84f85130        strb.w      r3,[r4,#0x51]                           
ram:0001a8b6    84f83c30        strb.w      r3,[r4,#0x3c]                           
ram:0001a8ba    04f13c02        add.w       r2,r4,#0x3c                             
ram:0001a8be    04f15400        add.w       param_1,r4,#0x54                        
ram:0001a8c2    fff777ff        bl          FUN_0001a7b4                            ;undefined FUN_0001a7b4(void)
ram:0001a8c6    08b9            cbnz        param_1,LAB_0001a8cc                    
ram:0001a8c8    2370            strb        r3,[r4,#0x0]                            
ram:0001a8ca    f8bd            pop         {r3,r4,r5,r6,r7,pc}                     
                            LAB_0001a8cc:                 ;XREF[3,0]:   0001a884,0001a89c,0001a8c6
ram:0001a8cc    f8bd            pop         {r3,r4,r5,r6,r7,pc}                     
                            ;************************************************************************************************
                            ;*                                           FUNCTION                                           *
                            ;************************************************************************************************
                            ;int FUN_0001a8ce(char * param_1, int param_2)
          ;param_1       char *              r0                      
          ;param_2       int                 r1                      
                                                          ;XREF[2,0]:   0001ab12,0001c4e6
ram:0001a8ce    f8b5            push        {r3,r4,r5,r6,r7,lr}                     
ram:0001a8d0    0778            ldrb        r7,[param_1,#0x0]                       
ram:0001a8d2    0446            mov         r4,param_1                              
ram:0001a8d4    0d46            mov         r5,param_2                              
ram:0001a8d6    002f            cmp         r7,#0x0                                 
ram:0001a8d8    00f0f880        beq.w       LAB_0001aacc                            
ram:0001a8dc    00f1aa06        add.w       r6,param_1,#0xaa                        
ram:0001a8e0    a170            strb        param_2,[r4,#0x2]                       
ram:0001a8e2    0722            movs        r2,#0x7                                 
ram:0001a8e4    0021            movs        param_2,#0x0                            
ram:0001a8e6    3046            mov         param_1,r6                              
ram:0001a8e8    01f077fe        bl          FUN_0001c5da                            ;undefined FUN_0001c5da(undefined * p...
ram:0001a8ec    e388            ldrh        r3,[r4,#0x6]                            
ram:0001a8ee    13b1            cbz         r3,LAB_0001a8f6                         
ram:0001a8f0    a378            ldrb        r3,[r4,#0x2]                            
ram:0001a8f2    012b            cmp         r3,#0x1                                 
ram:0001a8f4    04d0            beq         LAB_0001a900                            
                            LAB_0001a8f6:                 ;XREF[1,0]:   0001a8ee
ram:0001a8f6    e379            ldrb        r3,[r4,#0x7]                            
ram:0001a8f8    4bb1            cbz         r3,LAB_0001a90e                         
ram:0001a8fa    a378            ldrb        r3,[r4,#0x2]                            
ram:0001a8fc    022b            cmp         r3,#0x2                                 
ram:0001a8fe    06d1            bne         LAB_0001a90e                            
                            LAB_0001a900:                 ;XREF[1,0]:   0001a8f4
ram:0001a900    636b            ldr         r3,[r4,#0x34]                           
ram:0001a902    9bb1            cbz         r3,LAB_0001a92c                         
ram:0001a904    0122            movs        r2,#0x1                                 
ram:0001a906    84f8b120        strb.w      r2,[r4,#0xb1]                           
ram:0001a90a    0820            movs        param_1,#0x8                            
ram:0001a90c    9847            blx         r3                                      
                            LAB_0001a90e:                 ;XREF[3,0]:   0001a8f8,0001a8fe,0001a930
ram:0001a90e    3246            mov         r2,r6                                   
ram:0001a910    04f1b001        add.w       param_2,r4,#0xb0                        
                            LAB_0001a914:                 ;XREF[1,0]:   0001a91c
ram:0001a914    12f8013f        ldrb.w      r3,[r2,#0x1]!                           
ram:0001a918    5bb9            cbnz        r3,LAB_0001a932                         
ram:0001a91a    8a42            cmp         r2,param_2                              
ram:0001a91c    fad1            bne         LAB_0001a914                            
                            LAB_0001a91e:                 ;XREF[1,0]:   0001a934
ram:0001a91e    6a1e            subs        r2,r5,#0x1                              
ram:0001a920    032a            cmp         r2,#0x3                                 
ram:0001a922    50d8            bhi         switchD_0001a924::caseD_4               
                            switchD:                      ;XREF[0,1]:   0001a924
                                                          ; FWD[6,0]:   0001a927,0001a936,0001a942,0001a94a
                                                          ;             0001a950,0001a9c6
ram:0001a924    dfe802f0        tbb         [0x1a928,r2]=>switchD+3                 
                            switchdataD_0001a928:         
ram:0001a928    07              db          7h                                      
ram:0001a929    0d              db          Dh                                      
ram:0001a92a    11              db          11h                                     
ram:0001a92b    14              db          14h                                     
                            LAB_0001a92c:                 ;XREF[1,0]:   0001a902
ram:0001a92c    84f8b130        strb.w      r3,[r4,#0xb1]                           
ram:0001a930    ede7            b           LAB_0001a90e                            
                            LAB_0001a932:                 ;XREF[1,0]:   0001a918
ram:0001a932    3b46            mov         r3,r7                                   
ram:0001a934    f3e7            b           LAB_0001a91e                            
                            caseD_1:                      ;XREF[1,0]:   0001a924
ram:0001a936    a279            ldrb        r2,[r4,#0x6]                            
ram:0001a938    1ab1            cbz         r2,switchD_0001a924::caseD_2            
ram:0001a93a    94f82420        ldrb.w      r2,[r4,#0x24]                           
ram:0001a93e    02b9            cbnz        r2,switchD_0001a924::caseD_2            
ram:0001a940    5bb9            cbnz        r3,LAB_0001a95a                         
                            caseD_2:                      ;XREF[3,0]:   0001a924,0001a938,0001a93e
ram:0001a942    e279            ldrb        r2,[r4,#0x7]                            
ram:0001a944    0ab1            cbz         r2,switchD_0001a924::caseD_3            
ram:0001a946    002b            cmp         r3,#0x0                                 
ram:0001a948    3fd1            bne         LAB_0001a9ca                            
                            caseD_3:                      ;XREF[2,0]:   0001a924,0001a944
ram:0001a94a    237a            ldrb        r3,[r4,#0x8]                            
ram:0001a94c    002b            cmp         r3,#0x0                                 
ram:0001a94e    3ed1            bne         LAB_0001a9ce                            
                            caseD_4:                      ;XREF[1,0]:   0001a924
ram:0001a950    637a            ldrb        r3,[r4,#0x9]                            
ram:0001a952    002b            cmp         r3,#0x0                                 
ram:0001a954    0cbf            ite         eq                                      
ram:0001a956    0025            mov.eq      r5,#0x0                                 
ram:0001a958    0425            mov.ne      r5,#0x4                                 
                            LAB_0001a95a:                 ;XREF[4,0]:   0001a940,0001a9c8,0001a9cc,0001a9d0
ram:0001a95a    636b            ldr         r3,[r4,#0x34]                           
ram:0001a95c    a570            strb        r5,[r4,#0x2]                            
ram:0001a95e    002b            cmp         r3,#0x0                                 
ram:0001a960    37d0            beq         LAB_0001a9d2                            
ram:0001a962    033d            subs        r5,#0x3                                 
ram:0001a964    012d            cmp         r5,#0x1                                 
ram:0001a966    34d8            bhi         LAB_0001a9d2                            
ram:0001a968    6279            ldrb        r2,[r4,#0x5]                            
ram:0001a96a    92b3            cbz         r2,LAB_0001a9d2                         
ram:0001a96c    94f8b220        ldrb.w      r2,[r4,#0xb2]                           
ram:0001a970    7abb            cbnz        r2,LAB_0001a9d2                         
ram:0001a972    84f8b420        strb.w      r2,[r4,#0xb4]                           
ram:0001a976    0122            movs        r2,#0x1                                 
ram:0001a978    84f8b320        strb.w      r2,[r4,#0xb3]                           
ram:0001a97c    0720            movs        param_1,#0x7                            
ram:0001a97e    9847            blx         r3                                      
                            LAB_0001a980:                 ;XREF[1,0]:   0001a9d8
ram:0001a980    04f13c05        add.w       r5,r4,#0x3c                             
ram:0001a984    1822            movs        r2,#0x18                                
ram:0001a986    0021            movs        param_2,#0x0                            
ram:0001a988    2846            mov         param_1,r5                              
ram:0001a98a    01f026fe        bl          FUN_0001c5da                            ;undefined FUN_0001c5da(undefined * p...
ram:0001a98e    e26a            ldr         r2,[r4,#0x2c]                           
ram:0001a990    0123            movs        r3,#0x1                                 
ram:0001a992    511e            subs        param_2,r2,#0x1                         
ram:0001a994    9942            cmp         param_2,r3                              
ram:0001a996    84f83c30        strb.w      r3,[r4,#0x3c]                           
ram:0001a99a    00f29980        bhi.w       LAB_0001aad0                            
ram:0001a99e    84f85120        strb.w      r2,[r4,#0x51]                           
                            LAB_0001a9a2:                 ;XREF[1,0]:   0001aad6
ram:0001a9a2    94f82430        ldrb.w      r3,[r4,#0x24]                           
ram:0001a9a6    1bb1            cbz         r3,LAB_0001a9b0                         
ram:0001a9a8    bfb1            cbz         r7,LAB_0001a9da                         
ram:0001a9aa    a36a            ldr         r3,[r4,#0x28]                           
                            LAB_0001a9ac:                 ;XREF[1,0]:   0001a9dc
ram:0001a9ac    84f85230        strb.w      r3,[r4,#0x52]                           
                            LAB_0001a9b0:                 ;XREF[1,0]:   0001a9a6
ram:0001a9b0    a278            ldrb        r2,[r4,#0x2]                            
ram:0001a9b2    0023            movs        r3,#0x0                                 
ram:0001a9b4    84f85030        strb.w      r3,[r4,#0x50]                           
ram:0001a9b8    042a            cmp         r2,#0x4                                 
ram:0001a9ba    1dd8            bhi         switchD_0001a9bc::caseD_5               
                            switchD:                      ; FWD[7,0]:   0001a9c0,0001a9de,0001a9f8,0001aa08
                                                          ;             0001aa28,0001aa68,0001aa9c
ram:0001a9bc    dfe802f0        tbb         [switchD_0001a9bc::switchdataD_0001a9...;= 6Eh
                            switchdataD_0001a9c0:         ;XREF[1,0]:   0001a9bc
ram:0001a9c0    6e              db          6Eh                                     
ram:0001a9c1    0f              db          Fh                                      
ram:0001a9c2    24              db          24h                                     
ram:0001a9c3    34              db          34h                                     
ram:0001a9c4    54              db          54h                                     
                            caseD_4:                      ;XREF[2,0]:   0001a922,0001a924
ram:0001a9c6    0025            movs        r5,#0x0                                 
ram:0001a9c8    c7e7            b           LAB_0001a95a                            
                            LAB_0001a9ca:                 ;XREF[1,0]:   0001a948
ram:0001a9ca    0225            movs        r5,#0x2                                 
ram:0001a9cc    c5e7            b           LAB_0001a95a                            
                            LAB_0001a9ce:                 ;XREF[1,0]:   0001a94e
ram:0001a9ce    0325            movs        r5,#0x3                                 
ram:0001a9d0    c3e7            b           LAB_0001a95a                            
                            LAB_0001a9d2:                 ;XREF[4,0]:   0001a960,0001a966,0001a96a,0001a970
ram:0001a9d2    0023            movs        r3,#0x0                                 
ram:0001a9d4    84f8b330        strb.w      r3,[r4,#0xb3]                           
ram:0001a9d8    d2e7            b           LAB_0001a980                            
                            LAB_0001a9da:                 ;XREF[1,0]:   0001a9a8
ram:0001a9da    0123            movs        r3,#0x1                                 
ram:0001a9dc    e6e7            b           LAB_0001a9ac                            
                            caseD_1:                      ;XREF[1,0]:   0001a9bc
ram:0001a9de    c4f8a430        str.w       r3,[r4,#0xa4]                           
ram:0001a9e2    6364            str         r3,[r4,#0x44]                           
ram:0001a9e4    0223            movs        r3,#0x2                                 
ram:0001a9e6    0122            movs        r2,#0x1                                 
ram:0001a9e8    84f83c30        strb.w      r3,[r4,#0x3c]                           
ram:0001a9ec    8023            movs        r3,#0x80                                
ram:0001a9ee    84f83120        strb.w      r2,[r4,#0x31]                           
ram:0001a9f2    2664            str         r6,[r4,#0x40]                           
ram:0001a9f4    a4f84830        strh.w      r3,[r4,#0x48]                           
                            caseD_5:                      ;XREF[7,0]:   0001a9ba,0001a9bc,0001aa26,0001aa52
                                                          ;             0001aa62,0001aa92,0001aaa0
ram:0001a9f8    a378            ldrb        r3,[r4,#0x2]                            
ram:0001a9fa    002b            cmp         r3,#0x0                                 
ram:0001a9fc    51d1            bne         LAB_0001aaa2                            
                            LAB_0001a9fe:                 ;XREF[1,0]:   0001aac0
ram:0001a9fe    636b            ldr         r3,[r4,#0x34]                           
ram:0001aa00    002b            cmp         r3,#0x0                                 
ram:0001aa02    5fd1            bne         LAB_0001aac4                            
                            LAB_0001aa04:                 ;XREF[1,0]:   0001aaca
ram:0001aa04    0020            movs        param_1,#0x0                            
ram:0001aa06    f8bd            pop         {r3,r4,r5,r6,r7,pc}                     
                            caseD_2:                      ;XREF[1,0]:   0001a9bc
ram:0001aa08    0223            movs        r3,#0x2                                 
ram:0001aa0a    84f83130        strb.w      r3,[r4,#0x31]                           
ram:0001aa0e    0323            movs        r3,#0x3                                 
ram:0001aa10    84f83c30        strb.w      r3,[r4,#0x3c]                           
ram:0001aa14    2369            ldr         r3,[r4,#0x10]                           
ram:0001aa16    a4f84830        strh.w      r3,[r4,#0x48]                           
ram:0001aa1a    0023            movs        r3,#0x0                                 
ram:0001aa1c    c4f8a430        str.w       r3,[r4,#0xa4]                           
ram:0001aa20    e368            ldr         r3,[r4,#0xc]                            
ram:0001aa22    2664            str         r6,[r4,#0x40]                           
ram:0001aa24    6364            str         r3,[r4,#0x44]                           
ram:0001aa26    e7e7            b           switchD_0001a9bc::caseD_5               
                            caseD_3:                      ;XREF[1,0]:   0001a9bc
ram:0001aa28    6369            ldr         r3,[r4,#0x14]                           
ram:0001aa2a    6364            str         r3,[r4,#0x44]                           
ram:0001aa2c    a369            ldr         r3,[r4,#0x18]                           
ram:0001aa2e    a4f84830        strh.w      r3,[r4,#0x48]                           
ram:0001aa32    6379            ldrb        r3,[r4,#0x5]                            
ram:0001aa34    b3b1            cbz         r3,LAB_0001aa64                         
ram:0001aa36    94f8b230        ldrb.w      r3,[r4,#0xb2]                           
ram:0001aa3a    9bb9            cbnz        r3,LAB_0001aa64                         
ram:0001aa3c    94f8b430        ldrb.w      r3,[r4,#0xb4]                           
ram:0001aa40    83b1            cbz         r3,LAB_0001aa64                         
ram:0001aa42    0223            movs        r3,#0x2                                 
ram:0001aa44    84f85030        strb.w      r3,[r4,#0x50]                           
ram:0001aa48    0421            movs        param_2,#0x4                            
ram:0001aa4a    2046            mov         param_1,r4                              
ram:0001aa4c    fff7b6fe        bl          FUN_0001a7bc                            ;undefined FUN_0001a7bc(int param_1, ...
ram:0001aa50    0028            cmp         param_1,#0x0                            
ram:0001aa52    d1d1            bne         switchD_0001a9bc::caseD_5               
ram:0001aa54    0523            movs        r3,#0x5                                 
                            LAB_0001aa56:                 ;XREF[3,0]:   0001aa66,0001aa96,0001aa9a
ram:0001aa56    84f83130        strb.w      r3,[r4,#0x31]                           
ram:0001aa5a    04f19403        add.w       r3,r4,#0x94                             
ram:0001aa5e    c4f8a430        str.w       r3,[r4,#0xa4]                           
ram:0001aa62    c9e7            b           switchD_0001a9bc::caseD_5               
                            LAB_0001aa64:                 ;XREF[3,0]:   0001aa34,0001aa3a,0001aa40
ram:0001aa64    0323            movs        r3,#0x3                                 
ram:0001aa66    f6e7            b           LAB_0001aa56                            
                            caseD_4:                      ;XREF[1,0]:   0001a9bc
ram:0001aa68    e369            ldr         r3,[r4,#0x1c]                           
ram:0001aa6a    6364            str         r3,[r4,#0x44]                           
ram:0001aa6c    236a            ldr         r3,[r4,#0x20]                           
ram:0001aa6e    a4f84830        strh.w      r3,[r4,#0x48]                           
ram:0001aa72    6379            ldrb        r3,[r4,#0x5]                            
ram:0001aa74    83b1            cbz         r3,LAB_0001aa98                         
ram:0001aa76    94f8b230        ldrb.w      r3,[r4,#0xb2]                           
ram:0001aa7a    6bb9            cbnz        r3,LAB_0001aa98                         
ram:0001aa7c    94f8b430        ldrb.w      r3,[r4,#0xb4]                           
ram:0001aa80    53b1            cbz         r3,LAB_0001aa98                         
ram:0001aa82    0223            movs        r3,#0x2                                 
ram:0001aa84    84f85030        strb.w      r3,[r4,#0x50]                           
ram:0001aa88    0421            movs        param_2,#0x4                            
ram:0001aa8a    2046            mov         param_1,r4                              
ram:0001aa8c    fff796fe        bl          FUN_0001a7bc                            ;undefined FUN_0001a7bc(int param_1, ...
ram:0001aa90    0028            cmp         param_1,#0x0                            
ram:0001aa92    b1d1            bne         switchD_0001a9bc::caseD_5               
ram:0001aa94    0623            movs        r3,#0x6                                 
ram:0001aa96    dee7            b           LAB_0001aa56                            
                            LAB_0001aa98:                 ;XREF[3,0]:   0001aa74,0001aa7a,0001aa80
ram:0001aa98    0423            movs        r3,#0x4                                 
ram:0001aa9a    dce7            b           LAB_0001aa56                            
                            caseD_0:                      ;XREF[1,0]:   0001a9bc
ram:0001aa9c    84f83130        strb.w      r3,[r4,#0x31]                           
ram:0001aaa0    aae7            b           switchD_0001a9bc::caseD_5               
                            LAB_0001aaa2:                 ;XREF[1,0]:   0001a9fc
ram:0001aaa2    2a46            mov         r2,r5                                   
ram:0001aaa4    d4f8a410        ldr.w       param_2,[r4,#0xa4]                      
ram:0001aaa8    04f15400        add.w       param_1,r4,#0x54                        
ram:0001aaac    fff782fe        bl          FUN_0001a7b4                            ;undefined FUN_0001a7b4(void)
ram:0001aab0    90b9            cbnz        param_1,LAB_0001aad8                    
ram:0001aab2    94f83010        ldrb.w      param_2,[r4,#0x30]                      
ram:0001aab6    94f85400        ldrb.w      param_1,[r4,#0x54]                      
ram:0001aaba    fff77dfe        bl          FUN_0001a7b8                            ;undefined FUN_0001a7b8(void)
ram:0001aabe    0028            cmp         param_1,#0x0                            
ram:0001aac0    9dd0            beq         LAB_0001a9fe                            
ram:0001aac2    f8bd            pop         {r3,r4,r5,r6,r7,pc}                     
                            LAB_0001aac4:                 ;XREF[1,0]:   0001aa02
ram:0001aac4    94f83100        ldrb.w      param_1,[r4,#0x31]                      
ram:0001aac8    9847            blx         r3                                      
ram:0001aaca    9be7            b           LAB_0001aa04                            
                            LAB_0001aacc:                 ;XREF[1,0]:   0001a8d8
ram:0001aacc    0820            movs        param_1,#0x8                            
ram:0001aace    f8bd            pop         {r3,r4,r5,r6,r7,pc}                     
                            LAB_0001aad0:                 ;XREF[1,0]:   0001a99a
ram:0001aad0    84f85130        strb.w      r3,[r4,#0x51]                           
ram:0001aad4    0027            movs        r7,#0x0                                 
ram:0001aad6    64e7            b           LAB_0001a9a2                            
                            LAB_0001aad8:                 ;XREF[1,0]:   0001aab0
ram:0001aad8    f8bd            pop         {r3,r4,r5,r6,r7,pc}                     
                            ;************************************************************************************************
                            ;*                                           FUNCTION                                           *
                            ;************************************************************************************************
                            ;undefined FUN_0001aada(short * param_1, char * param_2)
          ;param_1       short *             r0                      
          ;param_2       char *              r1                      
ram:0001aada    10b5            push        {r4,lr}                                 
ram:0001aadc    0388            ldrh        r3,[param_1,#0x0]                       
ram:0001aade    112b            cmp         r3,#0x11                                
ram:0001aae0    0c46            mov         r4,param_2                              
ram:0001aae2    0ad0            beq         LAB_0001aafa                            
ram:0001aae4    262b            cmp         r3,#0x26                                
ram:0001aae6    1cd0            beq         LAB_0001ab22                            
ram:0001aae8    102b            cmp         r3,#0x10                                
ram:0001aaea    28d1            bne         LAB_0001ab3e                            
ram:0001aaec    c37b            ldrb        r3,[param_1,#0xf]                       
ram:0001aaee    012b            cmp         r3,#0x1                                 
ram:0001aaf0    25d1            bne         LAB_0001ab3e                            
ram:0001aaf2    8388            ldrh        r3,[param_1,#0x4]                       
ram:0001aaf4    a1f8a830        strh.w      r3,[param_2,#0xa8]                      
ram:0001aaf8    10bd            pop         {r4,pc}                                 
                            LAB_0001aafa:                 ;XREF[1,0]:   0001aae2
ram:0001aafa    0023            movs        r3,#0x0                                 
ram:0001aafc    81f8b230        strb.w      r3,[param_2,#0xb2]                      
ram:0001ab00    8288            ldrh        r2,[param_1,#0x4]                       
ram:0001ab02    b1f8a830        ldrh.w      r3,[param_2,#0xa8]                      
ram:0001ab06    9a42            cmp         r2,r3                                   
ram:0001ab08    19d1            bne         LAB_0001ab3e                            
ram:0001ab0a    0b79            ldrb        r3,[param_2,#0x4]                       
ram:0001ab0c    bbb9            cbnz        r3,LAB_0001ab3e                         
ram:0001ab0e    0121            movs        param_2,#0x1                            
                            LAB_0001ab10:                 ;XREF[1,0]:   0001ab3c
ram:0001ab10    2046            mov         param_1,r4                              
ram:0001ab12    fff7dcfe        bl          FUN_0001a8ce                            ;int FUN_0001a8ce(char * param_1, int...
ram:0001ab16    90b1            cbz         param_1,LAB_0001ab3e                    
ram:0001ab18    a36b            ldr         r3,[r4,#0x38]                           
ram:0001ab1a    83b1            cbz         r3,LAB_0001ab3e                         
ram:0001ab1c    bde81040        pop.w       {r4,lr}                                 
ram:0001ab20    1847            bx          r3                                      
                            LAB_0001ab22:                 ;XREF[1,0]:   0001aae6
ram:0001ab22    037a            ldrb        r3,[param_1,#0x8]                       
ram:0001ab24    013b            subs        r3,#0x1                                 
ram:0001ab26    012b            cmp         r3,#0x1                                 
ram:0001ab28    09d8            bhi         LAB_0001ab3e                            
ram:0001ab2a    8978            ldrb        param_2,[param_2,#0x2]                  
ram:0001ab2c    0523            movs        r3,#0x5                                 
ram:0001ab2e    0131            adds        param_2,#0x1                            
ram:0001ab30    91fbf3f3        sdiv        r3,param_2,r3                           
ram:0001ab34    03eb8303        add.w       r3,r3,r3, lsl #0x2                      
ram:0001ab38    c91a            subs        param_2,param_2,r3                      
ram:0001ab3a    c9b2            uxtb        param_2,param_2                         
ram:0001ab3c    e8e7            b           LAB_0001ab10                            
                            LAB_0001ab3e:                 ;XREF[7,0]:   0001aaea,0001aaf0,0001ab08,0001ab0c
                                                          ;             0001ab16,0001ab1a,0001ab28
ram:0001ab3e    10bd            pop         {r4,pc}                                 
ram:0001ab40    7047            bx          lr                                      
                            ;************************************************************************************************
                            ;*                                           FUNCTION                                           *
                            ;************************************************************************************************
                            ;undefined FUN_0001ab42(int param_1, undefined4 * param_2)
          ;param_1       int                 r0                      
          ;param_2       undefined4 *        r1                      
                                                          ;XREF[1,0]:   0001bff4
ram:0001ab42    30b5            push        {r4,r5,lr}                              
ram:0001ab44    0d46            mov         r5,param_2                              
ram:0001ab46    041d            adds        r4,param_1,#0x4                         
ram:0001ab48    0fcd            ldmia       r5!,{param_1,param_2,r2,r3}             
ram:0001ab4a    0fc4            stmia       r4!,{param_1,param_2,r2,r3}             
ram:0001ab4c    0fcd            ldmia       r5!,{param_1,param_2,r2,r3}             
ram:0001ab4e    0fc4            stmia       r4!,{param_1,param_2,r2,r3}             
ram:0001ab50    95e80700        ldm.w       r5,{param_1,param_2,r2}                 
ram:0001ab54    84e80700        stm         r4,{param_1,param_2,r2}                 
ram:0001ab58    30bd            pop         {r4,r5,pc}                              
                            ;************************************************************************************************
                            ;*                                           FUNCTION                                           *
                            ;************************************************************************************************
                            ;undefined FUN_0001ab5a(void)
                                                          ;XREF[1,0]:   0001abae
ram:0001ab5a    75df            svc         0x75                                    
ram:0001ab5c    7047            bx          lr                                      
                            ;************************************************************************************************
                            ;*                                           FUNCTION                                           *
                            ;************************************************************************************************
                            ;undefined FUN_0001ab5e(void)
                                                          ;XREF[1,0]:   0001abcc
ram:0001ab5e    76df            svc         0x76                                    
ram:0001ab60    7047            bx          lr                                      
                            ;************************************************************************************************
                            ;*                                           FUNCTION                                           *
                            ;************************************************************************************************
                            ;undefined FUN_0001ab62(void)
                                                          ;XREF[1,0]:   0001ad7c
ram:0001ab62    7adf            svc         0x7a                                    
ram:0001ab64    7047            bx          lr                                      
                            ;************************************************************************************************
                            ;*                                           FUNCTION                                           *
                            ;************************************************************************************************
                            ;undefined FUN_0001ab66(void)
                                                          ;XREF[1,0]:   0001adae
ram:0001ab66    7bdf            svc         0x7b                                    
ram:0001ab68    7047            bx          lr                                      
ram:0001ab6a    0000            movs        r0,r0                                   
                            ;************************************************************************************************
                            ;*                                           FUNCTION                                           *
                            ;************************************************************************************************
                            ;ushort * FUN_0001ab6c(uint param_1)
          ;param_1       uint                r0                      
                                                          ;XREF[1,0]:   0001ab96
ram:0001ab6c    034b            ldr         r3,[DAT_0001ab7c]                       ;= 20001E60h
ram:0001ab6e    1a88            ldrh        r2,[r3,#0x0]=>DAT_20001e60              
ram:0001ab70    8242            cmp         r2,param_1                              
ram:0001ab72    0cbf            ite         eq                                      
ram:0001ab74    1846            mov.eq      param_1,r3                              
ram:0001ab76    0020            mov.ne      param_1,#0x0                            
ram:0001ab78    7047            bx          lr                                      
ram:0001ab7a    00bf            nop                                                  
                            DAT_0001ab7c:                 ;XREF[1,0]:   0001ab6c
ram:0001ab7c    601e0020        undefined4  20001E60h                               
                            ;************************************************************************************************
                            ;*                                           FUNCTION                                           *
                            ;************************************************************************************************
                            ;undefined FUN_0001ab80(void)
                                                          ;XREF[2,0]:   0001abb8,0001abd6
ram:0001ab80    024b            ldr         r3,[DAT_0001ab8c]                       ;= 20001E44h
ram:0001ab82    9b69            ldr         r3,[r3,#0x18]=>DAT_20001e5c             
ram:0001ab84    03b1            cbz         r3,LAB_0001ab88                         
ram:0001ab86    1847            bx          r3                                      
                            LAB_0001ab88:                 ;XREF[1,0]:   0001ab84
ram:0001ab88    7047            bx          lr                                      
ram:0001ab8a    00bf            nop                                                  
                            DAT_0001ab8c:                 ;XREF[1,0]:   0001ab80
ram:0001ab8c    441e0020        undefined4  20001E44h                               
                            ;************************************************************************************************
                            ;*                                           FUNCTION                                           *
                            ;************************************************************************************************
                            ;undefined LAB_0001ab90+1(uint param_1, uint param_2, undefined4 param_3)
          ;param_1       uint                r0                      
          ;param_2       uint                r1                      
          ;param_3       undefined4          r2                      
          ;local_12      undefined2         -12                      ;XREF[1,0]:   0001abe6
          ;local_14      undefined1         -14                      ;XREF[1,0]:   0001abe2
                                                          ;XREF[0,2]:   0001ad8e,0001adc8
ram:0001ab90    37b5            push        {param_1,param_2,param_3,r4,r5,lr}      
ram:0001ab92    85b2            uxth        r5,param_1                              
ram:0001ab94    2846            mov         param_1,r5                              
ram:0001ab96    fff7e9ff        bl          FUN_0001ab6c                            ;ushort * FUN_0001ab6c(uint param_1)
ram:0001ab9a    0346            mov         r3,param_1                              
ram:0001ab9c    70b1            cbz         param_1,LAB_0001abbc                    
ram:0001ab9e    164c            ldr         r4,[DAT_0001abf8]                       ;= 20001E44h
ram:0001aba0    017a            ldrb        param_2,[param_1,#0x8]                  
ram:0001aba2    227b            ldrb        param_3,[r4,#0xc]=>DAT_20001e50         
ram:0001aba4    9142            cmp         param_2,param_3                         
ram:0001aba6    0bd2            bcs         LAB_0001abc0                            
ram:0001aba8    00f10a01        add.w       param_2,param_1,#0xa                    
ram:0001abac    2846            mov         param_1,r5                              
ram:0001abae    fff7d4ff        bl          FUN_0001ab5a                            ;undefined FUN_0001ab5a(void)
ram:0001abb2    e8b1            cbz         param_1,LAB_0001abf0                    
ram:0001abb4    1128            cmp         param_1,#0x11                           
ram:0001abb6    01d0            beq         LAB_0001abbc                            
ram:0001abb8    fff7e2ff        bl          FUN_0001ab80                            ;undefined FUN_0001ab80(void)
                            LAB_0001abbc:                 ;XREF[5,0]:   0001ab9c,0001abb6,0001abde,0001abee
                                                          ;             0001abf6
ram:0001abbc    03b0            add         sp,#0xc                                 
ram:0001abbe    30bd            pop         {r4,r5,pc}                              
                            LAB_0001abc0:                 ;XREF[1,0]:   0001aba6
ram:0001abc0    237c            ldrb        r3,[r4,#0x10]=>DAT_20001e54             
ram:0001abc2    0022            movs        param_3,#0x0                            
ram:0001abc4    0272            strb        param_3,[param_1,#0x8]                  
ram:0001abc6    43b1            cbz         r3,LAB_0001abda                         
ram:0001abc8    3b21            movs        param_2,#0x3b                           
ram:0001abca    2846            mov         param_1,r5                              
ram:0001abcc    fff7c7ff        bl          FUN_0001ab5e                            ;undefined FUN_0001ab5e(void)
ram:0001abd0    30f00803        bics        r3,param_1,#0x8                         
ram:0001abd4    01d0            beq         LAB_0001abda                            
ram:0001abd6    fff7d3ff        bl          FUN_0001ab80                            ;undefined FUN_0001ab80(void)
                            LAB_0001abda:                 ;XREF[2,0]:   0001abc6,0001abd4
ram:0001abda    6369            ldr         r3,[r4,#0x14]=>DAT_20001e58             
ram:0001abdc    002b            cmp         r3,#0x0                                 
ram:0001abde    edd0            beq         LAB_0001abbc                            
ram:0001abe0    0022            movs        param_3,#0x0                            
ram:0001abe2    8df80420        strb.w      param_3,[sp,#local_14+0x18]             
ram:0001abe6    adf80650        strh.w      r5,[sp,#local_12+0x18]                  
ram:0001abea    01a8            add         param_1,sp,#0x4                         
ram:0001abec    9847            blx         r3                                      
ram:0001abee    e5e7            b           LAB_0001abbc                            
                            LAB_0001abf0:                 ;XREF[1,0]:   0001abb2
ram:0001abf0    1a7a            ldrb        param_3,[r3,#0x8]                       
ram:0001abf2    0132            adds        param_3,#0x1                            
ram:0001abf4    1a72            strb        param_3,[r3,#0x8]                       
ram:0001abf6    e1e7            b           LAB_0001abbc                            
                            DAT_0001abf8:                 ;XREF[1,0]:   0001ab9e
ram:0001abf8    441e0020        undefined4  20001E44h                               
                            ;************************************************************************************************
                            ;*                                           FUNCTION                                           *
                            ;************************************************************************************************
                            ;int FUN_0001ad5c(int * param_1)
          ;param_1       int *               r0                      
                                                          ;XREF[1,0]:   0001c4d8
ram:0001ad5c    f8b5            push        {r3,r4,r5,r6,r7,lr}                     
ram:0001ad5e    0646            mov         r6,param_1                              
ram:0001ad60    50b3            cbz         param_1,LAB_0001adb8                    
ram:0001ad62    0546            mov         r5,param_1                              
ram:0001ad64    0fcd            ldmia       r5!,{param_1,r1,r2,r3}                  
ram:0001ad66    154f            ldr         r7,[DAT_0001adbc]                       ;= 20001E44h
ram:0001ad68    3c46            mov         r4,r7                                   
                                                          ; FWD[4,0]:   20001e44,20001e48,20001e4c,20001e50
ram:0001ad6a    0fc4            stmia       r4!=>DAT_20001e44,{param_1,r1,r2,r3}=...
ram:0001ad6c    95e80700        ldm.w       r5,{param_1,r1,r2}                      
                                                          ; FWD[3,0]:   20001e54,20001e58,20001e5c
ram:0001ad70    84e80700        stm         r4=>DAT_20001e54,{param_1,r1,r2}=>DAT...
ram:0001ad74    3068            ldr         param_1,[r6,#0x0]                       
ram:0001ad76    124b            ldr         r3=>DAT_20001e74,[DAT_0001adc0]         ;= 20001E74h
ram:0001ad78    3b60            str         r3,[r7,#0x0]=>DAT_20001e44              
ram:0001ad7a    b8b1            cbz         param_1,LAB_0001adac                    
ram:0001ad7c    fff7f1fe        bl          FUN_0001ab62                            ;undefined FUN_0001ab62(void)
ram:0001ad80    d8b9            cbnz        param_1,LAB_0001adba                    
ram:0001ad82    3168            ldr         r1,[r6,#0x0]                            
ram:0001ad84    0a68            ldr         r2,[r1,#0x0]                            
ram:0001ad86    1a60            str         r2,[r3,#0x0]=>DAT_20001e74              
ram:0001ad88    4a68            ldr         r2,[r1,#0x4]                            
ram:0001ad8a    5a60            str         r2,[r3,#0x4]=>DAT_20001e78              
                            LAB_0001ad8c:                 ;XREF[1,0]:   0001adb4
ram:0001ad8c    0d48            ldr         param_1,[DAT_0001adc4]                  ;= 20001E60h
ram:0001ad8e    0e4a            ldr         r2=>LAB_0001ab90...,[PTR_LAB_0001ab90...;= 0001ab91
ram:0001ad90    4ff6ff73        movw        r3,#0xffff                              
ram:0001ad94    0380            strh        r3,[param_1,#0x0]=>DAT_20001e60         
ram:0001ad96    0d4b            ldr         r3,[DAT_0001adcc]                       ;= 20001E7Ch
ram:0001ad98    40f8043f        str.w       r3,[param_1,#0x4]!=>DAT_20001e64        
ram:0001ad9c    0021            movs        r1,#0x0                                 
ram:0001ad9e    fef705fd        bl          FUN_000197ac                            ;undefined4 FUN_000197ac(int * param_...
ram:0001ada2    0028            cmp         param_1,#0x0                            
ram:0001ada4    14bf            ite         ne                                      
ram:0001ada6    0320            mov.ne      param_1,#0x3                            
ram:0001ada8    0020            mov.eq      param_1,#0x0                            
ram:0001adaa    f8bd            pop         {r3,r4,r5,r6,r7,pc}                     
                            LAB_0001adac:                 ;XREF[1,0]:   0001ad7a
ram:0001adac    1846            mov         param_1=>DAT_20001e74,r3                
ram:0001adae    fff7dafe        bl          FUN_0001ab66                            ;undefined FUN_0001ab66(void)
ram:0001adb2    0028            cmp         param_1,#0x0                            
ram:0001adb4    ead0            beq         LAB_0001ad8c                            
ram:0001adb6    f8bd            pop         {r3,r4,r5,r6,r7,pc}                     
                            LAB_0001adb8:                 ;XREF[1,0]:   0001ad60
ram:0001adb8    0e20            movs        param_1,#0xe                            
                            LAB_0001adba:                 ;XREF[1,0]:   0001ad80
ram:0001adba    f8bd            pop         {r3,r4,r5,r6,r7,pc}                     
                            DAT_0001adbc:                 ;XREF[1,0]:   0001ad66
ram:0001adbc    441e0020        undefined4  20001E44h                               
                            DAT_0001adc0:                 ;XREF[1,0]:   0001ad76
ram:0001adc0    741e0020        undefined4  20001E74h                               
                            DAT_0001adc4:                 ;XREF[1,0]:   0001ad8c
ram:0001adc4    601e0020        undefined4  20001E60h                               
                            PTR_LAB_0001ab90+1+1_0001adc8:;XREF[1,0]:   0001ad8e
ram:0001adc8    91ab0100        addr        LAB_0001ab90+1+1                        
                            DAT_0001adcc:                 ;XREF[1,0]:   0001ad96
ram:0001adcc    7c1e0020        undefined4  20001E7Ch                               
                            ;************************************************************************************************
                            ;*                                           FUNCTION                                           *
                            ;************************************************************************************************
                            ;undefined * FUN_0001add0(undefined * param_1, undefined * param_2, undefined4 param_3)
          ;param_1       undefined *         r0                      
          ;param_2       undefined *         r1                      
          ;param_3       undefined4          r2                      
          ;local_1c      undefined4         -1c                      ;XREF[2,0]:   0001add4,0001adda
                                                          ;XREF[1,0]:   0001af56
ram:0001add0    f7b5            push        {param_1,param_2,param_3,r4,r5,r6,r7,lr}
ram:0001add2    1746            mov         r7,param_3                              
ram:0001add4    0190            str         param_1,[sp,#local_1c+0x20]             
ram:0001add6    0e46            mov         r6,param_2                              
ram:0001add8    91b1            cbz         param_2,LAB_0001ae00                    
ram:0001adda    019c            ldr         r4,[sp,#local_1c+0x20]                  
ram:0001addc    6cb1            cbz         r4,LAB_0001adfa                         
ram:0001adde    0025            movs        r5,#0x0                                 
ram:0001ade0    2c46            mov         r4,r5                                   
                            LAB_0001ade2:                 ;XREF[1,0]:   0001adf8
ram:0001ade2    2946            mov         param_2,r5                              
ram:0001ade4    01a8            add         param_1,sp,#0x4                         
ram:0001ade6    fef79afd        bl          FUN_0001991e                            ;uint FUN_0001991e(int param_1, uint ...
ram:0001adea    18b1            cbz         param_1,LAB_0001adf4                    
ram:0001adec    3946            mov         param_2,r7                              
ram:0001adee    a8b2            uxth        param_1,r5                              
ram:0001adf0    b047            blx         r6                                      
ram:0001adf2    0134            adds        r4,#0x1                                 
                            LAB_0001adf4:                 ;XREF[1,0]:   0001adea
ram:0001adf4    0135            adds        r5,#0x1                                 
ram:0001adf6    142d            cmp         r5,#0x14                                
ram:0001adf8    f3d1            bne         LAB_0001ade2                            
                            LAB_0001adfa:                 ;XREF[2,0]:   0001addc,0001ae02
ram:0001adfa    2046            mov         param_1,r4                              
ram:0001adfc    03b0            add         sp,#0xc                                 
ram:0001adfe    f0bd            pop         {r4,r5,r6,r7,pc}                        
                            LAB_0001ae00:                 ;XREF[1,0]:   0001add8
ram:0001ae00    0c46            mov         r4,param_2                              
ram:0001ae02    fae7            b           LAB_0001adfa                            
                            ;************************************************************************************************
                            ;*                                           FUNCTION                                           *
                            ;************************************************************************************************
                            ;int * FUN_0001ae04(int * param_1, int param_2)
          ;param_1       int *               r0                      
          ;param_2       int                 r1                      
          ;local_14      undefined4         -14                      ;XREF[2,0]:   0001ae06,0001ae08
                                                          ;XREF[2,0]:   0001ae62,0001af40
ram:0001ae04    73b5            push        {param_1,param_2,r4,r5,r6,lr}           
ram:0001ae06    0191            str         param_2,[sp,#local_14+0x18]             
ram:0001ae08    019c            ldr         r4,[sp,#local_14+0x18]                  
ram:0001ae0a    0646            mov         r6,param_1                              
ram:0001ae0c    6cb1            cbz         r4,LAB_0001ae2a                         
ram:0001ae0e    0024            movs        r4,#0x0                                 
ram:0001ae10    2546            mov         r5,r4                                   
                            LAB_0001ae12:                 ;XREF[1,0]:   0001ae28
ram:0001ae12    2946            mov         param_2,r5                              
ram:0001ae14    01a8            add         param_1,sp,#0x4                         
ram:0001ae16    fef782fd        bl          FUN_0001991e                            ;uint FUN_0001991e(int param_1, uint ...
ram:0001ae1a    18b1            cbz         param_1,LAB_0001ae24                    
ram:0001ae1c    06eb4403        add.w       r3,r6,r4, lsl #0x1                      
ram:0001ae20    0134            adds        r4,#0x1                                 
ram:0001ae22    9d80            strh        r5,[r3,#0x4]                            
                            LAB_0001ae24:                 ;XREF[1,0]:   0001ae1a
ram:0001ae24    0135            adds        r5,#0x1                                 
ram:0001ae26    142d            cmp         r5,#0x14                                
ram:0001ae28    f3d1            bne         LAB_0001ae12                            
                            LAB_0001ae2a:                 ;XREF[1,0]:   0001ae0c
ram:0001ae2a    3046            mov         param_1,r6                              
ram:0001ae2c    3460            str         r4,[r6,#0x0]                            
ram:0001ae2e    02b0            add         sp,#0x8                                 
ram:0001ae30    70bd            pop         {r4,r5,r6,pc}                           
ram:0001ae32    0000            movs        r0,r0                                   
                            ;************************************************************************************************
                            ;*                                           FUNCTION                                           *
                            ;************************************************************************************************
                            ;undefined FUN_0001ae34(short * param_1)
          ;param_1       short *             r0                      
          ;local_48      undefined2         -48                      ;XREF[1,0]:   0001ae9c
          ;local_4c      undefined4         -4c                      ;XREF[1,0]:   0001ae6e
          ;local_50      undefined4         -50                      ;XREF[2,0]:   0001ae54,0001ae5e
ram:0001ae34    2de9f047        push        {r4,r5,r6,r7,r8,r9,r10,lr}              
ram:0001ae38    0388            ldrh        r3,[param_1,#0x0]                       
ram:0001ae3a    8488            ldrh        r4,[param_1,#0x4]                       
ram:0001ae3c    112b            cmp         r3,#0x11                                
ram:0001ae3e    8cb0            sub         sp,#0x30                                
ram:0001ae40    0646            mov         r6,param_1                              
ram:0001ae42    38d0            beq         LAB_0001aeb6                            
ram:0001ae44    1a2b            cmp         r3,#0x1a                                
ram:0001ae46    3bd0            beq         LAB_0001aec0                            
ram:0001ae48    102b            cmp         r3,#0x10                                
ram:0001ae4a    24d1            bne         LAB_0001ae96                            
ram:0001ae4c    274d            ldr         r5,[DAT_0001aeec]                       ;= 20001E9Ch
ram:0001ae4e    ab68            ldr         r3,[r5,#0x8]=>DAT_20001ea4              
ram:0001ae50    0ca8            add         param_1,sp,#0x30                        
ram:0001ae52    db43            mvns        r3,r3                                   
ram:0001ae54    40f8303d        str.w       r3,[param_1,#-0x30]!=>local_50          
ram:0001ae58    6968            ldr         r1,[r5,#0x4]=>DAT_20001ea0              
ram:0001ae5a    fef782fd        bl          FUN_00019962                            ;uint FUN_00019962(uint * param_1, ui...
ram:0001ae5e    0099            ldr         r1,[sp,#0x0]=>local_50                  
ram:0001ae60    01a8            add         param_1,sp,#0x4                         
ram:0001ae62    fff7cfff        bl          FUN_0001ae04                            ;int * FUN_0001ae04(int * param_1, in...
ram:0001ae66    0df10609        add.w       r9,sp,#0x6                              
ram:0001ae6a    4ff00008        mov.w       r8,#0x0                                 
                            LAB_0001ae6e:                 ;XREF[1,0]:   0001aeb4
ram:0001ae6e    019b            ldr         r3,[sp,#local_4c+0x50]                  
ram:0001ae70    9845            cmp         r8,r3                                   
ram:0001ae72    13d3            bcc         LAB_0001ae9c                            
ram:0001ae74    132c            cmp         r4,#0x13                                
ram:0001ae76    35d8            bhi         LAB_0001aee4                            
ram:0001ae78    2146            mov         r1,r4                                   
ram:0001ae7a    1d48            ldr         param_1=>DAT_20001ea4,[DAT_0001aef0]    ;= 20001EA4h
ram:0001ae7c    fef73cfd        bl          FUN_000198f8                            ;uint FUN_000198f8(int param_1, uint ...
ram:0001ae80    2146            mov         r1,r4                                   
ram:0001ae82    1c48            ldr         param_1=>DAT_20001ea0,[DAT_0001aef4]    ;= 20001EA0h
ram:0001ae84    fef738fd        bl          FUN_000198f8                            ;uint FUN_000198f8(int param_1, uint ...
ram:0001ae88    f37b            ldrb        r3,[r6,#0xf]                            
ram:0001ae8a    012b            cmp         r3,#0x1                                 
ram:0001ae8c    03d0            beq         LAB_0001ae96                            
ram:0001ae8e    1a48            ldr         param_1,[DAT_0001aef8]                  ;= 20001EA8h
ram:0001ae90    2146            mov         r1,r4                                   
                            LAB_0001ae92:                 ;XREF[1,0]:   0001aed8
ram:0001ae92    fef731fd        bl          FUN_000198f8                            ;uint FUN_000198f8(int param_1, uint ...
                            LAB_0001ae96:                 ;XREF[4,0]:   0001ae4a,0001ae8c,0001aebe,0001aeea
ram:0001ae96    0cb0            add         sp,#0x30                                
ram:0001ae98    bde8f087        pop.w       {r4,r5,r6,r7,r8,r9,r10,pc}              
                            LAB_0001ae9c:                 ;XREF[1,0]:   0001ae72
ram:0001ae9c    39f802af        ldrh.w      r10,[r9,#local_48+0x4a]!                
ram:0001aea0    0027            movs        r7,#0x0                                 
                            LAB_0001aea2:                 ;XREF[1,0]:   0001aeae
ram:0001aea2    0437            adds        r7,#0x4                                 
ram:0001aea4    5146            mov         r1,r10                                  
                                                          ; FWD[2,0]:   20001ea0,20001ea4
ram:0001aea6    e819            adds        param_1=>DAT_20001ea0,r5,r7             
ram:0001aea8    fef72ffd        bl          FUN_0001990a                            ;undefined FUN_0001990a(int param_1, ...
ram:0001aeac    742f            cmp         r7,#0x74                                
ram:0001aeae    f8d1            bne         LAB_0001aea2                            
ram:0001aeb0    08f10108        add.w       r8,r8,#0x1                              
ram:0001aeb4    dbe7            b           LAB_0001ae6e                            
                            LAB_0001aeb6:                 ;XREF[1,0]:   0001ae42
ram:0001aeb6    0e48            ldr         param_1=>DAT_20001ea4,[DAT_0001aef0]    ;= 20001EA4h
ram:0001aeb8    2146            mov         r1,r4                                   
                            LAB_0001aeba:                 ;XREF[2,0]:   0001aed6,0001aee2
ram:0001aeba    fef726fd        bl          FUN_0001990a                            ;undefined FUN_0001990a(int param_1, ...
ram:0001aebe    eae7            b           LAB_0001ae96                            
                            LAB_0001aec0:                 ;XREF[1,0]:   0001ae46
ram:0001aec0    057a            ldrb        r5,[param_1,#0x8]                       
ram:0001aec2    0e48            ldr         param_1,[DAT_0001aefc]                  ;= 20001EACh
ram:0001aec4    2d09            lsrs        r5,r5,#0x4                              
ram:0001aec6    012d            cmp         r5,#0x1                                 
ram:0001aec8    2146            mov         r1,r4                                   
ram:0001aeca    06dd            ble         LAB_0001aeda                            
ram:0001aecc    fef714fd        bl          FUN_000198f8                            ;uint FUN_000198f8(int param_1, uint ...
ram:0001aed0    022d            cmp         r5,#0x2                                 
ram:0001aed2    2146            mov         r1,r4                                   
ram:0001aed4    0a48            ldr         param_1,[DAT_0001af00]                  ;= 20001EB0h
ram:0001aed6    f0d0            beq         LAB_0001aeba                            
ram:0001aed8    dbe7            b           LAB_0001ae92                            
                            LAB_0001aeda:                 ;XREF[1,0]:   0001aeca
ram:0001aeda    fef716fd        bl          FUN_0001990a                            ;undefined FUN_0001990a(int param_1, ...
ram:0001aede    2146            mov         r1,r4                                   
ram:0001aee0    0748            ldr         param_1,[DAT_0001af00]                  ;= 20001EB0h
ram:0001aee2    eae7            b           LAB_0001aeba                            
                            LAB_0001aee4:                 ;XREF[1,0]:   0001ae76
ram:0001aee4    0420            movs        param_1,#0x4                            
ram:0001aee6    fef719fa        bl          FUN_0001931c                            ;undefined FUN_0001931c(void)
ram:0001aeea    d4e7            b           LAB_0001ae96                            
                            DAT_0001aeec:                 ;XREF[1,0]:   0001ae4c
ram:0001aeec    9c1e0020        undefined4  20001E9Ch                               
                            DAT_0001aef0:                 ;XREF[2,0]:   0001ae7a,0001aeb6
ram:0001aef0    a41e0020        undefined4  20001EA4h                               
                            DAT_0001aef4:                 ;XREF[1,0]:   0001ae82
ram:0001aef4    a01e0020        undefined4  20001EA0h                               
                            DAT_0001aef8:                 ;XREF[1,0]:   0001ae8e
ram:0001aef8    a81e0020        undefined4  20001EA8h                               
                            DAT_0001aefc:                 ;XREF[1,0]:   0001aec2
ram:0001aefc    ac1e0020        undefined4  20001EACh                               
                            DAT_0001af00:                 ;XREF[2,0]:   0001aed4,0001aee0
ram:0001af00    b01e0020        undefined4  20001EB0h                               
                            ;************************************************************************************************
                            ;*                                           FUNCTION                                           *
                            ;************************************************************************************************
                            ;uint FUN_0001af04(uint param_1)
          ;param_1       uint                r0                      
                                                          ;XREF[1,0]:   0001af1c
ram:0001af04    1328            cmp         param_1,#0x13                           
ram:0001af06    0146            mov         r1,param_1                              
ram:0001af08    02d8            bhi         LAB_0001af10                            
ram:0001af0a    0248            ldr         param_1=>DAT_20001ea0,[DAT_0001af14]    ;= 20001EA0h
ram:0001af0c    fef707bd        b.w         FUN_0001991e                            ;uint FUN_0001991e(int param_1, uint ...
                            LAB_0001af10:                 ;XREF[1,0]:   0001af08
ram:0001af10    0020            movs        param_1,#0x0                            
ram:0001af12    7047            bx          lr                                      
                            DAT_0001af14:                 ;XREF[1,0]:   0001af0a
ram:0001af14    a01e0020        undefined4  20001EA0h                               
                            ;************************************************************************************************
                            ;*                                           FUNCTION                                           *
                            ;************************************************************************************************
                            ;uint FUN_0001af18(uint param_1)
          ;param_1       uint                r0                      
                                                          ;XREF[1,0]:   0001bdca
ram:0001af18    10b5            push        {r4,lr}                                 
ram:0001af1a    0446            mov         r4,param_1                              
ram:0001af1c    fff7f2ff        bl          FUN_0001af04                            ;uint FUN_0001af04(uint param_1)
ram:0001af20    38b1            cbz         param_1,LAB_0001af32                    
ram:0001af22    2146            mov         r1,r4                                   
ram:0001af24    0348            ldr         param_1=>DAT_20001ea4,[DAT_0001af34]    ;= 20001EA4h
ram:0001af26    fef7fafc        bl          FUN_0001991e                            ;uint FUN_0001991e(int param_1, uint ...
ram:0001af2a    0028            cmp         param_1,#0x0                            
ram:0001af2c    14bf            ite         ne                                      
ram:0001af2e    0220            mov.ne      param_1,#0x2                            
ram:0001af30    0120            mov.eq      param_1,#0x1                            
                            LAB_0001af32:                 ;XREF[1,0]:   0001af20
ram:0001af32    10bd            pop         {r4,pc}                                 
                            DAT_0001af34:                 ;XREF[1,0]:   0001af24
ram:0001af34    a41e0020        undefined4  20001EA4h                               
                            ;************************************************************************************************
                            ;*                                           FUNCTION                                           *
                            ;************************************************************************************************
                            ;int * FUN_0001af38(int * param_1)
          ;param_1       int *               r0                      
                                                          ;XREF[1,0]:   0001bdac
ram:0001af38    10b5            push        {r4,lr}                                 
ram:0001af3a    034b            ldr         r3,[DAT_0001af48]                       ;= 20001E9Ch
ram:0001af3c    0446            mov         r4,param_1                              
ram:0001af3e    5968            ldr         r1,[r3,#0x4]=>DAT_20001ea0              
ram:0001af40    fff760ff        bl          FUN_0001ae04                            ;int * FUN_0001ae04(int * param_1, in...
ram:0001af44    2046            mov         param_1,r4                              
ram:0001af46    10bd            pop         {r4,pc}                                 
                            DAT_0001af48:                 ;XREF[1,0]:   0001af3a
ram:0001af48    9c1e0020        undefined4  20001E9Ch                               
                            ;************************************************************************************************
                            ;*                                           FUNCTION                                           *
                            ;************************************************************************************************
                            ;undefined * FUN_0001af4c(undefined * param_1, undefined4 param_2)
          ;param_1       undefined *         r0                      
          ;param_2       undefined4          r1                      
          ;local_1c      undefined4         -1c                      
                                                          ;XREF[1,0]:   0001bffc
ram:0001af4c    034b            ldr         r3,[DAT_0001af5c]                       ;= 20001E9Ch
ram:0001af4e    9b68            ldr         r3,[r3,#0x8]=>DAT_20001ea4              
ram:0001af50    0a46            mov         r2,param_2                              
ram:0001af52    0146            mov         param_2,param_1                         
ram:0001af54    1846            mov         param_1,r3                              
ram:0001af56    fff73bbf        b.w         FUN_0001add0                            ;undefined * FUN_0001add0(undefined *...
                            DAT_0001af5c:                 ;XREF[1,0]:   0001af4c
ram:0001af5c    9c1e0020        undefined4  20001E9Ch                               
                            ;************************************************************************************************
                            ;*                                           FUNCTION                                           *
                            ;************************************************************************************************
                            ;undefined FUN_0001af60(void)
                                                          ;XREF[1,0]:   0001b13c
ram:0001af60    aadf            svc         0xaa                                    
ram:0001af62    7047            bx          lr                                      
                            ;************************************************************************************************
                            ;*                                           FUNCTION                                           *
                            ;************************************************************************************************
                            ;undefined FUN_0001af64(void)
                                                          ;XREF[1,0]:   0001b1c6
ram:0001af64    abdf            svc         0xab                                    
ram:0001af66    7047            bx          lr                                      
                            ;************************************************************************************************
                            ;*                                           FUNCTION                                           *
                            ;************************************************************************************************
                            ;undefined FUN_0001af68(undefined4 param_1, byte * param_2)
          ;param_1       undefined4          r0                      
          ;param_2       byte *              r1                      
                                                          ;XREF[7,0]:   0001b014,0001b01e,0001b06e,0001b0ec
                                                          ;             0001b0f8,0001b172,0001b17c
ram:0001af68    0b78            ldrb        r3,[param_2,#0x0]                       
ram:0001af6a    03f0f003        and         r3,r3,#0xf0                             
ram:0001af6e    6ff30713        bfc         r3,#0x4,#0x4                            
ram:0001af72    0138            subs        param_1,#0x1                            
ram:0001af74    0b70            strb        r3,[param_2,#0x0]                       
ram:0001af76    0428            cmp         param_1,#0x4                            
ram:0001af78    11d8            bhi         switchD_0001af7a::caseD_5               
                            switchD:                      ;XREF[0,1]:   0001af7a
                                                          ; FWD[7,0]:   0001af7d,0001af84,0001af8e,0001af9e
                                                          ;             0001afa0,0001afac,0001afb8
ram:0001af7a    dfe800f0        tbb         [0x1af7e,param_1]=>switchD+3            
                            switchdataD_0001af7e:         
ram:0001af7e    03              db          3h                                      
ram:0001af7f    08              db          8h                                      
ram:0001af80    11              db          11h                                     
ram:0001af81    17              db          17h                                     
ram:0001af82    1d              db          1Dh                                     
                            caseD_1:                      ;XREF[1,0]:   0001af7a
ram:0001af84    0b78            ldrb        r3,[param_2,#0x0]                       
ram:0001af86    0122            movs        r2,#0x1                                 
                            LAB_0001af88:                 ;XREF[1,0]:   0001afbc
ram:0001af88    62f30303        bfi         r3,r2,#0x0,#0x4                         
ram:0001af8c    04e0            b           LAB_0001af98                            
                            caseD_2:                      ;XREF[1,0]:   0001af7a
ram:0001af8e    0b78            ldrb        r3,[param_2,#0x0]                       
ram:0001af90    0122            movs        r2,#0x1                                 
ram:0001af92    62f30303        bfi         r3,r2,#0x0,#0x4                         
ram:0001af96    0222            movs        r2,#0x2                                 
                            LAB_0001af98:                 ;XREF[3,0]:   0001af8c,0001afaa,0001afb6
ram:0001af98    62f30713        bfi         r3,r2,#0x4,#0x4                         
ram:0001af9c    0b70            strb        r3,[param_2,#0x0]                       
                            caseD_5:                      ;XREF[2,0]:   0001af78,0001af7a
ram:0001af9e    7047            bx          lr                                      
                            caseD_3:                      ;XREF[1,0]:   0001af7a
ram:0001afa0    0b78            ldrb        r3,[param_2,#0x0]                       
ram:0001afa2    0122            movs        r2,#0x1                                 
ram:0001afa4    62f30303        bfi         r3,r2,#0x0,#0x4                         
ram:0001afa8    0322            movs        r2,#0x3                                 
ram:0001afaa    f5e7            b           LAB_0001af98                            
                            caseD_4:                      ;XREF[1,0]:   0001af7a
ram:0001afac    0b78            ldrb        r3,[param_2,#0x0]                       
ram:0001afae    0222            movs        r2,#0x2                                 
ram:0001afb0    62f30303        bfi         r3,r2,#0x0,#0x4                         
ram:0001afb4    0122            movs        r2,#0x1                                 
ram:0001afb6    efe7            b           LAB_0001af98                            
                            caseD_5:                      ;XREF[1,0]:   0001af7a
ram:0001afb8    0b78            ldrb        r3,[param_2,#0x0]                       
ram:0001afba    0222            movs        r2,#0x2                                 
ram:0001afbc    e4e7            b           LAB_0001af88                            
ram:0001afbe    0078            ldrb        r0,[r0,#0x0]                            
ram:0001afc0    00f00100        and         r0,r0,#0x1                              
ram:0001afc4    7047            bx          lr                                      
                            ;************************************************************************************************
                            ;*                                           FUNCTION                                           *
                            ;************************************************************************************************
                            ;uint FUN_0001afc6(byte * param_1)
          ;param_1       byte *              r0                      
                                                          ;XREF[1,0]:   0001b6cc
ram:0001afc6    0078            ldrb        param_1,[param_1,#0x0]                  
ram:0001afc8    c0f34000        ubfx        param_1,param_1,#0x1,#0x1               
ram:0001afcc    7047            bx          lr                                      
                            ;************************************************************************************************
                            ;*                                           FUNCTION                                           *
                            ;************************************************************************************************
                            ;undefined4 FUN_0001afce(undefined * param_1, undefined * param_2)
          ;param_1       undefined *         r0                      
          ;param_2       undefined *         r1                      
                                                          ;XREF[1,0]:   0001bce0
ram:0001afce    0b78            ldrb        r3,[param_2,#0x0]                       
ram:0001afd0    0370            strb        r3,[param_1,#0x0]                       
ram:0001afd2    4b78            ldrb        r3,[param_2,#0x1]                       
ram:0001afd4    4370            strb        r3,[param_1,#0x1]                       
ram:0001afd6    0220            movs        param_1,#0x2                            
ram:0001afd8    7047            bx          lr                                      
                            ;************************************************************************************************
                            ;*                                           FUNCTION                                           *
                            ;************************************************************************************************
                            ;undefined FUN_0001afda(undefined2 * param_1, char * param_2)
          ;param_1       undefined2 *        r0                      
          ;param_2       char *              r1                      
                                                          ;XREF[5,0]:   0001c462,0001c46a,0001c472,0001c47a
                                                          ;             0001c482
ram:0001afda    38b5            push        {r3,r4,r5,lr}                           
ram:0001afdc    0446            mov         r4,param_1                              
ram:0001afde    0846            mov         param_1,param_2                         
ram:0001afe0    0d46            mov         r5,param_2                              
ram:0001afe2    01f02ffb        bl          FUN_0001c644                            ;char * FUN_0001c644(char * param_1)
ram:0001afe6    6560            str         r5,[r4,#0x4]                            
ram:0001afe8    2080            strh        param_1,[r4,#0x0]                       
ram:0001afea    38bd            pop         {r3,r4,r5,pc}                           
                            ;************************************************************************************************
                            ;*                                           FUNCTION                                           *
                            ;************************************************************************************************
                            ;undefined FUN_0001afec(undefined4 param_1, undefined2 * param_2)
          ;param_1       undefined4          r0                      
          ;param_2       undefined2 *        r1                      
          ;local_20      undefined4         -20                      ;XREF[1,0]:   0001b076
          ;local_24      undefined4         -24                      ;XREF[1,0]:   0001b0e4
          ;local_28      undefined4         -28                      ;XREF[1,0]:   0001b132
          ;local_2a      undefined2         -2a                      ;XREF[1,0]:   0001b0de
          ;local_2c      undefined2         -2c                      ;XREF[1,0]:   0001b0d8
          ;local_30      undefined4         -30                      ;XREF[1,0]:   0001b0e8
          ;local_33      undefined1         -33                      ;XREF[1,0]:   0001b09c
          ;local_34      undefined1         -34                      ;XREF[1,0]:   0001b094
          ;local_38      undefined4         -38                      ;XREF[1,0]:   0001b0c0
          ;local_3c      undefined2         -3c                      ;XREF[1,0]:   0001b0ae
          ;local_40      undefined2         -40                      ;XREF[1,0]:   0001b0bc
          ;local_44      undefined4         -44                      ;XREF[1,0]:   0001b0b4
          ;local_48      undefined4         -48                      ;XREF[1,0]:   0001b0aa
          ;local_4a      undefined1         -4a                      ;XREF[1,0]:   0001affe
          ;local_4c      undefined2         -4c                      ;XREF[1,0]:   0001b006
          ;local_4e      undefined1         -4e                      ;XREF[2,0]:   0001b086,0001b08e
          ;local_50      undefined1         -50                      ;XREF[2,0]:   0001b072,0001b082
          ;local_52      undefined1         -52                      ;XREF[4,0]:   0001b0fe,0001b108,0001b112,0001b12a
          ;local_56      undefined1         -56                      ;XREF[2,0]:   0001b022,0001b04c
                                                          ;XREF[4,0]:   0001b42c,0001b8d0,0001bcce,0001c0b0
ram:0001afec    f0b5            push        {r4,r5,r6,r7,lr}                        
ram:0001afee    8b78            ldrb        r3,[param_2,#0x2]                       
ram:0001aff0    91b0            sub         sp,#0x44                                
ram:0001aff2    0546            mov         r5,param_1                              
ram:0001aff4    0c46            mov         r4,param_2                              
ram:0001aff6    1646            mov         r6,r2                                   
ram:0001aff8    03b9            cbnz        r3,LAB_0001affc                         
ram:0001affa    0123            movs        r3,#0x1                                 
                            LAB_0001affc:                 ;XREF[1,0]:   0001aff8
ram:0001affc    0322            movs        r2,#0x3                                 
ram:0001affe    8df80e30        strb.w      r3,[sp,#local_4a+0x58]                  
ram:0001b002    0021            movs        param_2,#0x0                            
ram:0001b004    2388            ldrh        r3,[r4,#0x0]                            
ram:0001b006    adf80c30        strh.w      r3,[sp,#local_4c+0x58]                  
ram:0001b00a    6846            mov         param_1,sp                              
ram:0001b00c    01f0e5fa        bl          FUN_0001c5da                            ;undefined FUN_0001c5da(undefined * p...
ram:0001b010    6946            mov         param_2,sp                              
ram:0001b012    607c            ldrb        param_1,[r4,#0x11]                      
ram:0001b014    fff7a8ff        bl          FUN_0001af68                            ;undefined FUN_0001af68(undefined4 pa...
ram:0001b018    0df10101        add.w       param_2,sp,#0x1                         
ram:0001b01c    a07c            ldrb        param_1,[r4,#0x12]                      
ram:0001b01e    fff7a3ff        bl          FUN_0001af68                            ;undefined FUN_0001af68(undefined4 pa...
ram:0001b022    9df80230        ldrb.w      r3,[sp,#local_56+0x58]                  
ram:0001b026    e27b            ldrb        r2,[r4,#0xf]                            
ram:0001b028    62f3c303        bfi         r3,r2,#0x3,#0x1                         
ram:0001b02c    227c            ldrb        r2,[r4,#0x10]                           
ram:0001b02e    62f30413        bfi         r3,r2,#0x4,#0x1                         
ram:0001b032    227b            ldrb        r2,[r4,#0xc]                            
ram:0001b034    62f30003        bfi         r3,r2,#0x0,#0x1                         
ram:0001b038    227d            ldrb        r2,[r4,#0x14]                           
ram:0001b03a    002a            cmp         r2,#0x0                                 
ram:0001b03c    14bf            ite         ne                                      
ram:0001b03e    0222            mov.ne      r2,#0x2                                 
ram:0001b040    0122            mov.eq      r2,#0x1                                 
ram:0001b042    62f34203        bfi         r3,r2,#0x1,#0x2                         
ram:0001b046    0021            movs        param_2,#0x0                            
ram:0001b048    1c22            movs        r2,#0x1c                                
ram:0001b04a    09a8            add         param_1,sp,#0x24                        
ram:0001b04c    8df80230        strb.w      r3,[sp,#local_56+0x58]                  
ram:0001b050    01f0c3fa        bl          FUN_0001c5da                            ;undefined FUN_0001c5da(undefined * p...
ram:0001b054    637b            ldrb        r3,[r4,#0xd]                            
ram:0001b056    13f0300f        tst         r3,#0x30                                
ram:0001b05a    1ad0            beq         LAB_0001b092                            
ram:0001b05c    02af            add         r7,sp,#0x8                              
ram:0001b05e    0322            movs        r2,#0x3                                 
ram:0001b060    0021            movs        param_2,#0x0                            
ram:0001b062    3846            mov         param_1,r7                              
ram:0001b064    01f0b9fa        bl          FUN_0001c5da                            ;undefined FUN_0001c5da(undefined * p...
ram:0001b068    0df10901        add.w       param_2,sp,#0x9                         
ram:0001b06c    e07c            ldrb        param_1,[r4,#0x13]                      
ram:0001b06e    fff77bff        bl          FUN_0001af68                            ;undefined FUN_0001af68(undefined4 pa...
ram:0001b072    9df80830        ldrb.w      r3,[sp,#local_50+0x58]                  
ram:0001b076    0e97            str         r7,[sp,#local_20+0x58]                  
ram:0001b078    0122            movs        r2,#0x1                                 
ram:0001b07a    62f30303        bfi         r3,r2,#0x0,#0x4                         
ram:0001b07e    62f30713        bfi         r3,r2,#0x4,#0x4                         
ram:0001b082    8df80830        strb.w      r3,[sp,#local_50+0x58]                  
ram:0001b086    9df80a30        ldrb.w      r3,[sp,#local_4e+0x58]                  
ram:0001b08a    62f34203        bfi         r3,r2,#0x1,#0x2                         
ram:0001b08e    8df80a30        strb.w      r3,[sp,#local_4e+0x58]                  
                            LAB_0001b092:                 ;XREF[1,0]:   0001b05a
ram:0001b092    637b            ldrb        r3,[r4,#0xd]                            
ram:0001b094    8df82430        strb.w      r3,[sp,#local_34+0x58]                  
ram:0001b098    1422            movs        r2,#0x14                                
ram:0001b09a    a37b            ldrb        r3,[r4,#0xe]                            
ram:0001b09c    8df82530        strb.w      r3,[sp,#local_33+0x58]                  
ram:0001b0a0    0021            movs        param_2,#0x0                            
ram:0001b0a2    04a8            add         param_1,sp,#0x10                        
ram:0001b0a4    01f099fa        bl          FUN_0001c5da                            ;undefined FUN_0001c5da(undefined * p...
ram:0001b0a8    03ab            add         r3,sp,#0xc                              
ram:0001b0aa    0493            str         r3,[sp,#local_48+0x58]                  
ram:0001b0ac    a388            ldrh        r3,[r4,#0x4]                            
ram:0001b0ae    adf81c30        strh.w      r3,[sp,#local_3c+0x58]                  
ram:0001b0b2    a368            ldr         r3,[r4,#0x8]                            
ram:0001b0b4    cdf814d0        str.w       sp,[sp,#local_44+0x58]                  
ram:0001b0b8    1bb1            cbz         r3,LAB_0001b0c2                         
ram:0001b0ba    e288            ldrh        r2,[r4,#0x6]                            
ram:0001b0bc    adf81820        strh.w      r2,[sp,#local_40+0x58]                  
ram:0001b0c0    0893            str         r3,[sp,#local_38+0x58]                  
                            LAB_0001b0c2:                 ;XREF[1,0]:   0001b0b8
ram:0001b0c2    a369            ldr         r3,[r4,#0x18]                           
ram:0001b0c4    002b            cmp         r3,#0x0                                 
ram:0001b0c6    32d0            beq         LAB_0001b12e                            
ram:0001b0c8    01af            add         r7,sp,#0x4                              
ram:0001b0ca    0322            movs        r2,#0x3                                 
ram:0001b0cc    0021            movs        param_2,#0x0                            
ram:0001b0ce    3846            mov         param_1,r7                              
ram:0001b0d0    01f083fa        bl          FUN_0001c5da                            ;undefined FUN_0001c5da(undefined * p...
ram:0001b0d4    a369            ldr         r3,[r4,#0x18]                           
ram:0001b0d6    1a88            ldrh        r2,[r3,#0x0]                            
ram:0001b0d8    adf82c20        strh.w      r2,[sp,#local_2c+0x58]                  
ram:0001b0dc    5a88            ldrh        r2,[r3,#0x2]                            
ram:0001b0de    adf82e20        strh.w      r2,[sp,#local_2a+0x58]                  
ram:0001b0e2    5a68            ldr         r2,[r3,#0x4]                            
ram:0001b0e4    0d97            str         r7,[sp,#local_24+0x58]                  
ram:0001b0e6    187b            ldrb        param_1,[r3,#0xc]                       
ram:0001b0e8    0a92            str         r2,[sp,#local_30+0x58]                  
ram:0001b0ea    3946            mov         param_2,r7                              
ram:0001b0ec    fff73cff        bl          FUN_0001af68                            ;undefined FUN_0001af68(undefined4 pa...
ram:0001b0f0    a369            ldr         r3,[r4,#0x18]                           
ram:0001b0f2    0df10501        add.w       param_2,sp,#0x5                         
ram:0001b0f6    587b            ldrb        param_1,[r3,#0xd]                       
ram:0001b0f8    fff736ff        bl          FUN_0001af68                            ;undefined FUN_0001af68(undefined4 pa...
ram:0001b0fc    a269            ldr         r2,[r4,#0x18]                           
ram:0001b0fe    9df80630        ldrb.w      r3,[sp,#local_52+0x58]                  
ram:0001b102    917a            ldrb        param_2,[r2,#0xa]                       
ram:0001b104    61f3c303        bfi         r3,param_2,#0x3,#0x1                    
ram:0001b108    8df80630        strb.w      r3,[sp,#local_52+0x58]                  
ram:0001b10c    d17a            ldrb        param_2,[r2,#0xb]                       
ram:0001b10e    61f30413        bfi         r3,param_2,#0x4,#0x1                    
ram:0001b112    8df80630        strb.w      r3,[sp,#local_52+0x58]                  
ram:0001b116    117a            ldrb        param_2,[r2,#0x8]                       
ram:0001b118    927b            ldrb        r2,[r2,#0xe]                            
ram:0001b11a    002a            cmp         r2,#0x0                                 
ram:0001b11c    61f30003        bfi         r3,param_2,#0x0,#0x1                    
ram:0001b120    14bf            ite         ne                                      
ram:0001b122    0222            mov.ne      r2,#0x2                                 
ram:0001b124    0122            mov.eq      r2,#0x1                                 
ram:0001b126    62f34203        bfi         r3,r2,#0x1,#0x2                         
ram:0001b12a    8df80630        strb.w      r3,[sp,#local_52+0x58]                  
                            LAB_0001b12e:                 ;XREF[1,0]:   0001b0c6
ram:0001b12e    e369            ldr         r3,[r4,#0x1c]                           
ram:0001b130    03b1            cbz         r3,LAB_0001b134                         
ram:0001b132    0c93            str         r3,[sp,#local_28+0x58]                  
                            LAB_0001b134:                 ;XREF[1,0]:   0001b130
ram:0001b134    3346            mov         r3,r6                                   
ram:0001b136    04aa            add         r2,sp,#0x10                             
ram:0001b138    09a9            add         param_2,sp,#0x24                        
ram:0001b13a    2846            mov         param_1,r5                              
ram:0001b13c    fff710ff        bl          FUN_0001af60                            ;undefined FUN_0001af60(void)
ram:0001b140    11b0            add         sp,#0x44                                
ram:0001b142    f0bd            pop         {r4,r5,r6,r7,pc}                        
                            ;************************************************************************************************
                            ;*                                           FUNCTION                                           *
                            ;************************************************************************************************
                            ;undefined FUN_0001b144(undefined4 param_1, undefined2 * param_2)
          ;param_1       undefined4          r0                      
          ;param_2       undefined2 *        r1                      
          ;local_1c      undefined4         -1c                      ;XREF[1,0]:   0001b1c0
          ;local_20      undefined2         -20                      ;XREF[1,0]:   0001b1b8
          ;local_22      undefined2         -22                      ;XREF[1,0]:   0001b1b2
          ;local_24      undefined2         -24                      ;XREF[1,0]:   0001b1ac
          ;local_28      undefined4         -28                      ;XREF[1,0]:   0001b186
          ;local_2c      undefined4         -2c                      ;XREF[1,0]:   0001b170
          ;local_2e      undefined1         -2e                      ;XREF[1,0]:   0001b15e
          ;local_30      undefined2         -30                      ;XREF[1,0]:   0001b166
          ;local_32      undefined1         -32                      ;XREF[2,0]:   0001b180,0001b1a6
                                                          ;XREF[1,0]:   0001bd14
ram:0001b144    f0b5            push        {r4,r5,r6,r7,lr}                        
ram:0001b146    0c46            mov         r4,param_2                              
ram:0001b148    89b0            sub         sp,#0x24                                
ram:0001b14a    0546            mov         r5,param_1                              
ram:0001b14c    1646            mov         r6,r2                                   
ram:0001b14e    0021            movs        param_2,#0x0                            
ram:0001b150    1422            movs        r2,#0x14                                
ram:0001b152    03a8            add         param_1,sp,#0xc                         
ram:0001b154    01f041fa        bl          FUN_0001c5da                            ;undefined FUN_0001c5da(undefined * p...
ram:0001b158    a378            ldrb        r3,[r4,#0x2]                            
ram:0001b15a    03b9            cbnz        r3,LAB_0001b15e                         
ram:0001b15c    0123            movs        r3,#0x1                                 
                            LAB_0001b15e:                 ;XREF[1,0]:   0001b15a
ram:0001b15e    8df80a30        strb.w      r3,[sp,#local_2e+0x38]                  
ram:0001b162    08ab            add         r3,sp,#0x20                             
ram:0001b164    2288            ldrh        r2,[r4,#0x0]                            
ram:0001b166    23f8182d        strh        r2,[r3,#-0x18]!=>local_30               
ram:0001b16a    01af            add         r7,sp,#0x4                              
ram:0001b16c    3946            mov         param_2,r7                              
ram:0001b16e    a079            ldrb        param_1,[r4,#0x6]                       
ram:0001b170    0393            str         r3,[sp,#local_2c+0x38]                  
ram:0001b172    fff7f9fe        bl          FUN_0001af68                            ;undefined FUN_0001af68(undefined4 pa...
ram:0001b176    0df10501        add.w       param_2,sp,#0x5                         
ram:0001b17a    e079            ldrb        param_1,[r4,#0x7]                       
ram:0001b17c    fff7f4fe        bl          FUN_0001af68                            ;undefined FUN_0001af68(undefined4 pa...
ram:0001b180    9df80630        ldrb.w      r3,[sp,#local_32+0x38]                  
ram:0001b184    e278            ldrb        r2,[r4,#0x3]                            
ram:0001b186    0497            str         r7,[sp,#local_28+0x38]                  
ram:0001b188    62f3c303        bfi         r3,r2,#0x3,#0x1                         
ram:0001b18c    2279            ldrb        r2,[r4,#0x4]                            
ram:0001b18e    62f30413        bfi         r3,r2,#0x4,#0x1                         
ram:0001b192    6279            ldrb        r2,[r4,#0x5]                            
ram:0001b194    62f30003        bfi         r3,r2,#0x0,#0x1                         
ram:0001b198    227a            ldrb        r2,[r4,#0x8]                            
ram:0001b19a    002a            cmp         r2,#0x0                                 
ram:0001b19c    14bf            ite         ne                                      
ram:0001b19e    0222            mov.ne      r2,#0x2                                 
ram:0001b1a0    0122            mov.eq      r2,#0x1                                 
ram:0001b1a2    62f34203        bfi         r3,r2,#0x1,#0x2                         
ram:0001b1a6    8df80630        strb.w      r3,[sp,#local_32+0x38]                  
ram:0001b1aa    6389            ldrh        r3,[r4,#0xa]                            
ram:0001b1ac    adf81430        strh.w      r3,[sp,#local_24+0x38]                  
ram:0001b1b0    a389            ldrh        r3,[r4,#0xc]                            
ram:0001b1b2    adf81630        strh.w      r3,[sp,#local_22+0x38]                  
ram:0001b1b6    e389            ldrh        r3,[r4,#0xe]                            
ram:0001b1b8    adf81830        strh.w      r3,[sp,#local_20+0x38]                  
ram:0001b1bc    3246            mov         r2,r6                                   
ram:0001b1be    2369            ldr         r3,[r4,#0x10]                           
ram:0001b1c0    0793            str         r3,[sp,#local_1c+0x38]                  
ram:0001b1c2    03a9            add         param_2,sp,#0xc                         
ram:0001b1c4    2846            mov         param_1,r5                              
ram:0001b1c6    fff7cdfe        bl          FUN_0001af64                            ;undefined FUN_0001af64(void)
ram:0001b1ca    09b0            add         sp,#0x24                                
ram:0001b1cc    f0bd            pop         {r4,r5,r6,r7,pc}                        
                            ;************************************************************************************************
                            ;*                                           FUNCTION                                           *
                            ;************************************************************************************************
                            ;undefined FUN_0001b1ce(void)
                                                          ;XREF[2,0]:   0001b212,0001b27e
ram:0001b1ce    a5df            svc         0xa5                                    
ram:0001b1d0    7047            bx          lr                                      
                            ;************************************************************************************************
                            ;*                                           FUNCTION                                           *
                            ;************************************************************************************************
                            ;undefined FUN_0001b1d2(void)
                                                          ;XREF[1,0]:   0001b240
ram:0001b1d2    b5df            svc         0xb5                                    
ram:0001b1d4    7047            bx          lr                                      
                            ;************************************************************************************************
                            ;*                                           FUNCTION                                           *
                            ;************************************************************************************************
                            ;undefined4 FUN_0001b1d6(undefined2 * param_1, undefined4 param_2)
          ;param_1       undefined2 *        r0                      
          ;param_2       undefined4          r1                      
                                                          ;XREF[1,0]:   0001c3d4
ram:0001b1d6    60b1            cbz         param_1,LAB_0001b1f2                    
ram:0001b1d8    1723            movs        r3,#0x17                                
ram:0001b1da    0380            strh        r3,[param_1,#0x0]                       
ram:0001b1dc    4380            strh        r3,[param_1,#0x2]                       
ram:0001b1de    c380            strh        r3,[param_1,#0x6]                       
ram:0001b1e0    0381            strh        r3,[param_1,#0x8]                       
ram:0001b1e2    1b22            movs        r2,#0x1b                                
ram:0001b1e4    0023            movs        r3,#0x0                                 
ram:0001b1e6    c160            str         param_2,[param_1,#0xc]                  
ram:0001b1e8    0271            strb        r2,[param_1,#0x4]                       
ram:0001b1ea    8372            strb        r3,[param_1,#0xa]                       
ram:0001b1ec    c372            strb        r3,[param_1,#0xb]                       
ram:0001b1ee    1846            mov         param_1,r3                              
ram:0001b1f0    7047            bx          lr                                      
                            LAB_0001b1f2:                 ;XREF[1,0]:   0001b1d6
ram:0001b1f2    0e20            movs        param_1,#0xe                            
ram:0001b1f4    7047            bx          lr                                      
ram:0001b1f6    37b5            push        {r0,r1,r2,r4,r5,lr}                     
ram:0001b1f8    8388            ldrh        r3,[r0,#0x4]                            
ram:0001b1fa    0c46            mov         r4,r1                                   
ram:0001b1fc    7bb9            cbnz        r3,LAB_0001b21e                         
ram:0001b1fe    0288            ldrh        r2,[r0,#0x0]                            
ram:0001b200    112a            cmp         r2,#0x11                                
ram:0001b202    47d0            beq         FUN_0001b294                            
ram:0001b204    0dd8            bhi         FUN_0001b222                            
ram:0001b206    102a            cmp         r2,#0x10                                
ram:0001b208    2fd0            beq         FUN_0001b26a                            
                            ;************************************************************************************************
                            ;*                                           FUNCTION                                           *
                            ;************************************************************************************************
                            ;undefined FUN_0001b20a(void)
                                                          ;XREF[8,0]:   0001b228,0001b248,0001b24e,0001b268
                                                          ;             0001b27a,0001b288,0001b28c,0001b292
ram:0001b20a    a37a            ldrb        r3,[r4,#0xa]                            
ram:0001b20c    3bb1            cbz         r3,LAB_0001b21e                         
ram:0001b20e    e188            ldrh        r1,[r4,#0x6]                            
ram:0001b210    0020            movs        r0,#0x0                                 
ram:0001b212    fff7dcff        bl          FUN_0001b1ce                            ;undefined FUN_0001b1ce(void)
ram:0001b216    10b9            cbnz        r0,LAB_0001b21e                         
ram:0001b218    0123            movs        r3,#0x1                                 
ram:0001b21a    a072            strb        r0,[r4,#0xa]                            
ram:0001b21c    e372            strb        r3,[r4,#0xb]                            
                            LAB_0001b21e:                 ;XREF[3,0]:   0001b1fc,0001b20c,0001b216
ram:0001b21e    03b0            add         sp,#0xc                                 
ram:0001b220    30bd            pop         {r4,r5,pc}                              
                            ;************************************************************************************************
                            ;*                                           FUNCTION                                           *
                            ;************************************************************************************************
                            ;undefined FUN_0001b222(int param_1, int param_2, int param_3, undefined param_4, undefined2 param_5, undefined param_6, undefined param_7, undefined param_8, undefined param_9, undefined param_10, undefined2 param_11, undefined2 param_12)
          ;param_1       int                 r0                      
          ;param_2       int                 r1                      
          ;param_3       int                 r2                      
          ;param_4       undefined           r3                      
          ;param_5       undefined2           0                      ;XREF[2,0]:   0001b25a,0001b2bc
          ;param_6       undefined            4                      ;XREF[2,0]:   0001b25e,0001b2c4
          ;param_7       undefined            8                      
          ;param_8       undefined            c                      
          ;param_9       undefined           10                      
          ;param_10      undefined           14                      
          ;param_11      undefined2          18                      
          ;param_12      undefined2          1c                      
                                                          ;XREF[1,0]:   0001b204
ram:0001b222    3a2a            cmp         param_3,#0x3a                           
ram:0001b224    3bd0            beq         LAB_0001b29e                            
ram:0001b226    552a            cmp         param_3,#0x55                           
ram:0001b228    efd1            bne         FUN_0001b20a                            
ram:0001b22a    c288            ldrh        param_3,[param_1,#0x6]                  
ram:0001b22c    c988            ldrh        param_2,[param_2,#0x6]                  
ram:0001b22e    a372            strb        param_4,[r4,#0xa]                       
ram:0001b230    172a            cmp         param_3,#0x17                           
ram:0001b232    38bf            it          cc                                      
ram:0001b234    1722            mov.cc      param_3,#0x17                           
ram:0001b236    8a42            cmp         param_3,param_2                         
ram:0001b238    28bf            it          cs                                      
ram:0001b23a    0a46            mov.cs      param_3,param_2                         
ram:0001b23c    2281            strh        param_3,[r4,#0x8]                       
ram:0001b23e    1846            mov         param_1,param_4                         
ram:0001b240    fff7c7ff        bl          FUN_0001b1d2                            ;undefined FUN_0001b1d2(void)
ram:0001b244    e27a            ldrb        param_3,[r4,#0xb]                       
ram:0001b246    002a            cmp         param_3,#0x0                            
ram:0001b248    dfd1            bne         FUN_0001b20a                            
ram:0001b24a    e368            ldr         param_4,[r4,#0xc]                       
ram:0001b24c    002b            cmp         param_4,#0x0                            
ram:0001b24e    dcd0            beq         FUN_0001b20a                            
ram:0001b250    40f67721        movw        param_2,#0xa77                          
ram:0001b254    adf80220        strh.w      param_3,[sp,#Stack[0x2]]                
ram:0001b258    2289            ldrh        param_3,[r4,#0x8]                       
ram:0001b25a    adf80010        strh.w      param_2,[sp,#0x0]=>param_5              
ram:0001b25e    adf80420        strh.w      param_3,[sp,#param_6]                   
ram:0001b262    6946            mov         param_2,sp                              
ram:0001b264    2046            mov         param_1,r4                              
ram:0001b266    9847            blx         param_4                                 
ram:0001b268    cfe7            b           FUN_0001b20a                            
                            ;************************************************************************************************
                            ;*                                           FUNCTION                                           *
                            ;************************************************************************************************
                            ;undefined FUN_0001b26a(int param_1, ushort * param_2)
          ;param_1       int                 r0                      
          ;param_2       ushort *            r1                      
                                                          ;XREF[1,0]:   0001b208
ram:0001b26a    c37b            ldrb        r3,[param_1,#0xf]                       
ram:0001b26c    012b            cmp         r3,#0x1                                 
ram:0001b26e    04bf            itt         eq                                      
ram:0001b270    0b88            ldrh.eq     r3,[param_2,#0x0]                       
ram:0001b272    cb80            strh.eq     r3,[param_2,#0x6]                       
ram:0001b274    c988            ldrh        param_2,[param_2,#0x6]                  
ram:0001b276    2389            ldrh        r3,[r4,#0x8]                            
ram:0001b278    8b42            cmp         r3,param_2                              
ram:0001b27a    c6d2            bcs         FUN_0001b20a                            
ram:0001b27c    0020            movs        param_1,#0x0                            
ram:0001b27e    fff7a6ff        bl          FUN_0001b1ce                            ;undefined FUN_0001b1ce(void)
ram:0001b282    10b9            cbnz        param_1,LAB_0001b28a                    
ram:0001b284    0123            movs        r3,#0x1                                 
                            LAB_0001b286:                 ;XREF[1,0]:   0001b29c
ram:0001b286    e372            strb        r3,[r4,#0xb]                            
ram:0001b288    bfe7            b           FUN_0001b20a                            
                            LAB_0001b28a:                 ;XREF[1,0]:   0001b282
ram:0001b28a    1128            cmp         param_1,#0x11                           
ram:0001b28c    bdd1            bne         FUN_0001b20a                            
ram:0001b28e    0123            movs        r3,#0x1                                 
                            LAB_0001b290:                 ;XREF[1,0]:   0001b2d2
ram:0001b290    a372            strb        param_4,[r4,#0xa]                       
ram:0001b292    bae7            b           FUN_0001b20a                            
                            ;************************************************************************************************
                            ;*                                           FUNCTION                                           *
                            ;************************************************************************************************
                            ;undefined FUN_0001b294(undefined4 param_1, int param_2, undefined4 param_3, undefined param_4)
          ;param_1       undefined4          r0                      
          ;param_2       int                 r1                      
          ;param_3       undefined4          r2                      
          ;param_4       undefined           r3                      
                                                          ;XREF[1,0]:   0001b202
ram:0001b294    1722            movs        param_3,#0x17                           
ram:0001b296    ca80            strh        param_3,[param_2,#0x6]                  
ram:0001b298    0a81            strh        param_3,[param_2,#0x8]                  
ram:0001b29a    8b72            strb        param_4,[param_2,#0xa]                  
ram:0001b29c    f3e7            b           LAB_0001b286                            
                            LAB_0001b29e:                 ;XREF[1,0]:   0001b224
ram:0001b29e    4289            ldrh        param_3,[param_1,#0xa]                  
ram:0001b2a0    c988            ldrh        param_2,[param_2,#0x6]                  
ram:0001b2a2    e568            ldr         r5,[r4,#0xc]                            
ram:0001b2a4    8a42            cmp         param_3,param_2                         
ram:0001b2a6    28bf            it          cs                                      
ram:0001b2a8    0a46            mov.cs      param_3,param_2                         
ram:0001b2aa    172a            cmp         param_3,#0x17                           
ram:0001b2ac    38bf            it          cc                                      
ram:0001b2ae    1722            mov.cc      param_3,#0x17                           
ram:0001b2b0    2281            strh        param_3,[r4,#0x8]                       
ram:0001b2b2    65b1            cbz         r5,LAB_0001b2ce                         
ram:0001b2b4    e17a            ldrb        param_2,[r4,#0xb]                       
ram:0001b2b6    51b1            cbz         param_2,LAB_0001b2ce                    
ram:0001b2b8    40f67721        movw        param_2,#0xa77                          
ram:0001b2bc    adf80010        strh.w      param_2,[sp,#0x0]=>param_5              
ram:0001b2c0    adf80230        strh.w      param_4,[sp,#Stack[0x2]]                
ram:0001b2c4    adf80420        strh.w      param_3,[sp,#param_6]                   
ram:0001b2c8    6946            mov         param_2,sp                              
ram:0001b2ca    2046            mov         param_1,r4                              
ram:0001b2cc    a847            blx         r5                                      
                            LAB_0001b2ce:                 ;XREF[2,0]:   0001b2b2,0001b2b6
ram:0001b2ce    0023            movs        param_4,#0x0                            
ram:0001b2d0    e372            strb        param_4,[r4,#0xb]                       
ram:0001b2d2    dde7            b           LAB_0001b290                            
                            ;************************************************************************************************
                            ;*                                           FUNCTION                                           *
                            ;************************************************************************************************
                            ;undefined FUN_0001b2d4(void)
                                                          ;XREF[1,0]:   0001b3bc
ram:0001b2d4    b0df            svc         0xb0                                    
ram:0001b2d6    7047            bx          lr                                      
                            ;************************************************************************************************
                            ;*                                           FUNCTION                                           *
                            ;************************************************************************************************
                            ;undefined FUN_0001b2d8(void)
                                                          ;XREF[1,0]:   0001b2e4
ram:0001b2d8    66df            svc         0x66                                    
ram:0001b2da    7047            bx          lr                                      
                            ;************************************************************************************************
                            ;*                                           FUNCTION                                           *
                            ;************************************************************************************************
                            ;undefined FUN_0001b2dc(int param_1)
          ;param_1       int                 r0                      
                                                          ;XREF[2,0]:   0001b35a,0001b37e
ram:0001b2dc    10b5            push        {r4,lr}                                 
ram:0001b2de    0346            mov         r3,param_1                              
ram:0001b2e0    0021            movs        r1,#0x0                                 
ram:0001b2e2    4088            ldrh        param_1,[param_1,#0x2]                  
ram:0001b2e4    fff7f8ff        bl          FUN_0001b2d8                            ;undefined FUN_0001b2d8(void)
ram:0001b2e8    0246            mov         r2,param_1                              
ram:0001b2ea    08b9            cbnz        param_1,LAB_0001b2f0                    
                            LAB_0001b2ec:                 ;XREF[1,0]:   0001b2f6
ram:0001b2ec    1a72            strb        r2,[r3,#0x8]                            
ram:0001b2ee    10bd            pop         {r4,pc}                                 
                            LAB_0001b2f0:                 ;XREF[1,0]:   0001b2ea
ram:0001b2f0    1128            cmp         param_1,#0x11                           
ram:0001b2f2    01d1            bne         LAB_0001b2f8                            
ram:0001b2f4    0122            movs        r2,#0x1                                 
ram:0001b2f6    f9e7            b           LAB_0001b2ec                            
                            LAB_0001b2f8:                 ;XREF[1,0]:   0001b2f2
ram:0001b2f8    5b68            ldr         r3,[r3,#0x4]                            
ram:0001b2fa    bde81040        pop.w       {r4,lr}                                 
ram:0001b2fe    1847            bx          r3                                      
                            ;************************************************************************************************
                            ;*                                           FUNCTION                                           *
                            ;************************************************************************************************
                            ;undefined4 FUN_0001b300(char * param_1, undefined4 * param_2)
          ;param_1       char *              r0                      
          ;param_2       undefined4 *        r1                      
                                                          ;XREF[1,0]:   0001c43a
ram:0001b300    60b1            cbz         param_1,LAB_0001b31c                    
ram:0001b302    59b1            cbz         param_2,LAB_0001b31c                    
ram:0001b304    0378            ldrb        r3,[param_1,#0x0]                       
ram:0001b306    de2b            cmp         r3,#0xde                                
ram:0001b308    0ad0            beq         LAB_0001b320                            
ram:0001b30a    0b68            ldr         r3,[param_2,#0x0]                       
ram:0001b30c    4360            str         r3,[param_1,#0x4]                       
ram:0001b30e    de23            movs        r3,#0xde                                
ram:0001b310    0370            strb        r3,[param_1,#0x0]                       
ram:0001b312    4ff6ff73        movw        r3,#0xffff                              
ram:0001b316    4380            strh        r3,[param_1,#0x2]                       
ram:0001b318    0020            movs        param_1,#0x0                            
ram:0001b31a    7047            bx          lr                                      
                            LAB_0001b31c:                 ;XREF[2,0]:   0001b300,0001b302
ram:0001b31c    0e20            movs        param_1,#0xe                            
ram:0001b31e    7047            bx          lr                                      
                            LAB_0001b320:                 ;XREF[1,0]:   0001b308
ram:0001b320    0820            movs        param_1,#0x8                            
ram:0001b322    7047            bx          lr                                      
ram:0001b324    28b1            cbz         r0,FUN_0001b332                         
ram:0001b326    0378            ldrb        r3,[r0,#0x0]                            
ram:0001b328    de2b            cmp         r3,#0xde                                
ram:0001b32a    04d1            bne         FUN_0001b336                            
ram:0001b32c    4180            strh        r1,[r0,#0x2]                            
ram:0001b32e    0020            movs        r0,#0x0                                 
ram:0001b330    7047            bx          lr                                      
                            ;************************************************************************************************
                            ;*                                           FUNCTION                                           *
                            ;************************************************************************************************
                            ;undefined4 FUN_0001b332(void)
                                                          ;XREF[1,0]:   0001b324
ram:0001b332    0e20            movs        r0,#0xe                                 
ram:0001b334    7047            bx          lr                                      
                            ;************************************************************************************************
                            ;*                                           FUNCTION                                           *
                            ;************************************************************************************************
                            ;undefined4 FUN_0001b336(void)
                                                          ;XREF[1,0]:   0001b32a
ram:0001b336    0820            movs        r0,#0x8                                 
ram:0001b338    7047            bx          lr                                      
                            ;************************************************************************************************
                            ;*                                           FUNCTION                                           *
                            ;************************************************************************************************
                            ;undefined FUN_0001b33a(short * param_1, char * param_2)
          ;param_1       short *             r0                      
          ;param_2       char *              r1                      
          ;local_24      undefined2         -24                      ;XREF[1,0]:   0001b3b8
          ;local_28      undefined1         -28                      ;XREF[1,0]:   0001b3b4
ram:0001b33a    f0b5            push        {r4,r5,r6,r7,lr}                        
ram:0001b33c    0546            mov         r5,param_1                              
ram:0001b33e    85b0            sub         sp,#0x14                                
ram:0001b340    0c46            mov         r4,param_2                              
ram:0001b342    f1b1            cbz         param_2,LAB_0001b382                    
ram:0001b344    e8b1            cbz         param_1,LAB_0001b382                    
ram:0001b346    0b78            ldrb        r3,[param_2,#0x0]                       
ram:0001b348    de2b            cmp         r3,#0xde                                
ram:0001b34a    1ad1            bne         LAB_0001b382                            
ram:0001b34c    8288            ldrh        r2,[param_1,#0x4]                       
ram:0001b34e    4b88            ldrh        r3,[param_2,#0x2]                       
ram:0001b350    9a42            cmp         r2,r3                                   
ram:0001b352    04d1            bne         LAB_0001b35e                            
ram:0001b354    0b7a            ldrb        r3,[param_2,#0x8]                       
ram:0001b356    13b1            cbz         r3,LAB_0001b35e                         
ram:0001b358    0846            mov         param_1,param_2                         
ram:0001b35a    fff7bfff        bl          FUN_0001b2dc                            ;undefined FUN_0001b2dc(int param_1)
                            LAB_0001b35e:                 ;XREF[2,0]:   0001b352,0001b356
ram:0001b35e    2b88            ldrh        r3,[r5,#0x0]                            
ram:0001b360    112b            cmp         r3,#0x11                                
ram:0001b362    32d0            beq         LAB_0001b3ca                            
ram:0001b364    512b            cmp         r3,#0x51                                
ram:0001b366    0ed0            beq         LAB_0001b386                            
ram:0001b368    012b            cmp         r3,#0x1                                 
ram:0001b36a    0ad1            bne         LAB_0001b382                            
ram:0001b36c    2b7a            ldrb        r3,[r5,#0x8]                            
ram:0001b36e    012b            cmp         r3,#0x1                                 
ram:0001b370    07d1            bne         LAB_0001b382                            
ram:0001b372    a988            ldrh        param_2,[r5,#0x4]                       
ram:0001b374    6288            ldrh        r2,[r4,#0x2]                            
ram:0001b376    9142            cmp         param_2,r2                              
ram:0001b378    03d1            bne         LAB_0001b382                            
ram:0001b37a    2372            strb        r3,[r4,#0x8]                            
ram:0001b37c    2046            mov         param_1,r4                              
ram:0001b37e    fff7adff        bl          FUN_0001b2dc                            ;undefined FUN_0001b2dc(int param_1)
                            LAB_0001b382:                 ;XREF[12,0]:  0001b342,0001b344,0001b34a,0001b36a
                                                          ;             0001b370,0001b378,0001b38c,0001b392
                                                          ;             0001b39a,0001b3c2,0001b3c8,0001b3d8
ram:0001b382    05b0            add         sp,#0x14                                
ram:0001b384    f0bd            pop         {r4,r5,r6,r7,pc}                        
                            LAB_0001b386:                 ;XREF[1,0]:   0001b366
ram:0001b386    ae88            ldrh        r6,[r5,#0x4]                            
ram:0001b388    6388            ldrh        r3,[r4,#0x2]                            
ram:0001b38a    b342            cmp         r3,r6                                   
ram:0001b38c    f9d1            bne         LAB_0001b382                            
ram:0001b38e    af79            ldrb        r7,[r5,#0x6]                            
ram:0001b390    022f            cmp         r7,#0x2                                 
ram:0001b392    f6d1            bne         LAB_0001b382                            
ram:0001b394    ad7b            ldrb        r5,[r5,#0xe]                            
ram:0001b396    2b1f            subs        r3,r5,#0x4                              
ram:0001b398    022b            cmp         r3,#0x2                                 
ram:0001b39a    f2d8            bhi         LAB_0001b382                            
ram:0001b39c    0021            movs        param_2,#0x0                            
ram:0001b39e    1022            movs        r2,#0x10                                
ram:0001b3a0    6846            mov         param_1,sp                              
ram:0001b3a2    01f01af9        bl          FUN_0001c5da                            ;undefined FUN_0001c5da(undefined * p...
ram:0001b3a6    052d            cmp         r5,#0x5                                 
ram:0001b3a8    14bf            ite         ne                                      
ram:0001b3aa    4ff4c073        mov.ne.w    r3,#0x180                               
ram:0001b3ae    0023            mov.eq      r3,#0x0                                 
ram:0001b3b0    6946            mov         param_2,sp                              
ram:0001b3b2    3046            mov         param_1,r6                              
ram:0001b3b4    8df80070        strb.w      r7,[sp,#0x0]=>local_28                  
ram:0001b3b8    adf80430        strh.w      r3,[sp,#local_24+0x28]                  
ram:0001b3bc    fff78aff        bl          FUN_0001b2d4                            ;undefined FUN_0001b2d4(void)
ram:0001b3c0    0028            cmp         param_1,#0x0                            
ram:0001b3c2    ded0            beq         LAB_0001b382                            
ram:0001b3c4    6368            ldr         r3,[r4,#0x4]                            
ram:0001b3c6    9847            blx         r3                                      
ram:0001b3c8    dbe7            b           LAB_0001b382                            
                            LAB_0001b3ca:                 ;XREF[1,0]:   0001b362
ram:0001b3ca    6388            ldrh        r3,[r4,#0x2]                            
ram:0001b3cc    aa88            ldrh        r2,[r5,#0x4]                            
ram:0001b3ce    9a42            cmp         r2,r3                                   
ram:0001b3d0    04bf            itt         eq                                      
ram:0001b3d2    4ff6ff73        movw.eq     r3,#0xffff                              
ram:0001b3d6    6380            strh.eq     r3,[r4,#0x2]                            
ram:0001b3d8    d3e7            b           LAB_0001b382                            
                            ;************************************************************************************************
                            ;*                                           FUNCTION                                           *
                            ;************************************************************************************************
                            ;undefined FUN_0001b3da(void)
                                                          ;XREF[1,0]:   0001b450
ram:0001b3da    a8df            svc         0xa8                                    
ram:0001b3dc    7047            bx          lr                                      
ram:0001b3de    0000            movs        r0,r0                                   
                            ;************************************************************************************************
                            ;*                                           FUNCTION                                           *
                            ;************************************************************************************************
                            ;undefined FUN_0001b3e0(undefined2 param_1, int param_2, int param_3, undefined param_4, undefined4 param_5)
          ;param_1       undefined2          r0                      
          ;param_2       int                 r1                      
          ;param_3       int                 r2                      
          ;param_4       undefined           r3                      
          ;param_5       undefined4           0                      ;XREF[1,0]:   0001b40a
          ;local_27      undefined1         -27                      ;XREF[1,0]:   0001b428
          ;local_2b      undefined1         -2b                      ;XREF[2,0]:   0001b406,0001b414
          ;local_30      undefined4         -30                      ;XREF[1,0]:   0001b426
          ;local_32      undefined2         -32                      ;XREF[1,0]:   0001b422
          ;local_34      undefined2         -34                      ;XREF[1,0]:   0001b41a
          ;local_38      undefined2         -38                      ;XREF[1,0]:   0001b40c
                                                          ;XREF[9,0]:   0001b472,0001b48c,0001b4a6,0001b4c0
                                                          ;             0001b4d8,0001b502,0001b550,0001b56a
                                                          ;             0001b5ae
ram:0001b3e0    f0b5            push        {r4,r5,r6,r7,lr}                        
ram:0001b3e2    0746            mov         r7,param_1                              
ram:0001b3e4    89b0            sub         sp,#0x24                                
ram:0001b3e6    1446            mov         r4,param_3                              
ram:0001b3e8    1e46            mov         r6,param_4                              
ram:0001b3ea    0d46            mov         r5,param_2                              
ram:0001b3ec    11b9            cbnz        param_2,LAB_0001b3f4                    
ram:0001b3ee    0846            mov         param_1,param_2                         
ram:0001b3f0    fdf794ff        bl          FUN_0001931c                            ;undefined FUN_0001931c(void)
                            LAB_0001b3f4:                 ;XREF[1,0]:   0001b3ec
ram:0001b3f4    14b9            cbnz        r4,LAB_0001b3fc                         
ram:0001b3f6    2046            mov         param_1,r4                              
ram:0001b3f8    fdf790ff        bl          FUN_0001931c                            ;undefined FUN_0001931c(void)
                            LAB_0001b3fc:                 ;XREF[1,0]:   0001b3f4
ram:0001b3fc    2022            movs        param_3,#0x20                           
ram:0001b3fe    0021            movs        param_2,#0x0                            
ram:0001b400    6846            mov         param_1,sp                              
ram:0001b402    01f0eaf8        bl          FUN_0001c5da                            ;undefined FUN_0001c5da(undefined * p...
ram:0001b406    9df80d30        ldrb.w      param_4,[sp,#local_2b+0x38]             
ram:0001b40a    0e9a            ldr         param_3,[sp,#param_5+0x38]              
ram:0001b40c    adf80070        strh.w      r7,[sp,#0x0]=>local_38                  
ram:0001b410    43f00203        orr         param_4,param_4,#0x2                    
ram:0001b414    8df80d30        strb.w      param_4,[sp,#local_2b+0x38]             
ram:0001b418    064b            ldr         param_4=>DAT_20001f4c,[DAT_0001b434]    ;= 20001F4Ch
ram:0001b41a    adf80440        strh.w      r4,[sp,#local_34+0x38]                  
ram:0001b41e    6946            mov         param_2,sp                              
ram:0001b420    1888            ldrh        param_1,[param_4,#0x0]=>DAT_20001f4c    
ram:0001b422    adf80640        strh.w      r4,[sp,#local_32+0x38]                  
ram:0001b426    0295            str         r5,[sp,#local_30+0x38]                  
ram:0001b428    8df81160        strb.w      r6,[sp,#local_27+0x38]                  
ram:0001b42c    fff7defd        bl          FUN_0001afec                            ;undefined FUN_0001afec(undefined4 pa...
ram:0001b430    09b0            add         sp,#0x24                                
ram:0001b432    f0bd            pop         {r4,r5,r6,r7,pc}                        
                            DAT_0001b434:                 ;XREF[1,0]:   0001b418
ram:0001b434    4c1f0020        undefined4  20001F4Ch                               
                            ;************************************************************************************************
                            ;*                                           FUNCTION                                           *
                            ;************************************************************************************************
                            ;int FUN_0001b438(ushort * param_1)
          ;param_1       ushort *            r0                      
          ;local_11      undefined1         -11                      ;XREF[1,0]:   0001b53e
          ;local_12      undefined1         -12                      ;XREF[2,0]:   0001b536,0001b59e
          ;local_13      undefined1         -13                      ;XREF[2,0]:   0001b530,0001b594
          ;local_14      undefined1         -14                      ;XREF[2,0]:   0001b52a,0001b58e
          ;local_15      undefined1         -15                      ;XREF[2,0]:   0001b524,0001b588
          ;local_16      undefined1         -16                      ;XREF[2,0]:   0001b51e,0001b582
          ;local_17      undefined1         -17                      ;XREF[2,0]:   0001b518,0001b57c
          ;local_18      undefined1         -18                      ;XREF[2,0]:   0001b510,0001b576
          ;local_1a      undefined1         -1a                      ;XREF[1,0]:   0001b44c
          ;local_1c      undefined2         -1c                      ;XREF[1,0]:   0001b444
          ;local_28      undefined4         -28                      ;XREF[9,0]:   0001b466,0001b480,0001b49a,0001b4b4,0001b4cc
                                                                     ;             0001b4f6,0001b542,0001b55e,0001b59a
                                                          ;XREF[1,0]:   0001c48e
ram:0001b438    30b5            push        {r4,r5,lr}                              
ram:0001b43a    87b0            sub         sp,#0x1c                                
ram:0001b43c    06a9            add         r1,sp,#0x18                             
ram:0001b43e    41f60a03        movw        r3,#0x180a                              
ram:0001b442    0446            mov         r4,param_1                              
ram:0001b444    21f80c3d        strh        r3,[r1,#-0xc]!=>local_1c                
ram:0001b448    0120            movs        param_1,#0x1                            
ram:0001b44a    5a4a            ldr         r2=>DAT_20001f4c,[DAT_0001b5b4]         ;= 20001F4Ch
ram:0001b44c    8df80e00        strb.w      param_1,[sp,#local_1a+0x28]             
ram:0001b450    fff7c3ff        bl          FUN_0001b3da                            ;undefined FUN_0001b3da(void)
ram:0001b454    0546            mov         r5,param_1                              
ram:0001b456    0028            cmp         param_1,#0x0                            
ram:0001b458    49d1            bne         LAB_0001b4ee                            
ram:0001b45a    2288            ldrh        r2,[r4,#0x0]                            
ram:0001b45c    002a            cmp         r2,#0x0                                 
ram:0001b45e    49d1            bne         LAB_0001b4f4                            
                            LAB_0001b460:                 ;XREF[1,0]:   0001b508
ram:0001b460    2289            ldrh        r2,[r4,#0x8]                            
ram:0001b462    52b1            cbz         r2,LAB_0001b47a                         
ram:0001b464    5449            ldr         r1,[DAT_0001b5b8]                       ;= 20001F2Ch
ram:0001b466    0091            str         r1,[sp,#0x0]=>local_28                  
ram:0001b468    94f83c30        ldrb.w      r3,[r4,#0x3c]                           
ram:0001b46c    e168            ldr         r1,[r4,#0xc]                            
ram:0001b46e    42f62420        movw        param_1,#0x2a24                         
ram:0001b472    fff7b5ff        bl          FUN_0001b3e0                            ;undefined FUN_0001b3e0(undefined2 pa...
ram:0001b476    0028            cmp         param_1,#0x0                            
ram:0001b478    47d1            bne         LAB_0001b50a                            
                            LAB_0001b47a:                 ;XREF[1,0]:   0001b462
ram:0001b47a    228a            ldrh        r2,[r4,#0x10]                           
ram:0001b47c    52b1            cbz         r2,LAB_0001b494                         
ram:0001b47e    4f49            ldr         r1,[DAT_0001b5bc]                       ;= 20001F44h
ram:0001b480    0091            str         r1,[sp,#0x0]=>local_28                  
ram:0001b482    94f83c30        ldrb.w      r3,[r4,#0x3c]                           
ram:0001b486    6169            ldr         r1,[r4,#0x14]                           
ram:0001b488    42f62520        movw        param_1,#0x2a25                         
ram:0001b48c    fff7a8ff        bl          FUN_0001b3e0                            ;undefined FUN_0001b3e0(undefined2 pa...
ram:0001b490    0028            cmp         param_1,#0x0                            
ram:0001b492    3ad1            bne         LAB_0001b50a                            
                            LAB_0001b494:                 ;XREF[1,0]:   0001b47c
ram:0001b494    228b            ldrh        r2,[r4,#0x18]                           
ram:0001b496    52b1            cbz         r2,LAB_0001b4ae                         
ram:0001b498    4949            ldr         r1,[DAT_0001b5c0]                       ;= 20001F1Ch
ram:0001b49a    0091            str         r1,[sp,#0x0]=>local_28                  
ram:0001b49c    94f83c30        ldrb.w      r3,[r4,#0x3c]                           
ram:0001b4a0    e169            ldr         r1,[r4,#0x1c]                           
ram:0001b4a2    42f62720        movw        param_1,#0x2a27                         
ram:0001b4a6    fff79bff        bl          FUN_0001b3e0                            ;undefined FUN_0001b3e0(undefined2 pa...
ram:0001b4aa    0028            cmp         param_1,#0x0                            
ram:0001b4ac    2dd1            bne         LAB_0001b50a                            
                            LAB_0001b4ae:                 ;XREF[1,0]:   0001b496
ram:0001b4ae    228c            ldrh        r2,[r4,#0x20]                           
ram:0001b4b0    4ab1            cbz         r2,LAB_0001b4c6                         
ram:0001b4b2    4449            ldr         r1,[DAT_0001b5c4]                       ;= 20001F14h
ram:0001b4b4    0091            str         r1,[sp,#0x0]=>local_28                  
ram:0001b4b6    94f83c30        ldrb.w      r3,[r4,#0x3c]                           
ram:0001b4ba    616a            ldr         r1,[r4,#0x24]                           
ram:0001b4bc    42f62620        movw        param_1,#0x2a26                         
ram:0001b4c0    fff78eff        bl          FUN_0001b3e0                            ;undefined FUN_0001b3e0(undefined2 pa...
ram:0001b4c4    08bb            cbnz        param_1,LAB_0001b50a                    
                            LAB_0001b4c6:                 ;XREF[1,0]:   0001b4b0
ram:0001b4c6    228d            ldrh        r2,[r4,#0x28]                           
ram:0001b4c8    4ab1            cbz         r2,LAB_0001b4de                         
ram:0001b4ca    3f49            ldr         r1,[DAT_0001b5c8]                       ;= 20001F4Eh
ram:0001b4cc    0091            str         r1,[sp,#0x0]=>local_28                  
ram:0001b4ce    94f83c30        ldrb.w      r3,[r4,#0x3c]                           
ram:0001b4d2    e16a            ldr         r1,[r4,#0x2c]                           
ram:0001b4d4    42f62820        movw        param_1,#0x2a28                         
ram:0001b4d8    fff782ff        bl          FUN_0001b3e0                            ;undefined FUN_0001b3e0(undefined2 pa...
ram:0001b4dc    a8b9            cbnz        param_1,LAB_0001b50a                    
                            LAB_0001b4de:                 ;XREF[1,0]:   0001b4c8
ram:0001b4de    236b            ldr         r3,[r4,#0x30]                           
ram:0001b4e0    abb9            cbnz        r3,LAB_0001b50e                         
                            LAB_0001b4e2:                 ;XREF[1,0]:   0001b556
ram:0001b4e2    616b            ldr         r1,[r4,#0x34]                           
ram:0001b4e4    0029            cmp         r1,#0x0                                 
ram:0001b4e6    38d1            bne         LAB_0001b55a                            
                            LAB_0001b4e8:                 ;XREF[1,0]:   0001b570
ram:0001b4e8    a36b            ldr         r3,[r4,#0x38]                           
ram:0001b4ea    002b            cmp         r3,#0x0                                 
ram:0001b4ec    42d1            bne         LAB_0001b574                            
                            LAB_0001b4ee:                 ;XREF[2,0]:   0001b458,0001b50c
ram:0001b4ee    2846            mov         param_1,r5                              
ram:0001b4f0    07b0            add         sp,#0x1c                                
ram:0001b4f2    30bd            pop         {r4,r5,pc}                              
                            LAB_0001b4f4:                 ;XREF[1,0]:   0001b45e
ram:0001b4f4    3549            ldr         r1,[DAT_0001b5cc]                       ;= 20001F24h
ram:0001b4f6    0091            str         r1,[sp,#0x0]=>local_28                  
ram:0001b4f8    94f83c30        ldrb.w      r3,[r4,#0x3c]                           
ram:0001b4fc    6168            ldr         r1,[r4,#0x4]                            
ram:0001b4fe    42f62920        movw        param_1,#0x2a29                         
ram:0001b502    fff76dff        bl          FUN_0001b3e0                            ;undefined FUN_0001b3e0(undefined2 pa...
ram:0001b506    0028            cmp         param_1,#0x0                            
ram:0001b508    aad0            beq         LAB_0001b460                            
                            LAB_0001b50a:                 ;XREF[8,0]:   0001b478,0001b492,0001b4ac,0001b4c4
                                                          ;             0001b4dc,0001b558,0001b572,0001b5b2
ram:0001b50a    0546            mov         r5,param_1                              
ram:0001b50c    efe7            b           LAB_0001b4ee                            
                            LAB_0001b50e:                 ;XREF[1,0]:   0001b4e0
ram:0001b50e    1a68            ldr         r2,[r3,#0x0]                            
ram:0001b510    8df81020        strb.w      r2,[sp,#local_18+0x28]                  
ram:0001b514    1a68            ldr         r2,[r3,#0x0]                            
ram:0001b516    120a            lsrs        r2,r2,#0x8                              
ram:0001b518    8df81120        strb.w      r2,[sp,#local_17+0x28]                  
ram:0001b51c    5a88            ldrh        r2,[r3,#0x2]                            
ram:0001b51e    8df81220        strb.w      r2,[sp,#local_16+0x28]                  
ram:0001b522    da78            ldrb        r2,[r3,#0x3]                            
ram:0001b524    8df81320        strb.w      r2,[sp,#local_15+0x28]                  
ram:0001b528    5a68            ldr         r2,[r3,#0x4]                            
ram:0001b52a    8df81420        strb.w      r2,[sp,#local_14+0x28]                  
ram:0001b52e    9b68            ldr         r3,[r3,#0x8]                            
ram:0001b530    8df81530        strb.w      r3,[sp,#local_13+0x28]                  
ram:0001b534    1a0a            lsrs        r2,r3,#0x8                              
ram:0001b536    8df81620        strb.w      r2,[sp,#local_12+0x28]                  
ram:0001b53a    1b0c            lsrs        r3,r3,#0x10                             
ram:0001b53c    244a            ldr         r2,[DAT_0001b5d0]                       ;= 20001F56h
ram:0001b53e    8df81730        strb.w      r3,[sp,#local_11+0x28]                  
ram:0001b542    0092            str         r2,[sp,#0x0]=>local_28                  
ram:0001b544    94f83c30        ldrb.w      r3,[r4,#0x3c]                           
ram:0001b548    0822            movs        r2,#0x8                                 
ram:0001b54a    04a9            add         r1,sp,#0x10                             
ram:0001b54c    42f62320        movw        param_1,#0x2a23                         
ram:0001b550    fff746ff        bl          FUN_0001b3e0                            ;undefined FUN_0001b3e0(undefined2 pa...
ram:0001b554    0028            cmp         param_1,#0x0                            
ram:0001b556    c4d0            beq         LAB_0001b4e2                            
ram:0001b558    d7e7            b           LAB_0001b50a                            
                            LAB_0001b55a:                 ;XREF[1,0]:   0001b4e6
ram:0001b55a    1e48            ldr         param_1,[DAT_0001b5d4]                  ;= 20001F3Ch
ram:0001b55c    0a79            ldrb        r2,[r1,#0x4]                            
ram:0001b55e    0090            str         param_1,[sp,#0x0]=>local_28             
ram:0001b560    94f83c30        ldrb.w      r3,[r4,#0x3c]                           
ram:0001b564    0968            ldr         r1,[r1,#0x0]                            
ram:0001b566    42f62a20        movw        param_1,#0x2a2a                         
ram:0001b56a    fff739ff        bl          FUN_0001b3e0                            ;undefined FUN_0001b3e0(undefined2 pa...
ram:0001b56e    0028            cmp         param_1,#0x0                            
ram:0001b570    bad0            beq         LAB_0001b4e8                            
ram:0001b572    cae7            b           LAB_0001b50a                            
                            LAB_0001b574:                 ;XREF[1,0]:   0001b4ec
ram:0001b574    1a78            ldrb        r2,[r3,#0x0]                            
ram:0001b576    8df81020        strb.w      r2,[sp,#local_18+0x28]                  
ram:0001b57a    5a88            ldrh        r2,[r3,#0x2]                            
ram:0001b57c    8df81120        strb.w      r2,[sp,#local_17+0x28]                  
ram:0001b580    120a            lsrs        r2,r2,#0x8                              
ram:0001b582    8df81220        strb.w      r2,[sp,#local_16+0x28]                  
ram:0001b586    9a88            ldrh        r2,[r3,#0x4]                            
ram:0001b588    8df81320        strb.w      r2,[sp,#local_15+0x28]                  
ram:0001b58c    120a            lsrs        r2,r2,#0x8                              
ram:0001b58e    8df81420        strb.w      r2,[sp,#local_14+0x28]                  
ram:0001b592    db88            ldrh        r3,[r3,#0x6]                            
ram:0001b594    8df81530        strb.w      r3,[sp,#local_13+0x28]                  
ram:0001b598    0f4a            ldr         r2,[DAT_0001b5d8]                       ;= 20001F34h
ram:0001b59a    0092            str         r2,[sp,#0x0]=>local_28                  
ram:0001b59c    1b0a            lsrs        r3,r3,#0x8                              
ram:0001b59e    8df81630        strb.w      r3,[sp,#local_12+0x28]                  
ram:0001b5a2    0722            movs        r2,#0x7                                 
ram:0001b5a4    94f83c30        ldrb.w      r3,[r4,#0x3c]                           
ram:0001b5a8    04a9            add         r1,sp,#0x10                             
ram:0001b5aa    42f65020        movw        param_1,#0x2a50                         
ram:0001b5ae    fff717ff        bl          FUN_0001b3e0                            ;undefined FUN_0001b3e0(undefined2 pa...
ram:0001b5b2    aae7            b           LAB_0001b50a                            
                            DAT_0001b5b4:                 ;XREF[1,0]:   0001b44a
ram:0001b5b4    4c1f0020        undefined4  20001F4Ch                               
                            DAT_0001b5b8:                 ;XREF[1,0]:   0001b464
ram:0001b5b8    2c1f0020        undefined4  20001F2Ch                               
                            DAT_0001b5bc:                 ;XREF[1,0]:   0001b47e
ram:0001b5bc    441f0020        undefined4  20001F44h                               
                            DAT_0001b5c0:                 ;XREF[1,0]:   0001b498
ram:0001b5c0    1c1f0020        undefined4  20001F1Ch                               
                            DAT_0001b5c4:                 ;XREF[1,0]:   0001b4b2
ram:0001b5c4    141f0020        undefined4  20001F14h                               
                            DAT_0001b5c8:                 ;XREF[1,0]:   0001b4ca
ram:0001b5c8    4e1f0020        undefined4  20001F4Eh                               
                            DAT_0001b5cc:                 ;XREF[1,0]:   0001b4f4
ram:0001b5cc    241f0020        undefined4  20001F24h                               
                            DAT_0001b5d0:                 ;XREF[1,0]:   0001b53c
ram:0001b5d0    561f0020        undefined4  20001F56h                               
                            DAT_0001b5d4:                 ;XREF[1,0]:   0001b55a
ram:0001b5d4    3c1f0020        undefined4  20001F3Ch                               
                            DAT_0001b5d8:                 ;XREF[1,0]:   0001b598
ram:0001b5d8    341f0020        undefined4  20001F34h                               
                            ;************************************************************************************************
                            ;*                                           FUNCTION                                           *
                            ;************************************************************************************************
                            ;undefined FUN_0001b5dc(void)
                                                          ;XREF[1,0]:   0001b7bc
ram:0001b5dc    a8df            svc         0xa8                                    
ram:0001b5de    7047            bx          lr                                      
                            ;************************************************************************************************
                            ;*                                           FUNCTION                                           *
                            ;************************************************************************************************
                            ;undefined FUN_0001b5e0(void)
                                                          ;XREF[1,0]:   0001b720
ram:0001b5e0    aedf            svc         0xae                                    
ram:0001b5e2    7047            bx          lr                                      
                            ;************************************************************************************************
                            ;*                                           FUNCTION                                           *
                            ;************************************************************************************************
                            ;undefined FUN_0001b5e4(void)
                                                          ;XREF[1,0]:   0001b69a
ram:0001b5e4    b0df            svc         0xb0                                    
ram:0001b5e6    7047            bx          lr                                      
                            ;************************************************************************************************
                            ;*                                           FUNCTION                                           *
                            ;************************************************************************************************
                            ;undefined FUN_0001b5e8(void)
                                                          ;XREF[1,0]:   0001b7c6
ram:0001b5e8    62df            svc         0x62                                    
ram:0001b5ea    7047            bx          lr                                      
                            ;************************************************************************************************
                            ;*                                           FUNCTION                                           *
                            ;************************************************************************************************
                            ;undefined FUN_0001b5ec(void)
                                                          ;XREF[1,0]:   0001b74a
ram:0001b5ec    3cdf            svc         0x3c                                    
ram:0001b5ee    7047            bx          lr                                      
                            ;************************************************************************************************
                            ;*                                           FUNCTION                                           *
                            ;************************************************************************************************
                            ;undefined FUN_0001b5f0(void)
                                                          ;XREF[1,0]:   0001b740
ram:0001b5f0    3ddf            svc         0x3d                                    
ram:0001b5f2    7047            bx          lr                                      
                            ;************************************************************************************************
                            ;*                                           FUNCTION                                           *
                            ;************************************************************************************************
                            ;undefined LAB_0001b5f4+1(void)
                                                          ;XREF[0,3]:   0001b79e,0001b7a0,0001b7e4
ram:0001b5f4    7047            bx          lr                                      
ram:0001b5f6    0000            movs        r0,r0                                   
                            ;************************************************************************************************
                            ;*                                           FUNCTION                                           *
                            ;************************************************************************************************
                            ;undefined FUN_0001b5f8(ushort * param_1, uint param_2, undefined4 param_3, undefined4 param_4)
          ;param_1       ushort *            r0                      
          ;param_2       uint                r1                      
          ;param_3       undefined4          r2                      
          ;param_4       undefined4          r3                      
          ;local_1a      undefined1         -1a                      ;XREF[2,0]:   0001b684,0001b68c
          ;local_1c      undefined2         -1c                      ;XREF[2,0]:   0001b692,0001b6a2
          ;local_20      undefined1         -20                      ;XREF[1,0]:   0001b67e
ram:0001b5f8    7fb5            push        {param_1,param_2,param_3,param_4,r4,r...
ram:0001b5fa    0446            mov         r4,param_1                              
ram:0001b5fc    38b1            cbz         param_1,LAB_0001b60e                    
ram:0001b5fe    0388            ldrh        param_4,[param_1,#0x0]                  
ram:0001b600    502b            cmp         param_4,#0x50                           
ram:0001b602    5ad0            beq         LAB_0001b6ba                            
ram:0001b604    05d8            bhi         LAB_0001b612                            
ram:0001b606    102b            cmp         param_4,#0x10                           
ram:0001b608    17d0            beq         LAB_0001b63a                            
ram:0001b60a    112b            cmp         param_4,#0x11                           
ram:0001b60c    19d0            beq         LAB_0001b642                            
                            LAB_0001b60e:                 ;XREF[17,0]:  0001b5fc,0001b618,0001b622,0001b628
                                                          ;             0001b630,0001b638,0001b640,0001b64a
                                                          ;             0001b65a,0001b660,0001b668,0001b670
                                                          ;             0001b6a8,0001b6b2,0001b6c2,0001b6c8
                                                          ;             0001b6d2
ram:0001b60e    04b0            add         sp,#0x10                                
ram:0001b610    70bd            pop         {r4,r5,r6,pc}                           
                            LAB_0001b612:                 ;XREF[1,0]:   0001b604
ram:0001b612    512b            cmp         param_4,#0x51                           
ram:0001b614    1dd0            beq         LAB_0001b652                            
ram:0001b616    532b            cmp         param_4,#0x53                           
ram:0001b618    f9d1            bne         LAB_0001b60e                            
ram:0001b61a    2e4d            ldr         r5,[DAT_0001b6d4]                       ;= 20001F60h
ram:0001b61c    c288            ldrh        param_3,[param_1,#0x6]                  
ram:0001b61e    eb88            ldrh        param_4,[r5,#0x6]=>DAT_20001f66         
ram:0001b620    9a42            cmp         param_3,param_4                         
ram:0001b622    f4d1            bne         LAB_0001b60e                            
ram:0001b624    6b7e            ldrb        param_4,[r5,#0x19]=>DAT_20001f79        
ram:0001b626    002b            cmp         param_4,#0x0                            
ram:0001b628    f1d0            beq         LAB_0001b60e                            
ram:0001b62a    00f0a7f9        bl          FUN_0001b97c                            ;int FUN_0001b97c(void)
ram:0001b62e    0028            cmp         param_1,#0x0                            
ram:0001b630    edd0            beq         LAB_0001b60e                            
ram:0001b632    6b69            ldr         param_4,[r5,#0x14]=>DAT_20001f74        
ram:0001b634    0220            movs        param_1,#0x2                            
ram:0001b636    9847            blx         param_4                                 
ram:0001b638    e9e7            b           LAB_0001b60e                            
                            LAB_0001b63a:                 ;XREF[1,0]:   0001b608
ram:0001b63a    8288            ldrh        param_3,[param_1,#0x4]                  
ram:0001b63c    254b            ldr         param_4,[DAT_0001b6d4]                  ;= 20001F60h
                            LAB_0001b63e:                 ;XREF[1,0]:   0001b650
ram:0001b63e    9a80            strh        param_3,[param_4,#0x4]=>DAT_20001f64    
ram:0001b640    e5e7            b           LAB_0001b60e                            
                            LAB_0001b642:                 ;XREF[1,0]:   0001b60c
ram:0001b642    244b            ldr         param_4,[DAT_0001b6d4]                  ;= 20001F60h
ram:0001b644    8188            ldrh        param_2,[param_1,#0x4]                  
ram:0001b646    9a88            ldrh        param_3,[param_4,#0x4]=>DAT_20001f64    
ram:0001b648    9142            cmp         param_2,param_3                         
ram:0001b64a    e0d1            bne         LAB_0001b60e                            
ram:0001b64c    4ff6ff72        movw        param_3,#0xffff                         
ram:0001b650    f5e7            b           LAB_0001b63e                            
                            LAB_0001b652:                 ;XREF[1,0]:   0001b614
ram:0001b652    204d            ldr         r5,[DAT_0001b6d4]                       ;= 20001F60h
ram:0001b654    8288            ldrh        param_3,[param_1,#0x4]                  
ram:0001b656    ab88            ldrh        param_4,[r5,#0x4]=>DAT_20001f64         
ram:0001b658    9a42            cmp         param_3,param_4                         
ram:0001b65a    d8d1            bne         LAB_0001b60e                            
ram:0001b65c    8679            ldrb        r6,[param_1,#0x6]                       
ram:0001b65e    022e            cmp         r6,#0x2                                 
ram:0001b660    d5d1            bne         LAB_0001b60e                            
ram:0001b662    0289            ldrh        param_3,[param_1,#0x8]                  
ram:0001b664    eb88            ldrh        param_4,[r5,#0x6]=>DAT_20001f66         
ram:0001b666    9a42            cmp         param_3,param_4                         
ram:0001b668    d1d1            bne         LAB_0001b60e                            
ram:0001b66a    837b            ldrb        param_4,[param_1,#0xe]                  
ram:0001b66c    043b            subs        param_4,#0x4                            
ram:0001b66e    022b            cmp         param_4,#0x2                            
ram:0001b670    cdd9            bls         LAB_0001b60e                            
ram:0001b672    1022            movs        param_3,#0x10                           
ram:0001b674    0021            movs        param_2,#0x0                            
ram:0001b676    6846            mov         param_1,sp                              
ram:0001b678    00f0afff        bl          FUN_0001c5da                            ;undefined FUN_0001c5da(undefined * p...
ram:0001b67c    2b7e            ldrb        param_4,[r5,#0x18]=>DAT_20001f78        
ram:0001b67e    8df80060        strb.w      r6,[sp,#0x0]=>local_20                  
ram:0001b682    bbb1            cbz         param_4,LAB_0001b6b4                    
ram:0001b684    9df80630        ldrb.w      param_4,[sp,#local_1a+0x20]             
ram:0001b688    43f00103        orr         param_4,param_4,#0x1                    
ram:0001b68c    8df80630        strb.w      param_4,[sp,#local_1a+0x20]             
ram:0001b690    0023            movs        param_4,#0x0                            
                            LAB_0001b692:                 ;XREF[1,0]:   0001b6b8
ram:0001b692    adf80430        strh.w      param_4,[sp,#local_1c+0x20]             
                            LAB_0001b696:                 ;XREF[1,0]:   0001b6a0
ram:0001b696    6946            mov         param_2,sp                              
ram:0001b698    a888            ldrh        param_1,[r5,#0x4]=>DAT_20001f64         
ram:0001b69a    fff7a3ff        bl          FUN_0001b5e4                            ;undefined FUN_0001b5e4(void)
ram:0001b69e    1128            cmp         param_1,#0x11                           
ram:0001b6a0    f9d0            beq         LAB_0001b696                            
ram:0001b6a2    bdf80430        ldrh.w      param_4,[sp,#local_1c+0x20]             
ram:0001b6a6    002b            cmp         param_4,#0x0                            
ram:0001b6a8    b1d1            bne         LAB_0001b60e                            
ram:0001b6aa    04f10800        add.w       param_1,r4,#0x8                         
ram:0001b6ae    00f013f9        bl          FUN_0001b8d8                            ;undefined FUN_0001b8d8(int param_1)
ram:0001b6b2    ace7            b           LAB_0001b60e                            
                            LAB_0001b6b4:                 ;XREF[1,0]:   0001b682
ram:0001b6b4    40f2fd13        movw        param_4,#0x1fd                          
ram:0001b6b8    ebe7            b           LAB_0001b692                            
                            LAB_0001b6ba:                 ;XREF[1,0]:   0001b602
ram:0001b6ba    064d            ldr         r5,[DAT_0001b6d4]                       ;= 20001F60h
ram:0001b6bc    c288            ldrh        param_3,[param_1,#0x6]                  
ram:0001b6be    6b89            ldrh        param_4,[r5,#0xa]=>DAT_20001f6a         
ram:0001b6c0    9a42            cmp         param_3,param_4                         
ram:0001b6c2    a4d1            bne         LAB_0001b60e                            
ram:0001b6c4    038a            ldrh        param_4,[param_1,#0x10]                 
ram:0001b6c6    022b            cmp         param_4,#0x2                            
ram:0001b6c8    a1d1            bne         LAB_0001b60e                            
ram:0001b6ca    1230            adds        param_1,#0x12                           
ram:0001b6cc    fff77bfc        bl          FUN_0001afc6                            ;uint FUN_0001afc6(byte * param_1)
ram:0001b6d0    2876            strb        param_1,[r5,#0x18]=>DAT_20001f78        
ram:0001b6d2    9ce7            b           LAB_0001b60e                            
                            DAT_0001b6d4:                 ;XREF[5,0]:   0001b61a,0001b63c,0001b642,0001b652
                                                          ;             0001b6ba
ram:0001b6d4    601f0020        undefined4  20001F60h                               
                            ;************************************************************************************************
                            ;*                                           FUNCTION                                           *
                            ;************************************************************************************************
                            ;int FUN_0001b6d8(undefined param_1, undefined param_2)
          ;param_1       undefined           r0                      
          ;param_2       undefined           r1                      
          ;local_14      undefined4         -14                      ;XREF[1,0]:   0001b71e
          ;local_18      undefined4         -18                      ;XREF[1,0]:   0001b712
          ;local_1c      undefined2         -1c                      ;XREF[1,0]:   0001b70a
          ;local_1e      undefined1         -1e                      ;XREF[1,0]:   0001b704
          ;local_20      undefined2         -20                      ;XREF[1,0]:   0001b6fe
          ;local_22      undefined1         -22                      ;XREF[1,0]:   0001b71a
          ;local_23      undefined1         -23                      ;XREF[1,0]:   0001b6f8
          ;local_24      undefined1         -24                      ;XREF[1,0]:   0001b6f2
          ;local_26      undefined2         -26                      ;XREF[2,0]:   0001b6ec,0001b726
                                                          ;XREF[5,0]:   0001b80e,0001b828,0001b8ec,0001b90a
                                                          ;             0001b920
ram:0001b6d8    30b5            push        {r4,r5,lr}                              
ram:0001b6da    87b0            sub         sp,#0x1c                                
ram:0001b6dc    0546            mov         r5,param_1                              
ram:0001b6de    0c46            mov         r4,param_2                              
ram:0001b6e0    1022            movs        r2,#0x10                                
ram:0001b6e2    0021            movs        param_2,#0x0                            
ram:0001b6e4    02a8            add         param_1,sp,#0x8                         
ram:0001b6e6    00f078ff        bl          FUN_0001c5da                            ;undefined FUN_0001c5da(undefined * p...
ram:0001b6ea    0323            movs        r3,#0x3                                 
ram:0001b6ec    adf80230        strh.w      r3,[sp,#local_26+0x28]                  
ram:0001b6f0    2023            movs        r3,#0x20                                
ram:0001b6f2    8df80430        strb.w      r3,[sp,#local_24+0x28]                  
ram:0001b6f6    0f4b            ldr         r3,[DAT_0001b734]                       ;= 20001F60h
ram:0001b6f8    8df80550        strb.w      r5,[sp,#local_23+0x28]                  
ram:0001b6fc    da88            ldrh        r2,[r3,#0x6]=>DAT_20001f66              
ram:0001b6fe    adf80820        strh.w      r2,[sp,#local_20+0x28]                  
ram:0001b702    0222            movs        r2,#0x2                                 
ram:0001b704    8df80a20        strb.w      r2,[sp,#local_1e+0x28]                  
ram:0001b708    0022            movs        r2,#0x0                                 
ram:0001b70a    adf80c20        strh.w      r2,[sp,#local_1c+0x28]                  
ram:0001b70e    0df10202        add.w       r2,sp,#0x2                              
ram:0001b712    0492            str         r2,[sp,#local_18+0x28]                  
ram:0001b714    02a9            add         param_2,sp,#0x8                         
ram:0001b716    01aa            add         r2,sp,#0x4                              
ram:0001b718    9888            ldrh        param_1,[r3,#0x4]=>DAT_20001f64         
ram:0001b71a    8df80640        strb.w      r4,[sp,#local_22+0x28]                  
ram:0001b71e    0592            str         r2,[sp,#local_14+0x28]                  
ram:0001b720    fff75eff        bl          FUN_0001b5e0                            ;undefined FUN_0001b5e0(void)
ram:0001b724    20b9            cbnz        param_1,LAB_0001b730                    
ram:0001b726    bdf80230        ldrh.w      r3,[sp,#local_26+0x28]                  
ram:0001b72a    032b            cmp         r3,#0x3                                 
ram:0001b72c    18bf            it          ne                                      
ram:0001b72e    0c20            mov.ne      param_1,#0xc                            
                            LAB_0001b730:                 ;XREF[1,0]:   0001b724
ram:0001b730    07b0            add         sp,#0x1c                                
ram:0001b732    30bd            pop         {r4,r5,pc}                              
                            DAT_0001b734:                 ;XREF[1,0]:   0001b6f6
ram:0001b734    601f0020        undefined4  20001F60h                               
                            ;************************************************************************************************
                            ;*                                           FUNCTION                                           *
                            ;************************************************************************************************
                            ;int FUN_0001b738(void)
                                                          ;XREF[1,0]:   0001b98c
ram:0001b738    10b5            push        {r4,lr}                                 
ram:0001b73a    4ff0ff31        mov.w       r1,#0xffffffff                          
ram:0001b73e    0020            movs        r0,#0x0                                 
ram:0001b740    fff756ff        bl          FUN_0001b5f0                            ;undefined FUN_0001b5f0(void)
ram:0001b744    0446            mov         r4,r0                                   
ram:0001b746    58b9            cbnz        r0,LAB_0001b760                         
ram:0001b748    b121            movs        r1,#0xb1                                
ram:0001b74a    fff74fff        bl          FUN_0001b5ec                            ;undefined FUN_0001b5ec(void)
ram:0001b74e    0446            mov         r4,r0                                   
ram:0001b750    30b9            cbnz        r0,LAB_0001b760                         
ram:0001b752    044b            ldr         r3,[DAT_0001b764]                       ;= 20001F60h
ram:0001b754    0120            movs        r0,#0x1                                 
ram:0001b756    5b69            ldr         r3,[r3,#0x14]=>DAT_20001f74             
ram:0001b758    9847            blx         r3                                      
ram:0001b75a    0220            movs        r0,#0x2                                 
ram:0001b75c    fef734f9        bl          FUN_000199c8                            ;undefined FUN_000199c8(int param_1)
                            LAB_0001b760:                 ;XREF[2,0]:   0001b746,0001b750
ram:0001b760    2046            mov         r0,r4                                   
ram:0001b762    10bd            pop         {r4,pc}                                 
                            DAT_0001b764:                 ;XREF[1,0]:   0001b752
ram:0001b764    601f0020        undefined4  20001F60h                               
                            ;************************************************************************************************
                            ;*                                           FUNCTION                                           *
                            ;************************************************************************************************
                            ;int FUN_0001b768(int * param_1)
          ;param_1       int *               r0                      
          ;local_28      undefined4         -28                      ;XREF[1,0]:   0001b77e
          ;local_2a      undefined1         -2a                      ;XREF[1,0]:   0001b7b8
          ;local_2c      undefined2         -2c                      ;XREF[1,0]:   0001b7b2
                                                          ;XREF[1,0]:   0001c44a
ram:0001b768    f0b5            push        {r4,r5,r6,r7,lr}                        
ram:0001b76a    1c4b            ldr         r3,[PTR_DAT_0001b7dc]                   ;= 0001d514
ram:0001b76c    87b0            sub         sp,#0x1c                                
ram:0001b76e    02aa            add         r2,sp,#0x8                              
ram:0001b770    0646            mov         r6,param_1                              
ram:0001b772    03f11007        add.w       r7,r3,#0x10                             
ram:0001b776    1546            mov         r5,r2                                   
                            LAB_0001b778:                 ;XREF[1,0]:   0001b786
                                                          ; FWD[2,0]:   0001d514,0001d51c
ram:0001b778    1868            ldr         param_1,[r3,#0x0]=>DAT_0001d514         ;= 30DAEA50h
                                                                                    ;= F3154F60h
                                                          ; FWD[2,0]:   0001d518,0001d520
ram:0001b77a    5968            ldr         r1,[r3,#0x4]=>DAT_0001d518              ;= 9FB88388h
                                                                                    ;= 8EC90000h
ram:0001b77c    1446            mov         r4,r2                                   
ram:0001b77e    03c4            stmia       r4!=>local_28,{param_1,r1}              
ram:0001b780    0833            adds        r3,#0x8                                 
ram:0001b782    bb42            cmp         r3,r7                                   
ram:0001b784    2246            mov         r2,r4                                   
ram:0001b786    f7d1            bne         LAB_0001b778                            
ram:0001b788    2eb3            cbz         r6,LAB_0001b7d6                         
ram:0001b78a    154b            ldr         r3,[DAT_0001b7e0]                       ;= 20001F60h
ram:0001b78c    4ff6ff72        movw        r2,#0xffff                              
ram:0001b790    9a80            strh        r2,[r3,#0x4]=>DAT_20001f64              
ram:0001b792    3268            ldr         r2,[r6,#0x0]                            
ram:0001b794    5a61            str         r2,[r3,#0x14]=>DAT_20001f74             
ram:0001b796    0021            movs        r1,#0x0                                 
ram:0001b798    5976            strb        r1,[r3,#0x19]=>DAT_20001f79             
ram:0001b79a    1976            strb        r1,[r3,#0x18]=>DAT_20001f78             
ram:0001b79c    0ab9            cbnz        r2,LAB_0001b7a2                         
ram:0001b79e    114a            ldr         r2=>LAB_0001b5f4...,[PTR_LAB_0001b5f4...;= 0001b5f5
ram:0001b7a0    5a61            str         r2=>LAB_0001b5f4...,[r3,#0x14]=>DAT_2...
                            LAB_0001b7a2:                 ;XREF[1,0]:   0001b79c
ram:0001b7a2    0f48            ldr         param_1,[DAT_0001b7e0]                  ;= 20001F60h
ram:0001b7a4    00f054f8        bl          FUN_0001b850                            ;undefined4 FUN_0001b850(int param_1)
ram:0001b7a8    98b9            cbnz        param_1,LAB_0001b7d2                    
ram:0001b7aa    06a9            add         r1,sp,#0x18                             
ram:0001b7ac    4ff65963        movw        r3,#0xfe59                              
ram:0001b7b0    0120            movs        param_1,#0x1                            
ram:0001b7b2    21f8143d        strh        r3,[r1,#-0x14]!=>local_2c               
ram:0001b7b6    0c4a            ldr         r2,[DAT_0001b7e8]                       ;= 20001F62h
ram:0001b7b8    8df80600        strb.w      param_1,[sp,#local_2a+0x30]             
ram:0001b7bc    fff70eff        bl          FUN_0001b5dc                            ;undefined FUN_0001b5dc(void)
ram:0001b7c0    38b9            cbnz        param_1,LAB_0001b7d2                    
ram:0001b7c2    0749            ldr         r1,[DAT_0001b7e0]                       ;= 20001F60h
ram:0001b7c4    2846            mov         param_1,r5                              
ram:0001b7c6    fff70fff        bl          FUN_0001b5e8                            ;undefined FUN_0001b5e8(void)
ram:0001b7ca    10b9            cbnz        param_1,LAB_0001b7d2                    
ram:0001b7cc    0448            ldr         param_1,[DAT_0001b7e0]                  ;= 20001F60h
ram:0001b7ce    00f059f8        bl          FUN_0001b884                            ;undefined FUN_0001b884(undefined * p...
                            LAB_0001b7d2:                 ;XREF[4,0]:   0001b7a8,0001b7c0,0001b7ca,0001b7d8
ram:0001b7d2    07b0            add         sp,#0x1c                                
ram:0001b7d4    f0bd            pop         {r4,r5,r6,r7,pc}                        
                            LAB_0001b7d6:                 ;XREF[1,0]:   0001b788
ram:0001b7d6    0e20            movs        param_1,#0xe                            
ram:0001b7d8    fbe7            b           LAB_0001b7d2                            
ram:0001b7da    00bf            nop                                                  
                            PTR_DAT_0001b7dc:             ;XREF[1,0]:   0001b76a
ram:0001b7dc    14d50100        addr        DAT_0001d514                            ;= 30DAEA50h
                            DAT_0001b7e0:                 ;XREF[4,0]:   0001b78a,0001b7a2,0001b7c2,0001b7cc
ram:0001b7e0    601f0020        undefined4  20001F60h                               
                            PTR_LAB_0001b5f4+1+1_0001b7e4:;XREF[1,0]:   0001b79e
ram:0001b7e4    f5b50100        addr        LAB_0001b5f4+1+1                        
                            DAT_0001b7e8:                 ;XREF[1,0]:   0001b7b6
ram:0001b7e8    621f0020        undefined4  20001F62h                               
                            ;************************************************************************************************
                            ;*                                           FUNCTION                                           *
                            ;************************************************************************************************
                            ;undefined FUN_0001b7ec(void)
                                                          ;XREF[1,0]:   0001b86e
ram:0001b7ec    4ff0030c        mov.w       r12,#0x3                                
ram:0001b7f0    00df            svc         0x0                                     
ram:0001b7f2    7047            bx          lr                                      
                            ;************************************************************************************************
                            ;*                                           FUNCTION                                           *
                            ;************************************************************************************************
                            ;undefined FUN_0001b7f4(undefined4 param_1)
          ;param_1       undefined4          r0                      
                                                          ;XREF[0,1]:   0001d61c
ram:0001b7f4    10b5            push        {r4,lr}                                 
ram:0001b7f6    1449            ldr         r1,[DAT_0001b848]                       ;= 20001F9Ch
ram:0001b7f8    0b68            ldr         r3,[r1,#0x0]=>DAT_20001f9c              
ram:0001b7fa    23b3            cbz         r3,LAB_0001b846                         
ram:0001b7fc    4b68            ldr         r3,[r1,#0x4]=>DAT_20001fa0              
ram:0001b7fe    f3b9            cbnz        r3,LAB_0001b83e                         
ram:0001b800    10bd            pop         {r4,pc}                                 
                            LAB_0001b802:                 ;XREF[1,0]:   0001b844
ram:0001b802    124c            ldr         r4,[DAT_0001b84c]                       ;= 20001F98h
ram:0001b804    2368            ldr         r3,[r4,#0x0]=>DAT_20001f98              
ram:0001b806    58b9            cbnz        param_1,LAB_0001b820                    
ram:0001b808    9876            strb        param_1,[r3,#0x1a]                      
ram:0001b80a    0121            movs        r1,#0x1                                 
ram:0001b80c    0220            movs        param_1,#0x2                            
ram:0001b80e    fff763ff        bl          FUN_0001b6d8                            ;int FUN_0001b6d8(undefined param_1, ...
ram:0001b812    c0b1            cbz         param_1,LAB_0001b846                    
ram:0001b814    2368            ldr         r3,[r4,#0x0]=>DAT_20001f98              
ram:0001b816    5b69            ldr         r3,[r3,#0x14]                           
ram:0001b818    0320            movs        param_1,#0x3                            
                            LAB_0001b81a:                 ;XREF[1,0]:   0001b83c
ram:0001b81a    bde81040        pop.w       {r4,lr}                                 
ram:0001b81e    1847            bx          r3                                      
                            LAB_0001b820:                 ;XREF[1,0]:   0001b806
ram:0001b820    0022            movs        r2,#0x0                                 
ram:0001b822    9a76            strb        r2,[r3,#0x1a]                           
ram:0001b824    0621            movs        r1,#0x6                                 
ram:0001b826    0220            movs        param_1,#0x2                            
ram:0001b828    fff756ff        bl          FUN_0001b6d8                            ;int FUN_0001b6d8(undefined param_1, ...
ram:0001b82c    18b1            cbz         param_1,LAB_0001b836                    
ram:0001b82e    2368            ldr         r3,[r4,#0x0]=>DAT_20001f98              
ram:0001b830    0320            movs        param_1,#0x3                            
ram:0001b832    5b69            ldr         r3,[r3,#0x14]                           
ram:0001b834    9847            blx         r3                                      
                            LAB_0001b836:                 ;XREF[1,0]:   0001b82c
ram:0001b836    2368            ldr         r3,[r4,#0x0]=>DAT_20001f98              
ram:0001b838    0220            movs        param_1,#0x2                            
ram:0001b83a    5b69            ldr         r3,[r3,#0x14]                           
ram:0001b83c    ede7            b           LAB_0001b81a                            
                            LAB_0001b83e:                 ;XREF[1,0]:   0001b7fe
ram:0001b83e    0831            adds        r1,#0x8                                 
ram:0001b840    9847            blx         r3                                      
ram:0001b842    0828            cmp         param_1,#0x8                            
ram:0001b844    ddd1            bne         LAB_0001b802                            
                            LAB_0001b846:                 ;XREF[2,0]:   0001b7fa,0001b812
ram:0001b846    10bd            pop         {r4,pc}                                 
                            DAT_0001b848:                 ;XREF[1,0]:   0001b7f6
ram:0001b848    9c1f0020        undefined4  20001F9Ch                               
                            DAT_0001b84c:                 ;XREF[1,0]:   0001b802
ram:0001b84c    981f0020        undefined4  20001F98h                               
                            ;************************************************************************************************
                            ;*                                           FUNCTION                                           *
                            ;************************************************************************************************
                            ;undefined4 FUN_0001b850(int param_1)
          ;param_1       int                 r0                      
                                                          ;XREF[1,0]:   0001b7a4
ram:0001b850    18b1            cbz         param_1,LAB_0001b85a                    
ram:0001b852    034b            ldr         r3,[DAT_0001b860]                       ;= 20001F98h
ram:0001b854    1860            str         param_1,[r3,#0x0]=>DAT_20001f98         
ram:0001b856    0020            movs        param_1,#0x0                            
ram:0001b858    7047            bx          lr                                      
                            LAB_0001b85a:                 ;XREF[1,0]:   0001b850
ram:0001b85a    0e20            movs        param_1,#0xe                            
ram:0001b85c    7047            bx          lr                                      
ram:0001b85e    00bf            nop                                                  
                            DAT_0001b860:                 ;XREF[1,0]:   0001b852
ram:0001b860    981f0020        undefined4  20001F98h                               
                            ;************************************************************************************************
                            ;*                                           FUNCTION                                           *
                            ;************************************************************************************************
                            ;undefined * FUN_0001b864(void)
                                                          ;XREF[1,0]:   0001c2ea
ram:0001b864    08b5            push        {r3,lr}                                 
ram:0001b866    fef71bf9        bl          FUN_00019aa0                            ;undefined4 FUN_00019aa0(void)
ram:0001b86a    38b9            cbnz        r0,LAB_0001b87c                         
ram:0001b86c    0448            ldr         r0=>DAT_20001f9c,[DAT_0001b880]         ;= 20001F9Ch
ram:0001b86e    fff7bdff        bl          FUN_0001b7ec                            ;undefined FUN_0001b7ec(void)
ram:0001b872    18b9            cbnz        r0,LAB_0001b87c                         
ram:0001b874    bde80840        pop.w       {r3,lr}                                 
ram:0001b878    fef722b9        b.w         FUN_00019ac0                            ;undefined FUN_00019ac0(void)
                            LAB_0001b87c:                 ;XREF[2,0]:   0001b86a,0001b872
ram:0001b87c    08bd            pop         {r3,pc}                                 
ram:0001b87e    00bf            nop                                                  
                            DAT_0001b880:                 ;XREF[1,0]:   0001b86c
ram:0001b880    9c1f0020        undefined4  20001F9Ch                               
                            ;************************************************************************************************
                            ;*                                           FUNCTION                                           *
                            ;************************************************************************************************
                            ;undefined FUN_0001b884(undefined * param_1)
          ;param_1       undefined *         r0                      
          ;local_15      undefined1         -15                      ;XREF[1,0]:   0001b8c4
          ;local_16      undefined1         -16                      ;XREF[1,0]:   0001b8c8
          ;local_17      undefined1         -17                      ;XREF[1,0]:   0001b8cc
          ;local_18      undefined1         -18                      ;XREF[1,0]:   0001b8bc
          ;local_1b      undefined1         -1b                      ;XREF[2,0]:   0001b8a4,0001b8b0
          ;local_1c      undefined1         -1c                      ;XREF[1,0]:   0001b8c0
          ;local_24      undefined2         -24                      ;XREF[1,0]:   0001b8b4
          ;local_26      undefined1         -26                      ;XREF[1,0]:   0001b8a0
          ;local_28      undefined2         -28                      ;XREF[1,0]:   0001b898
                                                          ;XREF[1,0]:   0001b7ce
ram:0001b884    10b5            push        {r4,lr}                                 
ram:0001b886    88b0            sub         sp,#0x20                                
ram:0001b888    0446            mov         r4,param_1                              
ram:0001b88a    2022            movs        r2,#0x20                                
ram:0001b88c    0021            movs        r1,#0x0                                 
ram:0001b88e    6846            mov         param_1,sp                              
ram:0001b890    00f0a3fe        bl          FUN_0001c5da                            ;undefined FUN_0001c5da(undefined * p...
ram:0001b894    2246            mov         r2,r4                                   
ram:0001b896    0323            movs        r3,#0x3                                 
ram:0001b898    adf80030        strh.w      r3,[sp,#0x0]=>local_28                  
ram:0001b89c    12f8063b        ldrb.w      r3,[r2],#0x6                            
ram:0001b8a0    8df80230        strb.w      r3,[sp,#local_26+0x28]                  
ram:0001b8a4    9df80d30        ldrb.w      r3,[sp,#local_1b+0x28]                  
ram:0001b8a8    6088            ldrh        param_1,[r4,#0x2]                       
ram:0001b8aa    43f02803        orr         r3,r3,#0x28                             
ram:0001b8ae    1721            movs        r1,#0x17                                
ram:0001b8b0    8df80d30        strb.w      r3,[sp,#local_1b+0x28]                  
ram:0001b8b4    adf80410        strh.w      r1,[sp,#local_24+0x28]                  
ram:0001b8b8    0123            movs        r3,#0x1                                 
ram:0001b8ba    6946            mov         r1,sp                                   
ram:0001b8bc    8df81030        strb.w      r3,[sp,#local_18+0x28]                  
ram:0001b8c0    8df80c30        strb.w      r3,[sp,#local_1c+0x28]                  
ram:0001b8c4    8df81330        strb.w      r3,[sp,#local_15+0x28]                  
ram:0001b8c8    8df81230        strb.w      r3,[sp,#local_16+0x28]                  
ram:0001b8cc    8df81130        strb.w      r3,[sp,#local_17+0x28]                  
ram:0001b8d0    fff78cfb        bl          FUN_0001afec                            ;undefined FUN_0001afec(undefined4 pa...
ram:0001b8d4    08b0            add         sp,#0x20                                
ram:0001b8d6    10bd            pop         {r4,pc}                                 
                            ;************************************************************************************************
                            ;*                                           FUNCTION                                           *
                            ;************************************************************************************************
                            ;undefined FUN_0001b8d8(int param_1)
          ;param_1       int                 r0                      
                                                          ;XREF[1,0]:   0001b6ae
ram:0001b8d8    70b5            push        {r4,r5,r6,lr}                           
ram:0001b8da    0546            mov         r5,param_1                              
ram:0001b8dc    007b            ldrb        param_1,[param_1,#0xc]                  
ram:0001b8de    244c            ldr         r4,[DAT_0001b970]                       ;= 20001F98h
ram:0001b8e0    0128            cmp         param_1,#0x1                            
ram:0001b8e2    0ed0            beq         LAB_0001b902                            
ram:0001b8e4    0228            cmp         param_1,#0x2                            
ram:0001b8e6    24d0            beq         LAB_0001b932                            
ram:0001b8e8    0221            movs        r1,#0x2                                 
                            LAB_0001b8ea:                 ;XREF[3,0]:   0001b930,0001b966,0001b96a
ram:0001b8ea    287b            ldrb        param_1,[r5,#0xc]                       
ram:0001b8ec    fff7f4fe        bl          FUN_0001b6d8                            ;int FUN_0001b6d8(undefined param_1, ...
ram:0001b8f0    18b1            cbz         param_1,LAB_0001b8fa                    
ram:0001b8f2    2368            ldr         r3,[r4,#0x0]=>DAT_20001f98              
ram:0001b8f4    0320            movs        param_1,#0x3                            
ram:0001b8f6    5b69            ldr         r3,[r3,#0x14]                           
ram:0001b8f8    9847            blx         r3                                      
                            LAB_0001b8fa:                 ;XREF[1,0]:   0001b8f0
ram:0001b8fa    2368            ldr         r3,[r4,#0x0]=>DAT_20001f98              
ram:0001b8fc    0220            movs        param_1,#0x2                            
ram:0001b8fe    5b69            ldr         r3,[r3,#0x14]                           
ram:0001b900    09e0            b           LAB_0001b916                            
                            LAB_0001b902:                 ;XREF[1,0]:   0001b8e2
ram:0001b902    2368            ldr         r3,[r4,#0x0]=>DAT_20001f98              
ram:0001b904    9e7e            ldrb        r6,[r3,#0x1a]                           
ram:0001b906    4eb1            cbz         r6,LAB_0001b91c                         
ram:0001b908    0621            movs        r1,#0x6                                 
ram:0001b90a    fff7e5fe        bl          FUN_0001b6d8                            ;int FUN_0001b6d8(undefined param_1, ...
ram:0001b90e    68b3            cbz         param_1,LAB_0001b96c                    
ram:0001b910    2368            ldr         r3,[r4,#0x0]=>DAT_20001f98              
ram:0001b912    5b69            ldr         r3,[r3,#0x14]                           
ram:0001b914    0320            movs        param_1,#0x3                            
                            LAB_0001b916:                 ;XREF[1,0]:   0001b900
ram:0001b916    bde87040        pop.w       {r4,r5,r6,lr}                           
ram:0001b91a    1847            bx          r3                                      
                            LAB_0001b91c:                 ;XREF[1,0]:   0001b906
ram:0001b91c    5876            strb        param_1,[r3,#0x19]                      
ram:0001b91e    0146            mov         r1,param_1                              
ram:0001b920    fff7dafe        bl          FUN_0001b6d8                            ;int FUN_0001b6d8(undefined param_1, ...
ram:0001b924    10b3            cbz         param_1,LAB_0001b96c                    
ram:0001b926    2368            ldr         r3,[r4,#0x0]=>DAT_20001f98              
ram:0001b928    1128            cmp         param_1,#0x11                           
ram:0001b92a    5e76            strb        r6,[r3,#0x19]                           
ram:0001b92c    1cd1            bne         LAB_0001b968                            
ram:0001b92e    0621            movs        r1,#0x6                                 
ram:0001b930    dbe7            b           LAB_0001b8ea                            
                            LAB_0001b932:                 ;XREF[1,0]:   0001b8e6
ram:0001b932    6a7b            ldrb        r2,[r5,#0xd]                            
ram:0001b934    531e            subs        r3,r2,#0x1                              
ram:0001b936    132b            cmp         r3,#0x13                                
ram:0001b938    14d8            bhi         LAB_0001b964                            
ram:0001b93a    0e4e            ldr         r6,[DAT_0001b974]                       ;= 20001F7Ch
ram:0001b93c    05f10e01        add.w       r1,r5,#0xe                              
ram:0001b940    301d            adds        param_1,r6,#0x4                         
ram:0001b942    00f03ffe        bl          FUN_0001c5c4                            ;undefined FUN_0001c5c4(int param_1, ...
ram:0001b946    6b7b            ldrb        r3,[r5,#0xd]                            
ram:0001b948    b361            str         r3,[r6,#0x18]=>DAT_20001f94             
ram:0001b94a    2368            ldr         r3,[r4,#0x0]=>DAT_20001f98              
ram:0001b94c    9b7e            ldrb        r3,[r3,#0x1a]                           
ram:0001b94e    5bb9            cbnz        r3,LAB_0001b968                         
ram:0001b950    0949            ldr         r1,[DAT_0001b978]                       ;= 20001F9Ch
ram:0001b952    3046            mov         param_1,r6                              
ram:0001b954    51f8083b        ldr.w       r3,[r1],#0x8=>DAT_20001f9c              
ram:0001b958    9847            blx         r3                                      
ram:0001b95a    28b9            cbnz        param_1,LAB_0001b968                    
ram:0001b95c    2368            ldr         r3,[r4,#0x0]=>DAT_20001f98              
ram:0001b95e    0122            movs        r2,#0x1                                 
ram:0001b960    9a76            strb        r2,[r3,#0x1a]                           
ram:0001b962    70bd            pop         {r4,r5,r6,pc}                           
                            LAB_0001b964:                 ;XREF[1,0]:   0001b938
ram:0001b964    0521            movs        r1,#0x5                                 
ram:0001b966    c0e7            b           LAB_0001b8ea                            
                            LAB_0001b968:                 ;XREF[3,0]:   0001b92c,0001b94e,0001b95a
ram:0001b968    0421            movs        r1,#0x4                                 
ram:0001b96a    bee7            b           LAB_0001b8ea                            
                            LAB_0001b96c:                 ;XREF[2,0]:   0001b90e,0001b924
ram:0001b96c    70bd            pop         {r4,r5,r6,pc}                           
ram:0001b96e    00bf            nop                                                  
                            DAT_0001b970:                 ;XREF[1,0]:   0001b8de
ram:0001b970    981f0020        undefined4  20001F98h                               
                            DAT_0001b974:                 ;XREF[1,0]:   0001b93a
ram:0001b974    7c1f0020        undefined4  20001F7Ch                               
                            DAT_0001b978:                 ;XREF[1,0]:   0001b950
ram:0001b978    9c1f0020        undefined4  20001F9Ch                               
                            ;************************************************************************************************
                            ;*                                           FUNCTION                                           *
                            ;************************************************************************************************
                            ;int FUN_0001b97c(void)
                                                          ;XREF[1,0]:   0001b62a
ram:0001b97c    08b5            push        {r3,lr}                                 
ram:0001b97e    044b            ldr         r3,[DAT_0001b990]                       ;= 20001F98h
ram:0001b980    1b68            ldr         r3,[r3,#0x0]=>DAT_20001f98              
ram:0001b982    0020            movs        r0,#0x0                                 
ram:0001b984    5b69            ldr         r3,[r3,#0x14]                           
ram:0001b986    9847            blx         r3                                      
ram:0001b988    bde80840        pop.w       {r3,lr}                                 
ram:0001b98c    fff7d4be        b.w         FUN_0001b738                            ;int FUN_0001b738(void)
                            DAT_0001b990:                 ;XREF[1,0]:   0001b97e
ram:0001b990    981f0020        undefined4  20001F98h                               
                            ;************************************************************************************************
                            ;*                                           FUNCTION                                           *
                            ;************************************************************************************************
                            ;undefined FUN_0001b994(void)
                                                          ;XREF[1,0]:   0001ba5e
ram:0001b994    10df            svc         0x10                                    
ram:0001b996    7047            bx          lr                                      
                            ;************************************************************************************************
                            ;*                                           FUNCTION                                           *
                            ;************************************************************************************************
                            ;undefined4 FUN_0001b998(int * param_1, undefined * * param_2)
          ;param_1       int *               r0                      
          ;param_2       undefined * *       r1                      
          ;local_c       undefined4          -c                      ;XREF[1,0]:   0001b9a4
                                                          ;XREF[1,0]:   0001ba3c
ram:0001b998    13b5            push        {param_1,param_2,r4,lr}                 
ram:0001b99a    0446            mov         r4,param_1                              
ram:0001b99c    0949            ldr         param_2=>PTR_PTR...,[PTR_PTR_0001b9c4]  ;= 0001d630
                                                                                    ;= 0001d528
ram:0001b99e    6846            mov         param_1,sp                              
ram:0001b9a0    fef766f8        bl          FUN_00019a70                            ;undefined FUN_00019a70(int * * param...
                            LAB_0001b9a4:                 ;XREF[1,0]:   0001b9bc
ram:0001b9a4    0198            ldr         param_1,[sp,#local_c+0x10]              
ram:0001b9a6    08b9            cbnz        param_1,LAB_0001b9ac                    
                            LAB_0001b9a8:                 ;XREF[1,0]:   0001b9c0
ram:0001b9a8    02b0            add         sp,#0x8                                 
ram:0001b9aa    10bd            pop         {r4,pc}                                 
                            LAB_0001b9ac:                 ;XREF[1,0]:   0001b9a6
ram:0001b9ac    0368            ldr         r3,[param_1,#0x0]                       
ram:0001b9ae    4168            ldr         param_2,[param_1,#0x4]                  
ram:0001b9b0    2046            mov         param_1,r4                              
ram:0001b9b2    9847            blx         r3                                      
ram:0001b9b4    18b1            cbz         param_1,LAB_0001b9be                    
ram:0001b9b6    6846            mov         param_1,sp                              
ram:0001b9b8    fef763f8        bl          FUN_00019a82                            ;undefined FUN_00019a82(int * param_1)
ram:0001b9bc    f2e7            b           LAB_0001b9a4                            
                            LAB_0001b9be:                 ;XREF[1,0]:   0001b9b4
ram:0001b9be    1120            movs        param_1,#0x11                           
ram:0001b9c0    f2e7            b           LAB_0001b9a8                            
ram:0001b9c2    00bf            nop                                                  
                            PTR_PTR_0001b9c4:             ;XREF[1,0]:   0001b99c
ram:0001b9c4    28d50100        addr        PTR_PTR_LAB_0001beec+1+1_0001d528       ;= 0001d630
                            ;************************************************************************************************
                            ;*                                           FUNCTION                                           *
                            ;************************************************************************************************
                            ;undefined FUN_0001b9c8(int * param_1, undefined * * param_2)
          ;param_1       int *               r0                      
          ;param_2       undefined * *       r1                      
          ;local_c       undefined4          -c                      ;XREF[1,0]:   0001b9d4
                                                          ;XREF[2,0]:   0001ba46,0001ba82
ram:0001b9c8    13b5            push        {param_1,param_2,r4,lr}                 
ram:0001b9ca    0446            mov         r4,param_1                              
ram:0001b9cc    0749            ldr         param_2=>PTR_PTR...,[PTR_PTR_0001b9ec]  ;= 0001d630
                                                                                    ;= 0001d540
ram:0001b9ce    6846            mov         param_1,sp                              
ram:0001b9d0    fef74ef8        bl          FUN_00019a70                            ;undefined FUN_00019a70(int * * param...
                            LAB_0001b9d4:                 ;XREF[1,0]:   0001b9ea
ram:0001b9d4    019b            ldr         r3,[sp,#local_c+0x10]                   
ram:0001b9d6    0bb9            cbnz        r3,LAB_0001b9dc                         
ram:0001b9d8    02b0            add         sp,#0x8                                 
ram:0001b9da    10bd            pop         {r4,pc}                                 
                            LAB_0001b9dc:                 ;XREF[1,0]:   0001b9d6
ram:0001b9dc    2046            mov         param_1,r4                              
ram:0001b9de    1a68            ldr         r2,[r3,#0x0]                            
ram:0001b9e0    5968            ldr         param_2,[r3,#0x4]                       
ram:0001b9e2    9047            blx         r2                                      
ram:0001b9e4    6846            mov         param_1,sp                              
ram:0001b9e6    fef74cf8        bl          FUN_00019a82                            ;undefined FUN_00019a82(int * param_1)
ram:0001b9ea    f3e7            b           LAB_0001b9d4                            
                            PTR_PTR_0001b9ec:             ;XREF[1,0]:   0001b9cc
ram:0001b9ec    40d50100        addr        PTR_PTR_LAB_0001beec+1+1_0001d540       ;= 0001d630
                            ;************************************************************************************************
                            ;*                                           FUNCTION                                           *
                            ;************************************************************************************************
                            ;undefined FUN_0001b9f0(void)
                                                          ;XREF[1,0]:   0001ba7c
ram:0001b9f0    0c49            ldr         r1,[DAT_0001ba24]                       ;= E000E100h
ram:0001b9f2    91f81633        ldrb.w      r3,[r1,#0x316]=>DAT_e000e416            
ram:0001b9f6    5a09            lsrs        r2,r3,#0x5                              
ram:0001b9f8    ec23            movs        r3,#0xec                                
ram:0001b9fa    1341            asrs        r3,r2                                   
ram:0001b9fc    db07            lsls        r3,r3,#0x1f                             
ram:0001b9fe    08d4            bmi         LAB_0001ba12                            
ram:0001ba00    42f20200        movw        r0,#0x2002                              
ram:0001ba04    fdf78abc        b.w         FUN_0001931c                            ;undefined FUN_0001931c(void)
                            LAB_0001ba08:                 ;XREF[1,0]:   0001ba18
ram:0001ba08    1a68            ldr         r2,[r3,#0x0]=>DAT_200020e0              
ram:0001ba0a    42f48002        orr         r2,r2,#0x400000                         
ram:0001ba0e    1a60            str         r2,[r3,#0x0]=>DAT_200020e0              
ram:0001ba10    7047            bx          lr                                      
                            LAB_0001ba12:                 ;XREF[1,0]:   0001b9fe
ram:0001ba12    054b            ldr         r3,[DAT_0001ba28]                       ;= 200020E0h
ram:0001ba14    9a68            ldr         r2,[r3,#0x8]=>DAT_200020e8              
ram:0001ba16    002a            cmp         r2,#0x0                                 
ram:0001ba18    f6d1            bne         LAB_0001ba08                            
ram:0001ba1a    4ff48003        mov.w       r3,#0x400000                            
ram:0001ba1e    0b60            str         r3,[r1,#0x0]=>DAT_e000e100              
ram:0001ba20    7047            bx          lr                                      
ram:0001ba22    00bf            nop                                                  
                            DAT_0001ba24:                 ;XREF[1,0]:   0001b9f0
ram:0001ba24    00e100e0        undefined4  E000E100h                               
                            DAT_0001ba28:                 ;XREF[1,0]:   0001ba12
ram:0001ba28    e0200020        undefined4  200020E0h                               
                            ;************************************************************************************************
                            ;*                                           FUNCTION                                           *
                            ;************************************************************************************************
                            ;uint FUN_0001ba2c(uint param_1, undefined * * param_2, undefined4 param_3)
          ;param_1       uint                r0                      
          ;param_2       undefined * *       r1                      
          ;param_3       undefined4          r2                      
          ;local_1c      undefined4         -1c                      ;XREF[1,0]:   0001ba4e
          ;local_1d      undefined1         -1d                      ;XREF[2,0]:   0001ba52,0001ba6c
                                                          ;XREF[1,0]:   0001c308
ram:0001ba2c    f7b5            push        {param_1,param_2,param_3,r4,r5,r6,r7,lr}
ram:0001ba2e    184f            ldr         r7,[DAT_0001ba90]                       ;= 20001FA9h
ram:0001ba30    3c78            ldrb        r4,[r7,#0x0]=>DAT_20001fa9              
ram:0001ba32    5cbb            cbnz        r4,LAB_0001ba8c                         
ram:0001ba34    174e            ldr         r6,[DAT_0001ba94]                       ;= 20001FA8h
ram:0001ba36    0125            movs        r5,#0x1                                 
ram:0001ba38    2046            mov         param_1,r4                              
ram:0001ba3a    3570            strb        r5,[r6,#0x0]=>DAT_20001fa8              
ram:0001ba3c    fff7acff        bl          FUN_0001b998                            ;undefined4 FUN_0001b998(int * param_...
ram:0001ba40    1128            cmp         param_1,#0x11                           
ram:0001ba42    20d0            beq         LAB_0001ba86                            
ram:0001ba44    2046            mov         param_1,r4                              
ram:0001ba46    fff7bfff        bl          FUN_0001b9c8                            ;undefined FUN_0001b9c8(int * param_1...
ram:0001ba4a    134b            ldr         r3=>DAT_0001d524,[PTR_DAT_0001ba98]     ;= 07000001h
                                                                                    ;= 0001d524
ram:0001ba4c    1868            ldr         param_1,[r3,#0x0]=>DAT_0001d524         ;= 07000001h
ram:0001ba4e    0190            str         param_1,[sp,#local_1c+0x20]             
ram:0001ba50    02a8            add         param_1,sp,#0x8                         
ram:0001ba52    00f8054d        strb.w      r4,[param_1,#-0x5]!=>local_1d           
ram:0001ba56    fdf715ff        bl          FUN_00019884                            ;undefined FUN_00019884(undefined * p...
ram:0001ba5a    1049            ldr         param_2,[PTR_FUN_0001c00c+1_0001ba9c]   ;= 0001c00d
ram:0001ba5c    01a8            add         param_1,sp,#0x4                         
ram:0001ba5e    fff799ff        bl          FUN_0001b994                            ;undefined FUN_0001b994(void)
ram:0001ba62    0446            mov         r4,param_1                              
ram:0001ba64    b0fa80f0        clz         param_1,param_1                         
ram:0001ba68    4009            lsrs        param_1,param_1,#0x5                    
ram:0001ba6a    3870            strb        param_1,[r7,#0x0]=>DAT_20001fa9         
ram:0001ba6c    9df80300        ldrb.w      param_1,[sp,#local_1d+0x20]             
ram:0001ba70    fdf72cff        bl          FUN_000198cc                            ;undefined FUN_000198cc(int param_1)
ram:0001ba74    3cb9            cbnz        r4,LAB_0001ba86                         
ram:0001ba76    0a4b            ldr         r3=>DAT_20001faa,[DAT_0001baa0]         ;= 20001FAAh
ram:0001ba78    3470            strb        r4,[r6,#0x0]=>DAT_20001fa8              
ram:0001ba7a    1c70            strb        r4,[r3,#0x0]=>DAT_20001faa              
ram:0001ba7c    fff7b8ff        bl          FUN_0001b9f0                            ;undefined FUN_0001b9f0(void)
ram:0001ba80    2846            mov         param_1,r5                              
ram:0001ba82    fff7a1ff        bl          FUN_0001b9c8                            ;undefined FUN_0001b9c8(int * param_1...
                            LAB_0001ba86:                 ;XREF[3,0]:   0001ba42,0001ba74,0001ba8e
ram:0001ba86    2046            mov         param_1,r4                              
ram:0001ba88    03b0            add         sp,#0xc                                 
ram:0001ba8a    f0bd            pop         {r4,r5,r6,r7,pc}                        
                            LAB_0001ba8c:                 ;XREF[1,0]:   0001ba32
ram:0001ba8c    0824            movs        r4,#0x8                                 
ram:0001ba8e    fae7            b           LAB_0001ba86                            
                            DAT_0001ba90:                 ;XREF[1,0]:   0001ba2e
ram:0001ba90    a91f0020        undefined4  20001FA9h                               
                            DAT_0001ba94:                 ;XREF[1,0]:   0001ba34
ram:0001ba94    a81f0020        undefined4  20001FA8h                               
                            PTR_DAT_0001ba98:             ;XREF[1,0]:   0001ba4a
ram:0001ba98    24d50100        addr        DAT_0001d524                            ;= 07000001h
                            PTR_FUN_0001c00c+1_0001ba9c:  ;XREF[1,0]:   0001ba5a
ram:0001ba9c    0dc00100        addr        FUN_0001c00c+1                          
                            DAT_0001baa0:                 ;XREF[1,0]:   0001ba76
ram:0001baa0    aa1f0020        undefined4  20001FAAh                               
                            ;************************************************************************************************
                            ;*                                           FUNCTION                                           *
                            ;************************************************************************************************
                            ;undefined FUN_0001baa4(void)
                                                          ;XREF[2,0]:   000199b2,00019a34
ram:0001baa4    014b            ldr         r3,[DAT_0001baac]                       ;= 20001FA9h
ram:0001baa6    1878            ldrb        r0,[r3,#0x0]=>DAT_20001fa9              
ram:0001baa8    7047            bx          lr                                      
ram:0001baaa    00bf            nop                                                  
                            DAT_0001baac:                 ;XREF[1,0]:   0001baa4
ram:0001baac    a91f0020        undefined4  20001FA9h                               
                            ;************************************************************************************************
                            ;*                                           FUNCTION                                           *
                            ;************************************************************************************************
                            ;undefined FUN_0001bab0(int * param_1, undefined * * param_2, undefined4 param_3)
          ;param_1       int *               r0                      
          ;param_2       undefined * *       r1                      
          ;param_3       undefined4          r2                      
          ;local_c       undefined4          -c                      ;XREF[1,0]:   0001baba
                                                          ;XREF[1,0]:   0001bad8
ram:0001bab0    07b5            push        {param_1,param_2,param_3,lr}            
ram:0001bab2    0849            ldr         param_2=>PTR_PTR...,[PTR_PTR_0001bad4]  ;= 0001d638
                                                                                    ;= 0001d534
ram:0001bab4    6846            mov         param_1,sp                              
ram:0001bab6    fdf7dbff        bl          FUN_00019a70                            ;undefined FUN_00019a70(int * * param...
                            LAB_0001baba:                 ;XREF[1,0]:   0001bad0
ram:0001baba    019b            ldr         r3,[sp,#local_c+0x10]                   
ram:0001babc    13b9            cbnz        r3,LAB_0001bac4                         
ram:0001babe    03b0            add         sp,#0xc                                 
ram:0001bac0    5df804fb        pop.w       pc                                      
                            LAB_0001bac4:                 ;XREF[1,0]:   0001babc
ram:0001bac4    5868            ldr         param_1,[r3,#0x4]                       
ram:0001bac6    1a68            ldr         param_3,[r3,#0x0]                       
ram:0001bac8    9047            blx         param_3                                 
ram:0001baca    6846            mov         param_1,sp                              
ram:0001bacc    fdf7d9ff        bl          FUN_00019a82                            ;undefined FUN_00019a82(int * param_1)
ram:0001bad0    f3e7            b           LAB_0001baba                            
ram:0001bad2    00bf            nop                                                  
                            PTR_PTR_0001bad4:             ;XREF[1,0]:   0001bab2
ram:0001bad4    34d50100        addr        PTR_PTR_FUN_0001bae8+1_0001d534         ;= 0001d638
                            ;************************************************************************************************
                            ;*                                           FUNCTION                                           *
                            ;************************************************************************************************
                            ;undefined thunk_FUN_0001bab0(int * param_1, undefined * * param_2, undefined4 param_3)
          ;param_1       int *               r0                      
          ;param_2       undefined * *       r1                      
          ;param_3       undefined4          r2                      
                                                          ;XREF[0,1]:   00019098
ram:0001bad8    fff7eabf        b.w         FUN_0001bab0                            
                            ;************************************************************************************************
                            ;*                                           FUNCTION                                           *
                            ;************************************************************************************************
                            ;undefined FUN_0001badc(void)
                                                          ;XREF[1,0]:   0001bbe6
ram:0001badc    60df            svc         0x60                                    
ram:0001bade    7047            bx          lr                                      
                            ;************************************************************************************************
                            ;*                                           FUNCTION                                           *
                            ;************************************************************************************************
                            ;undefined FUN_0001bae0(void)
                                                          ;XREF[5,0]:   0001bb68,0001bb80,0001bb9a,0001bbb4
                                                          ;             0001bbd2
ram:0001bae0    69df            svc         0x69                                    
ram:0001bae2    7047            bx          lr                                      
                            ;************************************************************************************************
                            ;*                                           FUNCTION                                           *
                            ;************************************************************************************************
                            ;undefined FUN_0001bae4(void)
                                                          ;XREF[1,0]:   0001bb00
ram:0001bae4    61df            svc         0x61                                    
ram:0001bae6    7047            bx          lr                                      
                            ;************************************************************************************************
                            ;*                                           FUNCTION                                           *
                            ;************************************************************************************************
                            ;undefined FUN_0001bae8(void)
          ;local_48      undefined4         -48                      ;XREF[1,0]:   0001bb0e
          ;local_4e      undefined2         -4e                      ;XREF[1,0]:   0001bafc
                                                          ;XREF[0,1]:   0001d638
ram:0001bae8    30b5            push        {r4,r5,lr}                              
ram:0001baea    114b            ldr         r3,[DAT_0001bb30]                       ;= 20001FABh
ram:0001baec    1b78            ldrb        r3,[r3,#0x0]=>DAT_20001fab              
ram:0001baee    91b0            sub         sp,#0x44                                
ram:0001baf0    e3b1            cbz         r3,LAB_0001bb2c                         
ram:0001baf2    104d            ldr         r5,[PTR_PTR_DAT_0001bb34]               ;= 0001d54c
ram:0001baf4    3424            movs        r4,#0x34                                
                            LAB_0001baf6:                 ;XREF[1,0]:   0001bb12
ram:0001baf6    0df10201        add.w       r1,sp,#0x2                              
ram:0001bafa    03a8            add         r0,sp,#0xc                              
ram:0001bafc    adf80240        strh.w      r4,[sp,#local_4e+0x50]                  
ram:0001bb00    fff7f0ff        bl          FUN_0001bae4                            ;undefined FUN_0001bae4(void)
ram:0001bb04    70b9            cbnz        r0,LAB_0001bb24                         
ram:0001bb06    2946            mov         r1=>PTR_DAT_0001d54c,r5                 ;= 0001d5dc
ram:0001bb08    01a8            add         r0,sp,#0x4                              
ram:0001bb0a    fdf7b1ff        bl          FUN_00019a70                            ;undefined FUN_00019a70(int * * param...
                            LAB_0001bb0e:                 ;XREF[1,0]:   0001bb22
ram:0001bb0e    029b            ldr         r3,[sp,#local_48+0x50]                  
ram:0001bb10    002b            cmp         r3,#0x0                                 
ram:0001bb12    f0d0            beq         LAB_0001baf6                            
ram:0001bb14    03a8            add         r0,sp,#0xc                              
ram:0001bb16    1a68            ldr         r2,[r3,#0x0]                            
ram:0001bb18    5968            ldr         r1,[r3,#0x4]                            
ram:0001bb1a    9047            blx         r2                                      
ram:0001bb1c    01a8            add         r0,sp,#0x4                              
ram:0001bb1e    fdf7b0ff        bl          FUN_00019a82                            ;undefined FUN_00019a82(int * param_1)
ram:0001bb22    f4e7            b           LAB_0001bb0e                            
                            LAB_0001bb24:                 ;XREF[1,0]:   0001bb04
ram:0001bb24    0528            cmp         r0,#0x5                                 
ram:0001bb26    01d0            beq         LAB_0001bb2c                            
ram:0001bb28    fdf7f8fb        bl          FUN_0001931c                            ;undefined FUN_0001931c(void)
                            LAB_0001bb2c:                 ;XREF[2,0]:   0001baf0,0001bb26
ram:0001bb2c    11b0            add         sp,#0x44                                
ram:0001bb2e    30bd            pop         {r4,r5,pc}                              
                            DAT_0001bb30:                 ;XREF[1,0]:   0001baea
ram:0001bb30    ab1f0020        undefined4  20001FABh                               
                            PTR_PTR_DAT_0001bb34:         ;XREF[1,0]:   0001baf2
ram:0001bb34    4cd50100        addr        PTR_DAT_0001d54c                        ;= 0001d5dc
                            ;************************************************************************************************
                            ;*                                           FUNCTION                                           *
                            ;************************************************************************************************
                            ;undefined4 FUN_0001bb38(byte param_1, undefined4 * param_2)
          ;param_1       byte                r0                      
          ;param_2       undefined4 *        r1                      
          ;local_18      undefined2         -18                      ;XREF[1,0]:   0001bb5a
          ;local_1c      undefined4         -1c                      ;XREF[5,2]:   0001bb54,0001bb92,0001bbae,0001bbc2,0001bbce
                                                                     ;             0001bb64,0001bb78
                                                          ;XREF[1,0]:   0001c31e
ram:0001bb38    30b5            push        {r4,r5,lr}                              
ram:0001bb3a    0546            mov         r5,param_1                              
ram:0001bb3c    85b0            sub         sp,#0x14                                
ram:0001bb3e    0c46            mov         r4,param_2                              
ram:0001bb40    0029            cmp         param_2,#0x0                            
ram:0001bb42    4bd0            beq         LAB_0001bbdc                            
ram:0001bb44    264b            ldr         r3,[DAT_0001bbe0]                       ;= 20001C18h
ram:0001bb46    0b60            str         r3,[param_2,#0x0]                       
ram:0001bb48    0c22            movs        r2,#0xc                                 
ram:0001bb4a    0021            movs        param_2,#0x0                            
ram:0001bb4c    01a8            add         param_1,sp,#0x4                         
ram:0001bb4e    00f044fd        bl          FUN_0001c5da                            ;undefined FUN_0001c5da(undefined * p...
ram:0001bb52    0623            movs        r3,#0x6                                 
ram:0001bb54    8df80450        strb.w      r5,[sp,#local_1c+0x20]                  
ram:0001bb58    2268            ldr         r2,[r4,#0x0]                            
ram:0001bb5a    adf80830        strh.w      r3,[sp,#local_18+0x20]                  
ram:0001bb5e    0125            movs        r5,#0x1                                 
ram:0001bb60    01a9            add         param_2,sp,#0x4                         
ram:0001bb62    2020            movs        param_1,#0x20                           
ram:0001bb64    8df80650        strb.w      r5,[sp,#local_1c+0x22]                  
ram:0001bb68    fff7baff        bl          FUN_0001bae0                            ;undefined FUN_0001bae0(void)
ram:0001bb6c    0c22            movs        r2,#0xc                                 
ram:0001bb6e    0021            movs        param_2,#0x0                            
ram:0001bb70    01a8            add         param_1,sp,#0x4                         
ram:0001bb72    00f032fd        bl          FUN_0001c5da                            ;undefined FUN_0001c5da(undefined * p...
ram:0001bb76    2268            ldr         r2,[r4,#0x0]                            
ram:0001bb78    8df80550        strb.w      r5,[sp,#local_1c+0x21]                  
ram:0001bb7c    01a9            add         param_2,sp,#0x4                         
ram:0001bb7e    4020            movs        param_1,#0x40                           
ram:0001bb80    fff7aeff        bl          FUN_0001bae0                            ;undefined FUN_0001bae0(void)
ram:0001bb84    0c22            movs        r2,#0xc                                 
ram:0001bb86    0021            movs        param_2,#0x0                            
ram:0001bb88    01a8            add         param_1,sp,#0x4                         
ram:0001bb8a    00f026fd        bl          FUN_0001c5da                            ;undefined FUN_0001c5da(undefined * p...
ram:0001bb8e    0223            movs        r3,#0x2                                 
ram:0001bb90    2268            ldr         r2,[r4,#0x0]                            
ram:0001bb92    8df80430        strb.w      r3,[sp,#local_1c+0x20]                  
ram:0001bb96    01a9            add         param_2,sp,#0x4                         
ram:0001bb98    2846            mov         param_1,r5                              
ram:0001bb9a    fff7a1ff        bl          FUN_0001bae0                            ;undefined FUN_0001bae0(void)
ram:0001bb9e    0c22            movs        r2,#0xc                                 
ram:0001bba0    0021            movs        param_2,#0x0                            
ram:0001bba2    01a8            add         param_1,sp,#0x4                         
ram:0001bba4    00f019fd        bl          FUN_0001c5da                            ;undefined FUN_0001c5da(undefined * p...
ram:0001bba8    4ff4b063        mov.w       r3,#0x580                               
ram:0001bbac    2268            ldr         r2,[r4,#0x0]                            
ram:0001bbae    0193            str         r3,[sp,#local_1c+0x20]                  
ram:0001bbb0    01a9            add         param_2,sp,#0x4                         
ram:0001bbb2    a120            movs        param_1,#0xa1                           
ram:0001bbb4    fff794ff        bl          FUN_0001bae0                            ;undefined FUN_0001bae0(void)
ram:0001bbb8    0c22            movs        r2,#0xc                                 
ram:0001bbba    0021            movs        param_2,#0x0                            
ram:0001bbbc    01a8            add         param_1,sp,#0x4                         
ram:0001bbbe    00f00cfd        bl          FUN_0001c5da                            ;undefined FUN_0001c5da(undefined * p...
ram:0001bbc2    9df80430        ldrb.w      r3,[sp,#local_1c+0x20]                  
ram:0001bbc6    2268            ldr         r2,[r4,#0x0]                            
ram:0001bbc8    2b43            orrs        r3,r5                                   
ram:0001bbca    01a9            add         param_2,sp,#0x4                         
ram:0001bbcc    a020            movs        param_1,#0xa0                           
ram:0001bbce    8df80430        strb.w      r3,[sp,#local_1c+0x20]                  
ram:0001bbd2    fff785ff        bl          FUN_0001bae0                            ;undefined FUN_0001bae0(void)
ram:0001bbd6    0020            movs        param_1,#0x0                            
                            LAB_0001bbd8:                 ;XREF[1,0]:   0001bbde
ram:0001bbd8    05b0            add         sp,#0x14                                
ram:0001bbda    30bd            pop         {r4,r5,pc}                              
                            LAB_0001bbdc:                 ;XREF[1,0]:   0001bb42
ram:0001bbdc    0e20            movs        param_1,#0xe                            
ram:0001bbde    fbe7            b           LAB_0001bbd8                            
                            DAT_0001bbe0:                 ;XREF[1,0]:   0001bb44
ram:0001bbe0    181c0020        undefined4  20001C18h                               
                            ;************************************************************************************************
                            ;*                                           FUNCTION                                           *
                            ;************************************************************************************************
                            ;undefined FUN_0001bbe4(void)
                                                          ;XREF[1,0]:   0001c32a
ram:0001bbe4    08b5            push        {r3,lr}                                 
ram:0001bbe6    fff779ff        bl          FUN_0001badc                            ;undefined FUN_0001badc(void)
ram:0001bbea    10b9            cbnz        r0,LAB_0001bbf2                         
ram:0001bbec    014b            ldr         r3,[DAT_0001bbf4]                       ;= 20001FABh
ram:0001bbee    0122            movs        r2,#0x1                                 
ram:0001bbf0    1a70            strb        r2,[r3,#0x0]=>DAT_20001fab              
                            LAB_0001bbf2:                 ;XREF[1,0]:   0001bbea
ram:0001bbf2    08bd            pop         {r3,pc}                                 
                            DAT_0001bbf4:                 ;XREF[1,0]:   0001bbec
ram:0001bbf4    ab1f0020        undefined4  20001FABh                               
                            ;************************************************************************************************
                            ;*                                           FUNCTION                                           *
                            ;************************************************************************************************
                            ;undefined FUN_0001bc38(void)
                                                          ;XREF[1,0]:   0001bc76
ram:0001bc38    a8df            svc         0xa8                                    
ram:0001bc3a    7047            bx          lr                                      
                            ;************************************************************************************************
                            ;*                                           FUNCTION                                           *
                            ;************************************************************************************************
                            ;undefined FUN_0001bc3c(void)
                                                          ;XREF[1,0]:   0001bd6c
ram:0001bc3c    acdf            svc         0xac                                    
ram:0001bc3e    7047            bx          lr                                      
                            ;************************************************************************************************
                            ;*                                           FUNCTION                                           *
                            ;************************************************************************************************
                            ;undefined FUN_0001bc40(void)
                                                          ;XREF[3,0]:   0001bdd8,0001bde2,0001bdec
ram:0001bc40    aedf            svc         0xae                                    
ram:0001bc42    7047            bx          lr                                      
                            ;************************************************************************************************
                            ;*                                           FUNCTION                                           *
                            ;************************************************************************************************
                            ;int FUN_0001bc44(undefined4 * param_1, undefined4 * param_2)
          ;param_1       undefined4 *        r0                      
          ;param_2       undefined4 *        r1                      
          ;local_25      undefined1         -25                      ;XREF[1,0]:   0001bcbc
          ;local_27      undefined1         -27                      ;XREF[1,0]:   0001bcca
          ;local_2b      undefined1         -2b                      ;XREF[2,0]:   0001bca2,0001bcb6
          ;local_30      undefined4         -30                      ;XREF[1,0]:   0001bca0
          ;local_32      undefined2         -32                      ;XREF[1,0]:   0001bcc4
          ;local_34      undefined2         -34                      ;XREF[1,0]:   0001bca8
          ;local_38      undefined2         -38                      ;XREF[1,0]:   0001bc96
          ;local_3c      undefined4         -3c                      ;XREF[1,0]:   0001bd10
          ;local_3e      undefined2         -3e                      ;XREF[1,0]:   0001bd00
          ;local_42      undefined2         -42                      ;XREF[1,0]:   0001bcfa
          ;local_46      undefined1         -46                      ;XREF[1,0]:   0001bd0c
          ;local_4c      undefined2         -4c                      ;XREF[1,0]:   0001bcf6
          ;local_4e      undefined1         -4e                      ;XREF[1,0]:   0001bc72
          ;local_50      undefined2         -50                      ;XREF[1,0]:   0001bc6c
          ;local_55      undefined1         -55                      ;XREF[1,0]:   0001bc84
                                                          ;XREF[1,0]:   0001c28e
ram:0001bc44    2de9f041        push        {r4,r5,r6,r7,r8,lr}                     
ram:0001bc48    0e46            mov         r6,param_2                              
ram:0001bc4a    90b0            sub         sp,#0x40                                
ram:0001bc4c    0446            mov         r4,param_1                              
ram:0001bc4e    0028            cmp         param_1,#0x0                            
ram:0001bc50    69d0            beq         LAB_0001bd26                            
ram:0001bc52    0029            cmp         param_2,#0x0                            
ram:0001bc54    67d0            beq         LAB_0001bd26                            
ram:0001bc56    0b68            ldr         r3,[param_2,#0x0]                       
ram:0001bc58    0360            str         r3,[param_1,#0x0]                       
ram:0001bc5a    0b79            ldrb        r3,[param_2,#0x4]                       
ram:0001bc5c    4374            strb        r3,[param_1,#0x11]                      
ram:0001bc5e    10a9            add         param_2,sp,#0x40                        
ram:0001bc60    ff23            movs        r3,#0xff                                
ram:0001bc62    0374            strb        r3,[param_1,#0x10]                      
ram:0001bc64    0127            movs        r7,#0x1                                 
ram:0001bc66    41f60f03        movw        r3,#0x180f                              
ram:0001bc6a    021d            adds        r2,param_1,#0x4                         
ram:0001bc6c    21f8383d        strh        r3,[param_2,#-0x38]!=>local_50          
ram:0001bc70    3846            mov         param_1,r7                              
ram:0001bc72    8df80a70        strb.w      r7,[sp,#local_4e+0x58]                  
ram:0001bc76    fff7dfff        bl          FUN_0001bc38                            ;undefined FUN_0001bc38(void)
ram:0001bc7a    0546            mov         r5,param_1                              
ram:0001bc7c    0028            cmp         param_1,#0x0                            
ram:0001bc7e    4cd1            bne         LAB_0001bd1a                            
ram:0001bc80    2022            movs        r2,#0x20                                
ram:0001bc82    337b            ldrb        r3,[r6,#0xc]                            
ram:0001bc84    8df80330        strb.w      r3,[sp,#local_55+0x58]                  
ram:0001bc88    0146            mov         param_2,param_1                         
ram:0001bc8a    0deb0200        add.w       param_1,sp,r2                           
ram:0001bc8e    00f0a4fc        bl          FUN_0001c5da                            ;undefined FUN_0001c5da(undefined * p...
ram:0001bc92    42f61923        movw        r3,#0x2a19                              
ram:0001bc96    adf82030        strh.w      r3,[sp,#local_38+0x58]                  
ram:0001bc9a    0df10303        add.w       r3,sp,#0x3                              
ram:0001bc9e    627c            ldrb        r2,[r4,#0x11]                           
ram:0001bca0    0a93            str         r3,[sp,#local_30+0x58]                  
ram:0001bca2    9df82d30        ldrb.w      r3,[sp,#local_2b+0x58]                  
ram:0001bca6    a088            ldrh        param_1,[r4,#0x4]                       
ram:0001bca8    adf82470        strh.w      r7,[sp,#local_34+0x58]                  
ram:0001bcac    62f30413        bfi         r3,r2,#0x4,#0x1                         
ram:0001bcb0    dbb2            uxtb        r3,r3                                   
ram:0001bcb2    43f00203        orr         r3,r3,#0x2                              
ram:0001bcb6    8df82d30        strb.w      r3,[sp,#local_2b+0x58]                  
ram:0001bcba    b37b            ldrb        r3,[r6,#0xe]                            
ram:0001bcbc    8df83330        strb.w      r3,[sp,#local_25+0x58]                  
ram:0001bcc0    a21d            adds        r2,r4,#0x6                              
ram:0001bcc2    737b            ldrb        r3,[r6,#0xd]                            
ram:0001bcc4    adf82670        strh.w      r7,[sp,#local_32+0x58]                  
ram:0001bcc8    08a9            add         param_2,sp,#0x20                        
ram:0001bcca    8df83130        strb.w      r3,[sp,#local_27+0x58]                  
ram:0001bcce    fff78df9        bl          FUN_0001afec                            ;undefined FUN_0001afec(undefined4 pa...
ram:0001bcd2    0546            mov         r5,param_1                              
ram:0001bcd4    08bb            cbnz        param_1,LAB_0001bd1a                    
ram:0001bcd6    b168            ldr         param_2,[r6,#0x8]                       
ram:0001bcd8    19b3            cbz         param_2,LAB_0001bd22                    
ram:0001bcda    0df10408        add.w       r8,sp,#0x4                              
ram:0001bcde    4046            mov         param_1,r8                              
ram:0001bce0    fff775f9        bl          FUN_0001afce                            ;undefined4 FUN_0001afce(undefined * ...
ram:0001bce4    2946            mov         param_2,r5                              
ram:0001bce6    0746            mov         r7,param_1                              
ram:0001bce8    1422            movs        r2,#0x14                                
ram:0001bcea    03a8            add         param_1,sp,#0xc                         
ram:0001bcec    00f075fc        bl          FUN_0001c5da                            ;undefined FUN_0001c5da(undefined * p...
ram:0001bcf0    b8b2            uxth        param_1,r7                              
ram:0001bcf2    42f60813        movw        r3,#0x2908                              
ram:0001bcf6    adf80c30        strh.w      r3,[sp,#local_4c+0x58]                  
ram:0001bcfa    adf81600        strh.w      param_1,[sp,#local_42+0x58]             
ram:0001bcfe    f37b            ldrb        r3,[r6,#0xf]                            
ram:0001bd00    adf81a00        strh.w      param_1,[sp,#local_3e+0x58]             
ram:0001bd04    04f10e02        add.w       r2,r4,#0xe                              
ram:0001bd08    03a9            add         param_2,sp,#0xc                         
ram:0001bd0a    e088            ldrh        param_1,[r4,#0x6]                       
ram:0001bd0c    8df81230        strb.w      r3,[sp,#local_46+0x58]                  
ram:0001bd10    cdf81c80        str.w       r8,[sp,#local_3c+0x58]                  
ram:0001bd14    fff716fa        bl          FUN_0001b144                            ;undefined FUN_0001b144(undefined4 pa...
ram:0001bd18    0546            mov         r5,param_1                              
                            LAB_0001bd1a:                 ;XREF[4,0]:   0001bc7e,0001bcd4,0001bd24,0001bd28
ram:0001bd1a    2846            mov         param_1,r5                              
ram:0001bd1c    10b0            add         sp,#0x40                                
ram:0001bd1e    bde8f081        pop.w       {r4,r5,r6,r7,r8,pc}                     
                            LAB_0001bd22:                 ;XREF[1,0]:   0001bcd8
ram:0001bd22    e081            strh        param_1,[r4,#0xe]                       
ram:0001bd24    f9e7            b           LAB_0001bd1a                            
                            LAB_0001bd26:                 ;XREF[2,0]:   0001bc50,0001bc54
ram:0001bd26    0e25            movs        r5,#0xe                                 
ram:0001bd28    f7e7            b           LAB_0001bd1a                            
                            ;************************************************************************************************
                            ;*                                           FUNCTION                                           *
                            ;************************************************************************************************
                            ;uint FUN_0001bd2a(int param_1, char param_2, int param_3)
          ;param_1       int                 r0                      
          ;param_2       char                r1                      
          ;param_3       int                 r2                      
          ;local_40      undefined2         -40                      ;XREF[1,0]:   0001bdc4
          ;local_44      undefined4         -44                      ;XREF[1,0]:   0001bdb6
          ;local_48      undefined4         -48                      ;XREF[1,0]:   0001bd9a
          ;local_4c      undefined4         -4c                      ;XREF[1,0]:   0001bda6
          ;local_50      undefined2         -50                      ;XREF[1,0]:   0001bd94
          ;local_52      undefined1         -52                      ;XREF[1,0]:   0001bda2
          ;local_54      undefined2         -54                      ;XREF[1,0]:   0001bd8c
          ;local_58      undefined4         -58                      ;XREF[2,0]:   0001bd6a,0001bd98
          ;local_5a      undefined2         -5a                      ;XREF[2,0]:   0001bd52,0001bd90
          ;local_5c      undefined2         -5c                      ;XREF[1,0]:   0001bd62
          ;local_61      undefined1         -61                      ;XREF[2,0]:   0001bd32,0001bd74
                                                          ;XREF[1,0]:   0001bf80
ram:0001bd2a    2de9f041        push        {r4,r5,r6,r7,r8,lr}                     
ram:0001bd2e    94b0            sub         sp,#0x50                                
ram:0001bd30    1746            mov         r7,param_3                              
ram:0001bd32    8df80710        strb.w      param_2,[sp,#local_61+0x68]             
ram:0001bd36    0546            mov         r5,param_1                              
ram:0001bd38    0028            cmp         param_1,#0x0                            
ram:0001bd3a    5bd0            beq         LAB_0001bdf4                            
ram:0001bd3c    027c            ldrb        param_3,[param_1,#0x10]                 
ram:0001bd3e    cbb2            uxtb        r3,param_2                              
ram:0001bd40    9a42            cmp         param_3,r3                              
ram:0001bd42    59d0            beq         LAB_0001bdf8                            
ram:0001bd44    03ae            add         r6,sp,#0xc                              
ram:0001bd46    0822            movs        param_3,#0x8                            
ram:0001bd48    0021            movs        param_2,#0x0                            
ram:0001bd4a    3046            mov         param_1,r6                              
ram:0001bd4c    00f045fc        bl          FUN_0001c5da                            ;undefined FUN_0001c5da(undefined * p...
ram:0001bd50    0023            movs        r3,#0x0                                 
ram:0001bd52    adf80e30        strh.w      r3,[sp,#local_5a+0x68]                  
ram:0001bd56    4ff00108        mov.w       r8,#0x1                                 
ram:0001bd5a    0df10703        add.w       r3,sp,#0x7                              
ram:0001bd5e    3246            mov         param_3,r6                              
ram:0001bd60    e988            ldrh        param_2,[r5,#0x6]                       
ram:0001bd62    adf80c80        strh.w      r8,[sp,#local_5c+0x68]                  
ram:0001bd66    4ff6ff70        movw        param_1,#0xffff                         
ram:0001bd6a    0493            str         r3,[sp,#local_58+0x68]                  
ram:0001bd6c    fff766ff        bl          FUN_0001bc3c                            ;undefined FUN_0001bc3c(void)
ram:0001bd70    0446            mov         r4,param_1                              
ram:0001bd72    18bb            cbnz        param_1,LAB_0001bdbc                    
ram:0001bd74    9df80730        ldrb.w      r3=>local_61,[sp,#0x7]                  
ram:0001bd78    2b74            strb        r3,[r5,#0x10]                           
ram:0001bd7a    6b7c            ldrb        r3,[r5,#0x11]                           
ram:0001bd7c    002b            cmp         r3,#0x0                                 
ram:0001bd7e    3dd0            beq         LAB_0001bdfc                            
ram:0001bd80    0146            mov         param_2,param_1                         
ram:0001bd82    1022            movs        param_3,#0x10                           
ram:0001bd84    05a8            add         param_1,sp,#0x14                        
ram:0001bd86    00f028fc        bl          FUN_0001c5da                            ;undefined FUN_0001c5da(undefined * p...
ram:0001bd8a    eb88            ldrh        r3,[r5,#0x6]                            
ram:0001bd8c    adf81430        strh.w      r3,[sp,#local_54+0x68]                  
ram:0001bd90    bdf80e30        ldrh.w      r3,[sp,#local_5a+0x68]                  
ram:0001bd94    adf81830        strh.w      r3,[sp,#local_50+0x68]                  
ram:0001bd98    049b            ldr         r3,[sp,#local_58+0x68]                  
ram:0001bd9a    0893            str         r3,[sp,#local_48+0x68]                  
ram:0001bd9c    4ff6fe73        movw        r3,#0xfffe                              
ram:0001bda0    9f42            cmp         r7,r3                                   
ram:0001bda2    8df81680        strb.w      r8,[sp,#local_52+0x68]                  
ram:0001bda6    0796            str         r6,[sp,#local_4c+0x68]                  
ram:0001bda8    1ed1            bne         LAB_0001bde8                            
ram:0001bdaa    09a8            add         param_1,sp,#0x24                        
ram:0001bdac    fff7c4f8        bl          FUN_0001af38                            ;int * FUN_0001af38(int * param_1)
ram:0001bdb0    0df12607        add.w       r7,sp,#0x26                             
ram:0001bdb4    2546            mov         r5,r4                                   
                            LAB_0001bdb6:                 ;XREF[1,0]:   0001bde0
ram:0001bdb6    099b            ldr         r3,[sp,#local_44+0x68]                  
ram:0001bdb8    9d42            cmp         r5,r3                                   
ram:0001bdba    03d3            bcc         LAB_0001bdc4                            
                            LAB_0001bdbc:                 ;XREF[5,0]:   0001bd72,0001bdf2,0001bdf6,0001bdfa
                                                          ;             0001bdfe
ram:0001bdbc    2046            mov         param_1,r4                              
ram:0001bdbe    14b0            add         sp,#0x50                                
ram:0001bdc0    bde8f081        pop.w       {r4,r5,r6,r7,r8,pc}                     
                            LAB_0001bdc4:                 ;XREF[1,0]:   0001bdba
ram:0001bdc4    37f8026f        ldrh.w      r6,[r7,#local_40+0x42]!                 
ram:0001bdc8    3046            mov         param_1,r6                              
ram:0001bdca    fff7a5f8        bl          FUN_0001af18                            ;uint FUN_0001af18(uint param_1)
ram:0001bdce    0228            cmp         param_1,#0x2                            
ram:0001bdd0    05d1            bne         LAB_0001bdde                            
ram:0001bdd2    05a9            add         param_2,sp,#0x14                        
ram:0001bdd4    3046            mov         param_1,r6                              
ram:0001bdd6    24b9            cbnz        r4,LAB_0001bde2                         
ram:0001bdd8    fff732ff        bl          FUN_0001bc40                            ;undefined FUN_0001bc40(void)
ram:0001bddc    0446            mov         r4,param_1                              
                            LAB_0001bdde:                 ;XREF[2,0]:   0001bdd0,0001bde6
ram:0001bdde    0135            adds        r5,#0x1                                 
ram:0001bde0    e9e7            b           LAB_0001bdb6                            
                            LAB_0001bde2:                 ;XREF[1,0]:   0001bdd6
ram:0001bde2    fff72dff        bl          FUN_0001bc40                            ;undefined FUN_0001bc40(void)
ram:0001bde6    fae7            b           LAB_0001bdde                            
                            LAB_0001bde8:                 ;XREF[1,0]:   0001bda8
ram:0001bde8    05a9            add         param_2,sp,#0x14                        
ram:0001bdea    3846            mov         param_1,r7                              
ram:0001bdec    fff728ff        bl          FUN_0001bc40                            ;undefined FUN_0001bc40(void)
ram:0001bdf0    0446            mov         r4,param_1                              
ram:0001bdf2    e3e7            b           LAB_0001bdbc                            
                            LAB_0001bdf4:                 ;XREF[1,0]:   0001bd3a
ram:0001bdf4    0e24            movs        r4,#0xe                                 
ram:0001bdf6    e1e7            b           LAB_0001bdbc                            
                            LAB_0001bdf8:                 ;XREF[1,0]:   0001bd42
ram:0001bdf8    0024            movs        r4,#0x0                                 
ram:0001bdfa    dfe7            b           LAB_0001bdbc                            
                            LAB_0001bdfc:                 ;XREF[1,0]:   0001bd7e
ram:0001bdfc    0824            movs        r4,#0x8                                 
ram:0001bdfe    dde7            b           LAB_0001bdbc                            
                            ;************************************************************************************************
                            ;*                                           FUNCTION                                           *
                            ;************************************************************************************************
                            ;undefined FUN_0001be00(void)
                                                          ;XREF[1,0]:   0001c338
ram:0001be00    6ddf            svc         0x6d                                    
ram:0001be02    7047            bx          lr                                      
                            ;************************************************************************************************
                            ;*                                           FUNCTION                                           *
                            ;************************************************************************************************
                            ;undefined FUN_0001be04(void)
                                                          ;XREF[2,0]:   0001be62,0001bf10
ram:0001be04    76df            svc         0x76                                    
ram:0001be06    7047            bx          lr                                      
ram:0001be08    77df            svc         0x77                                    
ram:0001be0a    7047            bx          lr                                      
                            ;************************************************************************************************
                            ;*                                           FUNCTION                                           *
                            ;************************************************************************************************
                            ;undefined FUN_0001be0c(void)
                                                          ;XREF[1,0]:   0001c3c6
ram:0001be0c    7adf            svc         0x7a                                    
ram:0001be0e    7047            bx          lr                                      
                            ;************************************************************************************************
                            ;*                                           FUNCTION                                           *
                            ;************************************************************************************************
                            ;undefined FUN_0001be10(void)
                                                          ;XREF[1,0]:   0001c396
ram:0001be10    7cdf            svc         0x7c                                    
ram:0001be12    7047            bx          lr                                      
ram:0001be14    8fdf            svc         0x8f                                    
ram:0001be16    7047            bx          lr                                      
                            ;************************************************************************************************
                            ;*                                           FUNCTION                                           *
                            ;************************************************************************************************
                            ;undefined FUN_0001be18(void)
                                                          ;XREF[1,0]:   0001c076
ram:0001be18    a8df            svc         0xa8                                    
ram:0001be1a    7047            bx          lr                                      
                            ;************************************************************************************************
                            ;*                                           FUNCTION                                           *
                            ;************************************************************************************************
                            ;undefined FUN_0001be1c(void)
                                                          ;XREF[1,0]:   0001c05c
ram:0001be1c    62df            svc         0x62                                    
ram:0001be1e    7047            bx          lr                                      
                            ;************************************************************************************************
                            ;*                                           FUNCTION                                           *
                            ;************************************************************************************************
                            ;undefined FUN_0001be20(short * param_1, uint param_2, undefined4 param_3)
          ;param_1       short *             r0                      
          ;param_2       uint                r1                      
          ;param_3       undefined4          r2                      
          ;local_c       undefined1          -c                      ;XREF[1,0]:   0001be44
ram:0001be20    07b5            push        {param_1,param_2,param_3,lr}            
ram:0001be22    0b46            mov         r3,param_2                              
ram:0001be24    99b1            cbz         param_2,LAB_0001be4e                    
ram:0001be26    90b1            cbz         param_1,LAB_0001be4e                    
ram:0001be28    0288            ldrh        param_3,[param_1,#0x0]                  
ram:0001be2a    502a            cmp         param_3,#0x50                           
ram:0001be2c    0fd1            bne         LAB_0001be4e                            
ram:0001be2e    c188            ldrh        param_2,[param_1,#0x6]                  
ram:0001be30    5a88            ldrh        param_3,[r3,#0x2]                       
ram:0001be32    9142            cmp         param_2,param_3                         
ram:0001be34    0bd1            bne         LAB_0001be4e                            
ram:0001be36    418a            ldrh        param_2,[param_1,#0x12]                 
ram:0001be38    4df6eb62        movw        param_3,#0xdeeb                         
ram:0001be3c    9142            cmp         param_2,param_3                         
ram:0001be3e    06d1            bne         LAB_0001be4e                            
ram:0001be40    02a9            add         param_2,sp,#0x8                         
ram:0001be42    0022            movs        param_3,#0x0                            
ram:0001be44    01f8042d        strb.w      param_3,[param_2,#-0x4]!=>local_c       
ram:0001be48    1846            mov         param_1,r3                              
ram:0001be4a    da68            ldr         param_3,[r3,#0xc]                       
ram:0001be4c    9047            blx         param_3                                 
                            LAB_0001be4e:                 ;XREF[5,0]:   0001be24,0001be26,0001be2c,0001be34
                                                          ;             0001be3e
ram:0001be4e    03b0            add         sp,#0xc                                 
ram:0001be50    5df804fb        pop.w       pc                                      
                            ;************************************************************************************************
                            ;*                                           FUNCTION                                           *
                            ;************************************************************************************************
                            ;undefined FUN_0001be54(void)
                                                          ;XREF[3,0]:   0001be6c,0001c1ac,0001c1ea
ram:0001be54    33df            svc         0x33                                    
ram:0001be56    7047            bx          lr                                      
                            ;************************************************************************************************
                            ;*                                           FUNCTION                                           *
                            ;************************************************************************************************
                            ;undefined FUN_0001be58(void)
                                                          ;XREF[1,0]:   0001c4f2
ram:0001be58    3fdf            svc         0x3f                                    
ram:0001be5a    7047            bx          lr                                      
                            ;************************************************************************************************
                            ;*                                           FUNCTION                                           *
                            ;************************************************************************************************
                            ;undefined4 LAB_0001be5c+1(void)
                                                          ;XREF[0,1]:   0001d62c
ram:0001be5c    0120            movs        r0,#0x1                                 
ram:0001be5e    7047            bx          lr                                      
                            ;************************************************************************************************
                            ;*                                           FUNCTION                                           *
                            ;************************************************************************************************
                            ;undefined LAB_0001be60+1(void)
                                                          ;XREF[0,2]:   0001bffa,0001c008
ram:0001be60    1321            movs        r1,#0x13                                
ram:0001be62    fff7cfbf        b.w         FUN_0001be04                            ;undefined FUN_0001be04(void)
                            ;************************************************************************************************
                            ;*                                           FUNCTION                                           *
                            ;************************************************************************************************
                            ;undefined LAB_0001be66+1(void)
                                                          ;XREF[0,3]:   0001c412,0001c418,0001c524
ram:0001be66    7047            bx          lr                                      
                            ;************************************************************************************************
                            ;*                                           FUNCTION                                           *
                            ;************************************************************************************************
                            ;undefined LAB_0001be68+1(undefined4 param_1, char * param_2)
          ;param_1       undefined4          r0                      
          ;param_2       char *              r1                      
                                                          ;XREF[0,1]:   0001c544
ram:0001be68    0b78            ldrb        r3,[param_2,#0x0]                       
ram:0001be6a    0bb9            cbnz        r3,LAB_0001be70                         
ram:0001be6c    fff7f2bf        b.w         FUN_0001be54                            ;undefined FUN_0001be54(void)
                            LAB_0001be70:                 ;XREF[1,0]:   0001be6a
ram:0001be70    7047            bx          lr                                      
                            ;************************************************************************************************
                            ;*                                           FUNCTION                                           *
                            ;************************************************************************************************
                            ;undefined thunk_FUN_0001931c(void)
                                                          ;XREF[0,1]:   0001c550
ram:0001be72    fdf753ba        b.w         FUN_0001931c                            ;undefined FUN_0001931c(void)
                            ;************************************************************************************************
                            ;*                                           FUNCTION                                           *
                            ;************************************************************************************************
                            ;undefined LAB_0001beec+1(int param_1)
          ;param_1       int                 r0                      
                                                          ;XREF[0,1]:   0001d630
ram:0001beec    0328            cmp         param_1,#0x3                            
ram:0001beee    07d1            bne         LAB_0001bf00                            
ram:0001bef0    4ff08043        mov.w       r3,#0x40000000                          
ram:0001bef4    a922            movs        r2,#0xa9                                
ram:0001bef6    c3f82025        str.w       r2,[r3,#offset DAT_40000520 &0xffff]    
ram:0001befa    0020            movs        param_1,#0x0                            
ram:0001befc    fdf764bd        b.w         FUN_000199c8                            ;undefined FUN_000199c8(int param_1)
                            LAB_0001bf00:                 ;XREF[1,0]:   0001beee
ram:0001bf00    7047            bx          lr                                      
ram:0001bf02    0000            movs        r0,r0                                   
                            ;************************************************************************************************
                            ;*                                           FUNCTION                                           *
                            ;************************************************************************************************
                            ;undefined LAB_0001bf04+1(char * param_1)
          ;param_1       char *              r0                      
                                                          ;XREF[0,1]:   0001c54c
ram:0001bf04    08b5            push        {r3,lr}                                 
ram:0001bf06    0378            ldrb        r3,[param_1,#0x0]                       
ram:0001bf08    4bb9            cbnz        r3,LAB_0001bf1e                         
ram:0001bf0a    054b            ldr         r3=>DAT_20001c1c,[DAT_0001bf20]         ;= 20001C1Ch
ram:0001bf0c    3b21            movs        r1,#0x3b                                
ram:0001bf0e    1888            ldrh        param_1,[r3,#0x0]=>DAT_20001c1c         
ram:0001bf10    fff778ff        bl          FUN_0001be04                            ;undefined FUN_0001be04(void)
ram:0001bf14    18b1            cbz         param_1,LAB_0001bf1e                    
ram:0001bf16    bde80840        pop.w       {r3,lr}                                 
ram:0001bf1a    fdf7ffb9        b.w         FUN_0001931c                            ;undefined FUN_0001931c(void)
                            LAB_0001bf1e:                 ;XREF[2,0]:   0001bf08,0001bf14
ram:0001bf1e    08bd            pop         {r3,pc}                                 
                            DAT_0001bf20:                 ;XREF[1,0]:   0001bf0a
ram:0001bf20    1c1c0020        undefined4  20001C1Ch                               
                            ;************************************************************************************************
                            ;*                                           FUNCTION                                           *
                            ;************************************************************************************************
                            ;undefined LAB_0001bf24+1(byte * param_1, undefined4 param_2, undefined4 param_3)
          ;param_1       byte *              r0                      
          ;param_2       undefined4          r1                      
          ;param_3       undefined4          r2                      
                                                          ;XREF[0,2]:   0001c0d6,0001c0f0
ram:0001bf24    70b5            push        {r4,r5,r6,lr}                           
ram:0001bf26    0378            ldrb        r3,[param_1,#0x0]                       
ram:0001bf28    0546            mov         r5,param_1                              
ram:0001bf2a    002b            cmp         r3,#0x0                                 
ram:0001bf2c    3cd1            bne         LAB_0001bfa8                            
ram:0001bf2e    1f4c            ldr         r4,[DAT_0001bfac]                       ;= 200020ECh
ram:0001bf30    b4f90000        ldrsh.w     param_1,[r4,#0x0]=>DAT_200020ec         
ram:0001bf34    01f096f8        bl          FUN_0001d064                            ;uint FUN_0001d064(uint param_1)
ram:0001bf38    1d49            ldr         param_2,[DAT_0001bfb0]                  ;= 40610000h
ram:0001bf3a    01f0e7f8        bl          FUN_0001d10c                            ;uint FUN_0001d10c(uint param_1, uint...
ram:0001bf3e    1d49            ldr         param_2,[DAT_0001bfb4]                  ;= 45034000h
ram:0001bf40    00f0daff        bl          FUN_0001cef8                            ;uint FUN_0001cef8(uint param_1, uint...
ram:0001bf44    1c49            ldr         param_2,[DAT_0001bfb8]                  ;= 44898000h
ram:0001bf46    01f095f9        bl          FUN_0001d274                            ;uint FUN_0001d274(uint param_1, uint...
ram:0001bf4a    1c49            ldr         param_2,[DAT_0001bfbc]                  ;= 42C80000h
ram:0001bf4c    01f0def8        bl          FUN_0001d10c                            ;uint FUN_0001d10c(uint param_1, uint...
ram:0001bf50    1a49            ldr         param_2,[DAT_0001bfbc]                  ;= 42C80000h
ram:0001bf52    0646            mov         r6,param_1                              
ram:0001bf54    01f078fa        bl          FUN_0001d448                            ;ulonglong FUN_0001d448(uint param_1,...
ram:0001bf58    20b3            cbz         param_1,LAB_0001bfa4                    
ram:0001bf5a    0021            movs        param_2,#0x0                            
ram:0001bf5c    3046            mov         param_1,r6                              
ram:0001bf5e    01f091fa        bl          FUN_0001d484                            ;ulonglong FUN_0001d484(uint param_1,...
ram:0001bf62    10b1            cbz         param_1,LAB_0001bf6a                    
ram:0001bf64    3046            mov         param_1,r6                              
ram:0001bf66    01f097fa        bl          FUN_0001d498                            ;uint FUN_0001d498(uint param_1)
                            LAB_0001bf6a:                 ;XREF[2,0]:   0001bf62,0001bfa6
ram:0001bf6a    4ff0a043        mov.w       r3,#0x50000000                          
ram:0001bf6e    c1b2            uxtb        param_2,param_1                         
ram:0001bf70    d3f81035        ldr.w       r3,[r3,#offset DAT_50000510 &0xffff]    
ram:0001bf74    1248            ldr         param_1,[DAT_0001bfc0]                  ;= 20001FACh
ram:0001bf76    c3f30043        ubfx        r3,r3,#0x10,#0x1                        
ram:0001bf7a    4ff6fe72        movw        param_3,#0xfffe                         
ram:0001bf7e    2371            strb        r3,[r4,#0x4]=>DAT_200020f0              
ram:0001bf80    fff7d3fe        bl          FUN_0001bd2a                            ;uint FUN_0001bd2a(int param_1, char ...
ram:0001bf84    0221            movs        param_2,#0x2                            
ram:0001bf86    6868            ldr         param_1,[r5,#0x4]                       
ram:0001bf88    fdf778ff        bl          FUN_00019e7c                            ;undefined4 FUN_00019e7c(undefined4 p...
ram:0001bf8c    08b1            cbz         param_1,LAB_0001bf92                    
ram:0001bf8e    fdf7c5f9        bl          FUN_0001931c                            ;undefined FUN_0001931c(void)
                            LAB_0001bf92:                 ;XREF[1,0]:   0001bf8c
ram:0001bf92    fef749f8        bl          FUN_0001a028                            ;undefined FUN_0001a028(void)
ram:0001bf96    0b4b            ldr         r3,[DAT_0001bfc4]                       ;= 200020CEh
ram:0001bf98    0221            movs        param_2,#0x2                            
ram:0001bf9a    1878            ldrb        param_1,[r3,#0x0]=>DAT_200020ce         
ram:0001bf9c    bde87040        pop.w       {r4,r5,r6,lr}                           
ram:0001bfa0    fef75cb9        b.w         FUN_0001a25c                            ;undefined FUN_0001a25c(uint param_1,...
                            LAB_0001bfa4:                 ;XREF[1,0]:   0001bf58
ram:0001bfa4    6420            movs        param_1,#0x64                           
ram:0001bfa6    e0e7            b           LAB_0001bf6a                            
                            LAB_0001bfa8:                 ;XREF[1,0]:   0001bf2c
ram:0001bfa8    70bd            pop         {r4,r5,r6,pc}                           
ram:0001bfaa    00bf            nop                                                  
                            DAT_0001bfac:                 ;XREF[1,0]:   0001bf2e
ram:0001bfac    ec200020        undefined4  200020ECh                               
                            DAT_0001bfb0:                 ;XREF[1,0]:   0001bf38
ram:0001bfb0    00006140        undefined4  40610000h                               
                            DAT_0001bfb4:                 ;XREF[1,0]:   0001bf3e
ram:0001bfb4    00400345        undefined4  45034000h                               
                            DAT_0001bfb8:                 ;XREF[1,0]:   0001bf44
ram:0001bfb8    00808944        undefined4  44898000h                               
                            DAT_0001bfbc:                 ;XREF[2,0]:   0001bf4a,0001bf50
ram:0001bfbc    0000c842        undefined4  42C80000h                               
                            DAT_0001bfc0:                 ;XREF[1,0]:   0001bf74
ram:0001bfc0    ac1f0020        undefined4  20001FACh                               
                            DAT_0001bfc4:                 ;XREF[1,0]:   0001bf96
ram:0001bfc4    ce200020        undefined4  200020CEh                               
                            ;************************************************************************************************
                            ;*                                           FUNCTION                                           *
                            ;************************************************************************************************
                            ;undefined thunk_FUN_0001931c(void)
                                                          ;XREF[0,3]:   0001c432,0001c434,0001c52c
ram:0001bfc8    fdf7a8b9        b.w         FUN_0001931c                            ;undefined FUN_0001931c(void)
                            ;************************************************************************************************
                            ;*                                           FUNCTION                                           *
                            ;************************************************************************************************
                            ;undefined FUN_0001bfcc(int param_1)
          ;param_1       int                 r0                      
          ;local_20      undefined4         -20                      ;XREF[1,0]:   0001bfee
          ;local_24      undefined4         -24                      ;XREF[1,0]:   0001bfec
          ;local_30      undefined1         -30                      ;XREF[1,0]:   0001bfe8
          ;local_34      undefined1         -34                      ;XREF[1,0]:   0001bff0
                                                          ;XREF[0,1]:   0001c534
ram:0001bfcc    10b5            push        {r4,lr}                                 
ram:0001bfce    0446            mov         r4,param_1                              
ram:0001bfd0    8cb0            sub         sp,#0x30                                
ram:0001bfd2    a8b9            cbnz        param_1,LAB_0001c000                    
ram:0001bfd4    0146            mov         r1,param_1                              
ram:0001bfd6    2c22            movs        r2,#0x2c                                
ram:0001bfd8    01a8            add         param_1,sp,#0x4                         
ram:0001bfda    00f0fefa        bl          FUN_0001c5da                            ;undefined FUN_0001c5da(undefined * p...
ram:0001bfde    0123            movs        r3,#0x1                                 
ram:0001bfe0    4ff44872        mov.w       r2,#0x320                               
ram:0001bfe4    01a9            add         r1,sp,#0x4                              
ram:0001bfe6    0748            ldr         param_1,[DAT_0001c004]                  ;= 20001FF0h
ram:0001bfe8    8df80830        strb.w      r3,[sp,#local_30+0x38]                  
ram:0001bfec    0592            str         r2,[sp,#local_24+0x38]                  
ram:0001bfee    0694            str         r4,[sp,#local_20+0x38]                  
ram:0001bff0    8df80430        strb.w      r3,[sp,#local_34+0x38]                  
ram:0001bff4    fef7a5fd        bl          FUN_0001ab42                            ;undefined FUN_0001ab42(int param_1, ...
ram:0001bff8    2146            mov         r1,r4                                   
ram:0001bffa    0348            ldr         param_1=>LAB_000...,[PTR_LAB_0001be60...;= 0001be61
ram:0001bffc    fef7a6ff        bl          FUN_0001af4c                            ;undefined * FUN_0001af4c(undefined *...
                            LAB_0001c000:                 ;XREF[1,0]:   0001bfd2
ram:0001c000    0cb0            add         sp,#0x30                                
ram:0001c002    10bd            pop         {r4,pc}                                 
                            DAT_0001c004:                 ;XREF[1,0]:   0001bfe6
ram:0001c004    f01f0020        undefined4  20001FF0h                               
                            PTR_LAB_0001be60+1+1_0001c008:;XREF[1,0]:   0001bffa
ram:0001c008    61be0100        addr        LAB_0001be60+1+1                        
                            ;************************************************************************************************
                            ;*                                           FUNCTION                                           *
                            ;************************************************************************************************
                            ;undefined FUN_0001c00c(void)
                                                          ;XREF[1,1]:   0001932c,0001ba9c
ram:0001c00c    bff34f8f        dsb         0xf                                     
ram:0001c010    0549            ldr         r1,[DAT_0001c028]                       ;= E000ED00h
ram:0001c012    064b            ldr         r3,[DAT_0001c02c]                       ;= 05FA0004h
ram:0001c014    ca68            ldr         r2,[r1,#offset DAT_e000ed0c &0xff]      
ram:0001c016    02f4e062        and         r2,r2,#0x700                            
ram:0001c01a    1343            orrs        r3,r2                                   
ram:0001c01c    cb60            str         r3,[r1,#offset DAT_e000ed0c &0xff]      
ram:0001c01e    bff34f8f        dsb         0xf                                     
                            LAB_0001c022:                 ;XREF[1,0]:   0001c024
ram:0001c022    00bf            nop                                                  
ram:0001c024    fde7            b           LAB_0001c022                            
ram:0001c026    00bf            nop                                                  
                            DAT_0001c028:                 ;XREF[1,0]:   0001c010
ram:0001c028    00ed00e0        undefined4  E000ED00h                               
                            DAT_0001c02c:                 ;XREF[1,0]:   0001c012
ram:0001c02c    0400fa05        undefined4  05FA0004h                               
                            ;************************************************************************************************
                            ;*                                           FUNCTION                                           *
                            ;************************************************************************************************
                            ;int FUN_0001c030(ushort * param_1, undefined4 param_2)
          ;param_1       ushort *            r0                      
          ;param_2       undefined4          r1                      
          ;local_26      undefined1         -26                      ;XREF[1,0]:   0001c0ac
          ;local_27      undefined1         -27                      ;XREF[1,0]:   0001c0a8
          ;local_2b      undefined1         -2b                      ;XREF[2,0]:   0001c094,0001c09e
          ;local_34      undefined2         -34                      ;XREF[1,0]:   0001c090
          ;local_38      undefined2         -38                      ;XREF[1,0]:   0001c08a
          ;local_48      undefined4         -48                      ;XREF[1,0]:   0001c04c
          ;local_4a      undefined1         -4a                      ;XREF[1,0]:   0001c064
          ;local_4c      undefined2         -4c                      ;XREF[1,0]:   0001c06e
                                                          ;XREF[1,0]:   0001c49c
ram:0001c030    f0b5            push        {r4,r5,r6,r7,lr}                        
ram:0001c032    0e46            mov         r6,param_2                              
ram:0001c034    8fb0            sub         sp,#0x3c                                
ram:0001c036    0446            mov         r4,param_1                              
ram:0001c038    0028            cmp         param_1,#0x0                            
ram:0001c03a    3fd0            beq         LAB_0001c0bc                            
ram:0001c03c    204b            ldr         r3,[PTR_DAT_0001c0c0]                   ;= 0001d564
ram:0001c03e    02aa            add         r2,sp,#0x8                              
ram:0001c040    03f1100e        add.w       lr,r3,#0x10                             
ram:0001c044    1746            mov         r7,r2                                   
                            LAB_0001c046:                 ;XREF[1,0]:   0001c054
                                                          ; FWD[2,0]:   0001d564,0001d56c
ram:0001c046    1868            ldr         param_1,[r3,#0x0]=>DAT_0001d564         ;= BA62F635h
                                                                                    ;= A1E541FBh
                                                          ; FWD[2,0]:   0001d568,0001d570
ram:0001c048    5968            ldr         param_2,[r3,#0x4]=>DAT_0001d568         ;= 8FAACCC4h
                                                                                    ;= C28985B7h
ram:0001c04a    1546            mov         r5,r2                                   
ram:0001c04c    03c5            stmia       r5!=>local_48,{param_1,param_2}         
ram:0001c04e    0833            adds        r3=>DAT_0001d56c,#0x8                   ;= A1E541FBh
ram:0001c050    7345            cmp         r3,lr                                   
ram:0001c052    2a46            mov         r2,r5                                   
ram:0001c054    f7d1            bne         LAB_0001c046                            
ram:0001c056    04f10a01        add.w       param_2,r4,#0xa                         
ram:0001c05a    3846            mov         param_1,r7                              
ram:0001c05c    fff7defe        bl          FUN_0001be1c                            ;undefined FUN_0001be1c(void)
ram:0001c060    50bb            cbnz        param_1,LAB_0001c0b8                    
ram:0001c062    a37a            ldrb        r3,[r4,#0xa]                            
ram:0001c064    8df80630        strb.w      r3,[sp,#local_4a+0x50]                  
ram:0001c068    0ea9            add         param_2,sp,#0x38                        
ram:0001c06a    4ff4a053        mov.w       r3,#0x1400                              
ram:0001c06e    21f8343d        strh        r3,[param_2,#-0x34]!=>local_4c          
ram:0001c072    2246            mov         r2,r4                                   
ram:0001c074    0120            movs        param_1,#0x1                            
ram:0001c076    fff7cffe        bl          FUN_0001be18                            ;undefined FUN_0001be18(void)
ram:0001c07a    e8b9            cbnz        param_1,LAB_0001c0b8                    
ram:0001c07c    0146            mov         param_2,param_1                         
ram:0001c07e    2022            movs        r2,#0x20                                
ram:0001c080    06a8            add         param_1,sp,#0x18                        
ram:0001c082    00f0aafa        bl          FUN_0001c5da                            ;undefined FUN_0001c5da(undefined * p...
ram:0001c086    41f20143        movw        r3,#0x1401                              
ram:0001c08a    adf81830        strh.w      r3,[sp,#local_38+0x50]                  
ram:0001c08e    0223            movs        r3,#0x2                                 
ram:0001c090    adf81c30        strh.w      r3,[sp,#local_34+0x50]                  
ram:0001c094    9df82530        ldrb.w      r3,[sp,#local_2b+0x50]                  
ram:0001c098    2088            ldrh        param_1,[r4,#0x0]                       
ram:0001c09a    43f00a03        orr         r3,r3,#0xa                              
ram:0001c09e    8df82530        strb.w      r3,[sp,#local_2b+0x50]                  
ram:0001c0a2    a21c            adds        r2,r4,#0x2                              
ram:0001c0a4    0123            movs        r3,#0x1                                 
ram:0001c0a6    06a9            add         param_2,sp,#0x18                        
ram:0001c0a8    8df82930        strb.w      r3,[sp,#local_27+0x50]                  
ram:0001c0ac    8df82a30        strb.w      r3,[sp,#local_26+0x50]                  
ram:0001c0b0    fef79cff        bl          FUN_0001afec                            ;undefined FUN_0001afec(undefined4 pa...
ram:0001c0b4    00b9            cbnz        param_1,LAB_0001c0b8                    
ram:0001c0b6    e660            str         r6,[r4,#0xc]                            
                            LAB_0001c0b8:                 ;XREF[4,0]:   0001c060,0001c07a,0001c0b4,0001c0be
ram:0001c0b8    0fb0            add         sp,#0x3c                                
ram:0001c0ba    f0bd            pop         {r4,r5,r6,r7,pc}                        
                            LAB_0001c0bc:                 ;XREF[1,0]:   0001c03a
ram:0001c0bc    0e20            movs        param_1,#0xe                            
ram:0001c0be    fbe7            b           LAB_0001c0b8                            
                            PTR_DAT_0001c0c0:             ;XREF[1,0]:   0001c03c
ram:0001c0c0    64d50100        addr        DAT_0001d564                            ;= BA62F635h
                            ;************************************************************************************************
                            ;*                                           FUNCTION                                           *
                            ;************************************************************************************************
                            ;undefined FUN_0001c0c4(undefined4 param_1, undefined4 param_2, undefined4 param_3)
          ;param_1       undefined4          r0                      
          ;param_2       undefined4          r1                      
          ;param_3       undefined4          r2                      
          ;local_9       undefined1          -9                      ;XREF[1,0]:   0001c0c8
          ;local_a       undefined1          -a                      ;XREF[1,0]:   0001c0dc
          ;local_b       undefined1          -b                      ;XREF[1,0]:   0001c0d2
          ;local_c       undefined1          -c                      ;XREF[1,0]:   0001c0cc
                                                          ;XREF[1,0]:   0001c174
ram:0001c0c4    07b5            push        {param_1,param_2,param_3,lr}            
ram:0001c0c6    0123            movs        r3,#0x1                                 
ram:0001c0c8    8df80730        strb.w      r3,[sp,#local_9+0x10]                   
ram:0001c0cc    8df80430        strb.w      r3,[sp,#local_c+0x10]                   
ram:0001c0d0    0023            movs        r3,#0x0                                 
ram:0001c0d2    8df80530        strb.w      r3,[sp,#local_b+0x10]                   
ram:0001c0d6    0649            ldr         param_2=>LAB_000...,[PTR_LAB_0001bf24...;= 0001bf25
ram:0001c0d8    0623            movs        r3,#0x6                                 
ram:0001c0da    01a8            add         param_1,sp,#0x4                         
ram:0001c0dc    8df80630        strb.w      r3,[sp,#local_a+0x10]                   
ram:0001c0e0    fdf726fe        bl          FUN_00019d30                            ;undefined4 FUN_00019d30(byte * param...
ram:0001c0e4    08b1            cbz         param_1,LAB_0001c0ea                    
ram:0001c0e6    fdf719f9        bl          FUN_0001931c                            ;undefined FUN_0001931c(void)
                            LAB_0001c0ea:                 ;XREF[1,0]:   0001c0e4
ram:0001c0ea    03b0            add         sp,#0xc                                 
ram:0001c0ec    5df804fb        pop.w       pc                                      
                            PTR_LAB_0001bf24+1+1_0001c0f0:;XREF[1,0]:   0001c0d6
ram:0001c0f0    25bf0100        addr        LAB_0001bf24+1+1                        
                            ;************************************************************************************************
                            ;*                                           FUNCTION                                           *
                            ;************************************************************************************************
                            ;undefined FUN_0001c0f4(undefined4 param_1, undefined4 param_2, undefined4 param_3, uint param_4)
          ;param_1       undefined4          r0                      
          ;param_2       undefined4          r1                      
          ;param_3       undefined4          r2                      
          ;param_4       uint                r3                      
          ;local_c       undefined1          -c                      ;XREF[1,0]:   0001c112
          ;local_d       undefined1          -d                      ;XREF[2,0]:   0001c10e,0001c130
          ;local_f       undefined1          -f                      ;XREF[1,0]:   0001c10a
          ;local_10      undefined1         -10                      ;XREF[1,0]:   0001c0fa
          ;local_11      undefined1         -11                      ;XREF[1,0]:   0001c102
          ;local_12      undefined1         -12                      ;XREF[1,0]:   0001c106
          ;local_13      undefined1         -13                      ;XREF[1,0]:   0001c11a
          ;local_14      undefined1         -14                      ;XREF[1,0]:   0001c116
                                                          ;XREF[1,0]:   0001c178
ram:0001c0f4    1fb5            push        {param_1,param_2,param_3,param_4,r4,lr} 
ram:0001c0f6    0223            movs        param_4,#0x2                            
ram:0001c0f8    0020            movs        param_1,#0x0                            
ram:0001c0fa    8df80830        strb.w      param_4,[sp,#local_10+0x18]             
ram:0001c0fe    01a9            add         param_2,sp,#0x4                         
ram:0001c100    0923            movs        param_4,#0x9                            
ram:0001c102    8df80700        strb.w      param_1,[sp,#local_11+0x18]             
ram:0001c106    8df80600        strb.w      param_1,[sp,#local_12+0x18]             
ram:0001c10a    8df80900        strb.w      param_1,[sp,#local_f+0x18]              
ram:0001c10e    8df80b30        strb.w      param_4,[sp,#local_d+0x18]              
ram:0001c112    8df80c00        strb.w      param_1,[sp,#local_c+0x18]              
ram:0001c116    8df80400        strb.w      param_1,[sp,#local_14+0x18]             
ram:0001c11a    8df80500        strb.w      param_1,[sp,#local_13+0x18]             
ram:0001c11e    fdf74ffe        bl          FUN_00019dc0                            ;undefined4 FUN_00019dc0(int param_1,...
ram:0001c122    08b1            cbz         param_1,LAB_0001c128                    
ram:0001c124    fdf7faf8        bl          FUN_0001931c                            ;undefined FUN_0001931c(void)
                            LAB_0001c128:                 ;XREF[1,0]:   0001c122
ram:0001c128    0423            movs        param_4,#0x4                            
ram:0001c12a    0deb0301        add.w       param_2,sp,param_4                      
ram:0001c12e    0120            movs        param_1,#0x1                            
ram:0001c130    8df80b30        strb.w      param_4,[sp,#local_d+0x18]              
ram:0001c134    fdf744fe        bl          FUN_00019dc0                            ;undefined4 FUN_00019dc0(int param_1,...
ram:0001c138    08b1            cbz         param_1,LAB_0001c13e                    
ram:0001c13a    fdf7eff8        bl          FUN_0001931c                            ;undefined FUN_0001931c(void)
                            LAB_0001c13e:                 ;XREF[1,0]:   0001c138
ram:0001c13e    0221            movs        param_2,#0x2                            
ram:0001c140    0448            ldr         param_1=>DAT_200020ec,[DAT_0001c154]    ;= 200020ECh
ram:0001c142    fdf79bfe        bl          FUN_00019e7c                            ;undefined4 FUN_00019e7c(undefined4 p...
ram:0001c146    08b1            cbz         param_1,LAB_0001c14c                    
ram:0001c148    fdf7e8f8        bl          FUN_0001931c                            ;undefined FUN_0001931c(void)
                            LAB_0001c14c:                 ;XREF[1,0]:   0001c146
ram:0001c14c    05b0            add         sp,#0x14                                
ram:0001c14e    5df804fb        pop.w       pc                                      
                            DAT_0001c154:                 ;XREF[1,0]:   0001c140
ram:0001c154    ec200020        undefined4  200020ECh                               
                            ;************************************************************************************************
                            ;*                                           FUNCTION                                           *
                            ;************************************************************************************************
                            ;undefined LAB_0001c158+1(undefined4 param_1, int param_2)
          ;param_1       undefined4          r0                      
          ;param_2       int                 r1                      
                                                          ;XREF[0,2]:   0001c2a8,0001c2bc
ram:0001c158    38b5            push        {r3,r4,r5,lr}                           
ram:0001c15a    254b            ldr         r3,[DAT_0001c1f0]                       ;= 4000B000h
ram:0001c15c    ca07            lsls        r2,param_2,#0x1f                        
ram:0001c15e    d3f80455        ldr.w       r5,[r3,#0x504]=>DAT_4000b504            
ram:0001c162    0fd5            bpl         LAB_0001c184                            
ram:0001c164    234c            ldr         r4,[DAT_0001c1f4]                       ;= 20001FE8h
ram:0001c166    2846            mov         param_1,r5                              
ram:0001c168    2168            ldr         param_2,[r4,#0x0]=>DAT_20001fe8         
ram:0001c16a    fdf787fb        bl          FUN_0001987c                            ;uint FUN_0001987c(int param_1, int p...
ram:0001c16e    b0f5004f        cmp.w       param_1,#0x8000                         
ram:0001c172    3cd9            bls         LAB_0001c1ee                            
ram:0001c174    fff7a6ff        bl          FUN_0001c0c4                            ;undefined FUN_0001c0c4(undefined4 pa...
ram:0001c178    fff7bcff        bl          FUN_0001c0f4                            ;undefined FUN_0001c0f4(undefined4 pa...
ram:0001c17c    fdf7d2fe        bl          FUN_00019f24                            ;undefined4 FUN_00019f24(void)
ram:0001c180    2560            str         r5,[r4,#0x0]=>DAT_20001fe8              
ram:0001c182    38bd            pop         {r3,r4,r5,pc}                           
                            LAB_0001c184:                 ;XREF[1,0]:   0001c162
ram:0001c184    4b07            lsls        r3,param_2,#0x1d                        
ram:0001c186    32d5            bpl         LAB_0001c1ee                            
ram:0001c188    1b4c            ldr         r4,[DAT_0001c1f8]                       ;= 200020ECh
ram:0001c18a    b4f90000        ldrsh.w     param_1,[r4,#0x0]=>DAT_200020ec         
ram:0001c18e    00f069ff        bl          FUN_0001d064                            ;uint FUN_0001d064(uint param_1)
ram:0001c192    1a49            ldr         param_2,[DAT_0001c1fc]                  ;= 40610000h
ram:0001c194    00f0baff        bl          FUN_0001d10c                            ;uint FUN_0001d10c(uint param_1, uint...
ram:0001c198    1949            ldr         param_2,[DAT_0001c200]                  ;= 45034000h
ram:0001c19a    01f055f9        bl          FUN_0001d448                            ;ulonglong FUN_0001d448(uint param_1,...
ram:0001c19e    194a            ldr         r2=>DAT_200020d0,[DAT_0001c204]         ;= 200020D0h
ram:0001c1a0    b0b1            cbz         param_1,LAB_0001c1d0                    
ram:0001c1a2    2379            ldrb        r3,[r4,#0x4]=>DAT_200020f0              
ram:0001c1a4    a3b9            cbnz        r3,LAB_0001c1d0                         
ram:0001c1a6    1368            ldr         r3,[r2,#0x0]=>DAT_200020d0              
ram:0001c1a8    132b            cmp         r3,#0x13                                
ram:0001c1aa    01dd            ble         LAB_0001c1b0                            
ram:0001c1ac    fff752fe        bl          FUN_0001be54                            ;undefined FUN_0001be54(void)
                            LAB_0001c1b0:                 ;XREF[1,0]:   0001c1aa
ram:0001c1b0    0133            adds        r3,#0x1                                 
                            LAB_0001c1b2:                 ;XREF[1,0]:   0001c1d2
ram:0001c1b2    1360            str         r3,[r2,#0x0]=>DAT_200020d0              
ram:0001c1b4    b4f90200        ldrsh.w     param_1,[r4,#0x2]=>DAT_200020ee         
ram:0001c1b8    00f054ff        bl          FUN_0001d064                            ;uint FUN_0001d064(uint param_1)
ram:0001c1bc    0f49            ldr         param_2,[DAT_0001c1fc]                  ;= 40610000h
ram:0001c1be    00f0a5ff        bl          FUN_0001d10c                            ;uint FUN_0001d10c(uint param_1, uint...
ram:0001c1c2    1149            ldr         param_2,[DAT_0001c208]                  ;= 42C80000h
ram:0001c1c4    01f05ef9        bl          FUN_0001d484                            ;ulonglong FUN_0001d484(uint param_1,...
ram:0001c1c8    104b            ldr         r3=>DAT_20001fec,[DAT_0001c20c]         ;= 20001FECh
ram:0001c1ca    18b1            cbz         param_1,LAB_0001c1d4                    
ram:0001c1cc    1d60            str         r5,[r3,#0x0]=>DAT_20001fec              
ram:0001c1ce    38bd            pop         {r3,r4,r5,pc}                           
                            LAB_0001c1d0:                 ;XREF[2,0]:   0001c1a0,0001c1a4
ram:0001c1d0    0023            movs        r3,#0x0                                 
ram:0001c1d2    eee7            b           LAB_0001c1b2                            
                            LAB_0001c1d4:                 ;XREF[1,0]:   0001c1ca
ram:0001c1d4    1968            ldr         param_2,[r3,#0x0]=>DAT_20001fec         
ram:0001c1d6    2846            mov         param_1,r5                              
ram:0001c1d8    fdf750fb        bl          FUN_0001987c                            ;uint FUN_0001987c(int param_1, int p...
ram:0001c1dc    b0f1614f        cmp.w       param_1,#0xe1000000                     
ram:0001c1e0    05d9            bls         LAB_0001c1ee                            
ram:0001c1e2    2379            ldrb        r3,[r4,#0x4]=>DAT_200020f0              
ram:0001c1e4    1bb9            cbnz        r3,LAB_0001c1ee                         
ram:0001c1e6    bde83840        pop.w       {r3,r4,r5,lr}                           
ram:0001c1ea    fff733be        b.w         FUN_0001be54                            ;undefined FUN_0001be54(void)
                            LAB_0001c1ee:                 ;XREF[4,0]:   0001c172,0001c186,0001c1e0,0001c1e4
ram:0001c1ee    38bd            pop         {r3,r4,r5,pc}                           
                            DAT_0001c1f0:                 ;XREF[1,0]:   0001c15a
ram:0001c1f0    00b00040        undefined4  4000B000h                               
                            DAT_0001c1f4:                 ;XREF[1,0]:   0001c164
ram:0001c1f4    e81f0020        undefined4  20001FE8h                               
                            DAT_0001c1f8:                 ;XREF[1,0]:   0001c188
ram:0001c1f8    ec200020        undefined4  200020ECh                               
                            DAT_0001c1fc:                 ;XREF[2,0]:   0001c192,0001c1bc
ram:0001c1fc    00006140        undefined4  40610000h                               
                            DAT_0001c200:                 ;XREF[1,0]:   0001c198
ram:0001c200    00400345        undefined4  45034000h                               
                            DAT_0001c204:                 ;XREF[1,0]:   0001c19e
ram:0001c204    d0200020        undefined4  200020D0h                               
                            DAT_0001c208:                 ;XREF[1,0]:   0001c1c2
ram:0001c208    0000c842        undefined4  42C80000h                               
                            DAT_0001c20c:                 ;XREF[1,0]:   0001c1c8
ram:0001c20c    ec1f0020        undefined4  20001FECh                               
                            ;************************************************************************************************
                            ;*                                           FUNCTION                                           *
                            ;************************************************************************************************
                            ;undefined FUN_0001c210(undefined4 param_1, uint param_2, undefined4 param_3)
          ;param_1       undefined4          r0                      
          ;param_2       uint                r1                      
          ;param_3       undefined4          r2                      
          ;local_9       undefined1          -9                      ;XREF[2,0]:   0001c222,0001c244
                                                          ;XREF[1,0]:   0001c2d6
ram:0001c210    07b5            push        {param_1,param_2,param_3,lr}            
ram:0001c212    0df10700        add.w       param_1,sp,#0x7                         
ram:0001c216    fdf739ff        bl          FUN_0001a08c                            ;uint FUN_0001a08c(byte * param_1, ui...
ram:0001c21a    08b1            cbz         param_1,LAB_0001c220                    
ram:0001c21c    fdf77ef8        bl          FUN_0001931c                            ;undefined FUN_0001931c(void)
                            LAB_0001c220:                 ;XREF[1,0]:   0001c21a
ram:0001c220    0d4b            ldr         r3=>DAT_200020ce,[DAT_0001c258]         ;= 200020CEh
ram:0001c222    9df80700        ldrb.w      param_1,[sp,#local_9+0x10]              
ram:0001c226    1a78            ldrb        param_3,[r3,#0x0]=>DAT_200020ce         
ram:0001c228    0c49            ldr         param_2,[DAT_0001c25c]                  ;= 4000B140h
ram:0001c22a    012a            cmp         param_3,#0x1                            
ram:0001c22c    9dbf            ittte       ls                                      
ram:0001c22e    1203            lsl.ls      param_3,param_3,#0xc                    
ram:0001c230    02f14022        add.ls.w    param_3,param_3,#0x40004000             
ram:0001c234    02f58032        add.ls.w    param_3,param_3,#0x10000                
ram:0001c238    0022            mov.hi      param_3,#0x0                            
ram:0001c23a    fdf75bff        bl          FUN_0001a0f4                            ;undefined4 FUN_0001a0f4(uint param_1...
ram:0001c23e    08b1            cbz         param_1,LAB_0001c244                    
ram:0001c240    fdf76cf8        bl          FUN_0001931c                            ;undefined FUN_0001931c(void)
                            LAB_0001c244:                 ;XREF[1,0]:   0001c23e
ram:0001c244    9df80700        ldrb.w      param_1,[sp,#local_9+0x10]              
ram:0001c248    fdf774ff        bl          FUN_0001a134                            ;undefined4 FUN_0001a134(uint param_1)
ram:0001c24c    08b1            cbz         param_1,LAB_0001c252                    
ram:0001c24e    fdf765f8        bl          FUN_0001931c                            ;undefined FUN_0001931c(void)
                            LAB_0001c252:                 ;XREF[1,0]:   0001c24c
ram:0001c252    03b0            add         sp,#0xc                                 
ram:0001c254    5df804fb        pop.w       pc                                      
                            DAT_0001c258:                 ;XREF[1,0]:   0001c220
ram:0001c258    ce200020        undefined4  200020CEh                               
                            DAT_0001c25c:                 ;XREF[1,0]:   0001c228
ram:0001c25c    40b10040        undefined4  4000B140h                               
                            ;************************************************************************************************
                            ;*                                           FUNCTION                                           *
                            ;************************************************************************************************
                            ;undefined FUN_0001c260(undefined4 param_1, undefined4 param_2, undefined4 param_3, undefined4 param_4)
          ;param_1       undefined4          r0                      
          ;param_2       undefined4          r1                      
          ;param_3       undefined4          r2                      
          ;param_4       undefined4          r3                      
          ;local_9       undefined1          -9                      ;XREF[1,0]:   0001c278
          ;local_a       undefined1          -a                      ;XREF[1,0]:   0001c270
          ;local_b       undefined1          -b                      ;XREF[1,0]:   0001c274
          ;local_c       undefined1          -c                      ;XREF[1,0]:   0001c28a
          ;local_10      undefined4         -10                      ;XREF[1,0]:   0001c288
          ;local_14      undefined1         -14                      ;XREF[1,0]:   0001c27c
          ;local_18      undefined4         -18                      ;XREF[1,0]:   0001c286
                                                          ;XREF[1,0]:   0001c2de
ram:0001c260    1fb5            push        {param_1,param_2,param_3,param_4,r4,lr} 
ram:0001c262    1022            movs        param_3,#0x10                           
ram:0001c264    0021            movs        param_2,#0x0                            
ram:0001c266    6846            mov         param_1,sp                              
ram:0001c268    00f0b7f9        bl          FUN_0001c5da                            ;undefined FUN_0001c5da(undefined * p...
ram:0001c26c    0123            movs        param_4,#0x1                            
ram:0001c26e    0022            movs        param_3,#0x0                            
ram:0001c270    8df80e30        strb.w      param_4,[sp,#local_a+0x18]              
ram:0001c274    8df80d30        strb.w      param_4,[sp,#local_b+0x18]              
ram:0001c278    8df80f30        strb.w      param_4,[sp,#local_9+0x18]              
ram:0001c27c    8df80430        strb.w      param_4,[sp,#local_14+0x18]             
ram:0001c280    6946            mov         param_2,sp                              
ram:0001c282    6423            movs        param_4,#0x64                           
ram:0001c284    0648            ldr         param_1,[DAT_0001c2a0]                  ;= 20001FACh
ram:0001c286    0092            str         param_3,[sp,#0x0]=>local_18             
ram:0001c288    0292            str         param_3,[sp,#local_10+0x18]             
ram:0001c28a    8df80c30        strb.w      param_4,[sp,#local_c+0x18]              
ram:0001c28e    fff7d9fc        bl          FUN_0001bc44                            ;int FUN_0001bc44(undefined4 * param_...
ram:0001c292    08b1            cbz         param_1,LAB_0001c298                    
ram:0001c294    fdf742f8        bl          FUN_0001931c                            ;undefined FUN_0001931c(void)
                            LAB_0001c298:                 ;XREF[1,0]:   0001c292
ram:0001c298    05b0            add         sp,#0x14                                
ram:0001c29a    5df804fb        pop.w       pc                                      
                            DAT_0001c2a0:                 ;XREF[1,0]:   0001c284
ram:0001c2a0    ac1f0020        undefined4  20001FACh                               
                            ;************************************************************************************************
                            ;*                                           FUNCTION                                           *
                            ;************************************************************************************************
                            ;undefined FUN_0001c2a4(void)
                                                          ;XREF[1,0]:   0001c2d2
ram:0001c2a4    08b5            push        {r3,lr}                                 
ram:0001c2a6    0722            movs        r2,#0x7                                 
ram:0001c2a8    0449            ldr         r1=>LAB_0001c158...,[PTR_LAB_0001c158...;= 0001c159
ram:0001c2aa    0548            ldr         r0=>DAT_200020ce,[DAT_0001c2c0]         ;= 200020CEh
ram:0001c2ac    fdf7a6ff        bl          FUN_0001a1fc                            ;undefined4 FUN_0001a1fc(undefined * ...
ram:0001c2b0    18b1            cbz         r0,LAB_0001c2ba                         
ram:0001c2b2    bde80840        pop.w       {r3,lr}                                 
ram:0001c2b6    fdf731b8        b.w         FUN_0001931c                            ;undefined FUN_0001931c(void)
                            LAB_0001c2ba:                 ;XREF[1,0]:   0001c2b0
ram:0001c2ba    08bd            pop         {r3,pc}                                 
                            PTR_LAB_0001c158+1+1_0001c2bc:;XREF[1,0]:   0001c2a8
ram:0001c2bc    59c10100        addr        LAB_0001c158+1+1                        
                            DAT_0001c2c0:                 ;XREF[1,0]:   0001c2aa
ram:0001c2c0    ce200020        undefined4  200020CEh                               
                            ;************************************************************************************************
                            ;*                                           FUNCTION                                           *
                            ;************************************************************************************************
                            ;undefined FUN_0001c2c4(void)
          ;local_9       undefined1          -9                      
          ;local_a       undefined1          -a                      
          ;local_b       undefined1          -b                      
          ;local_c       undefined1          -c                      
          ;local_10      undefined4         -10                      
          ;local_14      undefined1         -14                      
          ;local_18      undefined4         -18                      
                                                          ;XREF[1,0]:   0001c4fc
ram:0001c2c4    08b5            push        {r3,lr}                                 
ram:0001c2c6    4ff0a043        mov.w       r3,#0x50000000                          
ram:0001c2ca    4ff40032        mov.w       r2,#0x20000                             
ram:0001c2ce    c3f84027        str.w       r2,[r3,#offset DAT_50000740 &0xffff]    
ram:0001c2d2    fff7e7ff        bl          FUN_0001c2a4                            ;undefined FUN_0001c2a4(void)
ram:0001c2d6    fff79bff        bl          FUN_0001c210                            ;undefined FUN_0001c210(undefined4 pa...
ram:0001c2da    bde80840        pop.w       {r3,lr}                                 
ram:0001c2de    fff7bfbf        b.w         FUN_0001c260                            ;undefined FUN_0001c260(undefined4 pa...
                            ;************************************************************************************************
                            ;*                                           FUNCTION                                           *
                            ;************************************************************************************************
                            ;undefined FUN_0001c2e4(undefined4 param_1, undefined4 param_2, undefined4 param_3)
          ;param_1       undefined4          r0                      
          ;param_2       undefined4          r1                      
          ;param_3       undefined4          r2                      
          ;local_28      undefined4         -28                      ;XREF[1,0]:   0001c418
          ;local_40      undefined4         -40                      ;XREF[1,0]:   0001c416
          ;local_44      undefined4         -44                      ;XREF[1,0]:   0001c40e
          ;local_50      undefined1         -50                      ;XREF[1,0]:   0001c406
          ;local_90      undefined1         -90                      ;XREF[1,0]:   0001c48a
          ;local_b4      undefined4         -b4                      ;XREF[1,0]:   0001c4d6
          ;local_b8      undefined4         -b8                      ;XREF[1,0]:   0001c4ca
          ;local_bc      undefined1         -bc                      ;XREF[1,0]:   0001c4c2
          ;local_be      undefined2         -be                      ;XREF[1,0]:   0001c4ba
          ;local_c0      undefined1         -c0                      ;XREF[1,0]:   0001c4d0
          ;local_c4      undefined4         -c4                      ;XREF[1,0]:   0001c4c8
          ;local_c8      undefined4         -c8                      ;XREF[2,1]:   0001c3b8,0001c4b8,0001c3c2
          ;local_cc      undefined4         -cc                      ;XREF[4,3]:   0001c316,0001c3ac,0001c3ec,0001c4b6,0001c3b2
                                                                     ;             0001c3f8,0001c3fc
          ;local_d8      undefined4         -d8                      ;XREF[4,0]:   0001c364,0001c378,0001c430,0001c446
          ;local_dc      undefined4         -dc                      ;XREF[1,0]:   0001c434
                                                          ;XREF[1,0]:   000192b6
ram:0001c2e4    2de9f043        push        {r4,r5,r6,r7,r8,r9,lr}                  
ram:0001c2e8    b1b0            sub         sp,#0xc4                                
ram:0001c2ea    fff7bbfa        bl          FUN_0001b864                            ;undefined * FUN_0001b864(void)
ram:0001c2ee    08b1            cbz         param_1,LAB_0001c2f4                    
ram:0001c2f0    fdf714f8        bl          FUN_0001931c                            ;undefined FUN_0001931c(void)
                            LAB_0001c2f4:                 ;XREF[1,0]:   0001c2ee
ram:0001c2f4    fdf728fa        bl          FUN_00019748                            ;undefined FUN_00019748(void)
ram:0001c2f8    08b1            cbz         param_1,LAB_0001c2fe                    
ram:0001c2fa    fdf70ff8        bl          FUN_0001931c                            ;undefined FUN_0001931c(void)
                            LAB_0001c2fe:                 ;XREF[1,0]:   0001c2f8
ram:0001c2fe    fdf741fb        bl          FUN_00019984                            ;undefined4 FUN_00019984(void)
ram:0001c302    08b1            cbz         param_1,LAB_0001c308                    
ram:0001c304    fdf70af8        bl          FUN_0001931c                            ;undefined FUN_0001931c(void)
                            LAB_0001c308:                 ;XREF[1,0]:   0001c302
ram:0001c308    fff790fb        bl          FUN_0001ba2c                            ;uint FUN_0001ba2c(uint param_1, unde...
ram:0001c30c    08b1            cbz         param_1,LAB_0001c312                    
ram:0001c30e    fdf705f8        bl          FUN_0001931c                            ;undefined FUN_0001931c(void)
                            LAB_0001c312:                 ;XREF[1,0]:   0001c30c
ram:0001c312    30ac            add         r4,sp,#0xc0                             
ram:0001c314    0023            movs        r3,#0x0                                 
ram:0001c316    44f8ac3d        str.w       r3,[r4,#-0xac]!=>local_cc               
ram:0001c31a    0120            movs        param_1,#0x1                            
ram:0001c31c    2146            mov         param_2,r4                              
ram:0001c31e    fff70bfc        bl          FUN_0001bb38                            ;undefined4 FUN_0001bb38(byte param_1...
ram:0001c322    08b1            cbz         param_1,LAB_0001c328                    
ram:0001c324    fcf7faff        bl          FUN_0001931c                            ;undefined FUN_0001931c(void)
                            LAB_0001c328:                 ;XREF[1,0]:   0001c322
ram:0001c328    2046            mov         param_1,r4                              
ram:0001c32a    fff75bfc        bl          FUN_0001bbe4                            ;undefined FUN_0001bbe4(void)
ram:0001c32e    08b1            cbz         param_1,LAB_0001c334                    
ram:0001c330    fcf7f4ff        bl          FUN_0001931c                            ;undefined FUN_0001931c(void)
                            LAB_0001c334:                 ;XREF[1,0]:   0001c32e
ram:0001c334    03ae            add         r6,sp,#0xc                              
ram:0001c336    3046            mov         param_1,r6                              
ram:0001c338    fff762fd        bl          FUN_0001be00                            ;undefined FUN_0001be00(void)
ram:0001c33c    1422            movs        param_3,#0x14                           
ram:0001c33e    0021            movs        param_2,#0x0                            
ram:0001c340    7148            ldr         param_1,[DAT_0001c508]                  ;= 20001FD0h
ram:0001c342    dff8c481        ldr.w       r8,[DAT_0001c508]                       ;= 20001FD0h
ram:0001c346    714f            ldr         r7,[PTR_DAT_0001c50c]                   ;= 0001d577
ram:0001c348    00f047f9        bl          FUN_0001c5da                            ;undefined FUN_0001c5da(undefined * p...
ram:0001c34c    0625            movs        r5,#0x6                                 
ram:0001c34e    6ff00109        mvn         r9,#0x1                                 
                            LAB_0001c352:                 ;XREF[1,0]:   0001c362
ram:0001c352    09fb0580        mla         param_1,r9,r5,r8                        
ram:0001c356    725d            ldrb        param_3,[r6,r5]                         
ram:0001c358    3946            mov         param_2=>DAT_0001d577,r7                ;= 25h    %
ram:0001c35a    0c30            adds        param_1,#0xc                            
ram:0001c35c    00f046f9        bl          FUN_0001c5ec                            ;undefined FUN_0001c5ec(undefined * p...
ram:0001c360    013d            subs        r5,#0x1                                 
ram:0001c362    f6d1            bne         LAB_0001c352                            
ram:0001c364    9df80830        ldrb.w      r3,[sp,#local_d8+0xe0]                  
ram:0001c368    6949            ldr         param_2,[DAT_0001c510]                  ;= 20001FD8h
ram:0001c36a    6a48            ldr         param_1,[DAT_0001c514]                  ;= 20001FE4h
ram:0001c36c    0122            movs        param_3,#0x1                            
ram:0001c36e    62f30303        bfi         r3,param_3,#0x0,#0x4                    
ram:0001c372    30ad            add         r5,sp,#0xc0                             
ram:0001c374    62f30713        bfi         r3,param_3,#0x4,#0x4                    
ram:0001c378    05f8b83d        strb.w      r3,[r5,#-0xb8]!=>local_d8               
ram:0001c37c    00f05af9        bl          FUN_0001c634                            ;undefined FUN_0001c634(char * param_...
ram:0001c380    644a            ldr         param_3,[DAT_0001c514]                  ;= 20001FE4h
ram:0001c382    6549            ldr         param_2=>s_Band_...,[PTR_s_Band_%s_00...;= "Band %s"
                                                                                    ;= 0001d57c
ram:0001c384    6548            ldr         param_1,[DAT_0001c51c]                  ;= 200020C4h
ram:0001c386    00f031f9        bl          FUN_0001c5ec                            ;undefined FUN_0001c5ec(undefined * p...
ram:0001c38a    6448            ldr         param_1,[DAT_0001c51c]                  ;= 200020C4h
ram:0001c38c    00f05af9        bl          FUN_0001c644                            ;char * FUN_0001c644(char * param_1)
ram:0001c390    6249            ldr         param_2,[DAT_0001c51c]                  ;= 200020C4h
ram:0001c392    82b2            uxth        param_3,param_1                         
ram:0001c394    2846            mov         param_1,r5                              
ram:0001c396    fff73bfd        bl          FUN_0001be10                            ;undefined FUN_0001be10(void)
ram:0001c39a    08b1            cbz         param_1,LAB_0001c3a0                    
ram:0001c39c    fcf7beff        bl          FUN_0001931c                            ;undefined FUN_0001931c(void)
                            LAB_0001c3a0:                 ;XREF[1,0]:   0001c39a
ram:0001c3a0    0822            movs        param_3,#0x8                            
ram:0001c3a2    0021            movs        param_2,#0x0                            
ram:0001c3a4    2046            mov         param_1,r4                              
ram:0001c3a6    00f018f9        bl          FUN_0001c5da                            ;undefined FUN_0001c5da(undefined * p...
ram:0001c3aa    5023            movs        r3,#0x50                                
ram:0001c3ac    adf81430        strh.w      r3,[sp,#local_cc+0xe0]                  
ram:0001c3b0    6823            movs        r3,#0x68                                
ram:0001c3b2    adf81630        strh.w      r3,[sp,#local_cc+0xe2]                  
ram:0001c3b6    0923            movs        r3,#0x9                                 
ram:0001c3b8    adf81830        strh.w      r3,[sp,#local_c8+0xe0]                  
ram:0001c3bc    2046            mov         param_1,r4                              
ram:0001c3be    4ff4c873        mov.w       r3,#0x190                               
ram:0001c3c2    adf81a30        strh.w      r3,[sp,#local_c8+0xe2]                  
ram:0001c3c6    fff721fd        bl          FUN_0001be0c                            ;undefined FUN_0001be0c(void)
ram:0001c3ca    08b1            cbz         param_1,LAB_0001c3d0                    
ram:0001c3cc    fcf7a6ff        bl          FUN_0001931c                            ;undefined FUN_0001931c(void)
                            LAB_0001c3d0:                 ;XREF[1,0]:   0001c3ca
ram:0001c3d0    0021            movs        param_2,#0x0                            
ram:0001c3d2    5348            ldr         param_1,[DAT_0001c520]                  ;= 200020A8h
ram:0001c3d4    fef7fffe        bl          FUN_0001b1d6                            ;undefined4 FUN_0001b1d6(undefined2 *...
ram:0001c3d8    08b1            cbz         param_1,LAB_0001c3de                    
ram:0001c3da    fcf79fff        bl          FUN_0001931c                            ;undefined FUN_0001931c(void)
                            LAB_0001c3de:                 ;XREF[1,0]:   0001c3d8
ram:0001c3de    ac22            movs        param_3,#0xac                           
ram:0001c3e0    0021            movs        param_2,#0x0                            
ram:0001c3e2    2046            mov         param_1,r4                              
ram:0001c3e4    00f0f9f8        bl          FUN_0001c5da                            ;undefined FUN_0001c5da(undefined * p...
ram:0001c3e8    0026            movs        r6,#0x0                                 
ram:0001c3ea    0223            movs        r3,#0x2                                 
ram:0001c3ec    8df81430        strb.w      r3,[sp,#local_cc+0xe0]                  
ram:0001c3f0    3146            mov         param_2,r6                              
ram:0001c3f2    0623            movs        r3,#0x6                                 
ram:0001c3f4    2c22            movs        param_3,#0x2c                           
ram:0001c3f6    23a8            add         param_1,sp,#0x8c                        
ram:0001c3f8    8df81730        strb.w      r3,[sp,#local_cc+0xe3]                  
ram:0001c3fc    8df81660        strb.w      r6,[sp,#local_cc+0xe2]                  
ram:0001c400    00f0ebf8        bl          FUN_0001c5da                            ;undefined FUN_0001c5da(undefined * p...
ram:0001c404    0123            movs        r3,#0x1                                 
ram:0001c406    8df89030        strb.w      r3,[sp,#local_50+0xe0]                  
ram:0001c40a    4ff44873        mov.w       r3,#0x320                               
ram:0001c40e    2793            str         r3,[sp,#local_44+0xe0]                  
ram:0001c410    2146            mov         param_2,r4                              
ram:0001c412    444b            ldr         r3=>LAB_0001be66...,[PTR_LAB_0001be66...;= 0001be67
ram:0001c414    4448            ldr         param_1,[DAT_0001c528]                  ;= 20001FF0h
ram:0001c416    2896            str         r6,[sp,#local_40+0xe0]                  
ram:0001c418    2e93            str         r3=>LAB_0001be66+1+1,[sp,#local_28+0xe0]
ram:0001c41a    fef7e8f9        bl          FUN_0001a7ee                            ;int FUN_0001a7ee(char * param_1, sho...
ram:0001c41e    08b1            cbz         param_1,LAB_0001c424                    
ram:0001c420    fcf77cff        bl          FUN_0001931c                            ;undefined FUN_0001931c(void)
                            LAB_0001c424:                 ;XREF[1,0]:   0001c41e
ram:0001c424    0121            movs        param_2,#0x1                            
ram:0001c426    4048            ldr         param_1,[DAT_0001c528]                  ;= 20001FF0h
ram:0001c428    fef7def9        bl          FUN_0001a7e8                            ;undefined FUN_0001a7e8(int param_1, ...
ram:0001c42c    0023            movs        r3,#0x0                                 
ram:0001c42e    30a9            add         param_2,sp,#0xc0                        
ram:0001c430    0293            str         r3,[sp,#local_d8+0xe0]                  
ram:0001c432    3e4b            ldr         r3=>thunk_FUN_00...,[PTR_thunk_FUN_00...;= 0001bfc9
ram:0001c434    41f8bc3d        str.w       r3=>thunk_FUN_00...,[param_2,#-0xbc]!...
ram:0001c438    3d48            ldr         param_1,[DAT_0001c530]                  ;= 200020B8h
ram:0001c43a    fef761ff        bl          FUN_0001b300                            ;undefined4 FUN_0001b300(char * param...
ram:0001c43e    08b1            cbz         param_1,LAB_0001c444                    
ram:0001c440    fcf76cff        bl          FUN_0001931c                            ;undefined FUN_0001931c(void)
                            LAB_0001c444:                 ;XREF[1,0]:   0001c43e
ram:0001c444    3b4b            ldr         r3,[PTR_FUN_0001bfcc+1_0001c534]        ;= 0001bfcd
ram:0001c446    0293            str         r3,[sp,#local_d8+0xe0]                  
ram:0001c448    2846            mov         param_1,r5                              
ram:0001c44a    fff78df9        bl          FUN_0001b768                            ;int FUN_0001b768(int * param_1)
ram:0001c44e    08b1            cbz         param_1,LAB_0001c454                    
ram:0001c450    fcf764ff        bl          FUN_0001931c                            ;undefined FUN_0001931c(void)
                            LAB_0001c454:                 ;XREF[1,0]:   0001c44e
ram:0001c454    4022            movs        param_3,#0x40                           
ram:0001c456    0021            movs        param_2,#0x0                            
ram:0001c458    2046            mov         param_1,r4                              
ram:0001c45a    00f0bef8        bl          FUN_0001c5da                            ;undefined FUN_0001c5da(undefined * p...
ram:0001c45e    3649            ldr         param_2=>s_Crewb...,[PTR_s_Crewbands_...;= "Crewbands GmbH"
                                                                                    ;= 0001d584
ram:0001c460    2046            mov         param_1,r4                              
ram:0001c462    fef7bafd        bl          FUN_0001afda                            ;undefined FUN_0001afda(undefined2 * ...
ram:0001c466    3549            ldr         param_2=>s_Band1...,[PTR_s_Band1_0001...;= "Band1"
                                                                                    ;= 0001d593
ram:0001c468    07a8            add         param_1,sp,#0x1c                        
ram:0001c46a    fef7b6fd        bl          FUN_0001afda                            ;undefined FUN_0001afda(undefined2 * ...
ram:0001c46e    2649            ldr         param_2,[DAT_0001c508]                  ;= 20001FD0h
ram:0001c470    09a8            add         param_1,sp,#0x24                        
ram:0001c472    fef7b2fd        bl          FUN_0001afda                            ;undefined FUN_0001afda(undefined2 * ...
ram:0001c476    3249            ldr         param_2=>s_1.0.0...,[PTR_s_1.0.0_0001...;= "1.0.0"
                                                                                    ;= 0001d599
ram:0001c478    0ba8            add         param_1,sp,#0x2c                        
ram:0001c47a    fef7aefd        bl          FUN_0001afda                            ;undefined FUN_0001afda(undefined2 * ...
ram:0001c47e    0da8            add         param_1,sp,#0x34                        
ram:0001c480    2f49            ldr         param_2=>s_1.0.0...,[PTR_s_1.0.0_0001...;= "1.0.0"
                                                                                    ;= 0001d599
ram:0001c482    fef7aafd        bl          FUN_0001afda                            ;undefined FUN_0001afda(undefined2 * ...
ram:0001c486    0123            movs        r3,#0x1                                 
ram:0001c488    2046            mov         param_1,r4                              
ram:0001c48a    8df85030        strb.w      r3,[sp,#local_90+0xe0]                  
ram:0001c48e    fef7d3ff        bl          FUN_0001b438                            ;int FUN_0001b438(ushort * param_1)
ram:0001c492    08b1            cbz         param_1,LAB_0001c498                    
ram:0001c494    fcf742ff        bl          FUN_0001931c                            ;undefined FUN_0001931c(void)
                            LAB_0001c498:                 ;XREF[1,0]:   0001c492
ram:0001c498    2a49            ldr         param_2,[PTR_LAB_0001be68+1+1_0001c544] ;= 0001be69
ram:0001c49a    2b48            ldr         param_1,[DAT_0001c548]                  ;= 20001FC0h
ram:0001c49c    fff7c8fd        bl          FUN_0001c030                            ;int FUN_0001c030(ushort * param_1, u...
ram:0001c4a0    08b1            cbz         param_1,LAB_0001c4a6                    
ram:0001c4a2    fcf73bff        bl          FUN_0001931c                            ;undefined FUN_0001931c(void)
                            LAB_0001c4a6:                 ;XREF[1,0]:   0001c4a0
ram:0001c4a6    1c22            movs        param_3,#0x1c                           
ram:0001c4a8    0021            movs        param_2,#0x0                            
ram:0001c4aa    2046            mov         param_1,r4                              
ram:0001c4ac    00f095f8        bl          FUN_0001c5da                            ;undefined FUN_0001c5da(undefined * p...
ram:0001c4b0    0023            movs        r3,#0x0                                 
ram:0001c4b2    4ff40042        mov.w       param_3,#0x8000                         
ram:0001c4b6    0593            str         r3,[sp,#local_cc+0xe0]                  
ram:0001c4b8    0692            str         param_3,[sp,#local_c8+0xe0]             
                                                          ;XREF[0,1]:   0001c578
ram:0001c4ba    adf82230        strh.w      r3,[sp,#local_be+0xe0]                  
ram:0001c4be    4ff48032        mov.w       param_3,#0x10000                        
ram:0001c4c2    8df82430        strb.w      r3,[sp,#local_bc+0xe0]                  
ram:0001c4c6    214b            ldr         r3,[PTR_LAB_0001bf04+1+1_0001c54c]      ;= 0001bf05
ram:0001c4c8    0792            str         param_3,[sp,#local_c4+0xe0]             
ram:0001c4ca    0a93            str         r3,[sp,#local_b8+0xe0]                  
ram:0001c4cc    0222            movs        param_3,#0x2                            
ram:0001c4ce    204b            ldr         r3,[PTR_thunk_FUN_0001931c+1_0001c550]  ;= 0001be73
ram:0001c4d0    8df82020        strb.w      param_3,[sp,#local_c0+0xe0]             
ram:0001c4d4    2046            mov         param_1,r4                              
ram:0001c4d6    0b93            str         r3,[sp,#local_b4+0xe0]                  
ram:0001c4d8    fef740fc        bl          FUN_0001ad5c                            ;int FUN_0001ad5c(int * param_1)
ram:0001c4dc    08b1            cbz         param_1,LAB_0001c4e2                    
ram:0001c4de    fcf71dff        bl          FUN_0001931c                            ;undefined FUN_0001931c(void)
                            LAB_0001c4e2:                 ;XREF[1,0]:   0001c4dc
ram:0001c4e2    0321            movs        param_2,#0x3                            
ram:0001c4e4    1048            ldr         param_1,[DAT_0001c528]                  ;= 20001FF0h
ram:0001c4e6    fef7f2f9        bl          FUN_0001a8ce                            ;int FUN_0001a8ce(char * param_1, int...
ram:0001c4ea    08b1            cbz         param_1,LAB_0001c4f0                    
ram:0001c4ec    fcf716ff        bl          FUN_0001931c                            ;undefined FUN_0001931c(void)
                            LAB_0001c4f0:                 ;XREF[1,0]:   0001c4ea
ram:0001c4f0    0120            movs        param_1,#0x1                            
ram:0001c4f2    fff7b1fc        bl          FUN_0001be58                            ;undefined FUN_0001be58(void)
ram:0001c4f6    08b1            cbz         param_1,LAB_0001c4fc                    
ram:0001c4f8    fcf710ff        bl          FUN_0001931c                            ;undefined FUN_0001931c(void)
                            LAB_0001c4fc:                 ;XREF[1,0]:   0001c4f6
ram:0001c4fc    fff7e2fe        bl          FUN_0001c2c4                            ;undefined FUN_0001c2c4(void)
                            LAB_0001c500:                 ;XREF[1,0]:   0001c504
ram:0001c500    fdf756fa        bl          FUN_000199b0                            ;undefined FUN_000199b0(void)
ram:0001c504    fce7            b           LAB_0001c500                            
ram:0001c506    00bf            nop                                                  
                            DAT_0001c508:                 ;XREF[3,0]:   0001c340,0001c342,0001c46e
ram:0001c508    d01f0020        undefined4  20001FD0h                               
                            PTR_DAT_0001c50c:             ;XREF[1,0]:   0001c346
ram:0001c50c    77d50100        addr        DAT_0001d577                            ;= 25h    %
                            DAT_0001c510:                 ;XREF[1,0]:   0001c368
ram:0001c510    d81f0020        undefined4  20001FD8h                               
                            DAT_0001c514:                 ;XREF[2,0]:   0001c36a,0001c380
ram:0001c514    e41f0020        undefined4  20001FE4h                               
                            PTR_s_Band_%s_0001c518:       ;XREF[1,0]:   0001c382
ram:0001c518    7cd50100        addr        s_Band_%s_0001d57c                      ;= "Band %s"
                            DAT_0001c51c:                 ;XREF[3,0]:   0001c384,0001c38a,0001c390
ram:0001c51c    c4200020        undefined4  200020C4h                               
                            DAT_0001c520:                 ;XREF[1,0]:   0001c3d2
ram:0001c520    a8200020        undefined4  200020A8h                               
                            PTR_LAB_0001be66+1+1_0001c524:;XREF[1,0]:   0001c412
ram:0001c524    67be0100        addr        LAB_0001be66+1+1                        
                            DAT_0001c528:                 ;XREF[3,0]:   0001c414,0001c426,0001c4e4
ram:0001c528    f01f0020        undefined4  20001FF0h                               
                            PTR_thunk_FUN_0001931c+1_00...;XREF[1,0]:   0001c432
ram:0001c52c    c9bf0100        addr        thunk_FUN_0001931c+1                    
                            DAT_0001c530:                 ;XREF[1,0]:   0001c438
ram:0001c530    b8200020        undefined4  200020B8h                               
                            PTR_FUN_0001bfcc+1_0001c534:  ;XREF[1,0]:   0001c444
ram:0001c534    cdbf0100        addr        FUN_0001bfcc+1                          
                            PTR_s_Crewbands_GmbH_0001c538:;XREF[1,0]:   0001c45e
ram:0001c538    84d50100        addr        s_Crewbands_GmbH_0001d584               ;= "Crewbands GmbH"
                            PTR_s_Band1_0001c53c:         ;XREF[1,0]:   0001c466
ram:0001c53c    93d50100        addr        s_Band1_0001d593                        ;= "Band1"
                            PTR_s_1.0.0_0001c540:         ;XREF[2,0]:   0001c476,0001c480
ram:0001c540    99d50100        addr        s_1.0.0_0001d599                        ;= "1.0.0"
                            PTR_LAB_0001be68+1+1_0001c544:;XREF[1,0]:   0001c498
ram:0001c544    69be0100        addr        LAB_0001be68+1+1                        
                            DAT_0001c548:                 ;XREF[1,0]:   0001c49a
ram:0001c548    c01f0020        undefined4  20001FC0h                               
                            PTR_LAB_0001bf04+1+1_0001c54c:;XREF[1,0]:   0001c4c6
ram:0001c54c    05bf0100        addr        LAB_0001bf04+1+1                        
                            PTR_thunk_FUN_0001931c+1_00...;XREF[1,0]:   0001c4ce
ram:0001c550    73be0100        addr        thunk_FUN_0001931c+1                    
                            ;************************************************************************************************
                            ;*                                           FUNCTION                                           *
                            ;************************************************************************************************
                            ;undefined FUN_0001c554(undefined4 param_1, undefined4 param_2, undefined4 param_3, undefined4 param_4)
          ;param_1       undefined4          r0                      
          ;param_2       undefined4          r1                      
          ;param_3       undefined4          r2                      
          ;param_4       undefined4          r3                      
                                                          ;XREF[1,0]:   000192ba
ram:0001c554    08b5            push        {param_4,lr}                            
ram:0001c556    074b            ldr         param_4,[LAB_0001c574]                  
ram:0001c558    0446            mov         r4,param_1                              
ram:0001c55a    13b1            cbz         param_4,LAB_0001c562                    
ram:0001c55c    0021            movs        param_2,#0x0                            
ram:0001c55e    aff30080        nop.w                                                
                            LAB_0001c562:                 ;XREF[1,0]:   0001c55a
ram:0001c562    054b            ldr         param_4,[LAB_0001c578]                  
ram:0001c564    1868            ldr         param_1,[param_4,#0x0]=>DAT_0001d5a0    ;= 20001C24h
ram:0001c566    836a            ldr         param_4,[param_1,#0x28]=>DAT_20001c4c   
ram:0001c568    03b1            cbz         param_4,LAB_0001c56c                    
ram:0001c56a    9847            blx         param_4                                 
                            LAB_0001c56c:                 ;XREF[1,0]:   0001c568
ram:0001c56c    2046            mov         param_1,r4                              
ram:0001c56e    00f0bdfc        bl          FUN_0001ceec                            ;undefined FUN_0001ceec(void)
ram:0001c572    00bf            nop                                                  
                            LAB_0001c574:                 ;XREF[1,0]:   0001c556
ram:0001c574    0000            movs        param_1,param_1                         
ram:0001c576    0000            movs        param_1,param_1                         
                            LAB_0001c578:                 ;XREF[1,0]:   0001c562
ram:0001c578    a0d5            bpl         LAB_0001c4ba+2                          
ram:0001c57a    0100            movs        param_2,param_1                         
                            ;************************************************************************************************
                            ;*                                           FUNCTION                                           *
                            ;************************************************************************************************
                            ;undefined FUN_0001c57c(void)
                                                          ;XREF[1,0]:   000192ae
ram:0001c57c    70b5            push        {r4,r5,r6,lr}                           
ram:0001c57e    0d4e            ldr         r6,[DAT_0001c5b4]                       ;= 20001C84h
ram:0001c580    0d4c            ldr         r4,[DAT_0001c5b8]                       ;= 20001C84h
ram:0001c582    a41b            subs        r4,r4,r6                                
ram:0001c584    a410            asrs        r4,r4,#0x2                              
ram:0001c586    0025            movs        r5,#0x0                                 
                            LAB_0001c588:                 ;XREF[1,0]:   0001c5a8
ram:0001c588    a542            cmp         r5,r4                                   
ram:0001c58a    09d1            bne         LAB_0001c5a0                            
ram:0001c58c    0b4e            ldr         r6,[DAT_0001c5bc]                       ;= 20001C84h
ram:0001c58e    0c4c            ldr         r4,[DAT_0001c5c0]                       ;= 20001C88h
ram:0001c590    00f0a8ff        bl          FUN_0001d4e4                            ;undefined FUN_0001d4e4(void)
ram:0001c594    a41b            subs        r4,r4,r6                                
ram:0001c596    a410            asrs        r4,r4,#0x2                              
ram:0001c598    0025            movs        r5,#0x0                                 
                            LAB_0001c59a:                 ;XREF[1,0]:   0001c5b2
ram:0001c59a    a542            cmp         r5,r4                                   
ram:0001c59c    05d1            bne         LAB_0001c5aa                            
ram:0001c59e    70bd            pop         {r4,r5,r6,pc}                           
                            LAB_0001c5a0:                 ;XREF[1,0]:   0001c58a
ram:0001c5a0    56f82530        ldr.w       r3,r6=>DAT_20001c84,r5,0x2              
ram:0001c5a4    9847            blx         r3                                      
ram:0001c5a6    0135            adds        r5,#0x1                                 
ram:0001c5a8    eee7            b           LAB_0001c588                            
                            LAB_0001c5aa:                 ;XREF[1,0]:   0001c59c
ram:0001c5aa    56f82530        ldr.w       r3,r6=>DAT_20001c84,r5,0x2              
ram:0001c5ae    9847            blx         r3                                      
ram:0001c5b0    0135            adds        r5,#0x1                                 
ram:0001c5b2    f2e7            b           LAB_0001c59a                            
                            DAT_0001c5b4:                 ;XREF[1,0]:   0001c57e
ram:0001c5b4    841c0020        undefined4  20001C84h                               
                            DAT_0001c5b8:                 ;XREF[1,0]:   0001c580
ram:0001c5b8    841c0020        undefined4  20001C84h                               
                            DAT_0001c5bc:                 ;XREF[1,0]:   0001c58c
ram:0001c5bc    841c0020        undefined4  20001C84h                               
                            DAT_0001c5c0:                 ;XREF[1,0]:   0001c58e
ram:0001c5c0    881c0020        undefined4  20001C88h                               
                            ;************************************************************************************************
                            ;*                                           FUNCTION                                           *
                            ;************************************************************************************************
                            ;undefined FUN_0001c5c4(int param_1, undefined * param_2, int param_3)
          ;param_1       int                 r0                      
          ;param_2       undefined *         r1                      
          ;param_3       int                 r2                      
                                                          ;XREF[6,0]:   0001a41e,0001a584,0001a73e,0001b942
                                                          ;             0001c6b4,0001ce86
ram:0001c5c4    10b5            push        {r4,lr}                                 
ram:0001c5c6    431e            subs        r3,param_1,#0x1                         
ram:0001c5c8    0a44            add         param_3,param_2                         
                            LAB_0001c5ca:                 ;XREF[1,0]:   0001c5d8
ram:0001c5ca    9142            cmp         param_2,param_3                         
ram:0001c5cc    00d1            bne         LAB_0001c5d0                            
ram:0001c5ce    10bd            pop         {r4,pc}                                 
                            LAB_0001c5d0:                 ;XREF[1,0]:   0001c5cc
ram:0001c5d0    11f8014b        ldrb.w      r4,[param_2],#0x1                       
ram:0001c5d4    03f8014f        strb.w      r4,[r3,#0x1]!                           
ram:0001c5d8    f7e7            b           LAB_0001c5ca                            
                            ;************************************************************************************************
                            ;*                                           FUNCTION                                           *
                            ;************************************************************************************************
                            ;undefined FUN_0001c5da(undefined * param_1, undefined param_2, int param_3)
          ;param_1       undefined *         r0                      
          ;param_2       undefined           r1                      
          ;param_3       int                 r2                      
                                                          ;XREF[33,0]:  00019286,0001a862,0001a8e8,0001a98a
                                                          ;             0001b00c,0001b050,0001b064,0001b0a4
                                                          ;             0001b0d0,0001b154,0001b3a2,0001b402
                                                          ;             0001b678,0001b6e6,0001b890,0001bb4e
                                                          ;             0001bb72,0001bb8a,0001bba4,0001bbbe
                                                          ;             0001bc8e,0001bcec,0001bd4c,0001bd86
                                                          ;             0001bfda,0001c082,0001c268,0001c348
                                                          ;             0001c3a6,0001c3e4,0001c400,0001c45a
                                                          ;             0001c4ac
ram:0001c5da    0244            add         param_3,param_1                         
ram:0001c5dc    0346            mov         r3,param_1                              
                            LAB_0001c5de:                 ;XREF[1,0]:   0001c5e8
ram:0001c5de    9342            cmp         r3,param_3                              
ram:0001c5e0    00d1            bne         LAB_0001c5e4                            
ram:0001c5e2    7047            bx          lr                                      
                            LAB_0001c5e4:                 ;XREF[1,0]:   0001c5e0
ram:0001c5e4    03f8011b        strb.w      param_2,[r3],#0x1                       
ram:0001c5e8    f9e7            b           LAB_0001c5de                            
ram:0001c5ea    0000            movs        r0,r0                                   
                            ;************************************************************************************************
                            ;*                                           FUNCTION                                           *
                            ;************************************************************************************************
                            ;undefined FUN_0001c5ec(undefined * param_1, byte * param_2, uint param_3, undefined4 param_4)
          ;param_1       undefined *         r0                      
          ;param_2       byte *              r1                      
          ;param_3       uint                r2                      
          ;param_4       undefined4          r3                      
          ;local_64      undefined4         -64                      ;XREF[1,0]:   0001c608
          ;local_68      undefined4         -68                      ;XREF[1,0]:   0001c5fe
          ;local_6a      undefined2         -6a                      ;XREF[1,0]:   0001c612
          ;local_6c      undefined2         -6c                      ;XREF[1,0]:   0001c5f8
          ;local_70      undefined4         -70                      ;XREF[1,0]:   0001c606
          ;local_78      undefined4         -78                      ;XREF[2,0]:   0001c5fc,0001c620
          ;local_7c      undefined4         -7c                      ;XREF[1,0]:   0001c618
                                                          ;XREF[2,0]:   0001c35c,0001c386
ram:0001c5ec    0eb4            push        {param_2,param_3,param_4}               
ram:0001c5ee    00b5            push        {lr}                                    
ram:0001c5f0    9cb0            sub         sp,#0x70                                
ram:0001c5f2    4ff40271        mov.w       param_2,#0x208                          
ram:0001c5f6    1dab            add         param_4,sp,#0x74                        
ram:0001c5f8    adf81410        strh.w      param_2,[sp,#local_6c+0x80]             
ram:0001c5fc    0290            str         param_1,[sp,#local_78+0x80]             
ram:0001c5fe    0690            str         param_1,[sp,#local_68+0x80]             
ram:0001c600    6ff00041        mvn         param_2,#0x80000000                     
ram:0001c604    0a48            ldr         param_1,[DAT_0001c630]                  ;= 20001C20h
ram:0001c606    0491            str         param_2,[sp,#local_70+0x80]             
ram:0001c608    0791            str         param_2,[sp,#local_64+0x80]             
ram:0001c60a    4ff6ff71        movw        param_2,#0xffff                         
ram:0001c60e    53f8042b        ldr.w       param_3,[param_4],#0x4                  
ram:0001c612    adf81610        strh.w      param_2,[sp,#local_6a+0x80]             
ram:0001c616    0068            ldr         param_1,[param_1,#0x0]=>DAT_20001c20    
ram:0001c618    0193            str         param_4,[sp,#local_7c+0x80]             
ram:0001c61a    02a9            add         param_2,sp,#0x8                         
ram:0001c61c    00f076f8        bl          FUN_0001c70c                            ;int FUN_0001c70c(int * param_1, uint...
ram:0001c620    029b            ldr         param_4,[sp,#local_78+0x80]             
ram:0001c622    0022            movs        param_3,#0x0                            
ram:0001c624    1a70            strb        param_3,[param_4,#0x0]                  
ram:0001c626    1cb0            add         sp,#0x70                                
ram:0001c628    5df804eb        pop.w       lr                                      
ram:0001c62c    03b0            add         sp,#0xc                                 
ram:0001c62e    7047            bx          lr                                      
                            DAT_0001c630:                 ;XREF[1,0]:   0001c604
ram:0001c630    201c0020        undefined4  20001C20h                               
                            ;************************************************************************************************
                            ;*                                           FUNCTION                                           *
                            ;************************************************************************************************
                            ;undefined FUN_0001c634(char * param_1, char * param_2)
          ;param_1       char *              r0                      
          ;param_2       char *              r1                      
                                                          ;XREF[1,0]:   0001c37c
ram:0001c634    0346            mov         r3,param_1                              
                            LAB_0001c636:                 ;XREF[1,0]:   0001c640
ram:0001c636    11f8012b        ldrb.w      r2,[param_2],#0x1                       
ram:0001c63a    03f8012b        strb.w      r2,[r3],#0x1                            
ram:0001c63e    002a            cmp         r2,#0x0                                 
ram:0001c640    f9d1            bne         LAB_0001c636                            
ram:0001c642    7047            bx          lr                                      
                            ;************************************************************************************************
                            ;*                                           FUNCTION                                           *
                            ;************************************************************************************************
                            ;char * FUN_0001c644(char * param_1)
          ;param_1       char *              r0                      
                                                          ;XREF[2,0]:   0001afe2,0001c38c
ram:0001c644    0346            mov         r3,param_1                              
                            LAB_0001c646:                 ;XREF[1,0]:   0001c64c
ram:0001c646    13f8012b        ldrb.w      r2,[r3],#0x1                            
ram:0001c64a    002a            cmp         r2,#0x0                                 
ram:0001c64c    fbd1            bne         LAB_0001c646                            
ram:0001c64e    181a            subs        param_1,r3,param_1                      
ram:0001c650    0138            subs        param_1,#0x1                            
ram:0001c652    7047            bx          lr                                      
                            ;************************************************************************************************
                            ;*                                           FUNCTION                                           *
                            ;************************************************************************************************
                            ;undefined4 FUN_0001c654(int * param_1, int * param_2, undefined * param_3, uint param_4)
          ;param_1       int *               r0                      
          ;param_2       int *               r1                      
          ;param_3       undefined *         r2                      
          ;param_4       uint                r3                      
                                                          ;XREF[1,0]:   0001c76e
ram:0001c654    2de9f047        push        {r4,r5,r6,r7,r8,r9,r10,lr}              
ram:0001c658    8e68            ldr         r6,[param_2,#0x8]                       
ram:0001c65a    9e42            cmp         r6,param_4                              
ram:0001c65c    8246            mov         r10,param_1                             
ram:0001c65e    0c46            mov         r4,param_2                              
ram:0001c660    9146            mov         r9,param_3                              
ram:0001c662    9846            mov         r8,param_4                              
ram:0001c664    35d8            bhi         LAB_0001c6d2                            
ram:0001c666    8a89            ldrh        param_3,[param_2,#0xc]                  
ram:0001c668    12f4906f        tst         param_3,#0x480                          
ram:0001c66c    31d0            beq         LAB_0001c6d2                            
ram:0001c66e    2568            ldr         r5,[r4,#0x0]                            
ram:0001c670    0969            ldr         param_2,[param_2,#0x10]                 
ram:0001c672    6f1a            subs        r7,r5,param_2                           
ram:0001c674    6569            ldr         r5,[r4,#0x14]                           
ram:0001c676    0223            movs        param_4,#0x2                            
ram:0001c678    05eb4505        add.w       r5,r5,r5, lsl #0x1                      
ram:0001c67c    95fbf3f5        sdiv        r5,r5,param_4                           
ram:0001c680    08f10103        add.w       param_4,r8,#0x1                         
ram:0001c684    3b44            add         param_4,r7                              
ram:0001c686    9d42            cmp         r5,param_4                              
ram:0001c688    38bf            it          cc                                      
ram:0001c68a    1d46            mov.cc      r5,param_4                              
ram:0001c68c    5305            lsls        param_4,param_3,#0x15                   
ram:0001c68e    31d5            bpl         LAB_0001c6f4                            
ram:0001c690    2946            mov         param_2,r5                              
ram:0001c692    00f07dfb        bl          FUN_0001cd90                            ;uint FUN_0001cd90(int * param_1, uin...
ram:0001c696    0646            mov         r6,param_1                              
ram:0001c698    50b9            cbnz        param_1,LAB_0001c6b0                    
                            LAB_0001c69a:                 ;XREF[1,0]:   0001c708
ram:0001c69a    0c23            movs        param_4,#0xc                            
ram:0001c69c    caf80030        str.w       param_4,[r10,#0x0]                      
ram:0001c6a0    a389            ldrh        param_4,[r4,#0xc]                       
ram:0001c6a2    43f04003        orr         param_4,param_4,#0x40                   
ram:0001c6a6    a381            strh        param_4,[r4,#0xc]                       
ram:0001c6a8    4ff0ff30        mov.w       param_1,#0xffffffff                     
ram:0001c6ac    bde8f087        pop.w       {r4,r5,r6,r7,r8,r9,r10,pc}              
                            LAB_0001c6b0:                 ;XREF[1,0]:   0001c698
ram:0001c6b0    3a46            mov         param_3,r7                              
ram:0001c6b2    2169            ldr         param_2,[r4,#0x10]                      
ram:0001c6b4    fff786ff        bl          FUN_0001c5c4                            ;undefined FUN_0001c5c4(int param_1, ...
ram:0001c6b8    a389            ldrh        param_4,[r4,#0xc]                       
ram:0001c6ba    23f49063        bic         param_4,param_4,#0x480                  
ram:0001c6be    43f08003        orr         param_4,param_4,#0x80                   
ram:0001c6c2    a381            strh        param_4,[r4,#0xc]                       
                            LAB_0001c6c4:                 ;XREF[1,0]:   0001c6fe
ram:0001c6c4    2661            str         r6,[r4,#0x10]                           
ram:0001c6c6    6561            str         r5,[r4,#0x14]                           
ram:0001c6c8    3e44            add         r6,r7                                   
ram:0001c6ca    ed1b            subs        r5,r5,r7                                
ram:0001c6cc    2660            str         r6,[r4,#0x0]                            
ram:0001c6ce    a560            str         r5,[r4,#0x8]                            
ram:0001c6d0    4646            mov         r6,r8                                   
                            LAB_0001c6d2:                 ;XREF[2,0]:   0001c664,0001c66c
ram:0001c6d2    4645            cmp         r6,r8                                   
ram:0001c6d4    28bf            it          cs                                      
ram:0001c6d6    4646            mov.cs      r6,r8                                   
ram:0001c6d8    3246            mov         param_3,r6                              
ram:0001c6da    4946            mov         param_2,r9                              
ram:0001c6dc    2068            ldr         param_1,[r4,#0x0]                       
ram:0001c6de    00f0effa        bl          FUN_0001ccc0                            ;undefined FUN_0001ccc0(undefined * p...
ram:0001c6e2    a368            ldr         param_4,[r4,#0x8]                       
ram:0001c6e4    9b1b            subs        param_4,param_4,r6                      
ram:0001c6e6    a360            str         param_4,[r4,#0x8]                       
ram:0001c6e8    2368            ldr         param_4,[r4,#0x0]                       
ram:0001c6ea    1e44            add         r6,param_4                              
ram:0001c6ec    2660            str         r6,[r4,#0x0]                            
ram:0001c6ee    0020            movs        param_1,#0x0                            
ram:0001c6f0    bde8f087        pop.w       {r4,r5,r6,r7,r8,r9,r10,pc}              
                            LAB_0001c6f4:                 ;XREF[1,0]:   0001c68e
ram:0001c6f4    2a46            mov         param_3,r5                              
ram:0001c6f6    00f0a9fb        bl          FUN_0001ce4c                            ;undefined * FUN_0001ce4c(int * param...
ram:0001c6fa    0646            mov         r6,param_1                              
ram:0001c6fc    0028            cmp         param_1,#0x0                            
ram:0001c6fe    e1d1            bne         LAB_0001c6c4                            
ram:0001c700    2169            ldr         param_2,[r4,#0x10]                      
ram:0001c702    5046            mov         param_1,r10                             
ram:0001c704    00f0f6fa        bl          FUN_0001ccf4                            ;undefined FUN_0001ccf4(undefined4 * ...
ram:0001c708    c7e7            b           LAB_0001c69a                            
ram:0001c70a    0000            movs        r0,r0                                   
                            ;************************************************************************************************
                            ;*                                           FUNCTION                                           *
                            ;************************************************************************************************
                            ;int FUN_0001c70c(int * param_1, uint * param_2, byte * param_3, uint * param_4)
          ;param_1       int *               r0                      
          ;param_2       uint *              r1                      
          ;param_3       byte *              r2                      
          ;param_4       uint *              r3                      
          ;local_30      undefined4         -30                      ;XREF[1,0]:   0001c798
          ;local_45      undefined1         -45                      ;XREF[1,0]:   0001c794
          ;local_6e      undefined1         -6e                      ;XREF[1,0]:   0001c74c
          ;local_6f      undefined1         -6f                      ;XREF[1,0]:   0001c746
          ;local_70      undefined1         -70                      ;XREF[1,0]:   0001c852
          ;local_74      undefined4         -74                      ;XREF[6,0]:   0001c742,0001c778,0001c77c,0001c872,0001c876
                                                                     ;             0001c8c6
          ;local_7c      undefined4         -7c                      ;XREF[4,0]:   0001c78e,0001c7c4,0001c7fe,0001c808
          ;local_80      undefined4         -80                      ;XREF[1,0]:   0001c792
          ;local_84      undefined4         -84                      ;XREF[4,0]:   0001c790,0001c82e,0001c884,0001c89a
          ;local_88      undefined4         -88                      ;XREF[6,0]:   0001c78c,0001c7a6,0001c7ec,0001c80a,0001c846
                                                                     ;             0001c84a
          ;local_8c      undefined4         -8c                      ;XREF[7,0]:   0001c714,0001c7f2,0001c7f8,0001c81c,0001c822
                                                                     ;             0001c866,0001c870
          ;local_98      undefined4         -98                      ;XREF[2,0]:   0001c8a8,0001c8d0
                                                          ;XREF[1,0]:   0001c61c
ram:0001c70c    2de9f04f        push        {r4,r5,r6,r7,r8,r9,r10,r11,lr}          
ram:0001c710    9db0            sub         sp,#0x74                                
ram:0001c712    8046            mov         r8,param_1                              
ram:0001c714    0393            str         param_4,[sp,#local_8c+0x98]             
ram:0001c716    8b89            ldrh        param_4,[param_2,#0xc]                  
ram:0001c718    1c06            lsls        r4,param_4,#0x18                        
ram:0001c71a    0d46            mov         r5,param_2                              
ram:0001c71c    1646            mov         r6,param_3                              
ram:0001c71e    0fd5            bpl         LAB_0001c740                            
ram:0001c720    0b69            ldr         param_4,[param_2,#0x10]                 
ram:0001c722    6bb9            cbnz        param_4,LAB_0001c740                    
ram:0001c724    4021            movs        param_2,#0x40                           
ram:0001c726    00f033fb        bl          FUN_0001cd90                            ;uint FUN_0001cd90(int * param_1, uin...
ram:0001c72a    2860            str         param_1,[r5,#0x0]                       
ram:0001c72c    2861            str         param_1,[r5,#0x10]                      
ram:0001c72e    28b9            cbnz        param_1,LAB_0001c73c                    
ram:0001c730    0c23            movs        param_4,#0xc                            
ram:0001c732    c8f80030        str.w       param_4,[r8,#0x0]                       
                            LAB_0001c736:                 ;XREF[1,0]:   0001c8c2
ram:0001c736    4ff0ff30        mov.w       param_1,#0xffffffff                     
ram:0001c73a    c5e0            b           LAB_0001c8c8                            
                            LAB_0001c73c:                 ;XREF[1,0]:   0001c72e
ram:0001c73c    4023            movs        param_4,#0x40                           
ram:0001c73e    6b61            str         param_4,[r5,#0x14]                      
                            LAB_0001c740:                 ;XREF[2,0]:   0001c71e,0001c722
ram:0001c740    0023            movs        param_4,#0x0                            
ram:0001c742    0993            str         param_4,[sp,#local_74+0x98]             
ram:0001c744    2023            movs        param_4,#0x20                           
ram:0001c746    8df82930        strb.w      param_4,[sp,#local_6f+0x98]             
ram:0001c74a    3023            movs        param_4,#0x30                           
ram:0001c74c    8df82a30        strb.w      param_4,[sp,#local_6e+0x98]             
ram:0001c750    4ff0010b        mov.w       r11,#0x1                                
                            LAB_0001c754:                 ;XREF[1,0]:   0001c878
ram:0001c754    3746            mov         r7,r6                                   
                            LAB_0001c756:                 ;XREF[1,0]:   0001c7e0
ram:0001c756    3c46            mov         r4,r7                                   
ram:0001c758    14f8013b        ldrb.w      param_4,[r4],#0x1                       
ram:0001c75c    002b            cmp         param_4,#0x0                            
ram:0001c75e    3cd1            bne         LAB_0001c7da                            
                            LAB_0001c760:                 ;XREF[1,0]:   0001c7dc
ram:0001c760    b7eb060a        subs.w      r10,r7,r6                               
ram:0001c764    0bd0            beq         LAB_0001c77e                            
ram:0001c766    5346            mov         param_4,r10                             
ram:0001c768    3246            mov         param_3,r6                              
ram:0001c76a    2946            mov         param_2,r5                              
ram:0001c76c    4046            mov         param_1,r8                              
ram:0001c76e    fff771ff        bl          FUN_0001c654                            ;undefined4 FUN_0001c654(int * param_...
ram:0001c772    0130            adds        param_1,#0x1                            
ram:0001c774    00f0a380        beq.w       LAB_0001c8be                            
ram:0001c778    099b            ldr         param_4,[sp,#local_74+0x98]             
ram:0001c77a    5344            add         param_4,r10                             
ram:0001c77c    0993            str         param_4,[sp,#local_74+0x98]             
                            LAB_0001c77e:                 ;XREF[1,0]:   0001c764
ram:0001c77e    3b78            ldrb        param_4,[r7,#0x0]                       
ram:0001c780    002b            cmp         param_4,#0x0                            
ram:0001c782    00f09c80        beq.w       LAB_0001c8be                            
ram:0001c786    0023            movs        param_4,#0x0                            
ram:0001c788    4ff0ff32        mov.w       param_3,#0xffffffff                     
ram:0001c78c    0493            str         param_4,[sp,#local_88+0x98]             
ram:0001c78e    0793            str         param_4,[sp,#local_7c+0x98]             
ram:0001c790    0592            str         param_3,[sp,#local_84+0x98]             
ram:0001c792    0693            str         param_4,[sp,#local_80+0x98]             
ram:0001c794    8df85330        strb.w      param_4,[sp,#local_45+0x98]             
ram:0001c798    1a93            str         param_4,[sp,#local_30+0x98]             
                            LAB_0001c79a:                 ;XREF[1,0]:   0001c7f0
ram:0001c79a    0522            movs        param_3,#0x5                            
ram:0001c79c    2178            ldrb        param_2,[r4,#0x0]                       
ram:0001c79e    5048            ldr         param_1=>s_#-0+_...,[PTR_s_#-0+_0001c...;= "#-0+ "
                                                                                    ;= 0001d5a4
ram:0001c7a0    00f03efa        bl          FUN_0001cc20                            ;byte * FUN_0001cc20(uint * param_1, ...
ram:0001c7a4    671c            adds        r7,r4,#0x1                              
ram:0001c7a6    049b            ldr         param_4,[sp,#local_88+0x98]             
ram:0001c7a8    d8b9            cbnz        param_1,LAB_0001c7e2                    
ram:0001c7aa    d906            lsls        param_2,param_4,#0x1b                   
ram:0001c7ac    44bf            itt         mi                                      
ram:0001c7ae    2022            mov.mi      param_3,#0x20                           
ram:0001c7b0    8df85320        strb.mi.w   param_3,[sp,#0x53]                      
ram:0001c7b4    1a07            lsls        param_3,param_4,#0x1c                   
ram:0001c7b6    44bf            itt         mi                                      
ram:0001c7b8    2b22            mov.mi      param_3,#0x2b                           
ram:0001c7ba    8df85320        strb.mi.w   param_3,[sp,#0x53]                      
ram:0001c7be    2278            ldrb        param_3,[r4,#0x0]                       
ram:0001c7c0    2a2a            cmp         param_3,#0x2a                           
ram:0001c7c2    16d0            beq         LAB_0001c7f2                            
ram:0001c7c4    079a            ldr         param_3,[sp,#local_7c+0x98]             
ram:0001c7c6    0021            movs        param_2,#0x0                            
ram:0001c7c8    0a20            movs        param_1,#0xa                            
                            LAB_0001c7ca:                 ;XREF[1,0]:   0001c880
ram:0001c7ca    2746            mov         r7,r4                                   
ram:0001c7cc    0134            adds        r4,#0x1                                 
ram:0001c7ce    3b78            ldrb        param_4,[r7,#0x0]                       
ram:0001c7d0    303b            subs        param_4,#0x30                           
ram:0001c7d2    092b            cmp         param_4,#0x9                            
ram:0001c7d4    51d9            bls         LAB_0001c87a                            
ram:0001c7d6    c9b1            cbz         param_2,LAB_0001c80c                    
ram:0001c7d8    11e0            b           LAB_0001c7fe                            
                            LAB_0001c7da:                 ;XREF[1,0]:   0001c75e
ram:0001c7da    252b            cmp         param_4,#0x25                           
ram:0001c7dc    c0d0            beq         LAB_0001c760                            
ram:0001c7de    2746            mov         r7,r4                                   
ram:0001c7e0    b9e7            b           LAB_0001c756                            
                            LAB_0001c7e2:                 ;XREF[1,0]:   0001c7a8
ram:0001c7e2    3f4a            ldr         param_3,[PTR_s_#-0+_0001c8e0]           ;= 0001d5a4
ram:0001c7e4    801a            subs        param_1,param_1,param_3                 
ram:0001c7e6    0bfa00f0        lsl.w       param_1,r11,param_1                     
ram:0001c7ea    1843            orrs        param_1,param_4                         
ram:0001c7ec    0490            str         param_1,[sp,#local_88+0x98]             
ram:0001c7ee    3c46            mov         r4,r7                                   
ram:0001c7f0    d3e7            b           LAB_0001c79a                            
                            LAB_0001c7f2:                 ;XREF[1,0]:   0001c7c2
ram:0001c7f2    039a            ldr         param_3,[sp,#local_8c+0x98]             
ram:0001c7f4    111d            adds        param_2,param_3,#0x4                    
ram:0001c7f6    1268            ldr         param_3,[param_3,#0x0]                  
ram:0001c7f8    0391            str         param_2,[sp,#local_8c+0x98]             
ram:0001c7fa    002a            cmp         param_3,#0x0                            
ram:0001c7fc    01db            blt         LAB_0001c802                            
                            LAB_0001c7fe:                 ;XREF[1,0]:   0001c7d8
ram:0001c7fe    0792            str         param_3,[sp,#local_7c+0x98]             
ram:0001c800    04e0            b           LAB_0001c80c                            
                            LAB_0001c802:                 ;XREF[1,0]:   0001c7fc
ram:0001c802    5242            rsbs        param_3,param_3                         
ram:0001c804    43f00203        orr         param_4,param_4,#0x2                    
ram:0001c808    0792            str         param_3,[sp,#local_7c+0x98]             
ram:0001c80a    0493            str         param_4,[sp,#local_88+0x98]             
                            LAB_0001c80c:                 ;XREF[2,0]:   0001c7d6,0001c800
ram:0001c80c    3b78            ldrb        param_4,[r7,#0x0]                       
ram:0001c80e    2e2b            cmp         param_4,#0x2e                           
ram:0001c810    0ed1            bne         LAB_0001c830                            
ram:0001c812    7b78            ldrb        param_4,[r7,#0x1]                       
ram:0001c814    2a2b            cmp         param_4,#0x2a                           
ram:0001c816    07f10101        add.w       param_2,r7,#0x1                         
ram:0001c81a    32d1            bne         LAB_0001c882                            
ram:0001c81c    039b            ldr         param_4,[sp,#local_8c+0x98]             
ram:0001c81e    1a1d            adds        param_3,param_4,#0x4                    
ram:0001c820    1b68            ldr         param_4,[param_4,#0x0]                  
ram:0001c822    0392            str         param_3,[sp,#local_8c+0x98]             
ram:0001c824    002b            cmp         param_4,#0x0                            
ram:0001c826    b8bf            it          lt                                      
ram:0001c828    4ff0ff33        mov.lt.w    param_4,#0xffffffff                     
ram:0001c82c    0237            adds        r7,#0x2                                 
ram:0001c82e    0593            str         param_4,[sp,#local_84+0x98]             
                            LAB_0001c830:                 ;XREF[3,0]:   0001c810,0001c898,0001c89c
ram:0001c830    2c4c            ldr         r4,[->FUN_0001d5aa]                     ;= 0001d5aa
ram:0001c832    3978            ldrb        param_2,[r7,#0x0]                       
ram:0001c834    0322            movs        param_3,#0x3                            
ram:0001c836    2046            mov         param_1=>FUN_0001d5aa,r4                
ram:0001c838    00f0f2f9        bl          FUN_0001cc20                            ;byte * FUN_0001cc20(uint * param_1, ...
ram:0001c83c    38b1            cbz         param_1,LAB_0001c84e                    
ram:0001c83e    4023            movs        param_4,#0x40                           
ram:0001c840    001b            subs        param_1,param_1,r4                      
ram:0001c842    03fa00f0        lsl.w       param_1,param_4,param_1                 
ram:0001c846    049b            ldr         param_4,[sp,#local_88+0x98]             
ram:0001c848    0343            orrs        param_4,param_1                         
ram:0001c84a    0493            str         param_4,[sp,#local_88+0x98]             
ram:0001c84c    0137            adds        r7,#0x1                                 
                            LAB_0001c84e:                 ;XREF[1,0]:   0001c83c
ram:0001c84e    3978            ldrb        param_2,[r7,#0x0]                       
ram:0001c850    2548            ldr         param_1=>s_efgEF...,[PTR_s_efgEFG_000...;= "efgEFG"
                                                                                    ;= 0001d5ae
ram:0001c852    8df82810        strb.w      param_2,[sp,#local_70+0x98]             
ram:0001c856    0622            movs        param_3,#0x6                            
ram:0001c858    7e1c            adds        r6,r7,#0x1                              
ram:0001c85a    00f0e1f9        bl          FUN_0001cc20                            ;byte * FUN_0001cc20(uint * param_1, ...
ram:0001c85e    0028            cmp         param_1,#0x0                            
ram:0001c860    35d0            beq         LAB_0001c8ce                            
ram:0001c862    224b            ldr         param_4,[DAT_0001c8ec]                  
ram:0001c864    fbb9            cbnz        param_4,LAB_0001c8a6                    
ram:0001c866    039b            ldr         param_4,[sp,#local_8c+0x98]             
ram:0001c868    0733            adds        param_4,#0x7                            
ram:0001c86a    23f00703        bic         param_4,param_4,#0x7                    
ram:0001c86e    0833            adds        param_4,#0x8                            
ram:0001c870    0393            str         param_4,[sp,#local_8c+0x98]             
                            LAB_0001c872:                 ;XREF[1,0]:   0001c8bc
ram:0001c872    099b            ldr         param_4,[sp,#local_74+0x98]             
ram:0001c874    4b44            add         param_4,r9                              
ram:0001c876    0993            str         param_4,[sp,#local_74+0x98]             
ram:0001c878    6ce7            b           LAB_0001c754                            
                            LAB_0001c87a:                 ;XREF[1,0]:   0001c7d4
ram:0001c87a    00fb0232        mla         param_3,param_1,param_3,param_4         
ram:0001c87e    0121            movs        param_2,#0x1                            
ram:0001c880    a3e7            b           LAB_0001c7ca                            
                            LAB_0001c882:                 ;XREF[1,0]:   0001c81a
ram:0001c882    0023            movs        param_4,#0x0                            
ram:0001c884    0593            str         param_4,[sp,#local_84+0x98]             
ram:0001c886    1846            mov         param_1,param_4                         
ram:0001c888    0a24            movs        r4,#0xa                                 
                            LAB_0001c88a:                 ;XREF[1,0]:   0001c8a4
ram:0001c88a    0f46            mov         r7,param_2                              
ram:0001c88c    0131            adds        param_2,#0x1                            
ram:0001c88e    3a78            ldrb        param_3,[r7,#0x0]                       
ram:0001c890    303a            subs        param_3,#0x30                           
ram:0001c892    092a            cmp         param_3,#0x9                            
ram:0001c894    03d9            bls         LAB_0001c89e                            
ram:0001c896    002b            cmp         param_4,#0x0                            
ram:0001c898    cad0            beq         LAB_0001c830                            
ram:0001c89a    0590            str         param_1,[sp,#local_84+0x98]             
ram:0001c89c    c8e7            b           LAB_0001c830                            
                            LAB_0001c89e:                 ;XREF[1,0]:   0001c894
ram:0001c89e    04fb0020        mla         param_1,r4,param_1,param_3              
ram:0001c8a2    0123            movs        param_4,#0x1                            
ram:0001c8a4    f1e7            b           LAB_0001c88a                            
                            LAB_0001c8a6:                 ;XREF[1,0]:   0001c864
ram:0001c8a6    03ab            add         param_4,sp,#0xc                         
ram:0001c8a8    0093            str         param_4,[sp,#0x0]=>local_98             
ram:0001c8aa    2a46            mov         param_3,r5                              
ram:0001c8ac    104b            ldr         param_4,[DAT_0001c8f0]                  ;= 0001C655h
ram:0001c8ae    04a9            add         param_2,sp,#0x10                        
ram:0001c8b0    4046            mov         param_1,r8                              
ram:0001c8b2    aff30080        nop.w                                                
                            LAB_0001c8b6:                 ;XREF[1,0]:   0001c8de
ram:0001c8b6    b0f1ff3f        cmp.w       param_1,#0xffffffff                     
ram:0001c8ba    8146            mov         r9,param_1                              
ram:0001c8bc    d9d1            bne         LAB_0001c872                            
                            LAB_0001c8be:                 ;XREF[2,0]:   0001c774,0001c782
ram:0001c8be    ab89            ldrh        param_4,[r5,#0xc]                       
ram:0001c8c0    5b06            lsls        param_4,param_4,#0x19                   
ram:0001c8c2    3ff538af        bmi.w       LAB_0001c736                            
ram:0001c8c6    0998            ldr         param_1,[sp,#local_74+0x98]             
                            LAB_0001c8c8:                 ;XREF[1,0]:   0001c73a
ram:0001c8c8    1db0            add         sp,#0x74                                
ram:0001c8ca    bde8f08f        pop.w       {r4,r5,r6,r7,r8,r9,r10,r11,pc}          
                            LAB_0001c8ce:                 ;XREF[1,0]:   0001c860
ram:0001c8ce    03ab            add         param_4,sp,#0xc                         
ram:0001c8d0    0093            str         param_4,[sp,#0x0]=>local_98             
ram:0001c8d2    2a46            mov         param_3,r5                              
ram:0001c8d4    064b            ldr         param_4,[DAT_0001c8f0]                  ;= 0001C655h
ram:0001c8d6    04a9            add         param_2,sp,#0x10                        
ram:0001c8d8    4046            mov         param_1,r8                              
ram:0001c8da    00f081f8        bl          FUN_0001c9e0                            ;uint FUN_0001c9e0(undefined4 param_1...
ram:0001c8de    eae7            b           LAB_0001c8b6                            
                            PTR_s_#-0+_0001c8e0:          ;XREF[2,0]:   0001c79e,0001c7e2
ram:0001c8e0    a4d50100        addr        s_#-0+_0001d5a4                         ;= "#-0+ "
                            PTR_FUN_0001c8e4:             ;XREF[1,0]:   0001c830
ram:0001c8e4    aad50100        addr        FUN_0001d5aa                            
                            PTR_s_efgEFG_0001c8e8:        ;XREF[1,0]:   0001c850
ram:0001c8e8    aed50100        addr        s_efgEFG_0001d5ae                       ;= "efgEFG"
                            DAT_0001c8ec:                 ;XREF[1,0]:   0001c862
ram:0001c8ec    00000000        undefined4  00000000h                               
                            DAT_0001c8f0:                 ;XREF[2,0]:   0001c8ac,0001c8d4
ram:0001c8f0    55c60100        undefined4  0001C655h                               ;?  ->  0001c655
                            ;************************************************************************************************
                            ;*                                           FUNCTION                                           *
                            ;************************************************************************************************
                            ;undefined4 FUN_0001c8f4(undefined4 param_1, uint * param_2, uint * param_3, undefined4 param_4, undefined * param_5)
          ;param_1       undefined4          r0                      
          ;param_2       uint *              r1                      
          ;param_3       uint *              r2                      
          ;param_4       undefined4          r3                      
          ;param_5       undefined *          0                      ;XREF[1,0]:   0001c900
                                                          ;XREF[1,0]:   0001cb12
ram:0001c8f4    2de9f047        push        {r4,r5,r6,r7,r8,r9,r10,lr}              
ram:0001c8f8    9146            mov         r9,param_3                              
ram:0001c8fa    1f46            mov         r7,param_4                              
ram:0001c8fc    8a68            ldr         param_3,[param_2,#0x8]                  
ram:0001c8fe    0b69            ldr         param_4,[param_2,#0x10]                 
ram:0001c900    ddf82080        ldr.w       r8,[sp,#param_5+0x20]                   
ram:0001c904    9342            cmp         param_4,param_3                         
ram:0001c906    b8bf            it          lt                                      
ram:0001c908    1346            mov.lt      param_4,param_3                         
ram:0001c90a    c9f80030        str.w       param_4,[r9,#0x0]                       
ram:0001c90e    91f84320        ldrb.w      param_3,[param_2,#0x43]                 
ram:0001c912    0646            mov         r6,param_1                              
ram:0001c914    0c46            mov         r4,param_2                              
ram:0001c916    12b1            cbz         param_3,LAB_0001c91e                    
ram:0001c918    0133            adds        param_4,#0x1                            
ram:0001c91a    c9f80030        str.w       param_4,[r9,#0x0]                       
                            LAB_0001c91e:                 ;XREF[1,0]:   0001c916
ram:0001c91e    2368            ldr         param_4,[r4,#0x0]                       
ram:0001c920    9906            lsls        param_2,param_4,#0x1a                   
ram:0001c922    42bf            ittt        mi                                      
ram:0001c924    d9f80030        ldr.mi.w    param_4,[r9,#0x0]                       
ram:0001c928    0233            add.mi      param_4,#0x2                            
ram:0001c92a    c9f80030        str.w.mi    param_4,[r9,#0x0]                       
ram:0001c92e    2568            ldr         r5,[r4,#0x0]                            
ram:0001c930    15f00605        ands        r5,r5,#0x6                              
ram:0001c934    07d1            bne         LAB_0001c946                            
ram:0001c936    04f1190a        add.w       r10,r4,#0x19                            
                            LAB_0001c93a:                 ;XREF[1,0]:   0001c9b2
ram:0001c93a    e368            ldr         param_4,[r4,#0xc]                       
ram:0001c93c    d9f80020        ldr.w       param_3,[r9,#0x0]                       
ram:0001c940    9b1a            subs        param_4,param_4,param_3                 
ram:0001c942    9d42            cmp         r5,param_4                              
ram:0001c944    29db            blt         LAB_0001c99a                            
                            LAB_0001c946:                 ;XREF[1,0]:   0001c934
ram:0001c946    94f84330        ldrb.w      param_4,[r4,#0x43]                      
ram:0001c94a    2268            ldr         param_3,[r4,#0x0]                       
ram:0001c94c    0033            adds        param_4,#0x0                            
ram:0001c94e    18bf            it          ne                                      
ram:0001c950    0123            mov.ne      param_4,#0x1                            
ram:0001c952    9206            lsls        param_3,param_3,#0x1a                   
ram:0001c954    2ed4            bmi         LAB_0001c9b4                            
                            LAB_0001c956:                 ;XREF[1,0]:   0001c9ca
ram:0001c956    04f14302        add.w       param_3,r4,#0x43                        
ram:0001c95a    3946            mov         param_2,r7                              
ram:0001c95c    3046            mov         param_1,r6                              
ram:0001c95e    c047            blx         r8                                      
ram:0001c960    0130            adds        param_1,#0x1                            
ram:0001c962    21d0            beq         LAB_0001c9a8                            
ram:0001c964    2368            ldr         param_4,[r4,#0x0]                       
ram:0001c966    e568            ldr         r5,[r4,#0xc]                            
ram:0001c968    d9f80020        ldr.w       param_3,[r9,#0x0]                       
ram:0001c96c    03f00603        and         param_4,param_4,#0x6                    
ram:0001c970    042b            cmp         param_4,#0x4                            
ram:0001c972    08bf            it          eq                                      
ram:0001c974    ad1a            sub.eq      r5,r5,param_3                           
ram:0001c976    a368            ldr         param_4,[r4,#0x8]                       
ram:0001c978    2269            ldr         param_3,[r4,#0x10]                      
ram:0001c97a    0cbf            ite         eq                                      
ram:0001c97c    25eae575        bic.eq.w    r5,r5,r5, asr #0x1f                     
ram:0001c980    0025            mov.ne      r5,#0x0                                 
ram:0001c982    9342            cmp         param_4,param_3                         
ram:0001c984    c4bf            itt         gt                                      
ram:0001c986    9b1a            sub.gt      param_4,param_4,param_3                 
ram:0001c988    ed18            add.gt      r5,r5,param_4                           
ram:0001c98a    4ff00009        mov.w       r9,#0x0                                 
ram:0001c98e    1a34            adds        r4,#0x1a                                
                            LAB_0001c990:                 ;XREF[1,0]:   0001c9de
ram:0001c990    4d45            cmp         r5,r9                                   
ram:0001c992    1bd1            bne         LAB_0001c9cc                            
ram:0001c994    0020            movs        param_1,#0x0                            
ram:0001c996    bde8f087        pop.w       {r4,r5,r6,r7,r8,r9,r10,pc}              
                            LAB_0001c99a:                 ;XREF[1,0]:   0001c944
ram:0001c99a    0123            movs        param_4,#0x1                            
ram:0001c99c    5246            mov         param_3,r10                             
ram:0001c99e    3946            mov         param_2,r7                              
ram:0001c9a0    3046            mov         param_1,r6                              
ram:0001c9a2    c047            blx         r8                                      
ram:0001c9a4    0130            adds        param_1,#0x1                            
ram:0001c9a6    03d1            bne         LAB_0001c9b0                            
                            LAB_0001c9a8:                 ;XREF[2,0]:   0001c962,0001c9d8
ram:0001c9a8    4ff0ff30        mov.w       param_1,#0xffffffff                     
ram:0001c9ac    bde8f087        pop.w       {r4,r5,r6,r7,r8,r9,r10,pc}              
                            LAB_0001c9b0:                 ;XREF[1,0]:   0001c9a6
ram:0001c9b0    0135            adds        r5,#0x1                                 
ram:0001c9b2    c2e7            b           LAB_0001c93a                            
                            LAB_0001c9b4:                 ;XREF[1,0]:   0001c954
ram:0001c9b4    e118            adds        param_2,r4,param_4                      
ram:0001c9b6    5a1c            adds        param_3,param_4,#0x1                    
ram:0001c9b8    3020            movs        param_1,#0x30                           
ram:0001c9ba    81f84300        strb.w      param_1,[param_2,#0x43]                 
ram:0001c9be    2244            add         param_3,r4                              
ram:0001c9c0    94f84510        ldrb.w      param_2,[r4,#0x45]                      
ram:0001c9c4    82f84310        strb.w      param_2,[param_3,#0x43]                 
ram:0001c9c8    0233            adds        param_4,#0x2                            
ram:0001c9ca    c4e7            b           LAB_0001c956                            
                            LAB_0001c9cc:                 ;XREF[1,0]:   0001c992
ram:0001c9cc    0123            movs        param_4,#0x1                            
ram:0001c9ce    2246            mov         param_3,r4                              
ram:0001c9d0    3946            mov         param_2,r7                              
ram:0001c9d2    3046            mov         param_1,r6                              
ram:0001c9d4    c047            blx         r8                                      
ram:0001c9d6    0130            adds        param_1,#0x1                            
ram:0001c9d8    e6d0            beq         LAB_0001c9a8                            
ram:0001c9da    09f10109        add.w       r9,r9,#0x1                              
ram:0001c9de    d7e7            b           LAB_0001c990                            
                            ;************************************************************************************************
                            ;*                                           FUNCTION                                           *
                            ;************************************************************************************************
                            ;uint FUN_0001c9e0(undefined4 param_1, uint * param_2, undefined4 param_3, undefined * param_4, uint * * param_5)
          ;param_1       undefined4          r0                      
          ;param_2       uint *              r1                      
          ;param_3       undefined4          r2                      
          ;param_4       undefined *         r3                      
          ;param_5       uint * *             0                      ;XREF[1,0]:   0001c9f2
          ;local_24      undefined4         -24                      ;XREF[2,0]:   0001cbe2,0001cbec
          ;local_30      undefined4         -30                      ;XREF[1,0]:   0001cb06
                                                          ;XREF[1,0]:   0001c8da
ram:0001c9e0    2de9f043        push        {r4,r5,r6,r7,r8,r9,lr}                  
ram:0001c9e4    1746            mov         r7,param_3                              
ram:0001c9e6    0a7e            ldrb        param_3,[param_2,#0x18]                 
ram:0001c9e8    85b0            sub         sp,#0x14                                
ram:0001c9ea    6e2a            cmp         param_3,#0x6e                           
ram:0001c9ec    9846            mov         r8,param_4                              
ram:0001c9ee    0646            mov         r6,param_1                              
ram:0001c9f0    0c46            mov         r4,param_2                              
ram:0001c9f2    0c9b            ldr         param_4,[sp,#param_5+0x30]              
ram:0001c9f4    01f1430e        add.w       lr,param_2,#0x43                        
ram:0001c9f8    00f0bc80        beq.w       LAB_0001cb74                            
ram:0001c9fc    1ad8            bhi         LAB_0001ca34                            
ram:0001c9fe    632a            cmp         param_3,#0x63                           
ram:0001ca00    2ed0            beq         LAB_0001ca60                            
ram:0001ca02    0ad8            bhi         LAB_0001ca1a                            
ram:0001ca04    002a            cmp         param_3,#0x0                            
ram:0001ca06    00f0c880        beq.w       LAB_0001cb9a                            
ram:0001ca0a    582a            cmp         param_3,#0x58                           
ram:0001ca0c    00f08a80        beq.w       LAB_0001cb24                            
                            LAB_0001ca10:                 ;XREF[3,0]:   0001ca20,0001ca42,0001ca54
ram:0001ca10    04f14205        add.w       r5,r4,#0x42                             
ram:0001ca14    84f84220        strb.w      param_3,[r4,#0x42]                      
ram:0001ca18    2ae0            b           LAB_0001ca70                            
                            LAB_0001ca1a:                 ;XREF[1,0]:   0001ca02
ram:0001ca1a    642a            cmp         param_3,#0x64                           
ram:0001ca1c    01d0            beq         LAB_0001ca22                            
ram:0001ca1e    692a            cmp         param_3,#0x69                           
ram:0001ca20    f6d1            bne         LAB_0001ca10                            
                            LAB_0001ca22:                 ;XREF[1,0]:   0001ca1c
ram:0001ca22    2168            ldr         param_2,[r4,#0x0]                       
ram:0001ca24    1a68            ldr         param_3,[param_4,#0x0]                  
ram:0001ca26    11f0800f        tst         param_2,#0x80                           
ram:0001ca2a    23d0            beq         LAB_0001ca74                            
ram:0001ca2c    111d            adds        param_2,param_3,#0x4                    
ram:0001ca2e    1960            str         param_2,[param_4,#0x0]                  
                            LAB_0001ca30:                 ;XREF[1,0]:   0001ca7e
ram:0001ca30    1368            ldr         param_4,[param_3,#0x0]                  
ram:0001ca32    27e0            b           LAB_0001ca84                            
                            LAB_0001ca34:                 ;XREF[1,0]:   0001c9fc
ram:0001ca34    732a            cmp         param_3,#0x73                           
ram:0001ca36    00f0b480        beq.w       LAB_0001cba2                            
ram:0001ca3a    08d8            bhi         LAB_0001ca4e                            
ram:0001ca3c    6f2a            cmp         param_3,#0x6f                           
ram:0001ca3e    2ad0            beq         LAB_0001ca96                            
ram:0001ca40    702a            cmp         param_3,#0x70                           
ram:0001ca42    e5d1            bne         LAB_0001ca10                            
ram:0001ca44    0a68            ldr         param_3,[param_2,#0x0]                  
ram:0001ca46    42f02002        orr         param_3,param_3,#0x20                   
ram:0001ca4a    0a60            str         param_3,[param_2,#0x0]                  
ram:0001ca4c    03e0            b           LAB_0001ca56                            
                            LAB_0001ca4e:                 ;XREF[1,0]:   0001ca3a
ram:0001ca4e    752a            cmp         param_3,#0x75                           
ram:0001ca50    21d0            beq         LAB_0001ca96                            
ram:0001ca52    782a            cmp         param_3,#0x78                           
ram:0001ca54    dcd1            bne         LAB_0001ca10                            
                            LAB_0001ca56:                 ;XREF[1,0]:   0001ca4c
ram:0001ca56    7822            movs        param_3,#0x78                           
ram:0001ca58    84f84520        strb.w      param_3,[r4,#0x45]                      
ram:0001ca5c    6e49            ldr         param_2,[PTR_s_0123456789abcdef_0001c...;= 0001d5c6
ram:0001ca5e    64e0            b           LAB_0001cb2a                            
                            LAB_0001ca60:                 ;XREF[1,0]:   0001ca00
ram:0001ca60    1a68            ldr         param_3,[param_4,#0x0]                  
ram:0001ca62    01f14205        add.w       r5,param_2,#0x42                        
ram:0001ca66    111d            adds        param_2,param_3,#0x4                    
ram:0001ca68    1960            str         param_2,[param_4,#0x0]                  
ram:0001ca6a    1368            ldr         param_4,[param_3,#0x0]                  
ram:0001ca6c    84f84230        strb.w      param_4,[r4,#0x42]                      
                            LAB_0001ca70:                 ;XREF[1,0]:   0001ca18
ram:0001ca70    0123            movs        param_4,#0x1                            
ram:0001ca72    a3e0            b           LAB_0001cbbc                            
                            LAB_0001ca74:                 ;XREF[1,0]:   0001ca2a
ram:0001ca74    11f0400f        tst         param_2,#0x40                           
ram:0001ca78    02f10401        add.w       param_2,param_3,#0x4                    
ram:0001ca7c    1960            str         param_2,[param_4,#0x0]                  
ram:0001ca7e    d7d0            beq         LAB_0001ca30                            
ram:0001ca80    b2f90030        ldrsh.w     param_4,[param_3,#0x0]                  
                            LAB_0001ca84:                 ;XREF[1,0]:   0001ca32
ram:0001ca84    002b            cmp         param_4,#0x0                            
ram:0001ca86    03da            bge         LAB_0001ca90                            
ram:0001ca88    2d22            movs        param_3,#0x2d                           
ram:0001ca8a    5b42            rsbs        param_4,param_4                         
ram:0001ca8c    84f84320        strb.w      param_3,[r4,#0x43]                      
                            LAB_0001ca90:                 ;XREF[1,0]:   0001ca86
ram:0001ca90    6249            ldr         param_2,[PTR_s_0123456789ABCDEF_0001c...;= 0001d5b5
ram:0001ca92    0a22            movs        param_3,#0xa                            
ram:0001ca94    17e0            b           LAB_0001cac6                            
                            LAB_0001ca96:                 ;XREF[2,0]:   0001ca3e,0001ca50
ram:0001ca96    2068            ldr         param_1,[r4,#0x0]                       
ram:0001ca98    1968            ldr         param_2,[param_4,#0x0]                  
ram:0001ca9a    10f0800f        tst         param_1,#0x80                           
ram:0001ca9e    03d0            beq         LAB_0001caa8                            
ram:0001caa0    081d            adds        param_1,param_2,#0x4                    
ram:0001caa2    1860            str         param_1,[param_4,#0x0]                  
                            LAB_0001caa4:                 ;XREF[1,0]:   0001cab2
ram:0001caa4    0b68            ldr         param_4,[param_2,#0x0]                  
ram:0001caa6    06e0            b           LAB_0001cab6                            
                            LAB_0001caa8:                 ;XREF[1,0]:   0001ca9e
ram:0001caa8    10f0400f        tst         param_1,#0x40                           
ram:0001caac    01f10400        add.w       param_1,param_2,#0x4                    
ram:0001cab0    1860            str         param_1,[param_4,#0x0]                  
ram:0001cab2    f7d0            beq         LAB_0001caa4                            
ram:0001cab4    0b88            ldrh        param_4,[param_2,#0x0]                  
                            LAB_0001cab6:                 ;XREF[1,0]:   0001caa6
ram:0001cab6    5949            ldr         param_2,[PTR_s_0123456789ABCDEF_0001c...;= 0001d5b5
ram:0001cab8    6f2a            cmp         param_3,#0x6f                           
ram:0001caba    14bf            ite         ne                                      
ram:0001cabc    0a22            mov.ne      param_3,#0xa                            
ram:0001cabe    0822            mov.eq      param_3,#0x8                            
                            LAB_0001cac0:                 ;XREF[1,0]:   0001cb5a
ram:0001cac0    0020            movs        param_1,#0x0                            
ram:0001cac2    84f84300        strb.w      param_1,[r4,#0x43]                      
                            LAB_0001cac6:                 ;XREF[1,0]:   0001ca94
ram:0001cac6    6568            ldr         r5,[r4,#0x4]                            
ram:0001cac8    a560            str         r5,[r4,#0x8]                            
ram:0001caca    002d            cmp         r5,#0x0                                 
ram:0001cacc    c0f29c80        blt.w       LAB_0001cc08                            
ram:0001cad0    2068            ldr         param_1,[r4,#0x0]                       
ram:0001cad2    20f00400        bic         param_1,param_1,#0x4                    
ram:0001cad6    2060            str         param_1,[r4,#0x0]                       
ram:0001cad8    002b            cmp         param_4,#0x0                            
ram:0001cada    3fd1            bne         LAB_0001cb5c                            
ram:0001cadc    002d            cmp         r5,#0x0                                 
ram:0001cade    40f09580        bne.w       LAB_0001cc0c                            
ram:0001cae2    7546            mov         r5,lr                                   
                            LAB_0001cae4:                 ;XREF[2,0]:   0001cb72,0001cc16
ram:0001cae4    082a            cmp         param_3,#0x8                            
ram:0001cae6    0bd1            bne         LAB_0001cb00                            
ram:0001cae8    2368            ldr         param_4,[r4,#0x0]                       
ram:0001caea    da07            lsls        param_3,param_4,#0x1f                   
ram:0001caec    08d5            bpl         LAB_0001cb00                            
ram:0001caee    2369            ldr         param_4,[r4,#0x10]                      
ram:0001caf0    6268            ldr         param_3,[r4,#0x4]                       
ram:0001caf2    9a42            cmp         param_3,param_4                         
ram:0001caf4    debf            ittt        le                                      
ram:0001caf6    3023            mov.le      param_4,#0x30                           
ram:0001caf8    05f8013c        strb.le.w   param_4,[r5,#-0x1]                      
ram:0001cafc    05f1ff35        add.le.w    r5,r5,#0xffffffff                       
                            LAB_0001cb00:                 ;XREF[2,0]:   0001cae6,0001caec
ram:0001cb00    aeeb0503        sub.w       param_4,lr,r5                           
ram:0001cb04    2361            str         param_4,[r4,#0x10]                      
                            LAB_0001cb06:                 ;XREF[2,0]:   0001cba0,0001cbc4
ram:0001cb06    cdf80080        str.w       r8,[sp,#0x0]=>local_30                  
ram:0001cb0a    3b46            mov         param_4,r7                              
ram:0001cb0c    03aa            add         param_3,sp,#0xc                         
ram:0001cb0e    2146            mov         param_2,r4                              
ram:0001cb10    3046            mov         param_1,r6                              
ram:0001cb12    fff7effe        bl          FUN_0001c8f4                            ;undefined4 FUN_0001c8f4(undefined4 p...
ram:0001cb16    0130            adds        param_1,#0x1                            
ram:0001cb18    55d1            bne         LAB_0001cbc6                            
                            LAB_0001cb1a:                 ;XREF[2,0]:   0001cbd2,0001cc02
ram:0001cb1a    4ff0ff30        mov.w       param_1,#0xffffffff                     
                            LAB_0001cb1e:                 ;XREF[1,0]:   0001cbf4
ram:0001cb1e    05b0            add         sp,#0x14                                
ram:0001cb20    bde8f083        pop.w       {r4,r5,r6,r7,r8,r9,pc}                  
                            LAB_0001cb24:                 ;XREF[1,0]:   0001ca0c
ram:0001cb24    81f84520        strb.w      param_3,[param_2,#0x45]                 
ram:0001cb28    3c49            ldr         param_2,[PTR_s_0123456789ABCDEF_0001c...;= 0001d5b5
                            LAB_0001cb2a:                 ;XREF[1,0]:   0001ca5e
ram:0001cb2a    2268            ldr         param_3,[r4,#0x0]                       
ram:0001cb2c    1868            ldr         param_1,[param_4,#0x0]                  
ram:0001cb2e    12f0800f        tst         param_3,#0x80                           
ram:0001cb32    00f10405        add.w       r5,param_1,#0x4                         
ram:0001cb36    1d60            str         r5,[param_4,#0x0]                       
ram:0001cb38    01d0            beq         LAB_0001cb3e                            
                            LAB_0001cb3a:                 ;XREF[1,0]:   0001cb40
ram:0001cb3a    0368            ldr         param_4,[param_1,#0x0]                  
ram:0001cb3c    02e0            b           LAB_0001cb44                            
                            LAB_0001cb3e:                 ;XREF[1,0]:   0001cb38
ram:0001cb3e    5506            lsls        r5,param_3,#0x19                        
ram:0001cb40    fbd5            bpl         LAB_0001cb3a                            
ram:0001cb42    0388            ldrh        param_4,[param_1,#0x0]                  
                            LAB_0001cb44:                 ;XREF[1,0]:   0001cb3c
ram:0001cb44    d007            lsls        param_1,param_3,#0x1f                   
ram:0001cb46    44bf            itt         mi                                      
ram:0001cb48    42f02002        orr.mi      param_3,param_3,#0x20                   
ram:0001cb4c    2260            str.mi      param_3,[r4,#0x0]                       
ram:0001cb4e    1bb9            cbnz        param_4,LAB_0001cb58                    
ram:0001cb50    2268            ldr         param_3,[r4,#0x0]                       
ram:0001cb52    22f02002        bic         param_3,param_3,#0x20                   
ram:0001cb56    2260            str         param_3,[r4,#0x0]                       
                            LAB_0001cb58:                 ;XREF[1,0]:   0001cb4e
ram:0001cb58    1022            movs        param_3,#0x10                           
ram:0001cb5a    b1e7            b           LAB_0001cac0                            
                            LAB_0001cb5c:                 ;XREF[2,0]:   0001cada,0001cc0a
ram:0001cb5c    7546            mov         r5,lr                                   
                            LAB_0001cb5e:                 ;XREF[1,0]:   0001cb70
ram:0001cb5e    b3fbf2f0        udiv        param_1,param_4,param_3                 
ram:0001cb62    02fb1033        mls         param_4,param_3,param_1,param_4         
ram:0001cb66    cb5c            ldrb        param_4,[param_2,param_4]=>s_01234567...;= "0123456789ABCDEF"
ram:0001cb68    05f8013d        strb.w      param_4,[r5,#-0x1]!                     
ram:0001cb6c    0346            mov         param_4,param_1                         
ram:0001cb6e    0028            cmp         param_1,#0x0                            
ram:0001cb70    f5d1            bne         LAB_0001cb5e                            
ram:0001cb72    b7e7            b           LAB_0001cae4                            
                            LAB_0001cb74:                 ;XREF[1,0]:   0001c9f8
ram:0001cb74    0868            ldr         param_1,[param_2,#0x0]                  
ram:0001cb76    1a68            ldr         param_3,[param_4,#0x0]                  
ram:0001cb78    4969            ldr         param_2,[param_2,#0x14]                 
ram:0001cb7a    10f0800f        tst         param_1,#0x80                           
ram:0001cb7e    04d0            beq         LAB_0001cb8a                            
ram:0001cb80    101d            adds        param_1,param_3,#0x4                    
ram:0001cb82    1860            str         param_1,[param_4,#0x0]                  
ram:0001cb84    1368            ldr         param_4,[param_3,#0x0]                  
                            LAB_0001cb86:                 ;XREF[1,0]:   0001cb96
ram:0001cb86    1960            str         param_2,[param_4,#0x0]                  
ram:0001cb88    07e0            b           LAB_0001cb9a                            
                            LAB_0001cb8a:                 ;XREF[1,0]:   0001cb7e
ram:0001cb8a    10f0400f        tst         param_1,#0x40                           
ram:0001cb8e    02f10400        add.w       param_1,param_3,#0x4                    
ram:0001cb92    1860            str         param_1,[param_4,#0x0]                  
ram:0001cb94    1368            ldr         param_4,[param_3,#0x0]                  
ram:0001cb96    f6d0            beq         LAB_0001cb86                            
ram:0001cb98    1980            strh        param_2,[param_4,#0x0]                  
                            LAB_0001cb9a:                 ;XREF[2,0]:   0001ca06,0001cb88
ram:0001cb9a    0023            movs        param_4,#0x0                            
ram:0001cb9c    2361            str         param_4,[r4,#0x10]                      
ram:0001cb9e    7546            mov         r5,lr                                   
ram:0001cba0    b1e7            b           LAB_0001cb06                            
                            LAB_0001cba2:                 ;XREF[1,0]:   0001ca36
ram:0001cba2    1a68            ldr         param_3,[param_4,#0x0]                  
ram:0001cba4    111d            adds        param_2,param_3,#0x4                    
ram:0001cba6    1960            str         param_2,[param_4,#0x0]                  
ram:0001cba8    1568            ldr         r5,[param_3,#0x0]                       
ram:0001cbaa    6268            ldr         param_3,[r4,#0x4]                       
ram:0001cbac    0021            movs        param_2,#0x0                            
ram:0001cbae    2846            mov         param_1,r5                              
ram:0001cbb0    00f036f8        bl          FUN_0001cc20                            ;byte * FUN_0001cc20(uint * param_1, ...
ram:0001cbb4    08b1            cbz         param_1,LAB_0001cbba                    
ram:0001cbb6    401b            subs        param_1,param_1,r5                      
ram:0001cbb8    6060            str         param_1,[r4,#0x4]                       
                            LAB_0001cbba:                 ;XREF[1,0]:   0001cbb4
ram:0001cbba    6368            ldr         param_4,[r4,#0x4]                       
                            LAB_0001cbbc:                 ;XREF[1,0]:   0001ca72
ram:0001cbbc    2361            str         param_4,[r4,#0x10]                      
ram:0001cbbe    0023            movs        param_4,#0x0                            
ram:0001cbc0    84f84330        strb.w      param_4,[r4,#0x43]                      
ram:0001cbc4    9fe7            b           LAB_0001cb06                            
                            LAB_0001cbc6:                 ;XREF[1,0]:   0001cb18
ram:0001cbc6    2369            ldr         param_4,[r4,#0x10]                      
ram:0001cbc8    2a46            mov         param_3,r5                              
ram:0001cbca    3946            mov         param_2,r7                              
ram:0001cbcc    3046            mov         param_1,r6                              
ram:0001cbce    c047            blx         r8                                      
ram:0001cbd0    0130            adds        param_1,#0x1                            
ram:0001cbd2    a2d0            beq         LAB_0001cb1a                            
ram:0001cbd4    2368            ldr         param_4,[r4,#0x0]                       
ram:0001cbd6    9b07            lsls        param_4,param_4,#0x1e                   
ram:0001cbd8    07d5            bpl         LAB_0001cbea                            
ram:0001cbda    0025            movs        r5,#0x0                                 
ram:0001cbdc    04f11909        add.w       r9,r4,#0x19                             
                            LAB_0001cbe0:                 ;XREF[1,0]:   0001cc06
ram:0001cbe0    e368            ldr         param_4,[r4,#0xc]                       
ram:0001cbe2    039a            ldr         param_3,[sp,#local_24+0x30]             
ram:0001cbe4    9b1a            subs        param_4,param_4,param_3                 
ram:0001cbe6    9d42            cmp         r5,param_4                              
ram:0001cbe8    05db            blt         LAB_0001cbf6                            
                            LAB_0001cbea:                 ;XREF[1,0]:   0001cbd8
ram:0001cbea    e068            ldr         param_1,[r4,#0xc]                       
ram:0001cbec    039b            ldr         param_4,[sp,#local_24+0x30]             
ram:0001cbee    9842            cmp         param_1,param_4                         
ram:0001cbf0    b8bf            it          lt                                      
ram:0001cbf2    1846            mov.lt      param_1,param_4                         
ram:0001cbf4    93e7            b           LAB_0001cb1e                            
                            LAB_0001cbf6:                 ;XREF[1,0]:   0001cbe8
ram:0001cbf6    0123            movs        param_4,#0x1                            
ram:0001cbf8    4a46            mov         param_3,r9                              
ram:0001cbfa    3946            mov         param_2,r7                              
ram:0001cbfc    3046            mov         param_1,r6                              
ram:0001cbfe    c047            blx         r8                                      
ram:0001cc00    0130            adds        param_1,#0x1                            
ram:0001cc02    8ad0            beq         LAB_0001cb1a                            
ram:0001cc04    0135            adds        r5,#0x1                                 
ram:0001cc06    ebe7            b           LAB_0001cbe0                            
                            LAB_0001cc08:                 ;XREF[1,0]:   0001cacc
ram:0001cc08    002b            cmp         param_4,#0x0                            
ram:0001cc0a    a7d1            bne         LAB_0001cb5c                            
                            LAB_0001cc0c:                 ;XREF[1,0]:   0001cade
ram:0001cc0c    0b78            ldrb        param_4,[param_2,#0x0]=>s_0123456789A...;= "0123456789ABCDEF"
ram:0001cc0e    84f84230        strb.w      param_4,[r4,#0x42]                      
ram:0001cc12    04f14205        add.w       r5,r4,#0x42                             
ram:0001cc16    65e7            b           LAB_0001cae4                            
                            PTR_s_0123456789abcdef_0001...;XREF[1,0]:   0001ca5c
ram:0001cc18    c6d50100        addr        s_0123456789abcdef_0001d5c6             ;= "0123456789abcdef"
                            PTR_s_0123456789ABCDEF_0001...;XREF[3,0]:   0001ca90,0001cab6,0001cb28
ram:0001cc1c    b5d50100        addr        s_0123456789ABCDEF_0001d5b5             ;= "0123456789ABCDEF"
                            ;************************************************************************************************
                            ;*                                           FUNCTION                                           *
                            ;************************************************************************************************
                            ;byte * FUN_0001cc20(uint * param_1, uint param_2, uint param_3)
          ;param_1       uint *              r0                      
          ;param_2       uint                r1                      
          ;param_3       uint                r2                      
                                                          ;XREF[4,0]:   0001c7a0,0001c838,0001c85a,0001cbb0
ram:0001cc20    01f0ff01        and         param_2,param_2,#0xff                   
ram:0001cc24    102a            cmp         param_3,#0x10                           
ram:0001cc26    2bdb            blt         LAB_0001cc80                            
ram:0001cc28    10f0070f        tst         param_1,#0x7                            
ram:0001cc2c    08d0            beq         LAB_0001cc40                            
                            LAB_0001cc2e:                 ;XREF[1,0]:   0001cc3e
ram:0001cc2e    10f8013b        ldrb.w      r3,[param_1],#0x1                       
ram:0001cc32    013a            subs        param_3,#0x1                            
ram:0001cc34    8b42            cmp         r3,param_2                              
ram:0001cc36    2dd0            beq         LAB_0001cc94                            
ram:0001cc38    10f0070f        tst         param_1,#0x7                            
ram:0001cc3c    42b3            cbz         param_3,LAB_0001cc90                    
ram:0001cc3e    f6d1            bne         LAB_0001cc2e                            
                            LAB_0001cc40:                 ;XREF[1,0]:   0001cc2c
ram:0001cc40    f0b4            push        {r4,r5,r6,r7}                           
ram:0001cc42    41ea0121        orr.w       param_2,param_2,param_2, lsl #0x8       
ram:0001cc46    41ea0141        orr.w       param_2,param_2,param_2, lsl #0x10      
ram:0001cc4a    22f00704        bic         r4,param_3,#0x7                         
ram:0001cc4e    7ff00007        mvns        r7,#0x0                                 
ram:0001cc52    0023            movs        r3,#0x0                                 
                            LAB_0001cc54:                 ;XREF[1,0]:   0001cc74
ram:0001cc54    f0e80256        ldrd        r5,r6,[param_1],#0x8                    
ram:0001cc58    083c            subs        r4,#0x8                                 
ram:0001cc5a    85ea0105        eor.w       r5,r5,param_2                           
ram:0001cc5e    86ea0106        eor.w       r6,r6,param_2                           
ram:0001cc62    85fa47f5        uadd8       r5,r5,r7                                
ram:0001cc66    a3fa87f5        sel         r5,r3,r7                                
ram:0001cc6a    86fa47f6        uadd8       r6,r6,r7                                
ram:0001cc6e    a5fa87f6        sel         r6,r5,r7                                
ram:0001cc72    8eb9            cbnz        r6,LAB_0001cc98                         
ram:0001cc74    eed1            bne         LAB_0001cc54                            
ram:0001cc76    f0bc            pop         {r4,r5,r6,r7}                           
ram:0001cc78    01f0ff01        and         param_2,param_2,#0xff                   
ram:0001cc7c    02f00702        and         param_3,param_3,#0x7                    
                            LAB_0001cc80:                 ;XREF[1,0]:   0001cc26
ram:0001cc80    32b1            cbz         param_3,LAB_0001cc90                    
                            LAB_0001cc82:                 ;XREF[1,0]:   0001cc8e
ram:0001cc82    10f8013b        ldrb.w      r3,[param_1],#0x1                       
ram:0001cc86    013a            subs        param_3,#0x1                            
ram:0001cc88    83ea0103        eor.w       r3,r3,param_2                           
ram:0001cc8c    13b1            cbz         r3,LAB_0001cc94                         
ram:0001cc8e    f8d1            bne         LAB_0001cc82                            
                            LAB_0001cc90:                 ;XREF[2,0]:   0001cc3c,0001cc80
ram:0001cc90    0020            movs        param_1,#0x0                            
ram:0001cc92    7047            bx          lr                                      
                            LAB_0001cc94:                 ;XREF[2,0]:   0001cc36,0001cc8c
ram:0001cc94    0138            subs        param_1,#0x1                            
ram:0001cc96    7047            bx          lr                                      
                            LAB_0001cc98:                 ;XREF[1,0]:   0001cc72
ram:0001cc98    002d            cmp         r5,#0x0                                 
ram:0001cc9a    06bf            itte        eq                                      
ram:0001cc9c    3546            mov.eq      r5,r6                                   
ram:0001cc9e    0338            sub.eq      param_1,#0x3                            
ram:0001cca0    0738            sub.ne      param_1,#0x7                            
ram:0001cca2    15f0010f        tst         r5,#0x1                                 
ram:0001cca6    07d1            bne         LAB_0001ccb8                            
ram:0001cca8    0130            adds        param_1,#0x1                            
ram:0001ccaa    15f4807f        tst         r5,#0x100                               
ram:0001ccae    02bf            ittt        eq                                      
ram:0001ccb0    0130            add.eq      param_1,#0x1                            
ram:0001ccb2    15f4c03f        tst.eq      r5,#0x18000                             
ram:0001ccb6    0130            add.eq      param_1,#0x1                            
                            LAB_0001ccb8:                 ;XREF[1,0]:   0001cca6
ram:0001ccb8    f0bc            pop         {r4,r5,r6,r7}                           
ram:0001ccba    0138            subs        param_1,#0x1                            
ram:0001ccbc    7047            bx          lr                                      
ram:0001ccbe    00bf            nop                                                  
                            ;************************************************************************************************
                            ;*                                           FUNCTION                                           *
                            ;************************************************************************************************
                            ;undefined FUN_0001ccc0(undefined * param_1, undefined * param_2, int param_3)
          ;param_1       undefined *         r0                      
          ;param_2       undefined *         r1                      
          ;param_3       int                 r2                      
                                                          ;XREF[1,0]:   0001c6de
ram:0001ccc0    8842            cmp         param_1,param_2                         
ram:0001ccc2    10b5            push        {r4,lr}                                 
ram:0001ccc4    01eb0203        add.w       r3,param_2,param_3                      
ram:0001ccc8    03d8            bhi         LAB_0001ccd2                            
                            LAB_0001ccca:                 ;XREF[1,0]:   0001ccd4
ram:0001ccca    421e            subs        param_3,param_1,#0x1                    
                            LAB_0001cccc:                 ;XREF[1,0]:   0001ccf2
ram:0001cccc    9942            cmp         param_2,r3                              
ram:0001ccce    0cd1            bne         LAB_0001ccea                            
ram:0001ccd0    10bd            pop         {r4,pc}                                 
                            LAB_0001ccd2:                 ;XREF[1,0]:   0001ccc8
ram:0001ccd2    9842            cmp         param_1,r3                              
ram:0001ccd4    f9d2            bcs         LAB_0001ccca                            
ram:0001ccd6    8118            adds        param_2,param_1,param_3                 
ram:0001ccd8    d21a            subs        param_3,param_3,r3                      
                            LAB_0001ccda:                 ;XREF[1,0]:   0001cce8
ram:0001ccda    d342            cmn         r3,param_3                              
ram:0001ccdc    00d1            bne         LAB_0001cce0                            
ram:0001ccde    10bd            pop         {r4,pc}                                 
                            LAB_0001cce0:                 ;XREF[1,0]:   0001ccdc
ram:0001cce0    13f8014d        ldrb.w      r4,[r3,#-0x1]!                          
ram:0001cce4    01f8014d        strb.w      r4,[param_2,#-0x1]!                     
ram:0001cce8    f7e7            b           LAB_0001ccda                            
                            LAB_0001ccea:                 ;XREF[1,0]:   0001ccce
ram:0001ccea    11f8014b        ldrb.w      r4,[param_2],#0x1                       
ram:0001ccee    02f8014f        strb.w      r4,[param_3,#0x1]!                      
ram:0001ccf2    ebe7            b           LAB_0001cccc                            
                            ;************************************************************************************************
                            ;*                                           FUNCTION                                           *
                            ;************************************************************************************************
                            ;undefined FUN_0001ccf4(undefined4 * param_1, int param_2)
          ;param_1       undefined4 *        r0                      
          ;param_2       int                 r1                      
                                                          ;XREF[3,0]:   0001c704,0001ce62,0001ce8e
ram:0001ccf4    38b5            push        {r3,r4,r5,lr}                           
ram:0001ccf6    0546            mov         r5,param_1                              
ram:0001ccf8    0029            cmp         param_2,#0x0                            
ram:0001ccfa    45d0            beq         LAB_0001cd88                            
ram:0001ccfc    51f8043c        ldr.w       r3,[param_2,#-0x4]                      
ram:0001cd00    0c1f            subs        r4,param_2,#0x4                         
ram:0001cd02    002b            cmp         r3,#0x0                                 
ram:0001cd04    b8bf            it          lt                                      
ram:0001cd06    e418            add.lt      r4,r4,r3                                
ram:0001cd08    00f0d6f8        bl          FUN_0001ceb8                            ;undefined FUN_0001ceb8(void)
ram:0001cd0c    1f4a            ldr         r2=>DAT_200020d4,[DAT_0001cd8c]         ;= 200020D4h
ram:0001cd0e    1368            ldr         r3,[r2,#0x0]=>DAT_200020d4              
ram:0001cd10    1046            mov         param_1,r2                              
ram:0001cd12    33b9            cbnz        r3,LAB_0001cd22                         
ram:0001cd14    6360            str         r3,[r4,#0x4]                            
ram:0001cd16    1460            str         r4,[r2,#0x0]=>DAT_200020d4              
                            LAB_0001cd18:                 ;XREF[5,0]:   0001cd3c,0001cd5a,0001cd66,0001cd6e
                                                          ;             0001cd86
ram:0001cd18    2846            mov         param_1,r5                              
ram:0001cd1a    bde83840        pop.w       {r3,r4,r5,lr}                           
ram:0001cd1e    00f0ccb8        b.w         FUN_0001ceba                            ;undefined FUN_0001ceba(void)
                            LAB_0001cd22:                 ;XREF[1,0]:   0001cd12
ram:0001cd22    a342            cmp         r3,r4                                   
ram:0001cd24    0cd9            bls         LAB_0001cd40                            
ram:0001cd26    2168            ldr         param_2,[r4,#0x0]                       
ram:0001cd28    6218            adds        r2,r4,param_2                           
ram:0001cd2a    9342            cmp         r3,r2                                   
ram:0001cd2c    04bf            itt         eq                                      
ram:0001cd2e    1a68            ldr.eq      r2,[r3,#0x0]                            
ram:0001cd30    5b68            ldr.eq      r3,[r3,#0x4]                            
ram:0001cd32    6360            str         r3,[r4,#0x4]                            
ram:0001cd34    04bf            itt         eq                                      
ram:0001cd36    5218            add.eq      r2,r2,param_2                           
ram:0001cd38    2260            str.eq      r2,[r4,#0x0]                            
ram:0001cd3a    0460            str         r4,[param_1,#0x0]=>DAT_200020d4         
ram:0001cd3c    ece7            b           LAB_0001cd18                            
                            LAB_0001cd3e:                 ;XREF[1,0]:   0001cd46
ram:0001cd3e    1346            mov         r3,r2                                   
                            LAB_0001cd40:                 ;XREF[1,0]:   0001cd24
ram:0001cd40    5a68            ldr         r2,[r3,#0x4]                            
ram:0001cd42    0ab1            cbz         r2,LAB_0001cd48                         
ram:0001cd44    a242            cmp         r2,r4                                   
ram:0001cd46    fad9            bls         LAB_0001cd3e                            
                            LAB_0001cd48:                 ;XREF[1,0]:   0001cd42
ram:0001cd48    1968            ldr         param_2,[r3,#0x0]                       
ram:0001cd4a    5818            adds        param_1,r3,param_2                      
ram:0001cd4c    a042            cmp         param_1,r4                              
ram:0001cd4e    0bd1            bne         LAB_0001cd68                            
ram:0001cd50    2068            ldr         param_1,[r4,#0x0]                       
ram:0001cd52    0144            add         param_2,param_1                         
ram:0001cd54    5818            adds        param_1,r3,param_2                      
ram:0001cd56    8242            cmp         r2,param_1                              
ram:0001cd58    1960            str         param_2,[r3,#0x0]                       
ram:0001cd5a    ddd1            bne         LAB_0001cd18                            
ram:0001cd5c    1068            ldr         param_1,[r2,#0x0]                       
ram:0001cd5e    5268            ldr         r2,[r2,#0x4]                            
ram:0001cd60    5a60            str         r2,[r3,#0x4]                            
ram:0001cd62    0144            add         param_2,param_1                         
ram:0001cd64    1960            str         param_2,[r3,#0x0]                       
ram:0001cd66    d7e7            b           LAB_0001cd18                            
                            LAB_0001cd68:                 ;XREF[1,0]:   0001cd4e
ram:0001cd68    02d9            bls         LAB_0001cd70                            
ram:0001cd6a    0c23            movs        r3,#0xc                                 
ram:0001cd6c    2b60            str         r3,[r5,#0x0]                            
ram:0001cd6e    d3e7            b           LAB_0001cd18                            
                            LAB_0001cd70:                 ;XREF[1,0]:   0001cd68
ram:0001cd70    2068            ldr         param_1,[r4,#0x0]                       
ram:0001cd72    2118            adds        param_2,r4,param_1                      
ram:0001cd74    8a42            cmp         r2,param_2                              
ram:0001cd76    04bf            itt         eq                                      
ram:0001cd78    1168            ldr.eq      param_2,[r2,#0x0]                       
ram:0001cd7a    5268            ldr.eq      r2,[r2,#0x4]                            
ram:0001cd7c    6260            str         r2,[r4,#0x4]                            
ram:0001cd7e    04bf            itt         eq                                      
ram:0001cd80    0918            add.eq      param_2,param_2,param_1                 
ram:0001cd82    2160            str.eq      param_2,[r4,#0x0]                       
ram:0001cd84    5c60            str         r4,[r3,#0x4]                            
ram:0001cd86    c7e7            b           LAB_0001cd18                            
                            LAB_0001cd88:                 ;XREF[1,0]:   0001ccfa
ram:0001cd88    38bd            pop         {r3,r4,r5,pc}                           
ram:0001cd8a    00bf            nop                                                  
                            DAT_0001cd8c:                 ;XREF[1,0]:   0001cd0c
ram:0001cd8c    d4200020        undefined4  200020D4h                               
                            ;************************************************************************************************
                            ;*                                           FUNCTION                                           *
                            ;************************************************************************************************
                            ;uint FUN_0001cd90(int * param_1, uint param_2)
          ;param_1       int *               r0                      
          ;param_2       uint                r1                      
                                                          ;XREF[4,0]:   0001c692,0001c726,0001ce5c,0001ce78
ram:0001cd90    70b5            push        {r4,r5,r6,lr}                           
ram:0001cd92    cd1c            adds        r5,param_2,#0x3                         
ram:0001cd94    25f00305        bic         r5,r5,#0x3                              
ram:0001cd98    0835            adds        r5,#0x8                                 
ram:0001cd9a    0c2d            cmp         r5,#0xc                                 
ram:0001cd9c    38bf            it          cc                                      
ram:0001cd9e    0c25            mov.cc      r5,#0xc                                 
ram:0001cda0    002d            cmp         r5,#0x0                                 
ram:0001cda2    0646            mov         r6,param_1                              
ram:0001cda4    01db            blt         LAB_0001cdaa                            
ram:0001cda6    a942            cmp         param_2,r5                              
ram:0001cda8    03d9            bls         LAB_0001cdb2                            
                            LAB_0001cdaa:                 ;XREF[1,0]:   0001cda4
ram:0001cdaa    0c23            movs        r3,#0xc                                 
ram:0001cdac    3360            str         r3,[r6,#0x0]                            
                            LAB_0001cdae:                 ;XREF[1,0]:   0001cde2
ram:0001cdae    0020            movs        param_1,#0x0                            
ram:0001cdb0    70bd            pop         {r4,r5,r6,pc}                           
                            LAB_0001cdb2:                 ;XREF[1,0]:   0001cda8
ram:0001cdb2    00f081f8        bl          FUN_0001ceb8                            ;undefined FUN_0001ceb8(void)
ram:0001cdb6    234a            ldr         r2=>DAT_200020d4,[DAT_0001ce44]         ;= 200020D4h
ram:0001cdb8    1468            ldr         r4,[r2,#0x0]=>DAT_200020d4              
ram:0001cdba    2146            mov         param_2,r4                              
                            LAB_0001cdbc:                 ;XREF[1,0]:   0001ce24
ram:0001cdbc    91b9            cbnz        param_2,LAB_0001cde4                    
ram:0001cdbe    224c            ldr         r4,[DAT_0001ce48]                       ;= 200020D8h
ram:0001cdc0    2368            ldr         r3,[r4,#0x0]=>DAT_200020d8              
ram:0001cdc2    1bb9            cbnz        r3,LAB_0001cdcc                         
ram:0001cdc4    3046            mov         param_1,r6                              
ram:0001cdc6    00f067f8        bl          FUN_0001ce98                            ;undefined FUN_0001ce98(int * param_1...
ram:0001cdca    2060            str         param_1,[r4,#0x0]=>DAT_200020d8         
                            LAB_0001cdcc:                 ;XREF[1,0]:   0001cdc2
ram:0001cdcc    2946            mov         param_2,r5                              
ram:0001cdce    3046            mov         param_1,r6                              
ram:0001cdd0    00f062f8        bl          FUN_0001ce98                            ;undefined FUN_0001ce98(int * param_1...
ram:0001cdd4    431c            adds        r3,param_1,#0x1                         
ram:0001cdd6    26d1            bne         LAB_0001ce26                            
                            LAB_0001cdd8:                 ;XREF[1,0]:   0001ce3a
ram:0001cdd8    0c23            movs        r3,#0xc                                 
ram:0001cdda    3360            str         r3,[r6,#0x0]                            
ram:0001cddc    3046            mov         param_1,r6                              
ram:0001cdde    00f06cf8        bl          FUN_0001ceba                            ;undefined FUN_0001ceba(void)
ram:0001cde2    e4e7            b           LAB_0001cdae                            
                            LAB_0001cde4:                 ;XREF[1,0]:   0001cdbc
ram:0001cde4    0b68            ldr         r3,[param_2,#0x0]                       
ram:0001cde6    5b1b            subs        r3,r3,r5                                
ram:0001cde8    1ad4            bmi         LAB_0001ce20                            
ram:0001cdea    0b2b            cmp         r3,#0xb                                 
ram:0001cdec    0fd9            bls         LAB_0001ce0e                            
ram:0001cdee    0b60            str         r3,[param_2,#0x0]                       
ram:0001cdf0    cd50            str         r5,[param_2,r3]                         
ram:0001cdf2    cc18            adds        r4,param_2,r3                           
                            LAB_0001cdf4:                 ;XREF[2,0]:   0001ce1e,0001ce3e
ram:0001cdf4    3046            mov         param_1,r6                              
ram:0001cdf6    00f060f8        bl          FUN_0001ceba                            ;undefined FUN_0001ceba(void)
ram:0001cdfa    04f10b00        add.w       param_1,r4,#0xb                         
ram:0001cdfe    231d            adds        r3,r4,#0x4                              
ram:0001ce00    20f00700        bic         param_1,param_1,#0x7                    
ram:0001ce04    c31a            subs        r3,param_1,r3                           
ram:0001ce06    1bd0            beq         LAB_0001ce40                            
ram:0001ce08    5a42            rsbs        r2,r3                                   
ram:0001ce0a    e250            str         r2,[r4,r3]                              
ram:0001ce0c    70bd            pop         {r4,r5,r6,pc}                           
                            LAB_0001ce0e:                 ;XREF[1,0]:   0001cdec
ram:0001ce0e    8c42            cmp         r4,param_2                              
ram:0001ce10    0dbf            iteet       eq                                      
ram:0001ce12    6368            ldr.eq      r3,[r4,#0x4]                            
ram:0001ce14    4b68            ldr.ne      r3,[param_2,#0x4]                       
ram:0001ce16    6360            str.ne      r3,[r4,#0x4]                            
ram:0001ce18    1360            str.eq      r3,[r2,#0x0]=>DAT_200020d4              
ram:0001ce1a    18bf            it          ne                                      
ram:0001ce1c    0c46            mov.ne      r4,param_2                              
ram:0001ce1e    e9e7            b           LAB_0001cdf4                            
                            LAB_0001ce20:                 ;XREF[1,0]:   0001cde8
ram:0001ce20    0c46            mov         r4,param_2                              
ram:0001ce22    4968            ldr         param_2,[param_2,#0x4]                  
ram:0001ce24    cae7            b           LAB_0001cdbc                            
                            LAB_0001ce26:                 ;XREF[1,0]:   0001cdd6
ram:0001ce26    c41c            adds        r4,param_1,#0x3                         
ram:0001ce28    24f00304        bic         r4,r4,#0x3                              
ram:0001ce2c    a042            cmp         param_1,r4                              
ram:0001ce2e    05d0            beq         LAB_0001ce3c                            
ram:0001ce30    211a            subs        param_2,r4,param_1                      
ram:0001ce32    3046            mov         param_1,r6                              
ram:0001ce34    00f030f8        bl          FUN_0001ce98                            ;undefined FUN_0001ce98(int * param_1...
ram:0001ce38    0130            adds        param_1,#0x1                            
ram:0001ce3a    cdd0            beq         LAB_0001cdd8                            
                            LAB_0001ce3c:                 ;XREF[1,0]:   0001ce2e
ram:0001ce3c    2560            str         r5,[r4,#0x0]                            
ram:0001ce3e    d9e7            b           LAB_0001cdf4                            
                            LAB_0001ce40:                 ;XREF[1,0]:   0001ce06
ram:0001ce40    70bd            pop         {r4,r5,r6,pc}                           
ram:0001ce42    00bf            nop                                                  
                            DAT_0001ce44:                 ;XREF[1,0]:   0001cdb6
ram:0001ce44    d4200020        undefined4  200020D4h                               
                            DAT_0001ce48:                 ;XREF[1,0]:   0001cdbe
ram:0001ce48    d8200020        undefined4  200020D8h                               
                            ;************************************************************************************************
                            ;*                                           FUNCTION                                           *
                            ;************************************************************************************************
                            ;undefined * FUN_0001ce4c(int * param_1, undefined * param_2, undefined * param_3)
          ;param_1       int *               r0                      
          ;param_2       undefined *         r1                      
          ;param_3       undefined *         r2                      
                                                          ;XREF[1,0]:   0001c6f6
ram:0001ce4c    f8b5            push        {r3,r4,r5,r6,r7,lr}                     
ram:0001ce4e    0746            mov         r7,param_1                              
ram:0001ce50    1446            mov         r4,param_3                              
ram:0001ce52    0e46            mov         r6,param_2                              
ram:0001ce54    21b9            cbnz        param_2,LAB_0001ce60                    
ram:0001ce56    1146            mov         param_2,param_3                         
ram:0001ce58    bde8f840        pop.w       {r3,r4,r5,r6,r7,lr}                     
ram:0001ce5c    fff798bf        b.w         FUN_0001cd90                            ;uint FUN_0001cd90(int * param_1, uin...
                            LAB_0001ce60:                 ;XREF[1,0]:   0001ce54
ram:0001ce60    22b9            cbnz        param_3,LAB_0001ce6c                    
ram:0001ce62    fff747ff        bl          FUN_0001ccf4                            ;undefined FUN_0001ccf4(undefined4 * ...
ram:0001ce66    2546            mov         r5,r4                                   
                            LAB_0001ce68:                 ;XREF[3,0]:   0001ce80,0001ce92,0001ce96
ram:0001ce68    2846            mov         param_1,r5                              
ram:0001ce6a    f8bd            pop         {r3,r4,r5,r6,r7,pc}                     
                            LAB_0001ce6c:                 ;XREF[1,0]:   0001ce60
ram:0001ce6c    00f026f8        bl          FUN_0001cebc                            ;int FUN_0001cebc(undefined4 param_1,...
ram:0001ce70    8442            cmp         r4,param_1                              
ram:0001ce72    0fd9            bls         LAB_0001ce94                            
ram:0001ce74    2146            mov         param_2,r4                              
ram:0001ce76    3846            mov         param_1,r7                              
ram:0001ce78    fff78aff        bl          FUN_0001cd90                            ;uint FUN_0001cd90(int * param_1, uin...
ram:0001ce7c    0546            mov         r5,param_1                              
ram:0001ce7e    0028            cmp         param_1,#0x0                            
ram:0001ce80    f2d0            beq         LAB_0001ce68                            
ram:0001ce82    3146            mov         param_2,r6                              
ram:0001ce84    2246            mov         param_3,r4                              
ram:0001ce86    fff79dfb        bl          FUN_0001c5c4                            ;undefined FUN_0001c5c4(int param_1, ...
ram:0001ce8a    3146            mov         param_2,r6                              
ram:0001ce8c    3846            mov         param_1,r7                              
ram:0001ce8e    fff731ff        bl          FUN_0001ccf4                            ;undefined FUN_0001ccf4(undefined4 * ...
ram:0001ce92    e9e7            b           LAB_0001ce68                            
                            LAB_0001ce94:                 ;XREF[1,0]:   0001ce72
ram:0001ce94    3546            mov         r5,r6                                   
ram:0001ce96    e7e7            b           LAB_0001ce68                            
                            ;************************************************************************************************
                            ;*                                           FUNCTION                                           *
                            ;************************************************************************************************
                            ;undefined FUN_0001ce98(int * param_1, int param_2)
          ;param_1       int *               r0                      
          ;param_2       int                 r1                      
                                                          ;XREF[3,0]:   0001cdc6,0001cdd0,0001ce34
ram:0001ce98    38b5            push        {r3,r4,r5,lr}                           
ram:0001ce9a    064c            ldr         r4,[DAT_0001ceb4]                       ;= 200020F4h
ram:0001ce9c    0023            movs        r3,#0x0                                 
ram:0001ce9e    0546            mov         r5,param_1                              
ram:0001cea0    0846            mov         param_1,param_2                         
ram:0001cea2    2360            str         r3,[r4,#0x0]=>DAT_200020f4              
ram:0001cea4    00f014f8        bl          FUN_0001ced0                            ;int FUN_0001ced0(int param_1)
ram:0001cea8    431c            adds        r3,param_1,#0x1                         
ram:0001ceaa    02d1            bne         LAB_0001ceb2                            
ram:0001ceac    2368            ldr         r3,[r4,#0x0]=>DAT_200020f4              
ram:0001ceae    03b1            cbz         r3,LAB_0001ceb2                         
ram:0001ceb0    2b60            str         r3,[r5,#0x0]                            
                            LAB_0001ceb2:                 ;XREF[2,0]:   0001ceaa,0001ceae
ram:0001ceb2    38bd            pop         {r3,r4,r5,pc}                           
                            DAT_0001ceb4:                 ;XREF[1,0]:   0001ce9a
ram:0001ceb4    f4200020        undefined4  200020F4h                               
                            ;************************************************************************************************
                            ;*                                           FUNCTION                                           *
                            ;************************************************************************************************
                            ;undefined FUN_0001ceb8(void)
                                                          ;XREF[2,0]:   0001cd08,0001cdb2
ram:0001ceb8    7047            bx          lr                                      
                            ;************************************************************************************************
                            ;*                                           FUNCTION                                           *
                            ;************************************************************************************************
                            ;undefined FUN_0001ceba(void)
                                                          ;XREF[3,0]:   0001cd1e,0001cdde,0001cdf6
ram:0001ceba    7047            bx          lr                                      
                            ;************************************************************************************************
                            ;*                                           FUNCTION                                           *
                            ;************************************************************************************************
                            ;int FUN_0001cebc(undefined4 param_1, int param_2)
          ;param_1       undefined4          r0                      
          ;param_2       int                 r1                      
                                                          ;XREF[1,0]:   0001ce6c
ram:0001cebc    51f8040c        ldr.w       param_1,[param_2,#-0x4]                 
ram:0001cec0    0028            cmp         param_1,#0x0                            
ram:0001cec2    a0f10400        sub.w       param_1,param_1,#0x4                    
ram:0001cec6    bcbf            itt         lt                                      
ram:0001cec8    0b58            ldr.lt      r3,[param_2,param_1]                    
ram:0001ceca    c018            add.lt      param_1,param_1,r3                      
ram:0001cecc    7047            bx          lr                                      
ram:0001cece    0000            movs        r0,r0                                   
                            ;************************************************************************************************
                            ;*                                           FUNCTION                                           *
                            ;************************************************************************************************
                            ;int FUN_0001ced0(int param_1)
          ;param_1       int                 r0                      
                                                          ;XREF[1,0]:   0001cea4
ram:0001ced0    044a            ldr         r2,[DAT_0001cee4]                       ;= 200020DCh
ram:0001ced2    0549            ldr         r1,[DAT_0001cee8]                       ;= 200020F8h
ram:0001ced4    1368            ldr         r3,[r2,#0x0]=>DAT_200020dc              
ram:0001ced6    002b            cmp         r3,#0x0                                 
ram:0001ced8    08bf            it          eq                                      
ram:0001ceda    0b46            mov.eq      r3,r1                                   
ram:0001cedc    1844            add         param_1,r3                              
ram:0001cede    1060            str         param_1,[r2,#0x0]=>DAT_200020dc         
ram:0001cee0    1846            mov         param_1,r3                              
ram:0001cee2    7047            bx          lr                                      
                            DAT_0001cee4:                 ;XREF[1,0]:   0001ced0
ram:0001cee4    dc200020        undefined4  200020DCh                               
                            DAT_0001cee8:                 ;XREF[1,0]:   0001ced2
ram:0001cee8    f8200020        undefined4  200020F8h                               
                            ;************************************************************************************************
                            ;*                                           FUNCTION                                           *
                            ;************************************************************************************************
                            ;undefined FUN_0001ceec(void)
                                                          ;XREF[2,0]:   0001c56e,0001ceec
ram:0001ceec    fee7            b           FUN_0001ceec                            
ram:0001ceee    00bf            nop                                                  
ram:0001cef0    80f00040        eor         r0,r0,#0x80000000                       
ram:0001cef4    02e0            b           LAB_0001cefc                            
ram:0001cef6    00bf            nop                                                  
                            ;************************************************************************************************
                            ;*                                           FUNCTION                                           *
                            ;************************************************************************************************
                            ;uint FUN_0001cef8(uint param_1, uint param_2, undefined4 param_3, uint param_4)
          ;param_1       uint                r0                      
          ;param_2       uint                r1                      
          ;param_3       undefined4          r2                      
          ;param_4       uint                r3                      
                                                          ;XREF[1,0]:   0001bf40
ram:0001cef8    81f00041        eor         param_2,param_2,#0x80000000             
                            LAB_0001cefc:                 ;XREF[1,0]:   0001cef4
ram:0001cefc    4200            lsls        param_3,param_1,#0x1                    
ram:0001cefe    1fbf            itttt       ne                                      
ram:0001cf00    5fea4103        lsls.ne.w   param_4,param_2,#0x1                    
ram:0001cf04    92ea030f        teq.ne.w    param_3,param_4                         
ram:0001cf08    7fea226c        mvns.ne.w   r12,param_3, asr #0x18                  
ram:0001cf0c    7fea236c        mvns.ne.w   r12,param_4, asr #0x18                  
ram:0001cf10    6ad0            beq         LAB_0001cfe8                            
ram:0001cf12    4fea1262        lsr.w       param_3,param_3,#0x18                   
ram:0001cf16    d2eb1363        rsbs        param_4,param_3,param_4, lsr #0x18      
ram:0001cf1a    c1bf            itttt       gt                                      
ram:0001cf1c    d218            add.gt      param_3,param_3,param_4                 
ram:0001cf1e    4140            eor.gt      param_2,param_1                         
ram:0001cf20    4840            eor.gt      param_1,param_2                         
ram:0001cf22    4140            eor.gt      param_2,param_1                         
ram:0001cf24    b8bf            it          lt                                      
ram:0001cf26    5b42            rsb.lt      param_4,param_4                         
ram:0001cf28    192b            cmp         param_4,#0x19                           
ram:0001cf2a    88bf            it          hi                                      
ram:0001cf2c    7047            bx.hi       lr                                      
ram:0001cf2e    10f0004f        tst         param_1,#0x80000000                     
ram:0001cf32    40f40000        orr         param_1,param_1,#0x800000               
ram:0001cf36    20f07f40        bic         param_1,param_1,#0xff000000             
ram:0001cf3a    18bf            it          ne                                      
ram:0001cf3c    4042            rsb.ne      param_1,param_1                         
ram:0001cf3e    11f0004f        tst         param_2,#0x80000000                     
ram:0001cf42    41f40001        orr         param_2,param_2,#0x800000               
ram:0001cf46    21f07f41        bic         param_2,param_2,#0xff000000             
ram:0001cf4a    18bf            it          ne                                      
ram:0001cf4c    4942            rsb.ne      param_2,param_2                         
ram:0001cf4e    92ea030f        teq.w       param_3,param_4                         
ram:0001cf52    3fd0            beq         LAB_0001cfd4                            
                            LAB_0001cf54:                 ;XREF[1,0]:   0001cfe6
ram:0001cf54    a2f10102        sub.w       param_3,param_3,#0x1                    
ram:0001cf58    41fa03fc        asr.w       r12,param_2,param_4                     
ram:0001cf5c    10eb0c00        adds.w      param_1,param_1,r12                     
ram:0001cf60    c3f12003        rsb.w       param_4,param_4,#0x20                   
ram:0001cf64    01fa03f1        lsl.w       param_2,param_2,param_4                 
ram:0001cf68    00f00043        and         param_4,param_1,#0x80000000             
ram:0001cf6c    02d5            bpl         LAB_0001cf74                            
ram:0001cf6e    4942            rsbs        param_2,param_2                         
ram:0001cf70    60eb4000        sbc.w       param_1,param_1,param_1, lsl #0x1       
                            LAB_0001cf74:                 ;XREF[1,0]:   0001cf6c
ram:0001cf74    b0f5000f        cmp.w       param_1,#0x800000                       
ram:0001cf78    13d3            bcc         LAB_0001cfa2                            
ram:0001cf7a    b0f1807f        cmp.w       param_1,#0x1000000                      
ram:0001cf7e    06d3            bcc         LAB_0001cf8e                            
ram:0001cf80    4008            lsrs        param_1,param_1,#0x1                    
ram:0001cf82    4fea3101        rrx         param_2,param_2                         
ram:0001cf86    02f10102        add.w       param_3,param_3,#0x1                    
ram:0001cf8a    fe2a            cmp         param_3,#0xfe                           
ram:0001cf8c    51d2            bcs         LAB_0001d032                            
                            LAB_0001cf8e:                 ;XREF[2,0]:   0001cf7e,0001cfb0
ram:0001cf8e    b1f1004f        cmp.w       param_2,#0x80000000                     
ram:0001cf92    40ebc250        adc.w       param_1,param_1,param_3, lsl #0x17      
ram:0001cf96    08bf            it          eq                                      
ram:0001cf98    20f00100        bic.eq      param_1,param_1,#0x1                    
ram:0001cf9c    40ea0300        orr.w       param_1,param_1,param_4                 
ram:0001cfa0    7047            bx          lr                                      
                            LAB_0001cfa2:                 ;XREF[1,0]:   0001cf78
ram:0001cfa2    4900            lsls        param_2,param_2,#0x1                    
ram:0001cfa4    40eb0000        adc.w       param_1,param_1,param_1                 
ram:0001cfa8    10f4000f        tst         param_1,#0x800000                       
ram:0001cfac    a2f10102        sub.w       param_3,param_3,#0x1                    
ram:0001cfb0    edd1            bne         LAB_0001cf8e                            
ram:0001cfb2    b0fa80fc        clz         r12,param_1                             
ram:0001cfb6    acf1080c        sub.w       r12,r12,#0x8                            
ram:0001cfba    b2eb0c02        subs.w      param_3,param_3,r12                     
ram:0001cfbe    00fa0cf0        lsl.w       param_1,param_1,r12                     
ram:0001cfc2    aabf            itet        ge                                      
ram:0001cfc4    00ebc250        add.ge.w    param_1,param_1,param_3, lsl #0x17      
ram:0001cfc8    5242            rsb.lt      param_3,param_3                         
ram:0001cfca    1843            orr.ge      param_1,param_4                         
ram:0001cfcc    bcbf            itt         lt                                      
ram:0001cfce    d040            lsr.lt      param_1,param_3                         
ram:0001cfd0    1843            orr.lt      param_1,param_4                         
ram:0001cfd2    7047            bx          lr                                      
                            LAB_0001cfd4:                 ;XREF[1,0]:   0001cf52
ram:0001cfd4    92f0000f        teq         param_3,#0x0                            
ram:0001cfd8    81f40001        eor         param_2,param_2,#0x800000               
ram:0001cfdc    06bf            itte        eq                                      
ram:0001cfde    80f40000        eor.eq      param_1,param_1,#0x800000               
ram:0001cfe2    0132            add.eq      param_3,#0x1                            
ram:0001cfe4    013b            sub.ne      param_4,#0x1                            
ram:0001cfe6    b5e7            b           LAB_0001cf54                            
                            LAB_0001cfe8:                 ;XREF[1,0]:   0001cf10
ram:0001cfe8    4fea4103        lsl.w       param_4,param_2,#0x1                    
ram:0001cfec    7fea226c        mvns.w      r12,param_3, asr #0x18                  
ram:0001cff0    18bf            it          ne                                      
ram:0001cff2    7fea236c        mvns.ne.w   r12,param_4, asr #0x18                  
ram:0001cff6    21d0            beq         LAB_0001d03c                            
ram:0001cff8    92ea030f        teq.w       param_3,param_4                         
ram:0001cffc    04d0            beq         LAB_0001d008                            
ram:0001cffe    92f0000f        teq         param_3,#0x0                            
ram:0001d002    08bf            it          eq                                      
ram:0001d004    0846            mov.eq      param_1,param_2                         
ram:0001d006    7047            bx          lr                                      
                            LAB_0001d008:                 ;XREF[1,0]:   0001cffc
ram:0001d008    90ea010f        teq.w       param_1,param_2                         
ram:0001d00c    1cbf            itt         ne                                      
ram:0001d00e    0020            mov.ne      param_1,#0x0                            
ram:0001d010    7047            bx.ne       lr                                      
ram:0001d012    12f07f4f        tst         param_3,#0xff000000                     
ram:0001d016    04d1            bne         LAB_0001d022                            
ram:0001d018    4000            lsls        param_1,param_1,#0x1                    
ram:0001d01a    28bf            it          cs                                      
ram:0001d01c    40f00040        orr.cs      param_1,param_1,#0x80000000             
ram:0001d020    7047            bx          lr                                      
                            LAB_0001d022:                 ;XREF[1,0]:   0001d016
ram:0001d022    12f10072        adds.w      param_3,param_3,#0x2000000              
ram:0001d026    3cbf            itt         cc                                      
ram:0001d028    00f50000        add.cc.w    param_1,param_1,#0x800000               
ram:0001d02c    7047            bx.cc       lr                                      
ram:0001d02e    00f00043        and         param_4,param_1,#0x80000000             
                            LAB_0001d032:                 ;XREF[1,0]:   0001cf8c
ram:0001d032    43f0fe40        orr         param_1,param_4,#0x7f000000             
ram:0001d036    40f40000        orr         param_1,param_1,#0x800000               
ram:0001d03a    7047            bx          lr                                      
                            LAB_0001d03c:                 ;XREF[1,0]:   0001cff6
ram:0001d03c    7fea2262        mvns.w      param_3,param_3, asr #0x18              
ram:0001d040    16bf            itet        ne                                      
ram:0001d042    0846            mov.ne      param_1,param_2                         
ram:0001d044    7fea2363        mvns.eq.w   param_4,param_4, asr #0x18              
ram:0001d048    0146            mov.ne      param_2,param_1                         
ram:0001d04a    4202            lsls        param_3,param_1,#0x9                    
ram:0001d04c    06bf            itte        eq                                      
ram:0001d04e    5fea4123        lsls.eq.w   param_4,param_2,#0x9                    
ram:0001d052    90ea010f        teq.eq.w    param_1,param_2                         
ram:0001d056    40f48000        orr.ne      param_1,param_1,#0x400000               
ram:0001d05a    7047            bx          lr                                      
ram:0001d05c    4ff00003        mov.w       r3,#0x0                                 
ram:0001d060    04e0            b           LAB_0001d06c                            
ram:0001d062    00bf            nop                                                  
                            ;************************************************************************************************
                            ;*                                           FUNCTION                                           *
                            ;************************************************************************************************
                            ;uint FUN_0001d064(uint param_1)
          ;param_1       uint                r0                      
                                                          ;XREF[3,0]:   0001bf34,0001c18e,0001c1b8
ram:0001d064    10f00043        ands        r3,param_1,#0x80000000                  
ram:0001d068    48bf            it          mi                                      
ram:0001d06a    4042            rsb.mi      param_1,param_1                         
                            LAB_0001d06c:                 ;XREF[1,0]:   0001d060
ram:0001d06c    5fea000c        movs.w      r12,param_1                             
ram:0001d070    08bf            it          eq                                      
ram:0001d072    7047            bx.eq       lr                                      
ram:0001d074    43f09643        orr         r3,r3,#0x4b000000                       
ram:0001d078    0146            mov         r1,param_1                              
ram:0001d07a    4ff00000        mov.w       param_1,#0x0                            
ram:0001d07e    1ce0            b           LAB_0001d0ba                            
ram:0001d080    50ea0102        orrs.w      r2,r0,r1                                
ram:0001d084    08bf            it          eq                                      
ram:0001d086    7047            bx.eq       lr                                      
ram:0001d088    4ff00003        mov.w       r3,#0x0                                 
ram:0001d08c    0ae0            b           FUN_0001d0a4                            ;uint FUN_0001d0a4(uint param_1, uint...
ram:0001d08e    00bf            nop                                                  
ram:0001d090    50ea0102        orrs.w      r2,r0,r1                                
ram:0001d094    08bf            it          eq                                      
ram:0001d096    7047            bx.eq       lr                                      
ram:0001d098    11f00043        ands        r3,r1,#0x80000000                       
ram:0001d09c    02d5            bpl         FUN_0001d0a4                            
ram:0001d09e    4042            rsbs        r0,r0                                   
ram:0001d0a0    61eb4101        sbc.w       r1,r1,r1, lsl #0x1                      
                            ;************************************************************************************************
                            ;*                                           FUNCTION                                           *
                            ;************************************************************************************************
                            ;uint FUN_0001d0a4(uint param_1, uint param_2, undefined4 param_3, uint param_4)
          ;param_1       uint                r0                      
          ;param_2       uint                r1                      
          ;param_3       undefined4          r2                      
          ;param_4       uint                r3                      
                                                          ;XREF[2,0]:   0001d08c,0001d09c
ram:0001d0a4    5fea010c        movs.w      r12,param_2                             
ram:0001d0a8    02bf            ittt        eq                                      
ram:0001d0aa    8446            mov.eq      r12,param_1                             
ram:0001d0ac    0146            mov.eq      param_2,param_1                         
ram:0001d0ae    0020            mov.eq      param_1,#0x0                            
ram:0001d0b0    43f0b643        orr         param_4,param_4,#0x5b000000             
ram:0001d0b4    08bf            it          eq                                      
ram:0001d0b6    a3f18053        sub.eq.w    param_4,param_4,#0x10000000             
                            LAB_0001d0ba:                 ;XREF[1,0]:   0001d07e
ram:0001d0ba    a3f50003        sub.w       r3,r3,#0x800000                         
ram:0001d0be    bcfa8cf2        clz         r2,r12                                  
ram:0001d0c2    083a            subs        r2,#0x8                                 
ram:0001d0c4    a3ebc253        sub.w       r3,r3,r2, lsl #0x17                     
ram:0001d0c8    10db            blt         LAB_0001d0ec                            
ram:0001d0ca    01fa02fc        lsl.w       r12,r1,r2                               
ram:0001d0ce    6344            add         r3,r12                                  
ram:0001d0d0    00fa02fc        lsl.w       r12,param_1,r2                          
ram:0001d0d4    c2f12002        rsb.w       r2,r2,#0x20                             
ram:0001d0d8    bcf1004f        cmp.w       r12,#0x80000000                         
ram:0001d0dc    20fa02f2        lsr.w       r2,param_1,r2                           
ram:0001d0e0    43eb0200        adc.w       param_1,r3,r2                           
ram:0001d0e4    08bf            it          eq                                      
ram:0001d0e6    20f00100        bic.eq      param_1,param_1,#0x1                    
ram:0001d0ea    7047            bx          lr                                      
                            LAB_0001d0ec:                 ;XREF[1,0]:   0001d0c8
ram:0001d0ec    02f12002        add.w       r2,r2,#0x20                             
ram:0001d0f0    01fa02fc        lsl.w       r12,r1,r2                               
ram:0001d0f4    c2f12002        rsb.w       r2,r2,#0x20                             
ram:0001d0f8    50ea4c00        orrs.w      param_1,param_1,r12, lsl #0x1           
ram:0001d0fc    21fa02f2        lsr.w       r2,r1,r2                                
ram:0001d100    43eb0200        adc.w       param_1,r3,r2                           
ram:0001d104    08bf            it          eq                                      
ram:0001d106    20eadc70        bic.eq.w    param_1,param_1,r12, lsr #0x1f          
ram:0001d10a    7047            bx          lr                                      
                            ;************************************************************************************************
                            ;*                                           FUNCTION                                           *
                            ;************************************************************************************************
                            ;uint FUN_0001d10c(uint param_1, uint param_2, undefined4 param_3, uint param_4)
          ;param_1       uint                r0                      
          ;param_2       uint                r1                      
          ;param_3       undefined4          r2                      
          ;param_4       uint                r3                      
                                                          ;XREF[4,0]:   0001bf3a,0001bf4c,0001c194,0001c1be
ram:0001d10c    4ff0ff0c        mov.w       r12,#0xff                               
ram:0001d110    1cead052        ands.w      param_3,r12,param_1, lsr #0x17          
ram:0001d114    1ebf            ittt        ne                                      
ram:0001d116    1cead153        ands.ne.w   param_4,r12,param_2, lsr #0x17          
ram:0001d11a    92ea0c0f        teq.ne.w    param_3,r12                             
ram:0001d11e    93ea0c0f        teq.ne.w    param_4,r12                             
ram:0001d122    6fd0            beq         LAB_0001d204                            
                            LAB_0001d124:                 ;XREF[1,0]:   0001d202
ram:0001d124    1a44            add         param_3,param_4                         
ram:0001d126    80ea010c        eor.w       r12,param_1,param_2                     
ram:0001d12a    4002            lsls        param_1,param_1,#0x9                    
ram:0001d12c    18bf            it          ne                                      
ram:0001d12e    5fea4121        lsls.ne.w   param_2,param_2,#0x9                    
ram:0001d132    1ed0            beq         LAB_0001d172                            
ram:0001d134    4ff00063        mov.w       param_4,#0x8000000                      
ram:0001d138    43ea5010        orr.w       param_1,param_4,param_1, lsr #0x5       
ram:0001d13c    43ea5111        orr.w       param_2,param_4,param_2, lsr #0x5       
ram:0001d140    a0fb0131        umull       param_4,param_2,param_1,param_2         
ram:0001d144    0cf00040        and         param_1,r12,#0x80000000                 
ram:0001d148    b1f5000f        cmp.w       param_2,#0x800000                       
ram:0001d14c    3ebf            ittt        cc                                      
ram:0001d14e    4900            lsl.cc      param_2,param_2,#0x1                    
ram:0001d150    41ead371        orr.cc.w    param_2,param_2,param_4, lsr #0x1f      
ram:0001d154    5b00            lsl.cc      param_4,param_4,#0x1                    
ram:0001d156    40ea0100        orr.w       param_1,param_1,param_2                 
ram:0001d15a    62f17f02        sbc         param_3,param_3,#0x7f                   
ram:0001d15e    fd2a            cmp         param_3,#0xfd                           
ram:0001d160    1dd8            bhi         LAB_0001d19e                            
ram:0001d162    b3f1004f        cmp.w       param_4,#0x80000000                     
ram:0001d166    40ebc250        adc.w       param_1,param_1,param_3, lsl #0x17      
ram:0001d16a    08bf            it          eq                                      
ram:0001d16c    20f00100        bic.eq      param_1,param_1,#0x1                    
ram:0001d170    7047            bx          lr                                      
                            LAB_0001d172:                 ;XREF[1,0]:   0001d132
ram:0001d172    90f0000f        teq         param_1,#0x0                            
ram:0001d176    0cf0004c        and         r12,r12,#0x80000000                     
ram:0001d17a    08bf            it          eq                                      
ram:0001d17c    4902            lsl.eq      param_2,param_2,#0x9                    
ram:0001d17e    4cea5020        orr.w       param_1,r12,param_1, lsr #0x9           
ram:0001d182    40ea5120        orr.w       param_1,param_1,param_2, lsr #0x9       
ram:0001d186    7f3a            subs        param_3,#0x7f                           
ram:0001d188    c2bf            ittt        gt                                      
ram:0001d18a    d2f1ff03        rsbs.gt.w   param_4,param_3,#0xff                   
ram:0001d18e    40eac250        orr.gt.w    param_1,param_1,param_3, lsl #0x17      
ram:0001d192    7047            bx.gt       lr                                      
ram:0001d194    40f40000        orr         param_1,param_1,#0x800000               
ram:0001d198    4ff00003        mov.w       param_4,#0x0                            
ram:0001d19c    013a            subs        param_3,#0x1                            
                            LAB_0001d19e:                 ;XREF[3,0]:   0001d160,0001d2fa,0001d32c
ram:0001d19e    5ddc            bgt         LAB_0001d25c                            
ram:0001d1a0    12f1190f        cmn         param_3,#0x19                           
ram:0001d1a4    dcbf            itt         le                                      
ram:0001d1a6    00f00040        and.le      param_1,param_1,#0x80000000             
ram:0001d1aa    7047            bx.le       lr                                      
ram:0001d1ac    c2f10002        rsb.w       param_3,param_3,#0x0                    
ram:0001d1b0    4100            lsls        param_2,param_1,#0x1                    
ram:0001d1b2    21fa02f1        lsr.w       param_2,param_2,param_3                 
ram:0001d1b6    c2f12002        rsb.w       param_3,param_3,#0x20                   
ram:0001d1ba    00fa02fc        lsl.w       r12,param_1,param_3                     
ram:0001d1be    5fea3100        rrxs        param_1,param_2                         
ram:0001d1c2    40f10000        adc         param_1,param_1,#0x0                    
ram:0001d1c6    53ea4c03        orrs.w      param_4,param_4,r12, lsl #0x1           
ram:0001d1ca    08bf            it          eq                                      
ram:0001d1cc    20eadc70        bic.eq.w    param_1,param_1,r12, lsr #0x1f          
ram:0001d1d0    7047            bx          lr                                      
                            LAB_0001d1d2:                 ;XREF[1,0]:   0001d21e
ram:0001d1d2    92f0000f        teq         param_3,#0x0                            
ram:0001d1d6    00f0004c        and         r12,param_1,#0x80000000                 
                            LAB_0001d1da:                 ;XREF[1,0]:   0001d1e4
ram:0001d1da    02bf            ittt        eq                                      
ram:0001d1dc    4000            lsl.eq      param_1,param_1,#0x1                    
ram:0001d1de    10f4000f        tst.eq      param_1,#0x800000                       
ram:0001d1e2    013a            sub.eq      param_3,#0x1                            
ram:0001d1e4    f9d0            beq         LAB_0001d1da                            
ram:0001d1e6    40ea0c00        orr.w       param_1,param_1,r12                     
ram:0001d1ea    93f0000f        teq         param_4,#0x0                            
ram:0001d1ee    01f0004c        and         r12,param_2,#0x80000000                 
                            LAB_0001d1f2:                 ;XREF[1,0]:   0001d1fc
ram:0001d1f2    02bf            ittt        eq                                      
ram:0001d1f4    4900            lsl.eq      param_2,param_2,#0x1                    
ram:0001d1f6    11f4000f        tst.eq      param_2,#0x800000                       
ram:0001d1fa    013b            sub.eq      param_4,#0x1                            
ram:0001d1fc    f9d0            beq         LAB_0001d1f2                            
ram:0001d1fe    41ea0c01        orr.w       param_2,param_2,r12                     
ram:0001d202    8fe7            b           LAB_0001d124                            
                            LAB_0001d204:                 ;XREF[1,0]:   0001d122
ram:0001d204    0cead153        and.w       param_4,r12,param_2, lsr #0x17          
ram:0001d208    92ea0c0f        teq.w       param_3,r12                             
ram:0001d20c    18bf            it          ne                                      
ram:0001d20e    93ea0c0f        teq.ne.w    param_4,r12                             
ram:0001d212    0ad0            beq         LAB_0001d22a                            
ram:0001d214    30f0004c        bics        r12,param_1,#0x80000000                 
ram:0001d218    18bf            it          ne                                      
ram:0001d21a    31f0004c        bics.ne     r12,param_2,#0x80000000                 
ram:0001d21e    d8d1            bne         LAB_0001d1d2                            
                            LAB_0001d220:                 ;XREF[2,0]:   0001d384,0001d3a4
ram:0001d220    80ea0100        eor.w       param_1,param_1,param_2                 
ram:0001d224    00f00040        and         param_1,param_1,#0x80000000             
ram:0001d228    7047            bx          lr                                      
                            LAB_0001d22a:                 ;XREF[1,0]:   0001d212
ram:0001d22a    90f0000f        teq         param_1,#0x0                            
ram:0001d22e    17bf            itett       ne                                      
ram:0001d230    90f0004f        teq.ne      param_1,#0x80000000                     
ram:0001d234    0846            mov.eq      param_1,param_2                         
ram:0001d236    91f0000f        teq.ne      param_2,#0x0                            
ram:0001d23a    91f0004f        teq.ne      param_2,#0x80000000                     
ram:0001d23e    14d0            beq         LAB_0001d26a                            
ram:0001d240    92ea0c0f        teq.w       param_3,r12                             
ram:0001d244    01d1            bne         LAB_0001d24a                            
ram:0001d246    4202            lsls        param_3,param_1,#0x9                    
ram:0001d248    0fd1            bne         LAB_0001d26a                            
                            LAB_0001d24a:                 ;XREF[1,0]:   0001d244
ram:0001d24a    93ea0c0f        teq.w       param_4,r12                             
ram:0001d24e    03d1            bne         LAB_0001d258                            
ram:0001d250    4b02            lsls        param_4,param_2,#0x9                    
ram:0001d252    18bf            it          ne                                      
ram:0001d254    0846            mov.ne      param_1,param_2                         
ram:0001d256    08d1            bne         LAB_0001d26a                            
                            LAB_0001d258:                 ;XREF[3,0]:   0001d24e,0001d374,0001d39c
ram:0001d258    80ea0100        eor.w       param_1,param_1,param_2                 
                            LAB_0001d25c:                 ;XREF[1,0]:   0001d19e
ram:0001d25c    00f00040        and         param_1,param_1,#0x80000000             
ram:0001d260    40f0fe40        orr         param_1,param_1,#0x7f000000             
ram:0001d264    40f40000        orr         param_1,param_1,#0x800000               
ram:0001d268    7047            bx          lr                                      
                            LAB_0001d26a:                 ;XREF[7,0]:   0001d23e,0001d248,0001d256,0001d36c
                                                          ;             0001d37a,0001d38a,0001d3a8
ram:0001d26a    40f0fe40        orr         param_1,param_1,#0x7f000000             
ram:0001d26e    40f44000        orr         param_1,param_1,#0xc00000               
ram:0001d272    7047            bx          lr                                      
                            ;************************************************************************************************
                            ;*                                           FUNCTION                                           *
                            ;************************************************************************************************
                            ;uint FUN_0001d274(uint param_1, uint param_2, undefined4 param_3, uint param_4)
          ;param_1       uint                r0                      
          ;param_2       uint                r1                      
          ;param_3       undefined4          r2                      
          ;param_4       uint                r3                      
                                                          ;XREF[1,0]:   0001bf46
ram:0001d274    4ff0ff0c        mov.w       r12,#0xff                               
ram:0001d278    1cead052        ands.w      param_3,r12,param_1, lsr #0x17          
ram:0001d27c    1ebf            ittt        ne                                      
ram:0001d27e    1cead153        ands.ne.w   param_4,r12,param_2, lsr #0x17          
ram:0001d282    92ea0c0f        teq.ne.w    param_3,r12                             
ram:0001d286    93ea0c0f        teq.ne.w    param_4,r12                             
ram:0001d28a    69d0            beq         LAB_0001d360                            
                            LAB_0001d28c:                 ;XREF[1,0]:   0001d35e
ram:0001d28c    a2eb0302        sub.w       param_3,param_3,param_4                 
ram:0001d290    80ea010c        eor.w       r12,param_1,param_2                     
ram:0001d294    4902            lsls        param_2,param_2,#0x9                    
ram:0001d296    4fea4020        lsl.w       param_1,param_1,#0x9                    
ram:0001d29a    37d0            beq         LAB_0001d30c                            
ram:0001d29c    4ff08053        mov.w       param_4,#0x10000000                     
ram:0001d2a0    43ea1111        orr.w       param_2,param_4,param_2, lsr #0x4       
ram:0001d2a4    43ea1013        orr.w       param_4,param_4,param_1, lsr #0x4       
ram:0001d2a8    0cf00040        and         param_1,r12,#0x80000000                 
ram:0001d2ac    8b42            cmp         param_4,param_2                         
ram:0001d2ae    38bf            it          cc                                      
ram:0001d2b0    5b00            lsl.cc      param_4,param_4,#0x1                    
ram:0001d2b2    42f17d02        adc         param_3,param_3,#0x7d                   
ram:0001d2b6    4ff4000c        mov.w       r12,#0x800000                           
                            LAB_0001d2ba:                 ;XREF[1,0]:   0001d2f6
ram:0001d2ba    8b42            cmp         param_4,param_2                         
ram:0001d2bc    24bf            itt         cs                                      
ram:0001d2be    5b1a            sub.cs      param_4,param_4,param_2                 
ram:0001d2c0    40ea0c00        orr.cs.w    param_1,param_1,r12                     
ram:0001d2c4    b3eb510f        cmp.w       param_4,param_2, lsr #0x1               
ram:0001d2c8    24bf            itt         cs                                      
ram:0001d2ca    a3eb5103        sub.cs.w    param_4,param_4,param_2, lsr #0x1       
ram:0001d2ce    40ea5c00        orr.cs.w    param_1,param_1,r12, lsr #0x1           
ram:0001d2d2    b3eb910f        cmp.w       param_4,param_2, lsr #0x2               
ram:0001d2d6    24bf            itt         cs                                      
ram:0001d2d8    a3eb9103        sub.cs.w    param_4,param_4,param_2, lsr #0x2       
ram:0001d2dc    40ea9c00        orr.cs.w    param_1,param_1,r12, lsr #0x2           
ram:0001d2e0    b3ebd10f        cmp.w       param_4,param_2, lsr #0x3               
ram:0001d2e4    24bf            itt         cs                                      
ram:0001d2e6    a3ebd103        sub.cs.w    param_4,param_4,param_2, lsr #0x3       
ram:0001d2ea    40eadc00        orr.cs.w    param_1,param_1,r12, lsr #0x3           
ram:0001d2ee    1b01            lsls        param_4,param_4,#0x4                    
ram:0001d2f0    18bf            it          ne                                      
ram:0001d2f2    5fea1c1c        lsrs.ne.w   r12,r12,#0x4                            
ram:0001d2f6    e0d1            bne         LAB_0001d2ba                            
ram:0001d2f8    fd2a            cmp         param_3,#0xfd                           
ram:0001d2fa    3ff650af        bhi.w       LAB_0001d19e                            
ram:0001d2fe    8b42            cmp         param_4,param_2                         
ram:0001d300    40ebc250        adc.w       param_1,param_1,param_3, lsl #0x17      
ram:0001d304    08bf            it          eq                                      
ram:0001d306    20f00100        bic.eq      param_1,param_1,#0x1                    
ram:0001d30a    7047            bx          lr                                      
                            LAB_0001d30c:                 ;XREF[1,0]:   0001d29a
ram:0001d30c    0cf0004c        and         r12,r12,#0x80000000                     
ram:0001d310    4cea5020        orr.w       param_1,r12,param_1, lsr #0x9           
ram:0001d314    7f32            adds        param_3,#0x7f                           
ram:0001d316    c2bf            ittt        gt                                      
ram:0001d318    d2f1ff03        rsbs.gt.w   param_4,param_3,#0xff                   
ram:0001d31c    40eac250        orr.gt.w    param_1,param_1,param_3, lsl #0x17      
ram:0001d320    7047            bx.gt       lr                                      
ram:0001d322    40f40000        orr         param_1,param_1,#0x800000               
ram:0001d326    4ff00003        mov.w       param_4,#0x0                            
ram:0001d32a    013a            subs        param_3,#0x1                            
ram:0001d32c    37e7            b           LAB_0001d19e                            
                            LAB_0001d32e:                 ;XREF[1,0]:   0001d396
ram:0001d32e    92f0000f        teq         param_3,#0x0                            
ram:0001d332    00f0004c        and         r12,param_1,#0x80000000                 
                            LAB_0001d336:                 ;XREF[1,0]:   0001d340
ram:0001d336    02bf            ittt        eq                                      
ram:0001d338    4000            lsl.eq      param_1,param_1,#0x1                    
ram:0001d33a    10f4000f        tst.eq      param_1,#0x800000                       
ram:0001d33e    013a            sub.eq      param_3,#0x1                            
ram:0001d340    f9d0            beq         LAB_0001d336                            
ram:0001d342    40ea0c00        orr.w       param_1,param_1,r12                     
ram:0001d346    93f0000f        teq         param_4,#0x0                            
ram:0001d34a    01f0004c        and         r12,param_2,#0x80000000                 
                            LAB_0001d34e:                 ;XREF[1,0]:   0001d358
ram:0001d34e    02bf            ittt        eq                                      
ram:0001d350    4900            lsl.eq      param_2,param_2,#0x1                    
ram:0001d352    11f4000f        tst.eq      param_2,#0x800000                       
ram:0001d356    013b            sub.eq      param_4,#0x1                            
ram:0001d358    f9d0            beq         LAB_0001d34e                            
ram:0001d35a    41ea0c01        orr.w       param_2,param_2,r12                     
ram:0001d35e    95e7            b           LAB_0001d28c                            
                            LAB_0001d360:                 ;XREF[1,0]:   0001d28a
ram:0001d360    0cead153        and.w       param_4,r12,param_2, lsr #0x17          
ram:0001d364    92ea0c0f        teq.w       param_3,r12                             
ram:0001d368    08d1            bne         LAB_0001d37c                            
ram:0001d36a    4202            lsls        param_3,param_1,#0x9                    
ram:0001d36c    7ff47daf        bne.w       LAB_0001d26a                            
ram:0001d370    93ea0c0f        teq.w       param_4,r12                             
ram:0001d374    7ff470af        bne.w       LAB_0001d258                            
ram:0001d378    0846            mov         param_1,param_2                         
ram:0001d37a    76e7            b           LAB_0001d26a                            
                            LAB_0001d37c:                 ;XREF[1,0]:   0001d368
ram:0001d37c    93ea0c0f        teq.w       param_4,r12                             
ram:0001d380    04d1            bne         LAB_0001d38c                            
ram:0001d382    4b02            lsls        param_4,param_2,#0x9                    
ram:0001d384    3ff44caf        beq.w       LAB_0001d220                            
ram:0001d388    0846            mov         param_1,param_2                         
ram:0001d38a    6ee7            b           LAB_0001d26a                            
                            LAB_0001d38c:                 ;XREF[1,0]:   0001d380
ram:0001d38c    30f0004c        bics        r12,param_1,#0x80000000                 
ram:0001d390    18bf            it          ne                                      
ram:0001d392    31f0004c        bics.ne     r12,param_2,#0x80000000                 
ram:0001d396    cad1            bne         LAB_0001d32e                            
ram:0001d398    30f00042        bics        param_3,param_1,#0x80000000             
ram:0001d39c    7ff45caf        bne.w       LAB_0001d258                            
ram:0001d3a0    31f00043        bics        param_4,param_2,#0x80000000             
ram:0001d3a4    7ff43caf        bne.w       LAB_0001d220                            
ram:0001d3a8    5fe7            b           LAB_0001d26a                            
ram:0001d3aa    00bf            nop                                                  
ram:0001d3ac    4ff0ff3c        mov.w       r12,#0xffffffff                         
ram:0001d3b0    06e0            b           LAB_0001d3c0                            
ram:0001d3b2    00bf            nop                                                  
ram:0001d3b4    4ff0010c        mov.w       r12,#0x1                                
ram:0001d3b8    02e0            b           LAB_0001d3c0                            
ram:0001d3ba    00bf            nop                                                  
                            ;************************************************************************************************
                            ;*                                           FUNCTION                                           *
                            ;************************************************************************************************
                            ;uint FUN_0001d3bc(uint param_1, uint param_2)
          ;param_1       uint                r0                      
          ;param_2       uint                r1                      
                                                          ;XREF[1,0]:   0001d426
ram:0001d3bc    4ff0010c        mov.w       r12,#0x1                                
                            LAB_0001d3c0:                 ;XREF[2,0]:   0001d3b0,0001d3b8
ram:0001d3c0    4df804cd        push.w      r12                                     
ram:0001d3c4    4fea4002        lsl.w       r2,param_1,#0x1                         
ram:0001d3c8    4fea4103        lsl.w       r3,param_2,#0x1                         
ram:0001d3cc    7fea226c        mvns.w      r12,r2, asr #0x18                       
ram:0001d3d0    18bf            it          ne                                      
ram:0001d3d2    7fea236c        mvns.ne.w   r12,r3, asr #0x18                       
ram:0001d3d6    11d0            beq         LAB_0001d3fc                            
                            LAB_0001d3d8:                 ;XREF[2,0]:   0001d40c,0001d412
ram:0001d3d8    01b0            add         sp,#0x4                                 
ram:0001d3da    52ea530c        orrs.w      r12,r2,r3, lsr #0x1                     
ram:0001d3de    18bf            it          ne                                      
ram:0001d3e0    90ea010f        teq.ne.w    param_1,param_2                         
ram:0001d3e4    58bf            it          pl                                      
ram:0001d3e6    b2eb0300        subs.pl.w   param_1,r2,r3                           
ram:0001d3ea    88bf            it          hi                                      
ram:0001d3ec    c817            asr.hi      param_1,param_2,#0x1f                   
ram:0001d3ee    38bf            it          cc                                      
ram:0001d3f0    6feae170        mvn.cc.w    param_1,param_2, asr #0x1f              
ram:0001d3f4    18bf            it          ne                                      
ram:0001d3f6    40f00100        orr.ne      param_1,param_1,#0x1                    
ram:0001d3fa    7047            bx          lr                                      
                            LAB_0001d3fc:                 ;XREF[1,0]:   0001d3d6
ram:0001d3fc    7fea226c        mvns.w      r12,r2, asr #0x18                       
ram:0001d400    02d1            bne         LAB_0001d408                            
ram:0001d402    5fea402c        lsls.w      r12,param_1,#0x9                        
ram:0001d406    05d1            bne         LAB_0001d414                            
                            LAB_0001d408:                 ;XREF[1,0]:   0001d400
ram:0001d408    7fea236c        mvns.w      r12,r3, asr #0x18                       
ram:0001d40c    e4d1            bne         LAB_0001d3d8                            
ram:0001d40e    5fea412c        lsls.w      r12,param_2,#0x9                        
ram:0001d412    e1d0            beq         LAB_0001d3d8                            
                            LAB_0001d414:                 ;XREF[1,0]:   0001d406
ram:0001d414    5df8040b        pop.w       param_1                                 
ram:0001d418    7047            bx          lr                                      
ram:0001d41a    00bf            nop                                                  
                            ;************************************************************************************************
                            ;*                                           FUNCTION                                           *
                            ;************************************************************************************************
                            ;undefined8 FUN_0001d41c(uint param_1, uint param_2)
          ;param_1       uint                r0                      
          ;param_2       uint                r1                      
                                                          ;XREF[1,0]:   0001d488
ram:0001d41c    8446            mov         r12,param_1                             
ram:0001d41e    0846            mov         param_1,param_2                         
ram:0001d420    6146            mov         param_2,r12                             
ram:0001d422    ffe7            b           FUN_0001d424                            ;undefined8 FUN_0001d424(uint param_1...
                            ;************************************************************************************************
                            ;*                                           FUNCTION                                           *
                            ;************************************************************************************************
                            ;undefined8 FUN_0001d424(uint param_1, uint param_2)
          ;param_1       uint                r0                      
          ;param_2       uint                r1                      
                                                          ;XREF[3,0]:   0001d422,0001d438,0001d44c
ram:0001d424    0fb5            push        {param_1,param_2,r2,r3,lr}              
ram:0001d426    fff7c9ff        bl          FUN_0001d3bc                            ;uint FUN_0001d3bc(uint param_1, uint...
ram:0001d42a    0028            cmp         param_1,#0x0                            
ram:0001d42c    48bf            it          mi                                      
ram:0001d42e    10f1000f        cmn.mi      param_1,#0x0                            
ram:0001d432    0fbd            pop         {param_1,param_2,r2,r3,pc}              
ram:0001d434    4df808ed        str.w       lr,[sp,#-0x8]!                          
ram:0001d438    fff7f4ff        bl          FUN_0001d424                            ;undefined8 FUN_0001d424(uint param_1...
ram:0001d43c    0cbf            ite         eq                                      
ram:0001d43e    0120            mov.eq      r0,#0x1                                 
ram:0001d440    0020            mov.ne      r0,#0x0                                 
ram:0001d442    5df808fb        ldr.w       pc,[sp],#0x8                            
                            ;************************************************************************************************
                            ;*                                           FUNCTION                                           *
                            ;************************************************************************************************
                            ;ulonglong FUN_0001d448(uint param_1, uint param_2)
          ;param_1       uint                r0                      
          ;param_2       uint                r1                      
          ;local_8       undefined4          -8                      ;XREF[1,0]:   0001d448
                                                          ;XREF[2,0]:   0001bf54,0001c19a
ram:0001d448    4df808ed        str.w       lr,[sp,#-0x8]!=>local_8                 
ram:0001d44c    fff7eaff        bl          FUN_0001d424                            ;undefined8 FUN_0001d424(uint param_1...
ram:0001d450    34bf            ite         cc                                      
ram:0001d452    0120            mov.cc      param_1,#0x1                            
ram:0001d454    0020            mov.cs      param_1,#0x0                            
ram:0001d456    5df808fb        ldr.w       pc,[sp],#0x8                            
                            ;************************************************************************************************
                            ;*                                           FUNCTION                                           *
                            ;************************************************************************************************
                            ;ulonglong FUN_0001d484(uint param_1, uint param_2)
          ;param_1       uint                r0                      
          ;param_2       uint                r1                      
          ;local_8       undefined4          -8                      ;XREF[1,0]:   0001d484
                                                          ;XREF[2,0]:   0001bf5e,0001c1c4
ram:0001d484    4df808ed        str.w       lr,[sp,#-0x8]!=>local_8                 
ram:0001d488    fff7c8ff        bl          FUN_0001d41c                            ;undefined8 FUN_0001d41c(uint param_1...
ram:0001d48c    34bf            ite         cc                                      
ram:0001d48e    0120            mov.cc      param_1,#0x1                            
ram:0001d490    0020            mov.cs      param_1,#0x0                            
ram:0001d492    5df808fb        ldr.w       pc,[sp],#0x8                            
                            ;************************************************************************************************
                            ;*                                           FUNCTION                                           *
                            ;************************************************************************************************
                            ;uint FUN_0001d498(uint param_1)
          ;param_1       uint                r0                      
                                                          ;XREF[1,0]:   0001bf66
ram:0001d498    4fea4002        lsl.w       r2,param_1,#0x1                         
ram:0001d49c    b2f1fe4f        cmp.w       r2,#0x7f000000                          
ram:0001d4a0    0fd3            bcc         LAB_0001d4c2                            
ram:0001d4a2    4ff09e03        mov.w       r3,#0x9e                                
ram:0001d4a6    b3eb1262        subs.w      r2,r3,r2, lsr #0x18                     
ram:0001d4aa    0dd9            bls         LAB_0001d4c8                            
ram:0001d4ac    4fea0023        lsl.w       r3,param_1,#0x8                         
ram:0001d4b0    43f00043        orr         r3,r3,#0x80000000                       
ram:0001d4b4    10f0004f        tst         param_1,#0x80000000                     
ram:0001d4b8    23fa02f0        lsr.w       param_1,r3,r2                           
ram:0001d4bc    18bf            it          ne                                      
ram:0001d4be    4042            rsb.ne      param_1,param_1                         
ram:0001d4c0    7047            bx          lr                                      
                            LAB_0001d4c2:                 ;XREF[1,0]:   0001d4a0
ram:0001d4c2    4ff00000        mov.w       param_1,#0x0                            
ram:0001d4c6    7047            bx          lr                                      
                            LAB_0001d4c8:                 ;XREF[1,0]:   0001d4aa
ram:0001d4c8    12f1610f        cmn         r2,#0x61                                
ram:0001d4cc    01d1            bne         LAB_0001d4d2                            
ram:0001d4ce    4202            lsls        r2,param_1,#0x9                         
ram:0001d4d0    05d1            bne         LAB_0001d4de                            
                            LAB_0001d4d2:                 ;XREF[1,0]:   0001d4cc
ram:0001d4d2    10f00040        ands        param_1,param_1,#0x80000000             
ram:0001d4d6    08bf            it          eq                                      
ram:0001d4d8    6ff00040        mvn.eq      param_1,#0x80000000                     
ram:0001d4dc    7047            bx          lr                                      
                            LAB_0001d4de:                 ;XREF[1,0]:   0001d4d0
ram:0001d4de    4ff00000        mov.w       param_1,#0x0                            
ram:0001d4e2    7047            bx          lr                                      
                            ;************************************************************************************************
                            ;*                                           FUNCTION                                           *
                            ;************************************************************************************************
                            ;undefined FUN_0001d4e4(void)
                                                          ;XREF[1,0]:   0001c590
ram:0001d4e4    f8b5            push        {r3,r4,r5,r6,r7,lr}                     
ram:0001d4e6    00bf            nop                                                  
ram:0001d4e8    f8bc            pop         {r3,r4,r5,r6,r7}                        
ram:0001d4ea    08bc            pop         {r3}                                    
ram:0001d4ec    9e46            mov         lr,r3                                   
ram:0001d4ee    7047            bx          lr                                      
                            ;************************************************************************************************
                            ;*                                           FUNCTION                                           *
                            ;************************************************************************************************
                            ;undefined FUN_0001d4f0(void)
ram:0001d4f0    f8b5            push        {r3,r4,r5,r6,r7,lr}                     
ram:0001d4f2    00bf            nop                                                  
ram:0001d4f4    f8bc            pop         {r3,r4,r5,r6,r7}                        
ram:0001d4f6    08bc            pop         {r3}                                    
ram:0001d4f8    9e46            mov         lr,r3                                   
ram:0001d4fa    7047            bx          lr                                      
ram:0001d4fc    0000            movs        r0,r0                                   
ram:0001d4fe    0000            movs        r0,r0                                   
                            LAB_0001d500:                 ;XREF[2,0]:   000193be,0001d502
ram:0001d500    0738            subs        r0,#0x7                                 
ram:0001d502    fdd8            bhi         LAB_0001d500                            
ram:0001d504    7047            bx          lr                                      
ram:0001d506    0000            movs        r0,r0                                   
                            PTR_PTR_LAB_0001be5c+1+1_00...;XREF[2,0]:   00019994,000199a8
ram:0001d508    2cd60100        addr        PTR_LAB_0001be5c+1+1_0001d62c           ;= 0001be5d
ram:0001d50c    30d60100        addr        PTR_LAB_0001beec+1+1_0001d630           ;= 0001beed
                            DAT_0001d514:                 ;XREF[2,0]:   0001b778,0001b7dc
ram:0001d514    50eada30        undefined4  30DAEA50h                               
                            DAT_0001d518:                 ;XREF[1,0]:   0001b77a
ram:0001d518    8883b89f        undefined4  9FB88388h                               
                            DAT_0001d51c:                 ;XREF[1,0]:   0001b778
ram:0001d51c    604f15f3        undefined4  F3154F60h                               
                            DAT_0001d520:                 ;XREF[1,0]:   0001b77a
ram:0001d520    0000c98e        undefined4  8EC90000h                               
                            DAT_0001d524:                 ;XREF[3,0]:   0001ba4a,0001ba4c,0001ba98
ram:0001d524    01000007        undefined4  07000001h                               
                            PTR_PTR_LAB_0001beec+1+1_00...;XREF[2,0]:   0001b99c,0001b9c4
ram:0001d528    30d60100        addr        PTR_LAB_0001beec+1+1_0001d630           ;= 0001beed
ram:0001d52c    30d60100        addr        PTR_LAB_0001beec+1+1_0001d630           ;= 0001beed
                            PTR_PTR_FUN_0001bae8+1_0001...;XREF[2,0]:   0001bab2,0001bad4
ram:0001d534    38d60100        addr        PTR_FUN_0001bae8+1_0001d638             ;= 0001bae9
ram:0001d538    48d60100        addr        DAT_0001d648                            ;= 24h    $
                            PTR_PTR_LAB_0001beec+1+1_00...;XREF[2,0]:   0001b9cc,0001b9ec
ram:0001d540    30d60100        addr        PTR_LAB_0001beec+1+1_0001d630           ;= 0001beed
ram:0001d544    38d60100        addr        PTR_FUN_0001bae8+1_0001d638             ;= 0001bae9
                            PTR_DAT_0001d54c:             ;XREF[2,0]:   0001bb06,0001bb34
ram:0001d54c    dcd50100        addr        DAT_0001d5dc                            ;= 35h    5
ram:0001d550    1cd60100        addr        PTR_FUN_0001b7f4+1_0001d61c             ;= 0001b7f5
ram:0001d558    1cd60100        addr        PTR_FUN_0001b7f4+1_0001d61c             ;= 0001b7f5
ram:0001d55c    2cd60100        addr        PTR_LAB_0001be5c+1+1_0001d62c           ;= 0001be5d
                            DAT_0001d564:                 ;XREF[2,0]:   0001c046,0001c0c0
ram:0001d564    35f662ba        undefined4  BA62F635h                               
                            DAT_0001d568:                 ;XREF[1,0]:   0001c048
ram:0001d568    c4ccaa8f        undefined4  8FAACCC4h                               
                            DAT_0001d56c:                 ;XREF[2,0]:   0001c046,0001c04e
ram:0001d56c    fb41e5a1        undefined4  A1E541FBh                               
                            DAT_0001d570:                 ;XREF[1,0]:   0001c048
ram:0001d570    b78589c2        undefined4  C28985B7h                               
                            DAT_0001d577:                 ;XREF[2,0]:   0001c358,0001c50c
                            s_Band_%s_0001d57c:           ;XREF[2,0]:   0001c382,0001c518
ram:0001d57c    42616e642...    ds          "Band %s"                               
                            s_Crewbands_GmbH_0001d584:    ;XREF[2,0]:   0001c45e,0001c538
ram:0001d584    437265776...    ds          "Crewbands GmbH"                        
                            s_Band1_0001d593:             ;XREF[2,0]:   0001c466,0001c53c
ram:0001d593    42616e643100    ds          "Band1"                                 
                            s_1.0.0_0001d599:             ;XREF[3,0]:   0001c476,0001c480,0001c540
ram:0001d599    312e302e3000    ds          "1.0.0"                                 
                            DAT_0001d5a0:                 ;XREF[1,0]:   0001c564
ram:0001d5a0    241c0020        undefined4  20001C24h                               
                            s_#-0+_0001d5a4:              ;XREF[2,0]:   0001c79e,0001c8e0
ram:0001d5a4    232d302b2000    ds          "#-0+ "                                 
                            ;************************************************************************************************
                            ;*                                           FUNCTION                                           *
                            ;************************************************************************************************
                            ;undefined FUN_0001d5aa(undefined4 param_1, int param_2)
          ;param_1       undefined4          r0                      
          ;param_2       int                 r1                      
                                                          ;XREF[2,0]:   0001c836,0001c8e4
ram:0001d5aa    686c            ldr         param_1,[r5,#0x44]                      
ram:0001d5ac    4c00            lsls        r4,param_2,#0x1                         
                            s_efgEFG_0001d5ae:            ;XREF[2,0]:   0001c850,0001c8e8
ram:0001d5ae    656667454...    ds          "efgEFG"                                
                            s_0123456789ABCDEF_0001d5b5:  ;XREF[3,0]:   0001cb66,0001cc0c,0001cc1c
ram:0001d5b5    303132333...    ds          "0123456789ABCDEF"                      
                            s_0123456789abcdef_0001d5c6:  ;XREF[1,0]:   0001cc18
ram:0001d5c6    303132333...    ds          "0123456789abcdef"                      
                            DAT_0001d5d8:                 ;XREF[3,0]:   0001920c,00019220,0001925c
                            DAT_0001d5dc:                 ;XREF[1,0]:   0001d54c
                            PTR_FUN_0001b7f4+1_0001d61c:  ;XREF[2,0]:   0001d550,0001d558
ram:0001d61c    f5b70100        addr        FUN_0001b7f4+1                          
                            PTR_LAB_0001be5c+1+1_0001d62c:;XREF[2,0]:   0001d508,0001d55c
ram:0001d62c    5dbe0100        addr        LAB_0001be5c+1+1                        
                            PTR_LAB_0001beec+1+1_0001d630:;XREF[4,0]:   0001d50c,0001d528,0001d52c,0001d540
ram:0001d630    edbe0100        addr        LAB_0001beec+1+1                        
                            PTR_FUN_0001bae8+1_0001d638:  ;XREF[2,0]:   0001d534,0001d544
ram:0001d638    e9ba0100        addr        FUN_0001bae8+1                          
                            DAT_0001d648:                 ;XREF[1,0]:   0001d538
                            DAT_0001d650:                 ;XREF[1,0]:   000192e0
ram:0001d6bc    25920100        addr        LAB_00019224+1+1                        
                            PTR_LAB_00019200+1+1_0001d6c0:;XREF[1,0]:   000192ec
ram:0001d6c0    01920100        addr        LAB_00019200+1+1                        
                            DAT_0001d6c4:                 ;XREF[1,0]:   000192ec
ram:0001d6c4    00000000        undefined4  00000000h                               
